; Listing generated by Microsoft (R) Optimizing Compiler Version 19.23.28106.4 

	TITLE	D:\work\intel\intel_codec\QSVPipeline\convert_csp_sse2.cpp
	.686P
	.XMM
	include listing.inc
	.model	flat

INCLUDELIB MSVCRTD
INCLUDELIB OLDNAMES

CONST	SEGMENT
$SG7036	DB	'Invalid', 00H
$SG7037	DB	'nv12', 00H
	ORG $+3
$SG7038	DB	'yv12', 00H
	ORG $+3
$SG7039	DB	'yuy2', 00H
	ORG $+3
$SG7040	DB	'yuv422', 00H
	ORG $+1
$SG7041	DB	'nv16', 00H
	ORG $+3
$SG7042	DB	'yuv444', 00H
	ORG $+1
$SG7043	DB	'yv12(9bit)', 00H
	ORG $+1
$SG7044	DB	'yv12(10bit)', 00H
$SG7045	DB	'yv12(12bit)', 00H
$SG7046	DB	'yv12(14bit)', 00H
$SG7047	DB	'yv12(16bit)', 00H
$SG7048	DB	'p010', 00H
	ORG $+3
$SG7049	DB	'yuv422(9bit)', 00H
	ORG $+3
$SG7050	DB	'yuv422(10bit)', 00H
	ORG $+2
$SG7051	DB	'yuv422(12bit)', 00H
	ORG $+2
$SG7052	DB	'yuv422(14bit)', 00H
	ORG $+2
$SG7053	DB	'yuv422(16bit)', 00H
	ORG $+2
$SG7054	DB	'p210', 00H
	ORG $+3
$SG7055	DB	'yuv444(9bit)', 00H
	ORG $+3
$SG7056	DB	'yuv444(10bit)', 00H
	ORG $+2
$SG7057	DB	'yuv444(12bit)', 00H
	ORG $+2
$SG7058	DB	'yuv444(14bit)', 00H
	ORG $+2
$SG7059	DB	'yuv444(16bit)', 00H
	ORG $+2
$SG7060	DB	'yuva444', 00H
$SG7061	DB	'yuva444(16bit)', 00H
	ORG $+1
$SG7062	DB	'rgb24r', 00H
	ORG $+1
$SG7063	DB	'rgb32r', 00H
	ORG $+1
$SG7064	DB	'rgb24', 00H
	ORG $+2
$SG7065	DB	'rgb32', 00H
	ORG $+2
$SG7066	DB	'bgr24', 00H
	ORG $+2
$SG7067	DB	'bgr32', 00H
	ORG $+2
$SG7068	DB	'rgb', 00H
$SG7069	DB	'rgba', 00H
	ORG $+3
$SG7070	DB	'gbr', 00H
$SG7071	DB	'gbra', 00H
	ORG $+3
$SG7072	DB	'yc48', 00H
	ORG $+3
$SG7073	DB	'y8', 00H
	ORG $+1
$SG7074	DB	'yc16', 00H
	ORG $+11
?Array_Y_L_MA_16@@3QBFB DW 0dbH				; Array_Y_L_MA_16
	DW	01H
	DW	0dbH
	DW	01H
	DW	0dbH
	DW	01H
	DW	0dbH
	DW	01H
	DW	0dbH
	DW	01H
	DW	0dbH
	DW	01H
	DW	0dbH
	DW	01H
	DW	0dbH
	DW	01H
?Array_UV_L_MA_16_420P@@3QBFB DW 0eH			; Array_UV_L_MA_16_420P
	DW	00H
	DW	0eH
	DW	00H
	DW	0eH
	DW	00H
	DW	0eH
	DW	00H
	DW	0eH
	DW	00H
	DW	0eH
	DW	00H
	DW	0eH
	DW	00H
	DW	0eH
	DW	00H
?Array_UV_L_MA_16_420I@@3QAY0BA@$$CBFA DW 02aH		; Array_UV_L_MA_16_420I
	DW	00H
	DW	02aH
	DW	00H
	DW	02aH
	DW	00H
	DW	02aH
	DW	00H
	DW	02aH
	DW	00H
	DW	02aH
	DW	00H
	DW	02aH
	DW	00H
	DW	02aH
	DW	00H
	DW	0eH
	DW	00H
	DW	0eH
	DW	00H
	DW	0eH
	DW	00H
	DW	0eH
	DW	00H
	DW	0eH
	DW	00H
	DW	0eH
	DW	00H
	DW	0eH
	DW	00H
	DW	0eH
	DW	00H
?Array_UV_L_MA_16_444@@3QBFB DW 0eH			; Array_UV_L_MA_16_444
	DW	00H
	DW	0eH
	DW	00H
	DW	0eH
	DW	00H
	DW	0eH
	DW	00H
	DW	0eH
	DW	00H
	DW	0eH
	DW	00H
	DW	0eH
	DW	00H
	DW	0eH
	DW	00H
?Array_MASK_YCP2Y@@3QAY0BA@$$CBFA DW 00H		; Array_MASK_YCP2Y
	DW	0ffffH
	DW	00H
	DW	00H
	DW	0ffffH
	DW	00H
	DW	00H
	DW	0ffffH
	DW	00H
	DW	0ffffH
	DW	00H
	DW	00H
	DW	0ffffH
	DW	00H
	DW	00H
	DW	0ffffH
	DW	00H
	DW	00H
	DW	0ffffH
	DW	00H
	DW	00H
	DW	0ffffH
	DW	00H
	DW	00H
	DW	00H
	DW	00H
	DW	0ffffH
	DW	00H
	DW	00H
	DW	0ffffH
	DW	00H
	DW	00H
?Array_MASK_YCP2UV@@3QAY0BA@$$CBFA DW 0ffffH		; Array_MASK_YCP2UV
	DW	00H
	DW	00H
	DW	00H
	DW	00H
	DW	0ffffH
	DW	0ffffH
	DW	00H
	DW	0ffffH
	DW	00H
	DW	00H
	DW	00H
	DW	00H
	DW	0ffffH
	DW	0ffffH
	DW	00H
	DW	00H
	DW	00H
	DW	00H
	DW	0ffffH
	DW	0ffffH
	DW	00H
	DW	00H
	DW	00H
	DW	00H
	DW	00H
	DW	00H
	DW	0ffffH
	DW	0ffffH
	DW	00H
	DW	00H
	DW	00H
CONST	ENDS
PUBLIC	?copy_nv12_to_nv12_sse2@@YAXPAPAXPAPBXHHHHHHHHPAH@Z ; copy_nv12_to_nv12_sse2
PUBLIC	?copy_p010_to_p010_sse2@@YAXPAPAXPAPBXHHHHHHHHPAH@Z ; copy_p010_to_p010_sse2
PUBLIC	?convert_yuy2_to_nv12_sse2@@YAXPAPAXPAPBXHHHHHHHHPAH@Z ; convert_yuy2_to_nv12_sse2
PUBLIC	?convert_yuy2_to_nv12_i_sse2@@YAXPAPAXPAPBXHHHHHHHHPAH@Z ; convert_yuy2_to_nv12_i_sse2
PUBLIC	?convert_yv12_to_nv12_sse2@@YAXPAPAXPAPBXHHHHHHHHPAH@Z ; convert_yv12_to_nv12_sse2
PUBLIC	?convert_uv_yv12_to_nv12_sse2@@YAXPAPAXPAPBXHHHHHHHHPAH@Z ; convert_uv_yv12_to_nv12_sse2
PUBLIC	?convert_gbr_to_rgb32_sse2@@YAXPAPAXPAPBXHHHHHHHHPAH@Z ; convert_gbr_to_rgb32_sse2
PUBLIC	?convert_rgb32_to_rgb_sse2@@YAXPAPAXPAPBXHHHHHHHHPAH@Z ; convert_rgb32_to_rgb_sse2
PUBLIC	?convert_bgr32_to_rgb_sse2@@YAXPAPAXPAPBXHHHHHHHHPAH@Z ; convert_bgr32_to_rgb_sse2
PUBLIC	?convert_rgb32r_to_rgb_sse2@@YAXPAPAXPAPBXHHHHHHHHPAH@Z ; convert_rgb32r_to_rgb_sse2
PUBLIC	?convert_rgb24_to_rgb24_sse2@@YAXPAPAXPAPBXHHHHHHHHPAH@Z ; convert_rgb24_to_rgb24_sse2
PUBLIC	??$convert_rgb24_to_rgb24_simd@$0BM@@@YAXPAPAXPAPBXHHHHHHHHPAH@Z ; convert_rgb24_to_rgb24_simd<28>
PUBLIC	?convert_rgb32_to_rgb32_sse2@@YAXPAPAXPAPBXHHHHHHHHPAH@Z ; convert_rgb32_to_rgb32_sse2
PUBLIC	??$convert_rgb32_to_rgb32_simd@$0BN@@@YAXPAPAXPAPBXHHHHHHHHPAH@Z ; convert_rgb32_to_rgb32_simd<29>
PUBLIC	?convert_rgb24r_to_rgb24_sse2@@YAXPAPAXPAPBXHHHHHHHHPAH@Z ; convert_rgb24r_to_rgb24_sse2
PUBLIC	?convert_rgb32r_to_rgb32_sse2@@YAXPAPAXPAPBXHHHHHHHHPAH@Z ; convert_rgb32r_to_rgb32_sse2
PUBLIC	?copy_rgb_to_rgb_sse2@@YAXPAPAXPAPBXHHHHHHHHPAH@Z ; copy_rgb_to_rgb_sse2
PUBLIC	??$copy_rgb_to_rgb@$0PPACABAA@@@YAXPAPAXPAPBXHHHHHHHHPAH@Z ; copy_rgb_to_rgb<4278321408>
PUBLIC	?copy_gbr_to_rgb_sse2@@YAXPAPAXPAPBXHHHHHHHHPAH@Z ; copy_gbr_to_rgb_sse2
PUBLIC	??$copy_rgb_to_rgb@$0PPABAAAC@@@YAXPAPAXPAPBXHHHHHHHHPAH@Z ; copy_rgb_to_rgb<4278255618>
PUBLIC	?convert_yv12_to_p010_sse2@@YAXPAPAXPAPBXHHHHHHHHPAH@Z ; convert_yv12_to_p010_sse2
PUBLIC	?convert_yv12_16_to_nv12_sse2@@YAXPAPAXPAPBXHHHHHHHHPAH@Z ; convert_yv12_16_to_nv12_sse2
PUBLIC	?convert_yv12_14_to_nv12_sse2@@YAXPAPAXPAPBXHHHHHHHHPAH@Z ; convert_yv12_14_to_nv12_sse2
PUBLIC	?convert_yv12_12_to_nv12_sse2@@YAXPAPAXPAPBXHHHHHHHHPAH@Z ; convert_yv12_12_to_nv12_sse2
PUBLIC	?convert_yv12_10_to_nv12_sse2@@YAXPAPAXPAPBXHHHHHHHHPAH@Z ; convert_yv12_10_to_nv12_sse2
PUBLIC	?convert_yv12_09_to_nv12_sse2@@YAXPAPAXPAPBXHHHHHHHHPAH@Z ; convert_yv12_09_to_nv12_sse2
PUBLIC	?convert_yv12_16_to_p010_sse2@@YAXPAPAXPAPBXHHHHHHHHPAH@Z ; convert_yv12_16_to_p010_sse2
PUBLIC	?convert_yv12_14_to_p010_sse2@@YAXPAPAXPAPBXHHHHHHHHPAH@Z ; convert_yv12_14_to_p010_sse2
PUBLIC	?convert_yv12_12_to_p010_sse2@@YAXPAPAXPAPBXHHHHHHHHPAH@Z ; convert_yv12_12_to_p010_sse2
PUBLIC	?convert_yv12_10_to_p010_sse2@@YAXPAPAXPAPBXHHHHHHHHPAH@Z ; convert_yv12_10_to_p010_sse2
PUBLIC	?convert_yv12_09_to_p010_sse2@@YAXPAPAXPAPBXHHHHHHHHPAH@Z ; convert_yv12_09_to_p010_sse2
PUBLIC	?convert_yc48_to_p010_sse2@@YAXPAPAXPAPBXHHHHHHHHPAH@Z ; convert_yc48_to_p010_sse2
PUBLIC	?convert_yc48_to_p010_i_sse2@@YAXPAPAXPAPBXHHHHHHHHPAH@Z ; convert_yc48_to_p010_i_sse2
PUBLIC	?copy_yuv444_to_yuv444_sse2@@YAXPAPAXPAPBXHHHHHHHHPAH@Z ; copy_yuv444_to_yuv444_sse2
PUBLIC	?convert_yuv444_16_to_yuv444_16_sse2@@YAXPAPAXPAPBXHHHHHHHHPAH@Z ; convert_yuv444_16_to_yuv444_16_sse2
PUBLIC	?convert_yuv444_14_to_yuv444_16_sse2@@YAXPAPAXPAPBXHHHHHHHHPAH@Z ; convert_yuv444_14_to_yuv444_16_sse2
PUBLIC	?convert_yuv444_12_to_yuv444_16_sse2@@YAXPAPAXPAPBXHHHHHHHHPAH@Z ; convert_yuv444_12_to_yuv444_16_sse2
PUBLIC	?convert_yuv444_10_to_yuv444_16_sse2@@YAXPAPAXPAPBXHHHHHHHHPAH@Z ; convert_yuv444_10_to_yuv444_16_sse2
PUBLIC	?convert_yuv444_09_to_yuv444_16_sse2@@YAXPAPAXPAPBXHHHHHHHHPAH@Z ; convert_yuv444_09_to_yuv444_16_sse2
PUBLIC	?convert_yuv444_to_yuv444_16_sse2@@YAXPAPAXPAPBXHHHHHHHHPAH@Z ; convert_yuv444_to_yuv444_16_sse2
PUBLIC	?convert_yuv444_16_to_yuv444_sse2@@YAXPAPAXPAPBXHHHHHHHHPAH@Z ; convert_yuv444_16_to_yuv444_sse2
PUBLIC	?convert_yuv444_14_to_yuv444_sse2@@YAXPAPAXPAPBXHHHHHHHHPAH@Z ; convert_yuv444_14_to_yuv444_sse2
PUBLIC	?convert_yuv444_12_to_yuv444_sse2@@YAXPAPAXPAPBXHHHHHHHHPAH@Z ; convert_yuv444_12_to_yuv444_sse2
PUBLIC	?convert_yuv444_10_to_yuv444_sse2@@YAXPAPAXPAPBXHHHHHHHHPAH@Z ; convert_yuv444_10_to_yuv444_sse2
PUBLIC	?convert_yuv444_09_to_yuv444_sse2@@YAXPAPAXPAPBXHHHHHHHHPAH@Z ; convert_yuv444_09_to_yuv444_sse2
PUBLIC	?convert_yc48_to_yuv444_sse2@@YAXPAPAXPAPBXHHHHHHHHPAH@Z ; convert_yc48_to_yuv444_sse2
PUBLIC	?convert_yc48_to_yuv444_16bit_sse2@@YAXPAPAXPAPBXHHHHHHHHPAH@Z ; convert_yc48_to_yuv444_16bit_sse2
PUBLIC	?convert_yuv444_16bit_to_yc48_sse2@@YAXPAPAXPAPBXHHHHHHHHPAH@Z ; convert_yuv444_16bit_to_yc48_sse2
PUBLIC	?convert_yuv422_to_nv16_sse2@@YAXPAPAXPAPBXHHHHHHHHPAH@Z ; convert_yuv422_to_nv16_sse2
PUBLIC	?convert_yuv422_to_p210_sse2@@YAXPAPAXPAPBXHHHHHHHHPAH@Z ; convert_yuv422_to_p210_sse2
PUBLIC	?convert_yuv422_09_to_p210_sse2@@YAXPAPAXPAPBXHHHHHHHHPAH@Z ; convert_yuv422_09_to_p210_sse2
PUBLIC	?convert_yuv422_10_to_p210_sse2@@YAXPAPAXPAPBXHHHHHHHHPAH@Z ; convert_yuv422_10_to_p210_sse2
PUBLIC	?convert_yuv422_12_to_p210_sse2@@YAXPAPAXPAPBXHHHHHHHHPAH@Z ; convert_yuv422_12_to_p210_sse2
PUBLIC	?convert_yuv422_14_to_p210_sse2@@YAXPAPAXPAPBXHHHHHHHHPAH@Z ; convert_yuv422_14_to_p210_sse2
PUBLIC	?convert_yuv422_16_to_p210_sse2@@YAXPAPAXPAPBXHHHHHHHHPAH@Z ; convert_yuv422_16_to_p210_sse2
PUBLIC	__xmm@00001000000010000000100000001000
PUBLIC	__xmm@00010001000100010001000100010001
PUBLIC	__xmm@00020002000200020002000200020002
PUBLIC	__xmm@00030003000300030003000300030003
PUBLIC	__xmm@00800080008000800080008000800080
PUBLIC	__xmm@00ff00ff00ff00ff00ff00ff00ff00ff
PUBLIC	__xmm@08000800080008000800080008000800
PUBLIC	__xmm@082f082f082f082f082f082f082f082f
PUBLIC	__xmm@10001000100010001000100010001000
PUBLIC	__xmm@124a124a124a124a124a124a124a124a
PUBLIC	__xmm@12b412b412b412b412b412b412b412b4
PUBLIC	__xmm@ffffffffffffffffffffffffffffffff
EXTRN	@_RTC_CheckStackVars@8:PROC
EXTRN	@__security_check_cookie@4:PROC
EXTRN	__RTC_CheckEsp:PROC
EXTRN	__RTC_InitBase:PROC
EXTRN	__RTC_Shutdown:PROC
EXTRN	___security_cookie:DWORD
;	COMDAT __xmm@ffffffffffffffffffffffffffffffff
CONST	SEGMENT
__xmm@ffffffffffffffffffffffffffffffff DB 0ffH, 0ffH, 0ffH, 0ffH, 0ffH, 0ffH
	DB	0ffH, 0ffH, 0ffH, 0ffH, 0ffH, 0ffH, 0ffH, 0ffH, 0ffH, 0ffH
CONST	ENDS
;	COMDAT __xmm@12b412b412b412b412b412b412b412b4
CONST	SEGMENT
__xmm@12b412b412b412b412b412b412b412b4 DB 0b4H, 012H, 0b4H, 012H, 0b4H, 012H
	DB	0b4H, 012H, 0b4H, 012H, 0b4H, 012H, 0b4H, 012H, 0b4H, 012H
CONST	ENDS
;	COMDAT __xmm@124a124a124a124a124a124a124a124a
CONST	SEGMENT
__xmm@124a124a124a124a124a124a124a124a DB 'J', 012H, 'J', 012H, 'J', 012H
	DB	'J', 012H, 'J', 012H, 'J', 012H, 'J', 012H, 'J', 012H
CONST	ENDS
;	COMDAT __xmm@10001000100010001000100010001000
CONST	SEGMENT
__xmm@10001000100010001000100010001000 DB 00H, 010H, 00H, 010H, 00H, 010H
	DB	00H, 010H, 00H, 010H, 00H, 010H, 00H, 010H, 00H, 010H
CONST	ENDS
;	COMDAT __xmm@082f082f082f082f082f082f082f082f
CONST	SEGMENT
__xmm@082f082f082f082f082f082f082f082f DB '/', 08H, '/', 08H, '/', 08H, '/'
	DB	08H, '/', 08H, '/', 08H, '/', 08H, '/', 08H
CONST	ENDS
;	COMDAT __xmm@08000800080008000800080008000800
CONST	SEGMENT
__xmm@08000800080008000800080008000800 DB 00H, 08H, 00H, 08H, 00H, 08H, 00H
	DB	08H, 00H, 08H, 00H, 08H, 00H, 08H, 00H, 08H
CONST	ENDS
;	COMDAT __xmm@00ff00ff00ff00ff00ff00ff00ff00ff
CONST	SEGMENT
__xmm@00ff00ff00ff00ff00ff00ff00ff00ff DB 0ffH, 00H, 0ffH, 00H, 0ffH, 00H
	DB	0ffH, 00H, 0ffH, 00H, 0ffH, 00H, 0ffH, 00H, 0ffH, 00H
CONST	ENDS
;	COMDAT __xmm@00800080008000800080008000800080
CONST	SEGMENT
__xmm@00800080008000800080008000800080 DB 080H, 00H, 080H, 00H, 080H, 00H
	DB	080H, 00H, 080H, 00H, 080H, 00H, 080H, 00H, 080H, 00H
CONST	ENDS
;	COMDAT __xmm@00030003000300030003000300030003
CONST	SEGMENT
__xmm@00030003000300030003000300030003 DB 03H, 00H, 03H, 00H, 03H, 00H, 03H
	DB	00H, 03H, 00H, 03H, 00H, 03H, 00H, 03H, 00H
CONST	ENDS
;	COMDAT __xmm@00020002000200020002000200020002
CONST	SEGMENT
__xmm@00020002000200020002000200020002 DB 02H, 00H, 02H, 00H, 02H, 00H, 02H
	DB	00H, 02H, 00H, 02H, 00H, 02H, 00H, 02H, 00H
CONST	ENDS
;	COMDAT __xmm@00010001000100010001000100010001
CONST	SEGMENT
__xmm@00010001000100010001000100010001 DB 01H, 00H, 01H, 00H, 01H, 00H, 01H
	DB	00H, 01H, 00H, 01H, 00H, 01H, 00H, 01H, 00H
CONST	ENDS
;	COMDAT __xmm@00001000000010000000100000001000
CONST	SEGMENT
__xmm@00001000000010000000100000001000 DB 00H, 010H, 00H, 00H, 00H, 010H, 00H
	DB	00H, 00H, 010H, 00H, 00H, 00H, 010H, 00H, 00H
CONST	ENDS
;	COMDAT rtc$TMZ
rtc$TMZ	SEGMENT
__RTC_Shutdown.rtc$TMZ DD FLAT:__RTC_Shutdown
rtc$TMZ	ENDS
;	COMDAT rtc$IMZ
rtc$IMZ	SEGMENT
__RTC_InitBase.rtc$IMZ DD FLAT:__RTC_InitBase
rtc$IMZ	ENDS
;	COMDAT ?maskY_shuffle@?1??gather_y_u_v_from_yc48@@YAXAAT__m128i@@00@Z@4QBGB
CONST	SEGMENT
?maskY_shuffle@?1??gather_y_u_v_from_yc48@@YAXAAT__m128i@@00@Z@4QBGB DW 0ffffH ; `gather_y_u_v_from_yc48'::`2'::maskY_shuffle
	DW	00H
	DW	0ffffH
	DW	00H
	DW	00H
	DW	0ffffH
	DW	0ffffH
	DW	00H
CONST	ENDS
;	COMDAT ?maskY_select@?1??gather_y_u_v_from_yc48@@YAXAAT__m128i@@00@Z@4QBGB
CONST	SEGMENT
?maskY_select@?1??gather_y_u_v_from_yc48@@YAXAAT__m128i@@00@Z@4QBGB DW 0ffffH ; `gather_y_u_v_from_yc48'::`2'::maskY_select
	DW	00H
	DW	00H
	DW	0ffffH
	DW	00H
	DW	00H
	DW	0ffffH
	DW	00H
CONST	ENDS
;	COMDAT ?VAL@?1??_mm_packus_epi32_simd@@YA?AT__m128i@@T2@0@Z@4QAY03$$CBIA
CONST	SEGMENT
?VAL@?1??_mm_packus_epi32_simd@@YA?AT__m128i@@T2@0@Z@4QAY03$$CBIA DD 08000H ; `_mm_packus_epi32_simd'::`2'::VAL
	DD	08000H
	DD	08000H
	DD	08000H
	DD	080008000H
	DD	080008000H
	DD	080008000H
	DD	080008000H
CONST	ENDS
; Function compile flags: /Odtp /RTCsu
; File D:\work\intel\intel_codec\QSVPipeline\convert_csp_simd.h
_TEXT	SEGMENT
$T1 = -352						; size = 12
$T2 = -336						; size = 16
$T3 = -320						; size = 16
$T4 = -304						; size = 16
$T5 = -288						; size = 16
$T6 = -272						; size = 16
$T7 = -256						; size = 16
_x$8 = -228						; size = 4
_x2$9 = -224						; size = 16
_x1$10 = -208						; size = 16
_x0$11 = -192						; size = 16
_dst_ptr$12 = -176					; size = 4
_src_v_ptr$13 = -172					; size = 4
_src_u_ptr$14 = -168					; size = 4
_x_fin$15 = -164					; size = 4
_y$16 = -160						; size = 4
_srcVLine$ = -156					; size = 4
_srcULine$ = -152					; size = 4
_src_uv_pitch$ = -148					; size = 4
$T17 = -144						; size = 16
$T18 = -128						; size = 16
_x0$19 = -112						; size = 16
_x$20 = -88						; size = 4
_dst_ptr$21 = -84					; size = 4
_src_ptr$22 = -80					; size = 4
_y$23 = -76						; size = 4
_y_width$ = -72						; size = 4
_dstLine$ = -68						; size = 4
_srcYLine$ = -64					; size = 4
$T24 = -60						; size = 12
_y_range$ = -44						; size = 12
_dst_y_pitch$ = -28					; size = 4
_src_y_pitch$ = -24					; size = 4
_crop_bottom$ = -20					; size = 4
_crop_right$ = -16					; size = 4
_crop_up$ = -12						; size = 4
_crop_left$ = -8					; size = 4
__$ArrayPad$ = -4					; size = 4
_dst$ = 8						; size = 4
_src$ = 12						; size = 4
_width$ = 16						; size = 4
_src_y_pitch_byte$ = 20					; size = 4
_src_uv_pitch_byte$ = 24				; size = 4
_dst_y_pitch_byte$ = 28					; size = 4
_height$ = 32						; size = 4
_dst_height$ = 36					; size = 4
_thread_id$ = 40					; size = 4
_thread_n$ = 44						; size = 4
_crop$ = 48						; size = 4
??$convert_yuv422_high_to_p210_simd@$0BA@@@YAXPAPAXPAPBXHHHHHHHHPAH@Z PROC ; convert_yuv422_high_to_p210_simd<16>

; 1153 : static void __forceinline convert_yuv422_high_to_p210_simd(void **dst, const void **src, int width, int src_y_pitch_byte, int src_uv_pitch_byte, int dst_y_pitch_byte, int height, int dst_height, int thread_id, int thread_n, int *crop) {

  00000	53		 push	 ebx
  00001	8b dc		 mov	 ebx, esp
  00003	83 ec 08	 sub	 esp, 8
  00006	83 e4 f0	 and	 esp, -16		; fffffff0H
  00009	83 c4 04	 add	 esp, 4
  0000c	55		 push	 ebp
  0000d	8b 6b 04	 mov	 ebp, DWORD PTR [ebx+4]
  00010	89 6c 24 04	 mov	 DWORD PTR [esp+4], ebp
  00014	8b ec		 mov	 ebp, esp
  00016	81 ec 60 01 00
	00		 sub	 esp, 352		; 00000160H
  0001c	57		 push	 edi
  0001d	8d bd a0 fe ff
	ff		 lea	 edi, DWORD PTR [ebp-352]
  00023	b9 58 00 00 00	 mov	 ecx, 88			; 00000058H
  00028	b8 cc cc cc cc	 mov	 eax, -858993460		; ccccccccH
  0002d	f3 ab		 rep stosd
  0002f	a1 00 00 00 00	 mov	 eax, DWORD PTR ___security_cookie
  00034	33 c5		 xor	 eax, ebp
  00036	89 45 fc	 mov	 DWORD PTR __$ArrayPad$[ebp], eax

; 1154 :     static_assert(8 < in_bit_depth && in_bit_depth <= 16, "in_bit_depth must be 9-16.");
; 1155 :     const int crop_left   = crop[0];

  00039	b8 04 00 00 00	 mov	 eax, 4
  0003e	6b c8 00	 imul	 ecx, eax, 0
  00041	8b 53 30	 mov	 edx, DWORD PTR _crop$[ebx]
  00044	8b 04 0a	 mov	 eax, DWORD PTR [edx+ecx]
  00047	89 45 f8	 mov	 DWORD PTR _crop_left$[ebp], eax

; 1156 :     const int crop_up     = crop[1];

  0004a	b9 04 00 00 00	 mov	 ecx, 4
  0004f	c1 e1 00	 shl	 ecx, 0
  00052	8b 53 30	 mov	 edx, DWORD PTR _crop$[ebx]
  00055	8b 04 0a	 mov	 eax, DWORD PTR [edx+ecx]
  00058	89 45 f4	 mov	 DWORD PTR _crop_up$[ebp], eax

; 1157 :     const int crop_right  = crop[2];

  0005b	b9 04 00 00 00	 mov	 ecx, 4
  00060	d1 e1		 shl	 ecx, 1
  00062	8b 53 30	 mov	 edx, DWORD PTR _crop$[ebx]
  00065	8b 04 0a	 mov	 eax, DWORD PTR [edx+ecx]
  00068	89 45 f0	 mov	 DWORD PTR _crop_right$[ebp], eax

; 1158 :     const int crop_bottom = crop[3];

  0006b	b9 04 00 00 00	 mov	 ecx, 4
  00070	6b d1 03	 imul	 edx, ecx, 3
  00073	8b 43 30	 mov	 eax, DWORD PTR _crop$[ebx]
  00076	8b 0c 10	 mov	 ecx, DWORD PTR [eax+edx]
  00079	89 4d ec	 mov	 DWORD PTR _crop_bottom$[ebp], ecx

; 1159 :     const int src_y_pitch = src_y_pitch_byte >> 1;

  0007c	8b 53 14	 mov	 edx, DWORD PTR _src_y_pitch_byte$[ebx]
  0007f	d1 fa		 sar	 edx, 1
  00081	89 55 e8	 mov	 DWORD PTR _src_y_pitch$[ebp], edx

; 1160 :     const int dst_y_pitch = dst_y_pitch_byte >> 1;

  00084	8b 43 1c	 mov	 eax, DWORD PTR _dst_y_pitch_byte$[ebx]
  00087	d1 f8		 sar	 eax, 1
  00089	89 45 e4	 mov	 DWORD PTR _dst_y_pitch$[ebp], eax

; 1161 :     //Y成分のコピー
; 1162 :     const auto y_range = thread_y_range(crop_up, height - crop_bottom, thread_id, thread_n);

  0008c	8b 4b 2c	 mov	 ecx, DWORD PTR _thread_n$[ebx]
  0008f	51		 push	 ecx
  00090	8b 53 28	 mov	 edx, DWORD PTR _thread_id$[ebx]
  00093	52		 push	 edx
  00094	8b 43 20	 mov	 eax, DWORD PTR _height$[ebx]
  00097	2b 45 ec	 sub	 eax, DWORD PTR _crop_bottom$[ebp]
  0009a	50		 push	 eax
  0009b	8b 4d f4	 mov	 ecx, DWORD PTR _crop_up$[ebp]
  0009e	51		 push	 ecx
  0009f	8d 95 a0 fe ff
	ff		 lea	 edx, DWORD PTR $T1[ebp]
  000a5	52		 push	 edx
  000a6	e8 00 00 00 00	 call	 ?thread_y_range@@YA?AUTHREAD_Y_RANGE@@HHHH@Z ; thread_y_range
  000ab	83 c4 14	 add	 esp, 20			; 00000014H
  000ae	8b 08		 mov	 ecx, DWORD PTR [eax]
  000b0	89 4d c4	 mov	 DWORD PTR $T24[ebp], ecx
  000b3	8b 50 04	 mov	 edx, DWORD PTR [eax+4]
  000b6	89 55 c8	 mov	 DWORD PTR $T24[ebp+4], edx
  000b9	8b 40 08	 mov	 eax, DWORD PTR [eax+8]
  000bc	89 45 cc	 mov	 DWORD PTR $T24[ebp+8], eax
  000bf	8b 4d c4	 mov	 ecx, DWORD PTR $T24[ebp]
  000c2	89 4d d4	 mov	 DWORD PTR _y_range$[ebp], ecx
  000c5	8b 55 c8	 mov	 edx, DWORD PTR $T24[ebp+4]
  000c8	89 55 d8	 mov	 DWORD PTR _y_range$[ebp+4], edx
  000cb	8b 45 cc	 mov	 eax, DWORD PTR $T24[ebp+8]
  000ce	89 45 dc	 mov	 DWORD PTR _y_range$[ebp+8], eax

; 1163 :     uint16_t *srcYLine = (uint16_t *)src[0] + src_y_pitch * y_range.start_src + crop_left;

  000d1	b9 04 00 00 00	 mov	 ecx, 4
  000d6	6b d1 00	 imul	 edx, ecx, 0
  000d9	8b 45 e8	 mov	 eax, DWORD PTR _src_y_pitch$[ebp]
  000dc	0f af 45 d4	 imul	 eax, DWORD PTR _y_range$[ebp]
  000e0	8b 4b 0c	 mov	 ecx, DWORD PTR _src$[ebx]
  000e3	8b 14 11	 mov	 edx, DWORD PTR [ecx+edx]
  000e6	8d 04 42	 lea	 eax, DWORD PTR [edx+eax*2]
  000e9	8b 4d f8	 mov	 ecx, DWORD PTR _crop_left$[ebp]
  000ec	8d 14 48	 lea	 edx, DWORD PTR [eax+ecx*2]
  000ef	89 55 c0	 mov	 DWORD PTR _srcYLine$[ebp], edx

; 1164 :     uint16_t *dstLine = (uint16_t *)dst[0] + dst_y_pitch * y_range.start_dst;

  000f2	b8 04 00 00 00	 mov	 eax, 4
  000f7	6b c8 00	 imul	 ecx, eax, 0
  000fa	8b 55 e4	 mov	 edx, DWORD PTR _dst_y_pitch$[ebp]
  000fd	0f af 55 d8	 imul	 edx, DWORD PTR _y_range$[ebp+4]
  00101	8b 43 08	 mov	 eax, DWORD PTR _dst$[ebx]
  00104	8b 0c 08	 mov	 ecx, DWORD PTR [eax+ecx]
  00107	8d 14 51	 lea	 edx, DWORD PTR [ecx+edx*2]
  0010a	89 55 bc	 mov	 DWORD PTR _dstLine$[ebp], edx

; 1165 :     const int y_width = width - crop_right - crop_left;

  0010d	8b 43 10	 mov	 eax, DWORD PTR _width$[ebx]
  00110	2b 45 f0	 sub	 eax, DWORD PTR _crop_right$[ebp]
  00113	2b 45 f8	 sub	 eax, DWORD PTR _crop_left$[ebp]
  00116	89 45 b8	 mov	 DWORD PTR _y_width$[ebp], eax

; 1166 :     for (int y = 0; y < y_range.len; y++, srcYLine += src_y_pitch, dstLine += dst_y_pitch) {

  00119	c7 45 b4 00 00
	00 00		 mov	 DWORD PTR _y$23[ebp], 0
  00120	eb 21		 jmp	 SHORT $LN4@convert_yu
$LN2@convert_yu:
  00122	8b 4d b4	 mov	 ecx, DWORD PTR _y$23[ebp]
  00125	83 c1 01	 add	 ecx, 1
  00128	89 4d b4	 mov	 DWORD PTR _y$23[ebp], ecx
  0012b	8b 55 e8	 mov	 edx, DWORD PTR _src_y_pitch$[ebp]
  0012e	8b 45 c0	 mov	 eax, DWORD PTR _srcYLine$[ebp]
  00131	8d 0c 50	 lea	 ecx, DWORD PTR [eax+edx*2]
  00134	89 4d c0	 mov	 DWORD PTR _srcYLine$[ebp], ecx
  00137	8b 55 e4	 mov	 edx, DWORD PTR _dst_y_pitch$[ebp]
  0013a	8b 45 bc	 mov	 eax, DWORD PTR _dstLine$[ebp]
  0013d	8d 0c 50	 lea	 ecx, DWORD PTR [eax+edx*2]
  00140	89 4d bc	 mov	 DWORD PTR _dstLine$[ebp], ecx
$LN4@convert_yu:
  00143	8b 55 b4	 mov	 edx, DWORD PTR _y$23[ebp]
  00146	3b 55 dc	 cmp	 edx, DWORD PTR _y_range$[ebp+8]
  00149	0f 8d 97 00 00
	00		 jge	 $LN3@convert_yu

; 1167 :         if (in_bit_depth == 16) {

  0014f	b8 01 00 00 00	 mov	 eax, 1
  00154	85 c0		 test	 eax, eax
  00156	74 18		 je	 SHORT $LN14@convert_yu

; 1168 :             memcpy_sse((uint8_t *)dstLine, (uint8_t *)srcYLine, y_width * sizeof(uint16_t));

  00158	8b 4d b8	 mov	 ecx, DWORD PTR _y_width$[ebp]
  0015b	d1 e1		 shl	 ecx, 1
  0015d	51		 push	 ecx
  0015e	8b 55 c0	 mov	 edx, DWORD PTR _srcYLine$[ebp]
  00161	52		 push	 edx
  00162	8b 45 bc	 mov	 eax, DWORD PTR _dstLine$[ebp]
  00165	50		 push	 eax
  00166	e8 00 00 00 00	 call	 ?memcpy_sse@@YAXPAEPBEH@Z ; memcpy_sse
  0016b	83 c4 0c	 add	 esp, 12			; 0000000cH

; 1169 :         } else {

  0016e	eb 71		 jmp	 SHORT $LN15@convert_yu
$LN14@convert_yu:

; 1170 :             uint16_t *src_ptr = srcYLine;

  00170	8b 4d c0	 mov	 ecx, DWORD PTR _srcYLine$[ebp]
  00173	89 4d b0	 mov	 DWORD PTR _src_ptr$22[ebp], ecx

; 1171 :             uint16_t *dst_ptr = dstLine;

  00176	8b 55 bc	 mov	 edx, DWORD PTR _dstLine$[ebp]
  00179	89 55 ac	 mov	 DWORD PTR _dst_ptr$21[ebp], edx

; 1172 :             for (int x = 0; x < y_width; x += 8, dst_ptr += 8, src_ptr += 8) {

  0017c	c7 45 a8 00 00
	00 00		 mov	 DWORD PTR _x$20[ebp], 0
  00183	eb 1b		 jmp	 SHORT $LN7@convert_yu
$LN5@convert_yu:
  00185	8b 45 a8	 mov	 eax, DWORD PTR _x$20[ebp]
  00188	83 c0 08	 add	 eax, 8
  0018b	89 45 a8	 mov	 DWORD PTR _x$20[ebp], eax
  0018e	8b 4d ac	 mov	 ecx, DWORD PTR _dst_ptr$21[ebp]
  00191	83 c1 10	 add	 ecx, 16			; 00000010H
  00194	89 4d ac	 mov	 DWORD PTR _dst_ptr$21[ebp], ecx
  00197	8b 55 b0	 mov	 edx, DWORD PTR _src_ptr$22[ebp]
  0019a	83 c2 10	 add	 edx, 16			; 00000010H
  0019d	89 55 b0	 mov	 DWORD PTR _src_ptr$22[ebp], edx
$LN7@convert_yu:
  001a0	8b 45 a8	 mov	 eax, DWORD PTR _x$20[ebp]
  001a3	3b 45 b8	 cmp	 eax, DWORD PTR _y_width$[ebp]
  001a6	7d 39		 jge	 SHORT $LN15@convert_yu

; 1173 :                 __m128i x0 = _mm_loadu_si128((const __m128i *)src_ptr);

  001a8	8b 4d b0	 mov	 ecx, DWORD PTR _src_ptr$22[ebp]
  001ab	0f 10 01	 movups	 xmm0, XMMWORD PTR [ecx]
  001ae	0f 29 45 80	 movaps	 XMMWORD PTR $T18[ebp], xmm0
  001b2	0f 28 45 80	 movaps	 xmm0, XMMWORD PTR $T18[ebp]
  001b6	0f 29 45 90	 movaps	 XMMWORD PTR _x0$19[ebp], xmm0

; 1174 :                 x0 = _mm_slli_epi16(x0, 16 - in_bit_depth);

  001ba	0f 28 45 90	 movaps	 xmm0, XMMWORD PTR _x0$19[ebp]
  001be	66 0f 71 f0 00	 psllw	 xmm0, 0
  001c3	0f 29 85 70 ff
	ff ff		 movaps	 XMMWORD PTR $T17[ebp], xmm0
  001ca	0f 28 85 70 ff
	ff ff		 movaps	 xmm0, XMMWORD PTR $T17[ebp]
  001d1	0f 29 45 90	 movaps	 XMMWORD PTR _x0$19[ebp], xmm0

; 1175 :                 _mm_storeu_si128((__m128i *)dst_ptr, x0);

  001d5	0f 10 45 90	 movups	 xmm0, XMMWORD PTR _x0$19[ebp]
  001d9	8b 55 ac	 mov	 edx, DWORD PTR _dst_ptr$21[ebp]
  001dc	0f 11 02	 movups	 XMMWORD PTR [edx], xmm0

; 1176 :             }

  001df	eb a4		 jmp	 SHORT $LN5@convert_yu
$LN15@convert_yu:

; 1177 :         }
; 1178 :     }

  001e1	e9 3c ff ff ff	 jmp	 $LN2@convert_yu
$LN3@convert_yu:

; 1179 :     //UV成分のコピー
; 1180 :     const int src_uv_pitch = src_uv_pitch_byte >> 1;

  001e6	8b 43 18	 mov	 eax, DWORD PTR _src_uv_pitch_byte$[ebx]
  001e9	d1 f8		 sar	 eax, 1
  001eb	89 85 6c ff ff
	ff		 mov	 DWORD PTR _src_uv_pitch$[ebp], eax

; 1181 :     uint16_t *srcULine = (uint16_t *)src[1] + ((src_uv_pitch * y_range.start_src) + (crop_left >> 1));

  001f1	b9 04 00 00 00	 mov	 ecx, 4
  001f6	c1 e1 00	 shl	 ecx, 0
  001f9	8b 95 6c ff ff
	ff		 mov	 edx, DWORD PTR _src_uv_pitch$[ebp]
  001ff	0f af 55 d4	 imul	 edx, DWORD PTR _y_range$[ebp]
  00203	8b 45 f8	 mov	 eax, DWORD PTR _crop_left$[ebp]
  00206	d1 f8		 sar	 eax, 1
  00208	03 d0		 add	 edx, eax
  0020a	8b 43 0c	 mov	 eax, DWORD PTR _src$[ebx]
  0020d	8b 0c 08	 mov	 ecx, DWORD PTR [eax+ecx]
  00210	8d 14 51	 lea	 edx, DWORD PTR [ecx+edx*2]
  00213	89 95 68 ff ff
	ff		 mov	 DWORD PTR _srcULine$[ebp], edx

; 1182 :     uint16_t *srcVLine = (uint16_t *)src[2] + ((src_uv_pitch * y_range.start_src) + (crop_left >> 1));

  00219	b8 04 00 00 00	 mov	 eax, 4
  0021e	d1 e0		 shl	 eax, 1
  00220	8b 8d 6c ff ff
	ff		 mov	 ecx, DWORD PTR _src_uv_pitch$[ebp]
  00226	0f af 4d d4	 imul	 ecx, DWORD PTR _y_range$[ebp]
  0022a	8b 55 f8	 mov	 edx, DWORD PTR _crop_left$[ebp]
  0022d	d1 fa		 sar	 edx, 1
  0022f	03 ca		 add	 ecx, edx
  00231	8b 53 0c	 mov	 edx, DWORD PTR _src$[ebx]
  00234	8b 04 02	 mov	 eax, DWORD PTR [edx+eax]
  00237	8d 0c 48	 lea	 ecx, DWORD PTR [eax+ecx*2]
  0023a	89 8d 64 ff ff
	ff		 mov	 DWORD PTR _srcVLine$[ebp], ecx

; 1183 :     dstLine = (uint16_t *)dst[1] + dst_y_pitch * y_range.start_dst;

  00240	ba 04 00 00 00	 mov	 edx, 4
  00245	c1 e2 00	 shl	 edx, 0
  00248	8b 45 e4	 mov	 eax, DWORD PTR _dst_y_pitch$[ebp]
  0024b	0f af 45 d8	 imul	 eax, DWORD PTR _y_range$[ebp+4]
  0024f	8b 4b 08	 mov	 ecx, DWORD PTR _dst$[ebx]
  00252	8b 14 11	 mov	 edx, DWORD PTR [ecx+edx]
  00255	8d 04 42	 lea	 eax, DWORD PTR [edx+eax*2]
  00258	89 45 bc	 mov	 DWORD PTR _dstLine$[ebp], eax

; 1184 :     for (int y = 0; y < y_range.len; y++, srcULine += src_uv_pitch, srcVLine += src_uv_pitch, dstLine += dst_y_pitch) {

  0025b	c7 85 60 ff ff
	ff 00 00 00 00	 mov	 DWORD PTR _y$16[ebp], 0
  00265	eb 45		 jmp	 SHORT $LN10@convert_yu
$LN8@convert_yu:
  00267	8b 8d 60 ff ff
	ff		 mov	 ecx, DWORD PTR _y$16[ebp]
  0026d	83 c1 01	 add	 ecx, 1
  00270	89 8d 60 ff ff
	ff		 mov	 DWORD PTR _y$16[ebp], ecx
  00276	8b 95 6c ff ff
	ff		 mov	 edx, DWORD PTR _src_uv_pitch$[ebp]
  0027c	8b 85 68 ff ff
	ff		 mov	 eax, DWORD PTR _srcULine$[ebp]
  00282	8d 0c 50	 lea	 ecx, DWORD PTR [eax+edx*2]
  00285	89 8d 68 ff ff
	ff		 mov	 DWORD PTR _srcULine$[ebp], ecx
  0028b	8b 95 6c ff ff
	ff		 mov	 edx, DWORD PTR _src_uv_pitch$[ebp]
  00291	8b 85 64 ff ff
	ff		 mov	 eax, DWORD PTR _srcVLine$[ebp]
  00297	8d 0c 50	 lea	 ecx, DWORD PTR [eax+edx*2]
  0029a	89 8d 64 ff ff
	ff		 mov	 DWORD PTR _srcVLine$[ebp], ecx
  002a0	8b 55 e4	 mov	 edx, DWORD PTR _dst_y_pitch$[ebp]
  002a3	8b 45 bc	 mov	 eax, DWORD PTR _dstLine$[ebp]
  002a6	8d 0c 50	 lea	 ecx, DWORD PTR [eax+edx*2]
  002a9	89 4d bc	 mov	 DWORD PTR _dstLine$[ebp], ecx
$LN10@convert_yu:
  002ac	8b 95 60 ff ff
	ff		 mov	 edx, DWORD PTR _y$16[ebp]
  002b2	3b 55 dc	 cmp	 edx, DWORD PTR _y_range$[ebp+8]
  002b5	0f 8d 7d 01 00
	00		 jge	 $LN1@convert_yu

; 1185 :         const int x_fin = width - crop_right;

  002bb	8b 43 10	 mov	 eax, DWORD PTR _width$[ebx]
  002be	2b 45 f0	 sub	 eax, DWORD PTR _crop_right$[ebp]
  002c1	89 85 5c ff ff
	ff		 mov	 DWORD PTR _x_fin$15[ebp], eax

; 1186 :         uint16_t *src_u_ptr = srcULine;

  002c7	8b 8d 68 ff ff
	ff		 mov	 ecx, DWORD PTR _srcULine$[ebp]
  002cd	89 8d 58 ff ff
	ff		 mov	 DWORD PTR _src_u_ptr$14[ebp], ecx

; 1187 :         uint16_t *src_v_ptr = srcVLine;

  002d3	8b 95 64 ff ff
	ff		 mov	 edx, DWORD PTR _srcVLine$[ebp]
  002d9	89 95 54 ff ff
	ff		 mov	 DWORD PTR _src_v_ptr$13[ebp], edx

; 1188 :         uint16_t *dst_ptr = dstLine;

  002df	8b 45 bc	 mov	 eax, DWORD PTR _dstLine$[ebp]
  002e2	89 85 50 ff ff
	ff		 mov	 DWORD PTR _dst_ptr$12[ebp], eax

; 1189 :         __m128i x0, x1, x2;
; 1190 :         for (int x = crop_left; x < x_fin; x += 16, src_u_ptr += 8, src_v_ptr += 8, dst_ptr += 16) {

  002e8	8b 4d f8	 mov	 ecx, DWORD PTR _crop_left$[ebp]
  002eb	89 8d 1c ff ff
	ff		 mov	 DWORD PTR _x$8[ebp], ecx
  002f1	eb 3c		 jmp	 SHORT $LN13@convert_yu
$LN11@convert_yu:
  002f3	8b 95 1c ff ff
	ff		 mov	 edx, DWORD PTR _x$8[ebp]
  002f9	83 c2 10	 add	 edx, 16			; 00000010H
  002fc	89 95 1c ff ff
	ff		 mov	 DWORD PTR _x$8[ebp], edx
  00302	8b 85 58 ff ff
	ff		 mov	 eax, DWORD PTR _src_u_ptr$14[ebp]
  00308	83 c0 10	 add	 eax, 16			; 00000010H
  0030b	89 85 58 ff ff
	ff		 mov	 DWORD PTR _src_u_ptr$14[ebp], eax
  00311	8b 8d 54 ff ff
	ff		 mov	 ecx, DWORD PTR _src_v_ptr$13[ebp]
  00317	83 c1 10	 add	 ecx, 16			; 00000010H
  0031a	89 8d 54 ff ff
	ff		 mov	 DWORD PTR _src_v_ptr$13[ebp], ecx
  00320	8b 95 50 ff ff
	ff		 mov	 edx, DWORD PTR _dst_ptr$12[ebp]
  00326	83 c2 20	 add	 edx, 32			; 00000020H
  00329	89 95 50 ff ff
	ff		 mov	 DWORD PTR _dst_ptr$12[ebp], edx
$LN13@convert_yu:
  0032f	8b 85 1c ff ff
	ff		 mov	 eax, DWORD PTR _x$8[ebp]
  00335	3b 85 5c ff ff
	ff		 cmp	 eax, DWORD PTR _x_fin$15[ebp]
  0033b	0f 8d f2 00 00
	00		 jge	 $LN12@convert_yu

; 1191 :             x0 = _mm_loadu_si128((const __m128i *)src_u_ptr);

  00341	8b 8d 58 ff ff
	ff		 mov	 ecx, DWORD PTR _src_u_ptr$14[ebp]
  00347	0f 10 01	 movups	 xmm0, XMMWORD PTR [ecx]
  0034a	0f 29 85 00 ff
	ff ff		 movaps	 XMMWORD PTR $T7[ebp], xmm0
  00351	0f 28 85 00 ff
	ff ff		 movaps	 xmm0, XMMWORD PTR $T7[ebp]
  00358	0f 29 85 40 ff
	ff ff		 movaps	 XMMWORD PTR _x0$11[ebp], xmm0

; 1192 :             x1 = _mm_loadu_si128((const __m128i *)src_v_ptr);

  0035f	8b 95 54 ff ff
	ff		 mov	 edx, DWORD PTR _src_v_ptr$13[ebp]
  00365	0f 10 02	 movups	 xmm0, XMMWORD PTR [edx]
  00368	0f 29 85 f0 fe
	ff ff		 movaps	 XMMWORD PTR $T6[ebp], xmm0
  0036f	0f 28 85 f0 fe
	ff ff		 movaps	 xmm0, XMMWORD PTR $T6[ebp]
  00376	0f 29 85 30 ff
	ff ff		 movaps	 XMMWORD PTR _x1$10[ebp], xmm0

; 1193 : 
; 1194 :             if (in_bit_depth < 16) {

  0037d	33 c0		 xor	 eax, eax
  0037f	74 42		 je	 SHORT $LN16@convert_yu

; 1195 :                 x0 = _mm_slli_epi16(x0, 16 - in_bit_depth);

  00381	0f 28 85 40 ff
	ff ff		 movaps	 xmm0, XMMWORD PTR _x0$11[ebp]
  00388	66 0f 71 f0 00	 psllw	 xmm0, 0
  0038d	0f 29 85 e0 fe
	ff ff		 movaps	 XMMWORD PTR $T5[ebp], xmm0
  00394	0f 28 85 e0 fe
	ff ff		 movaps	 xmm0, XMMWORD PTR $T5[ebp]
  0039b	0f 29 85 40 ff
	ff ff		 movaps	 XMMWORD PTR _x0$11[ebp], xmm0

; 1196 :                 x1 = _mm_slli_epi16(x1, 16 - in_bit_depth);

  003a2	0f 28 85 30 ff
	ff ff		 movaps	 xmm0, XMMWORD PTR _x1$10[ebp]
  003a9	66 0f 71 f0 00	 psllw	 xmm0, 0
  003ae	0f 29 85 d0 fe
	ff ff		 movaps	 XMMWORD PTR $T4[ebp], xmm0
  003b5	0f 28 85 d0 fe
	ff ff		 movaps	 xmm0, XMMWORD PTR $T4[ebp]
  003bc	0f 29 85 30 ff
	ff ff		 movaps	 XMMWORD PTR _x1$10[ebp], xmm0
$LN16@convert_yu:

; 1197 :             }
; 1198 : 
; 1199 :             x2 = _mm_unpackhi_epi16(x0, x1);

  003c3	0f 28 85 40 ff
	ff ff		 movaps	 xmm0, XMMWORD PTR _x0$11[ebp]
  003ca	66 0f 69 85 30
	ff ff ff	 punpckhwd xmm0, XMMWORD PTR _x1$10[ebp]
  003d2	0f 29 85 c0 fe
	ff ff		 movaps	 XMMWORD PTR $T3[ebp], xmm0
  003d9	0f 28 85 c0 fe
	ff ff		 movaps	 xmm0, XMMWORD PTR $T3[ebp]
  003e0	0f 29 85 20 ff
	ff ff		 movaps	 XMMWORD PTR _x2$9[ebp], xmm0

; 1200 :             x0 = _mm_unpacklo_epi16(x0, x1);

  003e7	0f 28 85 40 ff
	ff ff		 movaps	 xmm0, XMMWORD PTR _x0$11[ebp]
  003ee	66 0f 61 85 30
	ff ff ff	 punpcklwd xmm0, XMMWORD PTR _x1$10[ebp]
  003f6	0f 29 85 b0 fe
	ff ff		 movaps	 XMMWORD PTR $T2[ebp], xmm0
  003fd	0f 28 85 b0 fe
	ff ff		 movaps	 xmm0, XMMWORD PTR $T2[ebp]
  00404	0f 29 85 40 ff
	ff ff		 movaps	 XMMWORD PTR _x0$11[ebp], xmm0

; 1201 : 
; 1202 :             _mm_storeu_si128((__m128i *)(dst_ptr + 0), x0);

  0040b	0f 10 85 40 ff
	ff ff		 movups	 xmm0, XMMWORD PTR _x0$11[ebp]
  00412	8b 8d 50 ff ff
	ff		 mov	 ecx, DWORD PTR _dst_ptr$12[ebp]
  00418	0f 11 01	 movups	 XMMWORD PTR [ecx], xmm0

; 1203 :             _mm_storeu_si128((__m128i *)(dst_ptr + 8), x2);

  0041b	0f 10 85 20 ff
	ff ff		 movups	 xmm0, XMMWORD PTR _x2$9[ebp]
  00422	8b 95 50 ff ff
	ff		 mov	 edx, DWORD PTR _dst_ptr$12[ebp]
  00428	83 c2 10	 add	 edx, 16			; 00000010H
  0042b	0f 11 02	 movups	 XMMWORD PTR [edx], xmm0

; 1204 :         }

  0042e	e9 c0 fe ff ff	 jmp	 $LN11@convert_yu
$LN12@convert_yu:

; 1205 :     }

  00433	e9 2f fe ff ff	 jmp	 $LN8@convert_yu
$LN1@convert_yu:

; 1206 : }

  00438	52		 push	 edx
  00439	8b cd		 mov	 ecx, ebp
  0043b	50		 push	 eax
  0043c	8d 15 00 00 00
	00		 lea	 edx, DWORD PTR $LN20@convert_yu
  00442	e8 00 00 00 00	 call	 @_RTC_CheckStackVars@8
  00447	58		 pop	 eax
  00448	5a		 pop	 edx
  00449	5f		 pop	 edi
  0044a	8b 4d fc	 mov	 ecx, DWORD PTR __$ArrayPad$[ebp]
  0044d	33 cd		 xor	 ecx, ebp
  0044f	e8 00 00 00 00	 call	 @__security_check_cookie@4
  00454	8b e5		 mov	 esp, ebp
  00456	5d		 pop	 ebp
  00457	8b e3		 mov	 esp, ebx
  00459	5b		 pop	 ebx
  0045a	c3		 ret	 0
  0045b	90		 npad	 1
$LN20@convert_yu:
  0045c	01 00 00 00	 DD	 1
  00460	00 00 00 00	 DD	 $LN19@convert_yu
$LN19@convert_yu:
  00464	d4 ff ff ff	 DD	 -44			; ffffffd4H
  00468	0c 00 00 00	 DD	 12			; 0000000cH
  0046c	00 00 00 00	 DD	 $LN18@convert_yu
$LN18@convert_yu:
  00470	79		 DB	 121			; 00000079H
  00471	5f		 DB	 95			; 0000005fH
  00472	72		 DB	 114			; 00000072H
  00473	61		 DB	 97			; 00000061H
  00474	6e		 DB	 110			; 0000006eH
  00475	67		 DB	 103			; 00000067H
  00476	65		 DB	 101			; 00000065H
  00477	00		 DB	 0
??$convert_yuv422_high_to_p210_simd@$0BA@@@YAXPAPAXPAPBXHHHHHHHHPAH@Z ENDP ; convert_yuv422_high_to_p210_simd<16>
_TEXT	ENDS
; Function compile flags: /Odtp /RTCsu
; File D:\work\intel\intel_codec\QSVPipeline\convert_csp_sse2.cpp
_TEXT	SEGMENT
_dst$ = 8						; size = 4
_src$ = 12						; size = 4
_width$ = 16						; size = 4
_src_y_pitch_byte$ = 20					; size = 4
_src_uv_pitch_byte$ = 24				; size = 4
_dst_y_pitch_byte$ = 28					; size = 4
_height$ = 32						; size = 4
_dst_height$ = 36					; size = 4
_thread_id$ = 40					; size = 4
_thread_n$ = 44						; size = 4
_crop$ = 48						; size = 4
?convert_yuv422_16_to_p210_sse2@@YAXPAPAXPAPBXHHHHHHHHPAH@Z PROC ; convert_yuv422_16_to_p210_sse2

; 237  : void convert_yuv422_16_to_p210_sse2(void **dst, const void **src, int width, int src_y_pitch_byte, int src_uv_pitch_byte, int dst_y_pitch_byte, int height, int dst_height, int thread_id, int thread_n, int *crop) {

  00000	55		 push	 ebp
  00001	8b ec		 mov	 ebp, esp

; 238  :     convert_yuv422_high_to_p210_simd<16>(dst, src, width, src_y_pitch_byte, src_uv_pitch_byte, dst_y_pitch_byte, height, dst_height, thread_id, thread_n, crop);

  00003	8b 45 30	 mov	 eax, DWORD PTR _crop$[ebp]
  00006	50		 push	 eax
  00007	8b 4d 2c	 mov	 ecx, DWORD PTR _thread_n$[ebp]
  0000a	51		 push	 ecx
  0000b	8b 55 28	 mov	 edx, DWORD PTR _thread_id$[ebp]
  0000e	52		 push	 edx
  0000f	8b 45 24	 mov	 eax, DWORD PTR _dst_height$[ebp]
  00012	50		 push	 eax
  00013	8b 4d 20	 mov	 ecx, DWORD PTR _height$[ebp]
  00016	51		 push	 ecx
  00017	8b 55 1c	 mov	 edx, DWORD PTR _dst_y_pitch_byte$[ebp]
  0001a	52		 push	 edx
  0001b	8b 45 18	 mov	 eax, DWORD PTR _src_uv_pitch_byte$[ebp]
  0001e	50		 push	 eax
  0001f	8b 4d 14	 mov	 ecx, DWORD PTR _src_y_pitch_byte$[ebp]
  00022	51		 push	 ecx
  00023	8b 55 10	 mov	 edx, DWORD PTR _width$[ebp]
  00026	52		 push	 edx
  00027	8b 45 0c	 mov	 eax, DWORD PTR _src$[ebp]
  0002a	50		 push	 eax
  0002b	8b 4d 08	 mov	 ecx, DWORD PTR _dst$[ebp]
  0002e	51		 push	 ecx
  0002f	e8 00 00 00 00	 call	 ??$convert_yuv422_high_to_p210_simd@$0BA@@@YAXPAPAXPAPBXHHHHHHHHPAH@Z ; convert_yuv422_high_to_p210_simd<16>
  00034	83 c4 2c	 add	 esp, 44			; 0000002cH

; 239  : }

  00037	3b ec		 cmp	 ebp, esp
  00039	e8 00 00 00 00	 call	 __RTC_CheckEsp
  0003e	5d		 pop	 ebp
  0003f	c3		 ret	 0
?convert_yuv422_16_to_p210_sse2@@YAXPAPAXPAPBXHHHHHHHHPAH@Z ENDP ; convert_yuv422_16_to_p210_sse2
_TEXT	ENDS
; Function compile flags: /Odtp /RTCsu
; File D:\work\intel\intel_codec\QSVPipeline\convert_csp_simd.h
_TEXT	SEGMENT
$T1 = -352						; size = 12
$T2 = -336						; size = 16
$T3 = -320						; size = 16
$T4 = -304						; size = 16
$T5 = -288						; size = 16
$T6 = -272						; size = 16
$T7 = -256						; size = 16
_x$8 = -228						; size = 4
_x2$9 = -224						; size = 16
_x1$10 = -208						; size = 16
_x0$11 = -192						; size = 16
_dst_ptr$12 = -176					; size = 4
_src_v_ptr$13 = -172					; size = 4
_src_u_ptr$14 = -168					; size = 4
_x_fin$15 = -164					; size = 4
_y$16 = -160						; size = 4
_srcVLine$ = -156					; size = 4
_srcULine$ = -152					; size = 4
_src_uv_pitch$ = -148					; size = 4
$T17 = -144						; size = 16
$T18 = -128						; size = 16
_x0$19 = -112						; size = 16
_x$20 = -88						; size = 4
_dst_ptr$21 = -84					; size = 4
_src_ptr$22 = -80					; size = 4
_y$23 = -76						; size = 4
_y_width$ = -72						; size = 4
_dstLine$ = -68						; size = 4
_srcYLine$ = -64					; size = 4
$T24 = -60						; size = 12
_y_range$ = -44						; size = 12
_dst_y_pitch$ = -28					; size = 4
_src_y_pitch$ = -24					; size = 4
_crop_bottom$ = -20					; size = 4
_crop_right$ = -16					; size = 4
_crop_up$ = -12						; size = 4
_crop_left$ = -8					; size = 4
__$ArrayPad$ = -4					; size = 4
_dst$ = 8						; size = 4
_src$ = 12						; size = 4
_width$ = 16						; size = 4
_src_y_pitch_byte$ = 20					; size = 4
_src_uv_pitch_byte$ = 24				; size = 4
_dst_y_pitch_byte$ = 28					; size = 4
_height$ = 32						; size = 4
_dst_height$ = 36					; size = 4
_thread_id$ = 40					; size = 4
_thread_n$ = 44						; size = 4
_crop$ = 48						; size = 4
??$convert_yuv422_high_to_p210_simd@$0O@@@YAXPAPAXPAPBXHHHHHHHHPAH@Z PROC ; convert_yuv422_high_to_p210_simd<14>

; 1153 : static void __forceinline convert_yuv422_high_to_p210_simd(void **dst, const void **src, int width, int src_y_pitch_byte, int src_uv_pitch_byte, int dst_y_pitch_byte, int height, int dst_height, int thread_id, int thread_n, int *crop) {

  00000	53		 push	 ebx
  00001	8b dc		 mov	 ebx, esp
  00003	83 ec 08	 sub	 esp, 8
  00006	83 e4 f0	 and	 esp, -16		; fffffff0H
  00009	83 c4 04	 add	 esp, 4
  0000c	55		 push	 ebp
  0000d	8b 6b 04	 mov	 ebp, DWORD PTR [ebx+4]
  00010	89 6c 24 04	 mov	 DWORD PTR [esp+4], ebp
  00014	8b ec		 mov	 ebp, esp
  00016	81 ec 60 01 00
	00		 sub	 esp, 352		; 00000160H
  0001c	57		 push	 edi
  0001d	8d bd a0 fe ff
	ff		 lea	 edi, DWORD PTR [ebp-352]
  00023	b9 58 00 00 00	 mov	 ecx, 88			; 00000058H
  00028	b8 cc cc cc cc	 mov	 eax, -858993460		; ccccccccH
  0002d	f3 ab		 rep stosd
  0002f	a1 00 00 00 00	 mov	 eax, DWORD PTR ___security_cookie
  00034	33 c5		 xor	 eax, ebp
  00036	89 45 fc	 mov	 DWORD PTR __$ArrayPad$[ebp], eax

; 1154 :     static_assert(8 < in_bit_depth && in_bit_depth <= 16, "in_bit_depth must be 9-16.");
; 1155 :     const int crop_left   = crop[0];

  00039	b8 04 00 00 00	 mov	 eax, 4
  0003e	6b c8 00	 imul	 ecx, eax, 0
  00041	8b 53 30	 mov	 edx, DWORD PTR _crop$[ebx]
  00044	8b 04 0a	 mov	 eax, DWORD PTR [edx+ecx]
  00047	89 45 f8	 mov	 DWORD PTR _crop_left$[ebp], eax

; 1156 :     const int crop_up     = crop[1];

  0004a	b9 04 00 00 00	 mov	 ecx, 4
  0004f	c1 e1 00	 shl	 ecx, 0
  00052	8b 53 30	 mov	 edx, DWORD PTR _crop$[ebx]
  00055	8b 04 0a	 mov	 eax, DWORD PTR [edx+ecx]
  00058	89 45 f4	 mov	 DWORD PTR _crop_up$[ebp], eax

; 1157 :     const int crop_right  = crop[2];

  0005b	b9 04 00 00 00	 mov	 ecx, 4
  00060	d1 e1		 shl	 ecx, 1
  00062	8b 53 30	 mov	 edx, DWORD PTR _crop$[ebx]
  00065	8b 04 0a	 mov	 eax, DWORD PTR [edx+ecx]
  00068	89 45 f0	 mov	 DWORD PTR _crop_right$[ebp], eax

; 1158 :     const int crop_bottom = crop[3];

  0006b	b9 04 00 00 00	 mov	 ecx, 4
  00070	6b d1 03	 imul	 edx, ecx, 3
  00073	8b 43 30	 mov	 eax, DWORD PTR _crop$[ebx]
  00076	8b 0c 10	 mov	 ecx, DWORD PTR [eax+edx]
  00079	89 4d ec	 mov	 DWORD PTR _crop_bottom$[ebp], ecx

; 1159 :     const int src_y_pitch = src_y_pitch_byte >> 1;

  0007c	8b 53 14	 mov	 edx, DWORD PTR _src_y_pitch_byte$[ebx]
  0007f	d1 fa		 sar	 edx, 1
  00081	89 55 e8	 mov	 DWORD PTR _src_y_pitch$[ebp], edx

; 1160 :     const int dst_y_pitch = dst_y_pitch_byte >> 1;

  00084	8b 43 1c	 mov	 eax, DWORD PTR _dst_y_pitch_byte$[ebx]
  00087	d1 f8		 sar	 eax, 1
  00089	89 45 e4	 mov	 DWORD PTR _dst_y_pitch$[ebp], eax

; 1161 :     //Y成分のコピー
; 1162 :     const auto y_range = thread_y_range(crop_up, height - crop_bottom, thread_id, thread_n);

  0008c	8b 4b 2c	 mov	 ecx, DWORD PTR _thread_n$[ebx]
  0008f	51		 push	 ecx
  00090	8b 53 28	 mov	 edx, DWORD PTR _thread_id$[ebx]
  00093	52		 push	 edx
  00094	8b 43 20	 mov	 eax, DWORD PTR _height$[ebx]
  00097	2b 45 ec	 sub	 eax, DWORD PTR _crop_bottom$[ebp]
  0009a	50		 push	 eax
  0009b	8b 4d f4	 mov	 ecx, DWORD PTR _crop_up$[ebp]
  0009e	51		 push	 ecx
  0009f	8d 95 a0 fe ff
	ff		 lea	 edx, DWORD PTR $T1[ebp]
  000a5	52		 push	 edx
  000a6	e8 00 00 00 00	 call	 ?thread_y_range@@YA?AUTHREAD_Y_RANGE@@HHHH@Z ; thread_y_range
  000ab	83 c4 14	 add	 esp, 20			; 00000014H
  000ae	8b 08		 mov	 ecx, DWORD PTR [eax]
  000b0	89 4d c4	 mov	 DWORD PTR $T24[ebp], ecx
  000b3	8b 50 04	 mov	 edx, DWORD PTR [eax+4]
  000b6	89 55 c8	 mov	 DWORD PTR $T24[ebp+4], edx
  000b9	8b 40 08	 mov	 eax, DWORD PTR [eax+8]
  000bc	89 45 cc	 mov	 DWORD PTR $T24[ebp+8], eax
  000bf	8b 4d c4	 mov	 ecx, DWORD PTR $T24[ebp]
  000c2	89 4d d4	 mov	 DWORD PTR _y_range$[ebp], ecx
  000c5	8b 55 c8	 mov	 edx, DWORD PTR $T24[ebp+4]
  000c8	89 55 d8	 mov	 DWORD PTR _y_range$[ebp+4], edx
  000cb	8b 45 cc	 mov	 eax, DWORD PTR $T24[ebp+8]
  000ce	89 45 dc	 mov	 DWORD PTR _y_range$[ebp+8], eax

; 1163 :     uint16_t *srcYLine = (uint16_t *)src[0] + src_y_pitch * y_range.start_src + crop_left;

  000d1	b9 04 00 00 00	 mov	 ecx, 4
  000d6	6b d1 00	 imul	 edx, ecx, 0
  000d9	8b 45 e8	 mov	 eax, DWORD PTR _src_y_pitch$[ebp]
  000dc	0f af 45 d4	 imul	 eax, DWORD PTR _y_range$[ebp]
  000e0	8b 4b 0c	 mov	 ecx, DWORD PTR _src$[ebx]
  000e3	8b 14 11	 mov	 edx, DWORD PTR [ecx+edx]
  000e6	8d 04 42	 lea	 eax, DWORD PTR [edx+eax*2]
  000e9	8b 4d f8	 mov	 ecx, DWORD PTR _crop_left$[ebp]
  000ec	8d 14 48	 lea	 edx, DWORD PTR [eax+ecx*2]
  000ef	89 55 c0	 mov	 DWORD PTR _srcYLine$[ebp], edx

; 1164 :     uint16_t *dstLine = (uint16_t *)dst[0] + dst_y_pitch * y_range.start_dst;

  000f2	b8 04 00 00 00	 mov	 eax, 4
  000f7	6b c8 00	 imul	 ecx, eax, 0
  000fa	8b 55 e4	 mov	 edx, DWORD PTR _dst_y_pitch$[ebp]
  000fd	0f af 55 d8	 imul	 edx, DWORD PTR _y_range$[ebp+4]
  00101	8b 43 08	 mov	 eax, DWORD PTR _dst$[ebx]
  00104	8b 0c 08	 mov	 ecx, DWORD PTR [eax+ecx]
  00107	8d 14 51	 lea	 edx, DWORD PTR [ecx+edx*2]
  0010a	89 55 bc	 mov	 DWORD PTR _dstLine$[ebp], edx

; 1165 :     const int y_width = width - crop_right - crop_left;

  0010d	8b 43 10	 mov	 eax, DWORD PTR _width$[ebx]
  00110	2b 45 f0	 sub	 eax, DWORD PTR _crop_right$[ebp]
  00113	2b 45 f8	 sub	 eax, DWORD PTR _crop_left$[ebp]
  00116	89 45 b8	 mov	 DWORD PTR _y_width$[ebp], eax

; 1166 :     for (int y = 0; y < y_range.len; y++, srcYLine += src_y_pitch, dstLine += dst_y_pitch) {

  00119	c7 45 b4 00 00
	00 00		 mov	 DWORD PTR _y$23[ebp], 0
  00120	eb 21		 jmp	 SHORT $LN4@convert_yu
$LN2@convert_yu:
  00122	8b 4d b4	 mov	 ecx, DWORD PTR _y$23[ebp]
  00125	83 c1 01	 add	 ecx, 1
  00128	89 4d b4	 mov	 DWORD PTR _y$23[ebp], ecx
  0012b	8b 55 e8	 mov	 edx, DWORD PTR _src_y_pitch$[ebp]
  0012e	8b 45 c0	 mov	 eax, DWORD PTR _srcYLine$[ebp]
  00131	8d 0c 50	 lea	 ecx, DWORD PTR [eax+edx*2]
  00134	89 4d c0	 mov	 DWORD PTR _srcYLine$[ebp], ecx
  00137	8b 55 e4	 mov	 edx, DWORD PTR _dst_y_pitch$[ebp]
  0013a	8b 45 bc	 mov	 eax, DWORD PTR _dstLine$[ebp]
  0013d	8d 0c 50	 lea	 ecx, DWORD PTR [eax+edx*2]
  00140	89 4d bc	 mov	 DWORD PTR _dstLine$[ebp], ecx
$LN4@convert_yu:
  00143	8b 55 b4	 mov	 edx, DWORD PTR _y$23[ebp]
  00146	3b 55 dc	 cmp	 edx, DWORD PTR _y_range$[ebp+8]
  00149	0f 8d 92 00 00
	00		 jge	 $LN3@convert_yu

; 1167 :         if (in_bit_depth == 16) {

  0014f	33 c0		 xor	 eax, eax
  00151	74 18		 je	 SHORT $LN14@convert_yu

; 1168 :             memcpy_sse((uint8_t *)dstLine, (uint8_t *)srcYLine, y_width * sizeof(uint16_t));

  00153	8b 4d b8	 mov	 ecx, DWORD PTR _y_width$[ebp]
  00156	d1 e1		 shl	 ecx, 1
  00158	51		 push	 ecx
  00159	8b 55 c0	 mov	 edx, DWORD PTR _srcYLine$[ebp]
  0015c	52		 push	 edx
  0015d	8b 45 bc	 mov	 eax, DWORD PTR _dstLine$[ebp]
  00160	50		 push	 eax
  00161	e8 00 00 00 00	 call	 ?memcpy_sse@@YAXPAEPBEH@Z ; memcpy_sse
  00166	83 c4 0c	 add	 esp, 12			; 0000000cH

; 1169 :         } else {

  00169	eb 71		 jmp	 SHORT $LN15@convert_yu
$LN14@convert_yu:

; 1170 :             uint16_t *src_ptr = srcYLine;

  0016b	8b 4d c0	 mov	 ecx, DWORD PTR _srcYLine$[ebp]
  0016e	89 4d b0	 mov	 DWORD PTR _src_ptr$22[ebp], ecx

; 1171 :             uint16_t *dst_ptr = dstLine;

  00171	8b 55 bc	 mov	 edx, DWORD PTR _dstLine$[ebp]
  00174	89 55 ac	 mov	 DWORD PTR _dst_ptr$21[ebp], edx

; 1172 :             for (int x = 0; x < y_width; x += 8, dst_ptr += 8, src_ptr += 8) {

  00177	c7 45 a8 00 00
	00 00		 mov	 DWORD PTR _x$20[ebp], 0
  0017e	eb 1b		 jmp	 SHORT $LN7@convert_yu
$LN5@convert_yu:
  00180	8b 45 a8	 mov	 eax, DWORD PTR _x$20[ebp]
  00183	83 c0 08	 add	 eax, 8
  00186	89 45 a8	 mov	 DWORD PTR _x$20[ebp], eax
  00189	8b 4d ac	 mov	 ecx, DWORD PTR _dst_ptr$21[ebp]
  0018c	83 c1 10	 add	 ecx, 16			; 00000010H
  0018f	89 4d ac	 mov	 DWORD PTR _dst_ptr$21[ebp], ecx
  00192	8b 55 b0	 mov	 edx, DWORD PTR _src_ptr$22[ebp]
  00195	83 c2 10	 add	 edx, 16			; 00000010H
  00198	89 55 b0	 mov	 DWORD PTR _src_ptr$22[ebp], edx
$LN7@convert_yu:
  0019b	8b 45 a8	 mov	 eax, DWORD PTR _x$20[ebp]
  0019e	3b 45 b8	 cmp	 eax, DWORD PTR _y_width$[ebp]
  001a1	7d 39		 jge	 SHORT $LN15@convert_yu

; 1173 :                 __m128i x0 = _mm_loadu_si128((const __m128i *)src_ptr);

  001a3	8b 4d b0	 mov	 ecx, DWORD PTR _src_ptr$22[ebp]
  001a6	0f 10 01	 movups	 xmm0, XMMWORD PTR [ecx]
  001a9	0f 29 45 80	 movaps	 XMMWORD PTR $T18[ebp], xmm0
  001ad	0f 28 45 80	 movaps	 xmm0, XMMWORD PTR $T18[ebp]
  001b1	0f 29 45 90	 movaps	 XMMWORD PTR _x0$19[ebp], xmm0

; 1174 :                 x0 = _mm_slli_epi16(x0, 16 - in_bit_depth);

  001b5	0f 28 45 90	 movaps	 xmm0, XMMWORD PTR _x0$19[ebp]
  001b9	66 0f 71 f0 02	 psllw	 xmm0, 2
  001be	0f 29 85 70 ff
	ff ff		 movaps	 XMMWORD PTR $T17[ebp], xmm0
  001c5	0f 28 85 70 ff
	ff ff		 movaps	 xmm0, XMMWORD PTR $T17[ebp]
  001cc	0f 29 45 90	 movaps	 XMMWORD PTR _x0$19[ebp], xmm0

; 1175 :                 _mm_storeu_si128((__m128i *)dst_ptr, x0);

  001d0	0f 10 45 90	 movups	 xmm0, XMMWORD PTR _x0$19[ebp]
  001d4	8b 55 ac	 mov	 edx, DWORD PTR _dst_ptr$21[ebp]
  001d7	0f 11 02	 movups	 XMMWORD PTR [edx], xmm0

; 1176 :             }

  001da	eb a4		 jmp	 SHORT $LN5@convert_yu
$LN15@convert_yu:

; 1177 :         }
; 1178 :     }

  001dc	e9 41 ff ff ff	 jmp	 $LN2@convert_yu
$LN3@convert_yu:

; 1179 :     //UV成分のコピー
; 1180 :     const int src_uv_pitch = src_uv_pitch_byte >> 1;

  001e1	8b 43 18	 mov	 eax, DWORD PTR _src_uv_pitch_byte$[ebx]
  001e4	d1 f8		 sar	 eax, 1
  001e6	89 85 6c ff ff
	ff		 mov	 DWORD PTR _src_uv_pitch$[ebp], eax

; 1181 :     uint16_t *srcULine = (uint16_t *)src[1] + ((src_uv_pitch * y_range.start_src) + (crop_left >> 1));

  001ec	b9 04 00 00 00	 mov	 ecx, 4
  001f1	c1 e1 00	 shl	 ecx, 0
  001f4	8b 95 6c ff ff
	ff		 mov	 edx, DWORD PTR _src_uv_pitch$[ebp]
  001fa	0f af 55 d4	 imul	 edx, DWORD PTR _y_range$[ebp]
  001fe	8b 45 f8	 mov	 eax, DWORD PTR _crop_left$[ebp]
  00201	d1 f8		 sar	 eax, 1
  00203	03 d0		 add	 edx, eax
  00205	8b 43 0c	 mov	 eax, DWORD PTR _src$[ebx]
  00208	8b 0c 08	 mov	 ecx, DWORD PTR [eax+ecx]
  0020b	8d 14 51	 lea	 edx, DWORD PTR [ecx+edx*2]
  0020e	89 95 68 ff ff
	ff		 mov	 DWORD PTR _srcULine$[ebp], edx

; 1182 :     uint16_t *srcVLine = (uint16_t *)src[2] + ((src_uv_pitch * y_range.start_src) + (crop_left >> 1));

  00214	b8 04 00 00 00	 mov	 eax, 4
  00219	d1 e0		 shl	 eax, 1
  0021b	8b 8d 6c ff ff
	ff		 mov	 ecx, DWORD PTR _src_uv_pitch$[ebp]
  00221	0f af 4d d4	 imul	 ecx, DWORD PTR _y_range$[ebp]
  00225	8b 55 f8	 mov	 edx, DWORD PTR _crop_left$[ebp]
  00228	d1 fa		 sar	 edx, 1
  0022a	03 ca		 add	 ecx, edx
  0022c	8b 53 0c	 mov	 edx, DWORD PTR _src$[ebx]
  0022f	8b 04 02	 mov	 eax, DWORD PTR [edx+eax]
  00232	8d 0c 48	 lea	 ecx, DWORD PTR [eax+ecx*2]
  00235	89 8d 64 ff ff
	ff		 mov	 DWORD PTR _srcVLine$[ebp], ecx

; 1183 :     dstLine = (uint16_t *)dst[1] + dst_y_pitch * y_range.start_dst;

  0023b	ba 04 00 00 00	 mov	 edx, 4
  00240	c1 e2 00	 shl	 edx, 0
  00243	8b 45 e4	 mov	 eax, DWORD PTR _dst_y_pitch$[ebp]
  00246	0f af 45 d8	 imul	 eax, DWORD PTR _y_range$[ebp+4]
  0024a	8b 4b 08	 mov	 ecx, DWORD PTR _dst$[ebx]
  0024d	8b 14 11	 mov	 edx, DWORD PTR [ecx+edx]
  00250	8d 04 42	 lea	 eax, DWORD PTR [edx+eax*2]
  00253	89 45 bc	 mov	 DWORD PTR _dstLine$[ebp], eax

; 1184 :     for (int y = 0; y < y_range.len; y++, srcULine += src_uv_pitch, srcVLine += src_uv_pitch, dstLine += dst_y_pitch) {

  00256	c7 85 60 ff ff
	ff 00 00 00 00	 mov	 DWORD PTR _y$16[ebp], 0
  00260	eb 45		 jmp	 SHORT $LN10@convert_yu
$LN8@convert_yu:
  00262	8b 8d 60 ff ff
	ff		 mov	 ecx, DWORD PTR _y$16[ebp]
  00268	83 c1 01	 add	 ecx, 1
  0026b	89 8d 60 ff ff
	ff		 mov	 DWORD PTR _y$16[ebp], ecx
  00271	8b 95 6c ff ff
	ff		 mov	 edx, DWORD PTR _src_uv_pitch$[ebp]
  00277	8b 85 68 ff ff
	ff		 mov	 eax, DWORD PTR _srcULine$[ebp]
  0027d	8d 0c 50	 lea	 ecx, DWORD PTR [eax+edx*2]
  00280	89 8d 68 ff ff
	ff		 mov	 DWORD PTR _srcULine$[ebp], ecx
  00286	8b 95 6c ff ff
	ff		 mov	 edx, DWORD PTR _src_uv_pitch$[ebp]
  0028c	8b 85 64 ff ff
	ff		 mov	 eax, DWORD PTR _srcVLine$[ebp]
  00292	8d 0c 50	 lea	 ecx, DWORD PTR [eax+edx*2]
  00295	89 8d 64 ff ff
	ff		 mov	 DWORD PTR _srcVLine$[ebp], ecx
  0029b	8b 55 e4	 mov	 edx, DWORD PTR _dst_y_pitch$[ebp]
  0029e	8b 45 bc	 mov	 eax, DWORD PTR _dstLine$[ebp]
  002a1	8d 0c 50	 lea	 ecx, DWORD PTR [eax+edx*2]
  002a4	89 4d bc	 mov	 DWORD PTR _dstLine$[ebp], ecx
$LN10@convert_yu:
  002a7	8b 95 60 ff ff
	ff		 mov	 edx, DWORD PTR _y$16[ebp]
  002ad	3b 55 dc	 cmp	 edx, DWORD PTR _y_range$[ebp+8]
  002b0	0f 8d 82 01 00
	00		 jge	 $LN1@convert_yu

; 1185 :         const int x_fin = width - crop_right;

  002b6	8b 43 10	 mov	 eax, DWORD PTR _width$[ebx]
  002b9	2b 45 f0	 sub	 eax, DWORD PTR _crop_right$[ebp]
  002bc	89 85 5c ff ff
	ff		 mov	 DWORD PTR _x_fin$15[ebp], eax

; 1186 :         uint16_t *src_u_ptr = srcULine;

  002c2	8b 8d 68 ff ff
	ff		 mov	 ecx, DWORD PTR _srcULine$[ebp]
  002c8	89 8d 58 ff ff
	ff		 mov	 DWORD PTR _src_u_ptr$14[ebp], ecx

; 1187 :         uint16_t *src_v_ptr = srcVLine;

  002ce	8b 95 64 ff ff
	ff		 mov	 edx, DWORD PTR _srcVLine$[ebp]
  002d4	89 95 54 ff ff
	ff		 mov	 DWORD PTR _src_v_ptr$13[ebp], edx

; 1188 :         uint16_t *dst_ptr = dstLine;

  002da	8b 45 bc	 mov	 eax, DWORD PTR _dstLine$[ebp]
  002dd	89 85 50 ff ff
	ff		 mov	 DWORD PTR _dst_ptr$12[ebp], eax

; 1189 :         __m128i x0, x1, x2;
; 1190 :         for (int x = crop_left; x < x_fin; x += 16, src_u_ptr += 8, src_v_ptr += 8, dst_ptr += 16) {

  002e3	8b 4d f8	 mov	 ecx, DWORD PTR _crop_left$[ebp]
  002e6	89 8d 1c ff ff
	ff		 mov	 DWORD PTR _x$8[ebp], ecx
  002ec	eb 3c		 jmp	 SHORT $LN13@convert_yu
$LN11@convert_yu:
  002ee	8b 95 1c ff ff
	ff		 mov	 edx, DWORD PTR _x$8[ebp]
  002f4	83 c2 10	 add	 edx, 16			; 00000010H
  002f7	89 95 1c ff ff
	ff		 mov	 DWORD PTR _x$8[ebp], edx
  002fd	8b 85 58 ff ff
	ff		 mov	 eax, DWORD PTR _src_u_ptr$14[ebp]
  00303	83 c0 10	 add	 eax, 16			; 00000010H
  00306	89 85 58 ff ff
	ff		 mov	 DWORD PTR _src_u_ptr$14[ebp], eax
  0030c	8b 8d 54 ff ff
	ff		 mov	 ecx, DWORD PTR _src_v_ptr$13[ebp]
  00312	83 c1 10	 add	 ecx, 16			; 00000010H
  00315	89 8d 54 ff ff
	ff		 mov	 DWORD PTR _src_v_ptr$13[ebp], ecx
  0031b	8b 95 50 ff ff
	ff		 mov	 edx, DWORD PTR _dst_ptr$12[ebp]
  00321	83 c2 20	 add	 edx, 32			; 00000020H
  00324	89 95 50 ff ff
	ff		 mov	 DWORD PTR _dst_ptr$12[ebp], edx
$LN13@convert_yu:
  0032a	8b 85 1c ff ff
	ff		 mov	 eax, DWORD PTR _x$8[ebp]
  00330	3b 85 5c ff ff
	ff		 cmp	 eax, DWORD PTR _x_fin$15[ebp]
  00336	0f 8d f7 00 00
	00		 jge	 $LN12@convert_yu

; 1191 :             x0 = _mm_loadu_si128((const __m128i *)src_u_ptr);

  0033c	8b 8d 58 ff ff
	ff		 mov	 ecx, DWORD PTR _src_u_ptr$14[ebp]
  00342	0f 10 01	 movups	 xmm0, XMMWORD PTR [ecx]
  00345	0f 29 85 00 ff
	ff ff		 movaps	 XMMWORD PTR $T7[ebp], xmm0
  0034c	0f 28 85 00 ff
	ff ff		 movaps	 xmm0, XMMWORD PTR $T7[ebp]
  00353	0f 29 85 40 ff
	ff ff		 movaps	 XMMWORD PTR _x0$11[ebp], xmm0

; 1192 :             x1 = _mm_loadu_si128((const __m128i *)src_v_ptr);

  0035a	8b 95 54 ff ff
	ff		 mov	 edx, DWORD PTR _src_v_ptr$13[ebp]
  00360	0f 10 02	 movups	 xmm0, XMMWORD PTR [edx]
  00363	0f 29 85 f0 fe
	ff ff		 movaps	 XMMWORD PTR $T6[ebp], xmm0
  0036a	0f 28 85 f0 fe
	ff ff		 movaps	 xmm0, XMMWORD PTR $T6[ebp]
  00371	0f 29 85 30 ff
	ff ff		 movaps	 XMMWORD PTR _x1$10[ebp], xmm0

; 1193 : 
; 1194 :             if (in_bit_depth < 16) {

  00378	b8 01 00 00 00	 mov	 eax, 1
  0037d	85 c0		 test	 eax, eax
  0037f	74 42		 je	 SHORT $LN16@convert_yu

; 1195 :                 x0 = _mm_slli_epi16(x0, 16 - in_bit_depth);

  00381	0f 28 85 40 ff
	ff ff		 movaps	 xmm0, XMMWORD PTR _x0$11[ebp]
  00388	66 0f 71 f0 02	 psllw	 xmm0, 2
  0038d	0f 29 85 e0 fe
	ff ff		 movaps	 XMMWORD PTR $T5[ebp], xmm0
  00394	0f 28 85 e0 fe
	ff ff		 movaps	 xmm0, XMMWORD PTR $T5[ebp]
  0039b	0f 29 85 40 ff
	ff ff		 movaps	 XMMWORD PTR _x0$11[ebp], xmm0

; 1196 :                 x1 = _mm_slli_epi16(x1, 16 - in_bit_depth);

  003a2	0f 28 85 30 ff
	ff ff		 movaps	 xmm0, XMMWORD PTR _x1$10[ebp]
  003a9	66 0f 71 f0 02	 psllw	 xmm0, 2
  003ae	0f 29 85 d0 fe
	ff ff		 movaps	 XMMWORD PTR $T4[ebp], xmm0
  003b5	0f 28 85 d0 fe
	ff ff		 movaps	 xmm0, XMMWORD PTR $T4[ebp]
  003bc	0f 29 85 30 ff
	ff ff		 movaps	 XMMWORD PTR _x1$10[ebp], xmm0
$LN16@convert_yu:

; 1197 :             }
; 1198 : 
; 1199 :             x2 = _mm_unpackhi_epi16(x0, x1);

  003c3	0f 28 85 40 ff
	ff ff		 movaps	 xmm0, XMMWORD PTR _x0$11[ebp]
  003ca	66 0f 69 85 30
	ff ff ff	 punpckhwd xmm0, XMMWORD PTR _x1$10[ebp]
  003d2	0f 29 85 c0 fe
	ff ff		 movaps	 XMMWORD PTR $T3[ebp], xmm0
  003d9	0f 28 85 c0 fe
	ff ff		 movaps	 xmm0, XMMWORD PTR $T3[ebp]
  003e0	0f 29 85 20 ff
	ff ff		 movaps	 XMMWORD PTR _x2$9[ebp], xmm0

; 1200 :             x0 = _mm_unpacklo_epi16(x0, x1);

  003e7	0f 28 85 40 ff
	ff ff		 movaps	 xmm0, XMMWORD PTR _x0$11[ebp]
  003ee	66 0f 61 85 30
	ff ff ff	 punpcklwd xmm0, XMMWORD PTR _x1$10[ebp]
  003f6	0f 29 85 b0 fe
	ff ff		 movaps	 XMMWORD PTR $T2[ebp], xmm0
  003fd	0f 28 85 b0 fe
	ff ff		 movaps	 xmm0, XMMWORD PTR $T2[ebp]
  00404	0f 29 85 40 ff
	ff ff		 movaps	 XMMWORD PTR _x0$11[ebp], xmm0

; 1201 : 
; 1202 :             _mm_storeu_si128((__m128i *)(dst_ptr + 0), x0);

  0040b	0f 10 85 40 ff
	ff ff		 movups	 xmm0, XMMWORD PTR _x0$11[ebp]
  00412	8b 8d 50 ff ff
	ff		 mov	 ecx, DWORD PTR _dst_ptr$12[ebp]
  00418	0f 11 01	 movups	 XMMWORD PTR [ecx], xmm0

; 1203 :             _mm_storeu_si128((__m128i *)(dst_ptr + 8), x2);

  0041b	0f 10 85 20 ff
	ff ff		 movups	 xmm0, XMMWORD PTR _x2$9[ebp]
  00422	8b 95 50 ff ff
	ff		 mov	 edx, DWORD PTR _dst_ptr$12[ebp]
  00428	83 c2 10	 add	 edx, 16			; 00000010H
  0042b	0f 11 02	 movups	 XMMWORD PTR [edx], xmm0

; 1204 :         }

  0042e	e9 bb fe ff ff	 jmp	 $LN11@convert_yu
$LN12@convert_yu:

; 1205 :     }

  00433	e9 2a fe ff ff	 jmp	 $LN8@convert_yu
$LN1@convert_yu:

; 1206 : }

  00438	52		 push	 edx
  00439	8b cd		 mov	 ecx, ebp
  0043b	50		 push	 eax
  0043c	8d 15 00 00 00
	00		 lea	 edx, DWORD PTR $LN20@convert_yu
  00442	e8 00 00 00 00	 call	 @_RTC_CheckStackVars@8
  00447	58		 pop	 eax
  00448	5a		 pop	 edx
  00449	5f		 pop	 edi
  0044a	8b 4d fc	 mov	 ecx, DWORD PTR __$ArrayPad$[ebp]
  0044d	33 cd		 xor	 ecx, ebp
  0044f	e8 00 00 00 00	 call	 @__security_check_cookie@4
  00454	8b e5		 mov	 esp, ebp
  00456	5d		 pop	 ebp
  00457	8b e3		 mov	 esp, ebx
  00459	5b		 pop	 ebx
  0045a	c3		 ret	 0
  0045b	90		 npad	 1
$LN20@convert_yu:
  0045c	01 00 00 00	 DD	 1
  00460	00 00 00 00	 DD	 $LN19@convert_yu
$LN19@convert_yu:
  00464	d4 ff ff ff	 DD	 -44			; ffffffd4H
  00468	0c 00 00 00	 DD	 12			; 0000000cH
  0046c	00 00 00 00	 DD	 $LN18@convert_yu
$LN18@convert_yu:
  00470	79		 DB	 121			; 00000079H
  00471	5f		 DB	 95			; 0000005fH
  00472	72		 DB	 114			; 00000072H
  00473	61		 DB	 97			; 00000061H
  00474	6e		 DB	 110			; 0000006eH
  00475	67		 DB	 103			; 00000067H
  00476	65		 DB	 101			; 00000065H
  00477	00		 DB	 0
??$convert_yuv422_high_to_p210_simd@$0O@@@YAXPAPAXPAPBXHHHHHHHHPAH@Z ENDP ; convert_yuv422_high_to_p210_simd<14>
_TEXT	ENDS
; Function compile flags: /Odtp /RTCsu
; File D:\work\intel\intel_codec\QSVPipeline\convert_csp_sse2.cpp
_TEXT	SEGMENT
_dst$ = 8						; size = 4
_src$ = 12						; size = 4
_width$ = 16						; size = 4
_src_y_pitch_byte$ = 20					; size = 4
_src_uv_pitch_byte$ = 24				; size = 4
_dst_y_pitch_byte$ = 28					; size = 4
_height$ = 32						; size = 4
_dst_height$ = 36					; size = 4
_thread_id$ = 40					; size = 4
_thread_n$ = 44						; size = 4
_crop$ = 48						; size = 4
?convert_yuv422_14_to_p210_sse2@@YAXPAPAXPAPBXHHHHHHHHPAH@Z PROC ; convert_yuv422_14_to_p210_sse2

; 233  : void convert_yuv422_14_to_p210_sse2(void **dst, const void **src, int width, int src_y_pitch_byte, int src_uv_pitch_byte, int dst_y_pitch_byte, int height, int dst_height, int thread_id, int thread_n, int *crop) {

  00000	55		 push	 ebp
  00001	8b ec		 mov	 ebp, esp

; 234  :     convert_yuv422_high_to_p210_simd<14>(dst, src, width, src_y_pitch_byte, src_uv_pitch_byte, dst_y_pitch_byte, height, dst_height, thread_id, thread_n, crop);

  00003	8b 45 30	 mov	 eax, DWORD PTR _crop$[ebp]
  00006	50		 push	 eax
  00007	8b 4d 2c	 mov	 ecx, DWORD PTR _thread_n$[ebp]
  0000a	51		 push	 ecx
  0000b	8b 55 28	 mov	 edx, DWORD PTR _thread_id$[ebp]
  0000e	52		 push	 edx
  0000f	8b 45 24	 mov	 eax, DWORD PTR _dst_height$[ebp]
  00012	50		 push	 eax
  00013	8b 4d 20	 mov	 ecx, DWORD PTR _height$[ebp]
  00016	51		 push	 ecx
  00017	8b 55 1c	 mov	 edx, DWORD PTR _dst_y_pitch_byte$[ebp]
  0001a	52		 push	 edx
  0001b	8b 45 18	 mov	 eax, DWORD PTR _src_uv_pitch_byte$[ebp]
  0001e	50		 push	 eax
  0001f	8b 4d 14	 mov	 ecx, DWORD PTR _src_y_pitch_byte$[ebp]
  00022	51		 push	 ecx
  00023	8b 55 10	 mov	 edx, DWORD PTR _width$[ebp]
  00026	52		 push	 edx
  00027	8b 45 0c	 mov	 eax, DWORD PTR _src$[ebp]
  0002a	50		 push	 eax
  0002b	8b 4d 08	 mov	 ecx, DWORD PTR _dst$[ebp]
  0002e	51		 push	 ecx
  0002f	e8 00 00 00 00	 call	 ??$convert_yuv422_high_to_p210_simd@$0O@@@YAXPAPAXPAPBXHHHHHHHHPAH@Z ; convert_yuv422_high_to_p210_simd<14>
  00034	83 c4 2c	 add	 esp, 44			; 0000002cH

; 235  : }

  00037	3b ec		 cmp	 ebp, esp
  00039	e8 00 00 00 00	 call	 __RTC_CheckEsp
  0003e	5d		 pop	 ebp
  0003f	c3		 ret	 0
?convert_yuv422_14_to_p210_sse2@@YAXPAPAXPAPBXHHHHHHHHPAH@Z ENDP ; convert_yuv422_14_to_p210_sse2
_TEXT	ENDS
; Function compile flags: /Odtp /RTCsu
; File D:\work\intel\intel_codec\QSVPipeline\convert_csp_simd.h
_TEXT	SEGMENT
$T1 = -352						; size = 12
$T2 = -336						; size = 16
$T3 = -320						; size = 16
$T4 = -304						; size = 16
$T5 = -288						; size = 16
$T6 = -272						; size = 16
$T7 = -256						; size = 16
_x$8 = -228						; size = 4
_x2$9 = -224						; size = 16
_x1$10 = -208						; size = 16
_x0$11 = -192						; size = 16
_dst_ptr$12 = -176					; size = 4
_src_v_ptr$13 = -172					; size = 4
_src_u_ptr$14 = -168					; size = 4
_x_fin$15 = -164					; size = 4
_y$16 = -160						; size = 4
_srcVLine$ = -156					; size = 4
_srcULine$ = -152					; size = 4
_src_uv_pitch$ = -148					; size = 4
$T17 = -144						; size = 16
$T18 = -128						; size = 16
_x0$19 = -112						; size = 16
_x$20 = -88						; size = 4
_dst_ptr$21 = -84					; size = 4
_src_ptr$22 = -80					; size = 4
_y$23 = -76						; size = 4
_y_width$ = -72						; size = 4
_dstLine$ = -68						; size = 4
_srcYLine$ = -64					; size = 4
$T24 = -60						; size = 12
_y_range$ = -44						; size = 12
_dst_y_pitch$ = -28					; size = 4
_src_y_pitch$ = -24					; size = 4
_crop_bottom$ = -20					; size = 4
_crop_right$ = -16					; size = 4
_crop_up$ = -12						; size = 4
_crop_left$ = -8					; size = 4
__$ArrayPad$ = -4					; size = 4
_dst$ = 8						; size = 4
_src$ = 12						; size = 4
_width$ = 16						; size = 4
_src_y_pitch_byte$ = 20					; size = 4
_src_uv_pitch_byte$ = 24				; size = 4
_dst_y_pitch_byte$ = 28					; size = 4
_height$ = 32						; size = 4
_dst_height$ = 36					; size = 4
_thread_id$ = 40					; size = 4
_thread_n$ = 44						; size = 4
_crop$ = 48						; size = 4
??$convert_yuv422_high_to_p210_simd@$0M@@@YAXPAPAXPAPBXHHHHHHHHPAH@Z PROC ; convert_yuv422_high_to_p210_simd<12>

; 1153 : static void __forceinline convert_yuv422_high_to_p210_simd(void **dst, const void **src, int width, int src_y_pitch_byte, int src_uv_pitch_byte, int dst_y_pitch_byte, int height, int dst_height, int thread_id, int thread_n, int *crop) {

  00000	53		 push	 ebx
  00001	8b dc		 mov	 ebx, esp
  00003	83 ec 08	 sub	 esp, 8
  00006	83 e4 f0	 and	 esp, -16		; fffffff0H
  00009	83 c4 04	 add	 esp, 4
  0000c	55		 push	 ebp
  0000d	8b 6b 04	 mov	 ebp, DWORD PTR [ebx+4]
  00010	89 6c 24 04	 mov	 DWORD PTR [esp+4], ebp
  00014	8b ec		 mov	 ebp, esp
  00016	81 ec 60 01 00
	00		 sub	 esp, 352		; 00000160H
  0001c	57		 push	 edi
  0001d	8d bd a0 fe ff
	ff		 lea	 edi, DWORD PTR [ebp-352]
  00023	b9 58 00 00 00	 mov	 ecx, 88			; 00000058H
  00028	b8 cc cc cc cc	 mov	 eax, -858993460		; ccccccccH
  0002d	f3 ab		 rep stosd
  0002f	a1 00 00 00 00	 mov	 eax, DWORD PTR ___security_cookie
  00034	33 c5		 xor	 eax, ebp
  00036	89 45 fc	 mov	 DWORD PTR __$ArrayPad$[ebp], eax

; 1154 :     static_assert(8 < in_bit_depth && in_bit_depth <= 16, "in_bit_depth must be 9-16.");
; 1155 :     const int crop_left   = crop[0];

  00039	b8 04 00 00 00	 mov	 eax, 4
  0003e	6b c8 00	 imul	 ecx, eax, 0
  00041	8b 53 30	 mov	 edx, DWORD PTR _crop$[ebx]
  00044	8b 04 0a	 mov	 eax, DWORD PTR [edx+ecx]
  00047	89 45 f8	 mov	 DWORD PTR _crop_left$[ebp], eax

; 1156 :     const int crop_up     = crop[1];

  0004a	b9 04 00 00 00	 mov	 ecx, 4
  0004f	c1 e1 00	 shl	 ecx, 0
  00052	8b 53 30	 mov	 edx, DWORD PTR _crop$[ebx]
  00055	8b 04 0a	 mov	 eax, DWORD PTR [edx+ecx]
  00058	89 45 f4	 mov	 DWORD PTR _crop_up$[ebp], eax

; 1157 :     const int crop_right  = crop[2];

  0005b	b9 04 00 00 00	 mov	 ecx, 4
  00060	d1 e1		 shl	 ecx, 1
  00062	8b 53 30	 mov	 edx, DWORD PTR _crop$[ebx]
  00065	8b 04 0a	 mov	 eax, DWORD PTR [edx+ecx]
  00068	89 45 f0	 mov	 DWORD PTR _crop_right$[ebp], eax

; 1158 :     const int crop_bottom = crop[3];

  0006b	b9 04 00 00 00	 mov	 ecx, 4
  00070	6b d1 03	 imul	 edx, ecx, 3
  00073	8b 43 30	 mov	 eax, DWORD PTR _crop$[ebx]
  00076	8b 0c 10	 mov	 ecx, DWORD PTR [eax+edx]
  00079	89 4d ec	 mov	 DWORD PTR _crop_bottom$[ebp], ecx

; 1159 :     const int src_y_pitch = src_y_pitch_byte >> 1;

  0007c	8b 53 14	 mov	 edx, DWORD PTR _src_y_pitch_byte$[ebx]
  0007f	d1 fa		 sar	 edx, 1
  00081	89 55 e8	 mov	 DWORD PTR _src_y_pitch$[ebp], edx

; 1160 :     const int dst_y_pitch = dst_y_pitch_byte >> 1;

  00084	8b 43 1c	 mov	 eax, DWORD PTR _dst_y_pitch_byte$[ebx]
  00087	d1 f8		 sar	 eax, 1
  00089	89 45 e4	 mov	 DWORD PTR _dst_y_pitch$[ebp], eax

; 1161 :     //Y成分のコピー
; 1162 :     const auto y_range = thread_y_range(crop_up, height - crop_bottom, thread_id, thread_n);

  0008c	8b 4b 2c	 mov	 ecx, DWORD PTR _thread_n$[ebx]
  0008f	51		 push	 ecx
  00090	8b 53 28	 mov	 edx, DWORD PTR _thread_id$[ebx]
  00093	52		 push	 edx
  00094	8b 43 20	 mov	 eax, DWORD PTR _height$[ebx]
  00097	2b 45 ec	 sub	 eax, DWORD PTR _crop_bottom$[ebp]
  0009a	50		 push	 eax
  0009b	8b 4d f4	 mov	 ecx, DWORD PTR _crop_up$[ebp]
  0009e	51		 push	 ecx
  0009f	8d 95 a0 fe ff
	ff		 lea	 edx, DWORD PTR $T1[ebp]
  000a5	52		 push	 edx
  000a6	e8 00 00 00 00	 call	 ?thread_y_range@@YA?AUTHREAD_Y_RANGE@@HHHH@Z ; thread_y_range
  000ab	83 c4 14	 add	 esp, 20			; 00000014H
  000ae	8b 08		 mov	 ecx, DWORD PTR [eax]
  000b0	89 4d c4	 mov	 DWORD PTR $T24[ebp], ecx
  000b3	8b 50 04	 mov	 edx, DWORD PTR [eax+4]
  000b6	89 55 c8	 mov	 DWORD PTR $T24[ebp+4], edx
  000b9	8b 40 08	 mov	 eax, DWORD PTR [eax+8]
  000bc	89 45 cc	 mov	 DWORD PTR $T24[ebp+8], eax
  000bf	8b 4d c4	 mov	 ecx, DWORD PTR $T24[ebp]
  000c2	89 4d d4	 mov	 DWORD PTR _y_range$[ebp], ecx
  000c5	8b 55 c8	 mov	 edx, DWORD PTR $T24[ebp+4]
  000c8	89 55 d8	 mov	 DWORD PTR _y_range$[ebp+4], edx
  000cb	8b 45 cc	 mov	 eax, DWORD PTR $T24[ebp+8]
  000ce	89 45 dc	 mov	 DWORD PTR _y_range$[ebp+8], eax

; 1163 :     uint16_t *srcYLine = (uint16_t *)src[0] + src_y_pitch * y_range.start_src + crop_left;

  000d1	b9 04 00 00 00	 mov	 ecx, 4
  000d6	6b d1 00	 imul	 edx, ecx, 0
  000d9	8b 45 e8	 mov	 eax, DWORD PTR _src_y_pitch$[ebp]
  000dc	0f af 45 d4	 imul	 eax, DWORD PTR _y_range$[ebp]
  000e0	8b 4b 0c	 mov	 ecx, DWORD PTR _src$[ebx]
  000e3	8b 14 11	 mov	 edx, DWORD PTR [ecx+edx]
  000e6	8d 04 42	 lea	 eax, DWORD PTR [edx+eax*2]
  000e9	8b 4d f8	 mov	 ecx, DWORD PTR _crop_left$[ebp]
  000ec	8d 14 48	 lea	 edx, DWORD PTR [eax+ecx*2]
  000ef	89 55 c0	 mov	 DWORD PTR _srcYLine$[ebp], edx

; 1164 :     uint16_t *dstLine = (uint16_t *)dst[0] + dst_y_pitch * y_range.start_dst;

  000f2	b8 04 00 00 00	 mov	 eax, 4
  000f7	6b c8 00	 imul	 ecx, eax, 0
  000fa	8b 55 e4	 mov	 edx, DWORD PTR _dst_y_pitch$[ebp]
  000fd	0f af 55 d8	 imul	 edx, DWORD PTR _y_range$[ebp+4]
  00101	8b 43 08	 mov	 eax, DWORD PTR _dst$[ebx]
  00104	8b 0c 08	 mov	 ecx, DWORD PTR [eax+ecx]
  00107	8d 14 51	 lea	 edx, DWORD PTR [ecx+edx*2]
  0010a	89 55 bc	 mov	 DWORD PTR _dstLine$[ebp], edx

; 1165 :     const int y_width = width - crop_right - crop_left;

  0010d	8b 43 10	 mov	 eax, DWORD PTR _width$[ebx]
  00110	2b 45 f0	 sub	 eax, DWORD PTR _crop_right$[ebp]
  00113	2b 45 f8	 sub	 eax, DWORD PTR _crop_left$[ebp]
  00116	89 45 b8	 mov	 DWORD PTR _y_width$[ebp], eax

; 1166 :     for (int y = 0; y < y_range.len; y++, srcYLine += src_y_pitch, dstLine += dst_y_pitch) {

  00119	c7 45 b4 00 00
	00 00		 mov	 DWORD PTR _y$23[ebp], 0
  00120	eb 21		 jmp	 SHORT $LN4@convert_yu
$LN2@convert_yu:
  00122	8b 4d b4	 mov	 ecx, DWORD PTR _y$23[ebp]
  00125	83 c1 01	 add	 ecx, 1
  00128	89 4d b4	 mov	 DWORD PTR _y$23[ebp], ecx
  0012b	8b 55 e8	 mov	 edx, DWORD PTR _src_y_pitch$[ebp]
  0012e	8b 45 c0	 mov	 eax, DWORD PTR _srcYLine$[ebp]
  00131	8d 0c 50	 lea	 ecx, DWORD PTR [eax+edx*2]
  00134	89 4d c0	 mov	 DWORD PTR _srcYLine$[ebp], ecx
  00137	8b 55 e4	 mov	 edx, DWORD PTR _dst_y_pitch$[ebp]
  0013a	8b 45 bc	 mov	 eax, DWORD PTR _dstLine$[ebp]
  0013d	8d 0c 50	 lea	 ecx, DWORD PTR [eax+edx*2]
  00140	89 4d bc	 mov	 DWORD PTR _dstLine$[ebp], ecx
$LN4@convert_yu:
  00143	8b 55 b4	 mov	 edx, DWORD PTR _y$23[ebp]
  00146	3b 55 dc	 cmp	 edx, DWORD PTR _y_range$[ebp+8]
  00149	0f 8d 92 00 00
	00		 jge	 $LN3@convert_yu

; 1167 :         if (in_bit_depth == 16) {

  0014f	33 c0		 xor	 eax, eax
  00151	74 18		 je	 SHORT $LN14@convert_yu

; 1168 :             memcpy_sse((uint8_t *)dstLine, (uint8_t *)srcYLine, y_width * sizeof(uint16_t));

  00153	8b 4d b8	 mov	 ecx, DWORD PTR _y_width$[ebp]
  00156	d1 e1		 shl	 ecx, 1
  00158	51		 push	 ecx
  00159	8b 55 c0	 mov	 edx, DWORD PTR _srcYLine$[ebp]
  0015c	52		 push	 edx
  0015d	8b 45 bc	 mov	 eax, DWORD PTR _dstLine$[ebp]
  00160	50		 push	 eax
  00161	e8 00 00 00 00	 call	 ?memcpy_sse@@YAXPAEPBEH@Z ; memcpy_sse
  00166	83 c4 0c	 add	 esp, 12			; 0000000cH

; 1169 :         } else {

  00169	eb 71		 jmp	 SHORT $LN15@convert_yu
$LN14@convert_yu:

; 1170 :             uint16_t *src_ptr = srcYLine;

  0016b	8b 4d c0	 mov	 ecx, DWORD PTR _srcYLine$[ebp]
  0016e	89 4d b0	 mov	 DWORD PTR _src_ptr$22[ebp], ecx

; 1171 :             uint16_t *dst_ptr = dstLine;

  00171	8b 55 bc	 mov	 edx, DWORD PTR _dstLine$[ebp]
  00174	89 55 ac	 mov	 DWORD PTR _dst_ptr$21[ebp], edx

; 1172 :             for (int x = 0; x < y_width; x += 8, dst_ptr += 8, src_ptr += 8) {

  00177	c7 45 a8 00 00
	00 00		 mov	 DWORD PTR _x$20[ebp], 0
  0017e	eb 1b		 jmp	 SHORT $LN7@convert_yu
$LN5@convert_yu:
  00180	8b 45 a8	 mov	 eax, DWORD PTR _x$20[ebp]
  00183	83 c0 08	 add	 eax, 8
  00186	89 45 a8	 mov	 DWORD PTR _x$20[ebp], eax
  00189	8b 4d ac	 mov	 ecx, DWORD PTR _dst_ptr$21[ebp]
  0018c	83 c1 10	 add	 ecx, 16			; 00000010H
  0018f	89 4d ac	 mov	 DWORD PTR _dst_ptr$21[ebp], ecx
  00192	8b 55 b0	 mov	 edx, DWORD PTR _src_ptr$22[ebp]
  00195	83 c2 10	 add	 edx, 16			; 00000010H
  00198	89 55 b0	 mov	 DWORD PTR _src_ptr$22[ebp], edx
$LN7@convert_yu:
  0019b	8b 45 a8	 mov	 eax, DWORD PTR _x$20[ebp]
  0019e	3b 45 b8	 cmp	 eax, DWORD PTR _y_width$[ebp]
  001a1	7d 39		 jge	 SHORT $LN15@convert_yu

; 1173 :                 __m128i x0 = _mm_loadu_si128((const __m128i *)src_ptr);

  001a3	8b 4d b0	 mov	 ecx, DWORD PTR _src_ptr$22[ebp]
  001a6	0f 10 01	 movups	 xmm0, XMMWORD PTR [ecx]
  001a9	0f 29 45 80	 movaps	 XMMWORD PTR $T18[ebp], xmm0
  001ad	0f 28 45 80	 movaps	 xmm0, XMMWORD PTR $T18[ebp]
  001b1	0f 29 45 90	 movaps	 XMMWORD PTR _x0$19[ebp], xmm0

; 1174 :                 x0 = _mm_slli_epi16(x0, 16 - in_bit_depth);

  001b5	0f 28 45 90	 movaps	 xmm0, XMMWORD PTR _x0$19[ebp]
  001b9	66 0f 71 f0 04	 psllw	 xmm0, 4
  001be	0f 29 85 70 ff
	ff ff		 movaps	 XMMWORD PTR $T17[ebp], xmm0
  001c5	0f 28 85 70 ff
	ff ff		 movaps	 xmm0, XMMWORD PTR $T17[ebp]
  001cc	0f 29 45 90	 movaps	 XMMWORD PTR _x0$19[ebp], xmm0

; 1175 :                 _mm_storeu_si128((__m128i *)dst_ptr, x0);

  001d0	0f 10 45 90	 movups	 xmm0, XMMWORD PTR _x0$19[ebp]
  001d4	8b 55 ac	 mov	 edx, DWORD PTR _dst_ptr$21[ebp]
  001d7	0f 11 02	 movups	 XMMWORD PTR [edx], xmm0

; 1176 :             }

  001da	eb a4		 jmp	 SHORT $LN5@convert_yu
$LN15@convert_yu:

; 1177 :         }
; 1178 :     }

  001dc	e9 41 ff ff ff	 jmp	 $LN2@convert_yu
$LN3@convert_yu:

; 1179 :     //UV成分のコピー
; 1180 :     const int src_uv_pitch = src_uv_pitch_byte >> 1;

  001e1	8b 43 18	 mov	 eax, DWORD PTR _src_uv_pitch_byte$[ebx]
  001e4	d1 f8		 sar	 eax, 1
  001e6	89 85 6c ff ff
	ff		 mov	 DWORD PTR _src_uv_pitch$[ebp], eax

; 1181 :     uint16_t *srcULine = (uint16_t *)src[1] + ((src_uv_pitch * y_range.start_src) + (crop_left >> 1));

  001ec	b9 04 00 00 00	 mov	 ecx, 4
  001f1	c1 e1 00	 shl	 ecx, 0
  001f4	8b 95 6c ff ff
	ff		 mov	 edx, DWORD PTR _src_uv_pitch$[ebp]
  001fa	0f af 55 d4	 imul	 edx, DWORD PTR _y_range$[ebp]
  001fe	8b 45 f8	 mov	 eax, DWORD PTR _crop_left$[ebp]
  00201	d1 f8		 sar	 eax, 1
  00203	03 d0		 add	 edx, eax
  00205	8b 43 0c	 mov	 eax, DWORD PTR _src$[ebx]
  00208	8b 0c 08	 mov	 ecx, DWORD PTR [eax+ecx]
  0020b	8d 14 51	 lea	 edx, DWORD PTR [ecx+edx*2]
  0020e	89 95 68 ff ff
	ff		 mov	 DWORD PTR _srcULine$[ebp], edx

; 1182 :     uint16_t *srcVLine = (uint16_t *)src[2] + ((src_uv_pitch * y_range.start_src) + (crop_left >> 1));

  00214	b8 04 00 00 00	 mov	 eax, 4
  00219	d1 e0		 shl	 eax, 1
  0021b	8b 8d 6c ff ff
	ff		 mov	 ecx, DWORD PTR _src_uv_pitch$[ebp]
  00221	0f af 4d d4	 imul	 ecx, DWORD PTR _y_range$[ebp]
  00225	8b 55 f8	 mov	 edx, DWORD PTR _crop_left$[ebp]
  00228	d1 fa		 sar	 edx, 1
  0022a	03 ca		 add	 ecx, edx
  0022c	8b 53 0c	 mov	 edx, DWORD PTR _src$[ebx]
  0022f	8b 04 02	 mov	 eax, DWORD PTR [edx+eax]
  00232	8d 0c 48	 lea	 ecx, DWORD PTR [eax+ecx*2]
  00235	89 8d 64 ff ff
	ff		 mov	 DWORD PTR _srcVLine$[ebp], ecx

; 1183 :     dstLine = (uint16_t *)dst[1] + dst_y_pitch * y_range.start_dst;

  0023b	ba 04 00 00 00	 mov	 edx, 4
  00240	c1 e2 00	 shl	 edx, 0
  00243	8b 45 e4	 mov	 eax, DWORD PTR _dst_y_pitch$[ebp]
  00246	0f af 45 d8	 imul	 eax, DWORD PTR _y_range$[ebp+4]
  0024a	8b 4b 08	 mov	 ecx, DWORD PTR _dst$[ebx]
  0024d	8b 14 11	 mov	 edx, DWORD PTR [ecx+edx]
  00250	8d 04 42	 lea	 eax, DWORD PTR [edx+eax*2]
  00253	89 45 bc	 mov	 DWORD PTR _dstLine$[ebp], eax

; 1184 :     for (int y = 0; y < y_range.len; y++, srcULine += src_uv_pitch, srcVLine += src_uv_pitch, dstLine += dst_y_pitch) {

  00256	c7 85 60 ff ff
	ff 00 00 00 00	 mov	 DWORD PTR _y$16[ebp], 0
  00260	eb 45		 jmp	 SHORT $LN10@convert_yu
$LN8@convert_yu:
  00262	8b 8d 60 ff ff
	ff		 mov	 ecx, DWORD PTR _y$16[ebp]
  00268	83 c1 01	 add	 ecx, 1
  0026b	89 8d 60 ff ff
	ff		 mov	 DWORD PTR _y$16[ebp], ecx
  00271	8b 95 6c ff ff
	ff		 mov	 edx, DWORD PTR _src_uv_pitch$[ebp]
  00277	8b 85 68 ff ff
	ff		 mov	 eax, DWORD PTR _srcULine$[ebp]
  0027d	8d 0c 50	 lea	 ecx, DWORD PTR [eax+edx*2]
  00280	89 8d 68 ff ff
	ff		 mov	 DWORD PTR _srcULine$[ebp], ecx
  00286	8b 95 6c ff ff
	ff		 mov	 edx, DWORD PTR _src_uv_pitch$[ebp]
  0028c	8b 85 64 ff ff
	ff		 mov	 eax, DWORD PTR _srcVLine$[ebp]
  00292	8d 0c 50	 lea	 ecx, DWORD PTR [eax+edx*2]
  00295	89 8d 64 ff ff
	ff		 mov	 DWORD PTR _srcVLine$[ebp], ecx
  0029b	8b 55 e4	 mov	 edx, DWORD PTR _dst_y_pitch$[ebp]
  0029e	8b 45 bc	 mov	 eax, DWORD PTR _dstLine$[ebp]
  002a1	8d 0c 50	 lea	 ecx, DWORD PTR [eax+edx*2]
  002a4	89 4d bc	 mov	 DWORD PTR _dstLine$[ebp], ecx
$LN10@convert_yu:
  002a7	8b 95 60 ff ff
	ff		 mov	 edx, DWORD PTR _y$16[ebp]
  002ad	3b 55 dc	 cmp	 edx, DWORD PTR _y_range$[ebp+8]
  002b0	0f 8d 82 01 00
	00		 jge	 $LN1@convert_yu

; 1185 :         const int x_fin = width - crop_right;

  002b6	8b 43 10	 mov	 eax, DWORD PTR _width$[ebx]
  002b9	2b 45 f0	 sub	 eax, DWORD PTR _crop_right$[ebp]
  002bc	89 85 5c ff ff
	ff		 mov	 DWORD PTR _x_fin$15[ebp], eax

; 1186 :         uint16_t *src_u_ptr = srcULine;

  002c2	8b 8d 68 ff ff
	ff		 mov	 ecx, DWORD PTR _srcULine$[ebp]
  002c8	89 8d 58 ff ff
	ff		 mov	 DWORD PTR _src_u_ptr$14[ebp], ecx

; 1187 :         uint16_t *src_v_ptr = srcVLine;

  002ce	8b 95 64 ff ff
	ff		 mov	 edx, DWORD PTR _srcVLine$[ebp]
  002d4	89 95 54 ff ff
	ff		 mov	 DWORD PTR _src_v_ptr$13[ebp], edx

; 1188 :         uint16_t *dst_ptr = dstLine;

  002da	8b 45 bc	 mov	 eax, DWORD PTR _dstLine$[ebp]
  002dd	89 85 50 ff ff
	ff		 mov	 DWORD PTR _dst_ptr$12[ebp], eax

; 1189 :         __m128i x0, x1, x2;
; 1190 :         for (int x = crop_left; x < x_fin; x += 16, src_u_ptr += 8, src_v_ptr += 8, dst_ptr += 16) {

  002e3	8b 4d f8	 mov	 ecx, DWORD PTR _crop_left$[ebp]
  002e6	89 8d 1c ff ff
	ff		 mov	 DWORD PTR _x$8[ebp], ecx
  002ec	eb 3c		 jmp	 SHORT $LN13@convert_yu
$LN11@convert_yu:
  002ee	8b 95 1c ff ff
	ff		 mov	 edx, DWORD PTR _x$8[ebp]
  002f4	83 c2 10	 add	 edx, 16			; 00000010H
  002f7	89 95 1c ff ff
	ff		 mov	 DWORD PTR _x$8[ebp], edx
  002fd	8b 85 58 ff ff
	ff		 mov	 eax, DWORD PTR _src_u_ptr$14[ebp]
  00303	83 c0 10	 add	 eax, 16			; 00000010H
  00306	89 85 58 ff ff
	ff		 mov	 DWORD PTR _src_u_ptr$14[ebp], eax
  0030c	8b 8d 54 ff ff
	ff		 mov	 ecx, DWORD PTR _src_v_ptr$13[ebp]
  00312	83 c1 10	 add	 ecx, 16			; 00000010H
  00315	89 8d 54 ff ff
	ff		 mov	 DWORD PTR _src_v_ptr$13[ebp], ecx
  0031b	8b 95 50 ff ff
	ff		 mov	 edx, DWORD PTR _dst_ptr$12[ebp]
  00321	83 c2 20	 add	 edx, 32			; 00000020H
  00324	89 95 50 ff ff
	ff		 mov	 DWORD PTR _dst_ptr$12[ebp], edx
$LN13@convert_yu:
  0032a	8b 85 1c ff ff
	ff		 mov	 eax, DWORD PTR _x$8[ebp]
  00330	3b 85 5c ff ff
	ff		 cmp	 eax, DWORD PTR _x_fin$15[ebp]
  00336	0f 8d f7 00 00
	00		 jge	 $LN12@convert_yu

; 1191 :             x0 = _mm_loadu_si128((const __m128i *)src_u_ptr);

  0033c	8b 8d 58 ff ff
	ff		 mov	 ecx, DWORD PTR _src_u_ptr$14[ebp]
  00342	0f 10 01	 movups	 xmm0, XMMWORD PTR [ecx]
  00345	0f 29 85 00 ff
	ff ff		 movaps	 XMMWORD PTR $T7[ebp], xmm0
  0034c	0f 28 85 00 ff
	ff ff		 movaps	 xmm0, XMMWORD PTR $T7[ebp]
  00353	0f 29 85 40 ff
	ff ff		 movaps	 XMMWORD PTR _x0$11[ebp], xmm0

; 1192 :             x1 = _mm_loadu_si128((const __m128i *)src_v_ptr);

  0035a	8b 95 54 ff ff
	ff		 mov	 edx, DWORD PTR _src_v_ptr$13[ebp]
  00360	0f 10 02	 movups	 xmm0, XMMWORD PTR [edx]
  00363	0f 29 85 f0 fe
	ff ff		 movaps	 XMMWORD PTR $T6[ebp], xmm0
  0036a	0f 28 85 f0 fe
	ff ff		 movaps	 xmm0, XMMWORD PTR $T6[ebp]
  00371	0f 29 85 30 ff
	ff ff		 movaps	 XMMWORD PTR _x1$10[ebp], xmm0

; 1193 : 
; 1194 :             if (in_bit_depth < 16) {

  00378	b8 01 00 00 00	 mov	 eax, 1
  0037d	85 c0		 test	 eax, eax
  0037f	74 42		 je	 SHORT $LN16@convert_yu

; 1195 :                 x0 = _mm_slli_epi16(x0, 16 - in_bit_depth);

  00381	0f 28 85 40 ff
	ff ff		 movaps	 xmm0, XMMWORD PTR _x0$11[ebp]
  00388	66 0f 71 f0 04	 psllw	 xmm0, 4
  0038d	0f 29 85 e0 fe
	ff ff		 movaps	 XMMWORD PTR $T5[ebp], xmm0
  00394	0f 28 85 e0 fe
	ff ff		 movaps	 xmm0, XMMWORD PTR $T5[ebp]
  0039b	0f 29 85 40 ff
	ff ff		 movaps	 XMMWORD PTR _x0$11[ebp], xmm0

; 1196 :                 x1 = _mm_slli_epi16(x1, 16 - in_bit_depth);

  003a2	0f 28 85 30 ff
	ff ff		 movaps	 xmm0, XMMWORD PTR _x1$10[ebp]
  003a9	66 0f 71 f0 04	 psllw	 xmm0, 4
  003ae	0f 29 85 d0 fe
	ff ff		 movaps	 XMMWORD PTR $T4[ebp], xmm0
  003b5	0f 28 85 d0 fe
	ff ff		 movaps	 xmm0, XMMWORD PTR $T4[ebp]
  003bc	0f 29 85 30 ff
	ff ff		 movaps	 XMMWORD PTR _x1$10[ebp], xmm0
$LN16@convert_yu:

; 1197 :             }
; 1198 : 
; 1199 :             x2 = _mm_unpackhi_epi16(x0, x1);

  003c3	0f 28 85 40 ff
	ff ff		 movaps	 xmm0, XMMWORD PTR _x0$11[ebp]
  003ca	66 0f 69 85 30
	ff ff ff	 punpckhwd xmm0, XMMWORD PTR _x1$10[ebp]
  003d2	0f 29 85 c0 fe
	ff ff		 movaps	 XMMWORD PTR $T3[ebp], xmm0
  003d9	0f 28 85 c0 fe
	ff ff		 movaps	 xmm0, XMMWORD PTR $T3[ebp]
  003e0	0f 29 85 20 ff
	ff ff		 movaps	 XMMWORD PTR _x2$9[ebp], xmm0

; 1200 :             x0 = _mm_unpacklo_epi16(x0, x1);

  003e7	0f 28 85 40 ff
	ff ff		 movaps	 xmm0, XMMWORD PTR _x0$11[ebp]
  003ee	66 0f 61 85 30
	ff ff ff	 punpcklwd xmm0, XMMWORD PTR _x1$10[ebp]
  003f6	0f 29 85 b0 fe
	ff ff		 movaps	 XMMWORD PTR $T2[ebp], xmm0
  003fd	0f 28 85 b0 fe
	ff ff		 movaps	 xmm0, XMMWORD PTR $T2[ebp]
  00404	0f 29 85 40 ff
	ff ff		 movaps	 XMMWORD PTR _x0$11[ebp], xmm0

; 1201 : 
; 1202 :             _mm_storeu_si128((__m128i *)(dst_ptr + 0), x0);

  0040b	0f 10 85 40 ff
	ff ff		 movups	 xmm0, XMMWORD PTR _x0$11[ebp]
  00412	8b 8d 50 ff ff
	ff		 mov	 ecx, DWORD PTR _dst_ptr$12[ebp]
  00418	0f 11 01	 movups	 XMMWORD PTR [ecx], xmm0

; 1203 :             _mm_storeu_si128((__m128i *)(dst_ptr + 8), x2);

  0041b	0f 10 85 20 ff
	ff ff		 movups	 xmm0, XMMWORD PTR _x2$9[ebp]
  00422	8b 95 50 ff ff
	ff		 mov	 edx, DWORD PTR _dst_ptr$12[ebp]
  00428	83 c2 10	 add	 edx, 16			; 00000010H
  0042b	0f 11 02	 movups	 XMMWORD PTR [edx], xmm0

; 1204 :         }

  0042e	e9 bb fe ff ff	 jmp	 $LN11@convert_yu
$LN12@convert_yu:

; 1205 :     }

  00433	e9 2a fe ff ff	 jmp	 $LN8@convert_yu
$LN1@convert_yu:

; 1206 : }

  00438	52		 push	 edx
  00439	8b cd		 mov	 ecx, ebp
  0043b	50		 push	 eax
  0043c	8d 15 00 00 00
	00		 lea	 edx, DWORD PTR $LN20@convert_yu
  00442	e8 00 00 00 00	 call	 @_RTC_CheckStackVars@8
  00447	58		 pop	 eax
  00448	5a		 pop	 edx
  00449	5f		 pop	 edi
  0044a	8b 4d fc	 mov	 ecx, DWORD PTR __$ArrayPad$[ebp]
  0044d	33 cd		 xor	 ecx, ebp
  0044f	e8 00 00 00 00	 call	 @__security_check_cookie@4
  00454	8b e5		 mov	 esp, ebp
  00456	5d		 pop	 ebp
  00457	8b e3		 mov	 esp, ebx
  00459	5b		 pop	 ebx
  0045a	c3		 ret	 0
  0045b	90		 npad	 1
$LN20@convert_yu:
  0045c	01 00 00 00	 DD	 1
  00460	00 00 00 00	 DD	 $LN19@convert_yu
$LN19@convert_yu:
  00464	d4 ff ff ff	 DD	 -44			; ffffffd4H
  00468	0c 00 00 00	 DD	 12			; 0000000cH
  0046c	00 00 00 00	 DD	 $LN18@convert_yu
$LN18@convert_yu:
  00470	79		 DB	 121			; 00000079H
  00471	5f		 DB	 95			; 0000005fH
  00472	72		 DB	 114			; 00000072H
  00473	61		 DB	 97			; 00000061H
  00474	6e		 DB	 110			; 0000006eH
  00475	67		 DB	 103			; 00000067H
  00476	65		 DB	 101			; 00000065H
  00477	00		 DB	 0
??$convert_yuv422_high_to_p210_simd@$0M@@@YAXPAPAXPAPBXHHHHHHHHPAH@Z ENDP ; convert_yuv422_high_to_p210_simd<12>
_TEXT	ENDS
; Function compile flags: /Odtp /RTCsu
; File D:\work\intel\intel_codec\QSVPipeline\convert_csp_sse2.cpp
_TEXT	SEGMENT
_dst$ = 8						; size = 4
_src$ = 12						; size = 4
_width$ = 16						; size = 4
_src_y_pitch_byte$ = 20					; size = 4
_src_uv_pitch_byte$ = 24				; size = 4
_dst_y_pitch_byte$ = 28					; size = 4
_height$ = 32						; size = 4
_dst_height$ = 36					; size = 4
_thread_id$ = 40					; size = 4
_thread_n$ = 44						; size = 4
_crop$ = 48						; size = 4
?convert_yuv422_12_to_p210_sse2@@YAXPAPAXPAPBXHHHHHHHHPAH@Z PROC ; convert_yuv422_12_to_p210_sse2

; 229  : void convert_yuv422_12_to_p210_sse2(void **dst, const void **src, int width, int src_y_pitch_byte, int src_uv_pitch_byte, int dst_y_pitch_byte, int height, int dst_height, int thread_id, int thread_n, int *crop) {

  00000	55		 push	 ebp
  00001	8b ec		 mov	 ebp, esp

; 230  :     convert_yuv422_high_to_p210_simd<12>(dst, src, width, src_y_pitch_byte, src_uv_pitch_byte, dst_y_pitch_byte, height, dst_height, thread_id, thread_n, crop);

  00003	8b 45 30	 mov	 eax, DWORD PTR _crop$[ebp]
  00006	50		 push	 eax
  00007	8b 4d 2c	 mov	 ecx, DWORD PTR _thread_n$[ebp]
  0000a	51		 push	 ecx
  0000b	8b 55 28	 mov	 edx, DWORD PTR _thread_id$[ebp]
  0000e	52		 push	 edx
  0000f	8b 45 24	 mov	 eax, DWORD PTR _dst_height$[ebp]
  00012	50		 push	 eax
  00013	8b 4d 20	 mov	 ecx, DWORD PTR _height$[ebp]
  00016	51		 push	 ecx
  00017	8b 55 1c	 mov	 edx, DWORD PTR _dst_y_pitch_byte$[ebp]
  0001a	52		 push	 edx
  0001b	8b 45 18	 mov	 eax, DWORD PTR _src_uv_pitch_byte$[ebp]
  0001e	50		 push	 eax
  0001f	8b 4d 14	 mov	 ecx, DWORD PTR _src_y_pitch_byte$[ebp]
  00022	51		 push	 ecx
  00023	8b 55 10	 mov	 edx, DWORD PTR _width$[ebp]
  00026	52		 push	 edx
  00027	8b 45 0c	 mov	 eax, DWORD PTR _src$[ebp]
  0002a	50		 push	 eax
  0002b	8b 4d 08	 mov	 ecx, DWORD PTR _dst$[ebp]
  0002e	51		 push	 ecx
  0002f	e8 00 00 00 00	 call	 ??$convert_yuv422_high_to_p210_simd@$0M@@@YAXPAPAXPAPBXHHHHHHHHPAH@Z ; convert_yuv422_high_to_p210_simd<12>
  00034	83 c4 2c	 add	 esp, 44			; 0000002cH

; 231  : }

  00037	3b ec		 cmp	 ebp, esp
  00039	e8 00 00 00 00	 call	 __RTC_CheckEsp
  0003e	5d		 pop	 ebp
  0003f	c3		 ret	 0
?convert_yuv422_12_to_p210_sse2@@YAXPAPAXPAPBXHHHHHHHHPAH@Z ENDP ; convert_yuv422_12_to_p210_sse2
_TEXT	ENDS
; Function compile flags: /Odtp /RTCsu
; File D:\work\intel\intel_codec\QSVPipeline\convert_csp_simd.h
_TEXT	SEGMENT
$T1 = -352						; size = 12
$T2 = -336						; size = 16
$T3 = -320						; size = 16
$T4 = -304						; size = 16
$T5 = -288						; size = 16
$T6 = -272						; size = 16
$T7 = -256						; size = 16
_x$8 = -228						; size = 4
_x2$9 = -224						; size = 16
_x1$10 = -208						; size = 16
_x0$11 = -192						; size = 16
_dst_ptr$12 = -176					; size = 4
_src_v_ptr$13 = -172					; size = 4
_src_u_ptr$14 = -168					; size = 4
_x_fin$15 = -164					; size = 4
_y$16 = -160						; size = 4
_srcVLine$ = -156					; size = 4
_srcULine$ = -152					; size = 4
_src_uv_pitch$ = -148					; size = 4
$T17 = -144						; size = 16
$T18 = -128						; size = 16
_x0$19 = -112						; size = 16
_x$20 = -88						; size = 4
_dst_ptr$21 = -84					; size = 4
_src_ptr$22 = -80					; size = 4
_y$23 = -76						; size = 4
_y_width$ = -72						; size = 4
_dstLine$ = -68						; size = 4
_srcYLine$ = -64					; size = 4
$T24 = -60						; size = 12
_y_range$ = -44						; size = 12
_dst_y_pitch$ = -28					; size = 4
_src_y_pitch$ = -24					; size = 4
_crop_bottom$ = -20					; size = 4
_crop_right$ = -16					; size = 4
_crop_up$ = -12						; size = 4
_crop_left$ = -8					; size = 4
__$ArrayPad$ = -4					; size = 4
_dst$ = 8						; size = 4
_src$ = 12						; size = 4
_width$ = 16						; size = 4
_src_y_pitch_byte$ = 20					; size = 4
_src_uv_pitch_byte$ = 24				; size = 4
_dst_y_pitch_byte$ = 28					; size = 4
_height$ = 32						; size = 4
_dst_height$ = 36					; size = 4
_thread_id$ = 40					; size = 4
_thread_n$ = 44						; size = 4
_crop$ = 48						; size = 4
??$convert_yuv422_high_to_p210_simd@$09@@YAXPAPAXPAPBXHHHHHHHHPAH@Z PROC ; convert_yuv422_high_to_p210_simd<10>

; 1153 : static void __forceinline convert_yuv422_high_to_p210_simd(void **dst, const void **src, int width, int src_y_pitch_byte, int src_uv_pitch_byte, int dst_y_pitch_byte, int height, int dst_height, int thread_id, int thread_n, int *crop) {

  00000	53		 push	 ebx
  00001	8b dc		 mov	 ebx, esp
  00003	83 ec 08	 sub	 esp, 8
  00006	83 e4 f0	 and	 esp, -16		; fffffff0H
  00009	83 c4 04	 add	 esp, 4
  0000c	55		 push	 ebp
  0000d	8b 6b 04	 mov	 ebp, DWORD PTR [ebx+4]
  00010	89 6c 24 04	 mov	 DWORD PTR [esp+4], ebp
  00014	8b ec		 mov	 ebp, esp
  00016	81 ec 60 01 00
	00		 sub	 esp, 352		; 00000160H
  0001c	57		 push	 edi
  0001d	8d bd a0 fe ff
	ff		 lea	 edi, DWORD PTR [ebp-352]
  00023	b9 58 00 00 00	 mov	 ecx, 88			; 00000058H
  00028	b8 cc cc cc cc	 mov	 eax, -858993460		; ccccccccH
  0002d	f3 ab		 rep stosd
  0002f	a1 00 00 00 00	 mov	 eax, DWORD PTR ___security_cookie
  00034	33 c5		 xor	 eax, ebp
  00036	89 45 fc	 mov	 DWORD PTR __$ArrayPad$[ebp], eax

; 1154 :     static_assert(8 < in_bit_depth && in_bit_depth <= 16, "in_bit_depth must be 9-16.");
; 1155 :     const int crop_left   = crop[0];

  00039	b8 04 00 00 00	 mov	 eax, 4
  0003e	6b c8 00	 imul	 ecx, eax, 0
  00041	8b 53 30	 mov	 edx, DWORD PTR _crop$[ebx]
  00044	8b 04 0a	 mov	 eax, DWORD PTR [edx+ecx]
  00047	89 45 f8	 mov	 DWORD PTR _crop_left$[ebp], eax

; 1156 :     const int crop_up     = crop[1];

  0004a	b9 04 00 00 00	 mov	 ecx, 4
  0004f	c1 e1 00	 shl	 ecx, 0
  00052	8b 53 30	 mov	 edx, DWORD PTR _crop$[ebx]
  00055	8b 04 0a	 mov	 eax, DWORD PTR [edx+ecx]
  00058	89 45 f4	 mov	 DWORD PTR _crop_up$[ebp], eax

; 1157 :     const int crop_right  = crop[2];

  0005b	b9 04 00 00 00	 mov	 ecx, 4
  00060	d1 e1		 shl	 ecx, 1
  00062	8b 53 30	 mov	 edx, DWORD PTR _crop$[ebx]
  00065	8b 04 0a	 mov	 eax, DWORD PTR [edx+ecx]
  00068	89 45 f0	 mov	 DWORD PTR _crop_right$[ebp], eax

; 1158 :     const int crop_bottom = crop[3];

  0006b	b9 04 00 00 00	 mov	 ecx, 4
  00070	6b d1 03	 imul	 edx, ecx, 3
  00073	8b 43 30	 mov	 eax, DWORD PTR _crop$[ebx]
  00076	8b 0c 10	 mov	 ecx, DWORD PTR [eax+edx]
  00079	89 4d ec	 mov	 DWORD PTR _crop_bottom$[ebp], ecx

; 1159 :     const int src_y_pitch = src_y_pitch_byte >> 1;

  0007c	8b 53 14	 mov	 edx, DWORD PTR _src_y_pitch_byte$[ebx]
  0007f	d1 fa		 sar	 edx, 1
  00081	89 55 e8	 mov	 DWORD PTR _src_y_pitch$[ebp], edx

; 1160 :     const int dst_y_pitch = dst_y_pitch_byte >> 1;

  00084	8b 43 1c	 mov	 eax, DWORD PTR _dst_y_pitch_byte$[ebx]
  00087	d1 f8		 sar	 eax, 1
  00089	89 45 e4	 mov	 DWORD PTR _dst_y_pitch$[ebp], eax

; 1161 :     //Y成分のコピー
; 1162 :     const auto y_range = thread_y_range(crop_up, height - crop_bottom, thread_id, thread_n);

  0008c	8b 4b 2c	 mov	 ecx, DWORD PTR _thread_n$[ebx]
  0008f	51		 push	 ecx
  00090	8b 53 28	 mov	 edx, DWORD PTR _thread_id$[ebx]
  00093	52		 push	 edx
  00094	8b 43 20	 mov	 eax, DWORD PTR _height$[ebx]
  00097	2b 45 ec	 sub	 eax, DWORD PTR _crop_bottom$[ebp]
  0009a	50		 push	 eax
  0009b	8b 4d f4	 mov	 ecx, DWORD PTR _crop_up$[ebp]
  0009e	51		 push	 ecx
  0009f	8d 95 a0 fe ff
	ff		 lea	 edx, DWORD PTR $T1[ebp]
  000a5	52		 push	 edx
  000a6	e8 00 00 00 00	 call	 ?thread_y_range@@YA?AUTHREAD_Y_RANGE@@HHHH@Z ; thread_y_range
  000ab	83 c4 14	 add	 esp, 20			; 00000014H
  000ae	8b 08		 mov	 ecx, DWORD PTR [eax]
  000b0	89 4d c4	 mov	 DWORD PTR $T24[ebp], ecx
  000b3	8b 50 04	 mov	 edx, DWORD PTR [eax+4]
  000b6	89 55 c8	 mov	 DWORD PTR $T24[ebp+4], edx
  000b9	8b 40 08	 mov	 eax, DWORD PTR [eax+8]
  000bc	89 45 cc	 mov	 DWORD PTR $T24[ebp+8], eax
  000bf	8b 4d c4	 mov	 ecx, DWORD PTR $T24[ebp]
  000c2	89 4d d4	 mov	 DWORD PTR _y_range$[ebp], ecx
  000c5	8b 55 c8	 mov	 edx, DWORD PTR $T24[ebp+4]
  000c8	89 55 d8	 mov	 DWORD PTR _y_range$[ebp+4], edx
  000cb	8b 45 cc	 mov	 eax, DWORD PTR $T24[ebp+8]
  000ce	89 45 dc	 mov	 DWORD PTR _y_range$[ebp+8], eax

; 1163 :     uint16_t *srcYLine = (uint16_t *)src[0] + src_y_pitch * y_range.start_src + crop_left;

  000d1	b9 04 00 00 00	 mov	 ecx, 4
  000d6	6b d1 00	 imul	 edx, ecx, 0
  000d9	8b 45 e8	 mov	 eax, DWORD PTR _src_y_pitch$[ebp]
  000dc	0f af 45 d4	 imul	 eax, DWORD PTR _y_range$[ebp]
  000e0	8b 4b 0c	 mov	 ecx, DWORD PTR _src$[ebx]
  000e3	8b 14 11	 mov	 edx, DWORD PTR [ecx+edx]
  000e6	8d 04 42	 lea	 eax, DWORD PTR [edx+eax*2]
  000e9	8b 4d f8	 mov	 ecx, DWORD PTR _crop_left$[ebp]
  000ec	8d 14 48	 lea	 edx, DWORD PTR [eax+ecx*2]
  000ef	89 55 c0	 mov	 DWORD PTR _srcYLine$[ebp], edx

; 1164 :     uint16_t *dstLine = (uint16_t *)dst[0] + dst_y_pitch * y_range.start_dst;

  000f2	b8 04 00 00 00	 mov	 eax, 4
  000f7	6b c8 00	 imul	 ecx, eax, 0
  000fa	8b 55 e4	 mov	 edx, DWORD PTR _dst_y_pitch$[ebp]
  000fd	0f af 55 d8	 imul	 edx, DWORD PTR _y_range$[ebp+4]
  00101	8b 43 08	 mov	 eax, DWORD PTR _dst$[ebx]
  00104	8b 0c 08	 mov	 ecx, DWORD PTR [eax+ecx]
  00107	8d 14 51	 lea	 edx, DWORD PTR [ecx+edx*2]
  0010a	89 55 bc	 mov	 DWORD PTR _dstLine$[ebp], edx

; 1165 :     const int y_width = width - crop_right - crop_left;

  0010d	8b 43 10	 mov	 eax, DWORD PTR _width$[ebx]
  00110	2b 45 f0	 sub	 eax, DWORD PTR _crop_right$[ebp]
  00113	2b 45 f8	 sub	 eax, DWORD PTR _crop_left$[ebp]
  00116	89 45 b8	 mov	 DWORD PTR _y_width$[ebp], eax

; 1166 :     for (int y = 0; y < y_range.len; y++, srcYLine += src_y_pitch, dstLine += dst_y_pitch) {

  00119	c7 45 b4 00 00
	00 00		 mov	 DWORD PTR _y$23[ebp], 0
  00120	eb 21		 jmp	 SHORT $LN4@convert_yu
$LN2@convert_yu:
  00122	8b 4d b4	 mov	 ecx, DWORD PTR _y$23[ebp]
  00125	83 c1 01	 add	 ecx, 1
  00128	89 4d b4	 mov	 DWORD PTR _y$23[ebp], ecx
  0012b	8b 55 e8	 mov	 edx, DWORD PTR _src_y_pitch$[ebp]
  0012e	8b 45 c0	 mov	 eax, DWORD PTR _srcYLine$[ebp]
  00131	8d 0c 50	 lea	 ecx, DWORD PTR [eax+edx*2]
  00134	89 4d c0	 mov	 DWORD PTR _srcYLine$[ebp], ecx
  00137	8b 55 e4	 mov	 edx, DWORD PTR _dst_y_pitch$[ebp]
  0013a	8b 45 bc	 mov	 eax, DWORD PTR _dstLine$[ebp]
  0013d	8d 0c 50	 lea	 ecx, DWORD PTR [eax+edx*2]
  00140	89 4d bc	 mov	 DWORD PTR _dstLine$[ebp], ecx
$LN4@convert_yu:
  00143	8b 55 b4	 mov	 edx, DWORD PTR _y$23[ebp]
  00146	3b 55 dc	 cmp	 edx, DWORD PTR _y_range$[ebp+8]
  00149	0f 8d 92 00 00
	00		 jge	 $LN3@convert_yu

; 1167 :         if (in_bit_depth == 16) {

  0014f	33 c0		 xor	 eax, eax
  00151	74 18		 je	 SHORT $LN14@convert_yu

; 1168 :             memcpy_sse((uint8_t *)dstLine, (uint8_t *)srcYLine, y_width * sizeof(uint16_t));

  00153	8b 4d b8	 mov	 ecx, DWORD PTR _y_width$[ebp]
  00156	d1 e1		 shl	 ecx, 1
  00158	51		 push	 ecx
  00159	8b 55 c0	 mov	 edx, DWORD PTR _srcYLine$[ebp]
  0015c	52		 push	 edx
  0015d	8b 45 bc	 mov	 eax, DWORD PTR _dstLine$[ebp]
  00160	50		 push	 eax
  00161	e8 00 00 00 00	 call	 ?memcpy_sse@@YAXPAEPBEH@Z ; memcpy_sse
  00166	83 c4 0c	 add	 esp, 12			; 0000000cH

; 1169 :         } else {

  00169	eb 71		 jmp	 SHORT $LN15@convert_yu
$LN14@convert_yu:

; 1170 :             uint16_t *src_ptr = srcYLine;

  0016b	8b 4d c0	 mov	 ecx, DWORD PTR _srcYLine$[ebp]
  0016e	89 4d b0	 mov	 DWORD PTR _src_ptr$22[ebp], ecx

; 1171 :             uint16_t *dst_ptr = dstLine;

  00171	8b 55 bc	 mov	 edx, DWORD PTR _dstLine$[ebp]
  00174	89 55 ac	 mov	 DWORD PTR _dst_ptr$21[ebp], edx

; 1172 :             for (int x = 0; x < y_width; x += 8, dst_ptr += 8, src_ptr += 8) {

  00177	c7 45 a8 00 00
	00 00		 mov	 DWORD PTR _x$20[ebp], 0
  0017e	eb 1b		 jmp	 SHORT $LN7@convert_yu
$LN5@convert_yu:
  00180	8b 45 a8	 mov	 eax, DWORD PTR _x$20[ebp]
  00183	83 c0 08	 add	 eax, 8
  00186	89 45 a8	 mov	 DWORD PTR _x$20[ebp], eax
  00189	8b 4d ac	 mov	 ecx, DWORD PTR _dst_ptr$21[ebp]
  0018c	83 c1 10	 add	 ecx, 16			; 00000010H
  0018f	89 4d ac	 mov	 DWORD PTR _dst_ptr$21[ebp], ecx
  00192	8b 55 b0	 mov	 edx, DWORD PTR _src_ptr$22[ebp]
  00195	83 c2 10	 add	 edx, 16			; 00000010H
  00198	89 55 b0	 mov	 DWORD PTR _src_ptr$22[ebp], edx
$LN7@convert_yu:
  0019b	8b 45 a8	 mov	 eax, DWORD PTR _x$20[ebp]
  0019e	3b 45 b8	 cmp	 eax, DWORD PTR _y_width$[ebp]
  001a1	7d 39		 jge	 SHORT $LN15@convert_yu

; 1173 :                 __m128i x0 = _mm_loadu_si128((const __m128i *)src_ptr);

  001a3	8b 4d b0	 mov	 ecx, DWORD PTR _src_ptr$22[ebp]
  001a6	0f 10 01	 movups	 xmm0, XMMWORD PTR [ecx]
  001a9	0f 29 45 80	 movaps	 XMMWORD PTR $T18[ebp], xmm0
  001ad	0f 28 45 80	 movaps	 xmm0, XMMWORD PTR $T18[ebp]
  001b1	0f 29 45 90	 movaps	 XMMWORD PTR _x0$19[ebp], xmm0

; 1174 :                 x0 = _mm_slli_epi16(x0, 16 - in_bit_depth);

  001b5	0f 28 45 90	 movaps	 xmm0, XMMWORD PTR _x0$19[ebp]
  001b9	66 0f 71 f0 06	 psllw	 xmm0, 6
  001be	0f 29 85 70 ff
	ff ff		 movaps	 XMMWORD PTR $T17[ebp], xmm0
  001c5	0f 28 85 70 ff
	ff ff		 movaps	 xmm0, XMMWORD PTR $T17[ebp]
  001cc	0f 29 45 90	 movaps	 XMMWORD PTR _x0$19[ebp], xmm0

; 1175 :                 _mm_storeu_si128((__m128i *)dst_ptr, x0);

  001d0	0f 10 45 90	 movups	 xmm0, XMMWORD PTR _x0$19[ebp]
  001d4	8b 55 ac	 mov	 edx, DWORD PTR _dst_ptr$21[ebp]
  001d7	0f 11 02	 movups	 XMMWORD PTR [edx], xmm0

; 1176 :             }

  001da	eb a4		 jmp	 SHORT $LN5@convert_yu
$LN15@convert_yu:

; 1177 :         }
; 1178 :     }

  001dc	e9 41 ff ff ff	 jmp	 $LN2@convert_yu
$LN3@convert_yu:

; 1179 :     //UV成分のコピー
; 1180 :     const int src_uv_pitch = src_uv_pitch_byte >> 1;

  001e1	8b 43 18	 mov	 eax, DWORD PTR _src_uv_pitch_byte$[ebx]
  001e4	d1 f8		 sar	 eax, 1
  001e6	89 85 6c ff ff
	ff		 mov	 DWORD PTR _src_uv_pitch$[ebp], eax

; 1181 :     uint16_t *srcULine = (uint16_t *)src[1] + ((src_uv_pitch * y_range.start_src) + (crop_left >> 1));

  001ec	b9 04 00 00 00	 mov	 ecx, 4
  001f1	c1 e1 00	 shl	 ecx, 0
  001f4	8b 95 6c ff ff
	ff		 mov	 edx, DWORD PTR _src_uv_pitch$[ebp]
  001fa	0f af 55 d4	 imul	 edx, DWORD PTR _y_range$[ebp]
  001fe	8b 45 f8	 mov	 eax, DWORD PTR _crop_left$[ebp]
  00201	d1 f8		 sar	 eax, 1
  00203	03 d0		 add	 edx, eax
  00205	8b 43 0c	 mov	 eax, DWORD PTR _src$[ebx]
  00208	8b 0c 08	 mov	 ecx, DWORD PTR [eax+ecx]
  0020b	8d 14 51	 lea	 edx, DWORD PTR [ecx+edx*2]
  0020e	89 95 68 ff ff
	ff		 mov	 DWORD PTR _srcULine$[ebp], edx

; 1182 :     uint16_t *srcVLine = (uint16_t *)src[2] + ((src_uv_pitch * y_range.start_src) + (crop_left >> 1));

  00214	b8 04 00 00 00	 mov	 eax, 4
  00219	d1 e0		 shl	 eax, 1
  0021b	8b 8d 6c ff ff
	ff		 mov	 ecx, DWORD PTR _src_uv_pitch$[ebp]
  00221	0f af 4d d4	 imul	 ecx, DWORD PTR _y_range$[ebp]
  00225	8b 55 f8	 mov	 edx, DWORD PTR _crop_left$[ebp]
  00228	d1 fa		 sar	 edx, 1
  0022a	03 ca		 add	 ecx, edx
  0022c	8b 53 0c	 mov	 edx, DWORD PTR _src$[ebx]
  0022f	8b 04 02	 mov	 eax, DWORD PTR [edx+eax]
  00232	8d 0c 48	 lea	 ecx, DWORD PTR [eax+ecx*2]
  00235	89 8d 64 ff ff
	ff		 mov	 DWORD PTR _srcVLine$[ebp], ecx

; 1183 :     dstLine = (uint16_t *)dst[1] + dst_y_pitch * y_range.start_dst;

  0023b	ba 04 00 00 00	 mov	 edx, 4
  00240	c1 e2 00	 shl	 edx, 0
  00243	8b 45 e4	 mov	 eax, DWORD PTR _dst_y_pitch$[ebp]
  00246	0f af 45 d8	 imul	 eax, DWORD PTR _y_range$[ebp+4]
  0024a	8b 4b 08	 mov	 ecx, DWORD PTR _dst$[ebx]
  0024d	8b 14 11	 mov	 edx, DWORD PTR [ecx+edx]
  00250	8d 04 42	 lea	 eax, DWORD PTR [edx+eax*2]
  00253	89 45 bc	 mov	 DWORD PTR _dstLine$[ebp], eax

; 1184 :     for (int y = 0; y < y_range.len; y++, srcULine += src_uv_pitch, srcVLine += src_uv_pitch, dstLine += dst_y_pitch) {

  00256	c7 85 60 ff ff
	ff 00 00 00 00	 mov	 DWORD PTR _y$16[ebp], 0
  00260	eb 45		 jmp	 SHORT $LN10@convert_yu
$LN8@convert_yu:
  00262	8b 8d 60 ff ff
	ff		 mov	 ecx, DWORD PTR _y$16[ebp]
  00268	83 c1 01	 add	 ecx, 1
  0026b	89 8d 60 ff ff
	ff		 mov	 DWORD PTR _y$16[ebp], ecx
  00271	8b 95 6c ff ff
	ff		 mov	 edx, DWORD PTR _src_uv_pitch$[ebp]
  00277	8b 85 68 ff ff
	ff		 mov	 eax, DWORD PTR _srcULine$[ebp]
  0027d	8d 0c 50	 lea	 ecx, DWORD PTR [eax+edx*2]
  00280	89 8d 68 ff ff
	ff		 mov	 DWORD PTR _srcULine$[ebp], ecx
  00286	8b 95 6c ff ff
	ff		 mov	 edx, DWORD PTR _src_uv_pitch$[ebp]
  0028c	8b 85 64 ff ff
	ff		 mov	 eax, DWORD PTR _srcVLine$[ebp]
  00292	8d 0c 50	 lea	 ecx, DWORD PTR [eax+edx*2]
  00295	89 8d 64 ff ff
	ff		 mov	 DWORD PTR _srcVLine$[ebp], ecx
  0029b	8b 55 e4	 mov	 edx, DWORD PTR _dst_y_pitch$[ebp]
  0029e	8b 45 bc	 mov	 eax, DWORD PTR _dstLine$[ebp]
  002a1	8d 0c 50	 lea	 ecx, DWORD PTR [eax+edx*2]
  002a4	89 4d bc	 mov	 DWORD PTR _dstLine$[ebp], ecx
$LN10@convert_yu:
  002a7	8b 95 60 ff ff
	ff		 mov	 edx, DWORD PTR _y$16[ebp]
  002ad	3b 55 dc	 cmp	 edx, DWORD PTR _y_range$[ebp+8]
  002b0	0f 8d 82 01 00
	00		 jge	 $LN1@convert_yu

; 1185 :         const int x_fin = width - crop_right;

  002b6	8b 43 10	 mov	 eax, DWORD PTR _width$[ebx]
  002b9	2b 45 f0	 sub	 eax, DWORD PTR _crop_right$[ebp]
  002bc	89 85 5c ff ff
	ff		 mov	 DWORD PTR _x_fin$15[ebp], eax

; 1186 :         uint16_t *src_u_ptr = srcULine;

  002c2	8b 8d 68 ff ff
	ff		 mov	 ecx, DWORD PTR _srcULine$[ebp]
  002c8	89 8d 58 ff ff
	ff		 mov	 DWORD PTR _src_u_ptr$14[ebp], ecx

; 1187 :         uint16_t *src_v_ptr = srcVLine;

  002ce	8b 95 64 ff ff
	ff		 mov	 edx, DWORD PTR _srcVLine$[ebp]
  002d4	89 95 54 ff ff
	ff		 mov	 DWORD PTR _src_v_ptr$13[ebp], edx

; 1188 :         uint16_t *dst_ptr = dstLine;

  002da	8b 45 bc	 mov	 eax, DWORD PTR _dstLine$[ebp]
  002dd	89 85 50 ff ff
	ff		 mov	 DWORD PTR _dst_ptr$12[ebp], eax

; 1189 :         __m128i x0, x1, x2;
; 1190 :         for (int x = crop_left; x < x_fin; x += 16, src_u_ptr += 8, src_v_ptr += 8, dst_ptr += 16) {

  002e3	8b 4d f8	 mov	 ecx, DWORD PTR _crop_left$[ebp]
  002e6	89 8d 1c ff ff
	ff		 mov	 DWORD PTR _x$8[ebp], ecx
  002ec	eb 3c		 jmp	 SHORT $LN13@convert_yu
$LN11@convert_yu:
  002ee	8b 95 1c ff ff
	ff		 mov	 edx, DWORD PTR _x$8[ebp]
  002f4	83 c2 10	 add	 edx, 16			; 00000010H
  002f7	89 95 1c ff ff
	ff		 mov	 DWORD PTR _x$8[ebp], edx
  002fd	8b 85 58 ff ff
	ff		 mov	 eax, DWORD PTR _src_u_ptr$14[ebp]
  00303	83 c0 10	 add	 eax, 16			; 00000010H
  00306	89 85 58 ff ff
	ff		 mov	 DWORD PTR _src_u_ptr$14[ebp], eax
  0030c	8b 8d 54 ff ff
	ff		 mov	 ecx, DWORD PTR _src_v_ptr$13[ebp]
  00312	83 c1 10	 add	 ecx, 16			; 00000010H
  00315	89 8d 54 ff ff
	ff		 mov	 DWORD PTR _src_v_ptr$13[ebp], ecx
  0031b	8b 95 50 ff ff
	ff		 mov	 edx, DWORD PTR _dst_ptr$12[ebp]
  00321	83 c2 20	 add	 edx, 32			; 00000020H
  00324	89 95 50 ff ff
	ff		 mov	 DWORD PTR _dst_ptr$12[ebp], edx
$LN13@convert_yu:
  0032a	8b 85 1c ff ff
	ff		 mov	 eax, DWORD PTR _x$8[ebp]
  00330	3b 85 5c ff ff
	ff		 cmp	 eax, DWORD PTR _x_fin$15[ebp]
  00336	0f 8d f7 00 00
	00		 jge	 $LN12@convert_yu

; 1191 :             x0 = _mm_loadu_si128((const __m128i *)src_u_ptr);

  0033c	8b 8d 58 ff ff
	ff		 mov	 ecx, DWORD PTR _src_u_ptr$14[ebp]
  00342	0f 10 01	 movups	 xmm0, XMMWORD PTR [ecx]
  00345	0f 29 85 00 ff
	ff ff		 movaps	 XMMWORD PTR $T7[ebp], xmm0
  0034c	0f 28 85 00 ff
	ff ff		 movaps	 xmm0, XMMWORD PTR $T7[ebp]
  00353	0f 29 85 40 ff
	ff ff		 movaps	 XMMWORD PTR _x0$11[ebp], xmm0

; 1192 :             x1 = _mm_loadu_si128((const __m128i *)src_v_ptr);

  0035a	8b 95 54 ff ff
	ff		 mov	 edx, DWORD PTR _src_v_ptr$13[ebp]
  00360	0f 10 02	 movups	 xmm0, XMMWORD PTR [edx]
  00363	0f 29 85 f0 fe
	ff ff		 movaps	 XMMWORD PTR $T6[ebp], xmm0
  0036a	0f 28 85 f0 fe
	ff ff		 movaps	 xmm0, XMMWORD PTR $T6[ebp]
  00371	0f 29 85 30 ff
	ff ff		 movaps	 XMMWORD PTR _x1$10[ebp], xmm0

; 1193 : 
; 1194 :             if (in_bit_depth < 16) {

  00378	b8 01 00 00 00	 mov	 eax, 1
  0037d	85 c0		 test	 eax, eax
  0037f	74 42		 je	 SHORT $LN16@convert_yu

; 1195 :                 x0 = _mm_slli_epi16(x0, 16 - in_bit_depth);

  00381	0f 28 85 40 ff
	ff ff		 movaps	 xmm0, XMMWORD PTR _x0$11[ebp]
  00388	66 0f 71 f0 06	 psllw	 xmm0, 6
  0038d	0f 29 85 e0 fe
	ff ff		 movaps	 XMMWORD PTR $T5[ebp], xmm0
  00394	0f 28 85 e0 fe
	ff ff		 movaps	 xmm0, XMMWORD PTR $T5[ebp]
  0039b	0f 29 85 40 ff
	ff ff		 movaps	 XMMWORD PTR _x0$11[ebp], xmm0

; 1196 :                 x1 = _mm_slli_epi16(x1, 16 - in_bit_depth);

  003a2	0f 28 85 30 ff
	ff ff		 movaps	 xmm0, XMMWORD PTR _x1$10[ebp]
  003a9	66 0f 71 f0 06	 psllw	 xmm0, 6
  003ae	0f 29 85 d0 fe
	ff ff		 movaps	 XMMWORD PTR $T4[ebp], xmm0
  003b5	0f 28 85 d0 fe
	ff ff		 movaps	 xmm0, XMMWORD PTR $T4[ebp]
  003bc	0f 29 85 30 ff
	ff ff		 movaps	 XMMWORD PTR _x1$10[ebp], xmm0
$LN16@convert_yu:

; 1197 :             }
; 1198 : 
; 1199 :             x2 = _mm_unpackhi_epi16(x0, x1);

  003c3	0f 28 85 40 ff
	ff ff		 movaps	 xmm0, XMMWORD PTR _x0$11[ebp]
  003ca	66 0f 69 85 30
	ff ff ff	 punpckhwd xmm0, XMMWORD PTR _x1$10[ebp]
  003d2	0f 29 85 c0 fe
	ff ff		 movaps	 XMMWORD PTR $T3[ebp], xmm0
  003d9	0f 28 85 c0 fe
	ff ff		 movaps	 xmm0, XMMWORD PTR $T3[ebp]
  003e0	0f 29 85 20 ff
	ff ff		 movaps	 XMMWORD PTR _x2$9[ebp], xmm0

; 1200 :             x0 = _mm_unpacklo_epi16(x0, x1);

  003e7	0f 28 85 40 ff
	ff ff		 movaps	 xmm0, XMMWORD PTR _x0$11[ebp]
  003ee	66 0f 61 85 30
	ff ff ff	 punpcklwd xmm0, XMMWORD PTR _x1$10[ebp]
  003f6	0f 29 85 b0 fe
	ff ff		 movaps	 XMMWORD PTR $T2[ebp], xmm0
  003fd	0f 28 85 b0 fe
	ff ff		 movaps	 xmm0, XMMWORD PTR $T2[ebp]
  00404	0f 29 85 40 ff
	ff ff		 movaps	 XMMWORD PTR _x0$11[ebp], xmm0

; 1201 : 
; 1202 :             _mm_storeu_si128((__m128i *)(dst_ptr + 0), x0);

  0040b	0f 10 85 40 ff
	ff ff		 movups	 xmm0, XMMWORD PTR _x0$11[ebp]
  00412	8b 8d 50 ff ff
	ff		 mov	 ecx, DWORD PTR _dst_ptr$12[ebp]
  00418	0f 11 01	 movups	 XMMWORD PTR [ecx], xmm0

; 1203 :             _mm_storeu_si128((__m128i *)(dst_ptr + 8), x2);

  0041b	0f 10 85 20 ff
	ff ff		 movups	 xmm0, XMMWORD PTR _x2$9[ebp]
  00422	8b 95 50 ff ff
	ff		 mov	 edx, DWORD PTR _dst_ptr$12[ebp]
  00428	83 c2 10	 add	 edx, 16			; 00000010H
  0042b	0f 11 02	 movups	 XMMWORD PTR [edx], xmm0

; 1204 :         }

  0042e	e9 bb fe ff ff	 jmp	 $LN11@convert_yu
$LN12@convert_yu:

; 1205 :     }

  00433	e9 2a fe ff ff	 jmp	 $LN8@convert_yu
$LN1@convert_yu:

; 1206 : }

  00438	52		 push	 edx
  00439	8b cd		 mov	 ecx, ebp
  0043b	50		 push	 eax
  0043c	8d 15 00 00 00
	00		 lea	 edx, DWORD PTR $LN20@convert_yu
  00442	e8 00 00 00 00	 call	 @_RTC_CheckStackVars@8
  00447	58		 pop	 eax
  00448	5a		 pop	 edx
  00449	5f		 pop	 edi
  0044a	8b 4d fc	 mov	 ecx, DWORD PTR __$ArrayPad$[ebp]
  0044d	33 cd		 xor	 ecx, ebp
  0044f	e8 00 00 00 00	 call	 @__security_check_cookie@4
  00454	8b e5		 mov	 esp, ebp
  00456	5d		 pop	 ebp
  00457	8b e3		 mov	 esp, ebx
  00459	5b		 pop	 ebx
  0045a	c3		 ret	 0
  0045b	90		 npad	 1
$LN20@convert_yu:
  0045c	01 00 00 00	 DD	 1
  00460	00 00 00 00	 DD	 $LN19@convert_yu
$LN19@convert_yu:
  00464	d4 ff ff ff	 DD	 -44			; ffffffd4H
  00468	0c 00 00 00	 DD	 12			; 0000000cH
  0046c	00 00 00 00	 DD	 $LN18@convert_yu
$LN18@convert_yu:
  00470	79		 DB	 121			; 00000079H
  00471	5f		 DB	 95			; 0000005fH
  00472	72		 DB	 114			; 00000072H
  00473	61		 DB	 97			; 00000061H
  00474	6e		 DB	 110			; 0000006eH
  00475	67		 DB	 103			; 00000067H
  00476	65		 DB	 101			; 00000065H
  00477	00		 DB	 0
??$convert_yuv422_high_to_p210_simd@$09@@YAXPAPAXPAPBXHHHHHHHHPAH@Z ENDP ; convert_yuv422_high_to_p210_simd<10>
_TEXT	ENDS
; Function compile flags: /Odtp /RTCsu
; File D:\work\intel\intel_codec\QSVPipeline\convert_csp_sse2.cpp
_TEXT	SEGMENT
_dst$ = 8						; size = 4
_src$ = 12						; size = 4
_width$ = 16						; size = 4
_src_y_pitch_byte$ = 20					; size = 4
_src_uv_pitch_byte$ = 24				; size = 4
_dst_y_pitch_byte$ = 28					; size = 4
_height$ = 32						; size = 4
_dst_height$ = 36					; size = 4
_thread_id$ = 40					; size = 4
_thread_n$ = 44						; size = 4
_crop$ = 48						; size = 4
?convert_yuv422_10_to_p210_sse2@@YAXPAPAXPAPBXHHHHHHHHPAH@Z PROC ; convert_yuv422_10_to_p210_sse2

; 225  : void convert_yuv422_10_to_p210_sse2(void **dst, const void **src, int width, int src_y_pitch_byte, int src_uv_pitch_byte, int dst_y_pitch_byte, int height, int dst_height, int thread_id, int thread_n, int *crop) {

  00000	55		 push	 ebp
  00001	8b ec		 mov	 ebp, esp

; 226  :     convert_yuv422_high_to_p210_simd<10>(dst, src, width, src_y_pitch_byte, src_uv_pitch_byte, dst_y_pitch_byte, height, dst_height, thread_id, thread_n, crop);

  00003	8b 45 30	 mov	 eax, DWORD PTR _crop$[ebp]
  00006	50		 push	 eax
  00007	8b 4d 2c	 mov	 ecx, DWORD PTR _thread_n$[ebp]
  0000a	51		 push	 ecx
  0000b	8b 55 28	 mov	 edx, DWORD PTR _thread_id$[ebp]
  0000e	52		 push	 edx
  0000f	8b 45 24	 mov	 eax, DWORD PTR _dst_height$[ebp]
  00012	50		 push	 eax
  00013	8b 4d 20	 mov	 ecx, DWORD PTR _height$[ebp]
  00016	51		 push	 ecx
  00017	8b 55 1c	 mov	 edx, DWORD PTR _dst_y_pitch_byte$[ebp]
  0001a	52		 push	 edx
  0001b	8b 45 18	 mov	 eax, DWORD PTR _src_uv_pitch_byte$[ebp]
  0001e	50		 push	 eax
  0001f	8b 4d 14	 mov	 ecx, DWORD PTR _src_y_pitch_byte$[ebp]
  00022	51		 push	 ecx
  00023	8b 55 10	 mov	 edx, DWORD PTR _width$[ebp]
  00026	52		 push	 edx
  00027	8b 45 0c	 mov	 eax, DWORD PTR _src$[ebp]
  0002a	50		 push	 eax
  0002b	8b 4d 08	 mov	 ecx, DWORD PTR _dst$[ebp]
  0002e	51		 push	 ecx
  0002f	e8 00 00 00 00	 call	 ??$convert_yuv422_high_to_p210_simd@$09@@YAXPAPAXPAPBXHHHHHHHHPAH@Z ; convert_yuv422_high_to_p210_simd<10>
  00034	83 c4 2c	 add	 esp, 44			; 0000002cH

; 227  : }

  00037	3b ec		 cmp	 ebp, esp
  00039	e8 00 00 00 00	 call	 __RTC_CheckEsp
  0003e	5d		 pop	 ebp
  0003f	c3		 ret	 0
?convert_yuv422_10_to_p210_sse2@@YAXPAPAXPAPBXHHHHHHHHPAH@Z ENDP ; convert_yuv422_10_to_p210_sse2
_TEXT	ENDS
; Function compile flags: /Odtp /RTCsu
; File D:\work\intel\intel_codec\QSVPipeline\convert_csp_simd.h
_TEXT	SEGMENT
$T1 = -352						; size = 12
$T2 = -336						; size = 16
$T3 = -320						; size = 16
$T4 = -304						; size = 16
$T5 = -288						; size = 16
$T6 = -272						; size = 16
$T7 = -256						; size = 16
_x$8 = -228						; size = 4
_x2$9 = -224						; size = 16
_x1$10 = -208						; size = 16
_x0$11 = -192						; size = 16
_dst_ptr$12 = -176					; size = 4
_src_v_ptr$13 = -172					; size = 4
_src_u_ptr$14 = -168					; size = 4
_x_fin$15 = -164					; size = 4
_y$16 = -160						; size = 4
_srcVLine$ = -156					; size = 4
_srcULine$ = -152					; size = 4
_src_uv_pitch$ = -148					; size = 4
$T17 = -144						; size = 16
$T18 = -128						; size = 16
_x0$19 = -112						; size = 16
_x$20 = -88						; size = 4
_dst_ptr$21 = -84					; size = 4
_src_ptr$22 = -80					; size = 4
_y$23 = -76						; size = 4
_y_width$ = -72						; size = 4
_dstLine$ = -68						; size = 4
_srcYLine$ = -64					; size = 4
$T24 = -60						; size = 12
_y_range$ = -44						; size = 12
_dst_y_pitch$ = -28					; size = 4
_src_y_pitch$ = -24					; size = 4
_crop_bottom$ = -20					; size = 4
_crop_right$ = -16					; size = 4
_crop_up$ = -12						; size = 4
_crop_left$ = -8					; size = 4
__$ArrayPad$ = -4					; size = 4
_dst$ = 8						; size = 4
_src$ = 12						; size = 4
_width$ = 16						; size = 4
_src_y_pitch_byte$ = 20					; size = 4
_src_uv_pitch_byte$ = 24				; size = 4
_dst_y_pitch_byte$ = 28					; size = 4
_height$ = 32						; size = 4
_dst_height$ = 36					; size = 4
_thread_id$ = 40					; size = 4
_thread_n$ = 44						; size = 4
_crop$ = 48						; size = 4
??$convert_yuv422_high_to_p210_simd@$08@@YAXPAPAXPAPBXHHHHHHHHPAH@Z PROC ; convert_yuv422_high_to_p210_simd<9>

; 1153 : static void __forceinline convert_yuv422_high_to_p210_simd(void **dst, const void **src, int width, int src_y_pitch_byte, int src_uv_pitch_byte, int dst_y_pitch_byte, int height, int dst_height, int thread_id, int thread_n, int *crop) {

  00000	53		 push	 ebx
  00001	8b dc		 mov	 ebx, esp
  00003	83 ec 08	 sub	 esp, 8
  00006	83 e4 f0	 and	 esp, -16		; fffffff0H
  00009	83 c4 04	 add	 esp, 4
  0000c	55		 push	 ebp
  0000d	8b 6b 04	 mov	 ebp, DWORD PTR [ebx+4]
  00010	89 6c 24 04	 mov	 DWORD PTR [esp+4], ebp
  00014	8b ec		 mov	 ebp, esp
  00016	81 ec 60 01 00
	00		 sub	 esp, 352		; 00000160H
  0001c	57		 push	 edi
  0001d	8d bd a0 fe ff
	ff		 lea	 edi, DWORD PTR [ebp-352]
  00023	b9 58 00 00 00	 mov	 ecx, 88			; 00000058H
  00028	b8 cc cc cc cc	 mov	 eax, -858993460		; ccccccccH
  0002d	f3 ab		 rep stosd
  0002f	a1 00 00 00 00	 mov	 eax, DWORD PTR ___security_cookie
  00034	33 c5		 xor	 eax, ebp
  00036	89 45 fc	 mov	 DWORD PTR __$ArrayPad$[ebp], eax

; 1154 :     static_assert(8 < in_bit_depth && in_bit_depth <= 16, "in_bit_depth must be 9-16.");
; 1155 :     const int crop_left   = crop[0];

  00039	b8 04 00 00 00	 mov	 eax, 4
  0003e	6b c8 00	 imul	 ecx, eax, 0
  00041	8b 53 30	 mov	 edx, DWORD PTR _crop$[ebx]
  00044	8b 04 0a	 mov	 eax, DWORD PTR [edx+ecx]
  00047	89 45 f8	 mov	 DWORD PTR _crop_left$[ebp], eax

; 1156 :     const int crop_up     = crop[1];

  0004a	b9 04 00 00 00	 mov	 ecx, 4
  0004f	c1 e1 00	 shl	 ecx, 0
  00052	8b 53 30	 mov	 edx, DWORD PTR _crop$[ebx]
  00055	8b 04 0a	 mov	 eax, DWORD PTR [edx+ecx]
  00058	89 45 f4	 mov	 DWORD PTR _crop_up$[ebp], eax

; 1157 :     const int crop_right  = crop[2];

  0005b	b9 04 00 00 00	 mov	 ecx, 4
  00060	d1 e1		 shl	 ecx, 1
  00062	8b 53 30	 mov	 edx, DWORD PTR _crop$[ebx]
  00065	8b 04 0a	 mov	 eax, DWORD PTR [edx+ecx]
  00068	89 45 f0	 mov	 DWORD PTR _crop_right$[ebp], eax

; 1158 :     const int crop_bottom = crop[3];

  0006b	b9 04 00 00 00	 mov	 ecx, 4
  00070	6b d1 03	 imul	 edx, ecx, 3
  00073	8b 43 30	 mov	 eax, DWORD PTR _crop$[ebx]
  00076	8b 0c 10	 mov	 ecx, DWORD PTR [eax+edx]
  00079	89 4d ec	 mov	 DWORD PTR _crop_bottom$[ebp], ecx

; 1159 :     const int src_y_pitch = src_y_pitch_byte >> 1;

  0007c	8b 53 14	 mov	 edx, DWORD PTR _src_y_pitch_byte$[ebx]
  0007f	d1 fa		 sar	 edx, 1
  00081	89 55 e8	 mov	 DWORD PTR _src_y_pitch$[ebp], edx

; 1160 :     const int dst_y_pitch = dst_y_pitch_byte >> 1;

  00084	8b 43 1c	 mov	 eax, DWORD PTR _dst_y_pitch_byte$[ebx]
  00087	d1 f8		 sar	 eax, 1
  00089	89 45 e4	 mov	 DWORD PTR _dst_y_pitch$[ebp], eax

; 1161 :     //Y成分のコピー
; 1162 :     const auto y_range = thread_y_range(crop_up, height - crop_bottom, thread_id, thread_n);

  0008c	8b 4b 2c	 mov	 ecx, DWORD PTR _thread_n$[ebx]
  0008f	51		 push	 ecx
  00090	8b 53 28	 mov	 edx, DWORD PTR _thread_id$[ebx]
  00093	52		 push	 edx
  00094	8b 43 20	 mov	 eax, DWORD PTR _height$[ebx]
  00097	2b 45 ec	 sub	 eax, DWORD PTR _crop_bottom$[ebp]
  0009a	50		 push	 eax
  0009b	8b 4d f4	 mov	 ecx, DWORD PTR _crop_up$[ebp]
  0009e	51		 push	 ecx
  0009f	8d 95 a0 fe ff
	ff		 lea	 edx, DWORD PTR $T1[ebp]
  000a5	52		 push	 edx
  000a6	e8 00 00 00 00	 call	 ?thread_y_range@@YA?AUTHREAD_Y_RANGE@@HHHH@Z ; thread_y_range
  000ab	83 c4 14	 add	 esp, 20			; 00000014H
  000ae	8b 08		 mov	 ecx, DWORD PTR [eax]
  000b0	89 4d c4	 mov	 DWORD PTR $T24[ebp], ecx
  000b3	8b 50 04	 mov	 edx, DWORD PTR [eax+4]
  000b6	89 55 c8	 mov	 DWORD PTR $T24[ebp+4], edx
  000b9	8b 40 08	 mov	 eax, DWORD PTR [eax+8]
  000bc	89 45 cc	 mov	 DWORD PTR $T24[ebp+8], eax
  000bf	8b 4d c4	 mov	 ecx, DWORD PTR $T24[ebp]
  000c2	89 4d d4	 mov	 DWORD PTR _y_range$[ebp], ecx
  000c5	8b 55 c8	 mov	 edx, DWORD PTR $T24[ebp+4]
  000c8	89 55 d8	 mov	 DWORD PTR _y_range$[ebp+4], edx
  000cb	8b 45 cc	 mov	 eax, DWORD PTR $T24[ebp+8]
  000ce	89 45 dc	 mov	 DWORD PTR _y_range$[ebp+8], eax

; 1163 :     uint16_t *srcYLine = (uint16_t *)src[0] + src_y_pitch * y_range.start_src + crop_left;

  000d1	b9 04 00 00 00	 mov	 ecx, 4
  000d6	6b d1 00	 imul	 edx, ecx, 0
  000d9	8b 45 e8	 mov	 eax, DWORD PTR _src_y_pitch$[ebp]
  000dc	0f af 45 d4	 imul	 eax, DWORD PTR _y_range$[ebp]
  000e0	8b 4b 0c	 mov	 ecx, DWORD PTR _src$[ebx]
  000e3	8b 14 11	 mov	 edx, DWORD PTR [ecx+edx]
  000e6	8d 04 42	 lea	 eax, DWORD PTR [edx+eax*2]
  000e9	8b 4d f8	 mov	 ecx, DWORD PTR _crop_left$[ebp]
  000ec	8d 14 48	 lea	 edx, DWORD PTR [eax+ecx*2]
  000ef	89 55 c0	 mov	 DWORD PTR _srcYLine$[ebp], edx

; 1164 :     uint16_t *dstLine = (uint16_t *)dst[0] + dst_y_pitch * y_range.start_dst;

  000f2	b8 04 00 00 00	 mov	 eax, 4
  000f7	6b c8 00	 imul	 ecx, eax, 0
  000fa	8b 55 e4	 mov	 edx, DWORD PTR _dst_y_pitch$[ebp]
  000fd	0f af 55 d8	 imul	 edx, DWORD PTR _y_range$[ebp+4]
  00101	8b 43 08	 mov	 eax, DWORD PTR _dst$[ebx]
  00104	8b 0c 08	 mov	 ecx, DWORD PTR [eax+ecx]
  00107	8d 14 51	 lea	 edx, DWORD PTR [ecx+edx*2]
  0010a	89 55 bc	 mov	 DWORD PTR _dstLine$[ebp], edx

; 1165 :     const int y_width = width - crop_right - crop_left;

  0010d	8b 43 10	 mov	 eax, DWORD PTR _width$[ebx]
  00110	2b 45 f0	 sub	 eax, DWORD PTR _crop_right$[ebp]
  00113	2b 45 f8	 sub	 eax, DWORD PTR _crop_left$[ebp]
  00116	89 45 b8	 mov	 DWORD PTR _y_width$[ebp], eax

; 1166 :     for (int y = 0; y < y_range.len; y++, srcYLine += src_y_pitch, dstLine += dst_y_pitch) {

  00119	c7 45 b4 00 00
	00 00		 mov	 DWORD PTR _y$23[ebp], 0
  00120	eb 21		 jmp	 SHORT $LN4@convert_yu
$LN2@convert_yu:
  00122	8b 4d b4	 mov	 ecx, DWORD PTR _y$23[ebp]
  00125	83 c1 01	 add	 ecx, 1
  00128	89 4d b4	 mov	 DWORD PTR _y$23[ebp], ecx
  0012b	8b 55 e8	 mov	 edx, DWORD PTR _src_y_pitch$[ebp]
  0012e	8b 45 c0	 mov	 eax, DWORD PTR _srcYLine$[ebp]
  00131	8d 0c 50	 lea	 ecx, DWORD PTR [eax+edx*2]
  00134	89 4d c0	 mov	 DWORD PTR _srcYLine$[ebp], ecx
  00137	8b 55 e4	 mov	 edx, DWORD PTR _dst_y_pitch$[ebp]
  0013a	8b 45 bc	 mov	 eax, DWORD PTR _dstLine$[ebp]
  0013d	8d 0c 50	 lea	 ecx, DWORD PTR [eax+edx*2]
  00140	89 4d bc	 mov	 DWORD PTR _dstLine$[ebp], ecx
$LN4@convert_yu:
  00143	8b 55 b4	 mov	 edx, DWORD PTR _y$23[ebp]
  00146	3b 55 dc	 cmp	 edx, DWORD PTR _y_range$[ebp+8]
  00149	0f 8d 92 00 00
	00		 jge	 $LN3@convert_yu

; 1167 :         if (in_bit_depth == 16) {

  0014f	33 c0		 xor	 eax, eax
  00151	74 18		 je	 SHORT $LN14@convert_yu

; 1168 :             memcpy_sse((uint8_t *)dstLine, (uint8_t *)srcYLine, y_width * sizeof(uint16_t));

  00153	8b 4d b8	 mov	 ecx, DWORD PTR _y_width$[ebp]
  00156	d1 e1		 shl	 ecx, 1
  00158	51		 push	 ecx
  00159	8b 55 c0	 mov	 edx, DWORD PTR _srcYLine$[ebp]
  0015c	52		 push	 edx
  0015d	8b 45 bc	 mov	 eax, DWORD PTR _dstLine$[ebp]
  00160	50		 push	 eax
  00161	e8 00 00 00 00	 call	 ?memcpy_sse@@YAXPAEPBEH@Z ; memcpy_sse
  00166	83 c4 0c	 add	 esp, 12			; 0000000cH

; 1169 :         } else {

  00169	eb 71		 jmp	 SHORT $LN15@convert_yu
$LN14@convert_yu:

; 1170 :             uint16_t *src_ptr = srcYLine;

  0016b	8b 4d c0	 mov	 ecx, DWORD PTR _srcYLine$[ebp]
  0016e	89 4d b0	 mov	 DWORD PTR _src_ptr$22[ebp], ecx

; 1171 :             uint16_t *dst_ptr = dstLine;

  00171	8b 55 bc	 mov	 edx, DWORD PTR _dstLine$[ebp]
  00174	89 55 ac	 mov	 DWORD PTR _dst_ptr$21[ebp], edx

; 1172 :             for (int x = 0; x < y_width; x += 8, dst_ptr += 8, src_ptr += 8) {

  00177	c7 45 a8 00 00
	00 00		 mov	 DWORD PTR _x$20[ebp], 0
  0017e	eb 1b		 jmp	 SHORT $LN7@convert_yu
$LN5@convert_yu:
  00180	8b 45 a8	 mov	 eax, DWORD PTR _x$20[ebp]
  00183	83 c0 08	 add	 eax, 8
  00186	89 45 a8	 mov	 DWORD PTR _x$20[ebp], eax
  00189	8b 4d ac	 mov	 ecx, DWORD PTR _dst_ptr$21[ebp]
  0018c	83 c1 10	 add	 ecx, 16			; 00000010H
  0018f	89 4d ac	 mov	 DWORD PTR _dst_ptr$21[ebp], ecx
  00192	8b 55 b0	 mov	 edx, DWORD PTR _src_ptr$22[ebp]
  00195	83 c2 10	 add	 edx, 16			; 00000010H
  00198	89 55 b0	 mov	 DWORD PTR _src_ptr$22[ebp], edx
$LN7@convert_yu:
  0019b	8b 45 a8	 mov	 eax, DWORD PTR _x$20[ebp]
  0019e	3b 45 b8	 cmp	 eax, DWORD PTR _y_width$[ebp]
  001a1	7d 39		 jge	 SHORT $LN15@convert_yu

; 1173 :                 __m128i x0 = _mm_loadu_si128((const __m128i *)src_ptr);

  001a3	8b 4d b0	 mov	 ecx, DWORD PTR _src_ptr$22[ebp]
  001a6	0f 10 01	 movups	 xmm0, XMMWORD PTR [ecx]
  001a9	0f 29 45 80	 movaps	 XMMWORD PTR $T18[ebp], xmm0
  001ad	0f 28 45 80	 movaps	 xmm0, XMMWORD PTR $T18[ebp]
  001b1	0f 29 45 90	 movaps	 XMMWORD PTR _x0$19[ebp], xmm0

; 1174 :                 x0 = _mm_slli_epi16(x0, 16 - in_bit_depth);

  001b5	0f 28 45 90	 movaps	 xmm0, XMMWORD PTR _x0$19[ebp]
  001b9	66 0f 71 f0 07	 psllw	 xmm0, 7
  001be	0f 29 85 70 ff
	ff ff		 movaps	 XMMWORD PTR $T17[ebp], xmm0
  001c5	0f 28 85 70 ff
	ff ff		 movaps	 xmm0, XMMWORD PTR $T17[ebp]
  001cc	0f 29 45 90	 movaps	 XMMWORD PTR _x0$19[ebp], xmm0

; 1175 :                 _mm_storeu_si128((__m128i *)dst_ptr, x0);

  001d0	0f 10 45 90	 movups	 xmm0, XMMWORD PTR _x0$19[ebp]
  001d4	8b 55 ac	 mov	 edx, DWORD PTR _dst_ptr$21[ebp]
  001d7	0f 11 02	 movups	 XMMWORD PTR [edx], xmm0

; 1176 :             }

  001da	eb a4		 jmp	 SHORT $LN5@convert_yu
$LN15@convert_yu:

; 1177 :         }
; 1178 :     }

  001dc	e9 41 ff ff ff	 jmp	 $LN2@convert_yu
$LN3@convert_yu:

; 1179 :     //UV成分のコピー
; 1180 :     const int src_uv_pitch = src_uv_pitch_byte >> 1;

  001e1	8b 43 18	 mov	 eax, DWORD PTR _src_uv_pitch_byte$[ebx]
  001e4	d1 f8		 sar	 eax, 1
  001e6	89 85 6c ff ff
	ff		 mov	 DWORD PTR _src_uv_pitch$[ebp], eax

; 1181 :     uint16_t *srcULine = (uint16_t *)src[1] + ((src_uv_pitch * y_range.start_src) + (crop_left >> 1));

  001ec	b9 04 00 00 00	 mov	 ecx, 4
  001f1	c1 e1 00	 shl	 ecx, 0
  001f4	8b 95 6c ff ff
	ff		 mov	 edx, DWORD PTR _src_uv_pitch$[ebp]
  001fa	0f af 55 d4	 imul	 edx, DWORD PTR _y_range$[ebp]
  001fe	8b 45 f8	 mov	 eax, DWORD PTR _crop_left$[ebp]
  00201	d1 f8		 sar	 eax, 1
  00203	03 d0		 add	 edx, eax
  00205	8b 43 0c	 mov	 eax, DWORD PTR _src$[ebx]
  00208	8b 0c 08	 mov	 ecx, DWORD PTR [eax+ecx]
  0020b	8d 14 51	 lea	 edx, DWORD PTR [ecx+edx*2]
  0020e	89 95 68 ff ff
	ff		 mov	 DWORD PTR _srcULine$[ebp], edx

; 1182 :     uint16_t *srcVLine = (uint16_t *)src[2] + ((src_uv_pitch * y_range.start_src) + (crop_left >> 1));

  00214	b8 04 00 00 00	 mov	 eax, 4
  00219	d1 e0		 shl	 eax, 1
  0021b	8b 8d 6c ff ff
	ff		 mov	 ecx, DWORD PTR _src_uv_pitch$[ebp]
  00221	0f af 4d d4	 imul	 ecx, DWORD PTR _y_range$[ebp]
  00225	8b 55 f8	 mov	 edx, DWORD PTR _crop_left$[ebp]
  00228	d1 fa		 sar	 edx, 1
  0022a	03 ca		 add	 ecx, edx
  0022c	8b 53 0c	 mov	 edx, DWORD PTR _src$[ebx]
  0022f	8b 04 02	 mov	 eax, DWORD PTR [edx+eax]
  00232	8d 0c 48	 lea	 ecx, DWORD PTR [eax+ecx*2]
  00235	89 8d 64 ff ff
	ff		 mov	 DWORD PTR _srcVLine$[ebp], ecx

; 1183 :     dstLine = (uint16_t *)dst[1] + dst_y_pitch * y_range.start_dst;

  0023b	ba 04 00 00 00	 mov	 edx, 4
  00240	c1 e2 00	 shl	 edx, 0
  00243	8b 45 e4	 mov	 eax, DWORD PTR _dst_y_pitch$[ebp]
  00246	0f af 45 d8	 imul	 eax, DWORD PTR _y_range$[ebp+4]
  0024a	8b 4b 08	 mov	 ecx, DWORD PTR _dst$[ebx]
  0024d	8b 14 11	 mov	 edx, DWORD PTR [ecx+edx]
  00250	8d 04 42	 lea	 eax, DWORD PTR [edx+eax*2]
  00253	89 45 bc	 mov	 DWORD PTR _dstLine$[ebp], eax

; 1184 :     for (int y = 0; y < y_range.len; y++, srcULine += src_uv_pitch, srcVLine += src_uv_pitch, dstLine += dst_y_pitch) {

  00256	c7 85 60 ff ff
	ff 00 00 00 00	 mov	 DWORD PTR _y$16[ebp], 0
  00260	eb 45		 jmp	 SHORT $LN10@convert_yu
$LN8@convert_yu:
  00262	8b 8d 60 ff ff
	ff		 mov	 ecx, DWORD PTR _y$16[ebp]
  00268	83 c1 01	 add	 ecx, 1
  0026b	89 8d 60 ff ff
	ff		 mov	 DWORD PTR _y$16[ebp], ecx
  00271	8b 95 6c ff ff
	ff		 mov	 edx, DWORD PTR _src_uv_pitch$[ebp]
  00277	8b 85 68 ff ff
	ff		 mov	 eax, DWORD PTR _srcULine$[ebp]
  0027d	8d 0c 50	 lea	 ecx, DWORD PTR [eax+edx*2]
  00280	89 8d 68 ff ff
	ff		 mov	 DWORD PTR _srcULine$[ebp], ecx
  00286	8b 95 6c ff ff
	ff		 mov	 edx, DWORD PTR _src_uv_pitch$[ebp]
  0028c	8b 85 64 ff ff
	ff		 mov	 eax, DWORD PTR _srcVLine$[ebp]
  00292	8d 0c 50	 lea	 ecx, DWORD PTR [eax+edx*2]
  00295	89 8d 64 ff ff
	ff		 mov	 DWORD PTR _srcVLine$[ebp], ecx
  0029b	8b 55 e4	 mov	 edx, DWORD PTR _dst_y_pitch$[ebp]
  0029e	8b 45 bc	 mov	 eax, DWORD PTR _dstLine$[ebp]
  002a1	8d 0c 50	 lea	 ecx, DWORD PTR [eax+edx*2]
  002a4	89 4d bc	 mov	 DWORD PTR _dstLine$[ebp], ecx
$LN10@convert_yu:
  002a7	8b 95 60 ff ff
	ff		 mov	 edx, DWORD PTR _y$16[ebp]
  002ad	3b 55 dc	 cmp	 edx, DWORD PTR _y_range$[ebp+8]
  002b0	0f 8d 82 01 00
	00		 jge	 $LN1@convert_yu

; 1185 :         const int x_fin = width - crop_right;

  002b6	8b 43 10	 mov	 eax, DWORD PTR _width$[ebx]
  002b9	2b 45 f0	 sub	 eax, DWORD PTR _crop_right$[ebp]
  002bc	89 85 5c ff ff
	ff		 mov	 DWORD PTR _x_fin$15[ebp], eax

; 1186 :         uint16_t *src_u_ptr = srcULine;

  002c2	8b 8d 68 ff ff
	ff		 mov	 ecx, DWORD PTR _srcULine$[ebp]
  002c8	89 8d 58 ff ff
	ff		 mov	 DWORD PTR _src_u_ptr$14[ebp], ecx

; 1187 :         uint16_t *src_v_ptr = srcVLine;

  002ce	8b 95 64 ff ff
	ff		 mov	 edx, DWORD PTR _srcVLine$[ebp]
  002d4	89 95 54 ff ff
	ff		 mov	 DWORD PTR _src_v_ptr$13[ebp], edx

; 1188 :         uint16_t *dst_ptr = dstLine;

  002da	8b 45 bc	 mov	 eax, DWORD PTR _dstLine$[ebp]
  002dd	89 85 50 ff ff
	ff		 mov	 DWORD PTR _dst_ptr$12[ebp], eax

; 1189 :         __m128i x0, x1, x2;
; 1190 :         for (int x = crop_left; x < x_fin; x += 16, src_u_ptr += 8, src_v_ptr += 8, dst_ptr += 16) {

  002e3	8b 4d f8	 mov	 ecx, DWORD PTR _crop_left$[ebp]
  002e6	89 8d 1c ff ff
	ff		 mov	 DWORD PTR _x$8[ebp], ecx
  002ec	eb 3c		 jmp	 SHORT $LN13@convert_yu
$LN11@convert_yu:
  002ee	8b 95 1c ff ff
	ff		 mov	 edx, DWORD PTR _x$8[ebp]
  002f4	83 c2 10	 add	 edx, 16			; 00000010H
  002f7	89 95 1c ff ff
	ff		 mov	 DWORD PTR _x$8[ebp], edx
  002fd	8b 85 58 ff ff
	ff		 mov	 eax, DWORD PTR _src_u_ptr$14[ebp]
  00303	83 c0 10	 add	 eax, 16			; 00000010H
  00306	89 85 58 ff ff
	ff		 mov	 DWORD PTR _src_u_ptr$14[ebp], eax
  0030c	8b 8d 54 ff ff
	ff		 mov	 ecx, DWORD PTR _src_v_ptr$13[ebp]
  00312	83 c1 10	 add	 ecx, 16			; 00000010H
  00315	89 8d 54 ff ff
	ff		 mov	 DWORD PTR _src_v_ptr$13[ebp], ecx
  0031b	8b 95 50 ff ff
	ff		 mov	 edx, DWORD PTR _dst_ptr$12[ebp]
  00321	83 c2 20	 add	 edx, 32			; 00000020H
  00324	89 95 50 ff ff
	ff		 mov	 DWORD PTR _dst_ptr$12[ebp], edx
$LN13@convert_yu:
  0032a	8b 85 1c ff ff
	ff		 mov	 eax, DWORD PTR _x$8[ebp]
  00330	3b 85 5c ff ff
	ff		 cmp	 eax, DWORD PTR _x_fin$15[ebp]
  00336	0f 8d f7 00 00
	00		 jge	 $LN12@convert_yu

; 1191 :             x0 = _mm_loadu_si128((const __m128i *)src_u_ptr);

  0033c	8b 8d 58 ff ff
	ff		 mov	 ecx, DWORD PTR _src_u_ptr$14[ebp]
  00342	0f 10 01	 movups	 xmm0, XMMWORD PTR [ecx]
  00345	0f 29 85 00 ff
	ff ff		 movaps	 XMMWORD PTR $T7[ebp], xmm0
  0034c	0f 28 85 00 ff
	ff ff		 movaps	 xmm0, XMMWORD PTR $T7[ebp]
  00353	0f 29 85 40 ff
	ff ff		 movaps	 XMMWORD PTR _x0$11[ebp], xmm0

; 1192 :             x1 = _mm_loadu_si128((const __m128i *)src_v_ptr);

  0035a	8b 95 54 ff ff
	ff		 mov	 edx, DWORD PTR _src_v_ptr$13[ebp]
  00360	0f 10 02	 movups	 xmm0, XMMWORD PTR [edx]
  00363	0f 29 85 f0 fe
	ff ff		 movaps	 XMMWORD PTR $T6[ebp], xmm0
  0036a	0f 28 85 f0 fe
	ff ff		 movaps	 xmm0, XMMWORD PTR $T6[ebp]
  00371	0f 29 85 30 ff
	ff ff		 movaps	 XMMWORD PTR _x1$10[ebp], xmm0

; 1193 : 
; 1194 :             if (in_bit_depth < 16) {

  00378	b8 01 00 00 00	 mov	 eax, 1
  0037d	85 c0		 test	 eax, eax
  0037f	74 42		 je	 SHORT $LN16@convert_yu

; 1195 :                 x0 = _mm_slli_epi16(x0, 16 - in_bit_depth);

  00381	0f 28 85 40 ff
	ff ff		 movaps	 xmm0, XMMWORD PTR _x0$11[ebp]
  00388	66 0f 71 f0 07	 psllw	 xmm0, 7
  0038d	0f 29 85 e0 fe
	ff ff		 movaps	 XMMWORD PTR $T5[ebp], xmm0
  00394	0f 28 85 e0 fe
	ff ff		 movaps	 xmm0, XMMWORD PTR $T5[ebp]
  0039b	0f 29 85 40 ff
	ff ff		 movaps	 XMMWORD PTR _x0$11[ebp], xmm0

; 1196 :                 x1 = _mm_slli_epi16(x1, 16 - in_bit_depth);

  003a2	0f 28 85 30 ff
	ff ff		 movaps	 xmm0, XMMWORD PTR _x1$10[ebp]
  003a9	66 0f 71 f0 07	 psllw	 xmm0, 7
  003ae	0f 29 85 d0 fe
	ff ff		 movaps	 XMMWORD PTR $T4[ebp], xmm0
  003b5	0f 28 85 d0 fe
	ff ff		 movaps	 xmm0, XMMWORD PTR $T4[ebp]
  003bc	0f 29 85 30 ff
	ff ff		 movaps	 XMMWORD PTR _x1$10[ebp], xmm0
$LN16@convert_yu:

; 1197 :             }
; 1198 : 
; 1199 :             x2 = _mm_unpackhi_epi16(x0, x1);

  003c3	0f 28 85 40 ff
	ff ff		 movaps	 xmm0, XMMWORD PTR _x0$11[ebp]
  003ca	66 0f 69 85 30
	ff ff ff	 punpckhwd xmm0, XMMWORD PTR _x1$10[ebp]
  003d2	0f 29 85 c0 fe
	ff ff		 movaps	 XMMWORD PTR $T3[ebp], xmm0
  003d9	0f 28 85 c0 fe
	ff ff		 movaps	 xmm0, XMMWORD PTR $T3[ebp]
  003e0	0f 29 85 20 ff
	ff ff		 movaps	 XMMWORD PTR _x2$9[ebp], xmm0

; 1200 :             x0 = _mm_unpacklo_epi16(x0, x1);

  003e7	0f 28 85 40 ff
	ff ff		 movaps	 xmm0, XMMWORD PTR _x0$11[ebp]
  003ee	66 0f 61 85 30
	ff ff ff	 punpcklwd xmm0, XMMWORD PTR _x1$10[ebp]
  003f6	0f 29 85 b0 fe
	ff ff		 movaps	 XMMWORD PTR $T2[ebp], xmm0
  003fd	0f 28 85 b0 fe
	ff ff		 movaps	 xmm0, XMMWORD PTR $T2[ebp]
  00404	0f 29 85 40 ff
	ff ff		 movaps	 XMMWORD PTR _x0$11[ebp], xmm0

; 1201 : 
; 1202 :             _mm_storeu_si128((__m128i *)(dst_ptr + 0), x0);

  0040b	0f 10 85 40 ff
	ff ff		 movups	 xmm0, XMMWORD PTR _x0$11[ebp]
  00412	8b 8d 50 ff ff
	ff		 mov	 ecx, DWORD PTR _dst_ptr$12[ebp]
  00418	0f 11 01	 movups	 XMMWORD PTR [ecx], xmm0

; 1203 :             _mm_storeu_si128((__m128i *)(dst_ptr + 8), x2);

  0041b	0f 10 85 20 ff
	ff ff		 movups	 xmm0, XMMWORD PTR _x2$9[ebp]
  00422	8b 95 50 ff ff
	ff		 mov	 edx, DWORD PTR _dst_ptr$12[ebp]
  00428	83 c2 10	 add	 edx, 16			; 00000010H
  0042b	0f 11 02	 movups	 XMMWORD PTR [edx], xmm0

; 1204 :         }

  0042e	e9 bb fe ff ff	 jmp	 $LN11@convert_yu
$LN12@convert_yu:

; 1205 :     }

  00433	e9 2a fe ff ff	 jmp	 $LN8@convert_yu
$LN1@convert_yu:

; 1206 : }

  00438	52		 push	 edx
  00439	8b cd		 mov	 ecx, ebp
  0043b	50		 push	 eax
  0043c	8d 15 00 00 00
	00		 lea	 edx, DWORD PTR $LN20@convert_yu
  00442	e8 00 00 00 00	 call	 @_RTC_CheckStackVars@8
  00447	58		 pop	 eax
  00448	5a		 pop	 edx
  00449	5f		 pop	 edi
  0044a	8b 4d fc	 mov	 ecx, DWORD PTR __$ArrayPad$[ebp]
  0044d	33 cd		 xor	 ecx, ebp
  0044f	e8 00 00 00 00	 call	 @__security_check_cookie@4
  00454	8b e5		 mov	 esp, ebp
  00456	5d		 pop	 ebp
  00457	8b e3		 mov	 esp, ebx
  00459	5b		 pop	 ebx
  0045a	c3		 ret	 0
  0045b	90		 npad	 1
$LN20@convert_yu:
  0045c	01 00 00 00	 DD	 1
  00460	00 00 00 00	 DD	 $LN19@convert_yu
$LN19@convert_yu:
  00464	d4 ff ff ff	 DD	 -44			; ffffffd4H
  00468	0c 00 00 00	 DD	 12			; 0000000cH
  0046c	00 00 00 00	 DD	 $LN18@convert_yu
$LN18@convert_yu:
  00470	79		 DB	 121			; 00000079H
  00471	5f		 DB	 95			; 0000005fH
  00472	72		 DB	 114			; 00000072H
  00473	61		 DB	 97			; 00000061H
  00474	6e		 DB	 110			; 0000006eH
  00475	67		 DB	 103			; 00000067H
  00476	65		 DB	 101			; 00000065H
  00477	00		 DB	 0
??$convert_yuv422_high_to_p210_simd@$08@@YAXPAPAXPAPBXHHHHHHHHPAH@Z ENDP ; convert_yuv422_high_to_p210_simd<9>
_TEXT	ENDS
; Function compile flags: /Odtp /RTCsu
; File D:\work\intel\intel_codec\QSVPipeline\convert_csp_sse2.cpp
_TEXT	SEGMENT
_dst$ = 8						; size = 4
_src$ = 12						; size = 4
_width$ = 16						; size = 4
_src_y_pitch_byte$ = 20					; size = 4
_src_uv_pitch_byte$ = 24				; size = 4
_dst_y_pitch_byte$ = 28					; size = 4
_height$ = 32						; size = 4
_dst_height$ = 36					; size = 4
_thread_id$ = 40					; size = 4
_thread_n$ = 44						; size = 4
_crop$ = 48						; size = 4
?convert_yuv422_09_to_p210_sse2@@YAXPAPAXPAPBXHHHHHHHHPAH@Z PROC ; convert_yuv422_09_to_p210_sse2

; 221  : void convert_yuv422_09_to_p210_sse2(void **dst, const void **src, int width, int src_y_pitch_byte, int src_uv_pitch_byte, int dst_y_pitch_byte, int height, int dst_height, int thread_id, int thread_n, int *crop) {

  00000	55		 push	 ebp
  00001	8b ec		 mov	 ebp, esp

; 222  :     convert_yuv422_high_to_p210_simd<9>(dst, src, width, src_y_pitch_byte, src_uv_pitch_byte, dst_y_pitch_byte, height, dst_height, thread_id, thread_n, crop);

  00003	8b 45 30	 mov	 eax, DWORD PTR _crop$[ebp]
  00006	50		 push	 eax
  00007	8b 4d 2c	 mov	 ecx, DWORD PTR _thread_n$[ebp]
  0000a	51		 push	 ecx
  0000b	8b 55 28	 mov	 edx, DWORD PTR _thread_id$[ebp]
  0000e	52		 push	 edx
  0000f	8b 45 24	 mov	 eax, DWORD PTR _dst_height$[ebp]
  00012	50		 push	 eax
  00013	8b 4d 20	 mov	 ecx, DWORD PTR _height$[ebp]
  00016	51		 push	 ecx
  00017	8b 55 1c	 mov	 edx, DWORD PTR _dst_y_pitch_byte$[ebp]
  0001a	52		 push	 edx
  0001b	8b 45 18	 mov	 eax, DWORD PTR _src_uv_pitch_byte$[ebp]
  0001e	50		 push	 eax
  0001f	8b 4d 14	 mov	 ecx, DWORD PTR _src_y_pitch_byte$[ebp]
  00022	51		 push	 ecx
  00023	8b 55 10	 mov	 edx, DWORD PTR _width$[ebp]
  00026	52		 push	 edx
  00027	8b 45 0c	 mov	 eax, DWORD PTR _src$[ebp]
  0002a	50		 push	 eax
  0002b	8b 4d 08	 mov	 ecx, DWORD PTR _dst$[ebp]
  0002e	51		 push	 ecx
  0002f	e8 00 00 00 00	 call	 ??$convert_yuv422_high_to_p210_simd@$08@@YAXPAPAXPAPBXHHHHHHHHPAH@Z ; convert_yuv422_high_to_p210_simd<9>
  00034	83 c4 2c	 add	 esp, 44			; 0000002cH

; 223  : }

  00037	3b ec		 cmp	 ebp, esp
  00039	e8 00 00 00 00	 call	 __RTC_CheckEsp
  0003e	5d		 pop	 ebp
  0003f	c3		 ret	 0
?convert_yuv422_09_to_p210_sse2@@YAXPAPAXPAPBXHHHHHHHHPAH@Z ENDP ; convert_yuv422_09_to_p210_sse2
_TEXT	ENDS
; Function compile flags: /Odtp /RTCsu
; File D:\work\intel\intel_codec\QSVPipeline\convert_csp_sse2.cpp
_TEXT	SEGMENT
_dst$ = 8						; size = 4
_src$ = 12						; size = 4
_width$ = 16						; size = 4
_src_y_pitch_byte$ = 20					; size = 4
_src_uv_pitch_byte$ = 24				; size = 4
_dst_y_pitch_byte$ = 28					; size = 4
_height$ = 32						; size = 4
_dst_height$ = 36					; size = 4
_thread_id$ = 40					; size = 4
_thread_n$ = 44						; size = 4
_crop$ = 48						; size = 4
?convert_yuv422_to_p210_sse2@@YAXPAPAXPAPBXHHHHHHHHPAH@Z PROC ; convert_yuv422_to_p210_sse2

; 217  : void convert_yuv422_to_p210_sse2(void **dst, const void **src, int width, int src_y_pitch_byte, int src_uv_pitch_byte, int dst_y_pitch_byte, int height, int dst_height, int thread_id, int thread_n, int *crop) {

  00000	55		 push	 ebp
  00001	8b ec		 mov	 ebp, esp

; 218  :     convert_yuv422_to_p210_simd(dst, src, width, src_y_pitch_byte, src_uv_pitch_byte, dst_y_pitch_byte, height, dst_height, thread_id, thread_n, crop);

  00003	8b 45 30	 mov	 eax, DWORD PTR _crop$[ebp]
  00006	50		 push	 eax
  00007	8b 4d 2c	 mov	 ecx, DWORD PTR _thread_n$[ebp]
  0000a	51		 push	 ecx
  0000b	8b 55 28	 mov	 edx, DWORD PTR _thread_id$[ebp]
  0000e	52		 push	 edx
  0000f	8b 45 24	 mov	 eax, DWORD PTR _dst_height$[ebp]
  00012	50		 push	 eax
  00013	8b 4d 20	 mov	 ecx, DWORD PTR _height$[ebp]
  00016	51		 push	 ecx
  00017	8b 55 1c	 mov	 edx, DWORD PTR _dst_y_pitch_byte$[ebp]
  0001a	52		 push	 edx
  0001b	8b 45 18	 mov	 eax, DWORD PTR _src_uv_pitch_byte$[ebp]
  0001e	50		 push	 eax
  0001f	8b 4d 14	 mov	 ecx, DWORD PTR _src_y_pitch_byte$[ebp]
  00022	51		 push	 ecx
  00023	8b 55 10	 mov	 edx, DWORD PTR _width$[ebp]
  00026	52		 push	 edx
  00027	8b 45 0c	 mov	 eax, DWORD PTR _src$[ebp]
  0002a	50		 push	 eax
  0002b	8b 4d 08	 mov	 ecx, DWORD PTR _dst$[ebp]
  0002e	51		 push	 ecx
  0002f	e8 00 00 00 00	 call	 ?convert_yuv422_to_p210_simd@@YAXPAPAXPAPBXHHHHHHHHPAH@Z ; convert_yuv422_to_p210_simd
  00034	83 c4 2c	 add	 esp, 44			; 0000002cH

; 219  : }

  00037	3b ec		 cmp	 ebp, esp
  00039	e8 00 00 00 00	 call	 __RTC_CheckEsp
  0003e	5d		 pop	 ebp
  0003f	c3		 ret	 0
?convert_yuv422_to_p210_sse2@@YAXPAPAXPAPBXHHHHHHHHPAH@Z ENDP ; convert_yuv422_to_p210_sse2
_TEXT	ENDS
; Function compile flags: /Odtp /RTCsu
; File D:\work\intel\intel_codec\QSVPipeline\convert_csp_sse2.cpp
_TEXT	SEGMENT
_dst$ = 8						; size = 4
_src$ = 12						; size = 4
_width$ = 16						; size = 4
_src_y_pitch_byte$ = 20					; size = 4
_src_uv_pitch_byte$ = 24				; size = 4
_dst_y_pitch_byte$ = 28					; size = 4
_height$ = 32						; size = 4
_dst_height$ = 36					; size = 4
_thread_id$ = 40					; size = 4
_thread_n$ = 44						; size = 4
_crop$ = 48						; size = 4
?convert_yuv422_to_nv16_sse2@@YAXPAPAXPAPBXHHHHHHHHPAH@Z PROC ; convert_yuv422_to_nv16_sse2

; 213  : void convert_yuv422_to_nv16_sse2(void **dst, const void **src, int width, int src_y_pitch_byte, int src_uv_pitch_byte, int dst_y_pitch_byte, int height, int dst_height, int thread_id, int thread_n, int *crop) {

  00000	55		 push	 ebp
  00001	8b ec		 mov	 ebp, esp

; 214  :     convert_yuv422_to_nv16_simd(dst, src, width, src_y_pitch_byte, src_uv_pitch_byte, dst_y_pitch_byte, height, dst_height, thread_id, thread_n, crop);

  00003	8b 45 30	 mov	 eax, DWORD PTR _crop$[ebp]
  00006	50		 push	 eax
  00007	8b 4d 2c	 mov	 ecx, DWORD PTR _thread_n$[ebp]
  0000a	51		 push	 ecx
  0000b	8b 55 28	 mov	 edx, DWORD PTR _thread_id$[ebp]
  0000e	52		 push	 edx
  0000f	8b 45 24	 mov	 eax, DWORD PTR _dst_height$[ebp]
  00012	50		 push	 eax
  00013	8b 4d 20	 mov	 ecx, DWORD PTR _height$[ebp]
  00016	51		 push	 ecx
  00017	8b 55 1c	 mov	 edx, DWORD PTR _dst_y_pitch_byte$[ebp]
  0001a	52		 push	 edx
  0001b	8b 45 18	 mov	 eax, DWORD PTR _src_uv_pitch_byte$[ebp]
  0001e	50		 push	 eax
  0001f	8b 4d 14	 mov	 ecx, DWORD PTR _src_y_pitch_byte$[ebp]
  00022	51		 push	 ecx
  00023	8b 55 10	 mov	 edx, DWORD PTR _width$[ebp]
  00026	52		 push	 edx
  00027	8b 45 0c	 mov	 eax, DWORD PTR _src$[ebp]
  0002a	50		 push	 eax
  0002b	8b 4d 08	 mov	 ecx, DWORD PTR _dst$[ebp]
  0002e	51		 push	 ecx
  0002f	e8 00 00 00 00	 call	 ?convert_yuv422_to_nv16_simd@@YAXPAPAXPAPBXHHHHHHHHPAH@Z ; convert_yuv422_to_nv16_simd
  00034	83 c4 2c	 add	 esp, 44			; 0000002cH

; 215  : }

  00037	3b ec		 cmp	 ebp, esp
  00039	e8 00 00 00 00	 call	 __RTC_CheckEsp
  0003e	5d		 pop	 ebp
  0003f	c3		 ret	 0
?convert_yuv422_to_nv16_sse2@@YAXPAPAXPAPBXHHHHHHHHPAH@Z ENDP ; convert_yuv422_to_nv16_sse2
_TEXT	ENDS
; Function compile flags: /Odtp /RTCsu
; File D:\work\intel\intel_codec\QSVPipeline\convert_csp_simd.h
_TEXT	SEGMENT
tv201 = -300						; size = 4
tv193 = -296						; size = 4
tv153 = -292						; size = 4
$T1 = -288						; size = 12
$T2 = -272						; size = 16
$T3 = -256						; size = 16
$T4 = -240						; size = 16
$T5 = -224						; size = 16
$T6 = -208						; size = 16
$T7 = -192						; size = 16
_ycp$8 = -172						; size = 4
_ycp_fin$9 = -168					; size = 4
_V$10 = -164						; size = 4
_U$11 = -160						; size = 4
_Y$12 = -156						; size = 4
_y$13 = -152						; size = 4
_x3$ = -144						; size = 16
_x2$ = -112						; size = 16
_x1$ = -80						; size = 16
_pixel$ = -52						; size = 4
_V_line$ = -48						; size = 4
_U_line$ = -44						; size = 4
_Y_line$ = -40						; size = 4
$T14 = -36						; size = 12
_y_range$ = -20						; size = 12
__$ArrayPad$ = -4					; size = 4
_dst$ = 8						; size = 4
_src$ = 12						; size = 4
_width$ = 16						; size = 4
_src_y_pitch_byte$ = 20					; size = 4
_src_uv_pitch_byte$ = 24				; size = 4
_dst_y_pitch_byte$ = 28					; size = 4
_height$ = 32						; size = 4
_dst_height$ = 36					; size = 4
_thread_id$ = 40					; size = 4
_thread_n$ = 44						; size = 4
_crop$ = 48						; size = 4
??$convert_yuv444_16bit_to_yc48_simd@$0A@@@YAXPAPAXPAPBXHHHHHHHHPAH@Z PROC ; convert_yuv444_16bit_to_yc48_simd<0>

; 1751 : static __forceinline void convert_yuv444_16bit_to_yc48_simd(void **dst, const void **src, int width, int src_y_pitch_byte, int src_uv_pitch_byte, int dst_y_pitch_byte, int height, int dst_height, int thread_id, int thread_n, int *crop) {

  00000	53		 push	 ebx
  00001	8b dc		 mov	 ebx, esp
  00003	83 ec 08	 sub	 esp, 8
  00006	83 e4 f0	 and	 esp, -16		; fffffff0H
  00009	83 c4 04	 add	 esp, 4
  0000c	55		 push	 ebp
  0000d	8b 6b 04	 mov	 ebp, DWORD PTR [ebx+4]
  00010	89 6c 24 04	 mov	 DWORD PTR [esp+4], ebp
  00014	8b ec		 mov	 ebp, esp
  00016	81 ec 30 01 00
	00		 sub	 esp, 304		; 00000130H
  0001c	57		 push	 edi
  0001d	8d bd d0 fe ff
	ff		 lea	 edi, DWORD PTR [ebp-304]
  00023	b9 4c 00 00 00	 mov	 ecx, 76			; 0000004cH
  00028	b8 cc cc cc cc	 mov	 eax, -858993460		; ccccccccH
  0002d	f3 ab		 rep stosd
  0002f	a1 00 00 00 00	 mov	 eax, DWORD PTR ___security_cookie
  00034	33 c5		 xor	 eax, ebp
  00036	89 45 fc	 mov	 DWORD PTR __$ArrayPad$[ebp], eax

; 1752 :     const auto y_range = thread_y_range(0, height, thread_id, thread_n);

  00039	8b 43 2c	 mov	 eax, DWORD PTR _thread_n$[ebx]
  0003c	50		 push	 eax
  0003d	8b 4b 28	 mov	 ecx, DWORD PTR _thread_id$[ebx]
  00040	51		 push	 ecx
  00041	8b 53 20	 mov	 edx, DWORD PTR _height$[ebx]
  00044	52		 push	 edx
  00045	6a 00		 push	 0
  00047	8d 85 e0 fe ff
	ff		 lea	 eax, DWORD PTR $T1[ebp]
  0004d	50		 push	 eax
  0004e	e8 00 00 00 00	 call	 ?thread_y_range@@YA?AUTHREAD_Y_RANGE@@HHHH@Z ; thread_y_range
  00053	83 c4 14	 add	 esp, 20			; 00000014H
  00056	8b 08		 mov	 ecx, DWORD PTR [eax]
  00058	89 4d dc	 mov	 DWORD PTR $T14[ebp], ecx
  0005b	8b 50 04	 mov	 edx, DWORD PTR [eax+4]
  0005e	89 55 e0	 mov	 DWORD PTR $T14[ebp+4], edx
  00061	8b 40 08	 mov	 eax, DWORD PTR [eax+8]
  00064	89 45 e4	 mov	 DWORD PTR $T14[ebp+8], eax
  00067	8b 4d dc	 mov	 ecx, DWORD PTR $T14[ebp]
  0006a	89 4d ec	 mov	 DWORD PTR _y_range$[ebp], ecx
  0006d	8b 55 e0	 mov	 edx, DWORD PTR $T14[ebp+4]
  00070	89 55 f0	 mov	 DWORD PTR _y_range$[ebp+4], edx
  00073	8b 45 e4	 mov	 eax, DWORD PTR $T14[ebp+8]
  00076	89 45 f4	 mov	 DWORD PTR _y_range$[ebp+8], eax

; 1753 :     char *Y_line = (char *)src[0] + src_y_pitch_byte * y_range.start_src;

  00079	b9 04 00 00 00	 mov	 ecx, 4
  0007e	6b d1 00	 imul	 edx, ecx, 0
  00081	8b 43 14	 mov	 eax, DWORD PTR _src_y_pitch_byte$[ebx]
  00084	0f af 45 ec	 imul	 eax, DWORD PTR _y_range$[ebp]
  00088	8b 4b 0c	 mov	 ecx, DWORD PTR _src$[ebx]
  0008b	03 04 11	 add	 eax, DWORD PTR [ecx+edx]
  0008e	89 45 d8	 mov	 DWORD PTR _Y_line$[ebp], eax

; 1754 :     char *U_line = (char *)src[1] + src_y_pitch_byte * y_range.start_src;

  00091	ba 04 00 00 00	 mov	 edx, 4
  00096	c1 e2 00	 shl	 edx, 0
  00099	8b 43 14	 mov	 eax, DWORD PTR _src_y_pitch_byte$[ebx]
  0009c	0f af 45 ec	 imul	 eax, DWORD PTR _y_range$[ebp]
  000a0	8b 4b 0c	 mov	 ecx, DWORD PTR _src$[ebx]
  000a3	03 04 11	 add	 eax, DWORD PTR [ecx+edx]
  000a6	89 45 d4	 mov	 DWORD PTR _U_line$[ebp], eax

; 1755 :     char *V_line = (char *)src[2] + src_y_pitch_byte * y_range.start_src;

  000a9	ba 04 00 00 00	 mov	 edx, 4
  000ae	d1 e2		 shl	 edx, 1
  000b0	8b 43 14	 mov	 eax, DWORD PTR _src_y_pitch_byte$[ebx]
  000b3	0f af 45 ec	 imul	 eax, DWORD PTR _y_range$[ebp]
  000b7	8b 4b 0c	 mov	 ecx, DWORD PTR _src$[ebx]
  000ba	03 04 11	 add	 eax, DWORD PTR [ecx+edx]
  000bd	89 45 d0	 mov	 DWORD PTR _V_line$[ebp], eax

; 1756 :     char *pixel = (char *)dst[0] + dst_y_pitch_byte * y_range.start_dst;

  000c0	ba 04 00 00 00	 mov	 edx, 4
  000c5	6b c2 00	 imul	 eax, edx, 0
  000c8	8b 4b 1c	 mov	 ecx, DWORD PTR _dst_y_pitch_byte$[ebx]
  000cb	0f af 4d f0	 imul	 ecx, DWORD PTR _y_range$[ebp+4]
  000cf	8b 53 08	 mov	 edx, DWORD PTR _dst$[ebx]
  000d2	03 0c 02	 add	 ecx, DWORD PTR [edx+eax]
  000d5	89 4d cc	 mov	 DWORD PTR _pixel$[ebp], ecx

; 1757 :     __m128i x1, x2, x3;
; 1758 :     for (int y = 0; y < y_range.len; y++, pixel += dst_y_pitch_byte, Y_line += src_y_pitch_byte, U_line += src_y_pitch_byte, V_line += src_y_pitch_byte) {

  000d8	c7 85 68 ff ff
	ff 00 00 00 00	 mov	 DWORD PTR _y$13[ebp], 0
  000e2	eb 33		 jmp	 SHORT $LN4@convert_yu
$LN2@convert_yu:
  000e4	8b 85 68 ff ff
	ff		 mov	 eax, DWORD PTR _y$13[ebp]
  000ea	83 c0 01	 add	 eax, 1
  000ed	89 85 68 ff ff
	ff		 mov	 DWORD PTR _y$13[ebp], eax
  000f3	8b 4d cc	 mov	 ecx, DWORD PTR _pixel$[ebp]
  000f6	03 4b 1c	 add	 ecx, DWORD PTR _dst_y_pitch_byte$[ebx]
  000f9	89 4d cc	 mov	 DWORD PTR _pixel$[ebp], ecx
  000fc	8b 55 d8	 mov	 edx, DWORD PTR _Y_line$[ebp]
  000ff	03 53 14	 add	 edx, DWORD PTR _src_y_pitch_byte$[ebx]
  00102	89 55 d8	 mov	 DWORD PTR _Y_line$[ebp], edx
  00105	8b 45 d4	 mov	 eax, DWORD PTR _U_line$[ebp]
  00108	03 43 14	 add	 eax, DWORD PTR _src_y_pitch_byte$[ebx]
  0010b	89 45 d4	 mov	 DWORD PTR _U_line$[ebp], eax
  0010e	8b 4d d0	 mov	 ecx, DWORD PTR _V_line$[ebp]
  00111	03 4b 14	 add	 ecx, DWORD PTR _src_y_pitch_byte$[ebx]
  00114	89 4d d0	 mov	 DWORD PTR _V_line$[ebp], ecx
$LN4@convert_yu:
  00117	8b 95 68 ff ff
	ff		 mov	 edx, DWORD PTR _y$13[ebp]
  0011d	3b 55 f4	 cmp	 edx, DWORD PTR _y_range$[ebp+8]
  00120	0f 8d fe 01 00
	00		 jge	 $LN1@convert_yu

; 1759 :         short *Y = (short *)Y_line;

  00126	8b 45 d8	 mov	 eax, DWORD PTR _Y_line$[ebp]
  00129	89 85 64 ff ff
	ff		 mov	 DWORD PTR _Y$12[ebp], eax

; 1760 :         short *U = (short *)U_line;

  0012f	8b 4d d4	 mov	 ecx, DWORD PTR _U_line$[ebp]
  00132	89 8d 60 ff ff
	ff		 mov	 DWORD PTR _U$11[ebp], ecx

; 1761 :         short *V = (short *)V_line;

  00138	8b 55 d0	 mov	 edx, DWORD PTR _V_line$[ebp]
  0013b	89 95 5c ff ff
	ff		 mov	 DWORD PTR _V$10[ebp], edx

; 1762 :         short *const ycp_fin = (short *)pixel + width * 3;

  00141	6b 43 10 03	 imul	 eax, DWORD PTR _width$[ebx], 3
  00145	8b 4d cc	 mov	 ecx, DWORD PTR _pixel$[ebp]
  00148	8d 14 41	 lea	 edx, DWORD PTR [ecx+eax*2]
  0014b	89 95 58 ff ff
	ff		 mov	 DWORD PTR _ycp_fin$9[ebp], edx

; 1763 :         for (short *ycp = (short *)pixel; ycp < ycp_fin; ycp += 24, Y += 8, U += 8, V += 8) {

  00151	8b 45 cc	 mov	 eax, DWORD PTR _pixel$[ebp]
  00154	89 85 54 ff ff
	ff		 mov	 DWORD PTR _ycp$8[ebp], eax
  0015a	eb 3c		 jmp	 SHORT $LN7@convert_yu
$LN5@convert_yu:
  0015c	8b 8d 54 ff ff
	ff		 mov	 ecx, DWORD PTR _ycp$8[ebp]
  00162	83 c1 30	 add	 ecx, 48			; 00000030H
  00165	89 8d 54 ff ff
	ff		 mov	 DWORD PTR _ycp$8[ebp], ecx
  0016b	8b 95 64 ff ff
	ff		 mov	 edx, DWORD PTR _Y$12[ebp]
  00171	83 c2 10	 add	 edx, 16			; 00000010H
  00174	89 95 64 ff ff
	ff		 mov	 DWORD PTR _Y$12[ebp], edx
  0017a	8b 85 60 ff ff
	ff		 mov	 eax, DWORD PTR _U$11[ebp]
  00180	83 c0 10	 add	 eax, 16			; 00000010H
  00183	89 85 60 ff ff
	ff		 mov	 DWORD PTR _U$11[ebp], eax
  00189	8b 8d 5c ff ff
	ff		 mov	 ecx, DWORD PTR _V$10[ebp]
  0018f	83 c1 10	 add	 ecx, 16			; 00000010H
  00192	89 8d 5c ff ff
	ff		 mov	 DWORD PTR _V$10[ebp], ecx
$LN7@convert_yu:
  00198	8b 95 54 ff ff
	ff		 mov	 edx, DWORD PTR _ycp$8[ebp]
  0019e	3b 95 58 ff ff
	ff		 cmp	 edx, DWORD PTR _ycp_fin$9[ebp]
  001a4	0f 83 75 01 00
	00		 jae	 $LN6@convert_yu

; 1764 :             x1 = _mm_loadu_si128((__m128i *)(Y));

  001aa	8b 85 64 ff ff
	ff		 mov	 eax, DWORD PTR _Y$12[ebp]
  001b0	0f 10 00	 movups	 xmm0, XMMWORD PTR [eax]
  001b3	0f 29 85 40 ff
	ff ff		 movaps	 XMMWORD PTR $T7[ebp], xmm0
  001ba	0f 28 85 40 ff
	ff ff		 movaps	 xmm0, XMMWORD PTR $T7[ebp]
  001c1	0f 29 45 b0	 movaps	 XMMWORD PTR _x1$[ebp], xmm0

; 1765 :             x2 = _mm_loadu_si128((__m128i *)(U));

  001c5	8b 8d 60 ff ff
	ff		 mov	 ecx, DWORD PTR _U$11[ebp]
  001cb	0f 10 01	 movups	 xmm0, XMMWORD PTR [ecx]
  001ce	0f 29 85 30 ff
	ff ff		 movaps	 XMMWORD PTR $T6[ebp], xmm0
  001d5	0f 28 85 30 ff
	ff ff		 movaps	 xmm0, XMMWORD PTR $T6[ebp]
  001dc	0f 29 45 90	 movaps	 XMMWORD PTR _x2$[ebp], xmm0

; 1766 :             x3 = _mm_loadu_si128((__m128i *)(V));

  001e0	8b 95 5c ff ff
	ff		 mov	 edx, DWORD PTR _V$10[ebp]
  001e6	0f 10 02	 movups	 xmm0, XMMWORD PTR [edx]
  001e9	0f 29 85 20 ff
	ff ff		 movaps	 XMMWORD PTR $T5[ebp], xmm0
  001f0	0f 28 85 20 ff
	ff ff		 movaps	 xmm0, XMMWORD PTR $T5[ebp]
  001f7	0f 29 85 70 ff
	ff ff		 movaps	 XMMWORD PTR _x3$[ebp], xmm0

; 1767 :             x1 = convert_y_range_to_yc48(x1);

  001fe	0f 28 45 b0	 movaps	 xmm0, XMMWORD PTR _x1$[ebp]
  00202	e8 00 00 00 00	 call	 ?convert_y_range_to_yc48@@YA?AT__m128i@@T1@@Z ; convert_y_range_to_yc48
  00207	0f 29 85 10 ff
	ff ff		 movaps	 XMMWORD PTR $T4[ebp], xmm0
  0020e	0f 28 85 10 ff
	ff ff		 movaps	 xmm0, XMMWORD PTR $T4[ebp]
  00215	0f 29 45 b0	 movaps	 XMMWORD PTR _x1$[ebp], xmm0

; 1768 :             x2 = convert_uv_range_to_yc48(x2);

  00219	0f 28 45 90	 movaps	 xmm0, XMMWORD PTR _x2$[ebp]
  0021d	e8 00 00 00 00	 call	 ?convert_uv_range_to_yc48@@YA?AT__m128i@@T1@@Z ; convert_uv_range_to_yc48
  00222	0f 29 85 00 ff
	ff ff		 movaps	 XMMWORD PTR $T3[ebp], xmm0
  00229	0f 28 85 00 ff
	ff ff		 movaps	 xmm0, XMMWORD PTR $T3[ebp]
  00230	0f 29 45 90	 movaps	 XMMWORD PTR _x2$[ebp], xmm0

; 1769 :             x3 = convert_uv_range_to_yc48(x3);

  00234	0f 28 85 70 ff
	ff ff		 movaps	 xmm0, XMMWORD PTR _x3$[ebp]
  0023b	e8 00 00 00 00	 call	 ?convert_uv_range_to_yc48@@YA?AT__m128i@@T1@@Z ; convert_uv_range_to_yc48
  00240	0f 29 85 f0 fe
	ff ff		 movaps	 XMMWORD PTR $T2[ebp], xmm0
  00247	0f 28 85 f0 fe
	ff ff		 movaps	 xmm0, XMMWORD PTR $T2[ebp]
  0024e	0f 29 85 70 ff
	ff ff		 movaps	 XMMWORD PTR _x3$[ebp], xmm0

; 1770 :             gather_y_u_v_to_yc48(x1, x2, x3);

  00255	8d 85 70 ff ff
	ff		 lea	 eax, DWORD PTR _x3$[ebp]
  0025b	50		 push	 eax
  0025c	8d 4d 90	 lea	 ecx, DWORD PTR _x2$[ebp]
  0025f	51		 push	 ecx
  00260	8d 55 b0	 lea	 edx, DWORD PTR _x1$[ebp]
  00263	52		 push	 edx
  00264	e8 00 00 00 00	 call	 ?gather_y_u_v_to_yc48@@YAXAAT__m128i@@00@Z ; gather_y_u_v_to_yc48
  00269	83 c4 0c	 add	 esp, 12			; 0000000cH

; 1771 :             _mm_store_switch_si128((__m128i *)(ycp +  0), x1);

  0026c	33 c0		 xor	 eax, eax
  0026e	74 19		 je	 SHORT $LN9@convert_yu
  00270	0f 28 45 b0	 movaps	 xmm0, XMMWORD PTR _x1$[ebp]
  00274	8b 8d 54 ff ff
	ff		 mov	 ecx, DWORD PTR _ycp$8[ebp]
  0027a	0f 11 01	 movups	 XMMWORD PTR [ecx], xmm0
  0027d	c7 85 dc fe ff
	ff 00 00 00 00	 mov	 DWORD PTR tv153[ebp], 0
  00287	eb 17		 jmp	 SHORT $LN10@convert_yu
$LN9@convert_yu:
  00289	0f 10 45 b0	 movups	 xmm0, XMMWORD PTR _x1$[ebp]
  0028d	8b 95 54 ff ff
	ff		 mov	 edx, DWORD PTR _ycp$8[ebp]
  00293	0f 11 02	 movups	 XMMWORD PTR [edx], xmm0
  00296	c7 85 dc fe ff
	ff 00 00 00 00	 mov	 DWORD PTR tv153[ebp], 0
$LN10@convert_yu:

; 1772 :             _mm_store_switch_si128((__m128i *)(ycp +  8), x2);

  002a0	33 c0		 xor	 eax, eax
  002a2	74 1c		 je	 SHORT $LN11@convert_yu
  002a4	0f 28 45 90	 movaps	 xmm0, XMMWORD PTR _x2$[ebp]
  002a8	8b 8d 54 ff ff
	ff		 mov	 ecx, DWORD PTR _ycp$8[ebp]
  002ae	83 c1 10	 add	 ecx, 16			; 00000010H
  002b1	0f 11 01	 movups	 XMMWORD PTR [ecx], xmm0
  002b4	c7 85 d8 fe ff
	ff 00 00 00 00	 mov	 DWORD PTR tv193[ebp], 0
  002be	eb 1a		 jmp	 SHORT $LN12@convert_yu
$LN11@convert_yu:
  002c0	0f 10 45 90	 movups	 xmm0, XMMWORD PTR _x2$[ebp]
  002c4	8b 95 54 ff ff
	ff		 mov	 edx, DWORD PTR _ycp$8[ebp]
  002ca	83 c2 10	 add	 edx, 16			; 00000010H
  002cd	0f 11 02	 movups	 XMMWORD PTR [edx], xmm0
  002d0	c7 85 d8 fe ff
	ff 00 00 00 00	 mov	 DWORD PTR tv193[ebp], 0
$LN12@convert_yu:

; 1773 :             _mm_store_switch_si128((__m128i *)(ycp + 16), x3);

  002da	33 c0		 xor	 eax, eax
  002dc	74 1f		 je	 SHORT $LN13@convert_yu
  002de	0f 28 85 70 ff
	ff ff		 movaps	 xmm0, XMMWORD PTR _x3$[ebp]
  002e5	8b 8d 54 ff ff
	ff		 mov	 ecx, DWORD PTR _ycp$8[ebp]
  002eb	83 c1 20	 add	 ecx, 32			; 00000020H
  002ee	0f 11 01	 movups	 XMMWORD PTR [ecx], xmm0
  002f1	c7 85 d4 fe ff
	ff 00 00 00 00	 mov	 DWORD PTR tv201[ebp], 0
  002fb	eb 1d		 jmp	 SHORT $LN14@convert_yu
$LN13@convert_yu:
  002fd	0f 10 85 70 ff
	ff ff		 movups	 xmm0, XMMWORD PTR _x3$[ebp]
  00304	8b 95 54 ff ff
	ff		 mov	 edx, DWORD PTR _ycp$8[ebp]
  0030a	83 c2 20	 add	 edx, 32			; 00000020H
  0030d	0f 11 02	 movups	 XMMWORD PTR [edx], xmm0
  00310	c7 85 d4 fe ff
	ff 00 00 00 00	 mov	 DWORD PTR tv201[ebp], 0
$LN14@convert_yu:

; 1774 :         }

  0031a	e9 3d fe ff ff	 jmp	 $LN5@convert_yu
$LN6@convert_yu:

; 1775 :     }

  0031f	e9 c0 fd ff ff	 jmp	 $LN2@convert_yu
$LN1@convert_yu:

; 1776 : }

  00324	52		 push	 edx
  00325	8b cd		 mov	 ecx, ebp
  00327	50		 push	 eax
  00328	8d 15 00 00 00
	00		 lea	 edx, DWORD PTR $LN20@convert_yu
  0032e	e8 00 00 00 00	 call	 @_RTC_CheckStackVars@8
  00333	58		 pop	 eax
  00334	5a		 pop	 edx
  00335	5f		 pop	 edi
  00336	8b 4d fc	 mov	 ecx, DWORD PTR __$ArrayPad$[ebp]
  00339	33 cd		 xor	 ecx, ebp
  0033b	e8 00 00 00 00	 call	 @__security_check_cookie@4
  00340	8b e5		 mov	 esp, ebp
  00342	5d		 pop	 ebp
  00343	8b e3		 mov	 esp, ebx
  00345	5b		 pop	 ebx
  00346	c3		 ret	 0
  00347	90		 npad	 1
$LN20@convert_yu:
  00348	04 00 00 00	 DD	 4
  0034c	00 00 00 00	 DD	 $LN19@convert_yu
$LN19@convert_yu:
  00350	ec ff ff ff	 DD	 -20			; ffffffecH
  00354	0c 00 00 00	 DD	 12			; 0000000cH
  00358	00 00 00 00	 DD	 $LN15@convert_yu
  0035c	b0 ff ff ff	 DD	 -80			; ffffffb0H
  00360	10 00 00 00	 DD	 16			; 00000010H
  00364	00 00 00 00	 DD	 $LN16@convert_yu
  00368	90 ff ff ff	 DD	 -112			; ffffff90H
  0036c	10 00 00 00	 DD	 16			; 00000010H
  00370	00 00 00 00	 DD	 $LN17@convert_yu
  00374	70 ff ff ff	 DD	 -144			; ffffff70H
  00378	10 00 00 00	 DD	 16			; 00000010H
  0037c	00 00 00 00	 DD	 $LN18@convert_yu
$LN18@convert_yu:
  00380	78		 DB	 120			; 00000078H
  00381	33		 DB	 51			; 00000033H
  00382	00		 DB	 0
$LN17@convert_yu:
  00383	78		 DB	 120			; 00000078H
  00384	32		 DB	 50			; 00000032H
  00385	00		 DB	 0
$LN16@convert_yu:
  00386	78		 DB	 120			; 00000078H
  00387	31		 DB	 49			; 00000031H
  00388	00		 DB	 0
$LN15@convert_yu:
  00389	79		 DB	 121			; 00000079H
  0038a	5f		 DB	 95			; 0000005fH
  0038b	72		 DB	 114			; 00000072H
  0038c	61		 DB	 97			; 00000061H
  0038d	6e		 DB	 110			; 0000006eH
  0038e	67		 DB	 103			; 00000067H
  0038f	65		 DB	 101			; 00000065H
  00390	00		 DB	 0
??$convert_yuv444_16bit_to_yc48_simd@$0A@@@YAXPAPAXPAPBXHHHHHHHHPAH@Z ENDP ; convert_yuv444_16bit_to_yc48_simd<0>
_TEXT	ENDS
; Function compile flags: /Odtp /RTCsu
; File D:\work\intel\intel_codec\QSVPipeline\convert_csp_sse2.cpp
_TEXT	SEGMENT
_dst$ = 8						; size = 4
_src$ = 12						; size = 4
_width$ = 16						; size = 4
_src_y_pitch_byte$ = 20					; size = 4
_src_uv_pitch_byte$ = 24				; size = 4
_dst_y_pitch_byte$ = 28					; size = 4
_height$ = 32						; size = 4
_dst_height$ = 36					; size = 4
_thread_id$ = 40					; size = 4
_thread_n$ = 44						; size = 4
_crop$ = 48						; size = 4
?convert_yuv444_16bit_to_yc48_sse2@@YAXPAPAXPAPBXHHHHHHHHPAH@Z PROC ; convert_yuv444_16bit_to_yc48_sse2

; 209  : void convert_yuv444_16bit_to_yc48_sse2(void **dst, const void **src, int width, int src_y_pitch_byte, int src_uv_pitch_byte, int dst_y_pitch_byte, int height, int dst_height, int thread_id, int thread_n, int *crop) {

  00000	55		 push	 ebp
  00001	8b ec		 mov	 ebp, esp

; 210  :     convert_yuv444_16bit_to_yc48_simd<false>(dst, src, width, src_y_pitch_byte, src_uv_pitch_byte, dst_y_pitch_byte, height, dst_height, thread_id, thread_n, crop);

  00003	8b 45 30	 mov	 eax, DWORD PTR _crop$[ebp]
  00006	50		 push	 eax
  00007	8b 4d 2c	 mov	 ecx, DWORD PTR _thread_n$[ebp]
  0000a	51		 push	 ecx
  0000b	8b 55 28	 mov	 edx, DWORD PTR _thread_id$[ebp]
  0000e	52		 push	 edx
  0000f	8b 45 24	 mov	 eax, DWORD PTR _dst_height$[ebp]
  00012	50		 push	 eax
  00013	8b 4d 20	 mov	 ecx, DWORD PTR _height$[ebp]
  00016	51		 push	 ecx
  00017	8b 55 1c	 mov	 edx, DWORD PTR _dst_y_pitch_byte$[ebp]
  0001a	52		 push	 edx
  0001b	8b 45 18	 mov	 eax, DWORD PTR _src_uv_pitch_byte$[ebp]
  0001e	50		 push	 eax
  0001f	8b 4d 14	 mov	 ecx, DWORD PTR _src_y_pitch_byte$[ebp]
  00022	51		 push	 ecx
  00023	8b 55 10	 mov	 edx, DWORD PTR _width$[ebp]
  00026	52		 push	 edx
  00027	8b 45 0c	 mov	 eax, DWORD PTR _src$[ebp]
  0002a	50		 push	 eax
  0002b	8b 4d 08	 mov	 ecx, DWORD PTR _dst$[ebp]
  0002e	51		 push	 ecx
  0002f	e8 00 00 00 00	 call	 ??$convert_yuv444_16bit_to_yc48_simd@$0A@@@YAXPAPAXPAPBXHHHHHHHHPAH@Z ; convert_yuv444_16bit_to_yc48_simd<0>
  00034	83 c4 2c	 add	 esp, 44			; 0000002cH

; 211  : }

  00037	3b ec		 cmp	 ebp, esp
  00039	e8 00 00 00 00	 call	 __RTC_CheckEsp
  0003e	5d		 pop	 ebp
  0003f	c3		 ret	 0
?convert_yuv444_16bit_to_yc48_sse2@@YAXPAPAXPAPBXHHHHHHHHPAH@Z ENDP ; convert_yuv444_16bit_to_yc48_sse2
_TEXT	ENDS
; Function compile flags: /Odtp /RTCsu
; File D:\work\intel\intel_codec\QSVPipeline\convert_csp_simd.h
_TEXT	SEGMENT
tv263 = -636						; size = 4
tv233 = -632						; size = 4
tv203 = -628						; size = 4
$T1 = -624						; size = 12
$T2 = -608						; size = 16
$T3 = -592						; size = 16
$T4 = -576						; size = 16
$T5 = -560						; size = 16
$T6 = -544						; size = 16
$T7 = -528						; size = 16
$T8 = -512						; size = 16
$T9 = -496						; size = 16
$T10 = -480						; size = 16
$T11 = -464						; size = 16
$T12 = -448						; size = 16
$T13 = -432						; size = 16
$T14 = -416						; size = 16
$T15 = -400						; size = 16
$T16 = -384						; size = 16
$T17 = -368						; size = 16
$T18 = -352						; size = 16
$T19 = -336						; size = 16
$T20 = -320						; size = 16
_ycp$21 = -300						; size = 4
_ycp_fin$22 = -296					; size = 4
_V$23 = -292						; size = 4
_U$24 = -288						; size = 4
_Y$25 = -284						; size = 4
_y$26 = -280						; size = 4
_x3$ = -272						; size = 16
_x2$ = -240						; size = 16
_x1$ = -208						; size = 16
$T27 = -176						; size = 16
_xC_YCC$ = -144						; size = 16
$T28 = -112						; size = 16
_xC_pw_one$ = -80					; size = 16
_pixel$ = -52						; size = 4
_V_line$ = -48						; size = 4
_U_line$ = -44						; size = 4
_Y_line$ = -40						; size = 4
$T29 = -36						; size = 12
_y_range$ = -20						; size = 12
__$ArrayPad$ = -4					; size = 4
_dst$ = 8						; size = 4
_src$ = 12						; size = 4
_width$ = 16						; size = 4
_src_y_pitch_byte$ = 20					; size = 4
_src_uv_pitch_byte$ = 24				; size = 4
_dst_y_pitch_byte$ = 28					; size = 4
_height$ = 32						; size = 4
_dst_height$ = 36					; size = 4
_thread_id$ = 40					; size = 4
_thread_n$ = 44						; size = 4
_crop$ = 48						; size = 4
??$convert_yc48_to_yuv444_16bit_simd@$0A@@@YAXPAPAXPAPBXHHHHHHHHPAH@Z PROC ; convert_yc48_to_yuv444_16bit_simd<0>

; 1724 : static __forceinline void convert_yc48_to_yuv444_16bit_simd(void **dst, const void **src, int width, int src_y_pitch_byte, int src_uv_pitch_byte, int dst_y_pitch_byte, int height, int dst_height, int thread_id, int thread_n, int *crop) {

  00000	53		 push	 ebx
  00001	8b dc		 mov	 ebx, esp
  00003	83 ec 08	 sub	 esp, 8
  00006	83 e4 f0	 and	 esp, -16		; fffffff0H
  00009	83 c4 04	 add	 esp, 4
  0000c	55		 push	 ebp
  0000d	8b 6b 04	 mov	 ebp, DWORD PTR [ebx+4]
  00010	89 6c 24 04	 mov	 DWORD PTR [esp+4], ebp
  00014	8b ec		 mov	 ebp, esp
  00016	81 ec 80 02 00
	00		 sub	 esp, 640		; 00000280H
  0001c	57		 push	 edi
  0001d	8d bd 80 fd ff
	ff		 lea	 edi, DWORD PTR [ebp-640]
  00023	b9 a0 00 00 00	 mov	 ecx, 160		; 000000a0H
  00028	b8 cc cc cc cc	 mov	 eax, -858993460		; ccccccccH
  0002d	f3 ab		 rep stosd
  0002f	a1 00 00 00 00	 mov	 eax, DWORD PTR ___security_cookie
  00034	33 c5		 xor	 eax, ebp
  00036	89 45 fc	 mov	 DWORD PTR __$ArrayPad$[ebp], eax

; 1725 :     const auto y_range = thread_y_range(0, height, thread_id, thread_n);

  00039	8b 43 2c	 mov	 eax, DWORD PTR _thread_n$[ebx]
  0003c	50		 push	 eax
  0003d	8b 4b 28	 mov	 ecx, DWORD PTR _thread_id$[ebx]
  00040	51		 push	 ecx
  00041	8b 53 20	 mov	 edx, DWORD PTR _height$[ebx]
  00044	52		 push	 edx
  00045	6a 00		 push	 0
  00047	8d 85 90 fd ff
	ff		 lea	 eax, DWORD PTR $T1[ebp]
  0004d	50		 push	 eax
  0004e	e8 00 00 00 00	 call	 ?thread_y_range@@YA?AUTHREAD_Y_RANGE@@HHHH@Z ; thread_y_range
  00053	83 c4 14	 add	 esp, 20			; 00000014H
  00056	8b 08		 mov	 ecx, DWORD PTR [eax]
  00058	89 4d dc	 mov	 DWORD PTR $T29[ebp], ecx
  0005b	8b 50 04	 mov	 edx, DWORD PTR [eax+4]
  0005e	89 55 e0	 mov	 DWORD PTR $T29[ebp+4], edx
  00061	8b 40 08	 mov	 eax, DWORD PTR [eax+8]
  00064	89 45 e4	 mov	 DWORD PTR $T29[ebp+8], eax
  00067	8b 4d dc	 mov	 ecx, DWORD PTR $T29[ebp]
  0006a	89 4d ec	 mov	 DWORD PTR _y_range$[ebp], ecx
  0006d	8b 55 e0	 mov	 edx, DWORD PTR $T29[ebp+4]
  00070	89 55 f0	 mov	 DWORD PTR _y_range$[ebp+4], edx
  00073	8b 45 e4	 mov	 eax, DWORD PTR $T29[ebp+8]
  00076	89 45 f4	 mov	 DWORD PTR _y_range$[ebp+8], eax

; 1726 :     char *Y_line = (char *)dst[0] + dst_y_pitch_byte + y_range.start_dst;

  00079	b9 04 00 00 00	 mov	 ecx, 4
  0007e	6b d1 00	 imul	 edx, ecx, 0
  00081	8b 43 08	 mov	 eax, DWORD PTR _dst$[ebx]
  00084	8b 0c 10	 mov	 ecx, DWORD PTR [eax+edx]
  00087	03 4b 1c	 add	 ecx, DWORD PTR _dst_y_pitch_byte$[ebx]
  0008a	03 4d f0	 add	 ecx, DWORD PTR _y_range$[ebp+4]
  0008d	89 4d d8	 mov	 DWORD PTR _Y_line$[ebp], ecx

; 1727 :     char *U_line = (char *)dst[1] + dst_y_pitch_byte + y_range.start_dst;

  00090	ba 04 00 00 00	 mov	 edx, 4
  00095	c1 e2 00	 shl	 edx, 0
  00098	8b 43 08	 mov	 eax, DWORD PTR _dst$[ebx]
  0009b	8b 0c 10	 mov	 ecx, DWORD PTR [eax+edx]
  0009e	03 4b 1c	 add	 ecx, DWORD PTR _dst_y_pitch_byte$[ebx]
  000a1	03 4d f0	 add	 ecx, DWORD PTR _y_range$[ebp+4]
  000a4	89 4d d4	 mov	 DWORD PTR _U_line$[ebp], ecx

; 1728 :     char *V_line = (char *)dst[2] + dst_y_pitch_byte + y_range.start_dst;

  000a7	ba 04 00 00 00	 mov	 edx, 4
  000ac	d1 e2		 shl	 edx, 1
  000ae	8b 43 08	 mov	 eax, DWORD PTR _dst$[ebx]
  000b1	8b 0c 10	 mov	 ecx, DWORD PTR [eax+edx]
  000b4	03 4b 1c	 add	 ecx, DWORD PTR _dst_y_pitch_byte$[ebx]
  000b7	03 4d f0	 add	 ecx, DWORD PTR _y_range$[ebp+4]
  000ba	89 4d d0	 mov	 DWORD PTR _V_line$[ebp], ecx

; 1729 :     char *pixel = (char *)src[0] + src_y_pitch_byte * y_range.start_src;

  000bd	ba 04 00 00 00	 mov	 edx, 4
  000c2	6b c2 00	 imul	 eax, edx, 0
  000c5	8b 4b 14	 mov	 ecx, DWORD PTR _src_y_pitch_byte$[ebx]
  000c8	0f af 4d ec	 imul	 ecx, DWORD PTR _y_range$[ebp]
  000cc	8b 53 0c	 mov	 edx, DWORD PTR _src$[ebx]
  000cf	03 0c 02	 add	 ecx, DWORD PTR [edx+eax]
  000d2	89 4d cc	 mov	 DWORD PTR _pixel$[ebp], ecx

; 1730 :     const __m128i xC_pw_one = _mm_set1_epi16(1);

  000d5	0f 28 05 00 00
	00 00		 movaps	 xmm0, XMMWORD PTR __xmm@00010001000100010001000100010001
  000dc	0f 29 45 90	 movaps	 XMMWORD PTR $T28[ebp], xmm0
  000e0	0f 28 45 90	 movaps	 xmm0, XMMWORD PTR $T28[ebp]
  000e4	0f 29 45 b0	 movaps	 XMMWORD PTR _xC_pw_one$[ebp], xmm0

; 1731 :     const __m128i xC_YCC = _mm_set1_epi32(1<<LSFT_YCC_16);

  000e8	0f 28 05 00 00
	00 00		 movaps	 xmm0, XMMWORD PTR __xmm@00001000000010000000100000001000
  000ef	0f 29 85 50 ff
	ff ff		 movaps	 XMMWORD PTR $T27[ebp], xmm0
  000f6	0f 28 85 50 ff
	ff ff		 movaps	 xmm0, XMMWORD PTR $T27[ebp]
  000fd	0f 29 85 70 ff
	ff ff		 movaps	 XMMWORD PTR _xC_YCC$[ebp], xmm0

; 1732 :     __m128i x1, x2, x3;
; 1733 :     for (int y = 0; y < y_range.len; y++, pixel += src_y_pitch_byte, Y_line += dst_y_pitch_byte, U_line += dst_y_pitch_byte, V_line += dst_y_pitch_byte) {

  00104	c7 85 e8 fe ff
	ff 00 00 00 00	 mov	 DWORD PTR _y$26[ebp], 0
  0010e	eb 33		 jmp	 SHORT $LN4@convert_yc
$LN2@convert_yc:
  00110	8b 85 e8 fe ff
	ff		 mov	 eax, DWORD PTR _y$26[ebp]
  00116	83 c0 01	 add	 eax, 1
  00119	89 85 e8 fe ff
	ff		 mov	 DWORD PTR _y$26[ebp], eax
  0011f	8b 4d cc	 mov	 ecx, DWORD PTR _pixel$[ebp]
  00122	03 4b 14	 add	 ecx, DWORD PTR _src_y_pitch_byte$[ebx]
  00125	89 4d cc	 mov	 DWORD PTR _pixel$[ebp], ecx
  00128	8b 55 d8	 mov	 edx, DWORD PTR _Y_line$[ebp]
  0012b	03 53 1c	 add	 edx, DWORD PTR _dst_y_pitch_byte$[ebx]
  0012e	89 55 d8	 mov	 DWORD PTR _Y_line$[ebp], edx
  00131	8b 45 d4	 mov	 eax, DWORD PTR _U_line$[ebp]
  00134	03 43 1c	 add	 eax, DWORD PTR _dst_y_pitch_byte$[ebx]
  00137	89 45 d4	 mov	 DWORD PTR _U_line$[ebp], eax
  0013a	8b 4d d0	 mov	 ecx, DWORD PTR _V_line$[ebp]
  0013d	03 4b 1c	 add	 ecx, DWORD PTR _dst_y_pitch_byte$[ebx]
  00140	89 4d d0	 mov	 DWORD PTR _V_line$[ebp], ecx
$LN4@convert_yc:
  00143	8b 95 e8 fe ff
	ff		 mov	 edx, DWORD PTR _y$26[ebp]
  00149	3b 55 f4	 cmp	 edx, DWORD PTR _y_range$[ebp+8]
  0014c	0f 8d 5d 03 00
	00		 jge	 $LN1@convert_yc

; 1734 :         short *Y = (short *)Y_line;

  00152	8b 45 d8	 mov	 eax, DWORD PTR _Y_line$[ebp]
  00155	89 85 e4 fe ff
	ff		 mov	 DWORD PTR _Y$25[ebp], eax

; 1735 :         short *U = (short *)U_line;

  0015b	8b 4d d4	 mov	 ecx, DWORD PTR _U_line$[ebp]
  0015e	89 8d e0 fe ff
	ff		 mov	 DWORD PTR _U$24[ebp], ecx

; 1736 :         short *V = (short *)V_line;

  00164	8b 55 d0	 mov	 edx, DWORD PTR _V_line$[ebp]
  00167	89 95 dc fe ff
	ff		 mov	 DWORD PTR _V$23[ebp], edx

; 1737 :         short *const ycp_fin = (short *)pixel + width * 3;

  0016d	6b 43 10 03	 imul	 eax, DWORD PTR _width$[ebx], 3
  00171	8b 4d cc	 mov	 ecx, DWORD PTR _pixel$[ebp]
  00174	8d 14 41	 lea	 edx, DWORD PTR [ecx+eax*2]
  00177	89 95 d8 fe ff
	ff		 mov	 DWORD PTR _ycp_fin$22[ebp], edx

; 1738 :         for (short *ycp = (short *)pixel; ycp < ycp_fin; ycp += 24, Y += 8, U += 8, V += 8) {

  0017d	8b 45 cc	 mov	 eax, DWORD PTR _pixel$[ebp]
  00180	89 85 d4 fe ff
	ff		 mov	 DWORD PTR _ycp$21[ebp], eax
  00186	eb 3c		 jmp	 SHORT $LN7@convert_yc
$LN5@convert_yc:
  00188	8b 8d d4 fe ff
	ff		 mov	 ecx, DWORD PTR _ycp$21[ebp]
  0018e	83 c1 30	 add	 ecx, 48			; 00000030H
  00191	89 8d d4 fe ff
	ff		 mov	 DWORD PTR _ycp$21[ebp], ecx
  00197	8b 95 e4 fe ff
	ff		 mov	 edx, DWORD PTR _Y$25[ebp]
  0019d	83 c2 10	 add	 edx, 16			; 00000010H
  001a0	89 95 e4 fe ff
	ff		 mov	 DWORD PTR _Y$25[ebp], edx
  001a6	8b 85 e0 fe ff
	ff		 mov	 eax, DWORD PTR _U$24[ebp]
  001ac	83 c0 10	 add	 eax, 16			; 00000010H
  001af	89 85 e0 fe ff
	ff		 mov	 DWORD PTR _U$24[ebp], eax
  001b5	8b 8d dc fe ff
	ff		 mov	 ecx, DWORD PTR _V$23[ebp]
  001bb	83 c1 10	 add	 ecx, 16			; 00000010H
  001be	89 8d dc fe ff
	ff		 mov	 DWORD PTR _V$23[ebp], ecx
$LN7@convert_yc:
  001c4	8b 95 d4 fe ff
	ff		 mov	 edx, DWORD PTR _ycp$21[ebp]
  001ca	3b 95 d8 fe ff
	ff		 cmp	 edx, DWORD PTR _ycp_fin$22[ebp]
  001d0	0f 83 d4 02 00
	00		 jae	 $LN6@convert_yc

; 1739 :             x1 = _mm_loadu_si128((__m128i *)(ycp +  0));

  001d6	8b 85 d4 fe ff
	ff		 mov	 eax, DWORD PTR _ycp$21[ebp]
  001dc	0f 10 00	 movups	 xmm0, XMMWORD PTR [eax]
  001df	0f 29 85 c0 fe
	ff ff		 movaps	 XMMWORD PTR $T20[ebp], xmm0
  001e6	0f 28 85 c0 fe
	ff ff		 movaps	 xmm0, XMMWORD PTR $T20[ebp]
  001ed	0f 29 85 30 ff
	ff ff		 movaps	 XMMWORD PTR _x1$[ebp], xmm0

; 1740 :             x2 = _mm_loadu_si128((__m128i *)(ycp +  8));

  001f4	8b 8d d4 fe ff
	ff		 mov	 ecx, DWORD PTR _ycp$21[ebp]
  001fa	83 c1 10	 add	 ecx, 16			; 00000010H
  001fd	0f 10 01	 movups	 xmm0, XMMWORD PTR [ecx]
  00200	0f 29 85 b0 fe
	ff ff		 movaps	 XMMWORD PTR $T19[ebp], xmm0
  00207	0f 28 85 b0 fe
	ff ff		 movaps	 xmm0, XMMWORD PTR $T19[ebp]
  0020e	0f 29 85 10 ff
	ff ff		 movaps	 XMMWORD PTR _x2$[ebp], xmm0

; 1741 :             x3 = _mm_loadu_si128((__m128i *)(ycp + 16));

  00215	8b 95 d4 fe ff
	ff		 mov	 edx, DWORD PTR _ycp$21[ebp]
  0021b	83 c2 20	 add	 edx, 32			; 00000020H
  0021e	0f 10 02	 movups	 xmm0, XMMWORD PTR [edx]
  00221	0f 29 85 a0 fe
	ff ff		 movaps	 XMMWORD PTR $T18[ebp], xmm0
  00228	0f 28 85 a0 fe
	ff ff		 movaps	 xmm0, XMMWORD PTR $T18[ebp]
  0022f	0f 29 85 f0 fe
	ff ff		 movaps	 XMMWORD PTR _x3$[ebp], xmm0

; 1742 :             gather_y_u_v_from_yc48(x1, x2, x3);

  00236	8d 85 f0 fe ff
	ff		 lea	 eax, DWORD PTR _x3$[ebp]
  0023c	50		 push	 eax
  0023d	8d 8d 10 ff ff
	ff		 lea	 ecx, DWORD PTR _x2$[ebp]
  00243	51		 push	 ecx
  00244	8d 95 30 ff ff
	ff		 lea	 edx, DWORD PTR _x1$[ebp]
  0024a	52		 push	 edx
  0024b	e8 00 00 00 00	 call	 ?gather_y_u_v_from_yc48@@YAXAAT__m128i@@00@Z ; gather_y_u_v_from_yc48
  00250	83 c4 0c	 add	 esp, 12			; 0000000cH

; 1743 :             _mm_store_switch_si128((__m128i *)Y, convert_y_range_from_yc48(x1, xC_Y_L_MA_16, Y_L_RSH_16, xC_YCC, xC_pw_one));

  00253	33 c0		 xor	 eax, eax
  00255	74 54		 je	 SHORT $LN9@convert_yc
  00257	0f 28 05 00 00
	00 00		 movaps	 xmm0, XMMWORD PTR ?Array_Y_L_MA_16@@3QBFB
  0025e	0f 29 85 90 fe
	ff ff		 movaps	 XMMWORD PTR $T17[ebp], xmm0
  00265	8d 4d b0	 lea	 ecx, DWORD PTR _xC_pw_one$[ebp]
  00268	51		 push	 ecx
  00269	8d 95 70 ff ff
	ff		 lea	 edx, DWORD PTR _xC_YCC$[ebp]
  0026f	52		 push	 edx
  00270	6a 04		 push	 4
  00272	8d 85 90 fe ff
	ff		 lea	 eax, DWORD PTR $T17[ebp]
  00278	50		 push	 eax
  00279	0f 28 85 30 ff
	ff ff		 movaps	 xmm0, XMMWORD PTR _x1$[ebp]
  00280	e8 00 00 00 00	 call	 ?convert_y_range_from_yc48@@YA?AT__m128i@@T1@ABT1@H11@Z ; convert_y_range_from_yc48
  00285	83 c4 10	 add	 esp, 16			; 00000010H
  00288	0f 29 85 80 fe
	ff ff		 movaps	 XMMWORD PTR $T16[ebp], xmm0
  0028f	0f 28 85 80 fe
	ff ff		 movaps	 xmm0, XMMWORD PTR $T16[ebp]
  00296	8b 8d e4 fe ff
	ff		 mov	 ecx, DWORD PTR _Y$25[ebp]
  0029c	0f 11 01	 movups	 XMMWORD PTR [ecx], xmm0
  0029f	c7 85 8c fd ff
	ff 00 00 00 00	 mov	 DWORD PTR tv203[ebp], 0
  002a9	eb 52		 jmp	 SHORT $LN10@convert_yc
$LN9@convert_yc:
  002ab	0f 28 05 00 00
	00 00		 movaps	 xmm0, XMMWORD PTR ?Array_Y_L_MA_16@@3QBFB
  002b2	0f 29 85 70 fe
	ff ff		 movaps	 XMMWORD PTR $T15[ebp], xmm0
  002b9	8d 55 b0	 lea	 edx, DWORD PTR _xC_pw_one$[ebp]
  002bc	52		 push	 edx
  002bd	8d 85 70 ff ff
	ff		 lea	 eax, DWORD PTR _xC_YCC$[ebp]
  002c3	50		 push	 eax
  002c4	6a 04		 push	 4
  002c6	8d 8d 70 fe ff
	ff		 lea	 ecx, DWORD PTR $T15[ebp]
  002cc	51		 push	 ecx
  002cd	0f 28 85 30 ff
	ff ff		 movaps	 xmm0, XMMWORD PTR _x1$[ebp]
  002d4	e8 00 00 00 00	 call	 ?convert_y_range_from_yc48@@YA?AT__m128i@@T1@ABT1@H11@Z ; convert_y_range_from_yc48
  002d9	83 c4 10	 add	 esp, 16			; 00000010H
  002dc	0f 29 85 60 fe
	ff ff		 movaps	 XMMWORD PTR $T14[ebp], xmm0
  002e3	0f 10 85 60 fe
	ff ff		 movups	 xmm0, XMMWORD PTR $T14[ebp]
  002ea	8b 95 e4 fe ff
	ff		 mov	 edx, DWORD PTR _Y$25[ebp]
  002f0	0f 11 02	 movups	 XMMWORD PTR [edx], xmm0
  002f3	c7 85 8c fd ff
	ff 00 00 00 00	 mov	 DWORD PTR tv203[ebp], 0
$LN10@convert_yc:

; 1744 :             _mm_store_switch_si128((__m128i *)U, convert_uv_range_from_yc48(x2, _mm_set1_epi16(UV_OFFSET_x1), xC_UV_L_MA_16_444, UV_L_RSH_16_444, xC_YCC, xC_pw_one));

  002fd	33 c0		 xor	 eax, eax
  002ff	74 69		 je	 SHORT $LN11@convert_yc
  00301	0f 28 05 00 00
	00 00		 movaps	 xmm0, XMMWORD PTR ?Array_UV_L_MA_16_444@@3QBFB
  00308	0f 29 85 40 fe
	ff ff		 movaps	 XMMWORD PTR $T12[ebp], xmm0
  0030f	0f 28 05 00 00
	00 00		 movaps	 xmm0, XMMWORD PTR __xmm@08000800080008000800080008000800
  00316	0f 29 85 50 fe
	ff ff		 movaps	 XMMWORD PTR $T13[ebp], xmm0
  0031d	8d 4d b0	 lea	 ecx, DWORD PTR _xC_pw_one$[ebp]
  00320	51		 push	 ecx
  00321	0f 28 8d 70 ff
	ff ff		 movaps	 xmm1, XMMWORD PTR _xC_YCC$[ebp]
  00328	6a 00		 push	 0
  0032a	8d 95 40 fe ff
	ff		 lea	 edx, DWORD PTR $T12[ebp]
  00330	52		 push	 edx
  00331	8d 85 50 fe ff
	ff		 lea	 eax, DWORD PTR $T13[ebp]
  00337	50		 push	 eax
  00338	0f 28 85 10 ff
	ff ff		 movaps	 xmm0, XMMWORD PTR _x2$[ebp]
  0033f	e8 00 00 00 00	 call	 ?convert_uv_range_from_yc48@@YA?AT__m128i@@T1@ABT1@1H01@Z ; convert_uv_range_from_yc48
  00344	83 c4 10	 add	 esp, 16			; 00000010H
  00347	0f 29 85 30 fe
	ff ff		 movaps	 XMMWORD PTR $T11[ebp], xmm0
  0034e	0f 28 85 30 fe
	ff ff		 movaps	 xmm0, XMMWORD PTR $T11[ebp]
  00355	8b 8d e0 fe ff
	ff		 mov	 ecx, DWORD PTR _U$24[ebp]
  0035b	0f 11 01	 movups	 XMMWORD PTR [ecx], xmm0
  0035e	c7 85 88 fd ff
	ff 00 00 00 00	 mov	 DWORD PTR tv233[ebp], 0
  00368	eb 67		 jmp	 SHORT $LN12@convert_yc
$LN11@convert_yc:
  0036a	0f 28 05 00 00
	00 00		 movaps	 xmm0, XMMWORD PTR ?Array_UV_L_MA_16_444@@3QBFB
  00371	0f 29 85 10 fe
	ff ff		 movaps	 XMMWORD PTR $T9[ebp], xmm0
  00378	0f 28 05 00 00
	00 00		 movaps	 xmm0, XMMWORD PTR __xmm@08000800080008000800080008000800
  0037f	0f 29 85 20 fe
	ff ff		 movaps	 XMMWORD PTR $T10[ebp], xmm0
  00386	8d 55 b0	 lea	 edx, DWORD PTR _xC_pw_one$[ebp]
  00389	52		 push	 edx
  0038a	0f 28 8d 70 ff
	ff ff		 movaps	 xmm1, XMMWORD PTR _xC_YCC$[ebp]
  00391	6a 00		 push	 0
  00393	8d 85 10 fe ff
	ff		 lea	 eax, DWORD PTR $T9[ebp]
  00399	50		 push	 eax
  0039a	8d 8d 20 fe ff
	ff		 lea	 ecx, DWORD PTR $T10[ebp]
  003a0	51		 push	 ecx
  003a1	0f 28 85 10 ff
	ff ff		 movaps	 xmm0, XMMWORD PTR _x2$[ebp]
  003a8	e8 00 00 00 00	 call	 ?convert_uv_range_from_yc48@@YA?AT__m128i@@T1@ABT1@1H01@Z ; convert_uv_range_from_yc48
  003ad	83 c4 10	 add	 esp, 16			; 00000010H
  003b0	0f 29 85 00 fe
	ff ff		 movaps	 XMMWORD PTR $T8[ebp], xmm0
  003b7	0f 10 85 00 fe
	ff ff		 movups	 xmm0, XMMWORD PTR $T8[ebp]
  003be	8b 95 e0 fe ff
	ff		 mov	 edx, DWORD PTR _U$24[ebp]
  003c4	0f 11 02	 movups	 XMMWORD PTR [edx], xmm0
  003c7	c7 85 88 fd ff
	ff 00 00 00 00	 mov	 DWORD PTR tv233[ebp], 0
$LN12@convert_yc:

; 1745 :             _mm_store_switch_si128((__m128i *)V, convert_uv_range_from_yc48(x3, _mm_set1_epi16(UV_OFFSET_x1), xC_UV_L_MA_16_444, UV_L_RSH_16_444, xC_YCC, xC_pw_one));

  003d1	33 c0		 xor	 eax, eax
  003d3	74 69		 je	 SHORT $LN13@convert_yc
  003d5	0f 28 05 00 00
	00 00		 movaps	 xmm0, XMMWORD PTR ?Array_UV_L_MA_16_444@@3QBFB
  003dc	0f 29 85 e0 fd
	ff ff		 movaps	 XMMWORD PTR $T6[ebp], xmm0
  003e3	0f 28 05 00 00
	00 00		 movaps	 xmm0, XMMWORD PTR __xmm@08000800080008000800080008000800
  003ea	0f 29 85 f0 fd
	ff ff		 movaps	 XMMWORD PTR $T7[ebp], xmm0
  003f1	8d 4d b0	 lea	 ecx, DWORD PTR _xC_pw_one$[ebp]
  003f4	51		 push	 ecx
  003f5	0f 28 8d 70 ff
	ff ff		 movaps	 xmm1, XMMWORD PTR _xC_YCC$[ebp]
  003fc	6a 00		 push	 0
  003fe	8d 95 e0 fd ff
	ff		 lea	 edx, DWORD PTR $T6[ebp]
  00404	52		 push	 edx
  00405	8d 85 f0 fd ff
	ff		 lea	 eax, DWORD PTR $T7[ebp]
  0040b	50		 push	 eax
  0040c	0f 28 85 f0 fe
	ff ff		 movaps	 xmm0, XMMWORD PTR _x3$[ebp]
  00413	e8 00 00 00 00	 call	 ?convert_uv_range_from_yc48@@YA?AT__m128i@@T1@ABT1@1H01@Z ; convert_uv_range_from_yc48
  00418	83 c4 10	 add	 esp, 16			; 00000010H
  0041b	0f 29 85 d0 fd
	ff ff		 movaps	 XMMWORD PTR $T5[ebp], xmm0
  00422	0f 28 85 d0 fd
	ff ff		 movaps	 xmm0, XMMWORD PTR $T5[ebp]
  00429	8b 8d dc fe ff
	ff		 mov	 ecx, DWORD PTR _V$23[ebp]
  0042f	0f 11 01	 movups	 XMMWORD PTR [ecx], xmm0
  00432	c7 85 84 fd ff
	ff 00 00 00 00	 mov	 DWORD PTR tv263[ebp], 0
  0043c	eb 67		 jmp	 SHORT $LN14@convert_yc
$LN13@convert_yc:
  0043e	0f 28 05 00 00
	00 00		 movaps	 xmm0, XMMWORD PTR ?Array_UV_L_MA_16_444@@3QBFB
  00445	0f 29 85 b0 fd
	ff ff		 movaps	 XMMWORD PTR $T3[ebp], xmm0
  0044c	0f 28 05 00 00
	00 00		 movaps	 xmm0, XMMWORD PTR __xmm@08000800080008000800080008000800
  00453	0f 29 85 c0 fd
	ff ff		 movaps	 XMMWORD PTR $T4[ebp], xmm0
  0045a	8d 55 b0	 lea	 edx, DWORD PTR _xC_pw_one$[ebp]
  0045d	52		 push	 edx
  0045e	0f 28 8d 70 ff
	ff ff		 movaps	 xmm1, XMMWORD PTR _xC_YCC$[ebp]
  00465	6a 00		 push	 0
  00467	8d 85 b0 fd ff
	ff		 lea	 eax, DWORD PTR $T3[ebp]
  0046d	50		 push	 eax
  0046e	8d 8d c0 fd ff
	ff		 lea	 ecx, DWORD PTR $T4[ebp]
  00474	51		 push	 ecx
  00475	0f 28 85 f0 fe
	ff ff		 movaps	 xmm0, XMMWORD PTR _x3$[ebp]
  0047c	e8 00 00 00 00	 call	 ?convert_uv_range_from_yc48@@YA?AT__m128i@@T1@ABT1@1H01@Z ; convert_uv_range_from_yc48
  00481	83 c4 10	 add	 esp, 16			; 00000010H
  00484	0f 29 85 a0 fd
	ff ff		 movaps	 XMMWORD PTR $T2[ebp], xmm0
  0048b	0f 10 85 a0 fd
	ff ff		 movups	 xmm0, XMMWORD PTR $T2[ebp]
  00492	8b 95 dc fe ff
	ff		 mov	 edx, DWORD PTR _V$23[ebp]
  00498	0f 11 02	 movups	 XMMWORD PTR [edx], xmm0
  0049b	c7 85 84 fd ff
	ff 00 00 00 00	 mov	 DWORD PTR tv263[ebp], 0
$LN14@convert_yc:

; 1746 :         }

  004a5	e9 de fc ff ff	 jmp	 $LN5@convert_yc
$LN6@convert_yc:

; 1747 :     }

  004aa	e9 61 fc ff ff	 jmp	 $LN2@convert_yc
$LN1@convert_yc:

; 1748 : }

  004af	52		 push	 edx
  004b0	8b cd		 mov	 ecx, ebp
  004b2	50		 push	 eax
  004b3	8d 15 00 00 00
	00		 lea	 edx, DWORD PTR $LN22@convert_yc
  004b9	e8 00 00 00 00	 call	 @_RTC_CheckStackVars@8
  004be	58		 pop	 eax
  004bf	5a		 pop	 edx
  004c0	5f		 pop	 edi
  004c1	8b 4d fc	 mov	 ecx, DWORD PTR __$ArrayPad$[ebp]
  004c4	33 cd		 xor	 ecx, ebp
  004c6	e8 00 00 00 00	 call	 @__security_check_cookie@4
  004cb	8b e5		 mov	 esp, ebp
  004cd	5d		 pop	 ebp
  004ce	8b e3		 mov	 esp, ebx
  004d0	5b		 pop	 ebx
  004d1	c3		 ret	 0
  004d2	66 90		 npad	 2
$LN22@convert_yc:
  004d4	06 00 00 00	 DD	 6
  004d8	00 00 00 00	 DD	 $LN21@convert_yc
$LN21@convert_yc:
  004dc	ec ff ff ff	 DD	 -20			; ffffffecH
  004e0	0c 00 00 00	 DD	 12			; 0000000cH
  004e4	00 00 00 00	 DD	 $LN15@convert_yc
  004e8	b0 ff ff ff	 DD	 -80			; ffffffb0H
  004ec	10 00 00 00	 DD	 16			; 00000010H
  004f0	00 00 00 00	 DD	 $LN16@convert_yc
  004f4	70 ff ff ff	 DD	 -144			; ffffff70H
  004f8	10 00 00 00	 DD	 16			; 00000010H
  004fc	00 00 00 00	 DD	 $LN17@convert_yc
  00500	30 ff ff ff	 DD	 -208			; ffffff30H
  00504	10 00 00 00	 DD	 16			; 00000010H
  00508	00 00 00 00	 DD	 $LN18@convert_yc
  0050c	10 ff ff ff	 DD	 -240			; ffffff10H
  00510	10 00 00 00	 DD	 16			; 00000010H
  00514	00 00 00 00	 DD	 $LN19@convert_yc
  00518	f0 fe ff ff	 DD	 -272			; fffffef0H
  0051c	10 00 00 00	 DD	 16			; 00000010H
  00520	00 00 00 00	 DD	 $LN20@convert_yc
$LN20@convert_yc:
  00524	78		 DB	 120			; 00000078H
  00525	33		 DB	 51			; 00000033H
  00526	00		 DB	 0
$LN19@convert_yc:
  00527	78		 DB	 120			; 00000078H
  00528	32		 DB	 50			; 00000032H
  00529	00		 DB	 0
$LN18@convert_yc:
  0052a	78		 DB	 120			; 00000078H
  0052b	31		 DB	 49			; 00000031H
  0052c	00		 DB	 0
$LN17@convert_yc:
  0052d	78		 DB	 120			; 00000078H
  0052e	43		 DB	 67			; 00000043H
  0052f	5f		 DB	 95			; 0000005fH
  00530	59		 DB	 89			; 00000059H
  00531	43		 DB	 67			; 00000043H
  00532	43		 DB	 67			; 00000043H
  00533	00		 DB	 0
$LN16@convert_yc:
  00534	78		 DB	 120			; 00000078H
  00535	43		 DB	 67			; 00000043H
  00536	5f		 DB	 95			; 0000005fH
  00537	70		 DB	 112			; 00000070H
  00538	77		 DB	 119			; 00000077H
  00539	5f		 DB	 95			; 0000005fH
  0053a	6f		 DB	 111			; 0000006fH
  0053b	6e		 DB	 110			; 0000006eH
  0053c	65		 DB	 101			; 00000065H
  0053d	00		 DB	 0
$LN15@convert_yc:
  0053e	79		 DB	 121			; 00000079H
  0053f	5f		 DB	 95			; 0000005fH
  00540	72		 DB	 114			; 00000072H
  00541	61		 DB	 97			; 00000061H
  00542	6e		 DB	 110			; 0000006eH
  00543	67		 DB	 103			; 00000067H
  00544	65		 DB	 101			; 00000065H
  00545	00		 DB	 0
??$convert_yc48_to_yuv444_16bit_simd@$0A@@@YAXPAPAXPAPBXHHHHHHHHPAH@Z ENDP ; convert_yc48_to_yuv444_16bit_simd<0>
_TEXT	ENDS
; Function compile flags: /Odtp /RTCsu
; File D:\work\intel\intel_codec\QSVPipeline\convert_csp_sse2.cpp
_TEXT	SEGMENT
_dst$ = 8						; size = 4
_src$ = 12						; size = 4
_width$ = 16						; size = 4
_src_y_pitch_byte$ = 20					; size = 4
_src_uv_pitch_byte$ = 24				; size = 4
_dst_y_pitch_byte$ = 28					; size = 4
_height$ = 32						; size = 4
_dst_height$ = 36					; size = 4
_thread_id$ = 40					; size = 4
_thread_n$ = 44						; size = 4
_crop$ = 48						; size = 4
?convert_yc48_to_yuv444_16bit_sse2@@YAXPAPAXPAPBXHHHHHHHHPAH@Z PROC ; convert_yc48_to_yuv444_16bit_sse2

; 205  : void convert_yc48_to_yuv444_16bit_sse2(void **dst, const void **src, int width, int src_y_pitch_byte, int src_uv_pitch_byte, int dst_y_pitch_byte, int height, int dst_height, int thread_id, int thread_n, int *crop) {

  00000	55		 push	 ebp
  00001	8b ec		 mov	 ebp, esp

; 206  :     convert_yc48_to_yuv444_16bit_simd<false>(dst, src, width, src_y_pitch_byte, src_uv_pitch_byte, dst_y_pitch_byte, height, dst_height, thread_id, thread_n, crop);

  00003	8b 45 30	 mov	 eax, DWORD PTR _crop$[ebp]
  00006	50		 push	 eax
  00007	8b 4d 2c	 mov	 ecx, DWORD PTR _thread_n$[ebp]
  0000a	51		 push	 ecx
  0000b	8b 55 28	 mov	 edx, DWORD PTR _thread_id$[ebp]
  0000e	52		 push	 edx
  0000f	8b 45 24	 mov	 eax, DWORD PTR _dst_height$[ebp]
  00012	50		 push	 eax
  00013	8b 4d 20	 mov	 ecx, DWORD PTR _height$[ebp]
  00016	51		 push	 ecx
  00017	8b 55 1c	 mov	 edx, DWORD PTR _dst_y_pitch_byte$[ebp]
  0001a	52		 push	 edx
  0001b	8b 45 18	 mov	 eax, DWORD PTR _src_uv_pitch_byte$[ebp]
  0001e	50		 push	 eax
  0001f	8b 4d 14	 mov	 ecx, DWORD PTR _src_y_pitch_byte$[ebp]
  00022	51		 push	 ecx
  00023	8b 55 10	 mov	 edx, DWORD PTR _width$[ebp]
  00026	52		 push	 edx
  00027	8b 45 0c	 mov	 eax, DWORD PTR _src$[ebp]
  0002a	50		 push	 eax
  0002b	8b 4d 08	 mov	 ecx, DWORD PTR _dst$[ebp]
  0002e	51		 push	 ecx
  0002f	e8 00 00 00 00	 call	 ??$convert_yc48_to_yuv444_16bit_simd@$0A@@@YAXPAPAXPAPBXHHHHHHHHPAH@Z ; convert_yc48_to_yuv444_16bit_simd<0>
  00034	83 c4 2c	 add	 esp, 44			; 0000002cH

; 207  : }

  00037	3b ec		 cmp	 ebp, esp
  00039	e8 00 00 00 00	 call	 __RTC_CheckEsp
  0003e	5d		 pop	 ebp
  0003f	c3		 ret	 0
?convert_yc48_to_yuv444_16bit_sse2@@YAXPAPAXPAPBXHHHHHHHHPAH@Z ENDP ; convert_yc48_to_yuv444_16bit_sse2
_TEXT	ENDS
; Function compile flags: /Odtp /RTCsu
; File D:\work\intel\intel_codec\QSVPipeline\convert_csp_simd.h
_TEXT	SEGMENT
tv334 = -892						; size = 4
tv328 = -888						; size = 4
tv322 = -884						; size = 4
$T1 = -880						; size = 12
$T2 = -864						; size = 16
$T3 = -848						; size = 16
$T4 = -832						; size = 16
$T5 = -816						; size = 16
$T6 = -800						; size = 16
$T7 = -784						; size = 16
$T8 = -768						; size = 16
$T9 = -752						; size = 16
$T10 = -736						; size = 16
$T11 = -720						; size = 16
$T12 = -704						; size = 16
$T13 = -688						; size = 16
$T14 = -672						; size = 16
$T15 = -656						; size = 16
$T16 = -640						; size = 16
$T17 = -624						; size = 16
$T18 = -608						; size = 16
$T19 = -592						; size = 16
$T20 = -576						; size = 16
$T21 = -560						; size = 16
$T22 = -544						; size = 16
$T23 = -528						; size = 16
$T24 = -512						; size = 16
$T25 = -496						; size = 16
$T26 = -480						; size = 16
$T27 = -464						; size = 16
$T28 = -448						; size = 16
$T29 = -432						; size = 16
$T30 = -416						; size = 16
$T31 = -400						; size = 16
$T32 = -384						; size = 16
_ycp$33 = -360						; size = 4
_ycp_fin$34 = -356					; size = 4
_V$35 = -352						; size = 4
_U$36 = -348						; size = 4
_Y$37 = -344						; size = 4
_y$38 = -340						; size = 4
_xV$ = -336						; size = 16
_xU$ = -320						; size = 16
_xY$ = -304						; size = 16
_x3$ = -272						; size = 16
_x2$ = -240						; size = 16
_x1$ = -208						; size = 16
$T39 = -176						; size = 16
_xC_YCC$ = -144						; size = 16
$T40 = -112						; size = 16
_xC_pw_one$ = -80					; size = 16
_ycpLine$ = -52						; size = 4
_VLine$ = -48						; size = 4
_ULine$ = -44						; size = 4
_YLine$ = -40						; size = 4
$T41 = -36						; size = 12
_y_range$ = -20						; size = 12
__$ArrayPad$ = -4					; size = 4
_dst$ = 8						; size = 4
_src$ = 12						; size = 4
_width$ = 16						; size = 4
_src_y_pitch_byte$ = 20					; size = 4
_src_uv_pitch_byte$ = 24				; size = 4
_dst_y_pitch_byte$ = 28					; size = 4
_height$ = 32						; size = 4
_dst_height$ = 36					; size = 4
_thread_id$ = 40					; size = 4
_thread_n$ = 44						; size = 4
_crop$ = 48						; size = 4
??$convert_yc48_to_yuv444_simd@$0A@@@YAXPAPAXPAPBXHHHHHHHHPAH@Z PROC ; convert_yc48_to_yuv444_simd<0>

; 1673 : static void __forceinline convert_yc48_to_yuv444_simd(void **dst, const void **src, int width, int src_y_pitch_byte, int src_uv_pitch_byte, int dst_y_pitch_byte, int height, int dst_height, int thread_id, int thread_n, int *crop) {

  00000	53		 push	 ebx
  00001	8b dc		 mov	 ebx, esp
  00003	83 ec 08	 sub	 esp, 8
  00006	83 e4 f0	 and	 esp, -16		; fffffff0H
  00009	83 c4 04	 add	 esp, 4
  0000c	55		 push	 ebp
  0000d	8b 6b 04	 mov	 ebp, DWORD PTR [ebx+4]
  00010	89 6c 24 04	 mov	 DWORD PTR [esp+4], ebp
  00014	8b ec		 mov	 ebp, esp
  00016	81 ec 80 03 00
	00		 sub	 esp, 896		; 00000380H
  0001c	57		 push	 edi
  0001d	8d bd 80 fc ff
	ff		 lea	 edi, DWORD PTR [ebp-896]
  00023	b9 e0 00 00 00	 mov	 ecx, 224		; 000000e0H
  00028	b8 cc cc cc cc	 mov	 eax, -858993460		; ccccccccH
  0002d	f3 ab		 rep stosd
  0002f	a1 00 00 00 00	 mov	 eax, DWORD PTR ___security_cookie
  00034	33 c5		 xor	 eax, ebp
  00036	89 45 fc	 mov	 DWORD PTR __$ArrayPad$[ebp], eax

; 1674 :     const auto y_range = thread_y_range(0, height, thread_id, thread_n);

  00039	8b 43 2c	 mov	 eax, DWORD PTR _thread_n$[ebx]
  0003c	50		 push	 eax
  0003d	8b 4b 28	 mov	 ecx, DWORD PTR _thread_id$[ebx]
  00040	51		 push	 ecx
  00041	8b 53 20	 mov	 edx, DWORD PTR _height$[ebx]
  00044	52		 push	 edx
  00045	6a 00		 push	 0
  00047	8d 85 90 fc ff
	ff		 lea	 eax, DWORD PTR $T1[ebp]
  0004d	50		 push	 eax
  0004e	e8 00 00 00 00	 call	 ?thread_y_range@@YA?AUTHREAD_Y_RANGE@@HHHH@Z ; thread_y_range
  00053	83 c4 14	 add	 esp, 20			; 00000014H
  00056	8b 08		 mov	 ecx, DWORD PTR [eax]
  00058	89 4d dc	 mov	 DWORD PTR $T41[ebp], ecx
  0005b	8b 50 04	 mov	 edx, DWORD PTR [eax+4]
  0005e	89 55 e0	 mov	 DWORD PTR $T41[ebp+4], edx
  00061	8b 40 08	 mov	 eax, DWORD PTR [eax+8]
  00064	89 45 e4	 mov	 DWORD PTR $T41[ebp+8], eax
  00067	8b 4d dc	 mov	 ecx, DWORD PTR $T41[ebp]
  0006a	89 4d ec	 mov	 DWORD PTR _y_range$[ebp], ecx
  0006d	8b 55 e0	 mov	 edx, DWORD PTR $T41[ebp+4]
  00070	89 55 f0	 mov	 DWORD PTR _y_range$[ebp+4], edx
  00073	8b 45 e4	 mov	 eax, DWORD PTR $T41[ebp+8]
  00076	89 45 f4	 mov	 DWORD PTR _y_range$[ebp+8], eax

; 1675 :     uint8_t *YLine   = (uint8_t *)dst[0] + dst_y_pitch_byte * y_range.start_dst;

  00079	b9 04 00 00 00	 mov	 ecx, 4
  0007e	6b d1 00	 imul	 edx, ecx, 0
  00081	8b 43 1c	 mov	 eax, DWORD PTR _dst_y_pitch_byte$[ebx]
  00084	0f af 45 f0	 imul	 eax, DWORD PTR _y_range$[ebp+4]
  00088	8b 4b 08	 mov	 ecx, DWORD PTR _dst$[ebx]
  0008b	03 04 11	 add	 eax, DWORD PTR [ecx+edx]
  0008e	89 45 d8	 mov	 DWORD PTR _YLine$[ebp], eax

; 1676 :     uint8_t *ULine   = (uint8_t *)dst[1] + dst_y_pitch_byte * y_range.start_dst;

  00091	ba 04 00 00 00	 mov	 edx, 4
  00096	c1 e2 00	 shl	 edx, 0
  00099	8b 43 1c	 mov	 eax, DWORD PTR _dst_y_pitch_byte$[ebx]
  0009c	0f af 45 f0	 imul	 eax, DWORD PTR _y_range$[ebp+4]
  000a0	8b 4b 08	 mov	 ecx, DWORD PTR _dst$[ebx]
  000a3	03 04 11	 add	 eax, DWORD PTR [ecx+edx]
  000a6	89 45 d4	 mov	 DWORD PTR _ULine$[ebp], eax

; 1677 :     uint8_t *VLine   = (uint8_t *)dst[2] + dst_y_pitch_byte * y_range.start_dst;

  000a9	ba 04 00 00 00	 mov	 edx, 4
  000ae	d1 e2		 shl	 edx, 1
  000b0	8b 43 1c	 mov	 eax, DWORD PTR _dst_y_pitch_byte$[ebx]
  000b3	0f af 45 f0	 imul	 eax, DWORD PTR _y_range$[ebp+4]
  000b7	8b 4b 08	 mov	 ecx, DWORD PTR _dst$[ebx]
  000ba	03 04 11	 add	 eax, DWORD PTR [ecx+edx]
  000bd	89 45 d0	 mov	 DWORD PTR _VLine$[ebp], eax

; 1678 :     uint8_t *ycpLine = (uint8_t *)src[0] + src_y_pitch_byte * y_range.start_src;

  000c0	ba 04 00 00 00	 mov	 edx, 4
  000c5	6b c2 00	 imul	 eax, edx, 0
  000c8	8b 4b 14	 mov	 ecx, DWORD PTR _src_y_pitch_byte$[ebx]
  000cb	0f af 4d ec	 imul	 ecx, DWORD PTR _y_range$[ebp]
  000cf	8b 53 0c	 mov	 edx, DWORD PTR _src$[ebx]
  000d2	03 0c 02	 add	 ecx, DWORD PTR [edx+eax]
  000d5	89 4d cc	 mov	 DWORD PTR _ycpLine$[ebp], ecx

; 1679 :     const __m128i xC_pw_one = _mm_set1_epi16(1);

  000d8	0f 28 05 00 00
	00 00		 movaps	 xmm0, XMMWORD PTR __xmm@00010001000100010001000100010001
  000df	0f 29 45 90	 movaps	 XMMWORD PTR $T40[ebp], xmm0
  000e3	0f 28 45 90	 movaps	 xmm0, XMMWORD PTR $T40[ebp]
  000e7	0f 29 45 b0	 movaps	 XMMWORD PTR _xC_pw_one$[ebp], xmm0

; 1680 :     const __m128i xC_YCC = _mm_set1_epi32(1<<LSFT_YCC_16);

  000eb	0f 28 05 00 00
	00 00		 movaps	 xmm0, XMMWORD PTR __xmm@00001000000010000000100000001000
  000f2	0f 29 85 50 ff
	ff ff		 movaps	 XMMWORD PTR $T39[ebp], xmm0
  000f9	0f 28 85 50 ff
	ff ff		 movaps	 xmm0, XMMWORD PTR $T39[ebp]
  00100	0f 29 85 70 ff
	ff ff		 movaps	 XMMWORD PTR _xC_YCC$[ebp], xmm0

; 1681 :     __m128i x1, x2, x3, xY, xU, xV;
; 1682 :     for (int y = 0; y < y_range.len; y++, ycpLine += src_y_pitch_byte, YLine += dst_y_pitch_byte, ULine += dst_y_pitch_byte, VLine += dst_y_pitch_byte) {

  00107	c7 85 ac fe ff
	ff 00 00 00 00	 mov	 DWORD PTR _y$38[ebp], 0
  00111	eb 33		 jmp	 SHORT $LN4@convert_yc
$LN2@convert_yc:
  00113	8b 85 ac fe ff
	ff		 mov	 eax, DWORD PTR _y$38[ebp]
  00119	83 c0 01	 add	 eax, 1
  0011c	89 85 ac fe ff
	ff		 mov	 DWORD PTR _y$38[ebp], eax
  00122	8b 4d cc	 mov	 ecx, DWORD PTR _ycpLine$[ebp]
  00125	03 4b 14	 add	 ecx, DWORD PTR _src_y_pitch_byte$[ebx]
  00128	89 4d cc	 mov	 DWORD PTR _ycpLine$[ebp], ecx
  0012b	8b 55 d8	 mov	 edx, DWORD PTR _YLine$[ebp]
  0012e	03 53 1c	 add	 edx, DWORD PTR _dst_y_pitch_byte$[ebx]
  00131	89 55 d8	 mov	 DWORD PTR _YLine$[ebp], edx
  00134	8b 45 d4	 mov	 eax, DWORD PTR _ULine$[ebp]
  00137	03 43 1c	 add	 eax, DWORD PTR _dst_y_pitch_byte$[ebx]
  0013a	89 45 d4	 mov	 DWORD PTR _ULine$[ebp], eax
  0013d	8b 4d d0	 mov	 ecx, DWORD PTR _VLine$[ebp]
  00140	03 4b 1c	 add	 ecx, DWORD PTR _dst_y_pitch_byte$[ebx]
  00143	89 4d d0	 mov	 DWORD PTR _VLine$[ebp], ecx
$LN4@convert_yc:
  00146	8b 95 ac fe ff
	ff		 mov	 edx, DWORD PTR _y$38[ebp]
  0014c	3b 55 f4	 cmp	 edx, DWORD PTR _y_range$[ebp+8]
  0014f	0f 8d 63 05 00
	00		 jge	 $LN1@convert_yc

; 1683 :         uint8_t *Y = YLine;

  00155	8b 45 d8	 mov	 eax, DWORD PTR _YLine$[ebp]
  00158	89 85 a8 fe ff
	ff		 mov	 DWORD PTR _Y$37[ebp], eax

; 1684 :         uint8_t *U = ULine;

  0015e	8b 4d d4	 mov	 ecx, DWORD PTR _ULine$[ebp]
  00161	89 8d a4 fe ff
	ff		 mov	 DWORD PTR _U$36[ebp], ecx

; 1685 :         uint8_t *V = VLine;

  00167	8b 55 d0	 mov	 edx, DWORD PTR _VLine$[ebp]
  0016a	89 95 a0 fe ff
	ff		 mov	 DWORD PTR _V$35[ebp], edx

; 1686 :         int16_t *const ycp_fin = (int16_t *)ycpLine + width * 3;

  00170	6b 43 10 03	 imul	 eax, DWORD PTR _width$[ebx], 3
  00174	8b 4d cc	 mov	 ecx, DWORD PTR _ycpLine$[ebp]
  00177	8d 14 41	 lea	 edx, DWORD PTR [ecx+eax*2]
  0017a	89 95 9c fe ff
	ff		 mov	 DWORD PTR _ycp_fin$34[ebp], edx

; 1687 :         for (int16_t *ycp = (int16_t *)ycpLine; ycp < ycp_fin; ycp += 48, Y += 16, U += 16, V += 16) {

  00180	8b 45 cc	 mov	 eax, DWORD PTR _ycpLine$[ebp]
  00183	89 85 98 fe ff
	ff		 mov	 DWORD PTR _ycp$33[ebp], eax
  00189	eb 3c		 jmp	 SHORT $LN7@convert_yc
$LN5@convert_yc:
  0018b	8b 8d 98 fe ff
	ff		 mov	 ecx, DWORD PTR _ycp$33[ebp]
  00191	83 c1 60	 add	 ecx, 96			; 00000060H
  00194	89 8d 98 fe ff
	ff		 mov	 DWORD PTR _ycp$33[ebp], ecx
  0019a	8b 95 a8 fe ff
	ff		 mov	 edx, DWORD PTR _Y$37[ebp]
  001a0	83 c2 10	 add	 edx, 16			; 00000010H
  001a3	89 95 a8 fe ff
	ff		 mov	 DWORD PTR _Y$37[ebp], edx
  001a9	8b 85 a4 fe ff
	ff		 mov	 eax, DWORD PTR _U$36[ebp]
  001af	83 c0 10	 add	 eax, 16			; 00000010H
  001b2	89 85 a4 fe ff
	ff		 mov	 DWORD PTR _U$36[ebp], eax
  001b8	8b 8d a0 fe ff
	ff		 mov	 ecx, DWORD PTR _V$35[ebp]
  001be	83 c1 10	 add	 ecx, 16			; 00000010H
  001c1	89 8d a0 fe ff
	ff		 mov	 DWORD PTR _V$35[ebp], ecx
$LN7@convert_yc:
  001c7	8b 95 98 fe ff
	ff		 mov	 edx, DWORD PTR _ycp$33[ebp]
  001cd	3b 95 9c fe ff
	ff		 cmp	 edx, DWORD PTR _ycp_fin$34[ebp]
  001d3	0f 83 da 04 00
	00		 jae	 $LN6@convert_yc

; 1688 :             x1 = _mm_loadu_si128((__m128i *)(ycp +  0));

  001d9	8b 85 98 fe ff
	ff		 mov	 eax, DWORD PTR _ycp$33[ebp]
  001df	0f 10 00	 movups	 xmm0, XMMWORD PTR [eax]
  001e2	0f 29 85 80 fe
	ff ff		 movaps	 XMMWORD PTR $T32[ebp], xmm0
  001e9	0f 28 85 80 fe
	ff ff		 movaps	 xmm0, XMMWORD PTR $T32[ebp]
  001f0	0f 29 85 30 ff
	ff ff		 movaps	 XMMWORD PTR _x1$[ebp], xmm0

; 1689 :             x2 = _mm_loadu_si128((__m128i *)(ycp +  8));

  001f7	8b 8d 98 fe ff
	ff		 mov	 ecx, DWORD PTR _ycp$33[ebp]
  001fd	83 c1 10	 add	 ecx, 16			; 00000010H
  00200	0f 10 01	 movups	 xmm0, XMMWORD PTR [ecx]
  00203	0f 29 85 70 fe
	ff ff		 movaps	 XMMWORD PTR $T31[ebp], xmm0
  0020a	0f 28 85 70 fe
	ff ff		 movaps	 xmm0, XMMWORD PTR $T31[ebp]
  00211	0f 29 85 10 ff
	ff ff		 movaps	 XMMWORD PTR _x2$[ebp], xmm0

; 1690 :             x3 = _mm_loadu_si128((__m128i *)(ycp + 16));

  00218	8b 95 98 fe ff
	ff		 mov	 edx, DWORD PTR _ycp$33[ebp]
  0021e	83 c2 20	 add	 edx, 32			; 00000020H
  00221	0f 10 02	 movups	 xmm0, XMMWORD PTR [edx]
  00224	0f 29 85 60 fe
	ff ff		 movaps	 XMMWORD PTR $T30[ebp], xmm0
  0022b	0f 28 85 60 fe
	ff ff		 movaps	 xmm0, XMMWORD PTR $T30[ebp]
  00232	0f 29 85 f0 fe
	ff ff		 movaps	 XMMWORD PTR _x3$[ebp], xmm0

; 1691 :             gather_y_u_v_from_yc48(x1, x2, x3);

  00239	8d 85 f0 fe ff
	ff		 lea	 eax, DWORD PTR _x3$[ebp]
  0023f	50		 push	 eax
  00240	8d 8d 10 ff ff
	ff		 lea	 ecx, DWORD PTR _x2$[ebp]
  00246	51		 push	 ecx
  00247	8d 95 30 ff ff
	ff		 lea	 edx, DWORD PTR _x1$[ebp]
  0024d	52		 push	 edx
  0024e	e8 00 00 00 00	 call	 ?gather_y_u_v_from_yc48@@YAXAAT__m128i@@00@Z ; gather_y_u_v_from_yc48
  00253	83 c4 0c	 add	 esp, 12			; 0000000cH

; 1692 : 
; 1693 :             x1 = convert_y_range_from_yc48(x1, xC_Y_L_MA_16, Y_L_RSH_16, xC_YCC, xC_pw_one);

  00256	0f 28 05 00 00
	00 00		 movaps	 xmm0, XMMWORD PTR ?Array_Y_L_MA_16@@3QBFB
  0025d	0f 29 85 50 fe
	ff ff		 movaps	 XMMWORD PTR $T29[ebp], xmm0
  00264	8d 45 b0	 lea	 eax, DWORD PTR _xC_pw_one$[ebp]
  00267	50		 push	 eax
  00268	8d 8d 70 ff ff
	ff		 lea	 ecx, DWORD PTR _xC_YCC$[ebp]
  0026e	51		 push	 ecx
  0026f	6a 04		 push	 4
  00271	8d 95 50 fe ff
	ff		 lea	 edx, DWORD PTR $T29[ebp]
  00277	52		 push	 edx
  00278	0f 28 85 30 ff
	ff ff		 movaps	 xmm0, XMMWORD PTR _x1$[ebp]
  0027f	e8 00 00 00 00	 call	 ?convert_y_range_from_yc48@@YA?AT__m128i@@T1@ABT1@H11@Z ; convert_y_range_from_yc48
  00284	83 c4 10	 add	 esp, 16			; 00000010H
  00287	0f 29 85 40 fe
	ff ff		 movaps	 XMMWORD PTR $T28[ebp], xmm0
  0028e	0f 28 85 40 fe
	ff ff		 movaps	 xmm0, XMMWORD PTR $T28[ebp]
  00295	0f 29 85 30 ff
	ff ff		 movaps	 XMMWORD PTR _x1$[ebp], xmm0

; 1694 :             x2 = convert_uv_range_from_yc48(x2, _mm_set1_epi16(UV_OFFSET_x1), xC_UV_L_MA_16_444, UV_L_RSH_16_444, xC_YCC, xC_pw_one);

  0029c	0f 28 05 00 00
	00 00		 movaps	 xmm0, XMMWORD PTR ?Array_UV_L_MA_16_444@@3QBFB
  002a3	0f 29 85 20 fe
	ff ff		 movaps	 XMMWORD PTR $T26[ebp], xmm0
  002aa	0f 28 05 00 00
	00 00		 movaps	 xmm0, XMMWORD PTR __xmm@08000800080008000800080008000800
  002b1	0f 29 85 30 fe
	ff ff		 movaps	 XMMWORD PTR $T27[ebp], xmm0
  002b8	8d 45 b0	 lea	 eax, DWORD PTR _xC_pw_one$[ebp]
  002bb	50		 push	 eax
  002bc	0f 28 8d 70 ff
	ff ff		 movaps	 xmm1, XMMWORD PTR _xC_YCC$[ebp]
  002c3	6a 00		 push	 0
  002c5	8d 8d 20 fe ff
	ff		 lea	 ecx, DWORD PTR $T26[ebp]
  002cb	51		 push	 ecx
  002cc	8d 95 30 fe ff
	ff		 lea	 edx, DWORD PTR $T27[ebp]
  002d2	52		 push	 edx
  002d3	0f 28 85 10 ff
	ff ff		 movaps	 xmm0, XMMWORD PTR _x2$[ebp]
  002da	e8 00 00 00 00	 call	 ?convert_uv_range_from_yc48@@YA?AT__m128i@@T1@ABT1@1H01@Z ; convert_uv_range_from_yc48
  002df	83 c4 10	 add	 esp, 16			; 00000010H
  002e2	0f 29 85 10 fe
	ff ff		 movaps	 XMMWORD PTR $T25[ebp], xmm0
  002e9	0f 28 85 10 fe
	ff ff		 movaps	 xmm0, XMMWORD PTR $T25[ebp]
  002f0	0f 29 85 10 ff
	ff ff		 movaps	 XMMWORD PTR _x2$[ebp], xmm0

; 1695 :             x3 = convert_uv_range_from_yc48(x3, _mm_set1_epi16(UV_OFFSET_x1), xC_UV_L_MA_16_444, UV_L_RSH_16_444, xC_YCC, xC_pw_one);

  002f7	0f 28 05 00 00
	00 00		 movaps	 xmm0, XMMWORD PTR ?Array_UV_L_MA_16_444@@3QBFB
  002fe	0f 29 85 f0 fd
	ff ff		 movaps	 XMMWORD PTR $T23[ebp], xmm0
  00305	0f 28 05 00 00
	00 00		 movaps	 xmm0, XMMWORD PTR __xmm@08000800080008000800080008000800
  0030c	0f 29 85 00 fe
	ff ff		 movaps	 XMMWORD PTR $T24[ebp], xmm0
  00313	8d 45 b0	 lea	 eax, DWORD PTR _xC_pw_one$[ebp]
  00316	50		 push	 eax
  00317	0f 28 8d 70 ff
	ff ff		 movaps	 xmm1, XMMWORD PTR _xC_YCC$[ebp]
  0031e	6a 00		 push	 0
  00320	8d 8d f0 fd ff
	ff		 lea	 ecx, DWORD PTR $T23[ebp]
  00326	51		 push	 ecx
  00327	8d 95 00 fe ff
	ff		 lea	 edx, DWORD PTR $T24[ebp]
  0032d	52		 push	 edx
  0032e	0f 28 85 f0 fe
	ff ff		 movaps	 xmm0, XMMWORD PTR _x3$[ebp]
  00335	e8 00 00 00 00	 call	 ?convert_uv_range_from_yc48@@YA?AT__m128i@@T1@ABT1@1H01@Z ; convert_uv_range_from_yc48
  0033a	83 c4 10	 add	 esp, 16			; 00000010H
  0033d	0f 29 85 e0 fd
	ff ff		 movaps	 XMMWORD PTR $T22[ebp], xmm0
  00344	0f 28 85 e0 fd
	ff ff		 movaps	 xmm0, XMMWORD PTR $T22[ebp]
  0034b	0f 29 85 f0 fe
	ff ff		 movaps	 XMMWORD PTR _x3$[ebp], xmm0

; 1696 :             xY = _mm_srli_epi16(x1, 8);

  00352	0f 28 85 30 ff
	ff ff		 movaps	 xmm0, XMMWORD PTR _x1$[ebp]
  00359	66 0f 71 d0 08	 psrlw	 xmm0, 8
  0035e	0f 29 85 d0 fd
	ff ff		 movaps	 XMMWORD PTR $T21[ebp], xmm0
  00365	0f 28 85 d0 fd
	ff ff		 movaps	 xmm0, XMMWORD PTR $T21[ebp]
  0036c	0f 29 85 d0 fe
	ff ff		 movaps	 XMMWORD PTR _xY$[ebp], xmm0

; 1697 :             xU = _mm_srli_epi16(x2, 8);

  00373	0f 28 85 10 ff
	ff ff		 movaps	 xmm0, XMMWORD PTR _x2$[ebp]
  0037a	66 0f 71 d0 08	 psrlw	 xmm0, 8
  0037f	0f 29 85 c0 fd
	ff ff		 movaps	 XMMWORD PTR $T20[ebp], xmm0
  00386	0f 28 85 c0 fd
	ff ff		 movaps	 xmm0, XMMWORD PTR $T20[ebp]
  0038d	0f 29 85 c0 fe
	ff ff		 movaps	 XMMWORD PTR _xU$[ebp], xmm0

; 1698 :             xV = _mm_srli_epi16(x3, 8);

  00394	0f 28 85 f0 fe
	ff ff		 movaps	 xmm0, XMMWORD PTR _x3$[ebp]
  0039b	66 0f 71 d0 08	 psrlw	 xmm0, 8
  003a0	0f 29 85 b0 fd
	ff ff		 movaps	 XMMWORD PTR $T19[ebp], xmm0
  003a7	0f 28 85 b0 fd
	ff ff		 movaps	 xmm0, XMMWORD PTR $T19[ebp]
  003ae	0f 29 85 b0 fe
	ff ff		 movaps	 XMMWORD PTR _xV$[ebp], xmm0

; 1699 : 
; 1700 :             x1 = _mm_loadu_si128((__m128i *)(ycp + 24));

  003b5	8b 85 98 fe ff
	ff		 mov	 eax, DWORD PTR _ycp$33[ebp]
  003bb	83 c0 30	 add	 eax, 48			; 00000030H
  003be	0f 10 00	 movups	 xmm0, XMMWORD PTR [eax]
  003c1	0f 29 85 a0 fd
	ff ff		 movaps	 XMMWORD PTR $T18[ebp], xmm0
  003c8	0f 28 85 a0 fd
	ff ff		 movaps	 xmm0, XMMWORD PTR $T18[ebp]
  003cf	0f 29 85 30 ff
	ff ff		 movaps	 XMMWORD PTR _x1$[ebp], xmm0

; 1701 :             x2 = _mm_loadu_si128((__m128i *)(ycp + 32));

  003d6	8b 8d 98 fe ff
	ff		 mov	 ecx, DWORD PTR _ycp$33[ebp]
  003dc	83 c1 40	 add	 ecx, 64			; 00000040H
  003df	0f 10 01	 movups	 xmm0, XMMWORD PTR [ecx]
  003e2	0f 29 85 90 fd
	ff ff		 movaps	 XMMWORD PTR $T17[ebp], xmm0
  003e9	0f 28 85 90 fd
	ff ff		 movaps	 xmm0, XMMWORD PTR $T17[ebp]
  003f0	0f 29 85 10 ff
	ff ff		 movaps	 XMMWORD PTR _x2$[ebp], xmm0

; 1702 :             x3 = _mm_loadu_si128((__m128i *)(ycp + 40));

  003f7	8b 95 98 fe ff
	ff		 mov	 edx, DWORD PTR _ycp$33[ebp]
  003fd	83 c2 50	 add	 edx, 80			; 00000050H
  00400	0f 10 02	 movups	 xmm0, XMMWORD PTR [edx]
  00403	0f 29 85 80 fd
	ff ff		 movaps	 XMMWORD PTR $T16[ebp], xmm0
  0040a	0f 28 85 80 fd
	ff ff		 movaps	 xmm0, XMMWORD PTR $T16[ebp]
  00411	0f 29 85 f0 fe
	ff ff		 movaps	 XMMWORD PTR _x3$[ebp], xmm0

; 1703 :             gather_y_u_v_from_yc48(x1, x2, x3);

  00418	8d 85 f0 fe ff
	ff		 lea	 eax, DWORD PTR _x3$[ebp]
  0041e	50		 push	 eax
  0041f	8d 8d 10 ff ff
	ff		 lea	 ecx, DWORD PTR _x2$[ebp]
  00425	51		 push	 ecx
  00426	8d 95 30 ff ff
	ff		 lea	 edx, DWORD PTR _x1$[ebp]
  0042c	52		 push	 edx
  0042d	e8 00 00 00 00	 call	 ?gather_y_u_v_from_yc48@@YAXAAT__m128i@@00@Z ; gather_y_u_v_from_yc48
  00432	83 c4 0c	 add	 esp, 12			; 0000000cH

; 1704 : 
; 1705 :             x1 = convert_y_range_from_yc48(x1, xC_Y_L_MA_16, Y_L_RSH_16, xC_YCC, xC_pw_one);

  00435	0f 28 05 00 00
	00 00		 movaps	 xmm0, XMMWORD PTR ?Array_Y_L_MA_16@@3QBFB
  0043c	0f 29 85 70 fd
	ff ff		 movaps	 XMMWORD PTR $T15[ebp], xmm0
  00443	8d 45 b0	 lea	 eax, DWORD PTR _xC_pw_one$[ebp]
  00446	50		 push	 eax
  00447	8d 8d 70 ff ff
	ff		 lea	 ecx, DWORD PTR _xC_YCC$[ebp]
  0044d	51		 push	 ecx
  0044e	6a 04		 push	 4
  00450	8d 95 70 fd ff
	ff		 lea	 edx, DWORD PTR $T15[ebp]
  00456	52		 push	 edx
  00457	0f 28 85 30 ff
	ff ff		 movaps	 xmm0, XMMWORD PTR _x1$[ebp]
  0045e	e8 00 00 00 00	 call	 ?convert_y_range_from_yc48@@YA?AT__m128i@@T1@ABT1@H11@Z ; convert_y_range_from_yc48
  00463	83 c4 10	 add	 esp, 16			; 00000010H
  00466	0f 29 85 60 fd
	ff ff		 movaps	 XMMWORD PTR $T14[ebp], xmm0
  0046d	0f 28 85 60 fd
	ff ff		 movaps	 xmm0, XMMWORD PTR $T14[ebp]
  00474	0f 29 85 30 ff
	ff ff		 movaps	 XMMWORD PTR _x1$[ebp], xmm0

; 1706 :             x2 = convert_uv_range_from_yc48(x2, _mm_set1_epi16(UV_OFFSET_x1), xC_UV_L_MA_16_444, UV_L_RSH_16_444, xC_YCC, xC_pw_one);

  0047b	0f 28 05 00 00
	00 00		 movaps	 xmm0, XMMWORD PTR ?Array_UV_L_MA_16_444@@3QBFB
  00482	0f 29 85 40 fd
	ff ff		 movaps	 XMMWORD PTR $T12[ebp], xmm0
  00489	0f 28 05 00 00
	00 00		 movaps	 xmm0, XMMWORD PTR __xmm@08000800080008000800080008000800
  00490	0f 29 85 50 fd
	ff ff		 movaps	 XMMWORD PTR $T13[ebp], xmm0
  00497	8d 45 b0	 lea	 eax, DWORD PTR _xC_pw_one$[ebp]
  0049a	50		 push	 eax
  0049b	0f 28 8d 70 ff
	ff ff		 movaps	 xmm1, XMMWORD PTR _xC_YCC$[ebp]
  004a2	6a 00		 push	 0
  004a4	8d 8d 40 fd ff
	ff		 lea	 ecx, DWORD PTR $T12[ebp]
  004aa	51		 push	 ecx
  004ab	8d 95 50 fd ff
	ff		 lea	 edx, DWORD PTR $T13[ebp]
  004b1	52		 push	 edx
  004b2	0f 28 85 10 ff
	ff ff		 movaps	 xmm0, XMMWORD PTR _x2$[ebp]
  004b9	e8 00 00 00 00	 call	 ?convert_uv_range_from_yc48@@YA?AT__m128i@@T1@ABT1@1H01@Z ; convert_uv_range_from_yc48
  004be	83 c4 10	 add	 esp, 16			; 00000010H
  004c1	0f 29 85 30 fd
	ff ff		 movaps	 XMMWORD PTR $T11[ebp], xmm0
  004c8	0f 28 85 30 fd
	ff ff		 movaps	 xmm0, XMMWORD PTR $T11[ebp]
  004cf	0f 29 85 10 ff
	ff ff		 movaps	 XMMWORD PTR _x2$[ebp], xmm0

; 1707 :             x3 = convert_uv_range_from_yc48(x3, _mm_set1_epi16(UV_OFFSET_x1), xC_UV_L_MA_16_444, UV_L_RSH_16_444, xC_YCC, xC_pw_one);

  004d6	0f 28 05 00 00
	00 00		 movaps	 xmm0, XMMWORD PTR ?Array_UV_L_MA_16_444@@3QBFB
  004dd	0f 29 85 10 fd
	ff ff		 movaps	 XMMWORD PTR $T9[ebp], xmm0
  004e4	0f 28 05 00 00
	00 00		 movaps	 xmm0, XMMWORD PTR __xmm@08000800080008000800080008000800
  004eb	0f 29 85 20 fd
	ff ff		 movaps	 XMMWORD PTR $T10[ebp], xmm0
  004f2	8d 45 b0	 lea	 eax, DWORD PTR _xC_pw_one$[ebp]
  004f5	50		 push	 eax
  004f6	0f 28 8d 70 ff
	ff ff		 movaps	 xmm1, XMMWORD PTR _xC_YCC$[ebp]
  004fd	6a 00		 push	 0
  004ff	8d 8d 10 fd ff
	ff		 lea	 ecx, DWORD PTR $T9[ebp]
  00505	51		 push	 ecx
  00506	8d 95 20 fd ff
	ff		 lea	 edx, DWORD PTR $T10[ebp]
  0050c	52		 push	 edx
  0050d	0f 28 85 f0 fe
	ff ff		 movaps	 xmm0, XMMWORD PTR _x3$[ebp]
  00514	e8 00 00 00 00	 call	 ?convert_uv_range_from_yc48@@YA?AT__m128i@@T1@ABT1@1H01@Z ; convert_uv_range_from_yc48
  00519	83 c4 10	 add	 esp, 16			; 00000010H
  0051c	0f 29 85 00 fd
	ff ff		 movaps	 XMMWORD PTR $T8[ebp], xmm0
  00523	0f 28 85 00 fd
	ff ff		 movaps	 xmm0, XMMWORD PTR $T8[ebp]
  0052a	0f 29 85 f0 fe
	ff ff		 movaps	 XMMWORD PTR _x3$[ebp], xmm0

; 1708 :             x1 = _mm_srli_epi16(x1, 8);

  00531	0f 28 85 30 ff
	ff ff		 movaps	 xmm0, XMMWORD PTR _x1$[ebp]
  00538	66 0f 71 d0 08	 psrlw	 xmm0, 8
  0053d	0f 29 85 f0 fc
	ff ff		 movaps	 XMMWORD PTR $T7[ebp], xmm0
  00544	0f 28 85 f0 fc
	ff ff		 movaps	 xmm0, XMMWORD PTR $T7[ebp]
  0054b	0f 29 85 30 ff
	ff ff		 movaps	 XMMWORD PTR _x1$[ebp], xmm0

; 1709 :             x2 = _mm_srli_epi16(x2, 8);

  00552	0f 28 85 10 ff
	ff ff		 movaps	 xmm0, XMMWORD PTR _x2$[ebp]
  00559	66 0f 71 d0 08	 psrlw	 xmm0, 8
  0055e	0f 29 85 e0 fc
	ff ff		 movaps	 XMMWORD PTR $T6[ebp], xmm0
  00565	0f 28 85 e0 fc
	ff ff		 movaps	 xmm0, XMMWORD PTR $T6[ebp]
  0056c	0f 29 85 10 ff
	ff ff		 movaps	 XMMWORD PTR _x2$[ebp], xmm0

; 1710 :             x3 = _mm_srli_epi16(x3, 8);

  00573	0f 28 85 f0 fe
	ff ff		 movaps	 xmm0, XMMWORD PTR _x3$[ebp]
  0057a	66 0f 71 d0 08	 psrlw	 xmm0, 8
  0057f	0f 29 85 d0 fc
	ff ff		 movaps	 XMMWORD PTR $T5[ebp], xmm0
  00586	0f 28 85 d0 fc
	ff ff		 movaps	 xmm0, XMMWORD PTR $T5[ebp]
  0058d	0f 29 85 f0 fe
	ff ff		 movaps	 XMMWORD PTR _x3$[ebp], xmm0

; 1711 : 
; 1712 :             xY = _mm_packus_epi16(xY, x1);

  00594	0f 28 85 d0 fe
	ff ff		 movaps	 xmm0, XMMWORD PTR _xY$[ebp]
  0059b	66 0f 67 85 30
	ff ff ff	 packuswb xmm0, XMMWORD PTR _x1$[ebp]
  005a3	0f 29 85 c0 fc
	ff ff		 movaps	 XMMWORD PTR $T4[ebp], xmm0
  005aa	0f 28 85 c0 fc
	ff ff		 movaps	 xmm0, XMMWORD PTR $T4[ebp]
  005b1	0f 29 85 d0 fe
	ff ff		 movaps	 XMMWORD PTR _xY$[ebp], xmm0

; 1713 :             xU = _mm_packus_epi16(xU, x2);

  005b8	0f 28 85 c0 fe
	ff ff		 movaps	 xmm0, XMMWORD PTR _xU$[ebp]
  005bf	66 0f 67 85 10
	ff ff ff	 packuswb xmm0, XMMWORD PTR _x2$[ebp]
  005c7	0f 29 85 b0 fc
	ff ff		 movaps	 XMMWORD PTR $T3[ebp], xmm0
  005ce	0f 28 85 b0 fc
	ff ff		 movaps	 xmm0, XMMWORD PTR $T3[ebp]
  005d5	0f 29 85 c0 fe
	ff ff		 movaps	 XMMWORD PTR _xU$[ebp], xmm0

; 1714 :             xV = _mm_packus_epi16(xV, x3);

  005dc	0f 28 85 b0 fe
	ff ff		 movaps	 xmm0, XMMWORD PTR _xV$[ebp]
  005e3	66 0f 67 85 f0
	fe ff ff	 packuswb xmm0, XMMWORD PTR _x3$[ebp]
  005eb	0f 29 85 a0 fc
	ff ff		 movaps	 XMMWORD PTR $T2[ebp], xmm0
  005f2	0f 28 85 a0 fc
	ff ff		 movaps	 xmm0, XMMWORD PTR $T2[ebp]
  005f9	0f 29 85 b0 fe
	ff ff		 movaps	 XMMWORD PTR _xV$[ebp], xmm0

; 1715 : 
; 1716 :             _mm_store_switch_si128((__m128i*)Y, xY);

  00600	33 c0		 xor	 eax, eax
  00602	74 1c		 je	 SHORT $LN9@convert_yc
  00604	0f 28 85 d0 fe
	ff ff		 movaps	 xmm0, XMMWORD PTR _xY$[ebp]
  0060b	8b 8d a8 fe ff
	ff		 mov	 ecx, DWORD PTR _Y$37[ebp]
  00611	0f 11 01	 movups	 XMMWORD PTR [ecx], xmm0
  00614	c7 85 8c fc ff
	ff 00 00 00 00	 mov	 DWORD PTR tv322[ebp], 0
  0061e	eb 1a		 jmp	 SHORT $LN10@convert_yc
$LN9@convert_yc:
  00620	0f 10 85 d0 fe
	ff ff		 movups	 xmm0, XMMWORD PTR _xY$[ebp]
  00627	8b 95 a8 fe ff
	ff		 mov	 edx, DWORD PTR _Y$37[ebp]
  0062d	0f 11 02	 movups	 XMMWORD PTR [edx], xmm0
  00630	c7 85 8c fc ff
	ff 00 00 00 00	 mov	 DWORD PTR tv322[ebp], 0
$LN10@convert_yc:

; 1717 :             _mm_store_switch_si128((__m128i*)U, xU);

  0063a	33 c0		 xor	 eax, eax
  0063c	74 1c		 je	 SHORT $LN11@convert_yc
  0063e	0f 28 85 c0 fe
	ff ff		 movaps	 xmm0, XMMWORD PTR _xU$[ebp]
  00645	8b 8d a4 fe ff
	ff		 mov	 ecx, DWORD PTR _U$36[ebp]
  0064b	0f 11 01	 movups	 XMMWORD PTR [ecx], xmm0
  0064e	c7 85 88 fc ff
	ff 00 00 00 00	 mov	 DWORD PTR tv328[ebp], 0
  00658	eb 1a		 jmp	 SHORT $LN12@convert_yc
$LN11@convert_yc:
  0065a	0f 10 85 c0 fe
	ff ff		 movups	 xmm0, XMMWORD PTR _xU$[ebp]
  00661	8b 95 a4 fe ff
	ff		 mov	 edx, DWORD PTR _U$36[ebp]
  00667	0f 11 02	 movups	 XMMWORD PTR [edx], xmm0
  0066a	c7 85 88 fc ff
	ff 00 00 00 00	 mov	 DWORD PTR tv328[ebp], 0
$LN12@convert_yc:

; 1718 :             _mm_store_switch_si128((__m128i*)V, xV);

  00674	33 c0		 xor	 eax, eax
  00676	74 1c		 je	 SHORT $LN13@convert_yc
  00678	0f 28 85 b0 fe
	ff ff		 movaps	 xmm0, XMMWORD PTR _xV$[ebp]
  0067f	8b 8d a0 fe ff
	ff		 mov	 ecx, DWORD PTR _V$35[ebp]
  00685	0f 11 01	 movups	 XMMWORD PTR [ecx], xmm0
  00688	c7 85 84 fc ff
	ff 00 00 00 00	 mov	 DWORD PTR tv334[ebp], 0
  00692	eb 1a		 jmp	 SHORT $LN14@convert_yc
$LN13@convert_yc:
  00694	0f 10 85 b0 fe
	ff ff		 movups	 xmm0, XMMWORD PTR _xV$[ebp]
  0069b	8b 95 a0 fe ff
	ff		 mov	 edx, DWORD PTR _V$35[ebp]
  006a1	0f 11 02	 movups	 XMMWORD PTR [edx], xmm0
  006a4	c7 85 84 fc ff
	ff 00 00 00 00	 mov	 DWORD PTR tv334[ebp], 0
$LN14@convert_yc:

; 1719 :         }

  006ae	e9 d8 fa ff ff	 jmp	 $LN5@convert_yc
$LN6@convert_yc:

; 1720 :     }

  006b3	e9 5b fa ff ff	 jmp	 $LN2@convert_yc
$LN1@convert_yc:

; 1721 : }

  006b8	52		 push	 edx
  006b9	8b cd		 mov	 ecx, ebp
  006bb	50		 push	 eax
  006bc	8d 15 00 00 00
	00		 lea	 edx, DWORD PTR $LN22@convert_yc
  006c2	e8 00 00 00 00	 call	 @_RTC_CheckStackVars@8
  006c7	58		 pop	 eax
  006c8	5a		 pop	 edx
  006c9	5f		 pop	 edi
  006ca	8b 4d fc	 mov	 ecx, DWORD PTR __$ArrayPad$[ebp]
  006cd	33 cd		 xor	 ecx, ebp
  006cf	e8 00 00 00 00	 call	 @__security_check_cookie@4
  006d4	8b e5		 mov	 esp, ebp
  006d6	5d		 pop	 ebp
  006d7	8b e3		 mov	 esp, ebx
  006d9	5b		 pop	 ebx
  006da	c3		 ret	 0
  006db	90		 npad	 1
$LN22@convert_yc:
  006dc	06 00 00 00	 DD	 6
  006e0	00 00 00 00	 DD	 $LN21@convert_yc
$LN21@convert_yc:
  006e4	ec ff ff ff	 DD	 -20			; ffffffecH
  006e8	0c 00 00 00	 DD	 12			; 0000000cH
  006ec	00 00 00 00	 DD	 $LN15@convert_yc
  006f0	b0 ff ff ff	 DD	 -80			; ffffffb0H
  006f4	10 00 00 00	 DD	 16			; 00000010H
  006f8	00 00 00 00	 DD	 $LN16@convert_yc
  006fc	70 ff ff ff	 DD	 -144			; ffffff70H
  00700	10 00 00 00	 DD	 16			; 00000010H
  00704	00 00 00 00	 DD	 $LN17@convert_yc
  00708	30 ff ff ff	 DD	 -208			; ffffff30H
  0070c	10 00 00 00	 DD	 16			; 00000010H
  00710	00 00 00 00	 DD	 $LN18@convert_yc
  00714	10 ff ff ff	 DD	 -240			; ffffff10H
  00718	10 00 00 00	 DD	 16			; 00000010H
  0071c	00 00 00 00	 DD	 $LN19@convert_yc
  00720	f0 fe ff ff	 DD	 -272			; fffffef0H
  00724	10 00 00 00	 DD	 16			; 00000010H
  00728	00 00 00 00	 DD	 $LN20@convert_yc
$LN20@convert_yc:
  0072c	78		 DB	 120			; 00000078H
  0072d	33		 DB	 51			; 00000033H
  0072e	00		 DB	 0
$LN19@convert_yc:
  0072f	78		 DB	 120			; 00000078H
  00730	32		 DB	 50			; 00000032H
  00731	00		 DB	 0
$LN18@convert_yc:
  00732	78		 DB	 120			; 00000078H
  00733	31		 DB	 49			; 00000031H
  00734	00		 DB	 0
$LN17@convert_yc:
  00735	78		 DB	 120			; 00000078H
  00736	43		 DB	 67			; 00000043H
  00737	5f		 DB	 95			; 0000005fH
  00738	59		 DB	 89			; 00000059H
  00739	43		 DB	 67			; 00000043H
  0073a	43		 DB	 67			; 00000043H
  0073b	00		 DB	 0
$LN16@convert_yc:
  0073c	78		 DB	 120			; 00000078H
  0073d	43		 DB	 67			; 00000043H
  0073e	5f		 DB	 95			; 0000005fH
  0073f	70		 DB	 112			; 00000070H
  00740	77		 DB	 119			; 00000077H
  00741	5f		 DB	 95			; 0000005fH
  00742	6f		 DB	 111			; 0000006fH
  00743	6e		 DB	 110			; 0000006eH
  00744	65		 DB	 101			; 00000065H
  00745	00		 DB	 0
$LN15@convert_yc:
  00746	79		 DB	 121			; 00000079H
  00747	5f		 DB	 95			; 0000005fH
  00748	72		 DB	 114			; 00000072H
  00749	61		 DB	 97			; 00000061H
  0074a	6e		 DB	 110			; 0000006eH
  0074b	67		 DB	 103			; 00000067H
  0074c	65		 DB	 101			; 00000065H
  0074d	00		 DB	 0
??$convert_yc48_to_yuv444_simd@$0A@@@YAXPAPAXPAPBXHHHHHHHHPAH@Z ENDP ; convert_yc48_to_yuv444_simd<0>
_TEXT	ENDS
; Function compile flags: /Odtp /RTCsu
; File D:\work\intel\intel_codec\QSVPipeline\convert_csp_sse2.cpp
_TEXT	SEGMENT
_dst$ = 8						; size = 4
_src$ = 12						; size = 4
_width$ = 16						; size = 4
_src_y_pitch_byte$ = 20					; size = 4
_src_uv_pitch_byte$ = 24				; size = 4
_dst_y_pitch_byte$ = 28					; size = 4
_height$ = 32						; size = 4
_dst_height$ = 36					; size = 4
_thread_id$ = 40					; size = 4
_thread_n$ = 44						; size = 4
_crop$ = 48						; size = 4
?convert_yc48_to_yuv444_sse2@@YAXPAPAXPAPBXHHHHHHHHPAH@Z PROC ; convert_yc48_to_yuv444_sse2

; 201  : void convert_yc48_to_yuv444_sse2(void **dst, const void **src, int width, int src_y_pitch_byte, int src_uv_pitch_byte, int dst_y_pitch_byte, int height, int dst_height, int thread_id, int thread_n, int *crop) {

  00000	55		 push	 ebp
  00001	8b ec		 mov	 ebp, esp

; 202  :     convert_yc48_to_yuv444_simd<false>(dst, src, width, src_y_pitch_byte, src_uv_pitch_byte, dst_y_pitch_byte, height, dst_height, thread_id, thread_n, crop);

  00003	8b 45 30	 mov	 eax, DWORD PTR _crop$[ebp]
  00006	50		 push	 eax
  00007	8b 4d 2c	 mov	 ecx, DWORD PTR _thread_n$[ebp]
  0000a	51		 push	 ecx
  0000b	8b 55 28	 mov	 edx, DWORD PTR _thread_id$[ebp]
  0000e	52		 push	 edx
  0000f	8b 45 24	 mov	 eax, DWORD PTR _dst_height$[ebp]
  00012	50		 push	 eax
  00013	8b 4d 20	 mov	 ecx, DWORD PTR _height$[ebp]
  00016	51		 push	 ecx
  00017	8b 55 1c	 mov	 edx, DWORD PTR _dst_y_pitch_byte$[ebp]
  0001a	52		 push	 edx
  0001b	8b 45 18	 mov	 eax, DWORD PTR _src_uv_pitch_byte$[ebp]
  0001e	50		 push	 eax
  0001f	8b 4d 14	 mov	 ecx, DWORD PTR _src_y_pitch_byte$[ebp]
  00022	51		 push	 ecx
  00023	8b 55 10	 mov	 edx, DWORD PTR _width$[ebp]
  00026	52		 push	 edx
  00027	8b 45 0c	 mov	 eax, DWORD PTR _src$[ebp]
  0002a	50		 push	 eax
  0002b	8b 4d 08	 mov	 ecx, DWORD PTR _dst$[ebp]
  0002e	51		 push	 ecx
  0002f	e8 00 00 00 00	 call	 ??$convert_yc48_to_yuv444_simd@$0A@@@YAXPAPAXPAPBXHHHHHHHHPAH@Z ; convert_yc48_to_yuv444_simd<0>
  00034	83 c4 2c	 add	 esp, 44			; 0000002cH

; 203  : }

  00037	3b ec		 cmp	 ebp, esp
  00039	e8 00 00 00 00	 call	 __RTC_CheckEsp
  0003e	5d		 pop	 ebp
  0003f	c3		 ret	 0
?convert_yc48_to_yuv444_sse2@@YAXPAPAXPAPBXHHHHHHHHPAH@Z ENDP ; convert_yc48_to_yuv444_sse2
_TEXT	ENDS
; Function compile flags: /Odtp /RTCsu
; File D:\work\intel\intel_codec\QSVPipeline\convert_csp_simd.h
_TEXT	SEGMENT
$T1 = -224						; size = 12
$T2 = -208						; size = 16
$T3 = -192						; size = 16
$T4 = -176						; size = 16
$T5 = -160						; size = 16
_x1$6 = -144						; size = 16
$T7 = -128						; size = 16
_x0$8 = -112						; size = 16
_x$9 = -88						; size = 4
_dst_ptr$10 = -84					; size = 4
_src_ptr$11 = -80					; size = 4
_y$12 = -76						; size = 4
_y_width$13 = -72					; size = 4
_dstLine$14 = -68					; size = 4
_srcYLine$15 = -64					; size = 4
_i$16 = -60						; size = 4
$T17 = -56						; size = 12
_y_range$ = -40						; size = 12
_src_y_pitch$ = -24					; size = 4
_crop_bottom$ = -20					; size = 4
_crop_right$ = -16					; size = 4
_crop_up$ = -12						; size = 4
_crop_left$ = -8					; size = 4
__$ArrayPad$ = -4					; size = 4
_dst$ = 8						; size = 4
_src$ = 12						; size = 4
_width$ = 16						; size = 4
_src_y_pitch_byte$ = 20					; size = 4
_src_uv_pitch_byte$ = 24				; size = 4
_dst_y_pitch_byte$ = 28					; size = 4
_height$ = 32						; size = 4
_dst_height$ = 36					; size = 4
_thread_id$ = 40					; size = 4
_thread_n$ = 44						; size = 4
_crop$ = 48						; size = 4
??$convert_yuv444_high_to_yuv444_simd@$08@@YAXPAPAXPAPBXHHHHHHHHPAH@Z PROC ; convert_yuv444_high_to_yuv444_simd<9>

; 1281 : static void __forceinline convert_yuv444_high_to_yuv444_simd(void **dst, const void **src, int width, int src_y_pitch_byte, int src_uv_pitch_byte, int dst_y_pitch_byte, int height, int dst_height, int thread_id, int thread_n, int *crop) {

  00000	53		 push	 ebx
  00001	8b dc		 mov	 ebx, esp
  00003	83 ec 08	 sub	 esp, 8
  00006	83 e4 f0	 and	 esp, -16		; fffffff0H
  00009	83 c4 04	 add	 esp, 4
  0000c	55		 push	 ebp
  0000d	8b 6b 04	 mov	 ebp, DWORD PTR [ebx+4]
  00010	89 6c 24 04	 mov	 DWORD PTR [esp+4], ebp
  00014	8b ec		 mov	 ebp, esp
  00016	81 ec e0 00 00
	00		 sub	 esp, 224		; 000000e0H
  0001c	57		 push	 edi
  0001d	8d bd 20 ff ff
	ff		 lea	 edi, DWORD PTR [ebp-224]
  00023	b9 38 00 00 00	 mov	 ecx, 56			; 00000038H
  00028	b8 cc cc cc cc	 mov	 eax, -858993460		; ccccccccH
  0002d	f3 ab		 rep stosd
  0002f	a1 00 00 00 00	 mov	 eax, DWORD PTR ___security_cookie
  00034	33 c5		 xor	 eax, ebp
  00036	89 45 fc	 mov	 DWORD PTR __$ArrayPad$[ebp], eax

; 1282 :     static_assert(8 < in_bit_depth && in_bit_depth <= 16, "in_bit_depth must be 9-16.");
; 1283 :     const int crop_left   = crop[0];

  00039	b8 04 00 00 00	 mov	 eax, 4
  0003e	6b c8 00	 imul	 ecx, eax, 0
  00041	8b 53 30	 mov	 edx, DWORD PTR _crop$[ebx]
  00044	8b 04 0a	 mov	 eax, DWORD PTR [edx+ecx]
  00047	89 45 f8	 mov	 DWORD PTR _crop_left$[ebp], eax

; 1284 :     const int crop_up     = crop[1];

  0004a	b9 04 00 00 00	 mov	 ecx, 4
  0004f	c1 e1 00	 shl	 ecx, 0
  00052	8b 53 30	 mov	 edx, DWORD PTR _crop$[ebx]
  00055	8b 04 0a	 mov	 eax, DWORD PTR [edx+ecx]
  00058	89 45 f4	 mov	 DWORD PTR _crop_up$[ebp], eax

; 1285 :     const int crop_right  = crop[2];

  0005b	b9 04 00 00 00	 mov	 ecx, 4
  00060	d1 e1		 shl	 ecx, 1
  00062	8b 53 30	 mov	 edx, DWORD PTR _crop$[ebx]
  00065	8b 04 0a	 mov	 eax, DWORD PTR [edx+ecx]
  00068	89 45 f0	 mov	 DWORD PTR _crop_right$[ebp], eax

; 1286 :     const int crop_bottom = crop[3];

  0006b	b9 04 00 00 00	 mov	 ecx, 4
  00070	6b d1 03	 imul	 edx, ecx, 3
  00073	8b 43 30	 mov	 eax, DWORD PTR _crop$[ebx]
  00076	8b 0c 10	 mov	 ecx, DWORD PTR [eax+edx]
  00079	89 4d ec	 mov	 DWORD PTR _crop_bottom$[ebp], ecx

; 1287 :     const int src_y_pitch = src_y_pitch_byte >> 1;

  0007c	8b 53 14	 mov	 edx, DWORD PTR _src_y_pitch_byte$[ebx]
  0007f	d1 fa		 sar	 edx, 1
  00081	89 55 e8	 mov	 DWORD PTR _src_y_pitch$[ebp], edx

; 1288 :     const auto y_range = thread_y_range(crop_up, height - crop_bottom, thread_id, thread_n);

  00084	8b 43 2c	 mov	 eax, DWORD PTR _thread_n$[ebx]
  00087	50		 push	 eax
  00088	8b 4b 28	 mov	 ecx, DWORD PTR _thread_id$[ebx]
  0008b	51		 push	 ecx
  0008c	8b 53 20	 mov	 edx, DWORD PTR _height$[ebx]
  0008f	2b 55 ec	 sub	 edx, DWORD PTR _crop_bottom$[ebp]
  00092	52		 push	 edx
  00093	8b 45 f4	 mov	 eax, DWORD PTR _crop_up$[ebp]
  00096	50		 push	 eax
  00097	8d 8d 20 ff ff
	ff		 lea	 ecx, DWORD PTR $T1[ebp]
  0009d	51		 push	 ecx
  0009e	e8 00 00 00 00	 call	 ?thread_y_range@@YA?AUTHREAD_Y_RANGE@@HHHH@Z ; thread_y_range
  000a3	83 c4 14	 add	 esp, 20			; 00000014H
  000a6	8b 10		 mov	 edx, DWORD PTR [eax]
  000a8	89 55 c8	 mov	 DWORD PTR $T17[ebp], edx
  000ab	8b 48 04	 mov	 ecx, DWORD PTR [eax+4]
  000ae	89 4d cc	 mov	 DWORD PTR $T17[ebp+4], ecx
  000b1	8b 50 08	 mov	 edx, DWORD PTR [eax+8]
  000b4	89 55 d0	 mov	 DWORD PTR $T17[ebp+8], edx
  000b7	8b 45 c8	 mov	 eax, DWORD PTR $T17[ebp]
  000ba	89 45 d8	 mov	 DWORD PTR _y_range$[ebp], eax
  000bd	8b 4d cc	 mov	 ecx, DWORD PTR $T17[ebp+4]
  000c0	89 4d dc	 mov	 DWORD PTR _y_range$[ebp+4], ecx
  000c3	8b 55 d0	 mov	 edx, DWORD PTR $T17[ebp+8]
  000c6	89 55 e0	 mov	 DWORD PTR _y_range$[ebp+8], edx

; 1289 :     for (int i = 0; i < 3; i++) {

  000c9	c7 45 c4 00 00
	00 00		 mov	 DWORD PTR _i$16[ebp], 0
  000d0	eb 09		 jmp	 SHORT $LN4@convert_yu
$LN2@convert_yu:
  000d2	8b 45 c4	 mov	 eax, DWORD PTR _i$16[ebp]
  000d5	83 c0 01	 add	 eax, 1
  000d8	89 45 c4	 mov	 DWORD PTR _i$16[ebp], eax
$LN4@convert_yu:
  000db	83 7d c4 03	 cmp	 DWORD PTR _i$16[ebp], 3
  000df	0f 8d 4d 01 00
	00		 jge	 $LN1@convert_yu

; 1290 :         uint16_t *srcYLine = (uint16_t *)src[i] + src_y_pitch * y_range.start_src + crop_left;

  000e5	8b 4d e8	 mov	 ecx, DWORD PTR _src_y_pitch$[ebp]
  000e8	0f af 4d d8	 imul	 ecx, DWORD PTR _y_range$[ebp]
  000ec	8b 55 c4	 mov	 edx, DWORD PTR _i$16[ebp]
  000ef	8b 43 0c	 mov	 eax, DWORD PTR _src$[ebx]
  000f2	8b 14 90	 mov	 edx, DWORD PTR [eax+edx*4]
  000f5	8d 04 4a	 lea	 eax, DWORD PTR [edx+ecx*2]
  000f8	8b 4d f8	 mov	 ecx, DWORD PTR _crop_left$[ebp]
  000fb	8d 14 48	 lea	 edx, DWORD PTR [eax+ecx*2]
  000fe	89 55 c0	 mov	 DWORD PTR _srcYLine$15[ebp], edx

; 1291 :         uint8_t *dstLine = (uint8_t *)dst[i] + dst_y_pitch_byte * y_range.start_dst;

  00101	8b 43 1c	 mov	 eax, DWORD PTR _dst_y_pitch_byte$[ebx]
  00104	0f af 45 dc	 imul	 eax, DWORD PTR _y_range$[ebp+4]
  00108	8b 4d c4	 mov	 ecx, DWORD PTR _i$16[ebp]
  0010b	8b 53 08	 mov	 edx, DWORD PTR _dst$[ebx]
  0010e	03 04 8a	 add	 eax, DWORD PTR [edx+ecx*4]
  00111	89 45 bc	 mov	 DWORD PTR _dstLine$14[ebp], eax

; 1292 :         const int y_width = width - crop_right - crop_left;

  00114	8b 43 10	 mov	 eax, DWORD PTR _width$[ebx]
  00117	2b 45 f0	 sub	 eax, DWORD PTR _crop_right$[ebp]
  0011a	2b 45 f8	 sub	 eax, DWORD PTR _crop_left$[ebp]
  0011d	89 45 b8	 mov	 DWORD PTR _y_width$13[ebp], eax

; 1293 :         for (int y = 0; y < y_range.len; y++, srcYLine += src_y_pitch, dstLine += dst_y_pitch_byte) {

  00120	c7 45 b4 00 00
	00 00		 mov	 DWORD PTR _y$12[ebp], 0
  00127	eb 1e		 jmp	 SHORT $LN7@convert_yu
$LN5@convert_yu:
  00129	8b 4d b4	 mov	 ecx, DWORD PTR _y$12[ebp]
  0012c	83 c1 01	 add	 ecx, 1
  0012f	89 4d b4	 mov	 DWORD PTR _y$12[ebp], ecx
  00132	8b 55 e8	 mov	 edx, DWORD PTR _src_y_pitch$[ebp]
  00135	8b 45 c0	 mov	 eax, DWORD PTR _srcYLine$15[ebp]
  00138	8d 0c 50	 lea	 ecx, DWORD PTR [eax+edx*2]
  0013b	89 4d c0	 mov	 DWORD PTR _srcYLine$15[ebp], ecx
  0013e	8b 55 bc	 mov	 edx, DWORD PTR _dstLine$14[ebp]
  00141	03 53 1c	 add	 edx, DWORD PTR _dst_y_pitch_byte$[ebx]
  00144	89 55 bc	 mov	 DWORD PTR _dstLine$14[ebp], edx
$LN7@convert_yu:
  00147	8b 45 b4	 mov	 eax, DWORD PTR _y$12[ebp]
  0014a	3b 45 e0	 cmp	 eax, DWORD PTR _y_range$[ebp+8]
  0014d	0f 8d da 00 00
	00		 jge	 $LN6@convert_yu

; 1294 :             uint16_t *src_ptr = srcYLine;

  00153	8b 4d c0	 mov	 ecx, DWORD PTR _srcYLine$15[ebp]
  00156	89 4d b0	 mov	 DWORD PTR _src_ptr$11[ebp], ecx

; 1295 :             uint8_t *dst_ptr = dstLine;

  00159	8b 55 bc	 mov	 edx, DWORD PTR _dstLine$14[ebp]
  0015c	89 55 ac	 mov	 DWORD PTR _dst_ptr$10[ebp], edx

; 1296 :             for (int x = 0; x < y_width; x += 16, dst_ptr += 16, src_ptr += 16) {

  0015f	c7 45 a8 00 00
	00 00		 mov	 DWORD PTR _x$9[ebp], 0
  00166	eb 1b		 jmp	 SHORT $LN10@convert_yu
$LN8@convert_yu:
  00168	8b 45 a8	 mov	 eax, DWORD PTR _x$9[ebp]
  0016b	83 c0 10	 add	 eax, 16			; 00000010H
  0016e	89 45 a8	 mov	 DWORD PTR _x$9[ebp], eax
  00171	8b 4d ac	 mov	 ecx, DWORD PTR _dst_ptr$10[ebp]
  00174	83 c1 10	 add	 ecx, 16			; 00000010H
  00177	89 4d ac	 mov	 DWORD PTR _dst_ptr$10[ebp], ecx
  0017a	8b 55 b0	 mov	 edx, DWORD PTR _src_ptr$11[ebp]
  0017d	83 c2 20	 add	 edx, 32			; 00000020H
  00180	89 55 b0	 mov	 DWORD PTR _src_ptr$11[ebp], edx
$LN10@convert_yu:
  00183	8b 45 a8	 mov	 eax, DWORD PTR _x$9[ebp]
  00186	3b 45 b8	 cmp	 eax, DWORD PTR _y_width$13[ebp]
  00189	0f 8d 99 00 00
	00		 jge	 $LN9@convert_yu

; 1297 :                 __m128i x0 = _mm_loadu_si128((const __m128i *)(src_ptr + 0));

  0018f	8b 4d b0	 mov	 ecx, DWORD PTR _src_ptr$11[ebp]
  00192	0f 10 01	 movups	 xmm0, XMMWORD PTR [ecx]
  00195	0f 29 45 80	 movaps	 XMMWORD PTR $T7[ebp], xmm0
  00199	0f 28 45 80	 movaps	 xmm0, XMMWORD PTR $T7[ebp]
  0019d	0f 29 45 90	 movaps	 XMMWORD PTR _x0$8[ebp], xmm0

; 1298 :                 __m128i x1 = _mm_loadu_si128((const __m128i *)(src_ptr + 8));

  001a1	8b 55 b0	 mov	 edx, DWORD PTR _src_ptr$11[ebp]
  001a4	83 c2 10	 add	 edx, 16			; 00000010H
  001a7	0f 10 02	 movups	 xmm0, XMMWORD PTR [edx]
  001aa	0f 29 85 60 ff
	ff ff		 movaps	 XMMWORD PTR $T5[ebp], xmm0
  001b1	0f 28 85 60 ff
	ff ff		 movaps	 xmm0, XMMWORD PTR $T5[ebp]
  001b8	0f 29 85 70 ff
	ff ff		 movaps	 XMMWORD PTR _x1$6[ebp], xmm0

; 1299 :                 x0 = _mm_srli_epi16(x0, in_bit_depth - 8);

  001bf	0f 28 45 90	 movaps	 xmm0, XMMWORD PTR _x0$8[ebp]
  001c3	66 0f 71 d0 01	 psrlw	 xmm0, 1
  001c8	0f 29 85 50 ff
	ff ff		 movaps	 XMMWORD PTR $T4[ebp], xmm0
  001cf	0f 28 85 50 ff
	ff ff		 movaps	 xmm0, XMMWORD PTR $T4[ebp]
  001d6	0f 29 45 90	 movaps	 XMMWORD PTR _x0$8[ebp], xmm0

; 1300 :                 x1 = _mm_srli_epi16(x1, in_bit_depth - 8);

  001da	0f 28 85 70 ff
	ff ff		 movaps	 xmm0, XMMWORD PTR _x1$6[ebp]
  001e1	66 0f 71 d0 01	 psrlw	 xmm0, 1
  001e6	0f 29 85 40 ff
	ff ff		 movaps	 XMMWORD PTR $T3[ebp], xmm0
  001ed	0f 28 85 40 ff
	ff ff		 movaps	 xmm0, XMMWORD PTR $T3[ebp]
  001f4	0f 29 85 70 ff
	ff ff		 movaps	 XMMWORD PTR _x1$6[ebp], xmm0

; 1301 :                 x0 = _mm_packus_epi16(x0, x1);

  001fb	0f 28 45 90	 movaps	 xmm0, XMMWORD PTR _x0$8[ebp]
  001ff	66 0f 67 85 70
	ff ff ff	 packuswb xmm0, XMMWORD PTR _x1$6[ebp]
  00207	0f 29 85 30 ff
	ff ff		 movaps	 XMMWORD PTR $T2[ebp], xmm0
  0020e	0f 28 85 30 ff
	ff ff		 movaps	 xmm0, XMMWORD PTR $T2[ebp]
  00215	0f 29 45 90	 movaps	 XMMWORD PTR _x0$8[ebp], xmm0

; 1302 :                 _mm_storeu_si128((__m128i *)dst_ptr, x0);

  00219	0f 10 45 90	 movups	 xmm0, XMMWORD PTR _x0$8[ebp]
  0021d	8b 45 ac	 mov	 eax, DWORD PTR _dst_ptr$10[ebp]
  00220	0f 11 00	 movups	 XMMWORD PTR [eax], xmm0

; 1303 :             }

  00223	e9 40 ff ff ff	 jmp	 $LN8@convert_yu
$LN9@convert_yu:

; 1304 :         }

  00228	e9 fc fe ff ff	 jmp	 $LN5@convert_yu
$LN6@convert_yu:

; 1305 :     }

  0022d	e9 a0 fe ff ff	 jmp	 $LN2@convert_yu
$LN1@convert_yu:

; 1306 : }

  00232	52		 push	 edx
  00233	8b cd		 mov	 ecx, ebp
  00235	50		 push	 eax
  00236	8d 15 00 00 00
	00		 lea	 edx, DWORD PTR $LN14@convert_yu
  0023c	e8 00 00 00 00	 call	 @_RTC_CheckStackVars@8
  00241	58		 pop	 eax
  00242	5a		 pop	 edx
  00243	5f		 pop	 edi
  00244	8b 4d fc	 mov	 ecx, DWORD PTR __$ArrayPad$[ebp]
  00247	33 cd		 xor	 ecx, ebp
  00249	e8 00 00 00 00	 call	 @__security_check_cookie@4
  0024e	8b e5		 mov	 esp, ebp
  00250	5d		 pop	 ebp
  00251	8b e3		 mov	 esp, ebx
  00253	5b		 pop	 ebx
  00254	c3		 ret	 0
  00255	0f 1f 00	 npad	 3
$LN14@convert_yu:
  00258	01 00 00 00	 DD	 1
  0025c	00 00 00 00	 DD	 $LN13@convert_yu
$LN13@convert_yu:
  00260	d8 ff ff ff	 DD	 -40			; ffffffd8H
  00264	0c 00 00 00	 DD	 12			; 0000000cH
  00268	00 00 00 00	 DD	 $LN12@convert_yu
$LN12@convert_yu:
  0026c	79		 DB	 121			; 00000079H
  0026d	5f		 DB	 95			; 0000005fH
  0026e	72		 DB	 114			; 00000072H
  0026f	61		 DB	 97			; 00000061H
  00270	6e		 DB	 110			; 0000006eH
  00271	67		 DB	 103			; 00000067H
  00272	65		 DB	 101			; 00000065H
  00273	00		 DB	 0
??$convert_yuv444_high_to_yuv444_simd@$08@@YAXPAPAXPAPBXHHHHHHHHPAH@Z ENDP ; convert_yuv444_high_to_yuv444_simd<9>
_TEXT	ENDS
; Function compile flags: /Odtp /RTCsu
; File D:\work\intel\intel_codec\QSVPipeline\convert_csp_sse2.cpp
_TEXT	SEGMENT
_dst$ = 8						; size = 4
_src$ = 12						; size = 4
_width$ = 16						; size = 4
_src_y_pitch_byte$ = 20					; size = 4
_src_uv_pitch_byte$ = 24				; size = 4
_dst_y_pitch_byte$ = 28					; size = 4
_height$ = 32						; size = 4
_dst_height$ = 36					; size = 4
_thread_id$ = 40					; size = 4
_thread_n$ = 44						; size = 4
_crop$ = 48						; size = 4
?convert_yuv444_09_to_yuv444_sse2@@YAXPAPAXPAPBXHHHHHHHHPAH@Z PROC ; convert_yuv444_09_to_yuv444_sse2

; 197  : void convert_yuv444_09_to_yuv444_sse2(void **dst, const void **src, int width, int src_y_pitch_byte, int src_uv_pitch_byte, int dst_y_pitch_byte, int height, int dst_height, int thread_id, int thread_n, int *crop) {

  00000	55		 push	 ebp
  00001	8b ec		 mov	 ebp, esp

; 198  :     convert_yuv444_high_to_yuv444_simd<9>(dst, src, width, src_y_pitch_byte, src_uv_pitch_byte, dst_y_pitch_byte, height, dst_height, thread_id, thread_n, crop);

  00003	8b 45 30	 mov	 eax, DWORD PTR _crop$[ebp]
  00006	50		 push	 eax
  00007	8b 4d 2c	 mov	 ecx, DWORD PTR _thread_n$[ebp]
  0000a	51		 push	 ecx
  0000b	8b 55 28	 mov	 edx, DWORD PTR _thread_id$[ebp]
  0000e	52		 push	 edx
  0000f	8b 45 24	 mov	 eax, DWORD PTR _dst_height$[ebp]
  00012	50		 push	 eax
  00013	8b 4d 20	 mov	 ecx, DWORD PTR _height$[ebp]
  00016	51		 push	 ecx
  00017	8b 55 1c	 mov	 edx, DWORD PTR _dst_y_pitch_byte$[ebp]
  0001a	52		 push	 edx
  0001b	8b 45 18	 mov	 eax, DWORD PTR _src_uv_pitch_byte$[ebp]
  0001e	50		 push	 eax
  0001f	8b 4d 14	 mov	 ecx, DWORD PTR _src_y_pitch_byte$[ebp]
  00022	51		 push	 ecx
  00023	8b 55 10	 mov	 edx, DWORD PTR _width$[ebp]
  00026	52		 push	 edx
  00027	8b 45 0c	 mov	 eax, DWORD PTR _src$[ebp]
  0002a	50		 push	 eax
  0002b	8b 4d 08	 mov	 ecx, DWORD PTR _dst$[ebp]
  0002e	51		 push	 ecx
  0002f	e8 00 00 00 00	 call	 ??$convert_yuv444_high_to_yuv444_simd@$08@@YAXPAPAXPAPBXHHHHHHHHPAH@Z ; convert_yuv444_high_to_yuv444_simd<9>
  00034	83 c4 2c	 add	 esp, 44			; 0000002cH

; 199  : }

  00037	3b ec		 cmp	 ebp, esp
  00039	e8 00 00 00 00	 call	 __RTC_CheckEsp
  0003e	5d		 pop	 ebp
  0003f	c3		 ret	 0
?convert_yuv444_09_to_yuv444_sse2@@YAXPAPAXPAPBXHHHHHHHHPAH@Z ENDP ; convert_yuv444_09_to_yuv444_sse2
_TEXT	ENDS
; Function compile flags: /Odtp /RTCsu
; File D:\work\intel\intel_codec\QSVPipeline\convert_csp_simd.h
_TEXT	SEGMENT
$T1 = -224						; size = 12
$T2 = -208						; size = 16
$T3 = -192						; size = 16
$T4 = -176						; size = 16
$T5 = -160						; size = 16
_x1$6 = -144						; size = 16
$T7 = -128						; size = 16
_x0$8 = -112						; size = 16
_x$9 = -88						; size = 4
_dst_ptr$10 = -84					; size = 4
_src_ptr$11 = -80					; size = 4
_y$12 = -76						; size = 4
_y_width$13 = -72					; size = 4
_dstLine$14 = -68					; size = 4
_srcYLine$15 = -64					; size = 4
_i$16 = -60						; size = 4
$T17 = -56						; size = 12
_y_range$ = -40						; size = 12
_src_y_pitch$ = -24					; size = 4
_crop_bottom$ = -20					; size = 4
_crop_right$ = -16					; size = 4
_crop_up$ = -12						; size = 4
_crop_left$ = -8					; size = 4
__$ArrayPad$ = -4					; size = 4
_dst$ = 8						; size = 4
_src$ = 12						; size = 4
_width$ = 16						; size = 4
_src_y_pitch_byte$ = 20					; size = 4
_src_uv_pitch_byte$ = 24				; size = 4
_dst_y_pitch_byte$ = 28					; size = 4
_height$ = 32						; size = 4
_dst_height$ = 36					; size = 4
_thread_id$ = 40					; size = 4
_thread_n$ = 44						; size = 4
_crop$ = 48						; size = 4
??$convert_yuv444_high_to_yuv444_simd@$09@@YAXPAPAXPAPBXHHHHHHHHPAH@Z PROC ; convert_yuv444_high_to_yuv444_simd<10>

; 1281 : static void __forceinline convert_yuv444_high_to_yuv444_simd(void **dst, const void **src, int width, int src_y_pitch_byte, int src_uv_pitch_byte, int dst_y_pitch_byte, int height, int dst_height, int thread_id, int thread_n, int *crop) {

  00000	53		 push	 ebx
  00001	8b dc		 mov	 ebx, esp
  00003	83 ec 08	 sub	 esp, 8
  00006	83 e4 f0	 and	 esp, -16		; fffffff0H
  00009	83 c4 04	 add	 esp, 4
  0000c	55		 push	 ebp
  0000d	8b 6b 04	 mov	 ebp, DWORD PTR [ebx+4]
  00010	89 6c 24 04	 mov	 DWORD PTR [esp+4], ebp
  00014	8b ec		 mov	 ebp, esp
  00016	81 ec e0 00 00
	00		 sub	 esp, 224		; 000000e0H
  0001c	57		 push	 edi
  0001d	8d bd 20 ff ff
	ff		 lea	 edi, DWORD PTR [ebp-224]
  00023	b9 38 00 00 00	 mov	 ecx, 56			; 00000038H
  00028	b8 cc cc cc cc	 mov	 eax, -858993460		; ccccccccH
  0002d	f3 ab		 rep stosd
  0002f	a1 00 00 00 00	 mov	 eax, DWORD PTR ___security_cookie
  00034	33 c5		 xor	 eax, ebp
  00036	89 45 fc	 mov	 DWORD PTR __$ArrayPad$[ebp], eax

; 1282 :     static_assert(8 < in_bit_depth && in_bit_depth <= 16, "in_bit_depth must be 9-16.");
; 1283 :     const int crop_left   = crop[0];

  00039	b8 04 00 00 00	 mov	 eax, 4
  0003e	6b c8 00	 imul	 ecx, eax, 0
  00041	8b 53 30	 mov	 edx, DWORD PTR _crop$[ebx]
  00044	8b 04 0a	 mov	 eax, DWORD PTR [edx+ecx]
  00047	89 45 f8	 mov	 DWORD PTR _crop_left$[ebp], eax

; 1284 :     const int crop_up     = crop[1];

  0004a	b9 04 00 00 00	 mov	 ecx, 4
  0004f	c1 e1 00	 shl	 ecx, 0
  00052	8b 53 30	 mov	 edx, DWORD PTR _crop$[ebx]
  00055	8b 04 0a	 mov	 eax, DWORD PTR [edx+ecx]
  00058	89 45 f4	 mov	 DWORD PTR _crop_up$[ebp], eax

; 1285 :     const int crop_right  = crop[2];

  0005b	b9 04 00 00 00	 mov	 ecx, 4
  00060	d1 e1		 shl	 ecx, 1
  00062	8b 53 30	 mov	 edx, DWORD PTR _crop$[ebx]
  00065	8b 04 0a	 mov	 eax, DWORD PTR [edx+ecx]
  00068	89 45 f0	 mov	 DWORD PTR _crop_right$[ebp], eax

; 1286 :     const int crop_bottom = crop[3];

  0006b	b9 04 00 00 00	 mov	 ecx, 4
  00070	6b d1 03	 imul	 edx, ecx, 3
  00073	8b 43 30	 mov	 eax, DWORD PTR _crop$[ebx]
  00076	8b 0c 10	 mov	 ecx, DWORD PTR [eax+edx]
  00079	89 4d ec	 mov	 DWORD PTR _crop_bottom$[ebp], ecx

; 1287 :     const int src_y_pitch = src_y_pitch_byte >> 1;

  0007c	8b 53 14	 mov	 edx, DWORD PTR _src_y_pitch_byte$[ebx]
  0007f	d1 fa		 sar	 edx, 1
  00081	89 55 e8	 mov	 DWORD PTR _src_y_pitch$[ebp], edx

; 1288 :     const auto y_range = thread_y_range(crop_up, height - crop_bottom, thread_id, thread_n);

  00084	8b 43 2c	 mov	 eax, DWORD PTR _thread_n$[ebx]
  00087	50		 push	 eax
  00088	8b 4b 28	 mov	 ecx, DWORD PTR _thread_id$[ebx]
  0008b	51		 push	 ecx
  0008c	8b 53 20	 mov	 edx, DWORD PTR _height$[ebx]
  0008f	2b 55 ec	 sub	 edx, DWORD PTR _crop_bottom$[ebp]
  00092	52		 push	 edx
  00093	8b 45 f4	 mov	 eax, DWORD PTR _crop_up$[ebp]
  00096	50		 push	 eax
  00097	8d 8d 20 ff ff
	ff		 lea	 ecx, DWORD PTR $T1[ebp]
  0009d	51		 push	 ecx
  0009e	e8 00 00 00 00	 call	 ?thread_y_range@@YA?AUTHREAD_Y_RANGE@@HHHH@Z ; thread_y_range
  000a3	83 c4 14	 add	 esp, 20			; 00000014H
  000a6	8b 10		 mov	 edx, DWORD PTR [eax]
  000a8	89 55 c8	 mov	 DWORD PTR $T17[ebp], edx
  000ab	8b 48 04	 mov	 ecx, DWORD PTR [eax+4]
  000ae	89 4d cc	 mov	 DWORD PTR $T17[ebp+4], ecx
  000b1	8b 50 08	 mov	 edx, DWORD PTR [eax+8]
  000b4	89 55 d0	 mov	 DWORD PTR $T17[ebp+8], edx
  000b7	8b 45 c8	 mov	 eax, DWORD PTR $T17[ebp]
  000ba	89 45 d8	 mov	 DWORD PTR _y_range$[ebp], eax
  000bd	8b 4d cc	 mov	 ecx, DWORD PTR $T17[ebp+4]
  000c0	89 4d dc	 mov	 DWORD PTR _y_range$[ebp+4], ecx
  000c3	8b 55 d0	 mov	 edx, DWORD PTR $T17[ebp+8]
  000c6	89 55 e0	 mov	 DWORD PTR _y_range$[ebp+8], edx

; 1289 :     for (int i = 0; i < 3; i++) {

  000c9	c7 45 c4 00 00
	00 00		 mov	 DWORD PTR _i$16[ebp], 0
  000d0	eb 09		 jmp	 SHORT $LN4@convert_yu
$LN2@convert_yu:
  000d2	8b 45 c4	 mov	 eax, DWORD PTR _i$16[ebp]
  000d5	83 c0 01	 add	 eax, 1
  000d8	89 45 c4	 mov	 DWORD PTR _i$16[ebp], eax
$LN4@convert_yu:
  000db	83 7d c4 03	 cmp	 DWORD PTR _i$16[ebp], 3
  000df	0f 8d 4d 01 00
	00		 jge	 $LN1@convert_yu

; 1290 :         uint16_t *srcYLine = (uint16_t *)src[i] + src_y_pitch * y_range.start_src + crop_left;

  000e5	8b 4d e8	 mov	 ecx, DWORD PTR _src_y_pitch$[ebp]
  000e8	0f af 4d d8	 imul	 ecx, DWORD PTR _y_range$[ebp]
  000ec	8b 55 c4	 mov	 edx, DWORD PTR _i$16[ebp]
  000ef	8b 43 0c	 mov	 eax, DWORD PTR _src$[ebx]
  000f2	8b 14 90	 mov	 edx, DWORD PTR [eax+edx*4]
  000f5	8d 04 4a	 lea	 eax, DWORD PTR [edx+ecx*2]
  000f8	8b 4d f8	 mov	 ecx, DWORD PTR _crop_left$[ebp]
  000fb	8d 14 48	 lea	 edx, DWORD PTR [eax+ecx*2]
  000fe	89 55 c0	 mov	 DWORD PTR _srcYLine$15[ebp], edx

; 1291 :         uint8_t *dstLine = (uint8_t *)dst[i] + dst_y_pitch_byte * y_range.start_dst;

  00101	8b 43 1c	 mov	 eax, DWORD PTR _dst_y_pitch_byte$[ebx]
  00104	0f af 45 dc	 imul	 eax, DWORD PTR _y_range$[ebp+4]
  00108	8b 4d c4	 mov	 ecx, DWORD PTR _i$16[ebp]
  0010b	8b 53 08	 mov	 edx, DWORD PTR _dst$[ebx]
  0010e	03 04 8a	 add	 eax, DWORD PTR [edx+ecx*4]
  00111	89 45 bc	 mov	 DWORD PTR _dstLine$14[ebp], eax

; 1292 :         const int y_width = width - crop_right - crop_left;

  00114	8b 43 10	 mov	 eax, DWORD PTR _width$[ebx]
  00117	2b 45 f0	 sub	 eax, DWORD PTR _crop_right$[ebp]
  0011a	2b 45 f8	 sub	 eax, DWORD PTR _crop_left$[ebp]
  0011d	89 45 b8	 mov	 DWORD PTR _y_width$13[ebp], eax

; 1293 :         for (int y = 0; y < y_range.len; y++, srcYLine += src_y_pitch, dstLine += dst_y_pitch_byte) {

  00120	c7 45 b4 00 00
	00 00		 mov	 DWORD PTR _y$12[ebp], 0
  00127	eb 1e		 jmp	 SHORT $LN7@convert_yu
$LN5@convert_yu:
  00129	8b 4d b4	 mov	 ecx, DWORD PTR _y$12[ebp]
  0012c	83 c1 01	 add	 ecx, 1
  0012f	89 4d b4	 mov	 DWORD PTR _y$12[ebp], ecx
  00132	8b 55 e8	 mov	 edx, DWORD PTR _src_y_pitch$[ebp]
  00135	8b 45 c0	 mov	 eax, DWORD PTR _srcYLine$15[ebp]
  00138	8d 0c 50	 lea	 ecx, DWORD PTR [eax+edx*2]
  0013b	89 4d c0	 mov	 DWORD PTR _srcYLine$15[ebp], ecx
  0013e	8b 55 bc	 mov	 edx, DWORD PTR _dstLine$14[ebp]
  00141	03 53 1c	 add	 edx, DWORD PTR _dst_y_pitch_byte$[ebx]
  00144	89 55 bc	 mov	 DWORD PTR _dstLine$14[ebp], edx
$LN7@convert_yu:
  00147	8b 45 b4	 mov	 eax, DWORD PTR _y$12[ebp]
  0014a	3b 45 e0	 cmp	 eax, DWORD PTR _y_range$[ebp+8]
  0014d	0f 8d da 00 00
	00		 jge	 $LN6@convert_yu

; 1294 :             uint16_t *src_ptr = srcYLine;

  00153	8b 4d c0	 mov	 ecx, DWORD PTR _srcYLine$15[ebp]
  00156	89 4d b0	 mov	 DWORD PTR _src_ptr$11[ebp], ecx

; 1295 :             uint8_t *dst_ptr = dstLine;

  00159	8b 55 bc	 mov	 edx, DWORD PTR _dstLine$14[ebp]
  0015c	89 55 ac	 mov	 DWORD PTR _dst_ptr$10[ebp], edx

; 1296 :             for (int x = 0; x < y_width; x += 16, dst_ptr += 16, src_ptr += 16) {

  0015f	c7 45 a8 00 00
	00 00		 mov	 DWORD PTR _x$9[ebp], 0
  00166	eb 1b		 jmp	 SHORT $LN10@convert_yu
$LN8@convert_yu:
  00168	8b 45 a8	 mov	 eax, DWORD PTR _x$9[ebp]
  0016b	83 c0 10	 add	 eax, 16			; 00000010H
  0016e	89 45 a8	 mov	 DWORD PTR _x$9[ebp], eax
  00171	8b 4d ac	 mov	 ecx, DWORD PTR _dst_ptr$10[ebp]
  00174	83 c1 10	 add	 ecx, 16			; 00000010H
  00177	89 4d ac	 mov	 DWORD PTR _dst_ptr$10[ebp], ecx
  0017a	8b 55 b0	 mov	 edx, DWORD PTR _src_ptr$11[ebp]
  0017d	83 c2 20	 add	 edx, 32			; 00000020H
  00180	89 55 b0	 mov	 DWORD PTR _src_ptr$11[ebp], edx
$LN10@convert_yu:
  00183	8b 45 a8	 mov	 eax, DWORD PTR _x$9[ebp]
  00186	3b 45 b8	 cmp	 eax, DWORD PTR _y_width$13[ebp]
  00189	0f 8d 99 00 00
	00		 jge	 $LN9@convert_yu

; 1297 :                 __m128i x0 = _mm_loadu_si128((const __m128i *)(src_ptr + 0));

  0018f	8b 4d b0	 mov	 ecx, DWORD PTR _src_ptr$11[ebp]
  00192	0f 10 01	 movups	 xmm0, XMMWORD PTR [ecx]
  00195	0f 29 45 80	 movaps	 XMMWORD PTR $T7[ebp], xmm0
  00199	0f 28 45 80	 movaps	 xmm0, XMMWORD PTR $T7[ebp]
  0019d	0f 29 45 90	 movaps	 XMMWORD PTR _x0$8[ebp], xmm0

; 1298 :                 __m128i x1 = _mm_loadu_si128((const __m128i *)(src_ptr + 8));

  001a1	8b 55 b0	 mov	 edx, DWORD PTR _src_ptr$11[ebp]
  001a4	83 c2 10	 add	 edx, 16			; 00000010H
  001a7	0f 10 02	 movups	 xmm0, XMMWORD PTR [edx]
  001aa	0f 29 85 60 ff
	ff ff		 movaps	 XMMWORD PTR $T5[ebp], xmm0
  001b1	0f 28 85 60 ff
	ff ff		 movaps	 xmm0, XMMWORD PTR $T5[ebp]
  001b8	0f 29 85 70 ff
	ff ff		 movaps	 XMMWORD PTR _x1$6[ebp], xmm0

; 1299 :                 x0 = _mm_srli_epi16(x0, in_bit_depth - 8);

  001bf	0f 28 45 90	 movaps	 xmm0, XMMWORD PTR _x0$8[ebp]
  001c3	66 0f 71 d0 02	 psrlw	 xmm0, 2
  001c8	0f 29 85 50 ff
	ff ff		 movaps	 XMMWORD PTR $T4[ebp], xmm0
  001cf	0f 28 85 50 ff
	ff ff		 movaps	 xmm0, XMMWORD PTR $T4[ebp]
  001d6	0f 29 45 90	 movaps	 XMMWORD PTR _x0$8[ebp], xmm0

; 1300 :                 x1 = _mm_srli_epi16(x1, in_bit_depth - 8);

  001da	0f 28 85 70 ff
	ff ff		 movaps	 xmm0, XMMWORD PTR _x1$6[ebp]
  001e1	66 0f 71 d0 02	 psrlw	 xmm0, 2
  001e6	0f 29 85 40 ff
	ff ff		 movaps	 XMMWORD PTR $T3[ebp], xmm0
  001ed	0f 28 85 40 ff
	ff ff		 movaps	 xmm0, XMMWORD PTR $T3[ebp]
  001f4	0f 29 85 70 ff
	ff ff		 movaps	 XMMWORD PTR _x1$6[ebp], xmm0

; 1301 :                 x0 = _mm_packus_epi16(x0, x1);

  001fb	0f 28 45 90	 movaps	 xmm0, XMMWORD PTR _x0$8[ebp]
  001ff	66 0f 67 85 70
	ff ff ff	 packuswb xmm0, XMMWORD PTR _x1$6[ebp]
  00207	0f 29 85 30 ff
	ff ff		 movaps	 XMMWORD PTR $T2[ebp], xmm0
  0020e	0f 28 85 30 ff
	ff ff		 movaps	 xmm0, XMMWORD PTR $T2[ebp]
  00215	0f 29 45 90	 movaps	 XMMWORD PTR _x0$8[ebp], xmm0

; 1302 :                 _mm_storeu_si128((__m128i *)dst_ptr, x0);

  00219	0f 10 45 90	 movups	 xmm0, XMMWORD PTR _x0$8[ebp]
  0021d	8b 45 ac	 mov	 eax, DWORD PTR _dst_ptr$10[ebp]
  00220	0f 11 00	 movups	 XMMWORD PTR [eax], xmm0

; 1303 :             }

  00223	e9 40 ff ff ff	 jmp	 $LN8@convert_yu
$LN9@convert_yu:

; 1304 :         }

  00228	e9 fc fe ff ff	 jmp	 $LN5@convert_yu
$LN6@convert_yu:

; 1305 :     }

  0022d	e9 a0 fe ff ff	 jmp	 $LN2@convert_yu
$LN1@convert_yu:

; 1306 : }

  00232	52		 push	 edx
  00233	8b cd		 mov	 ecx, ebp
  00235	50		 push	 eax
  00236	8d 15 00 00 00
	00		 lea	 edx, DWORD PTR $LN14@convert_yu
  0023c	e8 00 00 00 00	 call	 @_RTC_CheckStackVars@8
  00241	58		 pop	 eax
  00242	5a		 pop	 edx
  00243	5f		 pop	 edi
  00244	8b 4d fc	 mov	 ecx, DWORD PTR __$ArrayPad$[ebp]
  00247	33 cd		 xor	 ecx, ebp
  00249	e8 00 00 00 00	 call	 @__security_check_cookie@4
  0024e	8b e5		 mov	 esp, ebp
  00250	5d		 pop	 ebp
  00251	8b e3		 mov	 esp, ebx
  00253	5b		 pop	 ebx
  00254	c3		 ret	 0
  00255	0f 1f 00	 npad	 3
$LN14@convert_yu:
  00258	01 00 00 00	 DD	 1
  0025c	00 00 00 00	 DD	 $LN13@convert_yu
$LN13@convert_yu:
  00260	d8 ff ff ff	 DD	 -40			; ffffffd8H
  00264	0c 00 00 00	 DD	 12			; 0000000cH
  00268	00 00 00 00	 DD	 $LN12@convert_yu
$LN12@convert_yu:
  0026c	79		 DB	 121			; 00000079H
  0026d	5f		 DB	 95			; 0000005fH
  0026e	72		 DB	 114			; 00000072H
  0026f	61		 DB	 97			; 00000061H
  00270	6e		 DB	 110			; 0000006eH
  00271	67		 DB	 103			; 00000067H
  00272	65		 DB	 101			; 00000065H
  00273	00		 DB	 0
??$convert_yuv444_high_to_yuv444_simd@$09@@YAXPAPAXPAPBXHHHHHHHHPAH@Z ENDP ; convert_yuv444_high_to_yuv444_simd<10>
_TEXT	ENDS
; Function compile flags: /Odtp /RTCsu
; File D:\work\intel\intel_codec\QSVPipeline\convert_csp_sse2.cpp
_TEXT	SEGMENT
_dst$ = 8						; size = 4
_src$ = 12						; size = 4
_width$ = 16						; size = 4
_src_y_pitch_byte$ = 20					; size = 4
_src_uv_pitch_byte$ = 24				; size = 4
_dst_y_pitch_byte$ = 28					; size = 4
_height$ = 32						; size = 4
_dst_height$ = 36					; size = 4
_thread_id$ = 40					; size = 4
_thread_n$ = 44						; size = 4
_crop$ = 48						; size = 4
?convert_yuv444_10_to_yuv444_sse2@@YAXPAPAXPAPBXHHHHHHHHPAH@Z PROC ; convert_yuv444_10_to_yuv444_sse2

; 193  : void convert_yuv444_10_to_yuv444_sse2(void **dst, const void **src, int width, int src_y_pitch_byte, int src_uv_pitch_byte, int dst_y_pitch_byte, int height, int dst_height, int thread_id, int thread_n, int *crop) {

  00000	55		 push	 ebp
  00001	8b ec		 mov	 ebp, esp

; 194  :     convert_yuv444_high_to_yuv444_simd<10>(dst, src, width, src_y_pitch_byte, src_uv_pitch_byte, dst_y_pitch_byte, height, dst_height, thread_id, thread_n, crop);

  00003	8b 45 30	 mov	 eax, DWORD PTR _crop$[ebp]
  00006	50		 push	 eax
  00007	8b 4d 2c	 mov	 ecx, DWORD PTR _thread_n$[ebp]
  0000a	51		 push	 ecx
  0000b	8b 55 28	 mov	 edx, DWORD PTR _thread_id$[ebp]
  0000e	52		 push	 edx
  0000f	8b 45 24	 mov	 eax, DWORD PTR _dst_height$[ebp]
  00012	50		 push	 eax
  00013	8b 4d 20	 mov	 ecx, DWORD PTR _height$[ebp]
  00016	51		 push	 ecx
  00017	8b 55 1c	 mov	 edx, DWORD PTR _dst_y_pitch_byte$[ebp]
  0001a	52		 push	 edx
  0001b	8b 45 18	 mov	 eax, DWORD PTR _src_uv_pitch_byte$[ebp]
  0001e	50		 push	 eax
  0001f	8b 4d 14	 mov	 ecx, DWORD PTR _src_y_pitch_byte$[ebp]
  00022	51		 push	 ecx
  00023	8b 55 10	 mov	 edx, DWORD PTR _width$[ebp]
  00026	52		 push	 edx
  00027	8b 45 0c	 mov	 eax, DWORD PTR _src$[ebp]
  0002a	50		 push	 eax
  0002b	8b 4d 08	 mov	 ecx, DWORD PTR _dst$[ebp]
  0002e	51		 push	 ecx
  0002f	e8 00 00 00 00	 call	 ??$convert_yuv444_high_to_yuv444_simd@$09@@YAXPAPAXPAPBXHHHHHHHHPAH@Z ; convert_yuv444_high_to_yuv444_simd<10>
  00034	83 c4 2c	 add	 esp, 44			; 0000002cH

; 195  : }

  00037	3b ec		 cmp	 ebp, esp
  00039	e8 00 00 00 00	 call	 __RTC_CheckEsp
  0003e	5d		 pop	 ebp
  0003f	c3		 ret	 0
?convert_yuv444_10_to_yuv444_sse2@@YAXPAPAXPAPBXHHHHHHHHPAH@Z ENDP ; convert_yuv444_10_to_yuv444_sse2
_TEXT	ENDS
; Function compile flags: /Odtp /RTCsu
; File D:\work\intel\intel_codec\QSVPipeline\convert_csp_simd.h
_TEXT	SEGMENT
$T1 = -224						; size = 12
$T2 = -208						; size = 16
$T3 = -192						; size = 16
$T4 = -176						; size = 16
$T5 = -160						; size = 16
_x1$6 = -144						; size = 16
$T7 = -128						; size = 16
_x0$8 = -112						; size = 16
_x$9 = -88						; size = 4
_dst_ptr$10 = -84					; size = 4
_src_ptr$11 = -80					; size = 4
_y$12 = -76						; size = 4
_y_width$13 = -72					; size = 4
_dstLine$14 = -68					; size = 4
_srcYLine$15 = -64					; size = 4
_i$16 = -60						; size = 4
$T17 = -56						; size = 12
_y_range$ = -40						; size = 12
_src_y_pitch$ = -24					; size = 4
_crop_bottom$ = -20					; size = 4
_crop_right$ = -16					; size = 4
_crop_up$ = -12						; size = 4
_crop_left$ = -8					; size = 4
__$ArrayPad$ = -4					; size = 4
_dst$ = 8						; size = 4
_src$ = 12						; size = 4
_width$ = 16						; size = 4
_src_y_pitch_byte$ = 20					; size = 4
_src_uv_pitch_byte$ = 24				; size = 4
_dst_y_pitch_byte$ = 28					; size = 4
_height$ = 32						; size = 4
_dst_height$ = 36					; size = 4
_thread_id$ = 40					; size = 4
_thread_n$ = 44						; size = 4
_crop$ = 48						; size = 4
??$convert_yuv444_high_to_yuv444_simd@$0M@@@YAXPAPAXPAPBXHHHHHHHHPAH@Z PROC ; convert_yuv444_high_to_yuv444_simd<12>

; 1281 : static void __forceinline convert_yuv444_high_to_yuv444_simd(void **dst, const void **src, int width, int src_y_pitch_byte, int src_uv_pitch_byte, int dst_y_pitch_byte, int height, int dst_height, int thread_id, int thread_n, int *crop) {

  00000	53		 push	 ebx
  00001	8b dc		 mov	 ebx, esp
  00003	83 ec 08	 sub	 esp, 8
  00006	83 e4 f0	 and	 esp, -16		; fffffff0H
  00009	83 c4 04	 add	 esp, 4
  0000c	55		 push	 ebp
  0000d	8b 6b 04	 mov	 ebp, DWORD PTR [ebx+4]
  00010	89 6c 24 04	 mov	 DWORD PTR [esp+4], ebp
  00014	8b ec		 mov	 ebp, esp
  00016	81 ec e0 00 00
	00		 sub	 esp, 224		; 000000e0H
  0001c	57		 push	 edi
  0001d	8d bd 20 ff ff
	ff		 lea	 edi, DWORD PTR [ebp-224]
  00023	b9 38 00 00 00	 mov	 ecx, 56			; 00000038H
  00028	b8 cc cc cc cc	 mov	 eax, -858993460		; ccccccccH
  0002d	f3 ab		 rep stosd
  0002f	a1 00 00 00 00	 mov	 eax, DWORD PTR ___security_cookie
  00034	33 c5		 xor	 eax, ebp
  00036	89 45 fc	 mov	 DWORD PTR __$ArrayPad$[ebp], eax

; 1282 :     static_assert(8 < in_bit_depth && in_bit_depth <= 16, "in_bit_depth must be 9-16.");
; 1283 :     const int crop_left   = crop[0];

  00039	b8 04 00 00 00	 mov	 eax, 4
  0003e	6b c8 00	 imul	 ecx, eax, 0
  00041	8b 53 30	 mov	 edx, DWORD PTR _crop$[ebx]
  00044	8b 04 0a	 mov	 eax, DWORD PTR [edx+ecx]
  00047	89 45 f8	 mov	 DWORD PTR _crop_left$[ebp], eax

; 1284 :     const int crop_up     = crop[1];

  0004a	b9 04 00 00 00	 mov	 ecx, 4
  0004f	c1 e1 00	 shl	 ecx, 0
  00052	8b 53 30	 mov	 edx, DWORD PTR _crop$[ebx]
  00055	8b 04 0a	 mov	 eax, DWORD PTR [edx+ecx]
  00058	89 45 f4	 mov	 DWORD PTR _crop_up$[ebp], eax

; 1285 :     const int crop_right  = crop[2];

  0005b	b9 04 00 00 00	 mov	 ecx, 4
  00060	d1 e1		 shl	 ecx, 1
  00062	8b 53 30	 mov	 edx, DWORD PTR _crop$[ebx]
  00065	8b 04 0a	 mov	 eax, DWORD PTR [edx+ecx]
  00068	89 45 f0	 mov	 DWORD PTR _crop_right$[ebp], eax

; 1286 :     const int crop_bottom = crop[3];

  0006b	b9 04 00 00 00	 mov	 ecx, 4
  00070	6b d1 03	 imul	 edx, ecx, 3
  00073	8b 43 30	 mov	 eax, DWORD PTR _crop$[ebx]
  00076	8b 0c 10	 mov	 ecx, DWORD PTR [eax+edx]
  00079	89 4d ec	 mov	 DWORD PTR _crop_bottom$[ebp], ecx

; 1287 :     const int src_y_pitch = src_y_pitch_byte >> 1;

  0007c	8b 53 14	 mov	 edx, DWORD PTR _src_y_pitch_byte$[ebx]
  0007f	d1 fa		 sar	 edx, 1
  00081	89 55 e8	 mov	 DWORD PTR _src_y_pitch$[ebp], edx

; 1288 :     const auto y_range = thread_y_range(crop_up, height - crop_bottom, thread_id, thread_n);

  00084	8b 43 2c	 mov	 eax, DWORD PTR _thread_n$[ebx]
  00087	50		 push	 eax
  00088	8b 4b 28	 mov	 ecx, DWORD PTR _thread_id$[ebx]
  0008b	51		 push	 ecx
  0008c	8b 53 20	 mov	 edx, DWORD PTR _height$[ebx]
  0008f	2b 55 ec	 sub	 edx, DWORD PTR _crop_bottom$[ebp]
  00092	52		 push	 edx
  00093	8b 45 f4	 mov	 eax, DWORD PTR _crop_up$[ebp]
  00096	50		 push	 eax
  00097	8d 8d 20 ff ff
	ff		 lea	 ecx, DWORD PTR $T1[ebp]
  0009d	51		 push	 ecx
  0009e	e8 00 00 00 00	 call	 ?thread_y_range@@YA?AUTHREAD_Y_RANGE@@HHHH@Z ; thread_y_range
  000a3	83 c4 14	 add	 esp, 20			; 00000014H
  000a6	8b 10		 mov	 edx, DWORD PTR [eax]
  000a8	89 55 c8	 mov	 DWORD PTR $T17[ebp], edx
  000ab	8b 48 04	 mov	 ecx, DWORD PTR [eax+4]
  000ae	89 4d cc	 mov	 DWORD PTR $T17[ebp+4], ecx
  000b1	8b 50 08	 mov	 edx, DWORD PTR [eax+8]
  000b4	89 55 d0	 mov	 DWORD PTR $T17[ebp+8], edx
  000b7	8b 45 c8	 mov	 eax, DWORD PTR $T17[ebp]
  000ba	89 45 d8	 mov	 DWORD PTR _y_range$[ebp], eax
  000bd	8b 4d cc	 mov	 ecx, DWORD PTR $T17[ebp+4]
  000c0	89 4d dc	 mov	 DWORD PTR _y_range$[ebp+4], ecx
  000c3	8b 55 d0	 mov	 edx, DWORD PTR $T17[ebp+8]
  000c6	89 55 e0	 mov	 DWORD PTR _y_range$[ebp+8], edx

; 1289 :     for (int i = 0; i < 3; i++) {

  000c9	c7 45 c4 00 00
	00 00		 mov	 DWORD PTR _i$16[ebp], 0
  000d0	eb 09		 jmp	 SHORT $LN4@convert_yu
$LN2@convert_yu:
  000d2	8b 45 c4	 mov	 eax, DWORD PTR _i$16[ebp]
  000d5	83 c0 01	 add	 eax, 1
  000d8	89 45 c4	 mov	 DWORD PTR _i$16[ebp], eax
$LN4@convert_yu:
  000db	83 7d c4 03	 cmp	 DWORD PTR _i$16[ebp], 3
  000df	0f 8d 4d 01 00
	00		 jge	 $LN1@convert_yu

; 1290 :         uint16_t *srcYLine = (uint16_t *)src[i] + src_y_pitch * y_range.start_src + crop_left;

  000e5	8b 4d e8	 mov	 ecx, DWORD PTR _src_y_pitch$[ebp]
  000e8	0f af 4d d8	 imul	 ecx, DWORD PTR _y_range$[ebp]
  000ec	8b 55 c4	 mov	 edx, DWORD PTR _i$16[ebp]
  000ef	8b 43 0c	 mov	 eax, DWORD PTR _src$[ebx]
  000f2	8b 14 90	 mov	 edx, DWORD PTR [eax+edx*4]
  000f5	8d 04 4a	 lea	 eax, DWORD PTR [edx+ecx*2]
  000f8	8b 4d f8	 mov	 ecx, DWORD PTR _crop_left$[ebp]
  000fb	8d 14 48	 lea	 edx, DWORD PTR [eax+ecx*2]
  000fe	89 55 c0	 mov	 DWORD PTR _srcYLine$15[ebp], edx

; 1291 :         uint8_t *dstLine = (uint8_t *)dst[i] + dst_y_pitch_byte * y_range.start_dst;

  00101	8b 43 1c	 mov	 eax, DWORD PTR _dst_y_pitch_byte$[ebx]
  00104	0f af 45 dc	 imul	 eax, DWORD PTR _y_range$[ebp+4]
  00108	8b 4d c4	 mov	 ecx, DWORD PTR _i$16[ebp]
  0010b	8b 53 08	 mov	 edx, DWORD PTR _dst$[ebx]
  0010e	03 04 8a	 add	 eax, DWORD PTR [edx+ecx*4]
  00111	89 45 bc	 mov	 DWORD PTR _dstLine$14[ebp], eax

; 1292 :         const int y_width = width - crop_right - crop_left;

  00114	8b 43 10	 mov	 eax, DWORD PTR _width$[ebx]
  00117	2b 45 f0	 sub	 eax, DWORD PTR _crop_right$[ebp]
  0011a	2b 45 f8	 sub	 eax, DWORD PTR _crop_left$[ebp]
  0011d	89 45 b8	 mov	 DWORD PTR _y_width$13[ebp], eax

; 1293 :         for (int y = 0; y < y_range.len; y++, srcYLine += src_y_pitch, dstLine += dst_y_pitch_byte) {

  00120	c7 45 b4 00 00
	00 00		 mov	 DWORD PTR _y$12[ebp], 0
  00127	eb 1e		 jmp	 SHORT $LN7@convert_yu
$LN5@convert_yu:
  00129	8b 4d b4	 mov	 ecx, DWORD PTR _y$12[ebp]
  0012c	83 c1 01	 add	 ecx, 1
  0012f	89 4d b4	 mov	 DWORD PTR _y$12[ebp], ecx
  00132	8b 55 e8	 mov	 edx, DWORD PTR _src_y_pitch$[ebp]
  00135	8b 45 c0	 mov	 eax, DWORD PTR _srcYLine$15[ebp]
  00138	8d 0c 50	 lea	 ecx, DWORD PTR [eax+edx*2]
  0013b	89 4d c0	 mov	 DWORD PTR _srcYLine$15[ebp], ecx
  0013e	8b 55 bc	 mov	 edx, DWORD PTR _dstLine$14[ebp]
  00141	03 53 1c	 add	 edx, DWORD PTR _dst_y_pitch_byte$[ebx]
  00144	89 55 bc	 mov	 DWORD PTR _dstLine$14[ebp], edx
$LN7@convert_yu:
  00147	8b 45 b4	 mov	 eax, DWORD PTR _y$12[ebp]
  0014a	3b 45 e0	 cmp	 eax, DWORD PTR _y_range$[ebp+8]
  0014d	0f 8d da 00 00
	00		 jge	 $LN6@convert_yu

; 1294 :             uint16_t *src_ptr = srcYLine;

  00153	8b 4d c0	 mov	 ecx, DWORD PTR _srcYLine$15[ebp]
  00156	89 4d b0	 mov	 DWORD PTR _src_ptr$11[ebp], ecx

; 1295 :             uint8_t *dst_ptr = dstLine;

  00159	8b 55 bc	 mov	 edx, DWORD PTR _dstLine$14[ebp]
  0015c	89 55 ac	 mov	 DWORD PTR _dst_ptr$10[ebp], edx

; 1296 :             for (int x = 0; x < y_width; x += 16, dst_ptr += 16, src_ptr += 16) {

  0015f	c7 45 a8 00 00
	00 00		 mov	 DWORD PTR _x$9[ebp], 0
  00166	eb 1b		 jmp	 SHORT $LN10@convert_yu
$LN8@convert_yu:
  00168	8b 45 a8	 mov	 eax, DWORD PTR _x$9[ebp]
  0016b	83 c0 10	 add	 eax, 16			; 00000010H
  0016e	89 45 a8	 mov	 DWORD PTR _x$9[ebp], eax
  00171	8b 4d ac	 mov	 ecx, DWORD PTR _dst_ptr$10[ebp]
  00174	83 c1 10	 add	 ecx, 16			; 00000010H
  00177	89 4d ac	 mov	 DWORD PTR _dst_ptr$10[ebp], ecx
  0017a	8b 55 b0	 mov	 edx, DWORD PTR _src_ptr$11[ebp]
  0017d	83 c2 20	 add	 edx, 32			; 00000020H
  00180	89 55 b0	 mov	 DWORD PTR _src_ptr$11[ebp], edx
$LN10@convert_yu:
  00183	8b 45 a8	 mov	 eax, DWORD PTR _x$9[ebp]
  00186	3b 45 b8	 cmp	 eax, DWORD PTR _y_width$13[ebp]
  00189	0f 8d 99 00 00
	00		 jge	 $LN9@convert_yu

; 1297 :                 __m128i x0 = _mm_loadu_si128((const __m128i *)(src_ptr + 0));

  0018f	8b 4d b0	 mov	 ecx, DWORD PTR _src_ptr$11[ebp]
  00192	0f 10 01	 movups	 xmm0, XMMWORD PTR [ecx]
  00195	0f 29 45 80	 movaps	 XMMWORD PTR $T7[ebp], xmm0
  00199	0f 28 45 80	 movaps	 xmm0, XMMWORD PTR $T7[ebp]
  0019d	0f 29 45 90	 movaps	 XMMWORD PTR _x0$8[ebp], xmm0

; 1298 :                 __m128i x1 = _mm_loadu_si128((const __m128i *)(src_ptr + 8));

  001a1	8b 55 b0	 mov	 edx, DWORD PTR _src_ptr$11[ebp]
  001a4	83 c2 10	 add	 edx, 16			; 00000010H
  001a7	0f 10 02	 movups	 xmm0, XMMWORD PTR [edx]
  001aa	0f 29 85 60 ff
	ff ff		 movaps	 XMMWORD PTR $T5[ebp], xmm0
  001b1	0f 28 85 60 ff
	ff ff		 movaps	 xmm0, XMMWORD PTR $T5[ebp]
  001b8	0f 29 85 70 ff
	ff ff		 movaps	 XMMWORD PTR _x1$6[ebp], xmm0

; 1299 :                 x0 = _mm_srli_epi16(x0, in_bit_depth - 8);

  001bf	0f 28 45 90	 movaps	 xmm0, XMMWORD PTR _x0$8[ebp]
  001c3	66 0f 71 d0 04	 psrlw	 xmm0, 4
  001c8	0f 29 85 50 ff
	ff ff		 movaps	 XMMWORD PTR $T4[ebp], xmm0
  001cf	0f 28 85 50 ff
	ff ff		 movaps	 xmm0, XMMWORD PTR $T4[ebp]
  001d6	0f 29 45 90	 movaps	 XMMWORD PTR _x0$8[ebp], xmm0

; 1300 :                 x1 = _mm_srli_epi16(x1, in_bit_depth - 8);

  001da	0f 28 85 70 ff
	ff ff		 movaps	 xmm0, XMMWORD PTR _x1$6[ebp]
  001e1	66 0f 71 d0 04	 psrlw	 xmm0, 4
  001e6	0f 29 85 40 ff
	ff ff		 movaps	 XMMWORD PTR $T3[ebp], xmm0
  001ed	0f 28 85 40 ff
	ff ff		 movaps	 xmm0, XMMWORD PTR $T3[ebp]
  001f4	0f 29 85 70 ff
	ff ff		 movaps	 XMMWORD PTR _x1$6[ebp], xmm0

; 1301 :                 x0 = _mm_packus_epi16(x0, x1);

  001fb	0f 28 45 90	 movaps	 xmm0, XMMWORD PTR _x0$8[ebp]
  001ff	66 0f 67 85 70
	ff ff ff	 packuswb xmm0, XMMWORD PTR _x1$6[ebp]
  00207	0f 29 85 30 ff
	ff ff		 movaps	 XMMWORD PTR $T2[ebp], xmm0
  0020e	0f 28 85 30 ff
	ff ff		 movaps	 xmm0, XMMWORD PTR $T2[ebp]
  00215	0f 29 45 90	 movaps	 XMMWORD PTR _x0$8[ebp], xmm0

; 1302 :                 _mm_storeu_si128((__m128i *)dst_ptr, x0);

  00219	0f 10 45 90	 movups	 xmm0, XMMWORD PTR _x0$8[ebp]
  0021d	8b 45 ac	 mov	 eax, DWORD PTR _dst_ptr$10[ebp]
  00220	0f 11 00	 movups	 XMMWORD PTR [eax], xmm0

; 1303 :             }

  00223	e9 40 ff ff ff	 jmp	 $LN8@convert_yu
$LN9@convert_yu:

; 1304 :         }

  00228	e9 fc fe ff ff	 jmp	 $LN5@convert_yu
$LN6@convert_yu:

; 1305 :     }

  0022d	e9 a0 fe ff ff	 jmp	 $LN2@convert_yu
$LN1@convert_yu:

; 1306 : }

  00232	52		 push	 edx
  00233	8b cd		 mov	 ecx, ebp
  00235	50		 push	 eax
  00236	8d 15 00 00 00
	00		 lea	 edx, DWORD PTR $LN14@convert_yu
  0023c	e8 00 00 00 00	 call	 @_RTC_CheckStackVars@8
  00241	58		 pop	 eax
  00242	5a		 pop	 edx
  00243	5f		 pop	 edi
  00244	8b 4d fc	 mov	 ecx, DWORD PTR __$ArrayPad$[ebp]
  00247	33 cd		 xor	 ecx, ebp
  00249	e8 00 00 00 00	 call	 @__security_check_cookie@4
  0024e	8b e5		 mov	 esp, ebp
  00250	5d		 pop	 ebp
  00251	8b e3		 mov	 esp, ebx
  00253	5b		 pop	 ebx
  00254	c3		 ret	 0
  00255	0f 1f 00	 npad	 3
$LN14@convert_yu:
  00258	01 00 00 00	 DD	 1
  0025c	00 00 00 00	 DD	 $LN13@convert_yu
$LN13@convert_yu:
  00260	d8 ff ff ff	 DD	 -40			; ffffffd8H
  00264	0c 00 00 00	 DD	 12			; 0000000cH
  00268	00 00 00 00	 DD	 $LN12@convert_yu
$LN12@convert_yu:
  0026c	79		 DB	 121			; 00000079H
  0026d	5f		 DB	 95			; 0000005fH
  0026e	72		 DB	 114			; 00000072H
  0026f	61		 DB	 97			; 00000061H
  00270	6e		 DB	 110			; 0000006eH
  00271	67		 DB	 103			; 00000067H
  00272	65		 DB	 101			; 00000065H
  00273	00		 DB	 0
??$convert_yuv444_high_to_yuv444_simd@$0M@@@YAXPAPAXPAPBXHHHHHHHHPAH@Z ENDP ; convert_yuv444_high_to_yuv444_simd<12>
_TEXT	ENDS
; Function compile flags: /Odtp /RTCsu
; File D:\work\intel\intel_codec\QSVPipeline\convert_csp_sse2.cpp
_TEXT	SEGMENT
_dst$ = 8						; size = 4
_src$ = 12						; size = 4
_width$ = 16						; size = 4
_src_y_pitch_byte$ = 20					; size = 4
_src_uv_pitch_byte$ = 24				; size = 4
_dst_y_pitch_byte$ = 28					; size = 4
_height$ = 32						; size = 4
_dst_height$ = 36					; size = 4
_thread_id$ = 40					; size = 4
_thread_n$ = 44						; size = 4
_crop$ = 48						; size = 4
?convert_yuv444_12_to_yuv444_sse2@@YAXPAPAXPAPBXHHHHHHHHPAH@Z PROC ; convert_yuv444_12_to_yuv444_sse2

; 189  : void convert_yuv444_12_to_yuv444_sse2(void **dst, const void **src, int width, int src_y_pitch_byte, int src_uv_pitch_byte, int dst_y_pitch_byte, int height, int dst_height, int thread_id, int thread_n, int *crop) {

  00000	55		 push	 ebp
  00001	8b ec		 mov	 ebp, esp

; 190  :     convert_yuv444_high_to_yuv444_simd<12>(dst, src, width, src_y_pitch_byte, src_uv_pitch_byte, dst_y_pitch_byte, height, dst_height, thread_id, thread_n, crop);

  00003	8b 45 30	 mov	 eax, DWORD PTR _crop$[ebp]
  00006	50		 push	 eax
  00007	8b 4d 2c	 mov	 ecx, DWORD PTR _thread_n$[ebp]
  0000a	51		 push	 ecx
  0000b	8b 55 28	 mov	 edx, DWORD PTR _thread_id$[ebp]
  0000e	52		 push	 edx
  0000f	8b 45 24	 mov	 eax, DWORD PTR _dst_height$[ebp]
  00012	50		 push	 eax
  00013	8b 4d 20	 mov	 ecx, DWORD PTR _height$[ebp]
  00016	51		 push	 ecx
  00017	8b 55 1c	 mov	 edx, DWORD PTR _dst_y_pitch_byte$[ebp]
  0001a	52		 push	 edx
  0001b	8b 45 18	 mov	 eax, DWORD PTR _src_uv_pitch_byte$[ebp]
  0001e	50		 push	 eax
  0001f	8b 4d 14	 mov	 ecx, DWORD PTR _src_y_pitch_byte$[ebp]
  00022	51		 push	 ecx
  00023	8b 55 10	 mov	 edx, DWORD PTR _width$[ebp]
  00026	52		 push	 edx
  00027	8b 45 0c	 mov	 eax, DWORD PTR _src$[ebp]
  0002a	50		 push	 eax
  0002b	8b 4d 08	 mov	 ecx, DWORD PTR _dst$[ebp]
  0002e	51		 push	 ecx
  0002f	e8 00 00 00 00	 call	 ??$convert_yuv444_high_to_yuv444_simd@$0M@@@YAXPAPAXPAPBXHHHHHHHHPAH@Z ; convert_yuv444_high_to_yuv444_simd<12>
  00034	83 c4 2c	 add	 esp, 44			; 0000002cH

; 191  : }

  00037	3b ec		 cmp	 ebp, esp
  00039	e8 00 00 00 00	 call	 __RTC_CheckEsp
  0003e	5d		 pop	 ebp
  0003f	c3		 ret	 0
?convert_yuv444_12_to_yuv444_sse2@@YAXPAPAXPAPBXHHHHHHHHPAH@Z ENDP ; convert_yuv444_12_to_yuv444_sse2
_TEXT	ENDS
; Function compile flags: /Odtp /RTCsu
; File D:\work\intel\intel_codec\QSVPipeline\convert_csp_simd.h
_TEXT	SEGMENT
$T1 = -224						; size = 12
$T2 = -208						; size = 16
$T3 = -192						; size = 16
$T4 = -176						; size = 16
$T5 = -160						; size = 16
_x1$6 = -144						; size = 16
$T7 = -128						; size = 16
_x0$8 = -112						; size = 16
_x$9 = -88						; size = 4
_dst_ptr$10 = -84					; size = 4
_src_ptr$11 = -80					; size = 4
_y$12 = -76						; size = 4
_y_width$13 = -72					; size = 4
_dstLine$14 = -68					; size = 4
_srcYLine$15 = -64					; size = 4
_i$16 = -60						; size = 4
$T17 = -56						; size = 12
_y_range$ = -40						; size = 12
_src_y_pitch$ = -24					; size = 4
_crop_bottom$ = -20					; size = 4
_crop_right$ = -16					; size = 4
_crop_up$ = -12						; size = 4
