; Listing generated by Microsoft (R) Optimizing Compiler Version 19.23.28106.4 

	TITLE	D:\work\intel\intel_codec\QSVPipeline\convert_csp.cpp
	.686P
	.XMM
	include listing.inc
	.model	flat

INCLUDELIB MSVCRTD
INCLUDELIB OLDNAMES

PUBLIC	?convert_yuy2_to_nv12@@YAXPAPAXPAPBXHHHHHHHHPAH@Z ; convert_yuy2_to_nv12
EXTRN	?copy_nv12_to_nv12_sse2@@YAXPAPAXPAPBXHHHHHHHHPAH@Z:PROC ; copy_nv12_to_nv12_sse2
EXTRN	?copy_p010_to_p010_sse2@@YAXPAPAXPAPBXHHHHHHHHPAH@Z:PROC ; copy_p010_to_p010_sse2
EXTRN	?copy_nv12_to_nv12_avx2@@YAXPAPAXPAPBXHHHHHHHHPAH@Z:PROC ; copy_nv12_to_nv12_avx2
EXTRN	?copy_p010_to_p010_avx2@@YAXPAPAXPAPBXHHHHHHHHPAH@Z:PROC ; copy_p010_to_p010_avx2
EXTRN	?convert_yuy2_to_nv12_sse2@@YAXPAPAXPAPBXHHHHHHHHPAH@Z:PROC ; convert_yuy2_to_nv12_sse2
EXTRN	?convert_yuy2_to_nv12_avx@@YAXPAPAXPAPBXHHHHHHHHPAH@Z:PROC ; convert_yuy2_to_nv12_avx
EXTRN	?convert_yuy2_to_nv12_avx2@@YAXPAPAXPAPBXHHHHHHHHPAH@Z:PROC ; convert_yuy2_to_nv12_avx2
EXTRN	?convert_yuy2_to_nv12_i_sse2@@YAXPAPAXPAPBXHHHHHHHHPAH@Z:PROC ; convert_yuy2_to_nv12_i_sse2
EXTRN	?convert_yuy2_to_nv12_i_ssse3@@YAXPAPAXPAPBXHHHHHHHHPAH@Z:PROC ; convert_yuy2_to_nv12_i_ssse3
EXTRN	?convert_yuy2_to_nv12_i_avx@@YAXPAPAXPAPBXHHHHHHHHPAH@Z:PROC ; convert_yuy2_to_nv12_i_avx
EXTRN	?convert_yuy2_to_nv12_i_avx2@@YAXPAPAXPAPBXHHHHHHHHPAH@Z:PROC ; convert_yuy2_to_nv12_i_avx2
EXTRN	?convert_yv12_to_nv12_sse2@@YAXPAPAXPAPBXHHHHHHHHPAH@Z:PROC ; convert_yv12_to_nv12_sse2
EXTRN	?convert_yv12_to_nv12_avx@@YAXPAPAXPAPBXHHHHHHHHPAH@Z:PROC ; convert_yv12_to_nv12_avx
EXTRN	?convert_yv12_to_nv12_avx2@@YAXPAPAXPAPBXHHHHHHHHPAH@Z:PROC ; convert_yv12_to_nv12_avx2
EXTRN	?convert_uv_yv12_to_nv12_sse2@@YAXPAPAXPAPBXHHHHHHHHPAH@Z:PROC ; convert_uv_yv12_to_nv12_sse2
EXTRN	?convert_uv_yv12_to_nv12_avx@@YAXPAPAXPAPBXHHHHHHHHPAH@Z:PROC ; convert_uv_yv12_to_nv12_avx
EXTRN	?convert_uv_yv12_to_nv12_avx2@@YAXPAPAXPAPBXHHHHHHHHPAH@Z:PROC ; convert_uv_yv12_to_nv12_avx2
EXTRN	?convert_rgb24_to_rgb_ssse3@@YAXPAPAXPAPBXHHHHHHHHPAH@Z:PROC ; convert_rgb24_to_rgb_ssse3
EXTRN	?convert_bgr24_to_rgb_ssse3@@YAXPAPAXPAPBXHHHHHHHHPAH@Z:PROC ; convert_bgr24_to_rgb_ssse3
EXTRN	?convert_rgb24r_to_rgb_ssse3@@YAXPAPAXPAPBXHHHHHHHHPAH@Z:PROC ; convert_rgb24r_to_rgb_ssse3
EXTRN	?convert_rgb32_to_rgb_sse2@@YAXPAPAXPAPBXHHHHHHHHPAH@Z:PROC ; convert_rgb32_to_rgb_sse2
EXTRN	?convert_bgr32_to_rgb_sse2@@YAXPAPAXPAPBXHHHHHHHHPAH@Z:PROC ; convert_bgr32_to_rgb_sse2
EXTRN	?convert_rgb32r_to_rgb_sse2@@YAXPAPAXPAPBXHHHHHHHHPAH@Z:PROC ; convert_rgb32r_to_rgb_sse2
EXTRN	?convert_gbr_to_rgb24_ssse3@@YAXPAPAXPAPBXHHHHHHHHPAH@Z:PROC ; convert_gbr_to_rgb24_ssse3
EXTRN	?convert_gbr_to_rgb32_sse2@@YAXPAPAXPAPBXHHHHHHHHPAH@Z:PROC ; convert_gbr_to_rgb32_sse2
EXTRN	?convert_bgr24_to_rgb24_ssse3@@YAXPAPAXPAPBXHHHHHHHHPAH@Z:PROC ; convert_bgr24_to_rgb24_ssse3
EXTRN	?convert_bgr32_to_rgb32_ssse3@@YAXPAPAXPAPBXHHHHHHHHPAH@Z:PROC ; convert_bgr32_to_rgb32_ssse3
EXTRN	?convert_rgb24_to_rgb32_ssse3@@YAXPAPAXPAPBXHHHHHHHHPAH@Z:PROC ; convert_rgb24_to_rgb32_ssse3
EXTRN	?convert_rgb24r_to_rgb32_ssse3@@YAXPAPAXPAPBXHHHHHHHHPAH@Z:PROC ; convert_rgb24r_to_rgb32_ssse3
EXTRN	?convert_rgb24_to_rgb32_avx@@YAXPAPAXPAPBXHHHHHHHHPAH@Z:PROC ; convert_rgb24_to_rgb32_avx
EXTRN	?convert_rgb24r_to_rgb32_avx@@YAXPAPAXPAPBXHHHHHHHHPAH@Z:PROC ; convert_rgb24r_to_rgb32_avx
EXTRN	?convert_rgb24_to_rgb32_avx2@@YAXPAPAXPAPBXHHHHHHHHPAH@Z:PROC ; convert_rgb24_to_rgb32_avx2
EXTRN	?convert_rgb24r_to_rgb32_avx2@@YAXPAPAXPAPBXHHHHHHHHPAH@Z:PROC ; convert_rgb24r_to_rgb32_avx2
EXTRN	?convert_rgb32_to_rgb32_sse2@@YAXPAPAXPAPBXHHHHHHHHPAH@Z:PROC ; convert_rgb32_to_rgb32_sse2
EXTRN	?convert_rgb32r_to_rgb32_sse2@@YAXPAPAXPAPBXHHHHHHHHPAH@Z:PROC ; convert_rgb32r_to_rgb32_sse2
EXTRN	?convert_rgb32_to_rgb32_avx@@YAXPAPAXPAPBXHHHHHHHHPAH@Z:PROC ; convert_rgb32_to_rgb32_avx
EXTRN	?convert_rgb32r_to_rgb32_avx@@YAXPAPAXPAPBXHHHHHHHHPAH@Z:PROC ; convert_rgb32r_to_rgb32_avx
EXTRN	?convert_rgb32_to_rgb32_avx2@@YAXPAPAXPAPBXHHHHHHHHPAH@Z:PROC ; convert_rgb32_to_rgb32_avx2
EXTRN	?convert_rgb32r_to_rgb32_avx2@@YAXPAPAXPAPBXHHHHHHHHPAH@Z:PROC ; convert_rgb32r_to_rgb32_avx2
EXTRN	?convert_rgb24_to_rgb24_avx2@@YAXPAPAXPAPBXHHHHHHHHPAH@Z:PROC ; convert_rgb24_to_rgb24_avx2
EXTRN	?convert_rgb24r_to_rgb24_avx2@@YAXPAPAXPAPBXHHHHHHHHPAH@Z:PROC ; convert_rgb24r_to_rgb24_avx2
EXTRN	?convert_rgb24_to_rgb24_sse2@@YAXPAPAXPAPBXHHHHHHHHPAH@Z:PROC ; convert_rgb24_to_rgb24_sse2
EXTRN	?convert_rgb24r_to_rgb24_sse2@@YAXPAPAXPAPBXHHHHHHHHPAH@Z:PROC ; convert_rgb24r_to_rgb24_sse2
EXTRN	?copy_rgb_to_rgb_sse2@@YAXPAPAXPAPBXHHHHHHHHPAH@Z:PROC ; copy_rgb_to_rgb_sse2
EXTRN	?copy_gbr_to_rgb_sse2@@YAXPAPAXPAPBXHHHHHHHHPAH@Z:PROC ; copy_gbr_to_rgb_sse2
EXTRN	?convert_yv12_to_p010_avx2@@YAXPAPAXPAPBXHHHHHHHHPAH@Z:PROC ; convert_yv12_to_p010_avx2
EXTRN	?convert_yv12_to_p010_avx@@YAXPAPAXPAPBXHHHHHHHHPAH@Z:PROC ; convert_yv12_to_p010_avx
EXTRN	?convert_yv12_to_p010_sse2@@YAXPAPAXPAPBXHHHHHHHHPAH@Z:PROC ; convert_yv12_to_p010_sse2
EXTRN	?convert_yv12_16_to_nv12_avx2@@YAXPAPAXPAPBXHHHHHHHHPAH@Z:PROC ; convert_yv12_16_to_nv12_avx2
EXTRN	?convert_yv12_16_to_nv12_sse2@@YAXPAPAXPAPBXHHHHHHHHPAH@Z:PROC ; convert_yv12_16_to_nv12_sse2
EXTRN	?convert_yv12_14_to_nv12_avx2@@YAXPAPAXPAPBXHHHHHHHHPAH@Z:PROC ; convert_yv12_14_to_nv12_avx2
EXTRN	?convert_yv12_14_to_nv12_sse2@@YAXPAPAXPAPBXHHHHHHHHPAH@Z:PROC ; convert_yv12_14_to_nv12_sse2
EXTRN	?convert_yv12_12_to_nv12_avx2@@YAXPAPAXPAPBXHHHHHHHHPAH@Z:PROC ; convert_yv12_12_to_nv12_avx2
EXTRN	?convert_yv12_12_to_nv12_sse2@@YAXPAPAXPAPBXHHHHHHHHPAH@Z:PROC ; convert_yv12_12_to_nv12_sse2
EXTRN	?convert_yv12_10_to_nv12_avx2@@YAXPAPAXPAPBXHHHHHHHHPAH@Z:PROC ; convert_yv12_10_to_nv12_avx2
EXTRN	?convert_yv12_10_to_nv12_sse2@@YAXPAPAXPAPBXHHHHHHHHPAH@Z:PROC ; convert_yv12_10_to_nv12_sse2
EXTRN	?convert_yv12_09_to_nv12_avx2@@YAXPAPAXPAPBXHHHHHHHHPAH@Z:PROC ; convert_yv12_09_to_nv12_avx2
EXTRN	?convert_yv12_09_to_nv12_sse2@@YAXPAPAXPAPBXHHHHHHHHPAH@Z:PROC ; convert_yv12_09_to_nv12_sse2
EXTRN	?convert_yv12_16_to_p010_avx2@@YAXPAPAXPAPBXHHHHHHHHPAH@Z:PROC ; convert_yv12_16_to_p010_avx2
EXTRN	?convert_yv12_16_to_p010_sse2@@YAXPAPAXPAPBXHHHHHHHHPAH@Z:PROC ; convert_yv12_16_to_p010_sse2
EXTRN	?convert_yv12_14_to_p010_avx2@@YAXPAPAXPAPBXHHHHHHHHPAH@Z:PROC ; convert_yv12_14_to_p010_avx2
EXTRN	?convert_yv12_14_to_p010_sse2@@YAXPAPAXPAPBXHHHHHHHHPAH@Z:PROC ; convert_yv12_14_to_p010_sse2
EXTRN	?convert_yv12_12_to_p010_avx2@@YAXPAPAXPAPBXHHHHHHHHPAH@Z:PROC ; convert_yv12_12_to_p010_avx2
EXTRN	?convert_yv12_12_to_p010_sse2@@YAXPAPAXPAPBXHHHHHHHHPAH@Z:PROC ; convert_yv12_12_to_p010_sse2
EXTRN	?convert_yv12_10_to_p010_avx2@@YAXPAPAXPAPBXHHHHHHHHPAH@Z:PROC ; convert_yv12_10_to_p010_avx2
EXTRN	?convert_yv12_10_to_p010_sse2@@YAXPAPAXPAPBXHHHHHHHHPAH@Z:PROC ; convert_yv12_10_to_p010_sse2
EXTRN	?convert_yv12_09_to_p010_avx2@@YAXPAPAXPAPBXHHHHHHHHPAH@Z:PROC ; convert_yv12_09_to_p010_avx2
EXTRN	?convert_yv12_09_to_p010_sse2@@YAXPAPAXPAPBXHHHHHHHHPAH@Z:PROC ; convert_yv12_09_to_p010_sse2
EXTRN	?convert_yuv422_to_nv16_sse2@@YAXPAPAXPAPBXHHHHHHHHPAH@Z:PROC ; convert_yuv422_to_nv16_sse2
EXTRN	?convert_yuv422_to_p210_sse2@@YAXPAPAXPAPBXHHHHHHHHPAH@Z:PROC ; convert_yuv422_to_p210_sse2
EXTRN	?convert_yuv422_09_to_p210_sse2@@YAXPAPAXPAPBXHHHHHHHHPAH@Z:PROC ; convert_yuv422_09_to_p210_sse2
EXTRN	?convert_yuv422_10_to_p210_sse2@@YAXPAPAXPAPBXHHHHHHHHPAH@Z:PROC ; convert_yuv422_10_to_p210_sse2
EXTRN	?convert_yuv422_12_to_p210_sse2@@YAXPAPAXPAPBXHHHHHHHHPAH@Z:PROC ; convert_yuv422_12_to_p210_sse2
EXTRN	?convert_yuv422_14_to_p210_sse2@@YAXPAPAXPAPBXHHHHHHHHPAH@Z:PROC ; convert_yuv422_14_to_p210_sse2
EXTRN	?convert_yuv422_16_to_p210_sse2@@YAXPAPAXPAPBXHHHHHHHHPAH@Z:PROC ; convert_yuv422_16_to_p210_sse2
EXTRN	?copy_yuv444_to_yuv444_sse2@@YAXPAPAXPAPBXHHHHHHHHPAH@Z:PROC ; copy_yuv444_to_yuv444_sse2
EXTRN	?copy_yuv444_to_yuv444_avx2@@YAXPAPAXPAPBXHHHHHHHHPAH@Z:PROC ; copy_yuv444_to_yuv444_avx2
EXTRN	?convert_yuv444_16_to_yuv444_16_avx2@@YAXPAPAXPAPBXHHHHHHHHPAH@Z:PROC ; convert_yuv444_16_to_yuv444_16_avx2
EXTRN	?convert_yuv444_16_to_yuv444_16_sse2@@YAXPAPAXPAPBXHHHHHHHHPAH@Z:PROC ; convert_yuv444_16_to_yuv444_16_sse2
EXTRN	?convert_yuv444_14_to_yuv444_16_avx2@@YAXPAPAXPAPBXHHHHHHHHPAH@Z:PROC ; convert_yuv444_14_to_yuv444_16_avx2
EXTRN	?convert_yuv444_14_to_yuv444_16_sse2@@YAXPAPAXPAPBXHHHHHHHHPAH@Z:PROC ; convert_yuv444_14_to_yuv444_16_sse2
EXTRN	?convert_yuv444_12_to_yuv444_16_avx2@@YAXPAPAXPAPBXHHHHHHHHPAH@Z:PROC ; convert_yuv444_12_to_yuv444_16_avx2
EXTRN	?convert_yuv444_12_to_yuv444_16_sse2@@YAXPAPAXPAPBXHHHHHHHHPAH@Z:PROC ; convert_yuv444_12_to_yuv444_16_sse2
EXTRN	?convert_yuv444_10_to_yuv444_16_avx2@@YAXPAPAXPAPBXHHHHHHHHPAH@Z:PROC ; convert_yuv444_10_to_yuv444_16_avx2
EXTRN	?convert_yuv444_10_to_yuv444_16_sse2@@YAXPAPAXPAPBXHHHHHHHHPAH@Z:PROC ; convert_yuv444_10_to_yuv444_16_sse2
EXTRN	?convert_yuv444_09_to_yuv444_16_avx2@@YAXPAPAXPAPBXHHHHHHHHPAH@Z:PROC ; convert_yuv444_09_to_yuv444_16_avx2
EXTRN	?convert_yuv444_09_to_yuv444_16_sse2@@YAXPAPAXPAPBXHHHHHHHHPAH@Z:PROC ; convert_yuv444_09_to_yuv444_16_sse2
EXTRN	?convert_yuv444_to_yuv444_16_avx2@@YAXPAPAXPAPBXHHHHHHHHPAH@Z:PROC ; convert_yuv444_to_yuv444_16_avx2
EXTRN	?convert_yuv444_to_yuv444_16_sse2@@YAXPAPAXPAPBXHHHHHHHHPAH@Z:PROC ; convert_yuv444_to_yuv444_16_sse2
EXTRN	?convert_yuv444_16_to_yuv444_avx2@@YAXPAPAXPAPBXHHHHHHHHPAH@Z:PROC ; convert_yuv444_16_to_yuv444_avx2
EXTRN	?convert_yuv444_16_to_yuv444_sse2@@YAXPAPAXPAPBXHHHHHHHHPAH@Z:PROC ; convert_yuv444_16_to_yuv444_sse2
EXTRN	?convert_yuv444_14_to_yuv444_avx2@@YAXPAPAXPAPBXHHHHHHHHPAH@Z:PROC ; convert_yuv444_14_to_yuv444_avx2
EXTRN	?convert_yuv444_14_to_yuv444_sse2@@YAXPAPAXPAPBXHHHHHHHHPAH@Z:PROC ; convert_yuv444_14_to_yuv444_sse2
EXTRN	?convert_yuv444_12_to_yuv444_avx2@@YAXPAPAXPAPBXHHHHHHHHPAH@Z:PROC ; convert_yuv444_12_to_yuv444_avx2
EXTRN	?convert_yuv444_12_to_yuv444_sse2@@YAXPAPAXPAPBXHHHHHHHHPAH@Z:PROC ; convert_yuv444_12_to_yuv444_sse2
EXTRN	?convert_yuv444_10_to_yuv444_avx2@@YAXPAPAXPAPBXHHHHHHHHPAH@Z:PROC ; convert_yuv444_10_to_yuv444_avx2
EXTRN	?convert_yuv444_10_to_yuv444_sse2@@YAXPAPAXPAPBXHHHHHHHHPAH@Z:PROC ; convert_yuv444_10_to_yuv444_sse2
EXTRN	?convert_yuv444_09_to_yuv444_avx2@@YAXPAPAXPAPBXHHHHHHHHPAH@Z:PROC ; convert_yuv444_09_to_yuv444_avx2
EXTRN	?convert_yuv444_09_to_yuv444_sse2@@YAXPAPAXPAPBXHHHHHHHHPAH@Z:PROC ; convert_yuv444_09_to_yuv444_sse2
EXTRN	?convert_yc48_to_yuv444_avx@@YAXPAPAXPAPBXHHHHHHHHPAH@Z:PROC ; convert_yc48_to_yuv444_avx
EXTRN	?convert_yc48_to_yuv444_sse41@@YAXPAPAXPAPBXHHHHHHHHPAH@Z:PROC ; convert_yc48_to_yuv444_sse41
EXTRN	?convert_yc48_to_yuv444_sse2@@YAXPAPAXPAPBXHHHHHHHHPAH@Z:PROC ; convert_yc48_to_yuv444_sse2
EXTRN	?convert_yc48_to_p010_sse2@@YAXPAPAXPAPBXHHHHHHHHPAH@Z:PROC ; convert_yc48_to_p010_sse2
EXTRN	?convert_yc48_to_p010_i_sse2@@YAXPAPAXPAPBXHHHHHHHHPAH@Z:PROC ; convert_yc48_to_p010_i_sse2
EXTRN	?convert_yc48_to_p010_ssse3@@YAXPAPAXPAPBXHHHHHHHHPAH@Z:PROC ; convert_yc48_to_p010_ssse3
EXTRN	?convert_yc48_to_p010_i_ssse3@@YAXPAPAXPAPBXHHHHHHHHPAH@Z:PROC ; convert_yc48_to_p010_i_ssse3
EXTRN	?convert_yc48_to_p010_sse41@@YAXPAPAXPAPBXHHHHHHHHPAH@Z:PROC ; convert_yc48_to_p010_sse41
EXTRN	?convert_yc48_to_p010_i_sse41@@YAXPAPAXPAPBXHHHHHHHHPAH@Z:PROC ; convert_yc48_to_p010_i_sse41
EXTRN	?convert_yc48_to_p010_avx@@YAXPAPAXPAPBXHHHHHHHHPAH@Z:PROC ; convert_yc48_to_p010_avx
EXTRN	?convert_yc48_to_p010_i_avx@@YAXPAPAXPAPBXHHHHHHHHPAH@Z:PROC ; convert_yc48_to_p010_i_avx
EXTRN	?convert_yc48_to_p010_i_avx2@@YAXPAPAXPAPBXHHHHHHHHPAH@Z:PROC ; convert_yc48_to_p010_i_avx2
EXTRN	?convert_yc48_to_yuv444_16bit_avx2@@YAXPAPAXPAPBXHHHHHHHHPAH@Z:PROC ; convert_yc48_to_yuv444_16bit_avx2
EXTRN	?convert_yc48_to_yuv444_16bit_avx@@YAXPAPAXPAPBXHHHHHHHHPAH@Z:PROC ; convert_yc48_to_yuv444_16bit_avx
EXTRN	?convert_yc48_to_yuv444_16bit_sse41@@YAXPAPAXPAPBXHHHHHHHHPAH@Z:PROC ; convert_yc48_to_yuv444_16bit_sse41
EXTRN	?convert_yc48_to_yuv444_16bit_ssse3@@YAXPAPAXPAPBXHHHHHHHHPAH@Z:PROC ; convert_yc48_to_yuv444_16bit_ssse3
EXTRN	?convert_yc48_to_yuv444_16bit_sse2@@YAXPAPAXPAPBXHHHHHHHHPAH@Z:PROC ; convert_yc48_to_yuv444_16bit_sse2
EXTRN	?convert_yuv444_16bit_to_yc48_avx2@@YAXPAPAXPAPBXHHHHHHHHPAH@Z:PROC ; convert_yuv444_16bit_to_yc48_avx2
EXTRN	?convert_yuv444_16bit_to_yc48_avx@@YAXPAPAXPAPBXHHHHHHHHPAH@Z:PROC ; convert_yuv444_16bit_to_yc48_avx
EXTRN	?convert_yuv444_16bit_to_yc48_sse41@@YAXPAPAXPAPBXHHHHHHHHPAH@Z:PROC ; convert_yuv444_16bit_to_yc48_sse41
EXTRN	?convert_yuv444_16bit_to_yc48_sse2@@YAXPAPAXPAPBXHHHHHHHHPAH@Z:PROC ; convert_yuv444_16bit_to_yc48_sse2
CONST	SEGMENT
$SG26428 DB	'Invalid', 00H
$SG26429 DB	'nv12', 00H
	ORG $+3
$SG26430 DB	'yv12', 00H
	ORG $+3
$SG26431 DB	'yuy2', 00H
	ORG $+3
$SG26432 DB	'yuv422', 00H
	ORG $+1
$SG26433 DB	'nv16', 00H
	ORG $+3
$SG26434 DB	'yuv444', 00H
	ORG $+1
$SG26435 DB	'yv12(9bit)', 00H
	ORG $+1
$SG26436 DB	'yv12(10bit)', 00H
$SG26437 DB	'yv12(12bit)', 00H
$SG26438 DB	'yv12(14bit)', 00H
$SG26439 DB	'yv12(16bit)', 00H
$SG26440 DB	'p010', 00H
	ORG $+3
$SG26441 DB	'yuv422(9bit)', 00H
	ORG $+3
$SG26442 DB	'yuv422(10bit)', 00H
	ORG $+2
$SG26443 DB	'yuv422(12bit)', 00H
	ORG $+2
$SG26444 DB	'yuv422(14bit)', 00H
	ORG $+2
$SG26445 DB	'yuv422(16bit)', 00H
	ORG $+2
$SG26446 DB	'p210', 00H
	ORG $+3
$SG26447 DB	'yuv444(9bit)', 00H
	ORG $+3
$SG26448 DB	'yuv444(10bit)', 00H
	ORG $+2
$SG26449 DB	'yuv444(12bit)', 00H
	ORG $+2
$SG26450 DB	'yuv444(14bit)', 00H
	ORG $+2
$SG26451 DB	'yuv444(16bit)', 00H
	ORG $+2
$SG26452 DB	'yuva444', 00H
$SG26453 DB	'yuva444(16bit)', 00H
	ORG $+1
$SG26454 DB	'rgb24r', 00H
	ORG $+1
$SG26455 DB	'rgb32r', 00H
	ORG $+1
$SG26456 DB	'rgb24', 00H
	ORG $+2
$SG26457 DB	'rgb32', 00H
	ORG $+2
$SG26458 DB	'bgr24', 00H
	ORG $+2
$SG26459 DB	'bgr32', 00H
	ORG $+2
$SG26460 DB	'rgb', 00H
$SG26461 DB	'rgba', 00H
	ORG $+3
$SG26462 DB	'gbr', 00H
$SG26463 DB	'gbra', 00H
	ORG $+3
$SG26464 DB	'yc48', 00H
	ORG $+3
$SG26465 DB	'y8', 00H
	ORG $+1
$SG26466 DB	'yc16', 00H
	ORG $+3
?funcList@@3QBUConvertCSP@@B DD 01H			; funcList
	DD	01H
	DB	00H
	ORG $+3
	DD	FLAT:?copy_nv12_to_nv12_avx2@@YAXPAPAXPAPBXHHHHHHHHPAH@Z
	DD	FLAT:?copy_nv12_to_nv12_avx2@@YAXPAPAXPAPBXHHHHHHHHPAH@Z
	DD	0c0H
	DD	01H
	DD	01H
	DB	00H
	ORG $+3
	DD	FLAT:?copy_nv12_to_nv12_sse2@@YAXPAPAXPAPBXHHHHHHHHPAH@Z
	DD	FLAT:?copy_nv12_to_nv12_sse2@@YAXPAPAXPAPBXHHHHHHHHPAH@Z
	DD	01H
	DD	0cH
	DD	0cH
	DB	00H
	ORG $+3
	DD	FLAT:?copy_p010_to_p010_avx2@@YAXPAPAXPAPBXHHHHHHHHPAH@Z
	DD	FLAT:?copy_p010_to_p010_avx2@@YAXPAPAXPAPBXHHHHHHHHPAH@Z
	DD	0c0H
	DD	0cH
	DD	0cH
	DB	00H
	ORG $+3
	DD	FLAT:?copy_p010_to_p010_sse2@@YAXPAPAXPAPBXHHHHHHHHPAH@Z
	DD	FLAT:?copy_p010_to_p010_sse2@@YAXPAPAXPAPBXHHHHHHHHPAH@Z
	DD	01H
	DD	03H
	DD	01H
	DB	00H
	ORG $+3
	DD	FLAT:?convert_yuy2_to_nv12_avx2@@YAXPAPAXPAPBXHHHHHHHHPAH@Z
	DD	FLAT:?convert_yuy2_to_nv12_i_avx2@@YAXPAPAXPAPBXHHHHHHHHPAH@Z
	DD	0c0H
	DD	03H
	DD	01H
	DB	00H
	ORG $+3
	DD	FLAT:?convert_yuy2_to_nv12_avx@@YAXPAPAXPAPBXHHHHHHHHPAH@Z
	DD	FLAT:?convert_yuy2_to_nv12_i_avx@@YAXPAPAXPAPBXHHHHHHHHPAH@Z
	DD	040H
	DD	03H
	DD	01H
	DB	00H
	ORG $+3
	DD	FLAT:?convert_yuy2_to_nv12_sse2@@YAXPAPAXPAPBXHHHHHHHHPAH@Z
	DD	FLAT:?convert_yuy2_to_nv12_i_ssse3@@YAXPAPAXPAPBXHHHHHHHHPAH@Z
	DD	05H
	DD	03H
	DD	01H
	DB	00H
	ORG $+3
	DD	FLAT:?convert_yuy2_to_nv12_sse2@@YAXPAPAXPAPBXHHHHHHHHPAH@Z
	DD	FLAT:?convert_yuy2_to_nv12_i_sse2@@YAXPAPAXPAPBXHHHHHHHHPAH@Z
	DD	01H
	DD	03H
	DD	01H
	DB	00H
	ORG $+3
	DD	FLAT:?convert_yuy2_to_nv12@@YAXPAPAXPAPBXHHHHHHHHPAH@Z
	DD	FLAT:?convert_yuy2_to_nv12@@YAXPAPAXPAPBXHHHHHHHHPAH@Z
	DD	00H
	DD	03H
	DD	06H
	DB	00H
	ORG $+3
	DD	FLAT:?convert_yuy2_to_yuv444@@YAXPAPAXPAPBXHHHHHHHHPAH@Z
	DD	FLAT:?convert_yuy2_to_yuv444@@YAXPAPAXPAPBXHHHHHHHHPAH@Z
	DD	00H
	DD	024H
	DD	06H
	DB	00H
	ORG $+3
	DD	FLAT:?convert_yc48_to_yuv444_avx@@YAXPAPAXPAPBXHHHHHHHHPAH@Z
	DD	FLAT:?convert_yc48_to_yuv444_avx@@YAXPAPAXPAPBXHHHHHHHHPAH@Z
	DD	040H
	DD	024H
	DD	06H
	DB	00H
	ORG $+3
	DD	FLAT:?convert_yc48_to_yuv444_sse41@@YAXPAPAXPAPBXHHHHHHHHPAH@Z
	DD	FLAT:?convert_yc48_to_yuv444_sse41@@YAXPAPAXPAPBXHHHHHHHHPAH@Z
	DD	0dH
	DD	024H
	DD	06H
	DB	00H
	ORG $+3
	DD	FLAT:?convert_yc48_to_yuv444_sse2@@YAXPAPAXPAPBXHHHHHHHHPAH@Z
	DD	FLAT:?convert_yc48_to_yuv444_sse2@@YAXPAPAXPAPBXHHHHHHHHPAH@Z
	DD	01H
	DD	024H
	DD	0cH
	DB	00H
	ORG $+3
	DD	FLAT:?convert_yc48_to_p010_sse2@@YAXPAPAXPAPBXHHHHHHHHPAH@Z
	DD	FLAT:?convert_yc48_to_p010_i_avx2@@YAXPAPAXPAPBXHHHHHHHHPAH@Z
	DD	0c0H
	DD	024H
	DD	0cH
	DB	00H
	ORG $+3
	DD	FLAT:?convert_yc48_to_p010_avx@@YAXPAPAXPAPBXHHHHHHHHPAH@Z
	DD	FLAT:?convert_yc48_to_p010_i_avx@@YAXPAPAXPAPBXHHHHHHHHPAH@Z
	DD	040H
	DD	024H
	DD	0cH
	DB	00H
	ORG $+3
	DD	FLAT:?convert_yc48_to_p010_sse41@@YAXPAPAXPAPBXHHHHHHHHPAH@Z
	DD	FLAT:?convert_yc48_to_p010_i_sse41@@YAXPAPAXPAPBXHHHHHHHHPAH@Z
	DD	0dH
	DD	024H
	DD	0cH
	DB	00H
	ORG $+3
	DD	FLAT:?convert_yc48_to_p010_ssse3@@YAXPAPAXPAPBXHHHHHHHHPAH@Z
	DD	FLAT:?convert_yc48_to_p010_i_ssse3@@YAXPAPAXPAPBXHHHHHHHHPAH@Z
	DD	05H
	DD	024H
	DD	0cH
	DB	00H
	ORG $+3
	DD	FLAT:?convert_yc48_to_p010_sse2@@YAXPAPAXPAPBXHHHHHHHHPAH@Z
	DD	FLAT:?convert_yc48_to_p010_i_sse2@@YAXPAPAXPAPBXHHHHHHHHPAH@Z
	DD	01H
	DD	024H
	DD	017H
	DB	00H
	ORG $+3
	DD	FLAT:?convert_yc48_to_yuv444_16bit_avx2@@YAXPAPAXPAPBXHHHHHHHHPAH@Z
	DD	FLAT:?convert_yc48_to_yuv444_16bit_avx2@@YAXPAPAXPAPBXHHHHHHHHPAH@Z
	DD	080H
	DD	024H
	DD	017H
	DB	00H
	ORG $+3
	DD	FLAT:?convert_yc48_to_yuv444_16bit_avx@@YAXPAPAXPAPBXHHHHHHHHPAH@Z
	DD	FLAT:?convert_yc48_to_yuv444_16bit_avx@@YAXPAPAXPAPBXHHHHHHHHPAH@Z
	DD	040H
	DD	024H
	DD	017H
	DB	00H
	ORG $+3
	DD	FLAT:?convert_yc48_to_yuv444_16bit_sse41@@YAXPAPAXPAPBXHHHHHHHHPAH@Z
	DD	FLAT:?convert_yc48_to_yuv444_16bit_sse41@@YAXPAPAXPAPBXHHHHHHHHPAH@Z
	DD	0dH
	DD	024H
	DD	017H
	DB	00H
	ORG $+3
	DD	FLAT:?convert_yc48_to_yuv444_16bit_ssse3@@YAXPAPAXPAPBXHHHHHHHHPAH@Z
	DD	FLAT:?convert_yc48_to_yuv444_16bit_ssse3@@YAXPAPAXPAPBXHHHHHHHHPAH@Z
	DD	05H
	DD	024H
	DD	017H
	DB	00H
	ORG $+3
	DD	FLAT:?convert_yc48_to_yuv444_16bit_sse2@@YAXPAPAXPAPBXHHHHHHHHPAH@Z
	DD	FLAT:?convert_yc48_to_yuv444_16bit_sse2@@YAXPAPAXPAPBXHHHHHHHHPAH@Z
	DD	01H
	DD	017H
	DD	024H
	DB	00H
	ORG $+3
	DD	FLAT:?convert_yuv444_16bit_to_yc48_avx2@@YAXPAPAXPAPBXHHHHHHHHPAH@Z
	DD	FLAT:?convert_yuv444_16bit_to_yc48_avx2@@YAXPAPAXPAPBXHHHHHHHHPAH@Z
	DD	080H
	DD	017H
	DD	024H
	DB	00H
	ORG $+3
	DD	FLAT:?convert_yuv444_16bit_to_yc48_avx@@YAXPAPAXPAPBXHHHHHHHHPAH@Z
	DD	FLAT:?convert_yuv444_16bit_to_yc48_avx@@YAXPAPAXPAPBXHHHHHHHHPAH@Z
	DD	040H
	DD	017H
	DD	024H
	DB	00H
	ORG $+3
	DD	FLAT:?convert_yuv444_16bit_to_yc48_sse41@@YAXPAPAXPAPBXHHHHHHHHPAH@Z
	DD	FLAT:?convert_yuv444_16bit_to_yc48_sse41@@YAXPAPAXPAPBXHHHHHHHHPAH@Z
	DD	0dH
	DD	017H
	DD	024H
	DB	00H
	ORG $+3
	DD	FLAT:?convert_yuv444_16bit_to_yc48_sse2@@YAXPAPAXPAPBXHHHHHHHHPAH@Z
	DD	FLAT:?convert_yuv444_16bit_to_yc48_sse2@@YAXPAPAXPAPBXHHHHHHHHPAH@Z
	DD	01H
	DD	02H
	DD	01H
	DB	00H
	ORG $+3
	DD	FLAT:?convert_yv12_to_nv12_avx2@@YAXPAPAXPAPBXHHHHHHHHPAH@Z
	DD	FLAT:?convert_yv12_to_nv12_avx2@@YAXPAPAXPAPBXHHHHHHHHPAH@Z
	DD	0c0H
	DD	02H
	DD	01H
	DB	00H
	ORG $+3
	DD	FLAT:?convert_yv12_to_nv12_avx@@YAXPAPAXPAPBXHHHHHHHHPAH@Z
	DD	FLAT:?convert_yv12_to_nv12_avx@@YAXPAPAXPAPBXHHHHHHHHPAH@Z
	DD	040H
	DD	02H
	DD	01H
	DB	00H
	ORG $+3
	DD	FLAT:?convert_yv12_to_nv12_sse2@@YAXPAPAXPAPBXHHHHHHHHPAH@Z
	DD	FLAT:?convert_yv12_to_nv12_sse2@@YAXPAPAXPAPBXHHHHHHHHPAH@Z
	DD	01H
	DD	02H
	DD	06H
	DB	00H
	ORG $+3
	DD	FLAT:?convert_yv12_p_to_yuv444@@YAXPAPAXPAPBXHHHHHHHHPAH@Z
	DD	FLAT:?convert_yv12_i_to_yuv444@@YAXPAPAXPAPBXHHHHHHHHPAH@Z
	DD	00H
	DD	02H
	DD	01H
	DB	01H
	ORG $+3
	DD	FLAT:?convert_uv_yv12_to_nv12_avx2@@YAXPAPAXPAPBXHHHHHHHHPAH@Z
	DD	FLAT:?convert_uv_yv12_to_nv12_avx2@@YAXPAPAXPAPBXHHHHHHHHPAH@Z
	DD	0c0H
	DD	02H
	DD	01H
	DB	01H
	ORG $+3
	DD	FLAT:?convert_uv_yv12_to_nv12_avx@@YAXPAPAXPAPBXHHHHHHHHPAH@Z
	DD	FLAT:?convert_uv_yv12_to_nv12_avx@@YAXPAPAXPAPBXHHHHHHHHPAH@Z
	DD	040H
	DD	02H
	DD	01H
	DB	01H
	ORG $+3
	DD	FLAT:?convert_uv_yv12_to_nv12_sse2@@YAXPAPAXPAPBXHHHHHHHHPAH@Z
	DD	FLAT:?convert_uv_yv12_to_nv12_sse2@@YAXPAPAXPAPBXHHHHHHHHPAH@Z
	DD	01H
	DD	01eH
	DD	01cH
	DB	00H
	ORG $+3
	DD	FLAT:?convert_bgr24_to_rgb24_ssse3@@YAXPAPAXPAPBXHHHHHHHHPAH@Z
	DD	FLAT:?convert_bgr24_to_rgb24_ssse3@@YAXPAPAXPAPBXHHHHHHHHPAH@Z
	DD	05H
	DD	01fH
	DD	01dH
	DB	00H
	ORG $+3
	DD	FLAT:?convert_bgr32_to_rgb32_ssse3@@YAXPAPAXPAPBXHHHHHHHHPAH@Z
	DD	FLAT:?convert_bgr32_to_rgb32_ssse3@@YAXPAPAXPAPBXHHHHHHHHPAH@Z
	DD	05H
	DD	01cH
	DD	020H
	DB	00H
	ORG $+3
	DD	FLAT:?convert_rgb24_to_rgb_ssse3@@YAXPAPAXPAPBXHHHHHHHHPAH@Z
	DD	FLAT:?convert_rgb24_to_rgb_ssse3@@YAXPAPAXPAPBXHHHHHHHHPAH@Z
	DD	05H
	DD	01eH
	DD	020H
	DB	00H
	ORG $+3
	DD	FLAT:?convert_bgr24_to_rgb_ssse3@@YAXPAPAXPAPBXHHHHHHHHPAH@Z
	DD	FLAT:?convert_bgr24_to_rgb_ssse3@@YAXPAPAXPAPBXHHHHHHHHPAH@Z
	DD	05H
	DD	01aH
	DD	020H
	DB	00H
	ORG $+3
	DD	FLAT:?convert_rgb24r_to_rgb_ssse3@@YAXPAPAXPAPBXHHHHHHHHPAH@Z
	DD	FLAT:?convert_rgb24r_to_rgb_ssse3@@YAXPAPAXPAPBXHHHHHHHHPAH@Z
	DD	05H
	DD	01dH
	DD	020H
	DB	00H
	ORG $+3
	DD	FLAT:?convert_rgb32_to_rgb_sse2@@YAXPAPAXPAPBXHHHHHHHHPAH@Z
	DD	FLAT:?convert_rgb32_to_rgb_sse2@@YAXPAPAXPAPBXHHHHHHHHPAH@Z
	DD	01H
	DD	01fH
	DD	020H
	DB	00H
	ORG $+3
	DD	FLAT:?convert_bgr32_to_rgb_sse2@@YAXPAPAXPAPBXHHHHHHHHPAH@Z
	DD	FLAT:?convert_bgr32_to_rgb_sse2@@YAXPAPAXPAPBXHHHHHHHHPAH@Z
	DD	01H
	DD	01bH
	DD	020H
	DB	00H
	ORG $+3
	DD	FLAT:?convert_rgb32r_to_rgb_sse2@@YAXPAPAXPAPBXHHHHHHHHPAH@Z
	DD	FLAT:?convert_rgb32r_to_rgb_sse2@@YAXPAPAXPAPBXHHHHHHHHPAH@Z
	DD	01H
	DD	022H
	DD	01cH
	DB	00H
	ORG $+3
	DD	FLAT:?convert_gbr_to_rgb24_ssse3@@YAXPAPAXPAPBXHHHHHHHHPAH@Z
	DD	FLAT:?convert_gbr_to_rgb24_ssse3@@YAXPAPAXPAPBXHHHHHHHHPAH@Z
	DD	05H
	DD	023H
	DD	01cH
	DB	00H
	ORG $+3
	DD	FLAT:?convert_gbr_to_rgb24_ssse3@@YAXPAPAXPAPBXHHHHHHHHPAH@Z
	DD	FLAT:?convert_gbr_to_rgb24_ssse3@@YAXPAPAXPAPBXHHHHHHHHPAH@Z
	DD	05H
	DD	022H
	DD	01dH
	DB	00H
	ORG $+3
	DD	FLAT:?convert_gbr_to_rgb32_sse2@@YAXPAPAXPAPBXHHHHHHHHPAH@Z
	DD	FLAT:?convert_gbr_to_rgb32_sse2@@YAXPAPAXPAPBXHHHHHHHHPAH@Z
	DD	01H
	DD	023H
	DD	01dH
	DB	00H
	ORG $+3
	DD	FLAT:?convert_gbr_to_rgb32_sse2@@YAXPAPAXPAPBXHHHHHHHHPAH@Z
	DD	FLAT:?convert_gbr_to_rgb32_sse2@@YAXPAPAXPAPBXHHHHHHHHPAH@Z
	DD	01H
	DD	020H
	DD	020H
	DB	00H
	ORG $+3
	DD	FLAT:?copy_rgb_to_rgb_sse2@@YAXPAPAXPAPBXHHHHHHHHPAH@Z
	DD	FLAT:?copy_rgb_to_rgb_sse2@@YAXPAPAXPAPBXHHHHHHHHPAH@Z
	DD	01H
	DD	022H
	DD	020H
	DB	00H
	ORG $+3
	DD	FLAT:?copy_gbr_to_rgb_sse2@@YAXPAPAXPAPBXHHHHHHHHPAH@Z
	DD	FLAT:?copy_gbr_to_rgb_sse2@@YAXPAPAXPAPBXHHHHHHHHPAH@Z
	DD	01H
	DD	01cH
	DD	01dH
	DB	00H
	ORG $+3
	DD	FLAT:?convert_rgb24_to_rgb32_avx2@@YAXPAPAXPAPBXHHHHHHHHPAH@Z
	DD	FLAT:?convert_rgb24_to_rgb32_avx2@@YAXPAPAXPAPBXHHHHHHHHPAH@Z
	DD	0c0H
	DD	01aH
	DD	01dH
	DB	00H
	ORG $+3
	DD	FLAT:?convert_rgb24r_to_rgb32_avx2@@YAXPAPAXPAPBXHHHHHHHHPAH@Z
	DD	FLAT:?convert_rgb24r_to_rgb32_avx2@@YAXPAPAXPAPBXHHHHHHHHPAH@Z
	DD	0c0H
	DD	01cH
	DD	01dH
	DB	00H
	ORG $+3
	DD	FLAT:?convert_rgb24_to_rgb32_avx@@YAXPAPAXPAPBXHHHHHHHHPAH@Z
	DD	FLAT:?convert_rgb24_to_rgb32_avx@@YAXPAPAXPAPBXHHHHHHHHPAH@Z
	DD	040H
	DD	01aH
	DD	01dH
	DB	00H
	ORG $+3
	DD	FLAT:?convert_rgb24r_to_rgb32_avx@@YAXPAPAXPAPBXHHHHHHHHPAH@Z
	DD	FLAT:?convert_rgb24r_to_rgb32_avx@@YAXPAPAXPAPBXHHHHHHHHPAH@Z
	DD	040H
	DD	01cH
	DD	01dH
	DB	00H
	ORG $+3
	DD	FLAT:?convert_rgb24_to_rgb32_ssse3@@YAXPAPAXPAPBXHHHHHHHHPAH@Z
	DD	FLAT:?convert_rgb24_to_rgb32_ssse3@@YAXPAPAXPAPBXHHHHHHHHPAH@Z
	DD	05H
	DD	01aH
	DD	01dH
	DB	00H
	ORG $+3
	DD	FLAT:?convert_rgb24r_to_rgb32_ssse3@@YAXPAPAXPAPBXHHHHHHHHPAH@Z
	DD	FLAT:?convert_rgb24r_to_rgb32_ssse3@@YAXPAPAXPAPBXHHHHHHHHPAH@Z
	DD	05H
	DD	01dH
	DD	01dH
	DB	00H
	ORG $+3
	DD	FLAT:?convert_rgb32_to_rgb32_avx2@@YAXPAPAXPAPBXHHHHHHHHPAH@Z
	DD	FLAT:?convert_rgb32_to_rgb32_avx2@@YAXPAPAXPAPBXHHHHHHHHPAH@Z
	DD	0c0H
	DD	01bH
	DD	01dH
	DB	00H
	ORG $+3
	DD	FLAT:?convert_rgb32r_to_rgb32_avx2@@YAXPAPAXPAPBXHHHHHHHHPAH@Z
	DD	FLAT:?convert_rgb32r_to_rgb32_avx2@@YAXPAPAXPAPBXHHHHHHHHPAH@Z
	DD	0c0H
	DD	01dH
	DD	01dH
	DB	00H
	ORG $+3
	DD	FLAT:?convert_rgb32_to_rgb32_avx@@YAXPAPAXPAPBXHHHHHHHHPAH@Z
	DD	FLAT:?convert_rgb32_to_rgb32_avx@@YAXPAPAXPAPBXHHHHHHHHPAH@Z
	DD	040H
	DD	01bH
	DD	01dH
	DB	00H
	ORG $+3
	DD	FLAT:?convert_rgb32r_to_rgb32_avx@@YAXPAPAXPAPBXHHHHHHHHPAH@Z
	DD	FLAT:?convert_rgb32r_to_rgb32_avx@@YAXPAPAXPAPBXHHHHHHHHPAH@Z
	DD	040H
	DD	01dH
	DD	01dH
	DB	00H
	ORG $+3
	DD	FLAT:?convert_rgb32_to_rgb32_sse2@@YAXPAPAXPAPBXHHHHHHHHPAH@Z
	DD	FLAT:?convert_rgb32_to_rgb32_sse2@@YAXPAPAXPAPBXHHHHHHHHPAH@Z
	DD	01H
	DD	01bH
	DD	01dH
	DB	00H
	ORG $+3
	DD	FLAT:?convert_rgb32r_to_rgb32_sse2@@YAXPAPAXPAPBXHHHHHHHHPAH@Z
	DD	FLAT:?convert_rgb32r_to_rgb32_sse2@@YAXPAPAXPAPBXHHHHHHHHPAH@Z
	DD	01H
	DD	01cH
	DD	01cH
	DB	00H
	ORG $+3
	DD	FLAT:?convert_rgb24_to_rgb24_avx2@@YAXPAPAXPAPBXHHHHHHHHPAH@Z
	DD	FLAT:?convert_rgb24_to_rgb24_avx2@@YAXPAPAXPAPBXHHHHHHHHPAH@Z
	DD	0c0H
	DD	01aH
	DD	01cH
	DB	00H
	ORG $+3
	DD	FLAT:?convert_rgb24r_to_rgb24_avx2@@YAXPAPAXPAPBXHHHHHHHHPAH@Z
	DD	FLAT:?convert_rgb24r_to_rgb24_avx2@@YAXPAPAXPAPBXHHHHHHHHPAH@Z
	DD	0c0H
	DD	01cH
	DD	01cH
	DB	00H
	ORG $+3
	DD	FLAT:?convert_rgb24_to_rgb24_sse2@@YAXPAPAXPAPBXHHHHHHHHPAH@Z
	DD	FLAT:?convert_rgb24_to_rgb24_sse2@@YAXPAPAXPAPBXHHHHHHHHPAH@Z
	DD	01H
	DD	01aH
	DD	01cH
	DB	00H
	ORG $+3
	DD	FLAT:?convert_rgb24r_to_rgb24_sse2@@YAXPAPAXPAPBXHHHHHHHHPAH@Z
	DD	FLAT:?convert_rgb24r_to_rgb24_sse2@@YAXPAPAXPAPBXHHHHHHHHPAH@Z
	DD	01H
	DD	02H
	DD	0cH
	DB	00H
	ORG $+3
	DD	FLAT:?convert_yv12_to_p010_avx2@@YAXPAPAXPAPBXHHHHHHHHPAH@Z
	DD	FLAT:?convert_yv12_to_p010_avx2@@YAXPAPAXPAPBXHHHHHHHHPAH@Z
	DD	0c0H
	DD	02H
	DD	0cH
	DB	00H
	ORG $+3
	DD	FLAT:?convert_yv12_to_p010_avx@@YAXPAPAXPAPBXHHHHHHHHPAH@Z
	DD	FLAT:?convert_yv12_to_p010_avx@@YAXPAPAXPAPBXHHHHHHHHPAH@Z
	DD	040H
	DD	02H
	DD	0cH
	DB	00H
	ORG $+3
	DD	FLAT:?convert_yv12_to_p010_sse2@@YAXPAPAXPAPBXHHHHHHHHPAH@Z
	DD	FLAT:?convert_yv12_to_p010_sse2@@YAXPAPAXPAPBXHHHHHHHHPAH@Z
	DD	01H
	DD	02H
	DD	0cH
	DB	00H
	ORG $+3
	DD	FLAT:?convert_yv12_to_p010@@YAXPAPAXPAPBXHHHHHHHHPAH@Z
	DD	FLAT:?convert_yv12_to_p010@@YAXPAPAXPAPBXHHHHHHHHPAH@Z
	DD	00H
	DD	02H
	DD	017H
	DB	00H
	ORG $+3
	DD	FLAT:?convert_yv12_p_to_yuv444_16bit@@YAXPAPAXPAPBXHHHHHHHHPAH@Z
	DD	FLAT:?convert_yv12_i_to_yuv444_16bit@@YAXPAPAXPAPBXHHHHHHHHPAH@Z
	DD	00H
	DD	0bH
	DD	01H
	DB	00H
	ORG $+3
	DD	FLAT:?convert_yv12_16_to_nv12_avx2@@YAXPAPAXPAPBXHHHHHHHHPAH@Z
	DD	FLAT:?convert_yv12_16_to_nv12_avx2@@YAXPAPAXPAPBXHHHHHHHHPAH@Z
	DD	0c0H
	DD	0bH
	DD	01H
	DB	00H
	ORG $+3
	DD	FLAT:?convert_yv12_16_to_nv12_sse2@@YAXPAPAXPAPBXHHHHHHHHPAH@Z
	DD	FLAT:?convert_yv12_16_to_nv12_sse2@@YAXPAPAXPAPBXHHHHHHHHPAH@Z
	DD	01H
	DD	0aH
	DD	01H
	DB	00H
	ORG $+3
	DD	FLAT:?convert_yv12_14_to_nv12_avx2@@YAXPAPAXPAPBXHHHHHHHHPAH@Z
	DD	FLAT:?convert_yv12_14_to_nv12_avx2@@YAXPAPAXPAPBXHHHHHHHHPAH@Z
	DD	0c0H
	DD	0aH
	DD	01H
	DB	00H
	ORG $+3
	DD	FLAT:?convert_yv12_14_to_nv12_sse2@@YAXPAPAXPAPBXHHHHHHHHPAH@Z
	DD	FLAT:?convert_yv12_14_to_nv12_sse2@@YAXPAPAXPAPBXHHHHHHHHPAH@Z
	DD	01H
	DD	09H
	DD	01H
	DB	00H
	ORG $+3
	DD	FLAT:?convert_yv12_12_to_nv12_avx2@@YAXPAPAXPAPBXHHHHHHHHPAH@Z
	DD	FLAT:?convert_yv12_12_to_nv12_avx2@@YAXPAPAXPAPBXHHHHHHHHPAH@Z
	DD	0c0H
	DD	09H
	DD	01H
	DB	00H
	ORG $+3
	DD	FLAT:?convert_yv12_12_to_nv12_sse2@@YAXPAPAXPAPBXHHHHHHHHPAH@Z
	DD	FLAT:?convert_yv12_12_to_nv12_sse2@@YAXPAPAXPAPBXHHHHHHHHPAH@Z
	DD	01H
	DD	08H
	DD	01H
	DB	00H
	ORG $+3
	DD	FLAT:?convert_yv12_10_to_nv12_avx2@@YAXPAPAXPAPBXHHHHHHHHPAH@Z
	DD	FLAT:?convert_yv12_10_to_nv12_avx2@@YAXPAPAXPAPBXHHHHHHHHPAH@Z
	DD	0c0H
	DD	08H
	DD	01H
	DB	00H
	ORG $+3
	DD	FLAT:?convert_yv12_10_to_nv12_sse2@@YAXPAPAXPAPBXHHHHHHHHPAH@Z
	DD	FLAT:?convert_yv12_10_to_nv12_sse2@@YAXPAPAXPAPBXHHHHHHHHPAH@Z
	DD	01H
	DD	07H
	DD	01H
	DB	00H
	ORG $+3
	DD	FLAT:?convert_yv12_09_to_nv12_avx2@@YAXPAPAXPAPBXHHHHHHHHPAH@Z
	DD	FLAT:?convert_yv12_09_to_nv12_avx2@@YAXPAPAXPAPBXHHHHHHHHPAH@Z
	DD	0c0H
	DD	07H
	DD	01H
	DB	00H
	ORG $+3
	DD	FLAT:?convert_yv12_09_to_nv12_sse2@@YAXPAPAXPAPBXHHHHHHHHPAH@Z
	DD	FLAT:?convert_yv12_09_to_nv12_sse2@@YAXPAPAXPAPBXHHHHHHHHPAH@Z
	DD	01H
	DD	0bH
	DD	0cH
	DB	00H
	ORG $+3
	DD	FLAT:?convert_yv12_16_to_p010_avx2@@YAXPAPAXPAPBXHHHHHHHHPAH@Z
	DD	FLAT:?convert_yv12_16_to_p010_avx2@@YAXPAPAXPAPBXHHHHHHHHPAH@Z
	DD	0c0H
	DD	0bH
	DD	0cH
	DB	00H
	ORG $+3
	DD	FLAT:?convert_yv12_16_to_p010_sse2@@YAXPAPAXPAPBXHHHHHHHHPAH@Z
	DD	FLAT:?convert_yv12_16_to_p010_sse2@@YAXPAPAXPAPBXHHHHHHHHPAH@Z
	DD	01H
	DD	0aH
	DD	0cH
	DB	00H
	ORG $+3
	DD	FLAT:?convert_yv12_14_to_p010_avx2@@YAXPAPAXPAPBXHHHHHHHHPAH@Z
	DD	FLAT:?convert_yv12_14_to_p010_avx2@@YAXPAPAXPAPBXHHHHHHHHPAH@Z
	DD	0c0H
	DD	0aH
	DD	0cH
	DB	00H
	ORG $+3
	DD	FLAT:?convert_yv12_14_to_p010_sse2@@YAXPAPAXPAPBXHHHHHHHHPAH@Z
	DD	FLAT:?convert_yv12_14_to_p010_sse2@@YAXPAPAXPAPBXHHHHHHHHPAH@Z
	DD	01H
	DD	09H
	DD	0cH
	DB	00H
	ORG $+3
	DD	FLAT:?convert_yv12_12_to_p010_avx2@@YAXPAPAXPAPBXHHHHHHHHPAH@Z
	DD	FLAT:?convert_yv12_12_to_p010_avx2@@YAXPAPAXPAPBXHHHHHHHHPAH@Z
	DD	0c0H
	DD	09H
	DD	0cH
	DB	00H
	ORG $+3
	DD	FLAT:?convert_yv12_12_to_p010_sse2@@YAXPAPAXPAPBXHHHHHHHHPAH@Z
	DD	FLAT:?convert_yv12_12_to_p010_sse2@@YAXPAPAXPAPBXHHHHHHHHPAH@Z
	DD	01H
	DD	08H
	DD	0cH
	DB	00H
	ORG $+3
	DD	FLAT:?convert_yv12_10_to_p010_avx2@@YAXPAPAXPAPBXHHHHHHHHPAH@Z
	DD	FLAT:?convert_yv12_10_to_p010_avx2@@YAXPAPAXPAPBXHHHHHHHHPAH@Z
	DD	0c0H
	DD	08H
	DD	0cH
	DB	00H
	ORG $+3
	DD	FLAT:?convert_yv12_10_to_p010_sse2@@YAXPAPAXPAPBXHHHHHHHHPAH@Z
	DD	FLAT:?convert_yv12_10_to_p010_sse2@@YAXPAPAXPAPBXHHHHHHHHPAH@Z
	DD	01H
	DD	07H
	DD	0cH
	DB	00H
	ORG $+3
	DD	FLAT:?convert_yv12_09_to_p010_avx2@@YAXPAPAXPAPBXHHHHHHHHPAH@Z
	DD	FLAT:?convert_yv12_09_to_p010_avx2@@YAXPAPAXPAPBXHHHHHHHHPAH@Z
	DD	0c0H
	DD	07H
	DD	0cH
	DB	00H
	ORG $+3
	DD	FLAT:?convert_yv12_09_to_p010_sse2@@YAXPAPAXPAPBXHHHHHHHHPAH@Z
	DD	FLAT:?convert_yv12_09_to_p010_sse2@@YAXPAPAXPAPBXHHHHHHHHPAH@Z
	DD	01H
	DD	0bH
	DD	06H
	DB	00H
	ORG $+3
	DD	FLAT:?convert_yv12_16_p_to_yuv444@@YAXPAPAXPAPBXHHHHHHHHPAH@Z
	DD	FLAT:?convert_yv12_16_i_to_yuv444@@YAXPAPAXPAPBXHHHHHHHHPAH@Z
	DD	00H
	DD	0aH
	DD	06H
	DB	00H
	ORG $+3
	DD	FLAT:?convert_yv12_14_p_to_yuv444@@YAXPAPAXPAPBXHHHHHHHHPAH@Z
	DD	FLAT:?convert_yv12_14_i_to_yuv444@@YAXPAPAXPAPBXHHHHHHHHPAH@Z
	DD	00H
	DD	09H
	DD	06H
	DB	00H
	ORG $+3
	DD	FLAT:?convert_yv12_12_p_to_yuv444@@YAXPAPAXPAPBXHHHHHHHHPAH@Z
	DD	FLAT:?convert_yv12_12_i_to_yuv444@@YAXPAPAXPAPBXHHHHHHHHPAH@Z
	DD	00H
	DD	08H
	DD	06H
	DB	00H
	ORG $+3
	DD	FLAT:?convert_yv12_10_p_to_yuv444@@YAXPAPAXPAPBXHHHHHHHHPAH@Z
	DD	FLAT:?convert_yv12_10_i_to_yuv444@@YAXPAPAXPAPBXHHHHHHHHPAH@Z
	DD	00H
	DD	07H
	DD	06H
	DB	00H
	ORG $+3
	DD	FLAT:?convert_yv12_09_p_to_yuv444@@YAXPAPAXPAPBXHHHHHHHHPAH@Z
	DD	FLAT:?convert_yv12_09_i_to_yuv444@@YAXPAPAXPAPBXHHHHHHHHPAH@Z
	DD	00H
	DD	0bH
	DD	017H
	DB	00H
	ORG $+3
	DD	FLAT:?convert_yv12_16_p_to_yuv444_16bit@@YAXPAPAXPAPBXHHHHHHHHPAH@Z
	DD	FLAT:?convert_yv12_16_i_to_yuv444_16bit@@YAXPAPAXPAPBXHHHHHHHHPAH@Z
	DD	00H
	DD	0aH
	DD	017H
	DB	00H
	ORG $+3
	DD	FLAT:?convert_yv12_14_p_to_yuv444_16bit@@YAXPAPAXPAPBXHHHHHHHHPAH@Z
	DD	FLAT:?convert_yv12_14_i_to_yuv444_16bit@@YAXPAPAXPAPBXHHHHHHHHPAH@Z
	DD	00H
	DD	09H
	DD	017H
	DB	00H
	ORG $+3
	DD	FLAT:?convert_yv12_12_p_to_yuv444_16bit@@YAXPAPAXPAPBXHHHHHHHHPAH@Z
	DD	FLAT:?convert_yv12_12_i_to_yuv444_16bit@@YAXPAPAXPAPBXHHHHHHHHPAH@Z
	DD	00H
	DD	08H
	DD	017H
	DB	00H
	ORG $+3
	DD	FLAT:?convert_yv12_10_p_to_yuv444_16bit@@YAXPAPAXPAPBXHHHHHHHHPAH@Z
	DD	FLAT:?convert_yv12_10_i_to_yuv444_16bit@@YAXPAPAXPAPBXHHHHHHHHPAH@Z
	DD	00H
	DD	07H
	DD	017H
	DB	00H
	ORG $+3
	DD	FLAT:?convert_yv12_09_p_to_yuv444_16bit@@YAXPAPAXPAPBXHHHHHHHHPAH@Z
	DD	FLAT:?convert_yv12_09_i_to_yuv444_16bit@@YAXPAPAXPAPBXHHHHHHHHPAH@Z
	DD	00H
	DD	04H
	DD	06H
	DB	00H
	ORG $+3
	DD	FLAT:?convert_yuv422_to_yuv444@@YAXPAPAXPAPBXHHHHHHHHPAH@Z
	DD	FLAT:?convert_yuv422_to_yuv444@@YAXPAPAXPAPBXHHHHHHHHPAH@Z
	DD	00H
	DD	04H
	DD	05H
	DB	00H
	ORG $+3
	DD	FLAT:?convert_yuv422_to_nv16_sse2@@YAXPAPAXPAPBXHHHHHHHHPAH@Z
	DD	FLAT:?convert_yuv422_to_nv16_sse2@@YAXPAPAXPAPBXHHHHHHHHPAH@Z
	DD	01H
	DD	04H
	DD	012H
	DB	00H
	ORG $+3
	DD	FLAT:?convert_yuv422_to_p210_sse2@@YAXPAPAXPAPBXHHHHHHHHPAH@Z
	DD	FLAT:?convert_yuv422_to_p210_sse2@@YAXPAPAXPAPBXHHHHHHHHPAH@Z
	DD	01H
	DD	011H
	DD	012H
	DB	00H
	ORG $+3
	DD	FLAT:?convert_yuv422_16_to_p210_sse2@@YAXPAPAXPAPBXHHHHHHHHPAH@Z
	DD	FLAT:?convert_yuv422_16_to_p210_sse2@@YAXPAPAXPAPBXHHHHHHHHPAH@Z
	DD	01H
	DD	010H
	DD	012H
	DB	00H
	ORG $+3
	DD	FLAT:?convert_yuv422_14_to_p210_sse2@@YAXPAPAXPAPBXHHHHHHHHPAH@Z
	DD	FLAT:?convert_yuv422_14_to_p210_sse2@@YAXPAPAXPAPBXHHHHHHHHPAH@Z
	DD	01H
	DD	0fH
	DD	012H
	DB	00H
	ORG $+3
	DD	FLAT:?convert_yuv422_12_to_p210_sse2@@YAXPAPAXPAPBXHHHHHHHHPAH@Z
	DD	FLAT:?convert_yuv422_12_to_p210_sse2@@YAXPAPAXPAPBXHHHHHHHHPAH@Z
	DD	01H
	DD	0eH
	DD	012H
	DB	00H
	ORG $+3
	DD	FLAT:?convert_yuv422_10_to_p210_sse2@@YAXPAPAXPAPBXHHHHHHHHPAH@Z
	DD	FLAT:?convert_yuv422_10_to_p210_sse2@@YAXPAPAXPAPBXHHHHHHHHPAH@Z
	DD	01H
	DD	0dH
	DD	012H
	DB	00H
	ORG $+3
	DD	FLAT:?convert_yuv422_09_to_p210_sse2@@YAXPAPAXPAPBXHHHHHHHHPAH@Z
	DD	FLAT:?convert_yuv422_09_to_p210_sse2@@YAXPAPAXPAPBXHHHHHHHHPAH@Z
	DD	01H
	DD	06H
	DD	01H
	DB	00H
	ORG $+3
	DD	FLAT:?convert_yuv444_to_nv12_p@@YAXPAPAXPAPBXHHHHHHHHPAH@Z
	DD	FLAT:?convert_yuv444_to_nv12_i@@YAXPAPAXPAPBXHHHHHHHHPAH@Z
	DD	00H
	DD	06H
	DD	0cH
	DB	00H
	ORG $+3
	DD	FLAT:?convert_yuv444_to_p010_p@@YAXPAPAXPAPBXHHHHHHHHPAH@Z
	DD	FLAT:?convert_yuv444_to_p010_i@@YAXPAPAXPAPBXHHHHHHHHPAH@Z
	DD	00H
	DD	06H
	DD	06H
	DB	00H
	ORG $+3
	DD	FLAT:?copy_yuv444_to_yuv444_avx2@@YAXPAPAXPAPBXHHHHHHHHPAH@Z
	DD	FLAT:?copy_yuv444_to_yuv444_avx2@@YAXPAPAXPAPBXHHHHHHHHPAH@Z
	DD	0c0H
	DD	06H
	DD	06H
	DB	00H
	ORG $+3
	DD	FLAT:?copy_yuv444_to_yuv444_sse2@@YAXPAPAXPAPBXHHHHHHHHPAH@Z
	DD	FLAT:?copy_yuv444_to_yuv444_sse2@@YAXPAPAXPAPBXHHHHHHHHPAH@Z
	DD	01H
	DD	017H
	DD	01H
	DB	00H
	ORG $+3
	DD	FLAT:?convert_yuv444_16_to_nv12_p@@YAXPAPAXPAPBXHHHHHHHHPAH@Z
	DD	FLAT:?convert_yuv444_16_to_nv12_i@@YAXPAPAXPAPBXHHHHHHHHPAH@Z
	DD	00H
	DD	016H
	DD	01H
	DB	00H
	ORG $+3
	DD	FLAT:?convert_yuv444_14_to_nv12_p@@YAXPAPAXPAPBXHHHHHHHHPAH@Z
	DD	FLAT:?convert_yuv444_14_to_nv12_i@@YAXPAPAXPAPBXHHHHHHHHPAH@Z
	DD	00H
	DD	015H
	DD	01H
	DB	00H
	ORG $+3
	DD	FLAT:?convert_yuv444_12_to_nv12_p@@YAXPAPAXPAPBXHHHHHHHHPAH@Z
	DD	FLAT:?convert_yuv444_12_to_nv12_i@@YAXPAPAXPAPBXHHHHHHHHPAH@Z
	DD	00H
	DD	014H
	DD	01H
	DB	00H
	ORG $+3
	DD	FLAT:?convert_yuv444_10_to_nv12_p@@YAXPAPAXPAPBXHHHHHHHHPAH@Z
	DD	FLAT:?convert_yuv444_10_to_nv12_i@@YAXPAPAXPAPBXHHHHHHHHPAH@Z
	DD	00H
	DD	013H
	DD	01H
	DB	00H
	ORG $+3
	DD	FLAT:?convert_yuv444_09_to_nv12_p@@YAXPAPAXPAPBXHHHHHHHHPAH@Z
	DD	FLAT:?convert_yuv444_09_to_nv12_i@@YAXPAPAXPAPBXHHHHHHHHPAH@Z
	DD	00H
	DD	017H
	DD	0cH
	DB	00H
	ORG $+3
	DD	FLAT:?convert_yuv444_16_to_p010_p@@YAXPAPAXPAPBXHHHHHHHHPAH@Z
	DD	FLAT:?convert_yuv444_16_to_p010_i@@YAXPAPAXPAPBXHHHHHHHHPAH@Z
	DD	00H
	DD	016H
	DD	0cH
	DB	00H
	ORG $+3
	DD	FLAT:?convert_yuv444_14_to_p010_p@@YAXPAPAXPAPBXHHHHHHHHPAH@Z
	DD	FLAT:?convert_yuv444_14_to_p010_i@@YAXPAPAXPAPBXHHHHHHHHPAH@Z
	DD	00H
	DD	015H
	DD	0cH
	DB	00H
	ORG $+3
	DD	FLAT:?convert_yuv444_12_to_p010_p@@YAXPAPAXPAPBXHHHHHHHHPAH@Z
	DD	FLAT:?convert_yuv444_12_to_p010_i@@YAXPAPAXPAPBXHHHHHHHHPAH@Z
	DD	00H
	DD	014H
	DD	0cH
	DB	00H
	ORG $+3
	DD	FLAT:?convert_yuv444_10_to_p010_p@@YAXPAPAXPAPBXHHHHHHHHPAH@Z
	DD	FLAT:?convert_yuv444_10_to_p010_i@@YAXPAPAXPAPBXHHHHHHHHPAH@Z
	DD	00H
	DD	013H
	DD	0cH
	DB	00H
	ORG $+3
	DD	FLAT:?convert_yuv444_09_to_p010_p@@YAXPAPAXPAPBXHHHHHHHHPAH@Z
	DD	FLAT:?convert_yuv444_09_to_p010_i@@YAXPAPAXPAPBXHHHHHHHHPAH@Z
	DD	00H
	DD	017H
	DD	017H
	DB	00H
	ORG $+3
	DD	FLAT:?convert_yuv444_16_to_yuv444_16_avx2@@YAXPAPAXPAPBXHHHHHHHHPAH@Z
	DD	FLAT:?convert_yuv444_16_to_yuv444_16_avx2@@YAXPAPAXPAPBXHHHHHHHHPAH@Z
	DD	0c0H
	DD	017H
	DD	017H
	DB	00H
	ORG $+3
	DD	FLAT:?convert_yuv444_16_to_yuv444_16_sse2@@YAXPAPAXPAPBXHHHHHHHHPAH@Z
	DD	FLAT:?convert_yuv444_16_to_yuv444_16_sse2@@YAXPAPAXPAPBXHHHHHHHHPAH@Z
	DD	01H
	DD	016H
	DD	017H
	DB	00H
	ORG $+3
	DD	FLAT:?convert_yuv444_14_to_yuv444_16_avx2@@YAXPAPAXPAPBXHHHHHHHHPAH@Z
	DD	FLAT:?convert_yuv444_14_to_yuv444_16_avx2@@YAXPAPAXPAPBXHHHHHHHHPAH@Z
	DD	0c0H
	DD	016H
	DD	017H
	DB	00H
	ORG $+3
	DD	FLAT:?convert_yuv444_14_to_yuv444_16_sse2@@YAXPAPAXPAPBXHHHHHHHHPAH@Z
	DD	FLAT:?convert_yuv444_14_to_yuv444_16_sse2@@YAXPAPAXPAPBXHHHHHHHHPAH@Z
	DD	01H
	DD	015H
	DD	017H
	DB	00H
	ORG $+3
	DD	FLAT:?convert_yuv444_12_to_yuv444_16_avx2@@YAXPAPAXPAPBXHHHHHHHHPAH@Z
	DD	FLAT:?convert_yuv444_12_to_yuv444_16_avx2@@YAXPAPAXPAPBXHHHHHHHHPAH@Z
	DD	0c0H
	DD	015H
	DD	017H
	DB	00H
	ORG $+3
	DD	FLAT:?convert_yuv444_12_to_yuv444_16_sse2@@YAXPAPAXPAPBXHHHHHHHHPAH@Z
	DD	FLAT:?convert_yuv444_12_to_yuv444_16_sse2@@YAXPAPAXPAPBXHHHHHHHHPAH@Z
	DD	01H
	DD	014H
	DD	017H
	DB	00H
	ORG $+3
	DD	FLAT:?convert_yuv444_10_to_yuv444_16_avx2@@YAXPAPAXPAPBXHHHHHHHHPAH@Z
	DD	FLAT:?convert_yuv444_10_to_yuv444_16_avx2@@YAXPAPAXPAPBXHHHHHHHHPAH@Z
	DD	0c0H
	DD	014H
	DD	017H
	DB	00H
	ORG $+3
	DD	FLAT:?convert_yuv444_10_to_yuv444_16_sse2@@YAXPAPAXPAPBXHHHHHHHHPAH@Z
	DD	FLAT:?convert_yuv444_10_to_yuv444_16_sse2@@YAXPAPAXPAPBXHHHHHHHHPAH@Z
	DD	01H
	DD	013H
	DD	017H
	DB	00H
	ORG $+3
	DD	FLAT:?convert_yuv444_09_to_yuv444_16_avx2@@YAXPAPAXPAPBXHHHHHHHHPAH@Z
	DD	FLAT:?convert_yuv444_09_to_yuv444_16_avx2@@YAXPAPAXPAPBXHHHHHHHHPAH@Z
	DD	0c0H
	DD	013H
	DD	017H
	DB	00H
	ORG $+3
	DD	FLAT:?convert_yuv444_09_to_yuv444_16_sse2@@YAXPAPAXPAPBXHHHHHHHHPAH@Z
	DD	FLAT:?convert_yuv444_09_to_yuv444_16_sse2@@YAXPAPAXPAPBXHHHHHHHHPAH@Z
	DD	01H
	DD	06H
	DD	017H
	DB	00H
	ORG $+3
	DD	FLAT:?convert_yuv444_to_yuv444_16_avx2@@YAXPAPAXPAPBXHHHHHHHHPAH@Z
	DD	FLAT:?convert_yuv444_to_yuv444_16_avx2@@YAXPAPAXPAPBXHHHHHHHHPAH@Z
	DD	0c0H
	DD	06H
	DD	017H
	DB	00H
	ORG $+3
	DD	FLAT:?convert_yuv444_to_yuv444_16_sse2@@YAXPAPAXPAPBXHHHHHHHHPAH@Z
	DD	FLAT:?convert_yuv444_to_yuv444_16_sse2@@YAXPAPAXPAPBXHHHHHHHHPAH@Z
	DD	01H
	DD	017H
	DD	06H
	DB	00H
	ORG $+3
	DD	FLAT:?convert_yuv444_16_to_yuv444_avx2@@YAXPAPAXPAPBXHHHHHHHHPAH@Z
	DD	FLAT:?convert_yuv444_16_to_yuv444_avx2@@YAXPAPAXPAPBXHHHHHHHHPAH@Z
	DD	0c0H
	DD	017H
	DD	06H
	DB	00H
	ORG $+3
	DD	FLAT:?convert_yuv444_16_to_yuv444_sse2@@YAXPAPAXPAPBXHHHHHHHHPAH@Z
	DD	FLAT:?convert_yuv444_16_to_yuv444_sse2@@YAXPAPAXPAPBXHHHHHHHHPAH@Z
	DD	01H
	DD	016H
	DD	06H
	DB	00H
	ORG $+3
	DD	FLAT:?convert_yuv444_14_to_yuv444_avx2@@YAXPAPAXPAPBXHHHHHHHHPAH@Z
	DD	FLAT:?convert_yuv444_14_to_yuv444_avx2@@YAXPAPAXPAPBXHHHHHHHHPAH@Z
	DD	0c0H
	DD	016H
	DD	06H
	DB	00H
	ORG $+3
	DD	FLAT:?convert_yuv444_14_to_yuv444_sse2@@YAXPAPAXPAPBXHHHHHHHHPAH@Z
	DD	FLAT:?convert_yuv444_14_to_yuv444_sse2@@YAXPAPAXPAPBXHHHHHHHHPAH@Z
	DD	01H
	DD	015H
	DD	06H
	DB	00H
	ORG $+3
	DD	FLAT:?convert_yuv444_12_to_yuv444_avx2@@YAXPAPAXPAPBXHHHHHHHHPAH@Z
	DD	FLAT:?convert_yuv444_12_to_yuv444_avx2@@YAXPAPAXPAPBXHHHHHHHHPAH@Z
	DD	0c0H
	DD	015H
	DD	06H
	DB	00H
	ORG $+3
	DD	FLAT:?convert_yuv444_12_to_yuv444_sse2@@YAXPAPAXPAPBXHHHHHHHHPAH@Z
	DD	FLAT:?convert_yuv444_12_to_yuv444_sse2@@YAXPAPAXPAPBXHHHHHHHHPAH@Z
	DD	01H
	DD	014H
	DD	06H
	DB	00H
	ORG $+3
	DD	FLAT:?convert_yuv444_10_to_yuv444_avx2@@YAXPAPAXPAPBXHHHHHHHHPAH@Z
	DD	FLAT:?convert_yuv444_10_to_yuv444_avx2@@YAXPAPAXPAPBXHHHHHHHHPAH@Z
	DD	0c0H
	DD	014H
	DD	06H
	DB	00H
	ORG $+3
	DD	FLAT:?convert_yuv444_10_to_yuv444_sse2@@YAXPAPAXPAPBXHHHHHHHHPAH@Z
	DD	FLAT:?convert_yuv444_10_to_yuv444_sse2@@YAXPAPAXPAPBXHHHHHHHHPAH@Z
	DD	01H
	DD	013H
	DD	06H
	DB	00H
	ORG $+3
	DD	FLAT:?convert_yuv444_09_to_yuv444_avx2@@YAXPAPAXPAPBXHHHHHHHHPAH@Z
	DD	FLAT:?convert_yuv444_09_to_yuv444_avx2@@YAXPAPAXPAPBXHHHHHHHHPAH@Z
	DD	0c0H
	DD	013H
	DD	06H
	DB	00H
	ORG $+3
	DD	FLAT:?convert_yuv444_09_to_yuv444_sse2@@YAXPAPAXPAPBXHHHHHHHHPAH@Z
	DD	FLAT:?convert_yuv444_09_to_yuv444_sse2@@YAXPAPAXPAPBXHHHHHHHHPAH@Z
	DD	01H
$SG78320 DB	'invalid argument', 00H
	ORG $+3
$SG78321 DB	'%s', 00H
	ORG $+1
$SG78322 DB	'C:\Program Files (x86)\Microsoft Visual Studio\2019\Comm'
	DB	'unity\VC\Tools\MSVC\14.23.28105\include\xmemory', 00H
$SG78323 DB	'C', 00H, ':', 00H, '\', 00H, 'P', 00H, 'r', 00H, 'o', 00H
	DB	'g', 00H, 'r', 00H, 'a', 00H, 'm', 00H, ' ', 00H, 'F', 00H, 'i'
	DB	00H, 'l', 00H, 'e', 00H, 's', 00H, ' ', 00H, '(', 00H, 'x', 00H
	DB	'8', 00H, '6', 00H, ')', 00H, '\', 00H, 'M', 00H, 'i', 00H, 'c'
	DB	00H, 'r', 00H, 'o', 00H, 's', 00H, 'o', 00H, 'f', 00H, 't', 00H
	DB	' ', 00H, 'V', 00H, 'i', 00H, 's', 00H, 'u', 00H, 'a', 00H, 'l'
	DB	00H, ' ', 00H, 'S', 00H, 't', 00H, 'u', 00H, 'd', 00H, 'i', 00H
	DB	'o', 00H, '\', 00H, '2', 00H, '0', 00H, '1', 00H, '9', 00H, '\'
	DB	00H, 'C', 00H, 'o', 00H, 'm', 00H, 'm', 00H, 'u', 00H, 'n', 00H
	DB	'i', 00H, 't', 00H, 'y', 00H, '\', 00H, 'V', 00H, 'C', 00H, '\'
	DB	00H, 'T', 00H, 'o', 00H, 'o', 00H, 'l', 00H, 's', 00H, '\', 00H
	DB	'M', 00H, 'S', 00H, 'V', 00H, 'C', 00H, '\', 00H, '1', 00H, '4'
	DB	00H, '.', 00H, '2', 00H, '3', 00H, '.', 00H, '2', 00H, '8', 00H
	DB	'1', 00H, '0', 00H, '5', 00H, '\', 00H, 'i', 00H, 'n', 00H, 'c'
	DB	00H, 'l', 00H, 'u', 00H, 'd', 00H, 'e', 00H, '\', 00H, 'x', 00H
	DB	'm', 00H, 'e', 00H, 'm', 00H, 'o', 00H, 'r', 00H, 'y', 00H, 00H
	DB	00H
$SG78324 DB	's', 00H, 't', 00H, 'd', 00H, ':', 00H, ':', 00H, '_', 00H
	DB	'A', 00H, 'l', 00H, 'l', 00H, 'o', 00H, 'c', 00H, 'a', 00H, 't'
	DB	00H, 'e', 00H, '_', 00H, 'm', 00H, 'a', 00H, 'n', 00H, 'u', 00H
	DB	'a', 00H, 'l', 00H, 'l', 00H, 'y', 00H, '_', 00H, 'v', 00H, 'e'
	DB	00H, 'c', 00H, 't', 00H, 'o', 00H, 'r', 00H, '_', 00H, 'a', 00H
	DB	'l', 00H, 'i', 00H, 'g', 00H, 'n', 00H, 'e', 00H, 'd', 00H, 00H
	DB	00H
	ORG $+2
$SG78325 DB	'"', 00H, 'i', 00H, 'n', 00H, 'v', 00H, 'a', 00H, 'l', 00H
	DB	'i', 00H, 'd', 00H, ' ', 00H, 'a', 00H, 'r', 00H, 'g', 00H, 'u'
	DB	00H, 'm', 00H, 'e', 00H, 'n', 00H, 't', 00H, '"', 00H, 00H, 00H
	ORG $+2
$SG70199 DB	'AVX2', 00H
	ORG $+3
$SG70200 DB	'AVX', 00H
$SG70201 DB	'SSE4.2', 00H
	ORG $+1
$SG70202 DB	'SSE4.1', 00H
	ORG $+1
$SG70203 DB	'SSSE3', 00H
	ORG $+2
$SG70204 DB	'SSE2', 00H
	ORG $+3
$SG70206 DB	'-', 00H
CONST	ENDS
PUBLIC	??2@YAPAXIPAX@Z					; operator new
PUBLIC	?max@?$numeric_limits@H@std@@SAHXZ		; std::numeric_limits<int>::max
PUBLIC	??0exception@std@@QAE@QBDH@Z			; std::exception::exception
PUBLIC	??0exception@std@@QAE@ABV01@@Z			; std::exception::exception
PUBLIC	??1exception@std@@UAE@XZ			; std::exception::~exception
PUBLIC	?what@exception@std@@UBEPBDXZ			; std::exception::what
PUBLIC	??_Gexception@std@@UAEPAXI@Z			; std::exception::`scalar deleting destructor'
PUBLIC	??0bad_alloc@std@@AAE@QBD@Z			; std::bad_alloc::bad_alloc
PUBLIC	??1bad_alloc@std@@UAE@XZ			; std::bad_alloc::~bad_alloc
PUBLIC	??0bad_alloc@std@@QAE@ABV01@@Z			; std::bad_alloc::bad_alloc
PUBLIC	??_Gbad_alloc@std@@UAEPAXI@Z			; std::bad_alloc::`scalar deleting destructor'
PUBLIC	??0bad_array_new_length@std@@QAE@XZ		; std::bad_array_new_length::bad_array_new_length
PUBLIC	??1bad_array_new_length@std@@UAE@XZ		; std::bad_array_new_length::~bad_array_new_length
PUBLIC	??0bad_array_new_length@std@@QAE@ABV01@@Z	; std::bad_array_new_length::bad_array_new_length
PUBLIC	??_Gbad_array_new_length@std@@UAEPAXI@Z		; std::bad_array_new_length::`scalar deleting destructor'
PUBLIC	?_Throw_bad_array_new_length@std@@YAXXZ		; std::_Throw_bad_array_new_length
PUBLIC	?_Allocate@_Default_allocate_traits@std@@SAPAXI@Z ; std::_Default_allocate_traits::_Allocate
PUBLIC	?_Adjust_manually_vector_aligned@std@@YAXAAPAXAAI@Z ; std::_Adjust_manually_vector_aligned
PUBLIC	??$_Convert_size@I@std@@YAII@Z			; std::_Convert_size<unsigned int>
PUBLIC	??0_Container_proxy@std@@QAE@PAU_Container_base12@1@@Z ; std::_Container_proxy::_Container_proxy
PUBLIC	??0_Container_base12@std@@QAE@XZ		; std::_Container_base12::_Container_base12
PUBLIC	?_Orphan_all@_Container_base12@std@@QAEXXZ	; std::_Container_base12::_Orphan_all
PUBLIC	?_Release@_Basic_container_proxy_ptr12@std@@QAEXXZ ; std::_Basic_container_proxy_ptr12::_Release
PUBLIC	?get_convert_csp_func@@YAPBUConvertCSP@@W4RGY_CSP@@0_NI@Z ; get_convert_csp_func
PUBLIC	?get_simd_str@@YAPBDI@Z				; get_simd_str
PUBLIC	?convert_yuy2_to_nv12_i@@YAXPAPAXPAPBXHHHHHHHHPAH@Z ; convert_yuy2_to_nv12_i
PUBLIC	??0?$allocator@U?$pair@IPBD@std@@@std@@QAE@XZ	; std::allocator<std::pair<unsigned int,char const *> >::allocator<std::pair<unsigned int,char const *> >
PUBLIC	?deallocate@?$allocator@U?$pair@IPBD@std@@@std@@QAEXQAU?$pair@IPBD@2@I@Z ; std::allocator<std::pair<unsigned int,char const *> >::deallocate
PUBLIC	?allocate@?$allocator@U?$pair@IPBD@std@@@std@@QAEPAU?$pair@IPBD@2@I@Z ; std::allocator<std::pair<unsigned int,char const *> >::allocate
PUBLIC	?max_size@?$_Default_allocator_traits@V?$allocator@U?$pair@IPBD@std@@@std@@@std@@SAIABV?$allocator@U?$pair@IPBD@std@@@2@@Z ; std::_Default_allocator_traits<std::allocator<std::pair<unsigned int,char const *> > >::max_size
PUBLIC	??0?$vector@U?$pair@IPBD@std@@V?$allocator@U?$pair@IPBD@std@@@2@@std@@QAE@V?$initializer_list@U?$pair@IPBD@std@@@1@ABV?$allocator@U?$pair@IPBD@std@@@1@@Z ; std::vector<std::pair<unsigned int,char const *>,std::allocator<std::pair<unsigned int,char const *> > >::vector<std::pair<unsigned int,char const *>,std::allocator<std::pair<unsigned int,char const *> > >
PUBLIC	??1?$vector@U?$pair@IPBD@std@@V?$allocator@U?$pair@IPBD@std@@@2@@std@@QAE@XZ ; std::vector<std::pair<unsigned int,char const *>,std::allocator<std::pair<unsigned int,char const *> > >::~vector<std::pair<unsigned int,char const *>,std::allocator<std::pair<unsigned int,char const *> > >
PUBLIC	?_Unchecked_begin@?$vector@U?$pair@IPBD@std@@V?$allocator@U?$pair@IPBD@std@@@2@@std@@QAEPAU?$pair@IPBD@2@XZ ; std::vector<std::pair<unsigned int,char const *>,std::allocator<std::pair<unsigned int,char const *> > >::_Unchecked_begin
PUBLIC	?_Unchecked_end@?$vector@U?$pair@IPBD@std@@V?$allocator@U?$pair@IPBD@std@@@2@@std@@QAEPAU?$pair@IPBD@2@XZ ; std::vector<std::pair<unsigned int,char const *>,std::allocator<std::pair<unsigned int,char const *> > >::_Unchecked_end
PUBLIC	?max_size@?$vector@U?$pair@IPBD@std@@V?$allocator@U?$pair@IPBD@std@@@2@@std@@QBEIXZ ; std::vector<std::pair<unsigned int,char const *>,std::allocator<std::pair<unsigned int,char const *> > >::max_size
PUBLIC	?_Destroy@?$vector@U?$pair@IPBD@std@@V?$allocator@U?$pair@IPBD@std@@@2@@std@@AAEXPAU?$pair@IPBD@2@0@Z ; std::vector<std::pair<unsigned int,char const *>,std::allocator<std::pair<unsigned int,char const *> > >::_Destroy
PUBLIC	?_Buy_raw@?$vector@U?$pair@IPBD@std@@V?$allocator@U?$pair@IPBD@std@@@2@@std@@AAEXI@Z ; std::vector<std::pair<unsigned int,char const *>,std::allocator<std::pair<unsigned int,char const *> > >::_Buy_raw
PUBLIC	?_Buy_nonzero@?$vector@U?$pair@IPBD@std@@V?$allocator@U?$pair@IPBD@std@@@2@@std@@AAEXI@Z ; std::vector<std::pair<unsigned int,char const *>,std::allocator<std::pair<unsigned int,char const *> > >::_Buy_nonzero
PUBLIC	?_Tidy@?$vector@U?$pair@IPBD@std@@V?$allocator@U?$pair@IPBD@std@@@2@@std@@AAEXXZ ; std::vector<std::pair<unsigned int,char const *>,std::allocator<std::pair<unsigned int,char const *> > >::_Tidy
PUBLIC	?_Xlength@?$vector@U?$pair@IPBD@std@@V?$allocator@U?$pair@IPBD@std@@@2@@std@@CAXXZ ; std::vector<std::pair<unsigned int,char const *>,std::allocator<std::pair<unsigned int,char const *> > >::_Xlength
PUBLIC	?_Getal@?$vector@U?$pair@IPBD@std@@V?$allocator@U?$pair@IPBD@std@@@2@@std@@AAEAAV?$allocator@U?$pair@IPBD@std@@@2@XZ ; std::vector<std::pair<unsigned int,char const *>,std::allocator<std::pair<unsigned int,char const *> > >::_Getal
PUBLIC	?_Getal@?$vector@U?$pair@IPBD@std@@V?$allocator@U?$pair@IPBD@std@@@2@@std@@ABEABV?$allocator@U?$pair@IPBD@std@@@2@XZ ; std::vector<std::pair<unsigned int,char const *>,std::allocator<std::pair<unsigned int,char const *> > >::_Getal
PUBLIC	??0?$_Vector_val@U?$_Simple_types@U?$pair@IPBD@std@@@std@@@std@@QAE@XZ ; std::_Vector_val<std::_Simple_types<std::pair<unsigned int,char const *> > >::_Vector_val<std::_Simple_types<std::pair<unsigned int,char const *> > >
PUBLIC	?_Get_first@?$_Compressed_pair@V?$allocator@U?$pair@IPBD@std@@@std@@V?$_Vector_val@U?$_Simple_types@U?$pair@IPBD@std@@@std@@@2@$00@std@@QAEAAV?$allocator@U?$pair@IPBD@std@@@2@XZ ; std::_Compressed_pair<std::allocator<std::pair<unsigned int,char const *> >,std::_Vector_val<std::_Simple_types<std::pair<unsigned int,char const *> > >,1>::_Get_first
PUBLIC	?_Get_first@?$_Compressed_pair@V?$allocator@U?$pair@IPBD@std@@@std@@V?$_Vector_val@U?$_Simple_types@U?$pair@IPBD@std@@@std@@@2@$00@std@@QBEABV?$allocator@U?$pair@IPBD@std@@@2@XZ ; std::_Compressed_pair<std::allocator<std::pair<unsigned int,char const *> >,std::_Vector_val<std::_Simple_types<std::pair<unsigned int,char const *> > >,1>::_Get_first
PUBLIC	??0?$initializer_list@U?$pair@IPBD@std@@@std@@QAE@PBU?$pair@IPBD@1@0@Z ; std::initializer_list<std::pair<unsigned int,char const *> >::initializer_list<std::pair<unsigned int,char const *> >
PUBLIC	?begin@?$initializer_list@U?$pair@IPBD@std@@@std@@QBEPBU?$pair@IPBD@2@XZ ; std::initializer_list<std::pair<unsigned int,char const *> >::begin
PUBLIC	?end@?$initializer_list@U?$pair@IPBD@std@@@std@@QBEPBU?$pair@IPBD@2@XZ ; std::initializer_list<std::pair<unsigned int,char const *> >::end
PUBLIC	??$?0W4<unnamed-enum-NONE>@@AAY04$$CBD$0A@@?$pair@IPBD@std@@QAE@$$QAW4<unnamed-enum-NONE>@@AAY04$$CBD@Z ; std::pair<unsigned int,char const *>::pair<unsigned int,char const *><enum <unnamed-enum-NONE>,char const (&)[5],0>
PUBLIC	??$?0W4<unnamed-enum-NONE>@@AAY03$$CBD$0A@@?$pair@IPBD@std@@QAE@$$QAW4<unnamed-enum-NONE>@@AAY03$$CBD@Z ; std::pair<unsigned int,char const *>::pair<unsigned int,char const *><enum <unnamed-enum-NONE>,char const (&)[4],0>
PUBLIC	??$?0W4<unnamed-enum-NONE>@@AAY06$$CBD$0A@@?$pair@IPBD@std@@QAE@$$QAW4<unnamed-enum-NONE>@@AAY06$$CBD@Z ; std::pair<unsigned int,char const *>::pair<unsigned int,char const *><enum <unnamed-enum-NONE>,char const (&)[7],0>
PUBLIC	??$?0W4<unnamed-enum-NONE>@@AAY05$$CBD$0A@@?$pair@IPBD@std@@QAE@$$QAW4<unnamed-enum-NONE>@@AAY05$$CBD@Z ; std::pair<unsigned int,char const *>::pair<unsigned int,char const *><enum <unnamed-enum-NONE>,char const (&)[6],0>
PUBLIC	?allocate@?$allocator@U_Container_proxy@std@@@std@@QAEPAU_Container_proxy@2@I@Z ; std::allocator<std::_Container_proxy>::allocate
PUBLIC	??$?0U?$pair@IPBD@std@@@?$allocator@U_Container_proxy@std@@@std@@QAE@ABV?$allocator@U?$pair@IPBD@std@@@1@@Z ; std::allocator<std::_Container_proxy>::allocator<std::_Container_proxy><std::pair<unsigned int,char const *> >
PUBLIC	??$exchange@PAU_Container_proxy@std@@$$T@std@@YAPAU_Container_proxy@0@AAPAU10@$$QA$$T@Z ; std::exchange<std::_Container_proxy *,std::nullptr_t>
PUBLIC	??$_Delete_plain_internal@V?$allocator@U_Container_proxy@std@@@std@@@std@@YAXAAV?$allocator@U_Container_proxy@std@@@0@QAU_Container_proxy@0@@Z ; std::_Delete_plain_internal<std::allocator<std::_Container_proxy> >
PUBLIC	??$?0ABV?$allocator@U?$pair@IPBD@std@@@std@@$$V@?$_Compressed_pair@V?$allocator@U?$pair@IPBD@std@@@std@@V?$_Vector_val@U?$_Simple_types@U?$pair@IPBD@std@@@std@@@2@$00@std@@QAE@U_One_then_variadic_args_t@1@ABV?$allocator@U?$pair@IPBD@std@@@1@@Z ; std::_Compressed_pair<std::allocator<std::pair<unsigned int,char const *> >,std::_Vector_val<std::_Simple_types<std::pair<unsigned int,char const *> > >,1>::_Compressed_pair<std::allocator<std::pair<unsigned int,char const *> >,std::_Vector_val<std::_Simple_types<std::pair<unsigned int,char const *> > >,1><std::allocator<std::pair<unsigned int,char const *> > const &>
PUBLIC	??0?$_Container_proxy_ptr12@V?$allocator@U_Container_proxy@std@@@std@@@std@@QAE@AAV?$allocator@U_Container_proxy@std@@@1@AAU_Container_base12@1@@Z ; std::_Container_proxy_ptr12<std::allocator<std::_Container_proxy> >::_Container_proxy_ptr12<std::allocator<std::_Container_proxy> >
PUBLIC	??1?$_Container_proxy_ptr12@V?$allocator@U_Container_proxy@std@@@std@@@std@@QAE@XZ ; std::_Container_proxy_ptr12<std::allocator<std::_Container_proxy> >::~_Container_proxy_ptr12<std::allocator<std::_Container_proxy> >
PUBLIC	??$_Range_construct_or_tidy@PBU?$pair@IPBD@std@@@?$vector@U?$pair@IPBD@std@@V?$allocator@U?$pair@IPBD@std@@@2@@std@@AAEXPBU?$pair@IPBD@1@0Uforward_iterator_tag@1@@Z ; std::vector<std::pair<unsigned int,char const *>,std::allocator<std::pair<unsigned int,char const *> > >::_Range_construct_or_tidy<std::pair<unsigned int,char const *> const *>
PUBLIC	??$_Unfancy@U_Container_proxy@std@@@std@@YAPAU_Container_proxy@0@PAU10@@Z ; std::_Unfancy<std::_Container_proxy>
PUBLIC	??$addressof@U_Container_base12@std@@@std@@YAPAU_Container_base12@0@AAU10@@Z ; std::addressof<std::_Container_base12>
PUBLIC	??$_Construct_in_place@U_Container_proxy@std@@PAU_Container_base12@2@@std@@YAXAAU_Container_proxy@0@$$QAPAU_Container_base12@0@@Z ; std::_Construct_in_place<std::_Container_proxy,std::_Container_base12 *>
PUBLIC	??$_Get_size_of_n@$07@std@@YAII@Z		; std::_Get_size_of_n<8>
PUBLIC	??$_Allocate@$07U_Default_allocate_traits@std@@$0A@@std@@YAPAXI@Z ; std::_Allocate<8,std::_Default_allocate_traits,0>
PUBLIC	??$_Destroy_range@V?$allocator@U?$pair@IPBD@std@@@std@@@std@@YAXPAU?$pair@IPBD@0@QAU10@AAV?$allocator@U?$pair@IPBD@std@@@0@@Z ; std::_Destroy_range<std::allocator<std::pair<unsigned int,char const *> > >
PUBLIC	??$_Deallocate@$07$0A@@std@@YAXPAXI@Z		; std::_Deallocate<8,0>
PUBLIC	??$max@H@std@@YAABHABH0@Z			; std::max<int>
PUBLIC	??$forward@W4<unnamed-enum-NONE>@@@std@@YA$$QAW4<unnamed-enum-NONE>@@AAW41@@Z ; std::forward<enum <unnamed-enum-NONE> >
PUBLIC	??$forward@AAY04$$CBD@std@@YAAAY04$$CBDAAY04$$CBD@Z ; std::forward<char const (&)[5]>
PUBLIC	??$forward@AAY03$$CBD@std@@YAAAY03$$CBDAAY03$$CBD@Z ; std::forward<char const (&)[4]>
PUBLIC	??$forward@AAY06$$CBD@std@@YAAAY06$$CBDAAY06$$CBD@Z ; std::forward<char const (&)[7]>
PUBLIC	??$forward@AAY05$$CBD@std@@YAAAY05$$CBDAAY05$$CBD@Z ; std::forward<char const (&)[6]>
PUBLIC	??$_Deallocate_plain@V?$allocator@U_Container_proxy@std@@@std@@@std@@YAXAAV?$allocator@U_Container_proxy@std@@@0@QAU_Container_proxy@0@@Z ; std::_Deallocate_plain<std::allocator<std::_Container_proxy> >
PUBLIC	??$forward@ABV?$allocator@U?$pair@IPBD@std@@@std@@@std@@YAABV?$allocator@U?$pair@IPBD@std@@@0@ABV10@@Z ; std::forward<std::allocator<std::pair<unsigned int,char const *> > const &>
PUBLIC	??$distance@PBU?$pair@IPBD@std@@@std@@YAHPBU?$pair@IPBD@0@0@Z ; std::distance<std::pair<unsigned int,char const *> const *>
PUBLIC	??1?$_Tidy_guard@V?$vector@U?$pair@IPBD@std@@V?$allocator@U?$pair@IPBD@std@@@2@@std@@@std@@QAE@XZ ; std::_Tidy_guard<std::vector<std::pair<unsigned int,char const *>,std::allocator<std::pair<unsigned int,char const *> > > >::~_Tidy_guard<std::vector<std::pair<unsigned int,char const *>,std::allocator<std::pair<unsigned int,char const *> > > >
PUBLIC	??$_Ucopy@PBU?$pair@IPBD@std@@@?$vector@U?$pair@IPBD@std@@V?$allocator@U?$pair@IPBD@std@@@2@@std@@AAEPAU?$pair@IPBD@1@PBU21@0PAU21@@Z ; std::vector<std::pair<unsigned int,char const *>,std::allocator<std::pair<unsigned int,char const *> > >::_Ucopy<std::pair<unsigned int,char const *> const *>
PUBLIC	??$addressof@U_Container_proxy@std@@@std@@YAPAU_Container_proxy@0@AAU10@@Z ; std::addressof<std::_Container_proxy>
PUBLIC	??$forward@PAU_Container_base12@std@@@std@@YA$$QAPAU_Container_base12@0@AAPAU10@@Z ; std::forward<std::_Container_base12 *>
PUBLIC	??$_Allocate_manually_vector_aligned@U_Default_allocate_traits@std@@@std@@YAPAXI@Z ; std::_Allocate_manually_vector_aligned<std::_Default_allocate_traits>
PUBLIC	??$_Min_value@I@std@@YAABIABI0@Z		; std::_Min_value<unsigned int>
PUBLIC	?deallocate@?$_Default_allocator_traits@V?$allocator@U_Container_proxy@std@@@std@@@std@@SAXAAV?$allocator@U_Container_proxy@std@@@2@QAU_Container_proxy@2@I@Z ; std::_Default_allocator_traits<std::allocator<std::_Container_proxy> >::deallocate
PUBLIC	??$_Uninitialized_copy@PBU?$pair@IPBD@std@@V?$allocator@U?$pair@IPBD@std@@@2@@std@@YAPAU?$pair@IPBD@0@QBU10@0PAU10@AAV?$allocator@U?$pair@IPBD@std@@@0@@Z ; std::_Uninitialized_copy<std::pair<unsigned int,char const *> const *,std::allocator<std::pair<unsigned int,char const *> > >
PUBLIC	??$_Get_unwrapped@$$CBU?$pair@IPBD@std@@@std@@YAPBU?$pair@IPBD@0@QBU10@@Z ; std::_Get_unwrapped<std::pair<unsigned int,char const *> const >
PUBLIC	??0?$_Uninitialized_backout_al@V?$allocator@U?$pair@IPBD@std@@@std@@@std@@QAE@PAU?$pair@IPBD@1@AAV?$allocator@U?$pair@IPBD@std@@@1@@Z ; std::_Uninitialized_backout_al<std::allocator<std::pair<unsigned int,char const *> > >::_Uninitialized_backout_al<std::allocator<std::pair<unsigned int,char const *> > >
PUBLIC	??1?$_Uninitialized_backout_al@V?$allocator@U?$pair@IPBD@std@@@std@@@std@@QAE@XZ ; std::_Uninitialized_backout_al<std::allocator<std::pair<unsigned int,char const *> > >::~_Uninitialized_backout_al<std::allocator<std::pair<unsigned int,char const *> > >
PUBLIC	?_Release@?$_Uninitialized_backout_al@V?$allocator@U?$pair@IPBD@std@@@std@@@std@@QAEPAU?$pair@IPBD@2@XZ ; std::_Uninitialized_backout_al<std::allocator<std::pair<unsigned int,char const *> > >::_Release
PUBLIC	??$_Emplace_back@ABU?$pair@IPBD@std@@@?$_Uninitialized_backout_al@V?$allocator@U?$pair@IPBD@std@@@std@@@std@@QAEXABU?$pair@IPBD@1@@Z ; std::_Uninitialized_backout_al<std::allocator<std::pair<unsigned int,char const *> > >::_Emplace_back<std::pair<unsigned int,char const *> const &>
PUBLIC	??$_Unfancy@U?$pair@IPBD@std@@@std@@YAPAU?$pair@IPBD@0@PAU10@@Z ; std::_Unfancy<std::pair<unsigned int,char const *> >
PUBLIC	??$forward@ABU?$pair@IPBD@std@@@std@@YAABU?$pair@IPBD@0@ABU10@@Z ; std::forward<std::pair<unsigned int,char const *> const &>
PUBLIC	??$construct@U?$pair@IPBD@std@@ABU12@@?$_Default_allocator_traits@V?$allocator@U?$pair@IPBD@std@@@std@@@std@@SAXAAV?$allocator@U?$pair@IPBD@std@@@1@QAU?$pair@IPBD@1@ABU31@@Z ; std::_Default_allocator_traits<std::allocator<std::pair<unsigned int,char const *> > >::construct<std::pair<unsigned int,char const *>,std::pair<unsigned int,char const *> const &>
PUBLIC	??_7exception@std@@6B@				; std::exception::`vftable'
PUBLIC	??_C@_0BC@EOODALEL@Unknown?5exception@		; `string'
PUBLIC	??_7bad_alloc@std@@6B@				; std::bad_alloc::`vftable'
PUBLIC	??_7bad_array_new_length@std@@6B@		; std::bad_array_new_length::`vftable'
PUBLIC	??_C@_0BF@KINCDENJ@bad?5array?5new?5length@	; `string'
PUBLIC	__TI3?AVbad_array_new_length@std@@
PUBLIC	__CTA3?AVbad_array_new_length@std@@
PUBLIC	??_R0?AVbad_array_new_length@std@@@8		; std::bad_array_new_length `RTTI Type Descriptor'
PUBLIC	__CT??_R0?AVbad_array_new_length@std@@@8??0bad_array_new_length@std@@QAE@ABV01@@Z12
PUBLIC	??_R0?AVbad_alloc@std@@@8			; std::bad_alloc `RTTI Type Descriptor'
PUBLIC	__CT??_R0?AVbad_alloc@std@@@8??0bad_alloc@std@@QAE@ABV01@@Z12
PUBLIC	??_R0?AVexception@std@@@8			; std::exception `RTTI Type Descriptor'
PUBLIC	__CT??_R0?AVexception@std@@@8??0exception@std@@QAE@ABV01@@Z12
PUBLIC	??_C@_0BB@FCMFBGOM@invalid?5argument@		; `string'
PUBLIC	??_C@_02DKCKIIND@?$CFs@				; `string'
PUBLIC	??_C@_0GI@FJIKDGOA@C?3?2Program?5Files?5?$CIx86?$CJ?2Microsof@ ; `string'
PUBLIC	??_C@_1NA@CDBIFGMM@?$AAC?$AA?3?$AA?2?$AAP?$AAr?$AAo?$AAg?$AAr?$AAa?$AAm?$AA?5?$AAF?$AAi?$AAl?$AAe@ ; `string'
PUBLIC	??_C@_1EK@NIFDJFDG@?$AAs?$AAt?$AAd?$AA?3?$AA?3?$AA_?$AAA?$AAd?$AAj?$AAu?$AAs?$AAt?$AA_?$AAm?$AAa@ ; `string'
PUBLIC	??_C@_1CG@JNLFBNGN@?$AA?$CC?$AAi?$AAn?$AAv?$AAa?$AAl?$AAi?$AAd?$AA?5?$AAa?$AAr?$AAg?$AAu?$AAm?$AAe@ ; `string'
PUBLIC	??_C@_0BD@OLBABOEK@vector?$DMT?$DO?5too?5long@	; `string'
PUBLIC	??_C@_0BD@FEEMDEPI@invalid?5comparator@		; `string'
PUBLIC	??_C@_0GK@EEDLHHLD@C?3?2Program?5Files?5?$CIx86?$CJ?2Microsof@ ; `string'
PUBLIC	??_C@_1NE@BOCHNKFM@?$AAC?$AA?3?$AA?2?$AAP?$AAr?$AAo?$AAg?$AAr?$AAa?$AAm?$AA?5?$AAF?$AAi?$AAl?$AAe@ ; `string'
PUBLIC	??_C@_1BC@ICCOKLEG@?$AAs?$AAt?$AAd?$AA?3?$AA?3?$AAm?$AAa?$AAx@ ; `string'
PUBLIC	??_C@_1CK@NDNHPKPI@?$AA?$CC?$AAi?$AAn?$AAv?$AAa?$AAl?$AAi?$AAd?$AA?5?$AAc?$AAo?$AAm?$AAp?$AAa?$AAr@ ; `string'
PUBLIC	??_R4exception@std@@6B@				; std::exception::`RTTI Complete Object Locator'
PUBLIC	??_R3exception@std@@8				; std::exception::`RTTI Class Hierarchy Descriptor'
PUBLIC	??_R2exception@std@@8				; std::exception::`RTTI Base Class Array'
PUBLIC	??_R1A@?0A@EA@exception@std@@8			; std::exception::`RTTI Base Class Descriptor at (0,-1,0,64)'
PUBLIC	??_R4bad_alloc@std@@6B@				; std::bad_alloc::`RTTI Complete Object Locator'
PUBLIC	??_R3bad_alloc@std@@8				; std::bad_alloc::`RTTI Class Hierarchy Descriptor'
PUBLIC	??_R2bad_alloc@std@@8				; std::bad_alloc::`RTTI Base Class Array'
PUBLIC	??_R1A@?0A@EA@bad_alloc@std@@8			; std::bad_alloc::`RTTI Base Class Descriptor at (0,-1,0,64)'
PUBLIC	??_R4bad_array_new_length@std@@6B@		; std::bad_array_new_length::`RTTI Complete Object Locator'
PUBLIC	??_R3bad_array_new_length@std@@8		; std::bad_array_new_length::`RTTI Class Hierarchy Descriptor'
PUBLIC	??_R2bad_array_new_length@std@@8		; std::bad_array_new_length::`RTTI Base Class Array'
PUBLIC	??_R1A@?0A@EA@bad_array_new_length@std@@8	; std::bad_array_new_length::`RTTI Base Class Descriptor at (0,-1,0,64)'
EXTRN	??2@YAPAXI@Z:PROC				; operator new
EXTRN	??3@YAXPAXI@Z:PROC				; operator delete
EXTRN	_atexit:PROC
EXTRN	__Init_thread_header:PROC
EXTRN	__Init_thread_abort:PROC
EXTRN	__Init_thread_footer:PROC
EXTRN	__imp___invalid_parameter:PROC
EXTRN	__imp___CrtDbgReport:PROC
EXTRN	__imp_??0_Lockit@std@@QAE@H@Z:PROC
EXTRN	__imp_??1_Lockit@std@@QAE@XZ:PROC
EXTRN	_memcpy:PROC
EXTRN	___std_exception_copy:PROC
EXTRN	___std_exception_destroy:PROC
EXTRN	??_Eexception@std@@UAEPAXI@Z:PROC		; std::exception::`vector deleting destructor'
EXTRN	??_Ebad_alloc@std@@UAEPAXI@Z:PROC		; std::bad_alloc::`vector deleting destructor'
EXTRN	??_Ebad_array_new_length@std@@UAEPAXI@Z:PROC	; std::bad_array_new_length::`vector deleting destructor'
EXTRN	?_Xlength_error@std@@YAXPBD@Z:PROC		; std::_Xlength_error
EXTRN	?get_availableSIMD@@YAIXZ:PROC			; get_availableSIMD
EXTRN	@_RTC_CheckStackVars@8:PROC
EXTRN	@__security_check_cookie@4:PROC
EXTRN	__CxxThrowException@8:PROC
EXTRN	__RTC_CheckEsp:PROC
EXTRN	__RTC_InitBase:PROC
EXTRN	__RTC_Shutdown:PROC
EXTRN	___CxxFrameHandler3:PROC
EXTRN	__Init_thread_epoch:DWORD
EXTRN	??_7type_info@@6B@:QWORD			; type_info::`vftable'
EXTRN	___security_cookie:DWORD
EXTRN	__tls_array:DWORD
EXTRN	__tls_index:DWORD
;	COMDAT ?simd_str_list@?1??get_simd_str@@YAPBDI@Z@4V?$vector@U?$pair@IPBD@std@@V?$allocator@U?$pair@IPBD@std@@@2@@std@@A
_BSS	SEGMENT
?simd_str_list@?1??get_simd_str@@YAPBDI@Z@4V?$vector@U?$pair@IPBD@std@@V?$allocator@U?$pair@IPBD@std@@@2@@std@@A DB 010H DUP (?) ; `get_simd_str'::`2'::simd_str_list
_BSS	ENDS
;	COMDAT ?$TSS0@?1??get_simd_str@@YAPBDI@Z@4HA
_BSS	SEGMENT
?$TSS0@?1??get_simd_str@@YAPBDI@Z@4HA DD 01H DUP (?)	; TSS0<`template-parameter-2',et_simd_str,int, ?? &>
_BSS	ENDS
;	COMDAT rtc$TMZ
rtc$TMZ	SEGMENT
__RTC_Shutdown.rtc$TMZ DD FLAT:__RTC_Shutdown
rtc$TMZ	ENDS
;	COMDAT rtc$IMZ
rtc$IMZ	SEGMENT
__RTC_InitBase.rtc$IMZ DD FLAT:__RTC_InitBase
rtc$IMZ	ENDS
;	COMDAT ??_R1A@?0A@EA@bad_array_new_length@std@@8
rdata$r	SEGMENT
??_R1A@?0A@EA@bad_array_new_length@std@@8 DD FLAT:??_R0?AVbad_array_new_length@std@@@8 ; std::bad_array_new_length::`RTTI Base Class Descriptor at (0,-1,0,64)'
	DD	02H
	DD	00H
	DD	0ffffffffH
	DD	00H
	DD	040H
	DD	FLAT:??_R3bad_array_new_length@std@@8
rdata$r	ENDS
;	COMDAT ??_R2bad_array_new_length@std@@8
rdata$r	SEGMENT
??_R2bad_array_new_length@std@@8 DD FLAT:??_R1A@?0A@EA@bad_array_new_length@std@@8 ; std::bad_array_new_length::`RTTI Base Class Array'
	DD	FLAT:??_R1A@?0A@EA@bad_alloc@std@@8
	DD	FLAT:??_R1A@?0A@EA@exception@std@@8
rdata$r	ENDS
;	COMDAT ??_R3bad_array_new_length@std@@8
rdata$r	SEGMENT
??_R3bad_array_new_length@std@@8 DD 00H			; std::bad_array_new_length::`RTTI Class Hierarchy Descriptor'
	DD	00H
	DD	03H
	DD	FLAT:??_R2bad_array_new_length@std@@8
rdata$r	ENDS
;	COMDAT ??_R4bad_array_new_length@std@@6B@
rdata$r	SEGMENT
??_R4bad_array_new_length@std@@6B@ DD 00H		; std::bad_array_new_length::`RTTI Complete Object Locator'
	DD	00H
	DD	00H
	DD	FLAT:??_R0?AVbad_array_new_length@std@@@8
	DD	FLAT:??_R3bad_array_new_length@std@@8
rdata$r	ENDS
;	COMDAT ??_R1A@?0A@EA@bad_alloc@std@@8
rdata$r	SEGMENT
??_R1A@?0A@EA@bad_alloc@std@@8 DD FLAT:??_R0?AVbad_alloc@std@@@8 ; std::bad_alloc::`RTTI Base Class Descriptor at (0,-1,0,64)'
	DD	01H
	DD	00H
	DD	0ffffffffH
	DD	00H
	DD	040H
	DD	FLAT:??_R3bad_alloc@std@@8
rdata$r	ENDS
;	COMDAT ??_R2bad_alloc@std@@8
rdata$r	SEGMENT
??_R2bad_alloc@std@@8 DD FLAT:??_R1A@?0A@EA@bad_alloc@std@@8 ; std::bad_alloc::`RTTI Base Class Array'
	DD	FLAT:??_R1A@?0A@EA@exception@std@@8
rdata$r	ENDS
;	COMDAT ??_R3bad_alloc@std@@8
rdata$r	SEGMENT
??_R3bad_alloc@std@@8 DD 00H				; std::bad_alloc::`RTTI Class Hierarchy Descriptor'
	DD	00H
	DD	02H
	DD	FLAT:??_R2bad_alloc@std@@8
rdata$r	ENDS
;	COMDAT ??_R4bad_alloc@std@@6B@
rdata$r	SEGMENT
??_R4bad_alloc@std@@6B@ DD 00H				; std::bad_alloc::`RTTI Complete Object Locator'
	DD	00H
	DD	00H
	DD	FLAT:??_R0?AVbad_alloc@std@@@8
	DD	FLAT:??_R3bad_alloc@std@@8
rdata$r	ENDS
;	COMDAT ??_R1A@?0A@EA@exception@std@@8
rdata$r	SEGMENT
??_R1A@?0A@EA@exception@std@@8 DD FLAT:??_R0?AVexception@std@@@8 ; std::exception::`RTTI Base Class Descriptor at (0,-1,0,64)'
	DD	00H
	DD	00H
	DD	0ffffffffH
	DD	00H
	DD	040H
	DD	FLAT:??_R3exception@std@@8
rdata$r	ENDS
;	COMDAT ??_R2exception@std@@8
rdata$r	SEGMENT
??_R2exception@std@@8 DD FLAT:??_R1A@?0A@EA@exception@std@@8 ; std::exception::`RTTI Base Class Array'
rdata$r	ENDS
;	COMDAT ??_R3exception@std@@8
rdata$r	SEGMENT
??_R3exception@std@@8 DD 00H				; std::exception::`RTTI Class Hierarchy Descriptor'
	DD	00H
	DD	01H
	DD	FLAT:??_R2exception@std@@8
rdata$r	ENDS
;	COMDAT ??_R4exception@std@@6B@
rdata$r	SEGMENT
??_R4exception@std@@6B@ DD 00H				; std::exception::`RTTI Complete Object Locator'
	DD	00H
	DD	00H
	DD	FLAT:??_R0?AVexception@std@@@8
	DD	FLAT:??_R3exception@std@@8
rdata$r	ENDS
;	COMDAT ??_C@_1CK@NDNHPKPI@?$AA?$CC?$AAi?$AAn?$AAv?$AAa?$AAl?$AAi?$AAd?$AA?5?$AAc?$AAo?$AAm?$AAp?$AAa?$AAr@
CONST	SEGMENT
??_C@_1CK@NDNHPKPI@?$AA?$CC?$AAi?$AAn?$AAv?$AAa?$AAl?$AAi?$AAd?$AA?5?$AAc?$AAo?$AAm?$AAp?$AAa?$AAr@ DB '"'
	DB	00H, 'i', 00H, 'n', 00H, 'v', 00H, 'a', 00H, 'l', 00H, 'i', 00H
	DB	'd', 00H, ' ', 00H, 'c', 00H, 'o', 00H, 'm', 00H, 'p', 00H, 'a'
	DB	00H, 'r', 00H, 'a', 00H, 't', 00H, 'o', 00H, 'r', 00H, '"', 00H
	DB	00H, 00H					; `string'
CONST	ENDS
;	COMDAT ??_C@_1BC@ICCOKLEG@?$AAs?$AAt?$AAd?$AA?3?$AA?3?$AAm?$AAa?$AAx@
CONST	SEGMENT
??_C@_1BC@ICCOKLEG@?$AAs?$AAt?$AAd?$AA?3?$AA?3?$AAm?$AAa?$AAx@ DB 's', 00H
	DB	't', 00H, 'd', 00H, ':', 00H, ':', 00H, 'm', 00H, 'a', 00H, 'x'
	DB	00H, 00H, 00H				; `string'
CONST	ENDS
;	COMDAT ??_C@_1NE@BOCHNKFM@?$AAC?$AA?3?$AA?2?$AAP?$AAr?$AAo?$AAg?$AAr?$AAa?$AAm?$AA?5?$AAF?$AAi?$AAl?$AAe@
CONST	SEGMENT
??_C@_1NE@BOCHNKFM@?$AAC?$AA?3?$AA?2?$AAP?$AAr?$AAo?$AAg?$AAr?$AAa?$AAm?$AA?5?$AAF?$AAi?$AAl?$AAe@ DB 'C'
	DB	00H, ':', 00H, '\', 00H, 'P', 00H, 'r', 00H, 'o', 00H, 'g', 00H
	DB	'r', 00H, 'a', 00H, 'm', 00H, ' ', 00H, 'F', 00H, 'i', 00H, 'l'
	DB	00H, 'e', 00H, 's', 00H, ' ', 00H, '(', 00H, 'x', 00H, '8', 00H
	DB	'6', 00H, ')', 00H, '\', 00H, 'M', 00H, 'i', 00H, 'c', 00H, 'r'
	DB	00H, 'o', 00H, 's', 00H, 'o', 00H, 'f', 00H, 't', 00H, ' ', 00H
	DB	'V', 00H, 'i', 00H, 's', 00H, 'u', 00H, 'a', 00H, 'l', 00H, ' '
	DB	00H, 'S', 00H, 't', 00H, 'u', 00H, 'd', 00H, 'i', 00H, 'o', 00H
	DB	'\', 00H, '2', 00H, '0', 00H, '1', 00H, '9', 00H, '\', 00H, 'C'
	DB	00H, 'o', 00H, 'm', 00H, 'm', 00H, 'u', 00H, 'n', 00H, 'i', 00H
	DB	't', 00H, 'y', 00H, '\', 00H, 'V', 00H, 'C', 00H, '\', 00H, 'T'
	DB	00H, 'o', 00H, 'o', 00H, 'l', 00H, 's', 00H, '\', 00H, 'M', 00H
	DB	'S', 00H, 'V', 00H, 'C', 00H, '\', 00H, '1', 00H, '4', 00H, '.'
	DB	00H, '2', 00H, '3', 00H, '.', 00H, '2', 00H, '8', 00H, '1', 00H
	DB	'0', 00H, '5', 00H, '\', 00H, 'i', 00H, 'n', 00H, 'c', 00H, 'l'
	DB	00H, 'u', 00H, 'd', 00H, 'e', 00H, '\', 00H, 'a', 00H, 'l', 00H
	DB	'g', 00H, 'o', 00H, 'r', 00H, 'i', 00H, 't', 00H, 'h', 00H, 'm'
	DB	00H, 00H, 00H				; `string'
CONST	ENDS
;	COMDAT ??_C@_0GK@EEDLHHLD@C?3?2Program?5Files?5?$CIx86?$CJ?2Microsof@
CONST	SEGMENT
??_C@_0GK@EEDLHHLD@C?3?2Program?5Files?5?$CIx86?$CJ?2Microsof@ DB 'C:\Pro'
	DB	'gram Files (x86)\Microsoft Visual Studio\2019\Community\VC\To'
	DB	'ols\MSVC\14.23.28105\include\algorithm', 00H ; `string'
CONST	ENDS
;	COMDAT ??_C@_0BD@FEEMDEPI@invalid?5comparator@
CONST	SEGMENT
??_C@_0BD@FEEMDEPI@invalid?5comparator@ DB 'invalid comparator', 00H ; `string'
CONST	ENDS
;	COMDAT ??_C@_0BD@OLBABOEK@vector?$DMT?$DO?5too?5long@
CONST	SEGMENT
??_C@_0BD@OLBABOEK@vector?$DMT?$DO?5too?5long@ DB 'vector<T> too long', 00H ; `string'
CONST	ENDS
;	COMDAT ??_C@_1CG@JNLFBNGN@?$AA?$CC?$AAi?$AAn?$AAv?$AAa?$AAl?$AAi?$AAd?$AA?5?$AAa?$AAr?$AAg?$AAu?$AAm?$AAe@
CONST	SEGMENT
??_C@_1CG@JNLFBNGN@?$AA?$CC?$AAi?$AAn?$AAv?$AAa?$AAl?$AAi?$AAd?$AA?5?$AAa?$AAr?$AAg?$AAu?$AAm?$AAe@ DB '"'
	DB	00H, 'i', 00H, 'n', 00H, 'v', 00H, 'a', 00H, 'l', 00H, 'i', 00H
	DB	'd', 00H, ' ', 00H, 'a', 00H, 'r', 00H, 'g', 00H, 'u', 00H, 'm'
	DB	00H, 'e', 00H, 'n', 00H, 't', 00H, '"', 00H, 00H, 00H ; `string'
CONST	ENDS
;	COMDAT ??_C@_1EK@NIFDJFDG@?$AAs?$AAt?$AAd?$AA?3?$AA?3?$AA_?$AAA?$AAd?$AAj?$AAu?$AAs?$AAt?$AA_?$AAm?$AAa@
CONST	SEGMENT
??_C@_1EK@NIFDJFDG@?$AAs?$AAt?$AAd?$AA?3?$AA?3?$AA_?$AAA?$AAd?$AAj?$AAu?$AAs?$AAt?$AA_?$AAm?$AAa@ DB 's'
	DB	00H, 't', 00H, 'd', 00H, ':', 00H, ':', 00H, '_', 00H, 'A', 00H
	DB	'd', 00H, 'j', 00H, 'u', 00H, 's', 00H, 't', 00H, '_', 00H, 'm'
	DB	00H, 'a', 00H, 'n', 00H, 'u', 00H, 'a', 00H, 'l', 00H, 'l', 00H
	DB	'y', 00H, '_', 00H, 'v', 00H, 'e', 00H, 'c', 00H, 't', 00H, 'o'
	DB	00H, 'r', 00H, '_', 00H, 'a', 00H, 'l', 00H, 'i', 00H, 'g', 00H
	DB	'n', 00H, 'e', 00H, 'd', 00H, 00H, 00H	; `string'
CONST	ENDS
;	COMDAT ??_C@_1NA@CDBIFGMM@?$AAC?$AA?3?$AA?2?$AAP?$AAr?$AAo?$AAg?$AAr?$AAa?$AAm?$AA?5?$AAF?$AAi?$AAl?$AAe@
CONST	SEGMENT
??_C@_1NA@CDBIFGMM@?$AAC?$AA?3?$AA?2?$AAP?$AAr?$AAo?$AAg?$AAr?$AAa?$AAm?$AA?5?$AAF?$AAi?$AAl?$AAe@ DB 'C'
	DB	00H, ':', 00H, '\', 00H, 'P', 00H, 'r', 00H, 'o', 00H, 'g', 00H
	DB	'r', 00H, 'a', 00H, 'm', 00H, ' ', 00H, 'F', 00H, 'i', 00H, 'l'
	DB	00H, 'e', 00H, 's', 00H, ' ', 00H, '(', 00H, 'x', 00H, '8', 00H
	DB	'6', 00H, ')', 00H, '\', 00H, 'M', 00H, 'i', 00H, 'c', 00H, 'r'
	DB	00H, 'o', 00H, 's', 00H, 'o', 00H, 'f', 00H, 't', 00H, ' ', 00H
	DB	'V', 00H, 'i', 00H, 's', 00H, 'u', 00H, 'a', 00H, 'l', 00H, ' '
	DB	00H, 'S', 00H, 't', 00H, 'u', 00H, 'd', 00H, 'i', 00H, 'o', 00H
	DB	'\', 00H, '2', 00H, '0', 00H, '1', 00H, '9', 00H, '\', 00H, 'C'
	DB	00H, 'o', 00H, 'm', 00H, 'm', 00H, 'u', 00H, 'n', 00H, 'i', 00H
	DB	't', 00H, 'y', 00H, '\', 00H, 'V', 00H, 'C', 00H, '\', 00H, 'T'
	DB	00H, 'o', 00H, 'o', 00H, 'l', 00H, 's', 00H, '\', 00H, 'M', 00H
	DB	'S', 00H, 'V', 00H, 'C', 00H, '\', 00H, '1', 00H, '4', 00H, '.'
	DB	00H, '2', 00H, '3', 00H, '.', 00H, '2', 00H, '8', 00H, '1', 00H
	DB	'0', 00H, '5', 00H, '\', 00H, 'i', 00H, 'n', 00H, 'c', 00H, 'l'
	DB	00H, 'u', 00H, 'd', 00H, 'e', 00H, '\', 00H, 'x', 00H, 'm', 00H
	DB	'e', 00H, 'm', 00H, 'o', 00H, 'r', 00H, 'y', 00H, 00H, 00H ; `string'
CONST	ENDS
;	COMDAT ??_C@_0GI@FJIKDGOA@C?3?2Program?5Files?5?$CIx86?$CJ?2Microsof@
CONST	SEGMENT
??_C@_0GI@FJIKDGOA@C?3?2Program?5Files?5?$CIx86?$CJ?2Microsof@ DB 'C:\Pro'
	DB	'gram Files (x86)\Microsoft Visual Studio\2019\Community\VC\To'
	DB	'ols\MSVC\14.23.28105\include\xmemory', 00H	; `string'
CONST	ENDS
;	COMDAT ??_C@_02DKCKIIND@?$CFs@
CONST	SEGMENT
??_C@_02DKCKIIND@?$CFs@ DB '%s', 00H			; `string'
CONST	ENDS
;	COMDAT ??_C@_0BB@FCMFBGOM@invalid?5argument@
CONST	SEGMENT
??_C@_0BB@FCMFBGOM@invalid?5argument@ DB 'invalid argument', 00H ; `string'
CONST	ENDS
;	COMDAT __CT??_R0?AVexception@std@@@8??0exception@std@@QAE@ABV01@@Z12
xdata$x	SEGMENT
__CT??_R0?AVexception@std@@@8??0exception@std@@QAE@ABV01@@Z12 DD 00H
	DD	FLAT:??_R0?AVexception@std@@@8
	DD	00H
	DD	0ffffffffH
	ORG $+4
	DD	0cH
	DD	FLAT:??0exception@std@@QAE@ABV01@@Z
xdata$x	ENDS
;	COMDAT ??_R0?AVexception@std@@@8
data$r	SEGMENT
??_R0?AVexception@std@@@8 DD FLAT:??_7type_info@@6B@	; std::exception `RTTI Type Descriptor'
	DD	00H
	DB	'.?AVexception@std@@', 00H
data$r	ENDS
;	COMDAT __CT??_R0?AVbad_alloc@std@@@8??0bad_alloc@std@@QAE@ABV01@@Z12
xdata$x	SEGMENT
__CT??_R0?AVbad_alloc@std@@@8??0bad_alloc@std@@QAE@ABV01@@Z12 DD 010H
	DD	FLAT:??_R0?AVbad_alloc@std@@@8
	DD	00H
	DD	0ffffffffH
	ORG $+4
	DD	0cH
	DD	FLAT:??0bad_alloc@std@@QAE@ABV01@@Z
xdata$x	ENDS
;	COMDAT ??_R0?AVbad_alloc@std@@@8
data$r	SEGMENT
??_R0?AVbad_alloc@std@@@8 DD FLAT:??_7type_info@@6B@	; std::bad_alloc `RTTI Type Descriptor'
	DD	00H
	DB	'.?AVbad_alloc@std@@', 00H
data$r	ENDS
;	COMDAT __CT??_R0?AVbad_array_new_length@std@@@8??0bad_array_new_length@std@@QAE@ABV01@@Z12
xdata$x	SEGMENT
__CT??_R0?AVbad_array_new_length@std@@@8??0bad_array_new_length@std@@QAE@ABV01@@Z12 DD 00H
	DD	FLAT:??_R0?AVbad_array_new_length@std@@@8
	DD	00H
	DD	0ffffffffH
	ORG $+4
	DD	0cH
	DD	FLAT:??0bad_array_new_length@std@@QAE@ABV01@@Z
xdata$x	ENDS
;	COMDAT ??_R0?AVbad_array_new_length@std@@@8
data$r	SEGMENT
??_R0?AVbad_array_new_length@std@@@8 DD FLAT:??_7type_info@@6B@ ; std::bad_array_new_length `RTTI Type Descriptor'
	DD	00H
	DB	'.?AVbad_array_new_length@std@@', 00H
data$r	ENDS
;	COMDAT __CTA3?AVbad_array_new_length@std@@
xdata$x	SEGMENT
__CTA3?AVbad_array_new_length@std@@ DD 03H
	DD	FLAT:__CT??_R0?AVbad_array_new_length@std@@@8??0bad_array_new_length@std@@QAE@ABV01@@Z12
	DD	FLAT:__CT??_R0?AVbad_alloc@std@@@8??0bad_alloc@std@@QAE@ABV01@@Z12
	DD	FLAT:__CT??_R0?AVexception@std@@@8??0exception@std@@QAE@ABV01@@Z12
xdata$x	ENDS
;	COMDAT __TI3?AVbad_array_new_length@std@@
xdata$x	SEGMENT
__TI3?AVbad_array_new_length@std@@ DD 00H
	DD	FLAT:??1bad_array_new_length@std@@UAE@XZ
	DD	00H
	DD	FLAT:__CTA3?AVbad_array_new_length@std@@
xdata$x	ENDS
;	COMDAT ??_C@_0BF@KINCDENJ@bad?5array?5new?5length@
CONST	SEGMENT
??_C@_0BF@KINCDENJ@bad?5array?5new?5length@ DB 'bad array new length', 00H ; `string'
CONST	ENDS
;	COMDAT ??_7bad_array_new_length@std@@6B@
CONST	SEGMENT
??_7bad_array_new_length@std@@6B@ DD FLAT:??_R4bad_array_new_length@std@@6B@ ; std::bad_array_new_length::`vftable'
	DD	FLAT:??_Ebad_array_new_length@std@@UAEPAXI@Z
	DD	FLAT:?what@exception@std@@UBEPBDXZ
CONST	ENDS
;	COMDAT ??_7bad_alloc@std@@6B@
CONST	SEGMENT
??_7bad_alloc@std@@6B@ DD FLAT:??_R4bad_alloc@std@@6B@	; std::bad_alloc::`vftable'
	DD	FLAT:??_Ebad_alloc@std@@UAEPAXI@Z
	DD	FLAT:?what@exception@std@@UBEPBDXZ
CONST	ENDS
;	COMDAT ??_C@_0BC@EOODALEL@Unknown?5exception@
CONST	SEGMENT
??_C@_0BC@EOODALEL@Unknown?5exception@ DB 'Unknown exception', 00H ; `string'
CONST	ENDS
;	COMDAT ??_7exception@std@@6B@
CONST	SEGMENT
??_7exception@std@@6B@ DD FLAT:??_R4exception@std@@6B@	; std::exception::`vftable'
	DD	FLAT:??_Eexception@std@@UAEPAXI@Z
	DD	FLAT:?what@exception@std@@UBEPBDXZ
CONST	ENDS
;	COMDAT xdata$x
xdata$x	SEGMENT
__unwindtable$??$_Uninitialized_copy@PBU?$pair@IPBD@std@@V?$allocator@U?$pair@IPBD@std@@@2@@std@@YAPAU?$pair@IPBD@0@QBU10@0PAU10@AAV?$allocator@U?$pair@IPBD@std@@@0@@Z DD 0ffffffffH
	DD	FLAT:__unwindfunclet$??$_Uninitialized_copy@PBU?$pair@IPBD@std@@V?$allocator@U?$pair@IPBD@std@@@2@@std@@YAPAU?$pair@IPBD@0@QBU10@0PAU10@AAV?$allocator@U?$pair@IPBD@std@@@0@@Z$0
__ehfuncinfo$??$_Uninitialized_copy@PBU?$pair@IPBD@std@@V?$allocator@U?$pair@IPBD@std@@@2@@std@@YAPAU?$pair@IPBD@0@QBU10@0PAU10@AAV?$allocator@U?$pair@IPBD@std@@@0@@Z DD 019930522H
	DD	01H
	DD	FLAT:__unwindtable$??$_Uninitialized_copy@PBU?$pair@IPBD@std@@V?$allocator@U?$pair@IPBD@std@@@2@@std@@YAPAU?$pair@IPBD@0@QBU10@0PAU10@AAV?$allocator@U?$pair@IPBD@std@@@0@@Z
	DD	2 DUP(00H)
	DD	2 DUP(00H)
	DD	00H
	DD	00H
xdata$x	ENDS
;	COMDAT xdata$x
xdata$x	SEGMENT
__ehfuncinfo$??$_Deallocate_plain@V?$allocator@U_Container_proxy@std@@@std@@@std@@YAXAAV?$allocator@U_Container_proxy@std@@@0@QAU_Container_proxy@0@@Z DD 019930522H
	DD	00H
	DD	00H
	DD	2 DUP(00H)
	DD	2 DUP(00H)
	DD	00H
	DD	04H
xdata$x	ENDS
;	COMDAT xdata$x
xdata$x	SEGMENT
__ehfuncinfo$??$max@H@std@@YAABHABH0@Z DD 019930522H
	DD	00H
	DD	00H
	DD	2 DUP(00H)
	DD	2 DUP(00H)
	DD	00H
	DD	04H
xdata$x	ENDS
;	COMDAT xdata$x
xdata$x	SEGMENT
__ehfuncinfo$??$_Deallocate@$07$0A@@std@@YAXPAXI@Z DD 019930522H
	DD	00H
	DD	00H
	DD	2 DUP(00H)
	DD	2 DUP(00H)
	DD	00H
	DD	04H
xdata$x	ENDS
;	COMDAT xdata$x
xdata$x	SEGMENT
__unwindtable$??$_Range_construct_or_tidy@PBU?$pair@IPBD@std@@@?$vector@U?$pair@IPBD@std@@V?$allocator@U?$pair@IPBD@std@@@2@@std@@AAEXPBU?$pair@IPBD@1@0Uforward_iterator_tag@1@@Z DD 0ffffffffH
	DD	FLAT:__unwindfunclet$??$_Range_construct_or_tidy@PBU?$pair@IPBD@std@@@?$vector@U?$pair@IPBD@std@@V?$allocator@U?$pair@IPBD@std@@@2@@std@@AAEXPBU?$pair@IPBD@1@0Uforward_iterator_tag@1@@Z$0
__ehfuncinfo$??$_Range_construct_or_tidy@PBU?$pair@IPBD@std@@@?$vector@U?$pair@IPBD@std@@V?$allocator@U?$pair@IPBD@std@@@2@@std@@AAEXPBU?$pair@IPBD@1@0Uforward_iterator_tag@1@@Z DD 019930522H
	DD	01H
	DD	FLAT:__unwindtable$??$_Range_construct_or_tidy@PBU?$pair@IPBD@std@@@?$vector@U?$pair@IPBD@std@@V?$allocator@U?$pair@IPBD@std@@@2@@std@@AAEXPBU?$pair@IPBD@1@0Uforward_iterator_tag@1@@Z
	DD	2 DUP(00H)
	DD	2 DUP(00H)
	DD	00H
	DD	00H
xdata$x	ENDS
;	COMDAT xdata$x
xdata$x	SEGMENT
__ehfuncinfo$?_Tidy@?$vector@U?$pair@IPBD@std@@V?$allocator@U?$pair@IPBD@std@@@2@@std@@AAEXXZ DD 019930522H
	DD	00H
	DD	00H
	DD	2 DUP(00H)
	DD	2 DUP(00H)
	DD	00H
	DD	04H
xdata$x	ENDS
;	COMDAT xdata$x
xdata$x	SEGMENT
__ehfuncinfo$??1?$vector@U?$pair@IPBD@std@@V?$allocator@U?$pair@IPBD@std@@@2@@std@@QAE@XZ DD 019930522H
	DD	00H
	DD	00H
	DD	2 DUP(00H)
	DD	2 DUP(00H)
	DD	00H
	DD	04H
xdata$x	ENDS
;	COMDAT xdata$x
xdata$x	SEGMENT
__unwindtable$??0?$vector@U?$pair@IPBD@std@@V?$allocator@U?$pair@IPBD@std@@@2@@std@@QAE@V?$initializer_list@U?$pair@IPBD@std@@@1@ABV?$allocator@U?$pair@IPBD@std@@@1@@Z DD 0ffffffffH
	DD	FLAT:__unwindfunclet$??0?$vector@U?$pair@IPBD@std@@V?$allocator@U?$pair@IPBD@std@@@2@@std@@QAE@V?$initializer_list@U?$pair@IPBD@std@@@1@ABV?$allocator@U?$pair@IPBD@std@@@1@@Z$0
__ehfuncinfo$??0?$vector@U?$pair@IPBD@std@@V?$allocator@U?$pair@IPBD@std@@@2@@std@@QAE@V?$initializer_list@U?$pair@IPBD@std@@@1@ABV?$allocator@U?$pair@IPBD@std@@@1@@Z DD 019930522H
	DD	01H
	DD	FLAT:__unwindtable$??0?$vector@U?$pair@IPBD@std@@V?$allocator@U?$pair@IPBD@std@@@2@@std@@QAE@V?$initializer_list@U?$pair@IPBD@std@@@1@ABV?$allocator@U?$pair@IPBD@std@@@1@@Z
	DD	2 DUP(00H)
	DD	2 DUP(00H)
	DD	00H
	DD	00H
xdata$x	ENDS
xdata$x	SEGMENT
__unwindtable$?get_simd_str@@YAPBDI@Z DD 0ffffffffH
	DD	FLAT:__unwindfunclet$?get_simd_str@@YAPBDI@Z$0
__ehfuncinfo$?get_simd_str@@YAPBDI@Z DD 019930522H
	DD	01H
	DD	FLAT:__unwindtable$?get_simd_str@@YAPBDI@Z
	DD	2 DUP(00H)
	DD	2 DUP(00H)
	DD	00H
	DD	00H
xdata$x	ENDS
;	COMDAT xdata$x
xdata$x	SEGMENT
__unwindtable$?_Orphan_all@_Container_base12@std@@QAEXXZ DD 0ffffffffH
	DD	FLAT:__unwindfunclet$?_Orphan_all@_Container_base12@std@@QAEXXZ$0
__ehfuncinfo$?_Orphan_all@_Container_base12@std@@QAEXXZ DD 019930522H
	DD	01H
	DD	FLAT:__unwindtable$?_Orphan_all@_Container_base12@std@@QAEXXZ
	DD	2 DUP(00H)
	DD	2 DUP(00H)
	DD	00H
	DD	04H
xdata$x	ENDS
;	COMDAT xdata$x
xdata$x	SEGMENT
__unwindtable$??0bad_array_new_length@std@@QAE@ABV01@@Z DD 0ffffffffH
	DD	FLAT:__unwindfunclet$??0bad_array_new_length@std@@QAE@ABV01@@Z$0
__ehfuncinfo$??0bad_array_new_length@std@@QAE@ABV01@@Z DD 019930522H
	DD	01H
	DD	FLAT:__unwindtable$??0bad_array_new_length@std@@QAE@ABV01@@Z
	DD	2 DUP(00H)
	DD	2 DUP(00H)
	DD	00H
	DD	04H
xdata$x	ENDS
;	COMDAT xdata$x
xdata$x	SEGMENT
__unwindtable$??1bad_array_new_length@std@@UAE@XZ DD 0ffffffffH
	DD	FLAT:__unwindfunclet$??1bad_array_new_length@std@@UAE@XZ$0
__ehfuncinfo$??1bad_array_new_length@std@@UAE@XZ DD 019930522H
	DD	01H
	DD	FLAT:__unwindtable$??1bad_array_new_length@std@@UAE@XZ
	DD	2 DUP(00H)
	DD	2 DUP(00H)
	DD	00H
	DD	04H
xdata$x	ENDS
;	COMDAT xdata$x
xdata$x	SEGMENT
__unwindtable$??0bad_array_new_length@std@@QAE@XZ DD 0ffffffffH
	DD	FLAT:__unwindfunclet$??0bad_array_new_length@std@@QAE@XZ$0
__ehfuncinfo$??0bad_array_new_length@std@@QAE@XZ DD 019930522H
	DD	01H
	DD	FLAT:__unwindtable$??0bad_array_new_length@std@@QAE@XZ
	DD	2 DUP(00H)
	DD	2 DUP(00H)
	DD	00H
	DD	04H
xdata$x	ENDS
;	COMDAT xdata$x
xdata$x	SEGMENT
__unwindtable$??0bad_alloc@std@@QAE@ABV01@@Z DD 0ffffffffH
	DD	FLAT:__unwindfunclet$??0bad_alloc@std@@QAE@ABV01@@Z$0
__ehfuncinfo$??0bad_alloc@std@@QAE@ABV01@@Z DD 019930522H
	DD	01H
	DD	FLAT:__unwindtable$??0bad_alloc@std@@QAE@ABV01@@Z
	DD	2 DUP(00H)
	DD	2 DUP(00H)
	DD	00H
	DD	04H
xdata$x	ENDS
;	COMDAT xdata$x
xdata$x	SEGMENT
__unwindtable$??1bad_alloc@std@@UAE@XZ DD 0ffffffffH
	DD	FLAT:__unwindfunclet$??1bad_alloc@std@@UAE@XZ$0
__ehfuncinfo$??1bad_alloc@std@@UAE@XZ DD 019930522H
	DD	01H
	DD	FLAT:__unwindtable$??1bad_alloc@std@@UAE@XZ
	DD	2 DUP(00H)
	DD	2 DUP(00H)
	DD	00H
	DD	04H
xdata$x	ENDS
;	COMDAT xdata$x
xdata$x	SEGMENT
__unwindtable$??0bad_alloc@std@@AAE@QBD@Z DD 0ffffffffH
	DD	FLAT:__unwindfunclet$??0bad_alloc@std@@AAE@QBD@Z$0
__ehfuncinfo$??0bad_alloc@std@@AAE@QBD@Z DD 019930522H
	DD	01H
	DD	FLAT:__unwindtable$??0bad_alloc@std@@AAE@QBD@Z
	DD	2 DUP(00H)
	DD	2 DUP(00H)
	DD	00H
	DD	04H
xdata$x	ENDS
;	COMDAT xdata$x
xdata$x	SEGMENT
__ehfuncinfo$??1exception@std@@UAE@XZ DD 019930522H
	DD	00H
	DD	00H
	DD	2 DUP(00H)
	DD	2 DUP(00H)
	DD	00H
	DD	04H
xdata$x	ENDS
;	COMDAT xdata$x
xdata$x	SEGMENT
__ehfuncinfo$??0exception@std@@QAE@ABV01@@Z DD 019930522H
	DD	00H
	DD	00H
	DD	2 DUP(00H)
	DD	2 DUP(00H)
	DD	00H
	DD	04H
xdata$x	ENDS
; Function compile flags: /Odtp /RTCsu
; File C:\Program Files (x86)\Microsoft Visual Studio\2019\Community\VC\Tools\MSVC\14.23.28105\include\xmemory
;	COMDAT ??$construct@U?$pair@IPBD@std@@ABU12@@?$_Default_allocator_traits@V?$allocator@U?$pair@IPBD@std@@@std@@@std@@SAXAAV?$allocator@U?$pair@IPBD@std@@@1@QAU?$pair@IPBD@1@ABU31@@Z
_TEXT	SEGMENT
$T1 = -4						; size = 4
___formal$ = 8						; size = 4
__Ptr$ = 12						; size = 4
_<_Args_0>$ = 16					; size = 4
??$construct@U?$pair@IPBD@std@@ABU12@@?$_Default_allocator_traits@V?$allocator@U?$pair@IPBD@std@@@std@@@std@@SAXAAV?$allocator@U?$pair@IPBD@std@@@1@QAU?$pair@IPBD@1@ABU31@@Z PROC ; std::_Default_allocator_traits<std::allocator<std::pair<unsigned int,char const *> > >::construct<std::pair<unsigned int,char const *>,std::pair<unsigned int,char const *> const &>, COMDAT

; 757  :     static void construct(_Alloc&, _Objty* const _Ptr, _Types&&... _Args) {

  00000	55		 push	 ebp
  00001	8b ec		 mov	 ebp, esp
  00003	51		 push	 ecx
  00004	c7 45 fc cc cc
	cc cc		 mov	 DWORD PTR [ebp-4], -858993460 ; ccccccccH

; 758  :         ::new (const_cast<void*>(static_cast<const volatile void*>(_Ptr))) _Objty(_STD forward<_Types>(_Args)...);

  0000b	8b 45 0c	 mov	 eax, DWORD PTR __Ptr$[ebp]
  0000e	50		 push	 eax
  0000f	6a 08		 push	 8
  00011	e8 00 00 00 00	 call	 ??2@YAPAXIPAX@Z		; operator new
  00016	83 c4 08	 add	 esp, 8
  00019	89 45 fc	 mov	 DWORD PTR $T1[ebp], eax
  0001c	8b 4d 10	 mov	 ecx, DWORD PTR _<_Args_0>$[ebp]
  0001f	51		 push	 ecx
  00020	e8 00 00 00 00	 call	 ??$forward@ABU?$pair@IPBD@std@@@std@@YAABU?$pair@IPBD@0@ABU10@@Z ; std::forward<std::pair<unsigned int,char const *> const &>
  00025	83 c4 04	 add	 esp, 4
  00028	8b 10		 mov	 edx, DWORD PTR [eax]
  0002a	8b 40 04	 mov	 eax, DWORD PTR [eax+4]
  0002d	8b 4d fc	 mov	 ecx, DWORD PTR $T1[ebp]
  00030	89 11		 mov	 DWORD PTR [ecx], edx
  00032	89 41 04	 mov	 DWORD PTR [ecx+4], eax

; 759  :     }

  00035	83 c4 04	 add	 esp, 4
  00038	3b ec		 cmp	 ebp, esp
  0003a	e8 00 00 00 00	 call	 __RTC_CheckEsp
  0003f	8b e5		 mov	 esp, ebp
  00041	5d		 pop	 ebp
  00042	c3		 ret	 0
??$construct@U?$pair@IPBD@std@@ABU12@@?$_Default_allocator_traits@V?$allocator@U?$pair@IPBD@std@@@std@@@std@@SAXAAV?$allocator@U?$pair@IPBD@std@@@1@QAU?$pair@IPBD@1@ABU31@@Z ENDP ; std::_Default_allocator_traits<std::allocator<std::pair<unsigned int,char const *> > >::construct<std::pair<unsigned int,char const *>,std::pair<unsigned int,char const *> const &>
_TEXT	ENDS
; Function compile flags: /Odtp /RTCsu
; File C:\Program Files (x86)\Microsoft Visual Studio\2019\Community\VC\Tools\MSVC\14.23.28105\include\type_traits
;	COMDAT ??$forward@ABU?$pair@IPBD@std@@@std@@YAABU?$pair@IPBD@0@ABU10@@Z
_TEXT	SEGMENT
__Arg$ = 8						; size = 4
??$forward@ABU?$pair@IPBD@std@@@std@@YAABU?$pair@IPBD@0@ABU10@@Z PROC ; std::forward<std::pair<unsigned int,char const *> const &>, COMDAT

; 1420 :     remove_reference_t<_Ty>& _Arg) noexcept { // forward an lvalue as either an lvalue or an rvalue

  00000	55		 push	 ebp
  00001	8b ec		 mov	 ebp, esp

; 1421 :     return static_cast<_Ty&&>(_Arg);

  00003	8b 45 08	 mov	 eax, DWORD PTR __Arg$[ebp]

; 1422 : }

  00006	5d		 pop	 ebp
  00007	c3		 ret	 0
??$forward@ABU?$pair@IPBD@std@@@std@@YAABU?$pair@IPBD@0@ABU10@@Z ENDP ; std::forward<std::pair<unsigned int,char const *> const &>
_TEXT	ENDS
; Function compile flags: /Odtp /RTCsu
; File C:\Program Files (x86)\Microsoft Visual Studio\2019\Community\VC\Tools\MSVC\14.23.28105\include\xstddef
;	COMDAT ??$_Unfancy@U?$pair@IPBD@std@@@std@@YAPAU?$pair@IPBD@0@PAU10@@Z
_TEXT	SEGMENT
__Ptr$ = 8						; size = 4
??$_Unfancy@U?$pair@IPBD@std@@@std@@YAPAU?$pair@IPBD@0@PAU10@@Z PROC ; std::_Unfancy<std::pair<unsigned int,char const *> >, COMDAT

; 293  : _Ty* _Unfancy(_Ty* _Ptr) { // do nothing for plain pointers

  00000	55		 push	 ebp
  00001	8b ec		 mov	 ebp, esp

; 294  :     return _Ptr;

  00003	8b 45 08	 mov	 eax, DWORD PTR __Ptr$[ebp]

; 295  : }

  00006	5d		 pop	 ebp
  00007	c3		 ret	 0
??$_Unfancy@U?$pair@IPBD@std@@@std@@YAPAU?$pair@IPBD@0@PAU10@@Z ENDP ; std::_Unfancy<std::pair<unsigned int,char const *> >
_TEXT	ENDS
; Function compile flags: /Odtp /RTCsu
; File C:\Program Files (x86)\Microsoft Visual Studio\2019\Community\VC\Tools\MSVC\14.23.28105\include\xmemory
;	COMDAT ??$_Emplace_back@ABU?$pair@IPBD@std@@@?$_Uninitialized_backout_al@V?$allocator@U?$pair@IPBD@std@@@std@@@std@@QAEXABU?$pair@IPBD@1@@Z
_TEXT	SEGMENT
_this$ = -4						; size = 4
_<_Vals_0>$ = 8						; size = 4
??$_Emplace_back@ABU?$pair@IPBD@std@@@?$_Uninitialized_backout_al@V?$allocator@U?$pair@IPBD@std@@@std@@@std@@QAEXABU?$pair@IPBD@1@@Z PROC ; std::_Uninitialized_backout_al<std::allocator<std::pair<unsigned int,char const *> > >::_Emplace_back<std::pair<unsigned int,char const *> const &>, COMDAT
; _this$ = ecx

; 1580 :     void _Emplace_back(_Types&&... _Vals) { // construct a new element at *_Last and increment

  00000	55		 push	 ebp
  00001	8b ec		 mov	 ebp, esp
  00003	51		 push	 ecx
  00004	c7 45 fc cc cc
	cc cc		 mov	 DWORD PTR [ebp-4], -858993460 ; ccccccccH
  0000b	89 4d fc	 mov	 DWORD PTR _this$[ebp], ecx

; 1581 :         allocator_traits<_Alloc>::construct(_Al, _Unfancy(_Last), _STD forward<_Types>(_Vals)...);

  0000e	8b 45 08	 mov	 eax, DWORD PTR _<_Vals_0>$[ebp]
  00011	50		 push	 eax
  00012	e8 00 00 00 00	 call	 ??$forward@ABU?$pair@IPBD@std@@@std@@YAABU?$pair@IPBD@0@ABU10@@Z ; std::forward<std::pair<unsigned int,char const *> const &>
  00017	83 c4 04	 add	 esp, 4
  0001a	50		 push	 eax
  0001b	8b 4d fc	 mov	 ecx, DWORD PTR _this$[ebp]
  0001e	8b 51 04	 mov	 edx, DWORD PTR [ecx+4]
  00021	52		 push	 edx
  00022	e8 00 00 00 00	 call	 ??$_Unfancy@U?$pair@IPBD@std@@@std@@YAPAU?$pair@IPBD@0@PAU10@@Z ; std::_Unfancy<std::pair<unsigned int,char const *> >
  00027	83 c4 04	 add	 esp, 4
  0002a	50		 push	 eax
  0002b	8b 45 fc	 mov	 eax, DWORD PTR _this$[ebp]
  0002e	8b 48 08	 mov	 ecx, DWORD PTR [eax+8]
  00031	51		 push	 ecx
  00032	e8 00 00 00 00	 call	 ??$construct@U?$pair@IPBD@std@@ABU12@@?$_Default_allocator_traits@V?$allocator@U?$pair@IPBD@std@@@std@@@std@@SAXAAV?$allocator@U?$pair@IPBD@std@@@1@QAU?$pair@IPBD@1@ABU31@@Z ; std::_Default_allocator_traits<std::allocator<std::pair<unsigned int,char const *> > >::construct<std::pair<unsigned int,char const *>,std::pair<unsigned int,char const *> const &>
  00037	83 c4 0c	 add	 esp, 12			; 0000000cH

; 1582 :         ++_Last;

  0003a	8b 55 fc	 mov	 edx, DWORD PTR _this$[ebp]
  0003d	8b 42 04	 mov	 eax, DWORD PTR [edx+4]
  00040	83 c0 08	 add	 eax, 8
  00043	8b 4d fc	 mov	 ecx, DWORD PTR _this$[ebp]
  00046	89 41 04	 mov	 DWORD PTR [ecx+4], eax

; 1583 :     }

  00049	83 c4 04	 add	 esp, 4
  0004c	3b ec		 cmp	 ebp, esp
  0004e	e8 00 00 00 00	 call	 __RTC_CheckEsp
  00053	8b e5		 mov	 esp, ebp
  00055	5d		 pop	 ebp
  00056	c2 04 00	 ret	 4
??$_Emplace_back@ABU?$pair@IPBD@std@@@?$_Uninitialized_backout_al@V?$allocator@U?$pair@IPBD@std@@@std@@@std@@QAEXABU?$pair@IPBD@1@@Z ENDP ; std::_Uninitialized_backout_al<std::allocator<std::pair<unsigned int,char const *> > >::_Emplace_back<std::pair<unsigned int,char const *> const &>
_TEXT	ENDS
; Function compile flags: /Odtp /RTCsu
; File C:\Program Files (x86)\Microsoft Visual Studio\2019\Community\VC\Tools\MSVC\14.23.28105\include\xmemory
;	COMDAT ?_Release@?$_Uninitialized_backout_al@V?$allocator@U?$pair@IPBD@std@@@std@@@std@@QAEPAU?$pair@IPBD@2@XZ
_TEXT	SEGMENT
_this$ = -4						; size = 4
?_Release@?$_Uninitialized_backout_al@V?$allocator@U?$pair@IPBD@std@@@std@@@std@@QAEPAU?$pair@IPBD@2@XZ PROC ; std::_Uninitialized_backout_al<std::allocator<std::pair<unsigned int,char const *> > >::_Release, COMDAT
; _this$ = ecx

; 1585 :     pointer _Release() { // suppress any exception handling backout and return _Last

  00000	55		 push	 ebp
  00001	8b ec		 mov	 ebp, esp
  00003	51		 push	 ecx
  00004	c7 45 fc cc cc
	cc cc		 mov	 DWORD PTR [ebp-4], -858993460 ; ccccccccH
  0000b	89 4d fc	 mov	 DWORD PTR _this$[ebp], ecx

; 1586 :         _First = _Last;

  0000e	8b 45 fc	 mov	 eax, DWORD PTR _this$[ebp]
  00011	8b 4d fc	 mov	 ecx, DWORD PTR _this$[ebp]
  00014	8b 51 04	 mov	 edx, DWORD PTR [ecx+4]
  00017	89 10		 mov	 DWORD PTR [eax], edx

; 1587 :         return _Last;

  00019	8b 45 fc	 mov	 eax, DWORD PTR _this$[ebp]
  0001c	8b 40 04	 mov	 eax, DWORD PTR [eax+4]

; 1588 :     }

  0001f	8b e5		 mov	 esp, ebp
  00021	5d		 pop	 ebp
  00022	c3		 ret	 0
?_Release@?$_Uninitialized_backout_al@V?$allocator@U?$pair@IPBD@std@@@std@@@std@@QAEPAU?$pair@IPBD@2@XZ ENDP ; std::_Uninitialized_backout_al<std::allocator<std::pair<unsigned int,char const *> > >::_Release
_TEXT	ENDS
; Function compile flags: /Odtp /RTCsu
; File C:\Program Files (x86)\Microsoft Visual Studio\2019\Community\VC\Tools\MSVC\14.23.28105\include\xmemory
;	COMDAT ??1?$_Uninitialized_backout_al@V?$allocator@U?$pair@IPBD@std@@@std@@@std@@QAE@XZ
_TEXT	SEGMENT
_this$ = -4						; size = 4
??1?$_Uninitialized_backout_al@V?$allocator@U?$pair@IPBD@std@@@std@@@std@@QAE@XZ PROC ; std::_Uninitialized_backout_al<std::allocator<std::pair<unsigned int,char const *> > >::~_Uninitialized_backout_al<std::allocator<std::pair<unsigned int,char const *> > >, COMDAT
; _this$ = ecx

; 1575 :     ~_Uninitialized_backout_al() {

  00000	55		 push	 ebp
  00001	8b ec		 mov	 ebp, esp
  00003	51		 push	 ecx
  00004	c7 45 fc cc cc
	cc cc		 mov	 DWORD PTR [ebp-4], -858993460 ; ccccccccH
  0000b	89 4d fc	 mov	 DWORD PTR _this$[ebp], ecx

; 1576 :         _Destroy_range(_First, _Last, _Al);

  0000e	8b 45 fc	 mov	 eax, DWORD PTR _this$[ebp]
  00011	8b 48 08	 mov	 ecx, DWORD PTR [eax+8]
  00014	51		 push	 ecx
  00015	8b 55 fc	 mov	 edx, DWORD PTR _this$[ebp]
  00018	8b 42 04	 mov	 eax, DWORD PTR [edx+4]
  0001b	50		 push	 eax
  0001c	8b 4d fc	 mov	 ecx, DWORD PTR _this$[ebp]
  0001f	8b 11		 mov	 edx, DWORD PTR [ecx]
  00021	52		 push	 edx
  00022	e8 00 00 00 00	 call	 ??$_Destroy_range@V?$allocator@U?$pair@IPBD@std@@@std@@@std@@YAXPAU?$pair@IPBD@0@QAU10@AAV?$allocator@U?$pair@IPBD@std@@@0@@Z ; std::_Destroy_range<std::allocator<std::pair<unsigned int,char const *> > >
  00027	83 c4 0c	 add	 esp, 12			; 0000000cH

; 1577 :     }

  0002a	83 c4 04	 add	 esp, 4
  0002d	3b ec		 cmp	 ebp, esp
  0002f	e8 00 00 00 00	 call	 __RTC_CheckEsp
  00034	8b e5		 mov	 esp, ebp
  00036	5d		 pop	 ebp
  00037	c3		 ret	 0
??1?$_Uninitialized_backout_al@V?$allocator@U?$pair@IPBD@std@@@std@@@std@@QAE@XZ ENDP ; std::_Uninitialized_backout_al<std::allocator<std::pair<unsigned int,char const *> > >::~_Uninitialized_backout_al<std::allocator<std::pair<unsigned int,char const *> > >
_TEXT	ENDS
; Function compile flags: /Odtp /RTCsu
; File C:\Program Files (x86)\Microsoft Visual Studio\2019\Community\VC\Tools\MSVC\14.23.28105\include\xmemory
;	COMDAT ??0?$_Uninitialized_backout_al@V?$allocator@U?$pair@IPBD@std@@@std@@@std@@QAE@PAU?$pair@IPBD@1@AAV?$allocator@U?$pair@IPBD@std@@@1@@Z
_TEXT	SEGMENT
_this$ = -4						; size = 4
__Dest$ = 8						; size = 4
__Al_$ = 12						; size = 4
??0?$_Uninitialized_backout_al@V?$allocator@U?$pair@IPBD@std@@@std@@@std@@QAE@PAU?$pair@IPBD@1@AAV?$allocator@U?$pair@IPBD@std@@@1@@Z PROC ; std::_Uninitialized_backout_al<std::allocator<std::pair<unsigned int,char const *> > >::_Uninitialized_backout_al<std::allocator<std::pair<unsigned int,char const *> > >, COMDAT
; _this$ = ecx

; 1570 :     _Uninitialized_backout_al(pointer _Dest, _Alloc& _Al_) : _First(_Dest), _Last(_Dest), _Al(_Al_) {}

  00000	55		 push	 ebp
  00001	8b ec		 mov	 ebp, esp
  00003	51		 push	 ecx
  00004	c7 45 fc cc cc
	cc cc		 mov	 DWORD PTR [ebp-4], -858993460 ; ccccccccH
  0000b	89 4d fc	 mov	 DWORD PTR _this$[ebp], ecx
  0000e	8b 45 fc	 mov	 eax, DWORD PTR _this$[ebp]
  00011	8b 4d 08	 mov	 ecx, DWORD PTR __Dest$[ebp]
  00014	89 08		 mov	 DWORD PTR [eax], ecx
  00016	8b 55 fc	 mov	 edx, DWORD PTR _this$[ebp]
  00019	8b 45 08	 mov	 eax, DWORD PTR __Dest$[ebp]
  0001c	89 42 04	 mov	 DWORD PTR [edx+4], eax
  0001f	8b 4d fc	 mov	 ecx, DWORD PTR _this$[ebp]
  00022	8b 55 0c	 mov	 edx, DWORD PTR __Al_$[ebp]
  00025	89 51 08	 mov	 DWORD PTR [ecx+8], edx
  00028	8b 45 fc	 mov	 eax, DWORD PTR _this$[ebp]
  0002b	8b e5		 mov	 esp, ebp
  0002d	5d		 pop	 ebp
  0002e	c2 08 00	 ret	 8
??0?$_Uninitialized_backout_al@V?$allocator@U?$pair@IPBD@std@@@std@@@std@@QAE@PAU?$pair@IPBD@1@AAV?$allocator@U?$pair@IPBD@std@@@1@@Z ENDP ; std::_Uninitialized_backout_al<std::allocator<std::pair<unsigned int,char const *> > >::_Uninitialized_backout_al<std::allocator<std::pair<unsigned int,char const *> > >
_TEXT	ENDS
; Function compile flags: /Odtp /RTCsu
; File C:\Program Files (x86)\Microsoft Visual Studio\2019\Community\VC\Tools\MSVC\14.23.28105\include\xutility
;	COMDAT ??$_Get_unwrapped@$$CBU?$pair@IPBD@std@@@std@@YAPBU?$pair@IPBD@0@QBU10@@Z
_TEXT	SEGMENT
__Ptr$ = 8						; size = 4
??$_Get_unwrapped@$$CBU?$pair@IPBD@std@@@std@@YAPBU?$pair@IPBD@0@QBU10@@Z PROC ; std::_Get_unwrapped<std::pair<unsigned int,char const *> const >, COMDAT

; 275  : _NODISCARD constexpr _Ty* _Get_unwrapped(_Ty* const _Ptr) { // special case already-unwrapped pointers

  00000	55		 push	 ebp
  00001	8b ec		 mov	 ebp, esp

; 276  :     return _Ptr;

  00003	8b 45 08	 mov	 eax, DWORD PTR __Ptr$[ebp]

; 277  : }

  00006	5d		 pop	 ebp
  00007	c3		 ret	 0
??$_Get_unwrapped@$$CBU?$pair@IPBD@std@@@std@@YAPBU?$pair@IPBD@0@QBU10@@Z ENDP ; std::_Get_unwrapped<std::pair<unsigned int,char const *> const >
_TEXT	ENDS
; Function compile flags: /Odtp /RTCsu
; File C:\Program Files (x86)\Microsoft Visual Studio\2019\Community\VC\Tools\MSVC\14.23.28105\include\xmemory
;	COMDAT ??$_Uninitialized_copy@PBU?$pair@IPBD@std@@V?$allocator@U?$pair@IPBD@std@@@2@@std@@YAPAU?$pair@IPBD@0@QBU10@0PAU10@AAV?$allocator@U?$pair@IPBD@std@@@0@@Z
_TEXT	SEGMENT
__Backout$2 = -36					; size = 12
__ULast$ = -20						; size = 4
__UFirst$ = -16						; size = 4
__$EHRec$ = -12						; size = 12
__First$ = 8						; size = 4
__Last$ = 12						; size = 4
__Dest$ = 16						; size = 4
__Al$ = 20						; size = 4
??$_Uninitialized_copy@PBU?$pair@IPBD@std@@V?$allocator@U?$pair@IPBD@std@@@2@@std@@YAPAU?$pair@IPBD@0@QBU10@0PAU10@AAV?$allocator@U?$pair@IPBD@std@@@0@@Z PROC ; std::_Uninitialized_copy<std::pair<unsigned int,char const *> const *,std::allocator<std::pair<unsigned int,char const *> > >, COMDAT

; 1600 :     const _InIt _First, const _InIt _Last, _Alloc_ptr_t<_Alloc> _Dest, _Alloc& _Al) {

  00000	55		 push	 ebp
  00001	8b ec		 mov	 ebp, esp
  00003	6a ff		 push	 -1
  00005	68 00 00 00 00	 push	 __ehhandler$??$_Uninitialized_copy@PBU?$pair@IPBD@std@@V?$allocator@U?$pair@IPBD@std@@@2@@std@@YAPAU?$pair@IPBD@0@QBU10@0PAU10@AAV?$allocator@U?$pair@IPBD@std@@@0@@Z
  0000a	64 a1 00 00 00
	00		 mov	 eax, DWORD PTR fs:0
  00010	50		 push	 eax
  00011	83 ec 1c	 sub	 esp, 28			; 0000001cH
  00014	b8 cc cc cc cc	 mov	 eax, -858993460		; ccccccccH
  00019	89 45 d8	 mov	 DWORD PTR [ebp-40], eax
  0001c	89 45 dc	 mov	 DWORD PTR [ebp-36], eax
  0001f	89 45 e0	 mov	 DWORD PTR [ebp-32], eax
  00022	89 45 e4	 mov	 DWORD PTR [ebp-28], eax
  00025	89 45 e8	 mov	 DWORD PTR [ebp-24], eax
  00028	89 45 ec	 mov	 DWORD PTR [ebp-20], eax
  0002b	89 45 f0	 mov	 DWORD PTR [ebp-16], eax
  0002e	a1 00 00 00 00	 mov	 eax, DWORD PTR ___security_cookie
  00033	33 c5		 xor	 eax, ebp
  00035	50		 push	 eax
  00036	8d 45 f4	 lea	 eax, DWORD PTR __$EHRec$[ebp]
  00039	64 a3 00 00 00
	00		 mov	 DWORD PTR fs:0, eax

; 1601 :     // copy [_First, _Last) to raw _Dest, using _Al
; 1602 :     // note: only called internally from elsewhere in the STL
; 1603 :     using _Ptrval = typename _Alloc::value_type*;
; 1604 : 
; 1605 :     auto _UFirst      = _Get_unwrapped(_First);

  0003f	8b 45 08	 mov	 eax, DWORD PTR __First$[ebp]
  00042	50		 push	 eax
  00043	e8 00 00 00 00	 call	 ??$_Get_unwrapped@$$CBU?$pair@IPBD@std@@@std@@YAPBU?$pair@IPBD@0@QBU10@@Z ; std::_Get_unwrapped<std::pair<unsigned int,char const *> const >
  00048	83 c4 04	 add	 esp, 4
  0004b	89 45 f0	 mov	 DWORD PTR __UFirst$[ebp], eax

; 1606 :     const auto _ULast = _Get_unwrapped(_Last);

  0004e	8b 4d 0c	 mov	 ecx, DWORD PTR __Last$[ebp]
  00051	51		 push	 ecx
  00052	e8 00 00 00 00	 call	 ??$_Get_unwrapped@$$CBU?$pair@IPBD@std@@@std@@YAPBU?$pair@IPBD@0@QBU10@@Z ; std::_Get_unwrapped<std::pair<unsigned int,char const *> const >
  00057	83 c4 04	 add	 esp, 4
  0005a	89 45 ec	 mov	 DWORD PTR __ULast$[ebp], eax

; 1607 : 
; 1608 :     if constexpr (conjunction_v<bool_constant<_Ptr_copy_cat<decltype(_UFirst), _Ptrval>::_Really_trivial>,
; 1609 :                       _Uses_default_construct<_Alloc, _Ptrval, decltype(*_UFirst)>>) {
; 1610 :         _Copy_memmove(_UFirst, _ULast, _Unfancy(_Dest));
; 1611 :         _Dest += _ULast - _UFirst;
; 1612 :         (void) _Al;
; 1613 :     } else {
; 1614 :         _Uninitialized_backout_al<_Alloc> _Backout{_Dest, _Al};

  0005d	8b 55 14	 mov	 edx, DWORD PTR __Al$[ebp]
  00060	52		 push	 edx
  00061	8b 45 10	 mov	 eax, DWORD PTR __Dest$[ebp]
  00064	50		 push	 eax
  00065	8d 4d dc	 lea	 ecx, DWORD PTR __Backout$2[ebp]
  00068	e8 00 00 00 00	 call	 ??0?$_Uninitialized_backout_al@V?$allocator@U?$pair@IPBD@std@@@std@@@std@@QAE@PAU?$pair@IPBD@1@AAV?$allocator@U?$pair@IPBD@std@@@1@@Z ; std::_Uninitialized_backout_al<std::allocator<std::pair<unsigned int,char const *> > >::_Uninitialized_backout_al<std::allocator<std::pair<unsigned int,char const *> > >
  0006d	c7 45 fc 00 00
	00 00		 mov	 DWORD PTR __$EHRec$[ebp+8], 0

; 1615 :         for (; _UFirst != _ULast; ++_UFirst) {

  00074	eb 09		 jmp	 SHORT $LN4@Uninitiali
$LN2@Uninitiali:
  00076	8b 4d f0	 mov	 ecx, DWORD PTR __UFirst$[ebp]
  00079	83 c1 08	 add	 ecx, 8
  0007c	89 4d f0	 mov	 DWORD PTR __UFirst$[ebp], ecx
$LN4@Uninitiali:
  0007f	8b 55 f0	 mov	 edx, DWORD PTR __UFirst$[ebp]
  00082	3b 55 ec	 cmp	 edx, DWORD PTR __ULast$[ebp]
  00085	74 0e		 je	 SHORT $LN3@Uninitiali

; 1616 :             _Backout._Emplace_back(*_UFirst);

  00087	8b 45 f0	 mov	 eax, DWORD PTR __UFirst$[ebp]
  0008a	50		 push	 eax
  0008b	8d 4d dc	 lea	 ecx, DWORD PTR __Backout$2[ebp]
  0008e	e8 00 00 00 00	 call	 ??$_Emplace_back@ABU?$pair@IPBD@std@@@?$_Uninitialized_backout_al@V?$allocator@U?$pair@IPBD@std@@@std@@@std@@QAEXABU?$pair@IPBD@1@@Z ; std::_Uninitialized_backout_al<std::allocator<std::pair<unsigned int,char const *> > >::_Emplace_back<std::pair<unsigned int,char const *> const &>

; 1617 :         }

  00093	eb e1		 jmp	 SHORT $LN2@Uninitiali
$LN3@Uninitiali:

; 1618 : 
; 1619 :         _Dest = _Backout._Release();

  00095	8d 4d dc	 lea	 ecx, DWORD PTR __Backout$2[ebp]
  00098	e8 00 00 00 00	 call	 ?_Release@?$_Uninitialized_backout_al@V?$allocator@U?$pair@IPBD@std@@@std@@@std@@QAEPAU?$pair@IPBD@2@XZ ; std::_Uninitialized_backout_al<std::allocator<std::pair<unsigned int,char const *> > >::_Release
  0009d	89 45 10	 mov	 DWORD PTR __Dest$[ebp], eax

; 1620 :     }

  000a0	c7 45 fc ff ff
	ff ff		 mov	 DWORD PTR __$EHRec$[ebp+8], -1
  000a7	8d 4d dc	 lea	 ecx, DWORD PTR __Backout$2[ebp]
  000aa	e8 00 00 00 00	 call	 ??1?$_Uninitialized_backout_al@V?$allocator@U?$pair@IPBD@std@@@std@@@std@@QAE@XZ ; std::_Uninitialized_backout_al<std::allocator<std::pair<unsigned int,char const *> > >::~_Uninitialized_backout_al<std::allocator<std::pair<unsigned int,char const *> > >

; 1621 : 
; 1622 :     return _Dest;

  000af	8b 45 10	 mov	 eax, DWORD PTR __Dest$[ebp]

; 1623 : }

  000b2	52		 push	 edx
  000b3	8b cd		 mov	 ecx, ebp
  000b5	50		 push	 eax
  000b6	8d 15 00 00 00
	00		 lea	 edx, DWORD PTR $LN10@Uninitiali
  000bc	e8 00 00 00 00	 call	 @_RTC_CheckStackVars@8
  000c1	58		 pop	 eax
  000c2	5a		 pop	 edx
  000c3	8b 4d f4	 mov	 ecx, DWORD PTR __$EHRec$[ebp]
  000c6	64 89 0d 00 00
	00 00		 mov	 DWORD PTR fs:0, ecx
  000cd	59		 pop	 ecx
  000ce	83 c4 28	 add	 esp, 40			; 00000028H
  000d1	3b ec		 cmp	 ebp, esp
  000d3	e8 00 00 00 00	 call	 __RTC_CheckEsp
  000d8	8b e5		 mov	 esp, ebp
  000da	5d		 pop	 ebp
  000db	c3		 ret	 0
$LN10@Uninitiali:
  000dc	01 00 00 00	 DD	 1
  000e0	00 00 00 00	 DD	 $LN9@Uninitiali
$LN9@Uninitiali:
  000e4	dc ff ff ff	 DD	 -36			; ffffffdcH
  000e8	0c 00 00 00	 DD	 12			; 0000000cH
  000ec	00 00 00 00	 DD	 $LN7@Uninitiali
$LN7@Uninitiali:
  000f0	5f		 DB	 95			; 0000005fH
  000f1	42		 DB	 66			; 00000042H
  000f2	61		 DB	 97			; 00000061H
  000f3	63		 DB	 99			; 00000063H
  000f4	6b		 DB	 107			; 0000006bH
  000f5	6f		 DB	 111			; 0000006fH
  000f6	75		 DB	 117			; 00000075H
  000f7	74		 DB	 116			; 00000074H
  000f8	00		 DB	 0
_TEXT	ENDS
;	COMDAT text$x
text$x	SEGMENT
__unwindfunclet$??$_Uninitialized_copy@PBU?$pair@IPBD@std@@V?$allocator@U?$pair@IPBD@std@@@2@@std@@YAPAU?$pair@IPBD@0@QBU10@0PAU10@AAV?$allocator@U?$pair@IPBD@std@@@0@@Z$0:
  00000	8d 4d dc	 lea	 ecx, DWORD PTR __Backout$2[ebp]
  00003	e9 00 00 00 00	 jmp	 ??1?$_Uninitialized_backout_al@V?$allocator@U?$pair@IPBD@std@@@std@@@std@@QAE@XZ ; std::_Uninitialized_backout_al<std::allocator<std::pair<unsigned int,char const *> > >::~_Uninitialized_backout_al<std::allocator<std::pair<unsigned int,char const *> > >
__ehhandler$??$_Uninitialized_copy@PBU?$pair@IPBD@std@@V?$allocator@U?$pair@IPBD@std@@@2@@std@@YAPAU?$pair@IPBD@0@QBU10@0PAU10@AAV?$allocator@U?$pair@IPBD@std@@@0@@Z:
  00008	8b 54 24 08	 mov	 edx, DWORD PTR [esp+8]
  0000c	8d 42 0c	 lea	 eax, DWORD PTR [edx+12]
  0000f	8b 4a e0	 mov	 ecx, DWORD PTR [edx-32]
  00012	33 c8		 xor	 ecx, eax
  00014	e8 00 00 00 00	 call	 @__security_check_cookie@4
  00019	b8 00 00 00 00	 mov	 eax, OFFSET __ehfuncinfo$??$_Uninitialized_copy@PBU?$pair@IPBD@std@@V?$allocator@U?$pair@IPBD@std@@@2@@std@@YAPAU?$pair@IPBD@0@QBU10@0PAU10@AAV?$allocator@U?$pair@IPBD@std@@@0@@Z
  0001e	e9 00 00 00 00	 jmp	 ___CxxFrameHandler3
text$x	ENDS
??$_Uninitialized_copy@PBU?$pair@IPBD@std@@V?$allocator@U?$pair@IPBD@std@@@2@@std@@YAPAU?$pair@IPBD@0@QBU10@0PAU10@AAV?$allocator@U?$pair@IPBD@std@@@0@@Z ENDP ; std::_Uninitialized_copy<std::pair<unsigned int,char const *> const *,std::allocator<std::pair<unsigned int,char const *> > >
; Function compile flags: /Odtp /RTCsu
; File C:\Program Files (x86)\Microsoft Visual Studio\2019\Community\VC\Tools\MSVC\14.23.28105\include\xmemory
;	COMDAT ?deallocate@?$_Default_allocator_traits@V?$allocator@U_Container_proxy@std@@@std@@@std@@SAXAAV?$allocator@U_Container_proxy@std@@@2@QAU_Container_proxy@2@I@Z
_TEXT	SEGMENT
___formal$ = 8						; size = 4
__Ptr$ = 12						; size = 4
__Count$ = 16						; size = 4
?deallocate@?$_Default_allocator_traits@V?$allocator@U_Container_proxy@std@@@std@@@std@@SAXAAV?$allocator@U_Container_proxy@std@@@2@QAU_Container_proxy@2@I@Z PROC ; std::_Default_allocator_traits<std::allocator<std::_Container_proxy> >::deallocate, COMDAT

; 751  :     static void deallocate(_Alloc&, const pointer _Ptr, const size_type _Count) {

  00000	55		 push	 ebp
  00001	8b ec		 mov	 ebp, esp

; 752  :         // no overflow check on the following multiply; we assume _Allocate did that check
; 753  :         _Deallocate<_New_alignof<value_type>>(_Ptr, sizeof(value_type) * _Count);

  00003	8b 45 10	 mov	 eax, DWORD PTR __Count$[ebp]
  00006	c1 e0 03	 shl	 eax, 3
  00009	50		 push	 eax
  0000a	8b 4d 0c	 mov	 ecx, DWORD PTR __Ptr$[ebp]
  0000d	51		 push	 ecx
  0000e	e8 00 00 00 00	 call	 ??$_Deallocate@$07$0A@@std@@YAXPAXI@Z ; std::_Deallocate<8,0>
  00013	83 c4 08	 add	 esp, 8

; 754  :     }

  00016	3b ec		 cmp	 ebp, esp
  00018	e8 00 00 00 00	 call	 __RTC_CheckEsp
  0001d	5d		 pop	 ebp
  0001e	c3		 ret	 0
?deallocate@?$_Default_allocator_traits@V?$allocator@U_Container_proxy@std@@@std@@@std@@SAXAAV?$allocator@U_Container_proxy@std@@@2@QAU_Container_proxy@2@I@Z ENDP ; std::_Default_allocator_traits<std::allocator<std::_Container_proxy> >::deallocate
_TEXT	ENDS
; Function compile flags: /Odtp /RTCsu
; File C:\Program Files (x86)\Microsoft Visual Studio\2019\Community\VC\Tools\MSVC\14.23.28105\include\utility
;	COMDAT ??$_Min_value@I@std@@YAABIABI0@Z
_TEXT	SEGMENT
tv65 = -8						; size = 4
$T1 = -4						; size = 4
__Left$ = 8						; size = 4
__Right$ = 12						; size = 4
??$_Min_value@I@std@@YAABIABI0@Z PROC			; std::_Min_value<unsigned int>, COMDAT

; 25   :     _NOEXCEPT_COND(noexcept(_Right < _Left)) { // return smaller of _Left and _Right

  00000	55		 push	 ebp
  00001	8b ec		 mov	 ebp, esp
  00003	83 ec 08	 sub	 esp, 8
  00006	c7 45 f8 cc cc
	cc cc		 mov	 DWORD PTR [ebp-8], -858993460 ; ccccccccH
  0000d	c7 45 fc cc cc
	cc cc		 mov	 DWORD PTR [ebp-4], -858993460 ; ccccccccH

; 26   :     return _Right < _Left ? _Right : _Left;

  00014	8b 45 0c	 mov	 eax, DWORD PTR __Right$[ebp]
  00017	8b 4d 08	 mov	 ecx, DWORD PTR __Left$[ebp]
  0001a	8b 10		 mov	 edx, DWORD PTR [eax]
  0001c	3b 11		 cmp	 edx, DWORD PTR [ecx]
  0001e	73 08		 jae	 SHORT $LN3@Min_value
  00020	8b 45 0c	 mov	 eax, DWORD PTR __Right$[ebp]
  00023	89 45 f8	 mov	 DWORD PTR tv65[ebp], eax
  00026	eb 06		 jmp	 SHORT $LN4@Min_value
$LN3@Min_value:
  00028	8b 4d 08	 mov	 ecx, DWORD PTR __Left$[ebp]
  0002b	89 4d f8	 mov	 DWORD PTR tv65[ebp], ecx
$LN4@Min_value:
  0002e	8b 55 f8	 mov	 edx, DWORD PTR tv65[ebp]
  00031	89 55 fc	 mov	 DWORD PTR $T1[ebp], edx
  00034	8b 45 fc	 mov	 eax, DWORD PTR $T1[ebp]

; 27   : }

  00037	8b e5		 mov	 esp, ebp
  00039	5d		 pop	 ebp
  0003a	c3		 ret	 0
??$_Min_value@I@std@@YAABIABI0@Z ENDP			; std::_Min_value<unsigned int>
_TEXT	ENDS
; Function compile flags: /Odtp /RTCsu
; File C:\Program Files (x86)\Microsoft Visual Studio\2019\Community\VC\Tools\MSVC\14.23.28105\include\xmemory
;	COMDAT ??$_Allocate_manually_vector_aligned@U_Default_allocate_traits@std@@@std@@YAPAXI@Z
_TEXT	SEGMENT
__Ptr$ = -12						; size = 4
__Ptr_container$ = -8					; size = 4
__Block_size$ = -4					; size = 4
__Bytes$ = 8						; size = 4
??$_Allocate_manually_vector_aligned@U_Default_allocate_traits@std@@@std@@YAPAXI@Z PROC ; std::_Allocate_manually_vector_aligned<std::_Default_allocate_traits>, COMDAT

; 83   : _DECLSPEC_ALLOCATOR void* _Allocate_manually_vector_aligned(const size_t _Bytes) {

  00000	55		 push	 ebp
  00001	8b ec		 mov	 ebp, esp
  00003	83 ec 0c	 sub	 esp, 12			; 0000000cH
  00006	56		 push	 esi
  00007	c7 45 f4 cc cc
	cc cc		 mov	 DWORD PTR [ebp-12], -858993460 ; ccccccccH
  0000e	c7 45 f8 cc cc
	cc cc		 mov	 DWORD PTR [ebp-8], -858993460 ; ccccccccH
  00015	c7 45 fc cc cc
	cc cc		 mov	 DWORD PTR [ebp-4], -858993460 ; ccccccccH

; 84   :     // allocate _Bytes manually aligned to at least _Big_allocation_alignment
; 85   :     const size_t _Block_size = _Non_user_size + _Bytes;

  0001c	8b 45 08	 mov	 eax, DWORD PTR __Bytes$[ebp]
  0001f	83 c0 27	 add	 eax, 39			; 00000027H
  00022	89 45 fc	 mov	 DWORD PTR __Block_size$[ebp], eax

; 86   :     if (_Block_size <= _Bytes) {

  00025	8b 4d fc	 mov	 ecx, DWORD PTR __Block_size$[ebp]
  00028	3b 4d 08	 cmp	 ecx, DWORD PTR __Bytes$[ebp]
  0002b	77 05		 ja	 SHORT $LN8@Allocate_m

; 87   :         _Throw_bad_array_new_length(); // add overflow

  0002d	e8 00 00 00 00	 call	 ?_Throw_bad_array_new_length@std@@YAXXZ ; std::_Throw_bad_array_new_length
$LN8@Allocate_m:

; 88   :     }
; 89   : 
; 90   :     const uintptr_t _Ptr_container = reinterpret_cast<uintptr_t>(_Traits::_Allocate(_Block_size));

  00032	8b 55 fc	 mov	 edx, DWORD PTR __Block_size$[ebp]
  00035	52		 push	 edx
  00036	e8 00 00 00 00	 call	 ?_Allocate@_Default_allocate_traits@std@@SAPAXI@Z ; std::_Default_allocate_traits::_Allocate
  0003b	83 c4 04	 add	 esp, 4
  0003e	89 45 f8	 mov	 DWORD PTR __Ptr_container$[ebp], eax
$LN4@Allocate_m:

; 91   :     _STL_VERIFY(_Ptr_container != 0, "invalid argument"); // validate even in release since we're doing p[-1]

  00041	83 7d f8 00	 cmp	 DWORD PTR __Ptr_container$[ebp], 0
  00045	74 02		 je	 SHORT $LN7@Allocate_m
  00047	eb 56		 jmp	 SHORT $LN2@Allocate_m
$LN7@Allocate_m:
  00049	8b f4		 mov	 esi, esp
  0004b	68 00 00 00 00	 push	 OFFSET $SG78320
  00050	68 00 00 00 00	 push	 OFFSET $SG78321
  00055	6a 00		 push	 0
  00057	6a 5b		 push	 91			; 0000005bH
  00059	68 00 00 00 00	 push	 OFFSET $SG78322
  0005e	6a 02		 push	 2
  00060	ff 15 00 00 00
	00		 call	 DWORD PTR __imp___CrtDbgReport
  00066	83 c4 18	 add	 esp, 24			; 00000018H
  00069	3b f4		 cmp	 esi, esp
  0006b	e8 00 00 00 00	 call	 __RTC_CheckEsp
  00070	83 f8 01	 cmp	 eax, 1
  00073	75 01		 jne	 SHORT $LN12@Allocate_m
  00075	cc		 int	 3
$LN12@Allocate_m:
  00076	8b f4		 mov	 esi, esp
  00078	6a 00		 push	 0
  0007a	6a 5b		 push	 91			; 0000005bH
  0007c	68 00 00 00 00	 push	 OFFSET $SG78323
  00081	68 00 00 00 00	 push	 OFFSET $SG78324
  00086	68 00 00 00 00	 push	 OFFSET $SG78325
  0008b	ff 15 00 00 00
	00		 call	 DWORD PTR __imp___invalid_parameter
  00091	83 c4 14	 add	 esp, 20			; 00000014H
  00094	3b f4		 cmp	 esi, esp
  00096	e8 00 00 00 00	 call	 __RTC_CheckEsp
  0009b	33 c9		 xor	 ecx, ecx
  0009d	75 aa		 jne	 SHORT $LN7@Allocate_m
$LN2@Allocate_m:
  0009f	33 d2		 xor	 edx, edx
  000a1	75 9e		 jne	 SHORT $LN4@Allocate_m

; 92   :     void* const _Ptr = reinterpret_cast<void*>((_Ptr_container + _Non_user_size) & ~(_Big_allocation_alignment - 1));

  000a3	8b 45 f8	 mov	 eax, DWORD PTR __Ptr_container$[ebp]
  000a6	83 c0 27	 add	 eax, 39			; 00000027H
  000a9	83 e0 e0	 and	 eax, -32		; ffffffe0H
  000ac	89 45 f4	 mov	 DWORD PTR __Ptr$[ebp], eax

; 93   :     static_cast<uintptr_t*>(_Ptr)[-1] = _Ptr_container;

  000af	b9 04 00 00 00	 mov	 ecx, 4
  000b4	6b d1 ff	 imul	 edx, ecx, -1
  000b7	8b 45 f4	 mov	 eax, DWORD PTR __Ptr$[ebp]
  000ba	8b 4d f8	 mov	 ecx, DWORD PTR __Ptr_container$[ebp]
  000bd	89 0c 10	 mov	 DWORD PTR [eax+edx], ecx

; 94   : 
; 95   : #ifdef _DEBUG
; 96   :     static_cast<uintptr_t*>(_Ptr)[-2] = _Big_allocation_sentinel;

  000c0	ba 04 00 00 00	 mov	 edx, 4
  000c5	6b c2 fe	 imul	 eax, edx, -2
  000c8	8b 4d f4	 mov	 ecx, DWORD PTR __Ptr$[ebp]
  000cb	c7 04 01 fa fa
	fa fa		 mov	 DWORD PTR [ecx+eax], -84215046 ; fafafafaH

; 97   : #endif // _DEBUG
; 98   :     return _Ptr;

  000d2	8b 45 f4	 mov	 eax, DWORD PTR __Ptr$[ebp]
$LN11@Allocate_m:

; 99   : }

  000d5	5e		 pop	 esi
  000d6	83 c4 0c	 add	 esp, 12			; 0000000cH
  000d9	3b ec		 cmp	 ebp, esp
  000db	e8 00 00 00 00	 call	 __RTC_CheckEsp
  000e0	8b e5		 mov	 esp, ebp
  000e2	5d		 pop	 ebp
  000e3	c3		 ret	 0
??$_Allocate_manually_vector_aligned@U_Default_allocate_traits@std@@@std@@YAPAXI@Z ENDP ; std::_Allocate_manually_vector_aligned<std::_Default_allocate_traits>
_TEXT	ENDS
; Function compile flags: /Odtp /RTCsu
; File C:\Program Files (x86)\Microsoft Visual Studio\2019\Community\VC\Tools\MSVC\14.23.28105\include\type_traits
;	COMDAT ??$forward@PAU_Container_base12@std@@@std@@YA$$QAPAU_Container_base12@0@AAPAU10@@Z
_TEXT	SEGMENT
__Arg$ = 8						; size = 4
??$forward@PAU_Container_base12@std@@@std@@YA$$QAPAU_Container_base12@0@AAPAU10@@Z PROC ; std::forward<std::_Container_base12 *>, COMDAT

; 1420 :     remove_reference_t<_Ty>& _Arg) noexcept { // forward an lvalue as either an lvalue or an rvalue

  00000	55		 push	 ebp
  00001	8b ec		 mov	 ebp, esp

; 1421 :     return static_cast<_Ty&&>(_Arg);

  00003	8b 45 08	 mov	 eax, DWORD PTR __Arg$[ebp]

; 1422 : }

  00006	5d		 pop	 ebp
  00007	c3		 ret	 0
??$forward@PAU_Container_base12@std@@@std@@YA$$QAPAU_Container_base12@0@AAPAU10@@Z ENDP ; std::forward<std::_Container_base12 *>
_TEXT	ENDS
; Function compile flags: /Odtp /RTCsu
; File C:\Program Files (x86)\Microsoft Visual Studio\2019\Community\VC\Tools\MSVC\14.23.28105\include\xstddef
;	COMDAT ??$addressof@U_Container_proxy@std@@@std@@YAPAU_Container_proxy@0@AAU10@@Z
_TEXT	SEGMENT
__Val$ = 8						; size = 4
??$addressof@U_Container_proxy@std@@@std@@YAPAU_Container_proxy@0@AAU10@@Z PROC ; std::addressof<std::_Container_proxy>, COMDAT

; 279  : _NODISCARD constexpr _Ty* addressof(_Ty& _Val) noexcept { // return address of _Val

  00000	55		 push	 ebp
  00001	8b ec		 mov	 ebp, esp

; 280  :     return __builtin_addressof(_Val);

  00003	8b 45 08	 mov	 eax, DWORD PTR __Val$[ebp]

; 281  : }

  00006	5d		 pop	 ebp
  00007	c3		 ret	 0
??$addressof@U_Container_proxy@std@@@std@@YAPAU_Container_proxy@0@AAU10@@Z ENDP ; std::addressof<std::_Container_proxy>
_TEXT	ENDS
; Function compile flags: /Odtp /RTCsu
; File C:\Program Files (x86)\Microsoft Visual Studio\2019\Community\VC\Tools\MSVC\14.23.28105\include\vector
;	COMDAT ??$_Ucopy@PBU?$pair@IPBD@std@@@?$vector@U?$pair@IPBD@std@@V?$allocator@U?$pair@IPBD@std@@@2@@std@@AAEPAU?$pair@IPBD@1@PBU21@0PAU21@@Z
_TEXT	SEGMENT
_this$ = -4						; size = 4
__First$ = 8						; size = 4
__Last$ = 12						; size = 4
__Dest$ = 16						; size = 4
??$_Ucopy@PBU?$pair@IPBD@std@@@?$vector@U?$pair@IPBD@std@@V?$allocator@U?$pair@IPBD@std@@@2@@std@@AAEPAU?$pair@IPBD@1@PBU21@0PAU21@@Z PROC ; std::vector<std::pair<unsigned int,char const *>,std::allocator<std::pair<unsigned int,char const *> > >::_Ucopy<std::pair<unsigned int,char const *> const *>, COMDAT
; _this$ = ecx

; 1543 :     pointer _Ucopy(_Iter _First, _Iter _Last, pointer _Dest) { // copy [_First, _Last) to raw _Dest, using allocator

  00000	55		 push	 ebp
  00001	8b ec		 mov	 ebp, esp
  00003	51		 push	 ecx
  00004	c7 45 fc cc cc
	cc cc		 mov	 DWORD PTR [ebp-4], -858993460 ; ccccccccH
  0000b	89 4d fc	 mov	 DWORD PTR _this$[ebp], ecx

; 1544 :         return _Uninitialized_copy(_First, _Last, _Dest, _Getal());

  0000e	8b 4d fc	 mov	 ecx, DWORD PTR _this$[ebp]
  00011	e8 00 00 00 00	 call	 ?_Getal@?$vector@U?$pair@IPBD@std@@V?$allocator@U?$pair@IPBD@std@@@2@@std@@AAEAAV?$allocator@U?$pair@IPBD@std@@@2@XZ ; std::vector<std::pair<unsigned int,char const *>,std::allocator<std::pair<unsigned int,char const *> > >::_Getal
  00016	50		 push	 eax
  00017	8b 45 10	 mov	 eax, DWORD PTR __Dest$[ebp]
  0001a	50		 push	 eax
  0001b	8b 4d 0c	 mov	 ecx, DWORD PTR __Last$[ebp]
  0001e	51		 push	 ecx
  0001f	8b 55 08	 mov	 edx, DWORD PTR __First$[ebp]
  00022	52		 push	 edx
  00023	e8 00 00 00 00	 call	 ??$_Uninitialized_copy@PBU?$pair@IPBD@std@@V?$allocator@U?$pair@IPBD@std@@@2@@std@@YAPAU?$pair@IPBD@0@QBU10@0PAU10@AAV?$allocator@U?$pair@IPBD@std@@@0@@Z ; std::_Uninitialized_copy<std::pair<unsigned int,char const *> const *,std::allocator<std::pair<unsigned int,char const *> > >
  00028	83 c4 10	 add	 esp, 16			; 00000010H

; 1545 :     }

  0002b	83 c4 04	 add	 esp, 4
  0002e	3b ec		 cmp	 ebp, esp
  00030	e8 00 00 00 00	 call	 __RTC_CheckEsp
  00035	8b e5		 mov	 esp, ebp
  00037	5d		 pop	 ebp
  00038	c2 0c 00	 ret	 12			; 0000000cH
??$_Ucopy@PBU?$pair@IPBD@std@@@?$vector@U?$pair@IPBD@std@@V?$allocator@U?$pair@IPBD@std@@@2@@std@@AAEPAU?$pair@IPBD@1@PBU21@0PAU21@@Z ENDP ; std::vector<std::pair<unsigned int,char const *>,std::allocator<std::pair<unsigned int,char const *> > >::_Ucopy<std::pair<unsigned int,char const *> const *>
_TEXT	ENDS
; Function compile flags: /Odtp /RTCsu
; File C:\Program Files (x86)\Microsoft Visual Studio\2019\Community\VC\Tools\MSVC\14.23.28105\include\xutility
;	COMDAT ??1?$_Tidy_guard@V?$vector@U?$pair@IPBD@std@@V?$allocator@U?$pair@IPBD@std@@@2@@std@@@std@@QAE@XZ
_TEXT	SEGMENT
_this$ = -4						; size = 4
??1?$_Tidy_guard@V?$vector@U?$pair@IPBD@std@@V?$allocator@U?$pair@IPBD@std@@@2@@std@@@std@@QAE@XZ PROC ; std::_Tidy_guard<std::vector<std::pair<unsigned int,char const *>,std::allocator<std::pair<unsigned int,char const *> > > >::~_Tidy_guard<std::vector<std::pair<unsigned int,char const *>,std::allocator<std::pair<unsigned int,char const *> > > >, COMDAT
; _this$ = ecx

; 3526 :     ~_Tidy_guard() {

  00000	55		 push	 ebp
  00001	8b ec		 mov	 ebp, esp
  00003	51		 push	 ecx
  00004	c7 45 fc cc cc
	cc cc		 mov	 DWORD PTR [ebp-4], -858993460 ; ccccccccH
  0000b	89 4d fc	 mov	 DWORD PTR _this$[ebp], ecx

; 3527 :         if (_Target) {

  0000e	8b 45 fc	 mov	 eax, DWORD PTR _this$[ebp]
  00011	83 38 00	 cmp	 DWORD PTR [eax], 0
  00014	74 0a		 je	 SHORT $LN1@Tidy_guard

; 3528 :             _Target->_Tidy();

  00016	8b 4d fc	 mov	 ecx, DWORD PTR _this$[ebp]
  00019	8b 09		 mov	 ecx, DWORD PTR [ecx]
  0001b	e8 00 00 00 00	 call	 ?_Tidy@?$vector@U?$pair@IPBD@std@@V?$allocator@U?$pair@IPBD@std@@@2@@std@@AAEXXZ ; std::vector<std::pair<unsigned int,char const *>,std::allocator<std::pair<unsigned int,char const *> > >::_Tidy
$LN1@Tidy_guard:

; 3529 :         }
; 3530 :     }

  00020	83 c4 04	 add	 esp, 4
  00023	3b ec		 cmp	 ebp, esp
  00025	e8 00 00 00 00	 call	 __RTC_CheckEsp
  0002a	8b e5		 mov	 esp, ebp
  0002c	5d		 pop	 ebp
  0002d	c3		 ret	 0
??1?$_Tidy_guard@V?$vector@U?$pair@IPBD@std@@V?$allocator@U?$pair@IPBD@std@@@2@@std@@@std@@QAE@XZ ENDP ; std::_Tidy_guard<std::vector<std::pair<unsigned int,char const *>,std::allocator<std::pair<unsigned int,char const *> > > >::~_Tidy_guard<std::vector<std::pair<unsigned int,char const *>,std::allocator<std::pair<unsigned int,char const *> > > >
_TEXT	ENDS
; Function compile flags: /Odtp /RTCsu
; File C:\Program Files (x86)\Microsoft Visual Studio\2019\Community\VC\Tools\MSVC\14.23.28105\include\xutility
;	COMDAT ??$distance@PBU?$pair@IPBD@std@@@std@@YAHPBU?$pair@IPBD@0@0@Z
_TEXT	SEGMENT
__First$ = 8						; size = 4
__Last$ = 12						; size = 4
??$distance@PBU?$pair@IPBD@std@@@std@@YAHPBU?$pair@IPBD@0@0@Z PROC ; std::distance<std::pair<unsigned int,char const *> const *>, COMDAT

; 781  : _NODISCARD _CONSTEXPR17 _Iter_diff_t<_InIt> distance(_InIt _First, _InIt _Last) { // return distance between iterators

  00000	55		 push	 ebp
  00001	8b ec		 mov	 ebp, esp

; 782  :     if constexpr (_Is_random_iter_v<_InIt>) {
; 783  :         return _Last - _First; // assume the iterator will do debug checking

  00003	8b 45 0c	 mov	 eax, DWORD PTR __Last$[ebp]
  00006	2b 45 08	 sub	 eax, DWORD PTR __First$[ebp]
  00009	c1 f8 03	 sar	 eax, 3

; 784  :     } else {
; 785  :         _Adl_verify_range(_First, _Last);
; 786  :         auto _UFirst             = _Get_unwrapped(_First);
; 787  :         const auto _ULast        = _Get_unwrapped(_Last);
; 788  :         _Iter_diff_t<_InIt> _Off = 0;
; 789  :         for (; _UFirst != _ULast; ++_UFirst) {
; 790  :             ++_Off;
; 791  :         }
; 792  : 
; 793  :         return _Off;
; 794  :     }
; 795  : }

  0000c	5d		 pop	 ebp
  0000d	c3		 ret	 0
??$distance@PBU?$pair@IPBD@std@@@std@@YAHPBU?$pair@IPBD@0@0@Z ENDP ; std::distance<std::pair<unsigned int,char const *> const *>
_TEXT	ENDS
; Function compile flags: /Odtp /RTCsu
; File C:\Program Files (x86)\Microsoft Visual Studio\2019\Community\VC\Tools\MSVC\14.23.28105\include\type_traits
;	COMDAT ??$forward@ABV?$allocator@U?$pair@IPBD@std@@@std@@@std@@YAABV?$allocator@U?$pair@IPBD@std@@@0@ABV10@@Z
_TEXT	SEGMENT
__Arg$ = 8						; size = 4
??$forward@ABV?$allocator@U?$pair@IPBD@std@@@std@@@std@@YAABV?$allocator@U?$pair@IPBD@std@@@0@ABV10@@Z PROC ; std::forward<std::allocator<std::pair<unsigned int,char const *> > const &>, COMDAT

; 1420 :     remove_reference_t<_Ty>& _Arg) noexcept { // forward an lvalue as either an lvalue or an rvalue

  00000	55		 push	 ebp
  00001	8b ec		 mov	 ebp, esp

; 1421 :     return static_cast<_Ty&&>(_Arg);

  00003	8b 45 08	 mov	 eax, DWORD PTR __Arg$[ebp]

; 1422 : }

  00006	5d		 pop	 ebp
  00007	c3		 ret	 0
??$forward@ABV?$allocator@U?$pair@IPBD@std@@@std@@@std@@YAABV?$allocator@U?$pair@IPBD@std@@@0@ABV10@@Z ENDP ; std::forward<std::allocator<std::pair<unsigned int,char const *> > const &>
_TEXT	ENDS
; Function compile flags: /Odtp /RTCsu
; File C:\Program Files (x86)\Microsoft Visual Studio\2019\Community\VC\Tools\MSVC\14.23.28105\include\xmemory
;	COMDAT ??$_Deallocate_plain@V?$allocator@U_Container_proxy@std@@@std@@@std@@YAXAAV?$allocator@U_Container_proxy@std@@@0@QAU_Container_proxy@0@@Z
_TEXT	SEGMENT
__$EHRec$ = -12						; size = 12
__Al$ = 8						; size = 4
__Ptr$ = 12						; size = 4
??$_Deallocate_plain@V?$allocator@U_Container_proxy@std@@@std@@@std@@YAXAAV?$allocator@U_Container_proxy@std@@@0@QAU_Container_proxy@0@@Z PROC ; std::_Deallocate_plain<std::allocator<std::_Container_proxy> >, COMDAT

; 1081 : void _Deallocate_plain(_Alloc& _Al, typename _Alloc::value_type* const _Ptr) noexcept {

  00000	55		 push	 ebp
  00001	8b ec		 mov	 ebp, esp
  00003	6a ff		 push	 -1
  00005	68 00 00 00 00	 push	 __ehhandler$??$_Deallocate_plain@V?$allocator@U_Container_proxy@std@@@std@@@std@@YAXAAV?$allocator@U_Container_proxy@std@@@0@QAU_Container_proxy@0@@Z
  0000a	64 a1 00 00 00
	00		 mov	 eax, DWORD PTR fs:0
  00010	50		 push	 eax
  00011	a1 00 00 00 00	 mov	 eax, DWORD PTR ___security_cookie
  00016	33 c5		 xor	 eax, ebp
  00018	50		 push	 eax
  00019	8d 45 f4	 lea	 eax, DWORD PTR __$EHRec$[ebp]
  0001c	64 a3 00 00 00
	00		 mov	 DWORD PTR fs:0, eax

; 1082 :     // deallocate a plain pointer using an allocator
; 1083 :     using _Alloc_traits = allocator_traits<_Alloc>;
; 1084 :     if constexpr (is_same_v<_Alloc_ptr_t<_Alloc>, typename _Alloc::value_type*>) {
; 1085 :         _Alloc_traits::deallocate(_Al, _Ptr, 1);

  00022	6a 01		 push	 1
  00024	8b 45 0c	 mov	 eax, DWORD PTR __Ptr$[ebp]
  00027	50		 push	 eax
  00028	8b 4d 08	 mov	 ecx, DWORD PTR __Al$[ebp]
  0002b	51		 push	 ecx
  0002c	e8 00 00 00 00	 call	 ?deallocate@?$_Default_allocator_traits@V?$allocator@U_Container_proxy@std@@@std@@@std@@SAXAAV?$allocator@U_Container_proxy@std@@@2@QAU_Container_proxy@2@I@Z ; std::_Default_allocator_traits<std::allocator<std::_Container_proxy> >::deallocate
  00031	83 c4 0c	 add	 esp, 12			; 0000000cH

; 1086 :     } else {
; 1087 :         using _Ptr_traits = pointer_traits<_Alloc_ptr_t<_Alloc>>;
; 1088 :         _Alloc_traits::deallocate(_Al, _Ptr_traits::pointer_to(*_Ptr), 1);
; 1089 :     }
; 1090 : }

  00034	8b 4d f4	 mov	 ecx, DWORD PTR __$EHRec$[ebp]
  00037	64 89 0d 00 00
	00 00		 mov	 DWORD PTR fs:0, ecx
  0003e	59		 pop	 ecx
  0003f	83 c4 0c	 add	 esp, 12			; 0000000cH
  00042	3b ec		 cmp	 ebp, esp
  00044	e8 00 00 00 00	 call	 __RTC_CheckEsp
  00049	8b e5		 mov	 esp, ebp
  0004b	5d		 pop	 ebp
  0004c	c3		 ret	 0
_TEXT	ENDS
;	COMDAT text$x
text$x	SEGMENT
__ehhandler$??$_Deallocate_plain@V?$allocator@U_Container_proxy@std@@@std@@@std@@YAXAAV?$allocator@U_Container_proxy@std@@@0@QAU_Container_proxy@0@@Z:
  00000	8b 54 24 08	 mov	 edx, DWORD PTR [esp+8]
  00004	8d 42 0c	 lea	 eax, DWORD PTR [edx+12]
  00007	8b 4a fc	 mov	 ecx, DWORD PTR [edx-4]
  0000a	33 c8		 xor	 ecx, eax
  0000c	e8 00 00 00 00	 call	 @__security_check_cookie@4
  00011	b8 00 00 00 00	 mov	 eax, OFFSET __ehfuncinfo$??$_Deallocate_plain@V?$allocator@U_Container_proxy@std@@@std@@@std@@YAXAAV?$allocator@U_Container_proxy@std@@@0@QAU_Container_proxy@0@@Z
  00016	e9 00 00 00 00	 jmp	 ___CxxFrameHandler3
text$x	ENDS
??$_Deallocate_plain@V?$allocator@U_Container_proxy@std@@@std@@@std@@YAXAAV?$allocator@U_Container_proxy@std@@@0@QAU_Container_proxy@0@@Z ENDP ; std::_Deallocate_plain<std::allocator<std::_Container_proxy> >
; Function compile flags: /Odtp /RTCsu
; File C:\Program Files (x86)\Microsoft Visual Studio\2019\Community\VC\Tools\MSVC\14.23.28105\include\type_traits
;	COMDAT ??$forward@AAY05$$CBD@std@@YAAAY05$$CBDAAY05$$CBD@Z
_TEXT	SEGMENT
__Arg$ = 8						; size = 4
??$forward@AAY05$$CBD@std@@YAAAY05$$CBDAAY05$$CBD@Z PROC ; std::forward<char const (&)[6]>, COMDAT

; 1420 :     remove_reference_t<_Ty>& _Arg) noexcept { // forward an lvalue as either an lvalue or an rvalue

  00000	55		 push	 ebp
  00001	8b ec		 mov	 ebp, esp

; 1421 :     return static_cast<_Ty&&>(_Arg);

  00003	8b 45 08	 mov	 eax, DWORD PTR __Arg$[ebp]

; 1422 : }

  00006	5d		 pop	 ebp
  00007	c3		 ret	 0
??$forward@AAY05$$CBD@std@@YAAAY05$$CBDAAY05$$CBD@Z ENDP ; std::forward<char const (&)[6]>
_TEXT	ENDS
; Function compile flags: /Odtp /RTCsu
; File C:\Program Files (x86)\Microsoft Visual Studio\2019\Community\VC\Tools\MSVC\14.23.28105\include\type_traits
;	COMDAT ??$forward@AAY06$$CBD@std@@YAAAY06$$CBDAAY06$$CBD@Z
_TEXT	SEGMENT
__Arg$ = 8						; size = 4
??$forward@AAY06$$CBD@std@@YAAAY06$$CBDAAY06$$CBD@Z PROC ; std::forward<char const (&)[7]>, COMDAT

; 1420 :     remove_reference_t<_Ty>& _Arg) noexcept { // forward an lvalue as either an lvalue or an rvalue

  00000	55		 push	 ebp
  00001	8b ec		 mov	 ebp, esp

; 1421 :     return static_cast<_Ty&&>(_Arg);

  00003	8b 45 08	 mov	 eax, DWORD PTR __Arg$[ebp]

; 1422 : }

  00006	5d		 pop	 ebp
  00007	c3		 ret	 0
??$forward@AAY06$$CBD@std@@YAAAY06$$CBDAAY06$$CBD@Z ENDP ; std::forward<char const (&)[7]>
_TEXT	ENDS
; Function compile flags: /Odtp /RTCsu
; File C:\Program Files (x86)\Microsoft Visual Studio\2019\Community\VC\Tools\MSVC\14.23.28105\include\type_traits
;	COMDAT ??$forward@AAY03$$CBD@std@@YAAAY03$$CBDAAY03$$CBD@Z
_TEXT	SEGMENT
__Arg$ = 8						; size = 4
??$forward@AAY03$$CBD@std@@YAAAY03$$CBDAAY03$$CBD@Z PROC ; std::forward<char const (&)[4]>, COMDAT

; 1420 :     remove_reference_t<_Ty>& _Arg) noexcept { // forward an lvalue as either an lvalue or an rvalue

  00000	55		 push	 ebp
  00001	8b ec		 mov	 ebp, esp

; 1421 :     return static_cast<_Ty&&>(_Arg);

  00003	8b 45 08	 mov	 eax, DWORD PTR __Arg$[ebp]

; 1422 : }

  00006	5d		 pop	 ebp
  00007	c3		 ret	 0
??$forward@AAY03$$CBD@std@@YAAAY03$$CBDAAY03$$CBD@Z ENDP ; std::forward<char const (&)[4]>
_TEXT	ENDS
; Function compile flags: /Odtp /RTCsu
; File C:\Program Files (x86)\Microsoft Visual Studio\2019\Community\VC\Tools\MSVC\14.23.28105\include\type_traits
;	COMDAT ??$forward@AAY04$$CBD@std@@YAAAY04$$CBDAAY04$$CBD@Z
_TEXT	SEGMENT
__Arg$ = 8						; size = 4
??$forward@AAY04$$CBD@std@@YAAAY04$$CBDAAY04$$CBD@Z PROC ; std::forward<char const (&)[5]>, COMDAT

; 1420 :     remove_reference_t<_Ty>& _Arg) noexcept { // forward an lvalue as either an lvalue or an rvalue

  00000	55		 push	 ebp
  00001	8b ec		 mov	 ebp, esp

; 1421 :     return static_cast<_Ty&&>(_Arg);

  00003	8b 45 08	 mov	 eax, DWORD PTR __Arg$[ebp]

; 1422 : }

  00006	5d		 pop	 ebp
  00007	c3		 ret	 0
??$forward@AAY04$$CBD@std@@YAAAY04$$CBDAAY04$$CBD@Z ENDP ; std::forward<char const (&)[5]>
_TEXT	ENDS
; Function compile flags: /Odtp /RTCsu
; File C:\Program Files (x86)\Microsoft Visual Studio\2019\Community\VC\Tools\MSVC\14.23.28105\include\type_traits
;	COMDAT ??$forward@W4<unnamed-enum-NONE>@@@std@@YA$$QAW4<unnamed-enum-NONE>@@AAW41@@Z
_TEXT	SEGMENT
__Arg$ = 8						; size = 4
??$forward@W4<unnamed-enum-NONE>@@@std@@YA$$QAW4<unnamed-enum-NONE>@@AAW41@@Z PROC ; std::forward<enum <unnamed-enum-NONE> >, COMDAT

; 1420 :     remove_reference_t<_Ty>& _Arg) noexcept { // forward an lvalue as either an lvalue or an rvalue

  00000	55		 push	 ebp
  00001	8b ec		 mov	 ebp, esp

; 1421 :     return static_cast<_Ty&&>(_Arg);

  00003	8b 45 08	 mov	 eax, DWORD PTR __Arg$[ebp]

; 1422 : }

  00006	5d		 pop	 ebp
  00007	c3		 ret	 0
??$forward@W4<unnamed-enum-NONE>@@@std@@YA$$QAW4<unnamed-enum-NONE>@@AAW41@@Z ENDP ; std::forward<enum <unnamed-enum-NONE> >
_TEXT	ENDS
; Function compile flags: /Odtp /RTCsu
; File C:\Program Files (x86)\Microsoft Visual Studio\2019\Community\VC\Tools\MSVC\14.23.28105\include\algorithm
;	COMDAT ??$max@H@std@@YAABHABH0@Z
_TEXT	SEGMENT
__$EHRec$ = -12						; size = 12
__Left$ = 8						; size = 4
__Right$ = 12						; size = 4
??$max@H@std@@YAABHABH0@Z PROC				; std::max<int>, COMDAT

; 4454 :     const _Ty& _Left, const _Ty& _Right) _NOEXCEPT_COND(noexcept(_Left < _Right)) { // strengthened

  00000	55		 push	 ebp
  00001	8b ec		 mov	 ebp, esp
  00003	6a ff		 push	 -1
  00005	68 00 00 00 00	 push	 __ehhandler$??$max@H@std@@YAABHABH0@Z
  0000a	64 a1 00 00 00
	00		 mov	 eax, DWORD PTR fs:0
  00010	50		 push	 eax
  00011	56		 push	 esi
  00012	a1 00 00 00 00	 mov	 eax, DWORD PTR ___security_cookie
  00017	33 c5		 xor	 eax, ebp
  00019	50		 push	 eax
  0001a	8d 45 f4	 lea	 eax, DWORD PTR __$EHRec$[ebp]
  0001d	64 a3 00 00 00
	00		 mov	 DWORD PTR fs:0, eax

; 4455 :     // return larger of _Left and _Right
; 4456 :     if (_Left < _Right) {

  00023	8b 45 08	 mov	 eax, DWORD PTR __Left$[ebp]
  00026	8b 4d 0c	 mov	 ecx, DWORD PTR __Right$[ebp]
  00029	8b 10		 mov	 edx, DWORD PTR [eax]
  0002b	3b 11		 cmp	 edx, DWORD PTR [ecx]
  0002d	7d 73		 jge	 SHORT $LN8@max
$LN4@max:

; 4457 :         _STL_ASSERT(!(_Right < _Left), "invalid comparator");

  0002f	8b 45 0c	 mov	 eax, DWORD PTR __Right$[ebp]
  00032	8b 4d 08	 mov	 ecx, DWORD PTR __Left$[ebp]
  00035	8b 10		 mov	 edx, DWORD PTR [eax]
  00037	3b 11		 cmp	 edx, DWORD PTR [ecx]
  00039	7c 02		 jl	 SHORT $LN7@max
  0003b	eb 5c		 jmp	 SHORT $LN2@max
$LN7@max:
  0003d	8b f4		 mov	 esi, esp
  0003f	68 00 00 00 00	 push	 OFFSET ??_C@_0BD@FEEMDEPI@invalid?5comparator@
  00044	68 00 00 00 00	 push	 OFFSET ??_C@_02DKCKIIND@?$CFs@
  00049	6a 00		 push	 0
  0004b	68 69 11 00 00	 push	 4457			; 00001169H
  00050	68 00 00 00 00	 push	 OFFSET ??_C@_0GK@EEDLHHLD@C?3?2Program?5Files?5?$CIx86?$CJ?2Microsof@
  00055	6a 02		 push	 2
  00057	ff 15 00 00 00
	00		 call	 DWORD PTR __imp___CrtDbgReport
  0005d	83 c4 18	 add	 esp, 24			; 00000018H
  00060	3b f4		 cmp	 esi, esp
  00062	e8 00 00 00 00	 call	 __RTC_CheckEsp
  00067	83 f8 01	 cmp	 eax, 1
  0006a	75 01		 jne	 SHORT $LN12@max
  0006c	cc		 int	 3
$LN12@max:
  0006d	8b f4		 mov	 esi, esp
  0006f	6a 00		 push	 0
  00071	68 69 11 00 00	 push	 4457			; 00001169H
  00076	68 00 00 00 00	 push	 OFFSET ??_C@_1NE@BOCHNKFM@?$AAC?$AA?3?$AA?2?$AAP?$AAr?$AAo?$AAg?$AAr?$AAa?$AAm?$AA?5?$AAF?$AAi?$AAl?$AAe@
  0007b	68 00 00 00 00	 push	 OFFSET ??_C@_1BC@ICCOKLEG@?$AAs?$AAt?$AAd?$AA?3?$AA?3?$AAm?$AAa?$AAx@
  00080	68 00 00 00 00	 push	 OFFSET ??_C@_1CK@NDNHPKPI@?$AA?$CC?$AAi?$AAn?$AAv?$AAa?$AAl?$AAi?$AAd?$AA?5?$AAc?$AAo?$AAm?$AAp?$AAa?$AAr@
  00085	ff 15 00 00 00
	00		 call	 DWORD PTR __imp___invalid_parameter
  0008b	83 c4 14	 add	 esp, 20			; 00000014H
  0008e	3b f4		 cmp	 esi, esp
  00090	e8 00 00 00 00	 call	 __RTC_CheckEsp
  00095	33 c9		 xor	 ecx, ecx
  00097	75 a4		 jne	 SHORT $LN7@max
$LN2@max:
  00099	33 d2		 xor	 edx, edx
  0009b	75 92		 jne	 SHORT $LN4@max

; 4458 :         return _Right;

  0009d	8b 45 0c	 mov	 eax, DWORD PTR __Right$[ebp]
  000a0	eb 03		 jmp	 SHORT $LN1@max
$LN8@max:

; 4459 :     }
; 4460 : 
; 4461 :     return _Left;

  000a2	8b 45 08	 mov	 eax, DWORD PTR __Left$[ebp]
$LN1@max:

; 4462 : }

  000a5	8b 4d f4	 mov	 ecx, DWORD PTR __$EHRec$[ebp]
  000a8	64 89 0d 00 00
	00 00		 mov	 DWORD PTR fs:0, ecx
  000af	59		 pop	 ecx
  000b0	5e		 pop	 esi
  000b1	83 c4 0c	 add	 esp, 12			; 0000000cH
  000b4	3b ec		 cmp	 ebp, esp
  000b6	e8 00 00 00 00	 call	 __RTC_CheckEsp
  000bb	8b e5		 mov	 esp, ebp
  000bd	5d		 pop	 ebp
  000be	c3		 ret	 0
_TEXT	ENDS
;	COMDAT text$x
text$x	SEGMENT
__ehhandler$??$max@H@std@@YAABHABH0@Z:
  00000	8b 54 24 08	 mov	 edx, DWORD PTR [esp+8]
  00004	8d 42 0c	 lea	 eax, DWORD PTR [edx+12]
  00007	8b 4a f8	 mov	 ecx, DWORD PTR [edx-8]
  0000a	33 c8		 xor	 ecx, eax
  0000c	e8 00 00 00 00	 call	 @__security_check_cookie@4
  00011	b8 00 00 00 00	 mov	 eax, OFFSET __ehfuncinfo$??$max@H@std@@YAABHABH0@Z
  00016	e9 00 00 00 00	 jmp	 ___CxxFrameHandler3
text$x	ENDS
??$max@H@std@@YAABHABH0@Z ENDP				; std::max<int>
; Function compile flags: /Odtp /RTCsu
; File C:\Program Files (x86)\Microsoft Visual Studio\2019\Community\VC\Tools\MSVC\14.23.28105\include\xmemory
;	COMDAT ??$_Deallocate@$07$0A@@std@@YAXPAXI@Z
_TEXT	SEGMENT
__$EHRec$ = -12						; size = 12
__Ptr$ = 8						; size = 4
__Bytes$ = 12						; size = 4
??$_Deallocate@$07$0A@@std@@YAXPAXI@Z PROC		; std::_Deallocate<8,0>, COMDAT

; 183  : void _Deallocate(void* _Ptr, size_t _Bytes) noexcept {

  00000	55		 push	 ebp
  00001	8b ec		 mov	 ebp, esp
  00003	6a ff		 push	 -1
  00005	68 00 00 00 00	 push	 __ehhandler$??$_Deallocate@$07$0A@@std@@YAXPAXI@Z
  0000a	64 a1 00 00 00
	00		 mov	 eax, DWORD PTR fs:0
  00010	50		 push	 eax
  00011	a1 00 00 00 00	 mov	 eax, DWORD PTR ___security_cookie
  00016	33 c5		 xor	 eax, ebp
  00018	50		 push	 eax
  00019	8d 45 f4	 lea	 eax, DWORD PTR __$EHRec$[ebp]
  0001c	64 a3 00 00 00
	00		 mov	 DWORD PTR fs:0, eax

; 184  :     // deallocate storage allocated by _Allocate when !_HAS_ALIGNED_NEW || _Align <= __STDCPP_DEFAULT_NEW_ALIGNMENT__
; 185  : #if defined(_M_IX86) || defined(_M_X64)
; 186  :     if (_Bytes >= _Big_allocation_threshold) { // boost the alignment of big allocations to help autovectorization

  00022	81 7d 0c 00 10
	00 00		 cmp	 DWORD PTR __Bytes$[ebp], 4096 ; 00001000H
  00029	72 10		 jb	 SHORT $LN2@Deallocate

; 187  :         _Adjust_manually_vector_aligned(_Ptr, _Bytes);

  0002b	8d 45 0c	 lea	 eax, DWORD PTR __Bytes$[ebp]
  0002e	50		 push	 eax
  0002f	8d 4d 08	 lea	 ecx, DWORD PTR __Ptr$[ebp]
  00032	51		 push	 ecx
  00033	e8 00 00 00 00	 call	 ?_Adjust_manually_vector_aligned@std@@YAXAAPAXAAI@Z ; std::_Adjust_manually_vector_aligned
  00038	83 c4 08	 add	 esp, 8
$LN2@Deallocate:

; 188  :     }
; 189  : #endif // defined(_M_IX86) || defined(_M_X64)
; 190  : 
; 191  :     ::operator delete(_Ptr, _Bytes);

  0003b	8b 55 0c	 mov	 edx, DWORD PTR __Bytes$[ebp]
  0003e	52		 push	 edx
  0003f	8b 45 08	 mov	 eax, DWORD PTR __Ptr$[ebp]
  00042	50		 push	 eax
  00043	e8 00 00 00 00	 call	 ??3@YAXPAXI@Z		; operator delete
  00048	83 c4 08	 add	 esp, 8

; 192  : }

  0004b	8b 4d f4	 mov	 ecx, DWORD PTR __$EHRec$[ebp]
  0004e	64 89 0d 00 00
	00 00		 mov	 DWORD PTR fs:0, ecx
  00055	59		 pop	 ecx
  00056	83 c4 0c	 add	 esp, 12			; 0000000cH
  00059	3b ec		 cmp	 ebp, esp
  0005b	e8 00 00 00 00	 call	 __RTC_CheckEsp
  00060	8b e5		 mov	 esp, ebp
  00062	5d		 pop	 ebp
  00063	c3		 ret	 0
_TEXT	ENDS
;	COMDAT text$x
text$x	SEGMENT
__ehhandler$??$_Deallocate@$07$0A@@std@@YAXPAXI@Z:
  00000	8b 54 24 08	 mov	 edx, DWORD PTR [esp+8]
  00004	8d 42 0c	 lea	 eax, DWORD PTR [edx+12]
  00007	8b 4a fc	 mov	 ecx, DWORD PTR [edx-4]
  0000a	33 c8		 xor	 ecx, eax
  0000c	e8 00 00 00 00	 call	 @__security_check_cookie@4
  00011	b8 00 00 00 00	 mov	 eax, OFFSET __ehfuncinfo$??$_Deallocate@$07$0A@@std@@YAXPAXI@Z
  00016	e9 00 00 00 00	 jmp	 ___CxxFrameHandler3
text$x	ENDS
??$_Deallocate@$07$0A@@std@@YAXPAXI@Z ENDP		; std::_Deallocate<8,0>
; Function compile flags: /Odtp /RTCsu
; File C:\Program Files (x86)\Microsoft Visual Studio\2019\Community\VC\Tools\MSVC\14.23.28105\include\xmemory
;	COMDAT ??$_Destroy_range@V?$allocator@U?$pair@IPBD@std@@@std@@@std@@YAXPAU?$pair@IPBD@0@QAU10@AAV?$allocator@U?$pair@IPBD@std@@@0@@Z
_TEXT	SEGMENT
__First$ = 8						; size = 4
__Last$ = 12						; size = 4
__Al$ = 16						; size = 4
??$_Destroy_range@V?$allocator@U?$pair@IPBD@std@@@std@@@std@@YAXPAU?$pair@IPBD@0@QAU10@AAV?$allocator@U?$pair@IPBD@std@@@0@@Z PROC ; std::_Destroy_range<std::allocator<std::pair<unsigned int,char const *> > >, COMDAT

; 1027 : void _Destroy_range(_Alloc_ptr_t<_Alloc> _First, const _Alloc_ptr_t<_Alloc> _Last, _Alloc& _Al) noexcept {

  00000	55		 push	 ebp
  00001	8b ec		 mov	 ebp, esp

; 1028 :     // note that this is an optimization for debug mode codegen; in release mode the BE removes all of this
; 1029 :     using _Ty = typename _Alloc::value_type;
; 1030 :     if
; 1031 :         _CONSTEXPR_IF(conjunction_v<is_trivially_destructible<_Ty>, _Uses_default_destroy<_Alloc, _Ty*>>) {
; 1032 :             (void) _First;
; 1033 :             (void) _Last;
; 1034 :             (void) _Al;
; 1035 :         }
; 1036 :     else {
; 1037 :         for (; _First != _Last; ++_First) {
; 1038 :             allocator_traits<_Alloc>::destroy(_Al, _Unfancy(_First));
; 1039 :         }
; 1040 :     }
; 1041 : }

  00003	5d		 pop	 ebp
  00004	c3		 ret	 0
??$_Destroy_range@V?$allocator@U?$pair@IPBD@std@@@std@@@std@@YAXPAU?$pair@IPBD@0@QAU10@AAV?$allocator@U?$pair@IPBD@std@@@0@@Z ENDP ; std::_Destroy_range<std::allocator<std::pair<unsigned int,char const *> > >
_TEXT	ENDS
; Function compile flags: /Odtp /RTCsu
; File C:\Program Files (x86)\Microsoft Visual Studio\2019\Community\VC\Tools\MSVC\14.23.28105\include\xmemory
;	COMDAT ??$_Allocate@$07U_Default_allocate_traits@std@@$0A@@std@@YAPAXI@Z
_TEXT	SEGMENT
__Bytes$ = 8						; size = 4
??$_Allocate@$07U_Default_allocate_traits@std@@$0A@@std@@YAPAXI@Z PROC ; std::_Allocate<8,std::_Default_allocate_traits,0>, COMDAT

; 167  : _DECLSPEC_ALLOCATOR void* _Allocate(const size_t _Bytes) {

  00000	55		 push	 ebp
  00001	8b ec		 mov	 ebp, esp

; 168  :     // allocate _Bytes when !_HAS_ALIGNED_NEW || _Align <= __STDCPP_DEFAULT_NEW_ALIGNMENT__
; 169  : #if defined(_M_IX86) || defined(_M_X64)
; 170  :     if (_Bytes >= _Big_allocation_threshold) { // boost the alignment of big allocations to help autovectorization

  00003	81 7d 08 00 10
	00 00		 cmp	 DWORD PTR __Bytes$[ebp], 4096 ; 00001000H
  0000a	72 0e		 jb	 SHORT $LN2@Allocate

; 171  :         return _Allocate_manually_vector_aligned<_Traits>(_Bytes);

  0000c	8b 45 08	 mov	 eax, DWORD PTR __Bytes$[ebp]
  0000f	50		 push	 eax
  00010	e8 00 00 00 00	 call	 ??$_Allocate_manually_vector_aligned@U_Default_allocate_traits@std@@@std@@YAPAXI@Z ; std::_Allocate_manually_vector_aligned<std::_Default_allocate_traits>
  00015	83 c4 04	 add	 esp, 4
  00018	eb 16		 jmp	 SHORT $LN1@Allocate
$LN2@Allocate:

; 172  :     }
; 173  : #endif // defined(_M_IX86) || defined(_M_X64)
; 174  : 
; 175  :     if (_Bytes != 0) {

  0001a	83 7d 08 00	 cmp	 DWORD PTR __Bytes$[ebp], 0
  0001e	74 0e		 je	 SHORT $LN3@Allocate

; 176  :         return _Traits::_Allocate(_Bytes);

  00020	8b 4d 08	 mov	 ecx, DWORD PTR __Bytes$[ebp]
  00023	51		 push	 ecx
  00024	e8 00 00 00 00	 call	 ?_Allocate@_Default_allocate_traits@std@@SAPAXI@Z ; std::_Default_allocate_traits::_Allocate
  00029	83 c4 04	 add	 esp, 4
  0002c	eb 02		 jmp	 SHORT $LN1@Allocate
$LN3@Allocate:

; 177  :     }
; 178  : 
; 179  :     return nullptr;

  0002e	33 c0		 xor	 eax, eax
$LN1@Allocate:

; 180  : }

  00030	3b ec		 cmp	 ebp, esp
  00032	e8 00 00 00 00	 call	 __RTC_CheckEsp
  00037	5d		 pop	 ebp
  00038	c3		 ret	 0
??$_Allocate@$07U_Default_allocate_traits@std@@$0A@@std@@YAPAXI@Z ENDP ; std::_Allocate<8,std::_Default_allocate_traits,0>
_TEXT	ENDS
; Function compile flags: /Odtp /RTCsu
; File C:\Program Files (x86)\Microsoft Visual Studio\2019\Community\VC\Tools\MSVC\14.23.28105\include\xmemory
;	COMDAT ??$_Get_size_of_n@$07@std@@YAII@Z
_TEXT	SEGMENT
__Max_possible$1 = -8					; size = 4
__Overflow_is_possible$ = -1				; size = 1
__Count$ = 8						; size = 4
??$_Get_size_of_n@$07@std@@YAII@Z PROC			; std::_Get_size_of_n<8>, COMDAT

; 24   : _NODISCARD constexpr size_t _Get_size_of_n(const size_t _Count) {

  00000	55		 push	 ebp
  00001	8b ec		 mov	 ebp, esp
  00003	83 ec 08	 sub	 esp, 8
  00006	c7 45 f8 cc cc
	cc cc		 mov	 DWORD PTR [ebp-8], -858993460 ; ccccccccH
  0000d	c7 45 fc cc cc
	cc cc		 mov	 DWORD PTR [ebp-4], -858993460 ; ccccccccH

; 25   :     constexpr bool _Overflow_is_possible = _Ty_size > 1;

  00014	c6 45 ff 01	 mov	 BYTE PTR __Overflow_is_possible$[ebp], 1

; 26   : 
; 27   :     if
; 28   :         _CONSTEXPR_IF(_Overflow_is_possible) {
; 29   :             constexpr size_t _Max_possible = static_cast<size_t>(-1) / _Ty_size;

  00018	c7 45 f8 ff ff
	ff 1f		 mov	 DWORD PTR __Max_possible$1[ebp], 536870911 ; 1fffffffH

; 30   :             if (_Count > _Max_possible) {

  0001f	81 7d 08 ff ff
	ff 1f		 cmp	 DWORD PTR __Count$[ebp], 536870911 ; 1fffffffH
  00026	76 05		 jbe	 SHORT $LN2@Get_size_o

; 31   :                 _Throw_bad_array_new_length(); // multiply overflow

  00028	e8 00 00 00 00	 call	 ?_Throw_bad_array_new_length@std@@YAXXZ ; std::_Throw_bad_array_new_length
$LN2@Get_size_o:

; 32   :             }
; 33   :         }
; 34   : 
; 35   :     return _Count * _Ty_size;

  0002d	8b 45 08	 mov	 eax, DWORD PTR __Count$[ebp]
  00030	c1 e0 03	 shl	 eax, 3
$LN3@Get_size_o:

; 36   : }

  00033	83 c4 08	 add	 esp, 8
  00036	3b ec		 cmp	 ebp, esp
  00038	e8 00 00 00 00	 call	 __RTC_CheckEsp
  0003d	8b e5		 mov	 esp, ebp
  0003f	5d		 pop	 ebp
  00040	c3		 ret	 0
??$_Get_size_of_n@$07@std@@YAII@Z ENDP			; std::_Get_size_of_n<8>
_TEXT	ENDS
; Function compile flags: /Odtp /RTCsu
; File C:\Program Files (x86)\Microsoft Visual Studio\2019\Community\VC\Tools\MSVC\14.23.28105\include\xmemory
;	COMDAT ??$_Construct_in_place@U_Container_proxy@std@@PAU_Container_base12@2@@std@@YAXAAU_Container_proxy@0@$$QAPAU_Container_base12@0@@Z
_TEXT	SEGMENT
$T1 = -4						; size = 4
__Obj$ = 8						; size = 4
_<_Args_0>$ = 12					; size = 4
??$_Construct_in_place@U_Container_proxy@std@@PAU_Container_base12@2@@std@@YAXAAU_Container_proxy@0@$$QAPAU_Container_base12@0@@Z PROC ; std::_Construct_in_place<std::_Container_proxy,std::_Container_base12 *>, COMDAT

; 198  : void _Construct_in_place(_Ty& _Obj, _Types&&... _Args) _NOEXCEPT_COND(is_nothrow_constructible_v<_Ty, _Types...>) {

  00000	55		 push	 ebp
  00001	8b ec		 mov	 ebp, esp
  00003	51		 push	 ecx
  00004	c7 45 fc cc cc
	cc cc		 mov	 DWORD PTR [ebp-4], -858993460 ; ccccccccH

; 199  :     ::new (const_cast<void*>(static_cast<const volatile void*>(_STD addressof(_Obj))))

  0000b	8b 45 08	 mov	 eax, DWORD PTR __Obj$[ebp]
  0000e	50		 push	 eax
  0000f	e8 00 00 00 00	 call	 ??$addressof@U_Container_proxy@std@@@std@@YAPAU_Container_proxy@0@AAU10@@Z ; std::addressof<std::_Container_proxy>
  00014	83 c4 04	 add	 esp, 4
  00017	50		 push	 eax
  00018	6a 08		 push	 8
  0001a	e8 00 00 00 00	 call	 ??2@YAPAXIPAX@Z		; operator new
  0001f	83 c4 08	 add	 esp, 8
  00022	89 45 fc	 mov	 DWORD PTR $T1[ebp], eax
  00025	8b 4d 0c	 mov	 ecx, DWORD PTR _<_Args_0>$[ebp]
  00028	51		 push	 ecx
  00029	e8 00 00 00 00	 call	 ??$forward@PAU_Container_base12@std@@@std@@YA$$QAPAU_Container_base12@0@AAPAU10@@Z ; std::forward<std::_Container_base12 *>
  0002e	83 c4 04	 add	 esp, 4
  00031	8b 10		 mov	 edx, DWORD PTR [eax]
  00033	52		 push	 edx
  00034	8b 4d fc	 mov	 ecx, DWORD PTR $T1[ebp]
  00037	e8 00 00 00 00	 call	 ??0_Container_proxy@std@@QAE@PAU_Container_base12@1@@Z ; std::_Container_proxy::_Container_proxy

; 200  :         _Ty(_STD forward<_Types>(_Args)...);
; 201  : }

  0003c	83 c4 04	 add	 esp, 4
  0003f	3b ec		 cmp	 ebp, esp
  00041	e8 00 00 00 00	 call	 __RTC_CheckEsp
  00046	8b e5		 mov	 esp, ebp
  00048	5d		 pop	 ebp
  00049	c3		 ret	 0
??$_Construct_in_place@U_Container_proxy@std@@PAU_Container_base12@2@@std@@YAXAAU_Container_proxy@0@$$QAPAU_Container_base12@0@@Z ENDP ; std::_Construct_in_place<std::_Container_proxy,std::_Container_base12 *>
_TEXT	ENDS
; Function compile flags: /Odtp /RTCsu
; File C:\Program Files (x86)\Microsoft Visual Studio\2019\Community\VC\Tools\MSVC\14.23.28105\include\xstddef
;	COMDAT ??$addressof@U_Container_base12@std@@@std@@YAPAU_Container_base12@0@AAU10@@Z
_TEXT	SEGMENT
__Val$ = 8						; size = 4
??$addressof@U_Container_base12@std@@@std@@YAPAU_Container_base12@0@AAU10@@Z PROC ; std::addressof<std::_Container_base12>, COMDAT

; 279  : _NODISCARD constexpr _Ty* addressof(_Ty& _Val) noexcept { // return address of _Val

  00000	55		 push	 ebp
  00001	8b ec		 mov	 ebp, esp

; 280  :     return __builtin_addressof(_Val);

  00003	8b 45 08	 mov	 eax, DWORD PTR __Val$[ebp]

; 281  : }

  00006	5d		 pop	 ebp
  00007	c3		 ret	 0
??$addressof@U_Container_base12@std@@@std@@YAPAU_Container_base12@0@AAU10@@Z ENDP ; std::addressof<std::_Container_base12>
_TEXT	ENDS
; Function compile flags: /Odtp /RTCsu
; File C:\Program Files (x86)\Microsoft Visual Studio\2019\Community\VC\Tools\MSVC\14.23.28105\include\xstddef
;	COMDAT ??$_Unfancy@U_Container_proxy@std@@@std@@YAPAU_Container_proxy@0@PAU10@@Z
_TEXT	SEGMENT
__Ptr$ = 8						; size = 4
??$_Unfancy@U_Container_proxy@std@@@std@@YAPAU_Container_proxy@0@PAU10@@Z PROC ; std::_Unfancy<std::_Container_proxy>, COMDAT

; 293  : _Ty* _Unfancy(_Ty* _Ptr) { // do nothing for plain pointers

  00000	55		 push	 ebp
  00001	8b ec		 mov	 ebp, esp

; 294  :     return _Ptr;

  00003	8b 45 08	 mov	 eax, DWORD PTR __Ptr$[ebp]

; 295  : }

  00006	5d		 pop	 ebp
  00007	c3		 ret	 0
??$_Unfancy@U_Container_proxy@std@@@std@@YAPAU_Container_proxy@0@PAU10@@Z ENDP ; std::_Unfancy<std::_Container_proxy>
_TEXT	ENDS
; Function compile flags: /Odtp /RTCsu
; File C:\Program Files (x86)\Microsoft Visual Studio\2019\Community\VC\Tools\MSVC\14.23.28105\include\vector
;	COMDAT ??$_Range_construct_or_tidy@PBU?$pair@IPBD@std@@@?$vector@U?$pair@IPBD@std@@V?$allocator@U?$pair@IPBD@std@@@2@@std@@AAEXPBU?$pair@IPBD@1@0Uforward_iterator_tag@1@@Z
_TEXT	SEGMENT
__My_data$2 = -36					; size = 4
__Guard$3 = -28						; size = 4
__Count$ = -20						; size = 4
_this$ = -16						; size = 4
__$EHRec$ = -12						; size = 12
__First$ = 8						; size = 4
__Last$ = 12						; size = 4
___formal$ = 16						; size = 1
??$_Range_construct_or_tidy@PBU?$pair@IPBD@std@@@?$vector@U?$pair@IPBD@std@@V?$allocator@U?$pair@IPBD@std@@@2@@std@@AAEXPBU?$pair@IPBD@1@0Uforward_iterator_tag@1@@Z PROC ; std::vector<std::pair<unsigned int,char const *>,std::allocator<std::pair<unsigned int,char const *> > >::_Range_construct_or_tidy<std::pair<unsigned int,char const *> const *>, COMDAT
; _this$ = ecx

; 435  :     void _Range_construct_or_tidy(_Iter _First, _Iter _Last, forward_iterator_tag) {

  00000	55		 push	 ebp
  00001	8b ec		 mov	 ebp, esp
  00003	6a ff		 push	 -1
  00005	68 00 00 00 00	 push	 __ehhandler$??$_Range_construct_or_tidy@PBU?$pair@IPBD@std@@@?$vector@U?$pair@IPBD@std@@V?$allocator@U?$pair@IPBD@std@@@2@@std@@AAEXPBU?$pair@IPBD@1@0Uforward_iterator_tag@1@@Z
  0000a	64 a1 00 00 00
	00		 mov	 eax, DWORD PTR fs:0
  00010	50		 push	 eax
  00011	83 ec 18	 sub	 esp, 24			; 00000018H
  00014	b8 cc cc cc cc	 mov	 eax, -858993460		; ccccccccH
  00019	89 45 dc	 mov	 DWORD PTR [ebp-36], eax
  0001c	89 45 e0	 mov	 DWORD PTR [ebp-32], eax
  0001f	89 45 e4	 mov	 DWORD PTR [ebp-28], eax
  00022	89 45 e8	 mov	 DWORD PTR [ebp-24], eax
  00025	89 45 ec	 mov	 DWORD PTR [ebp-20], eax
  00028	89 45 f0	 mov	 DWORD PTR [ebp-16], eax
  0002b	a1 00 00 00 00	 mov	 eax, DWORD PTR ___security_cookie
  00030	33 c5		 xor	 eax, ebp
  00032	50		 push	 eax
  00033	8d 45 f4	 lea	 eax, DWORD PTR __$EHRec$[ebp]
  00036	64 a3 00 00 00
	00		 mov	 DWORD PTR fs:0, eax
  0003c	89 4d f0	 mov	 DWORD PTR _this$[ebp], ecx

; 436  :         // initialize with forward range [_First, _Last)
; 437  :         const auto _Count = _Convert_size<size_type>(static_cast<size_t>(_STD distance(_First, _Last)));

  0003f	8b 45 0c	 mov	 eax, DWORD PTR __Last$[ebp]
  00042	50		 push	 eax
  00043	8b 4d 08	 mov	 ecx, DWORD PTR __First$[ebp]
  00046	51		 push	 ecx
  00047	e8 00 00 00 00	 call	 ??$distance@PBU?$pair@IPBD@std@@@std@@YAHPBU?$pair@IPBD@0@0@Z ; std::distance<std::pair<unsigned int,char const *> const *>
  0004c	83 c4 08	 add	 esp, 8
  0004f	50		 push	 eax
  00050	e8 00 00 00 00	 call	 ??$_Convert_size@I@std@@YAII@Z ; std::_Convert_size<unsigned int>
  00055	83 c4 04	 add	 esp, 4
  00058	89 45 ec	 mov	 DWORD PTR __Count$[ebp], eax

; 438  :         if (_Count != 0) {

  0005b	83 7d ec 00	 cmp	 DWORD PTR __Count$[ebp], 0
  0005f	74 52		 je	 SHORT $LN1@Range_cons

; 439  :             _Buy_nonzero(_Count);

  00061	8b 55 ec	 mov	 edx, DWORD PTR __Count$[ebp]
  00064	52		 push	 edx
  00065	8b 4d f0	 mov	 ecx, DWORD PTR _this$[ebp]
  00068	e8 00 00 00 00	 call	 ?_Buy_nonzero@?$vector@U?$pair@IPBD@std@@V?$allocator@U?$pair@IPBD@std@@@2@@std@@AAEXI@Z ; std::vector<std::pair<unsigned int,char const *>,std::allocator<std::pair<unsigned int,char const *> > >::_Buy_nonzero

; 440  :             _Tidy_guard<vector> _Guard{this};

  0006d	8b 45 f0	 mov	 eax, DWORD PTR _this$[ebp]
  00070	89 45 e4	 mov	 DWORD PTR __Guard$3[ebp], eax
  00073	c7 45 fc 00 00
	00 00		 mov	 DWORD PTR __$EHRec$[ebp+8], 0

; 441  :             auto& _My_data   = _Mypair._Myval2;

  0007a	8b 4d f0	 mov	 ecx, DWORD PTR _this$[ebp]
  0007d	89 4d dc	 mov	 DWORD PTR __My_data$2[ebp], ecx

; 442  :             _My_data._Mylast = _Ucopy(_First, _Last, _My_data._Myfirst);

  00080	8b 55 dc	 mov	 edx, DWORD PTR __My_data$2[ebp]
  00083	8b 42 04	 mov	 eax, DWORD PTR [edx+4]
  00086	50		 push	 eax
  00087	8b 4d 0c	 mov	 ecx, DWORD PTR __Last$[ebp]
  0008a	51		 push	 ecx
  0008b	8b 55 08	 mov	 edx, DWORD PTR __First$[ebp]
  0008e	52		 push	 edx
  0008f	8b 4d f0	 mov	 ecx, DWORD PTR _this$[ebp]
  00092	e8 00 00 00 00	 call	 ??$_Ucopy@PBU?$pair@IPBD@std@@@?$vector@U?$pair@IPBD@std@@V?$allocator@U?$pair@IPBD@std@@@2@@std@@AAEPAU?$pair@IPBD@1@PBU21@0PAU21@@Z ; std::vector<std::pair<unsigned int,char const *>,std::allocator<std::pair<unsigned int,char const *> > >::_Ucopy<std::pair<unsigned int,char const *> const *>
  00097	8b 4d dc	 mov	 ecx, DWORD PTR __My_data$2[ebp]
  0009a	89 41 08	 mov	 DWORD PTR [ecx+8], eax

; 443  :             _Guard._Target   = nullptr;

  0009d	c7 45 e4 00 00
	00 00		 mov	 DWORD PTR __Guard$3[ebp], 0

; 444  :         }

  000a4	c7 45 fc ff ff
	ff ff		 mov	 DWORD PTR __$EHRec$[ebp+8], -1
  000ab	8d 4d e4	 lea	 ecx, DWORD PTR __Guard$3[ebp]
  000ae	e8 00 00 00 00	 call	 ??1?$_Tidy_guard@V?$vector@U?$pair@IPBD@std@@V?$allocator@U?$pair@IPBD@std@@@2@@std@@@std@@QAE@XZ ; std::_Tidy_guard<std::vector<std::pair<unsigned int,char const *>,std::allocator<std::pair<unsigned int,char const *> > > >::~_Tidy_guard<std::vector<std::pair<unsigned int,char const *>,std::allocator<std::pair<unsigned int,char const *> > > >
$LN1@Range_cons:

; 445  :     }

  000b3	52		 push	 edx
  000b4	8b cd		 mov	 ecx, ebp
  000b6	50		 push	 eax
  000b7	8d 15 00 00 00
	00		 lea	 edx, DWORD PTR $LN8@Range_cons
  000bd	e8 00 00 00 00	 call	 @_RTC_CheckStackVars@8
  000c2	58		 pop	 eax
  000c3	5a		 pop	 edx
  000c4	8b 4d f4	 mov	 ecx, DWORD PTR __$EHRec$[ebp]
  000c7	64 89 0d 00 00
	00 00		 mov	 DWORD PTR fs:0, ecx
  000ce	59		 pop	 ecx
  000cf	83 c4 24	 add	 esp, 36			; 00000024H
  000d2	3b ec		 cmp	 ebp, esp
  000d4	e8 00 00 00 00	 call	 __RTC_CheckEsp
  000d9	8b e5		 mov	 esp, ebp
  000db	5d		 pop	 ebp
  000dc	c2 0c 00	 ret	 12			; 0000000cH
  000df	90		 npad	 1
$LN8@Range_cons:
  000e0	01 00 00 00	 DD	 1
  000e4	00 00 00 00	 DD	 $LN7@Range_cons
$LN7@Range_cons:
  000e8	e4 ff ff ff	 DD	 -28			; ffffffe4H
  000ec	04 00 00 00	 DD	 4
  000f0	00 00 00 00	 DD	 $LN5@Range_cons
$LN5@Range_cons:
  000f4	5f		 DB	 95			; 0000005fH
  000f5	47		 DB	 71			; 00000047H
  000f6	75		 DB	 117			; 00000075H
  000f7	61		 DB	 97			; 00000061H
  000f8	72		 DB	 114			; 00000072H
  000f9	64		 DB	 100			; 00000064H
  000fa	00		 DB	 0
_TEXT	ENDS
;	COMDAT text$x
text$x	SEGMENT
__unwindfunclet$??$_Range_construct_or_tidy@PBU?$pair@IPBD@std@@@?$vector@U?$pair@IPBD@std@@V?$allocator@U?$pair@IPBD@std@@@2@@std@@AAEXPBU?$pair@IPBD@1@0Uforward_iterator_tag@1@@Z$0:
  00000	8d 4d e4	 lea	 ecx, DWORD PTR __Guard$3[ebp]
  00003	e9 00 00 00 00	 jmp	 ??1?$_Tidy_guard@V?$vector@U?$pair@IPBD@std@@V?$allocator@U?$pair@IPBD@std@@@2@@std@@@std@@QAE@XZ ; std::_Tidy_guard<std::vector<std::pair<unsigned int,char const *>,std::allocator<std::pair<unsigned int,char const *> > > >::~_Tidy_guard<std::vector<std::pair<unsigned int,char const *>,std::allocator<std::pair<unsigned int,char const *> > > >
__ehhandler$??$_Range_construct_or_tidy@PBU?$pair@IPBD@std@@@?$vector@U?$pair@IPBD@std@@V?$allocator@U?$pair@IPBD@std@@@2@@std@@AAEXPBU?$pair@IPBD@1@0Uforward_iterator_tag@1@@Z:
  00008	8b 54 24 08	 mov	 edx, DWORD PTR [esp+8]
  0000c	8d 42 0c	 lea	 eax, DWORD PTR [edx+12]
  0000f	8b 4a e4	 mov	 ecx, DWORD PTR [edx-28]
  00012	33 c8		 xor	 ecx, eax
  00014	e8 00 00 00 00	 call	 @__security_check_cookie@4
  00019	b8 00 00 00 00	 mov	 eax, OFFSET __ehfuncinfo$??$_Range_construct_or_tidy@PBU?$pair@IPBD@std@@@?$vector@U?$pair@IPBD@std@@V?$allocator@U?$pair@IPBD@std@@@2@@std@@AAEXPBU?$pair@IPBD@1@0Uforward_iterator_tag@1@@Z
  0001e	e9 00 00 00 00	 jmp	 ___CxxFrameHandler3
text$x	ENDS
??$_Range_construct_or_tidy@PBU?$pair@IPBD@std@@@?$vector@U?$pair@IPBD@std@@V?$allocator@U?$pair@IPBD@std@@@2@@std@@AAEXPBU?$pair@IPBD@1@0Uforward_iterator_tag@1@@Z ENDP ; std::vector<std::pair<unsigned int,char const *>,std::allocator<std::pair<unsigned int,char const *> > >::_Range_construct_or_tidy<std::pair<unsigned int,char const *> const *>
; Function compile flags: /Odtp /RTCsu
; File C:\Program Files (x86)\Microsoft Visual Studio\2019\Community\VC\Tools\MSVC\14.23.28105\include\xmemory
;	COMDAT ??1?$_Container_proxy_ptr12@V?$allocator@U_Container_proxy@std@@@std@@@std@@QAE@XZ
_TEXT	SEGMENT
_this$ = -4						; size = 4
??1?$_Container_proxy_ptr12@V?$allocator@U_Container_proxy@std@@@std@@@std@@QAE@XZ PROC ; std::_Container_proxy_ptr12<std::allocator<std::_Container_proxy> >::~_Container_proxy_ptr12<std::allocator<std::_Container_proxy> >, COMDAT
; _this$ = ecx

; 1382 :     ~_Container_proxy_ptr12() {

  00000	55		 push	 ebp
  00001	8b ec		 mov	 ebp, esp
  00003	51		 push	 ecx
  00004	c7 45 fc cc cc
	cc cc		 mov	 DWORD PTR [ebp-4], -858993460 ; ccccccccH
  0000b	89 4d fc	 mov	 DWORD PTR _this$[ebp], ecx

; 1383 :         if (_Ptr) {

  0000e	8b 45 fc	 mov	 eax, DWORD PTR _this$[ebp]
  00011	83 38 00	 cmp	 DWORD PTR [eax], 0
  00014	74 15		 je	 SHORT $LN1@Container_

; 1384 :             _Delete_plain_internal(_Al, _Ptr);

  00016	8b 4d fc	 mov	 ecx, DWORD PTR _this$[ebp]
  00019	8b 11		 mov	 edx, DWORD PTR [ecx]
  0001b	52		 push	 edx
  0001c	8b 45 fc	 mov	 eax, DWORD PTR _this$[ebp]
  0001f	8b 48 04	 mov	 ecx, DWORD PTR [eax+4]
  00022	51		 push	 ecx
  00023	e8 00 00 00 00	 call	 ??$_Delete_plain_internal@V?$allocator@U_Container_proxy@std@@@std@@@std@@YAXAAV?$allocator@U_Container_proxy@std@@@0@QAU_Container_proxy@0@@Z ; std::_Delete_plain_internal<std::allocator<std::_Container_proxy> >
  00028	83 c4 08	 add	 esp, 8
$LN1@Container_:

; 1385 :         }
; 1386 :     }

  0002b	83 c4 04	 add	 esp, 4
  0002e	3b ec		 cmp	 ebp, esp
  00030	e8 00 00 00 00	 call	 __RTC_CheckEsp
  00035	8b e5		 mov	 esp, ebp
  00037	5d		 pop	 ebp
  00038	c3		 ret	 0
??1?$_Container_proxy_ptr12@V?$allocator@U_Container_proxy@std@@@std@@@std@@QAE@XZ ENDP ; std::_Container_proxy_ptr12<std::allocator<std::_Container_proxy> >::~_Container_proxy_ptr12<std::allocator<std::_Container_proxy> >
_TEXT	ENDS
; Function compile flags: /Odtp /RTCsu
; File C:\Program Files (x86)\Microsoft Visual Studio\2019\Community\VC\Tools\MSVC\14.23.28105\include\xmemory
;	COMDAT ??0?$_Container_proxy_ptr12@V?$allocator@U_Container_proxy@std@@@std@@@std@@QAE@AAV?$allocator@U_Container_proxy@std@@@1@AAU_Container_base12@1@@Z
_TEXT	SEGMENT
$T1 = -8						; size = 4
_this$ = -4						; size = 4
__Al_$ = 8						; size = 4
__Mycont$ = 12						; size = 4
??0?$_Container_proxy_ptr12@V?$allocator@U_Container_proxy@std@@@std@@@std@@QAE@AAV?$allocator@U_Container_proxy@std@@@1@AAU_Container_base12@1@@Z PROC ; std::_Container_proxy_ptr12<std::allocator<std::_Container_proxy> >::_Container_proxy_ptr12<std::allocator<std::_Container_proxy> >, COMDAT
; _this$ = ecx

; 1368 :     _Container_proxy_ptr12(_Alloc& _Al_, _Container_base12& _Mycont)

  00000	55		 push	 ebp
  00001	8b ec		 mov	 ebp, esp
  00003	83 ec 08	 sub	 esp, 8
  00006	c7 45 f8 cc cc
	cc cc		 mov	 DWORD PTR [ebp-8], -858993460 ; ccccccccH
  0000d	c7 45 fc cc cc
	cc cc		 mov	 DWORD PTR [ebp-4], -858993460 ; ccccccccH
  00014	89 4d fc	 mov	 DWORD PTR _this$[ebp], ecx

; 1369 :         : _Al(_Al_) { // create a new _Container_proxy pointing at _Mycont

  00017	8b 45 fc	 mov	 eax, DWORD PTR _this$[ebp]
  0001a	8b 4d 08	 mov	 ecx, DWORD PTR __Al_$[ebp]
  0001d	89 48 04	 mov	 DWORD PTR [eax+4], ecx

; 1370 :         _Ptr = _Unfancy(_Al_.allocate(1));

  00020	6a 01		 push	 1
  00022	8b 4d 08	 mov	 ecx, DWORD PTR __Al_$[ebp]
  00025	e8 00 00 00 00	 call	 ?allocate@?$allocator@U_Container_proxy@std@@@std@@QAEPAU_Container_proxy@2@I@Z ; std::allocator<std::_Container_proxy>::allocate
  0002a	50		 push	 eax
  0002b	e8 00 00 00 00	 call	 ??$_Unfancy@U_Container_proxy@std@@@std@@YAPAU_Container_proxy@0@PAU10@@Z ; std::_Unfancy<std::_Container_proxy>
  00030	83 c4 04	 add	 esp, 4
  00033	8b 55 fc	 mov	 edx, DWORD PTR _this$[ebp]
  00036	89 02		 mov	 DWORD PTR [edx], eax

; 1371 :         _Construct_in_place(*_Ptr, _STD addressof(_Mycont));

  00038	8b 45 0c	 mov	 eax, DWORD PTR __Mycont$[ebp]
  0003b	50		 push	 eax
  0003c	e8 00 00 00 00	 call	 ??$addressof@U_Container_base12@std@@@std@@YAPAU_Container_base12@0@AAU10@@Z ; std::addressof<std::_Container_base12>
  00041	83 c4 04	 add	 esp, 4
  00044	89 45 f8	 mov	 DWORD PTR $T1[ebp], eax
  00047	8d 4d f8	 lea	 ecx, DWORD PTR $T1[ebp]
  0004a	51		 push	 ecx
  0004b	8b 55 fc	 mov	 edx, DWORD PTR _this$[ebp]
  0004e	8b 02		 mov	 eax, DWORD PTR [edx]
  00050	50		 push	 eax
  00051	e8 00 00 00 00	 call	 ??$_Construct_in_place@U_Container_proxy@std@@PAU_Container_base12@2@@std@@YAXAAU_Container_proxy@0@$$QAPAU_Container_base12@0@@Z ; std::_Construct_in_place<std::_Container_proxy,std::_Container_base12 *>
  00056	83 c4 08	 add	 esp, 8

; 1372 :         _Mycont._Myproxy = _Ptr;

  00059	8b 4d 0c	 mov	 ecx, DWORD PTR __Mycont$[ebp]
  0005c	8b 55 fc	 mov	 edx, DWORD PTR _this$[ebp]
  0005f	8b 02		 mov	 eax, DWORD PTR [edx]
  00061	89 01		 mov	 DWORD PTR [ecx], eax

; 1373 :     }

  00063	8b 45 fc	 mov	 eax, DWORD PTR _this$[ebp]
  00066	83 c4 08	 add	 esp, 8
  00069	3b ec		 cmp	 ebp, esp
  0006b	e8 00 00 00 00	 call	 __RTC_CheckEsp
  00070	8b e5		 mov	 esp, ebp
  00072	5d		 pop	 ebp
  00073	c2 08 00	 ret	 8
??0?$_Container_proxy_ptr12@V?$allocator@U_Container_proxy@std@@@std@@@std@@QAE@AAV?$allocator@U_Container_proxy@std@@@1@AAU_Container_base12@1@@Z ENDP ; std::_Container_proxy_ptr12<std::allocator<std::_Container_proxy> >::_Container_proxy_ptr12<std::allocator<std::_Container_proxy> >
_TEXT	ENDS
; Function compile flags: /Odtp /RTCsu
; File C:\Program Files (x86)\Microsoft Visual Studio\2019\Community\VC\Tools\MSVC\14.23.28105\include\xmemory
;	COMDAT ??$?0ABV?$allocator@U?$pair@IPBD@std@@@std@@$$V@?$_Compressed_pair@V?$allocator@U?$pair@IPBD@std@@@std@@V?$_Vector_val@U?$_Simple_types@U?$pair@IPBD@std@@@std@@@2@$00@std@@QAE@U_One_then_variadic_args_t@1@ABV?$allocator@U?$pair@IPBD@std@@@1@@Z
_TEXT	SEGMENT
_this$ = -4						; size = 4
___formal$ = 8						; size = 1
__Val1$ = 12						; size = 4
??$?0ABV?$allocator@U?$pair@IPBD@std@@@std@@$$V@?$_Compressed_pair@V?$allocator@U?$pair@IPBD@std@@@std@@V?$_Vector_val@U?$_Simple_types@U?$pair@IPBD@std@@@std@@@2@$00@std@@QAE@U_One_then_variadic_args_t@1@ABV?$allocator@U?$pair@IPBD@std@@@1@@Z PROC ; std::_Compressed_pair<std::allocator<std::pair<unsigned int,char const *> >,std::_Vector_val<std::_Simple_types<std::pair<unsigned int,char const *> > >,1>::_Compressed_pair<std::allocator<std::pair<unsigned int,char const *> >,std::_Vector_val<std::_Simple_types<std::pair<unsigned int,char const *> > >,1><std::allocator<std::pair<unsigned int,char const *> > const &>, COMDAT
; _this$ = ecx

; 1418 :         : _Ty1(_STD forward<_Other1>(_Val1)), _Myval2(_STD forward<_Other2>(_Val2)...) {}

  00000	55		 push	 ebp
  00001	8b ec		 mov	 ebp, esp
  00003	51		 push	 ecx
  00004	c7 45 fc cc cc
	cc cc		 mov	 DWORD PTR [ebp-4], -858993460 ; ccccccccH
  0000b	89 4d fc	 mov	 DWORD PTR _this$[ebp], ecx
  0000e	8b 45 0c	 mov	 eax, DWORD PTR __Val1$[ebp]
  00011	50		 push	 eax
  00012	e8 00 00 00 00	 call	 ??$forward@ABV?$allocator@U?$pair@IPBD@std@@@std@@@std@@YAABV?$allocator@U?$pair@IPBD@std@@@0@ABV10@@Z ; std::forward<std::allocator<std::pair<unsigned int,char const *> > const &>
  00017	83 c4 04	 add	 esp, 4
  0001a	8b 4d fc	 mov	 ecx, DWORD PTR _this$[ebp]
  0001d	e8 00 00 00 00	 call	 ??0?$_Vector_val@U?$_Simple_types@U?$pair@IPBD@std@@@std@@@std@@QAE@XZ ; std::_Vector_val<std::_Simple_types<std::pair<unsigned int,char const *> > >::_Vector_val<std::_Simple_types<std::pair<unsigned int,char const *> > >
  00022	8b 45 fc	 mov	 eax, DWORD PTR _this$[ebp]
  00025	83 c4 04	 add	 esp, 4
  00028	3b ec		 cmp	 ebp, esp
  0002a	e8 00 00 00 00	 call	 __RTC_CheckEsp
  0002f	8b e5		 mov	 esp, ebp
  00031	5d		 pop	 ebp
  00032	c2 08 00	 ret	 8
??$?0ABV?$allocator@U?$pair@IPBD@std@@@std@@$$V@?$_Compressed_pair@V?$allocator@U?$pair@IPBD@std@@@std@@V?$_Vector_val@U?$_Simple_types@U?$pair@IPBD@std@@@std@@@2@$00@std@@QAE@U_One_then_variadic_args_t@1@ABV?$allocator@U?$pair@IPBD@std@@@1@@Z ENDP ; std::_Compressed_pair<std::allocator<std::pair<unsigned int,char const *> >,std::_Vector_val<std::_Simple_types<std::pair<unsigned int,char const *> > >,1>::_Compressed_pair<std::allocator<std::pair<unsigned int,char const *> >,std::_Vector_val<std::_Simple_types<std::pair<unsigned int,char const *> > >,1><std::allocator<std::pair<unsigned int,char const *> > const &>
_TEXT	ENDS
; Function compile flags: /Odtp /RTCsu
; File C:\Program Files (x86)\Microsoft Visual Studio\2019\Community\VC\Tools\MSVC\14.23.28105\include\xmemory
;	COMDAT ??$_Delete_plain_internal@V?$allocator@U_Container_proxy@std@@@std@@@std@@YAXAAV?$allocator@U_Container_proxy@std@@@0@QAU_Container_proxy@0@@Z
_TEXT	SEGMENT
__Al$ = 8						; size = 4
__Ptr$ = 12						; size = 4
??$_Delete_plain_internal@V?$allocator@U_Container_proxy@std@@@std@@@std@@YAXAAV?$allocator@U_Container_proxy@std@@@0@QAU_Container_proxy@0@@Z PROC ; std::_Delete_plain_internal<std::allocator<std::_Container_proxy> >, COMDAT

; 1109 : void _Delete_plain_internal(_Alloc& _Al, typename _Alloc::value_type* const _Ptr) noexcept {

  00000	55		 push	 ebp
  00001	8b ec		 mov	 ebp, esp

; 1110 :     // destroy *_Ptr in place, then deallocate _Ptr using _Al; used for internal container types the user didn't name
; 1111 :     using _Ty = typename _Alloc::value_type;
; 1112 :     _Ptr->~_Ty();
; 1113 :     _Deallocate_plain(_Al, _Ptr);

  00003	8b 45 0c	 mov	 eax, DWORD PTR __Ptr$[ebp]
  00006	50		 push	 eax
  00007	8b 4d 08	 mov	 ecx, DWORD PTR __Al$[ebp]
  0000a	51		 push	 ecx
  0000b	e8 00 00 00 00	 call	 ??$_Deallocate_plain@V?$allocator@U_Container_proxy@std@@@std@@@std@@YAXAAV?$allocator@U_Container_proxy@std@@@0@QAU_Container_proxy@0@@Z ; std::_Deallocate_plain<std::allocator<std::_Container_proxy> >
  00010	83 c4 08	 add	 esp, 8

; 1114 : }

  00013	3b ec		 cmp	 ebp, esp
  00015	e8 00 00 00 00	 call	 __RTC_CheckEsp
  0001a	5d		 pop	 ebp
  0001b	c3		 ret	 0
??$_Delete_plain_internal@V?$allocator@U_Container_proxy@std@@@std@@@std@@YAXAAV?$allocator@U_Container_proxy@std@@@0@QAU_Container_proxy@0@@Z ENDP ; std::_Delete_plain_internal<std::allocator<std::_Container_proxy> >
_TEXT	ENDS
; Function compile flags: /Odtp /RTCsu
; File C:\Program Files (x86)\Microsoft Visual Studio\2019\Community\VC\Tools\MSVC\14.23.28105\include\utility
;	COMDAT ??$exchange@PAU_Container_proxy@std@@$$T@std@@YAPAU_Container_proxy@0@AAPAU10@$$QA$$T@Z
_TEXT	SEGMENT
__Old_val$ = -4						; size = 4
__Val$ = 8						; size = 4
__New_val$ = 12						; size = 4
??$exchange@PAU_Container_proxy@std@@$$T@std@@YAPAU_Container_proxy@0@AAPAU10@$$QA$$T@Z PROC ; std::exchange<std::_Container_proxy *,std::nullptr_t>, COMDAT

; 526  : _Ty exchange(_Ty& _Val, _Other&& _New_val) { // assign _New_val to _Val, return previous _Val

  00000	55		 push	 ebp
  00001	8b ec		 mov	 ebp, esp
  00003	51		 push	 ecx
  00004	c7 45 fc cc cc
	cc cc		 mov	 DWORD PTR [ebp-4], -858993460 ; ccccccccH

; 527  :     _Ty _Old_val = static_cast<_Ty&&>(_Val);

  0000b	8b 45 08	 mov	 eax, DWORD PTR __Val$[ebp]
  0000e	8b 08		 mov	 ecx, DWORD PTR [eax]
  00010	89 4d fc	 mov	 DWORD PTR __Old_val$[ebp], ecx

; 528  :     _Val         = static_cast<_Other&&>(_New_val);

  00013	8b 55 08	 mov	 edx, DWORD PTR __Val$[ebp]
  00016	8b 45 0c	 mov	 eax, DWORD PTR __New_val$[ebp]
  00019	8b 08		 mov	 ecx, DWORD PTR [eax]
  0001b	89 0a		 mov	 DWORD PTR [edx], ecx

; 529  :     return _Old_val;

  0001d	8b 45 fc	 mov	 eax, DWORD PTR __Old_val$[ebp]

; 530  : }

  00020	8b e5		 mov	 esp, ebp
  00022	5d		 pop	 ebp
  00023	c3		 ret	 0
??$exchange@PAU_Container_proxy@std@@$$T@std@@YAPAU_Container_proxy@0@AAPAU10@$$QA$$T@Z ENDP ; std::exchange<std::_Container_proxy *,std::nullptr_t>
_TEXT	ENDS
; Function compile flags: /Odtp /RTCsu
; File C:\Program Files (x86)\Microsoft Visual Studio\2019\Community\VC\Tools\MSVC\14.23.28105\include\xmemory
;	COMDAT ??$?0U?$pair@IPBD@std@@@?$allocator@U_Container_proxy@std@@@std@@QAE@ABV?$allocator@U?$pair@IPBD@std@@@1@@Z
_TEXT	SEGMENT
_this$ = -4						; size = 4
___formal$ = 8						; size = 4
??$?0U?$pair@IPBD@std@@@?$allocator@U_Container_proxy@std@@@std@@QAE@ABV?$allocator@U?$pair@IPBD@std@@@1@@Z PROC ; std::allocator<std::_Container_proxy>::allocator<std::_Container_proxy><std::pair<unsigned int,char const *> >, COMDAT
; _this$ = ecx

; 863  :     constexpr allocator(const allocator<_Other>&) noexcept {}

  00000	55		 push	 ebp
  00001	8b ec		 mov	 ebp, esp
  00003	51		 push	 ecx
  00004	c7 45 fc cc cc
	cc cc		 mov	 DWORD PTR [ebp-4], -858993460 ; ccccccccH
  0000b	89 4d fc	 mov	 DWORD PTR _this$[ebp], ecx
  0000e	8b 45 fc	 mov	 eax, DWORD PTR _this$[ebp]
  00011	8b e5		 mov	 esp, ebp
  00013	5d		 pop	 ebp
  00014	c2 04 00	 ret	 4
??$?0U?$pair@IPBD@std@@@?$allocator@U_Container_proxy@std@@@std@@QAE@ABV?$allocator@U?$pair@IPBD@std@@@1@@Z ENDP ; std::allocator<std::_Container_proxy>::allocator<std::_Container_proxy><std::pair<unsigned int,char const *> >
_TEXT	ENDS
; Function compile flags: /Odtp /RTCsu
; File C:\Program Files (x86)\Microsoft Visual Studio\2019\Community\VC\Tools\MSVC\14.23.28105\include\xmemory
;	COMDAT ?allocate@?$allocator@U_Container_proxy@std@@@std@@QAEPAU_Container_proxy@2@I@Z
_TEXT	SEGMENT
_this$ = -4						; size = 4
__Count$ = 8						; size = 4
?allocate@?$allocator@U_Container_proxy@std@@@std@@QAEPAU_Container_proxy@2@I@Z PROC ; std::allocator<std::_Container_proxy>::allocate, COMDAT
; _this$ = ecx

; 870  :     _NODISCARD _DECLSPEC_ALLOCATOR _Ty* allocate(_CRT_GUARDOVERFLOW const size_t _Count) {

  00000	55		 push	 ebp
  00001	8b ec		 mov	 ebp, esp
  00003	51		 push	 ecx
  00004	c7 45 fc cc cc
	cc cc		 mov	 DWORD PTR [ebp-4], -858993460 ; ccccccccH
  0000b	89 4d fc	 mov	 DWORD PTR _this$[ebp], ecx

; 871  :         return static_cast<_Ty*>(_Allocate<_New_alignof<_Ty>>(_Get_size_of_n<sizeof(_Ty)>(_Count)));

  0000e	8b 45 08	 mov	 eax, DWORD PTR __Count$[ebp]
  00011	50		 push	 eax
  00012	e8 00 00 00 00	 call	 ??$_Get_size_of_n@$07@std@@YAII@Z ; std::_Get_size_of_n<8>
  00017	83 c4 04	 add	 esp, 4
  0001a	50		 push	 eax
  0001b	e8 00 00 00 00	 call	 ??$_Allocate@$07U_Default_allocate_traits@std@@$0A@@std@@YAPAXI@Z ; std::_Allocate<8,std::_Default_allocate_traits,0>
  00020	83 c4 04	 add	 esp, 4

; 872  :     }

  00023	83 c4 04	 add	 esp, 4
  00026	3b ec		 cmp	 ebp, esp
  00028	e8 00 00 00 00	 call	 __RTC_CheckEsp
  0002d	8b e5		 mov	 esp, ebp
  0002f	5d		 pop	 ebp
  00030	c2 04 00	 ret	 4
?allocate@?$allocator@U_Container_proxy@std@@@std@@QAEPAU_Container_proxy@2@I@Z ENDP ; std::allocator<std::_Container_proxy>::allocate
_TEXT	ENDS
; Function compile flags: /Odtp /RTCsu
;	COMDAT ??__Fsimd_str_list@?1??get_simd_str@@YAPBDI@Z@YAXXZ
text$yd	SEGMENT
??__Fsimd_str_list@?1??get_simd_str@@YAPBDI@Z@YAXXZ PROC ; `get_simd_str'::`2'::`dynamic atexit destructor for 'simd_str_list'', COMDAT
  00000	55		 push	 ebp
  00001	8b ec		 mov	 ebp, esp
  00003	b9 00 00 00 00	 mov	 ecx, OFFSET ?simd_str_list@?1??get_simd_str@@YAPBDI@Z@4V?$vector@U?$pair@IPBD@std@@V?$allocator@U?$pair@IPBD@std@@@2@@std@@A
  00008	e8 00 00 00 00	 call	 ??1?$vector@U?$pair@IPBD@std@@V?$allocator@U?$pair@IPBD@std@@@2@@std@@QAE@XZ ; std::vector<std::pair<unsigned int,char const *>,std::allocator<std::pair<unsigned int,char const *> > >::~vector<std::pair<unsigned int,char const *>,std::allocator<std::pair<unsigned int,char const *> > >
  0000d	3b ec		 cmp	 ebp, esp
  0000f	e8 00 00 00 00	 call	 __RTC_CheckEsp
  00014	5d		 pop	 ebp
  00015	c3		 ret	 0
??__Fsimd_str_list@?1??get_simd_str@@YAPBDI@Z@YAXXZ ENDP ; `get_simd_str'::`2'::`dynamic atexit destructor for 'simd_str_list''
text$yd	ENDS
; Function compile flags: /Odtp /RTCsu
; File C:\Program Files (x86)\Microsoft Visual Studio\2019\Community\VC\Tools\MSVC\14.23.28105\include\utility
;	COMDAT ??$?0W4<unnamed-enum-NONE>@@AAY05$$CBD$0A@@?$pair@IPBD@std@@QAE@$$QAW4<unnamed-enum-NONE>@@AAY05$$CBD@Z
_TEXT	SEGMENT
_this$ = -4						; size = 4
__Val1$ = 8						; size = 4
__Val2$ = 12						; size = 4
??$?0W4<unnamed-enum-NONE>@@AAY05$$CBD$0A@@?$pair@IPBD@std@@QAE@$$QAW4<unnamed-enum-NONE>@@AAY05$$CBD@Z PROC ; std::pair<unsigned int,char const *>::pair<unsigned int,char const *><enum <unnamed-enum-NONE>,char const (&)[6],0>, COMDAT
; _this$ = ecx

; 127  :         : first(_STD forward<_Other1>(_Val1)), second(_STD forward<_Other2>(_Val2)) {}

  00000	55		 push	 ebp
  00001	8b ec		 mov	 ebp, esp
  00003	51		 push	 ecx
  00004	c7 45 fc cc cc
	cc cc		 mov	 DWORD PTR [ebp-4], -858993460 ; ccccccccH
  0000b	89 4d fc	 mov	 DWORD PTR _this$[ebp], ecx
  0000e	8b 45 08	 mov	 eax, DWORD PTR __Val1$[ebp]
  00011	50		 push	 eax
  00012	e8 00 00 00 00	 call	 ??$forward@W4<unnamed-enum-NONE>@@@std@@YA$$QAW4<unnamed-enum-NONE>@@AAW41@@Z ; std::forward<enum <unnamed-enum-NONE> >
  00017	83 c4 04	 add	 esp, 4
  0001a	8b 4d fc	 mov	 ecx, DWORD PTR _this$[ebp]
  0001d	8b 10		 mov	 edx, DWORD PTR [eax]
  0001f	89 11		 mov	 DWORD PTR [ecx], edx
  00021	8b 45 0c	 mov	 eax, DWORD PTR __Val2$[ebp]
  00024	50		 push	 eax
  00025	e8 00 00 00 00	 call	 ??$forward@AAY05$$CBD@std@@YAAAY05$$CBDAAY05$$CBD@Z ; std::forward<char const (&)[6]>
  0002a	83 c4 04	 add	 esp, 4
  0002d	8b 4d fc	 mov	 ecx, DWORD PTR _this$[ebp]
  00030	89 41 04	 mov	 DWORD PTR [ecx+4], eax
  00033	8b 45 fc	 mov	 eax, DWORD PTR _this$[ebp]
  00036	83 c4 04	 add	 esp, 4
  00039	3b ec		 cmp	 ebp, esp
  0003b	e8 00 00 00 00	 call	 __RTC_CheckEsp
  00040	8b e5		 mov	 esp, ebp
  00042	5d		 pop	 ebp
  00043	c2 08 00	 ret	 8
??$?0W4<unnamed-enum-NONE>@@AAY05$$CBD$0A@@?$pair@IPBD@std@@QAE@$$QAW4<unnamed-enum-NONE>@@AAY05$$CBD@Z ENDP ; std::pair<unsigned int,char const *>::pair<unsigned int,char const *><enum <unnamed-enum-NONE>,char const (&)[6],0>
_TEXT	ENDS
; Function compile flags: /Odtp /RTCsu
; File C:\Program Files (x86)\Microsoft Visual Studio\2019\Community\VC\Tools\MSVC\14.23.28105\include\utility
;	COMDAT ??$?0W4<unnamed-enum-NONE>@@AAY06$$CBD$0A@@?$pair@IPBD@std@@QAE@$$QAW4<unnamed-enum-NONE>@@AAY06$$CBD@Z
_TEXT	SEGMENT
_this$ = -4						; size = 4
__Val1$ = 8						; size = 4
__Val2$ = 12						; size = 4
??$?0W4<unnamed-enum-NONE>@@AAY06$$CBD$0A@@?$pair@IPBD@std@@QAE@$$QAW4<unnamed-enum-NONE>@@AAY06$$CBD@Z PROC ; std::pair<unsigned int,char const *>::pair<unsigned int,char const *><enum <unnamed-enum-NONE>,char const (&)[7],0>, COMDAT
; _this$ = ecx

; 127  :         : first(_STD forward<_Other1>(_Val1)), second(_STD forward<_Other2>(_Val2)) {}

  00000	55		 push	 ebp
  00001	8b ec		 mov	 ebp, esp
  00003	51		 push	 ecx
  00004	c7 45 fc cc cc
	cc cc		 mov	 DWORD PTR [ebp-4], -858993460 ; ccccccccH
  0000b	89 4d fc	 mov	 DWORD PTR _this$[ebp], ecx
  0000e	8b 45 08	 mov	 eax, DWORD PTR __Val1$[ebp]
  00011	50		 push	 eax
  00012	e8 00 00 00 00	 call	 ??$forward@W4<unnamed-enum-NONE>@@@std@@YA$$QAW4<unnamed-enum-NONE>@@AAW41@@Z ; std::forward<enum <unnamed-enum-NONE> >
  00017	83 c4 04	 add	 esp, 4
  0001a	8b 4d fc	 mov	 ecx, DWORD PTR _this$[ebp]
  0001d	8b 10		 mov	 edx, DWORD PTR [eax]
  0001f	89 11		 mov	 DWORD PTR [ecx], edx
  00021	8b 45 0c	 mov	 eax, DWORD PTR __Val2$[ebp]
  00024	50		 push	 eax
  00025	e8 00 00 00 00	 call	 ??$forward@AAY06$$CBD@std@@YAAAY06$$CBDAAY06$$CBD@Z ; std::forward<char const (&)[7]>
  0002a	83 c4 04	 add	 esp, 4
  0002d	8b 4d fc	 mov	 ecx, DWORD PTR _this$[ebp]
  00030	89 41 04	 mov	 DWORD PTR [ecx+4], eax
  00033	8b 45 fc	 mov	 eax, DWORD PTR _this$[ebp]
  00036	83 c4 04	 add	 esp, 4
  00039	3b ec		 cmp	 ebp, esp
  0003b	e8 00 00 00 00	 call	 __RTC_CheckEsp
  00040	8b e5		 mov	 esp, ebp
  00042	5d		 pop	 ebp
  00043	c2 08 00	 ret	 8
??$?0W4<unnamed-enum-NONE>@@AAY06$$CBD$0A@@?$pair@IPBD@std@@QAE@$$QAW4<unnamed-enum-NONE>@@AAY06$$CBD@Z ENDP ; std::pair<unsigned int,char const *>::pair<unsigned int,char const *><enum <unnamed-enum-NONE>,char const (&)[7],0>
_TEXT	ENDS
; Function compile flags: /Odtp /RTCsu
; File C:\Program Files (x86)\Microsoft Visual Studio\2019\Community\VC\Tools\MSVC\14.23.28105\include\utility
;	COMDAT ??$?0W4<unnamed-enum-NONE>@@AAY03$$CBD$0A@@?$pair@IPBD@std@@QAE@$$QAW4<unnamed-enum-NONE>@@AAY03$$CBD@Z
_TEXT	SEGMENT
_this$ = -4						; size = 4
__Val1$ = 8						; size = 4
__Val2$ = 12						; size = 4
??$?0W4<unnamed-enum-NONE>@@AAY03$$CBD$0A@@?$pair@IPBD@std@@QAE@$$QAW4<unnamed-enum-NONE>@@AAY03$$CBD@Z PROC ; std::pair<unsigned int,char const *>::pair<unsigned int,char const *><enum <unnamed-enum-NONE>,char const (&)[4],0>, COMDAT
; _this$ = ecx

; 127  :         : first(_STD forward<_Other1>(_Val1)), second(_STD forward<_Other2>(_Val2)) {}

  00000	55		 push	 ebp
  00001	8b ec		 mov	 ebp, esp
  00003	51		 push	 ecx
  00004	c7 45 fc cc cc
	cc cc		 mov	 DWORD PTR [ebp-4], -858993460 ; ccccccccH
  0000b	89 4d fc	 mov	 DWORD PTR _this$[ebp], ecx
  0000e	8b 45 08	 mov	 eax, DWORD PTR __Val1$[ebp]
  00011	50		 push	 eax
  00012	e8 00 00 00 00	 call	 ??$forward@W4<unnamed-enum-NONE>@@@std@@YA$$QAW4<unnamed-enum-NONE>@@AAW41@@Z ; std::forward<enum <unnamed-enum-NONE> >
  00017	83 c4 04	 add	 esp, 4
  0001a	8b 4d fc	 mov	 ecx, DWORD PTR _this$[ebp]
  0001d	8b 10		 mov	 edx, DWORD PTR [eax]
  0001f	89 11		 mov	 DWORD PTR [ecx], edx
  00021	8b 45 0c	 mov	 eax, DWORD PTR __Val2$[ebp]
  00024	50		 push	 eax
  00025	e8 00 00 00 00	 call	 ??$forward@AAY03$$CBD@std@@YAAAY03$$CBDAAY03$$CBD@Z ; std::forward<char const (&)[4]>
  0002a	83 c4 04	 add	 esp, 4
  0002d	8b 4d fc	 mov	 ecx, DWORD PTR _this$[ebp]
  00030	89 41 04	 mov	 DWORD PTR [ecx+4], eax
  00033	8b 45 fc	 mov	 eax, DWORD PTR _this$[ebp]
  00036	83 c4 04	 add	 esp, 4
  00039	3b ec		 cmp	 ebp, esp
  0003b	e8 00 00 00 00	 call	 __RTC_CheckEsp
  00040	8b e5		 mov	 esp, ebp
  00042	5d		 pop	 ebp
  00043	c2 08 00	 ret	 8
??$?0W4<unnamed-enum-NONE>@@AAY03$$CBD$0A@@?$pair@IPBD@std@@QAE@$$QAW4<unnamed-enum-NONE>@@AAY03$$CBD@Z ENDP ; std::pair<unsigned int,char const *>::pair<unsigned int,char const *><enum <unnamed-enum-NONE>,char const (&)[4],0>
_TEXT	ENDS
; Function compile flags: /Odtp /RTCsu
; File C:\Program Files (x86)\Microsoft Visual Studio\2019\Community\VC\Tools\MSVC\14.23.28105\include\utility
;	COMDAT ??$?0W4<unnamed-enum-NONE>@@AAY04$$CBD$0A@@?$pair@IPBD@std@@QAE@$$QAW4<unnamed-enum-NONE>@@AAY04$$CBD@Z
_TEXT	SEGMENT
_this$ = -4						; size = 4
__Val1$ = 8						; size = 4
__Val2$ = 12						; size = 4
??$?0W4<unnamed-enum-NONE>@@AAY04$$CBD$0A@@?$pair@IPBD@std@@QAE@$$QAW4<unnamed-enum-NONE>@@AAY04$$CBD@Z PROC ; std::pair<unsigned int,char const *>::pair<unsigned int,char const *><enum <unnamed-enum-NONE>,char const (&)[5],0>, COMDAT
; _this$ = ecx

; 127  :         : first(_STD forward<_Other1>(_Val1)), second(_STD forward<_Other2>(_Val2)) {}

  00000	55		 push	 ebp
  00001	8b ec		 mov	 ebp, esp
  00003	51		 push	 ecx
  00004	c7 45 fc cc cc
	cc cc		 mov	 DWORD PTR [ebp-4], -858993460 ; ccccccccH
  0000b	89 4d fc	 mov	 DWORD PTR _this$[ebp], ecx
  0000e	8b 45 08	 mov	 eax, DWORD PTR __Val1$[ebp]
  00011	50		 push	 eax
  00012	e8 00 00 00 00	 call	 ??$forward@W4<unnamed-enum-NONE>@@@std@@YA$$QAW4<unnamed-enum-NONE>@@AAW41@@Z ; std::forward<enum <unnamed-enum-NONE> >
  00017	83 c4 04	 add	 esp, 4
  0001a	8b 4d fc	 mov	 ecx, DWORD PTR _this$[ebp]
  0001d	8b 10		 mov	 edx, DWORD PTR [eax]
  0001f	89 11		 mov	 DWORD PTR [ecx], edx
  00021	8b 45 0c	 mov	 eax, DWORD PTR __Val2$[ebp]
  00024	50		 push	 eax
  00025	e8 00 00 00 00	 call	 ??$forward@AAY04$$CBD@std@@YAAAY04$$CBDAAY04$$CBD@Z ; std::forward<char const (&)[5]>
  0002a	83 c4 04	 add	 esp, 4
  0002d	8b 4d fc	 mov	 ecx, DWORD PTR _this$[ebp]
  00030	89 41 04	 mov	 DWORD PTR [ecx+4], eax
  00033	8b 45 fc	 mov	 eax, DWORD PTR _this$[ebp]
  00036	83 c4 04	 add	 esp, 4
  00039	3b ec		 cmp	 ebp, esp
  0003b	e8 00 00 00 00	 call	 __RTC_CheckEsp
  00040	8b e5		 mov	 esp, ebp
  00042	5d		 pop	 ebp
  00043	c2 08 00	 ret	 8
??$?0W4<unnamed-enum-NONE>@@AAY04$$CBD$0A@@?$pair@IPBD@std@@QAE@$$QAW4<unnamed-enum-NONE>@@AAY04$$CBD@Z ENDP ; std::pair<unsigned int,char const *>::pair<unsigned int,char const *><enum <unnamed-enum-NONE>,char const (&)[5],0>
_TEXT	ENDS
; Function compile flags: /Odtp /RTCsu
; File C:\Program Files (x86)\Microsoft Visual Studio\2019\Community\VC\Tools\MSVC\14.23.28105\include\initializer_list
;	COMDAT ?end@?$initializer_list@U?$pair@IPBD@std@@@std@@QBEPBU?$pair@IPBD@2@XZ
_TEXT	SEGMENT
_this$ = -4						; size = 4
?end@?$initializer_list@U?$pair@IPBD@std@@@std@@QBEPBU?$pair@IPBD@2@XZ PROC ; std::initializer_list<std::pair<unsigned int,char const *> >::end, COMDAT
; _this$ = ecx

; 38   :     _NODISCARD constexpr const _Elem* end() const noexcept {

  00000	55		 push	 ebp
  00001	8b ec		 mov	 ebp, esp
  00003	51		 push	 ecx
  00004	c7 45 fc cc cc
	cc cc		 mov	 DWORD PTR [ebp-4], -858993460 ; ccccccccH
  0000b	89 4d fc	 mov	 DWORD PTR _this$[ebp], ecx

; 39   :         return _Last;

  0000e	8b 45 fc	 mov	 eax, DWORD PTR _this$[ebp]
  00011	8b 40 04	 mov	 eax, DWORD PTR [eax+4]

; 40   :     }

  00014	8b e5		 mov	 esp, ebp
  00016	5d		 pop	 ebp
  00017	c3		 ret	 0
?end@?$initializer_list@U?$pair@IPBD@std@@@std@@QBEPBU?$pair@IPBD@2@XZ ENDP ; std::initializer_list<std::pair<unsigned int,char const *> >::end
_TEXT	ENDS
; Function compile flags: /Odtp /RTCsu
; File C:\Program Files (x86)\Microsoft Visual Studio\2019\Community\VC\Tools\MSVC\14.23.28105\include\initializer_list
;	COMDAT ?begin@?$initializer_list@U?$pair@IPBD@std@@@std@@QBEPBU?$pair@IPBD@2@XZ
_TEXT	SEGMENT
_this$ = -4						; size = 4
?begin@?$initializer_list@U?$pair@IPBD@std@@@std@@QBEPBU?$pair@IPBD@2@XZ PROC ; std::initializer_list<std::pair<unsigned int,char const *> >::begin, COMDAT
; _this$ = ecx

; 34   :     _NODISCARD constexpr const _Elem* begin() const noexcept {

  00000	55		 push	 ebp
  00001	8b ec		 mov	 ebp, esp
  00003	51		 push	 ecx
  00004	c7 45 fc cc cc
	cc cc		 mov	 DWORD PTR [ebp-4], -858993460 ; ccccccccH
  0000b	89 4d fc	 mov	 DWORD PTR _this$[ebp], ecx

; 35   :         return _First;

  0000e	8b 45 fc	 mov	 eax, DWORD PTR _this$[ebp]
  00011	8b 00		 mov	 eax, DWORD PTR [eax]

; 36   :     }

  00013	8b e5		 mov	 esp, ebp
  00015	5d		 pop	 ebp
  00016	c3		 ret	 0
?begin@?$initializer_list@U?$pair@IPBD@std@@@std@@QBEPBU?$pair@IPBD@2@XZ ENDP ; std::initializer_list<std::pair<unsigned int,char const *> >::begin
_TEXT	ENDS
; Function compile flags: /Odtp /RTCsu
; File C:\Program Files (x86)\Microsoft Visual Studio\2019\Community\VC\Tools\MSVC\14.23.28105\include\initializer_list
;	COMDAT ??0?$initializer_list@U?$pair@IPBD@std@@@std@@QAE@PBU?$pair@IPBD@1@0@Z
_TEXT	SEGMENT
_this$ = -4						; size = 4
__First_arg$ = 8					; size = 4
__Last_arg$ = 12					; size = 4
??0?$initializer_list@U?$pair@IPBD@std@@@std@@QAE@PBU?$pair@IPBD@1@0@Z PROC ; std::initializer_list<std::pair<unsigned int,char const *> >::initializer_list<std::pair<unsigned int,char const *> >, COMDAT
; _this$ = ecx

; 32   :         : _First(_First_arg), _Last(_Last_arg) {}

  00000	55		 push	 ebp
  00001	8b ec		 mov	 ebp, esp
  00003	51		 push	 ecx
  00004	c7 45 fc cc cc
	cc cc		 mov	 DWORD PTR [ebp-4], -858993460 ; ccccccccH
  0000b	89 4d fc	 mov	 DWORD PTR _this$[ebp], ecx
  0000e	8b 45 fc	 mov	 eax, DWORD PTR _this$[ebp]
  00011	8b 4d 08	 mov	 ecx, DWORD PTR __First_arg$[ebp]
  00014	89 08		 mov	 DWORD PTR [eax], ecx
  00016	8b 55 fc	 mov	 edx, DWORD PTR _this$[ebp]
  00019	8b 45 0c	 mov	 eax, DWORD PTR __Last_arg$[ebp]
  0001c	89 42 04	 mov	 DWORD PTR [edx+4], eax
  0001f	8b 45 fc	 mov	 eax, DWORD PTR _this$[ebp]
  00022	8b e5		 mov	 esp, ebp
  00024	5d		 pop	 ebp
  00025	c2 08 00	 ret	 8
??0?$initializer_list@U?$pair@IPBD@std@@@std@@QAE@PBU?$pair@IPBD@1@0@Z ENDP ; std::initializer_list<std::pair<unsigned int,char const *> >::initializer_list<std::pair<unsigned int,char const *> >
_TEXT	ENDS
; Function compile flags: /Odtp /RTCsu
; File C:\Program Files (x86)\Microsoft Visual Studio\2019\Community\VC\Tools\MSVC\14.23.28105\include\xmemory
;	COMDAT ?_Get_first@?$_Compressed_pair@V?$allocator@U?$pair@IPBD@std@@@std@@V?$_Vector_val@U?$_Simple_types@U?$pair@IPBD@std@@@std@@@2@$00@std@@QBEABV?$allocator@U?$pair@IPBD@std@@@2@XZ
_TEXT	SEGMENT
_this$ = -4						; size = 4
?_Get_first@?$_Compressed_pair@V?$allocator@U?$pair@IPBD@std@@@std@@V?$_Vector_val@U?$_Simple_types@U?$pair@IPBD@std@@@std@@@2@$00@std@@QBEABV?$allocator@U?$pair@IPBD@std@@@2@XZ PROC ; std::_Compressed_pair<std::allocator<std::pair<unsigned int,char const *> >,std::_Vector_val<std::_Simple_types<std::pair<unsigned int,char const *> > >,1>::_Get_first, COMDAT
; _this$ = ecx

; 1424 :     const _Ty1& _Get_first() const noexcept {

  00000	55		 push	 ebp
  00001	8b ec		 mov	 ebp, esp
  00003	51		 push	 ecx
  00004	c7 45 fc cc cc
	cc cc		 mov	 DWORD PTR [ebp-4], -858993460 ; ccccccccH
  0000b	89 4d fc	 mov	 DWORD PTR _this$[ebp], ecx

; 1425 :         return *this;

  0000e	8b 45 fc	 mov	 eax, DWORD PTR _this$[ebp]

; 1426 :     }

  00011	8b e5		 mov	 esp, ebp
  00013	5d		 pop	 ebp
  00014	c3		 ret	 0
?_Get_first@?$_Compressed_pair@V?$allocator@U?$pair@IPBD@std@@@std@@V?$_Vector_val@U?$_Simple_types@U?$pair@IPBD@std@@@std@@@2@$00@std@@QBEABV?$allocator@U?$pair@IPBD@std@@@2@XZ ENDP ; std::_Compressed_pair<std::allocator<std::pair<unsigned int,char const *> >,std::_Vector_val<std::_Simple_types<std::pair<unsigned int,char const *> > >,1>::_Get_first
_TEXT	ENDS
; Function compile flags: /Odtp /RTCsu
; File C:\Program Files (x86)\Microsoft Visual Studio\2019\Community\VC\Tools\MSVC\14.23.28105\include\xmemory
;	COMDAT ?_Get_first@?$_Compressed_pair@V?$allocator@U?$pair@IPBD@std@@@std@@V?$_Vector_val@U?$_Simple_types@U?$pair@IPBD@std@@@std@@@2@$00@std@@QAEAAV?$allocator@U?$pair@IPBD@std@@@2@XZ
_TEXT	SEGMENT
_this$ = -4						; size = 4
?_Get_first@?$_Compressed_pair@V?$allocator@U?$pair@IPBD@std@@@std@@V?$_Vector_val@U?$_Simple_types@U?$pair@IPBD@std@@@std@@@2@$00@std@@QAEAAV?$allocator@U?$pair@IPBD@std@@@2@XZ PROC ; std::_Compressed_pair<std::allocator<std::pair<unsigned int,char const *> >,std::_Vector_val<std::_Simple_types<std::pair<unsigned int,char const *> > >,1>::_Get_first, COMDAT
; _this$ = ecx

; 1420 :     _Ty1& _Get_first() noexcept {

  00000	55		 push	 ebp
  00001	8b ec		 mov	 ebp, esp
  00003	51		 push	 ecx
  00004	c7 45 fc cc cc
	cc cc		 mov	 DWORD PTR [ebp-4], -858993460 ; ccccccccH
  0000b	89 4d fc	 mov	 DWORD PTR _this$[ebp], ecx

; 1421 :         return *this;

  0000e	8b 45 fc	 mov	 eax, DWORD PTR _this$[ebp]

; 1422 :     }

  00011	8b e5		 mov	 esp, ebp
  00013	5d		 pop	 ebp
  00014	c3		 ret	 0
?_Get_first@?$_Compressed_pair@V?$allocator@U?$pair@IPBD@std@@@std@@V?$_Vector_val@U?$_Simple_types@U?$pair@IPBD@std@@@std@@@2@$00@std@@QAEAAV?$allocator@U?$pair@IPBD@std@@@2@XZ ENDP ; std::_Compressed_pair<std::allocator<std::pair<unsigned int,char const *> >,std::_Vector_val<std::_Simple_types<std::pair<unsigned int,char const *> > >,1>::_Get_first
_TEXT	ENDS
; Function compile flags: /Odtp /RTCsu
; File C:\Program Files (x86)\Microsoft Visual Studio\2019\Community\VC\Tools\MSVC\14.23.28105\include\vector
;	COMDAT ??0?$_Vector_val@U?$_Simple_types@U?$pair@IPBD@std@@@std@@@std@@QAE@XZ
_TEXT	SEGMENT
_this$ = -4						; size = 4
??0?$_Vector_val@U?$_Simple_types@U?$pair@IPBD@std@@@std@@@std@@QAE@XZ PROC ; std::_Vector_val<std::_Simple_types<std::pair<unsigned int,char const *> > >::_Vector_val<std::_Simple_types<std::pair<unsigned int,char const *> > >, COMDAT
; _this$ = ecx

; 314  :     _Vector_val() : _Myfirst(), _Mylast(), _Myend() { // initialize values

  00000	55		 push	 ebp
  00001	8b ec		 mov	 ebp, esp
  00003	51		 push	 ecx
  00004	c7 45 fc cc cc
	cc cc		 mov	 DWORD PTR [ebp-4], -858993460 ; ccccccccH
  0000b	89 4d fc	 mov	 DWORD PTR _this$[ebp], ecx
  0000e	8b 4d fc	 mov	 ecx, DWORD PTR _this$[ebp]
  00011	e8 00 00 00 00	 call	 ??0_Container_base12@std@@QAE@XZ ; std::_Container_base12::_Container_base12
  00016	8b 45 fc	 mov	 eax, DWORD PTR _this$[ebp]
  00019	c7 40 04 00 00
	00 00		 mov	 DWORD PTR [eax+4], 0
  00020	8b 4d fc	 mov	 ecx, DWORD PTR _this$[ebp]
  00023	c7 41 08 00 00
	00 00		 mov	 DWORD PTR [ecx+8], 0
  0002a	8b 55 fc	 mov	 edx, DWORD PTR _this$[ebp]
  0002d	c7 42 0c 00 00
	00 00		 mov	 DWORD PTR [edx+12], 0

; 315  :     }

  00034	8b 45 fc	 mov	 eax, DWORD PTR _this$[ebp]
  00037	83 c4 04	 add	 esp, 4
  0003a	3b ec		 cmp	 ebp, esp
  0003c	e8 00 00 00 00	 call	 __RTC_CheckEsp
  00041	8b e5		 mov	 esp, ebp
  00043	5d		 pop	 ebp
  00044	c3		 ret	 0
??0?$_Vector_val@U?$_Simple_types@U?$pair@IPBD@std@@@std@@@std@@QAE@XZ ENDP ; std::_Vector_val<std::_Simple_types<std::pair<unsigned int,char const *> > >::_Vector_val<std::_Simple_types<std::pair<unsigned int,char const *> > >
_TEXT	ENDS
; Function compile flags: /Odtp /RTCsu
; File C:\Program Files (x86)\Microsoft Visual Studio\2019\Community\VC\Tools\MSVC\14.23.28105\include\vector
;	COMDAT ?_Getal@?$vector@U?$pair@IPBD@std@@V?$allocator@U?$pair@IPBD@std@@@2@@std@@ABEABV?$allocator@U?$pair@IPBD@std@@@2@XZ
_TEXT	SEGMENT
_this$ = -4						; size = 4
?_Getal@?$vector@U?$pair@IPBD@std@@V?$allocator@U?$pair@IPBD@std@@@2@@std@@ABEABV?$allocator@U?$pair@IPBD@std@@@2@XZ PROC ; std::vector<std::pair<unsigned int,char const *>,std::allocator<std::pair<unsigned int,char const *> > >::_Getal, COMDAT
; _this$ = ecx

; 1692 :     const _Alty& _Getal() const noexcept { // return const reference to allocator

  00000	55		 push	 ebp
  00001	8b ec		 mov	 ebp, esp
  00003	51		 push	 ecx
  00004	c7 45 fc cc cc
	cc cc		 mov	 DWORD PTR [ebp-4], -858993460 ; ccccccccH
  0000b	89 4d fc	 mov	 DWORD PTR _this$[ebp], ecx

; 1693 :         return _Mypair._Get_first();

  0000e	8b 4d fc	 mov	 ecx, DWORD PTR _this$[ebp]
  00011	e8 00 00 00 00	 call	 ?_Get_first@?$_Compressed_pair@V?$allocator@U?$pair@IPBD@std@@@std@@V?$_Vector_val@U?$_Simple_types@U?$pair@IPBD@std@@@std@@@2@$00@std@@QBEABV?$allocator@U?$pair@IPBD@std@@@2@XZ ; std::_Compressed_pair<std::allocator<std::pair<unsigned int,char const *> >,std::_Vector_val<std::_Simple_types<std::pair<unsigned int,char const *> > >,1>::_Get_first

; 1694 :     }

  00016	83 c4 04	 add	 esp, 4
  00019	3b ec		 cmp	 ebp, esp
  0001b	e8 00 00 00 00	 call	 __RTC_CheckEsp
  00020	8b e5		 mov	 esp, ebp
  00022	5d		 pop	 ebp
  00023	c3		 ret	 0
?_Getal@?$vector@U?$pair@IPBD@std@@V?$allocator@U?$pair@IPBD@std@@@2@@std@@ABEABV?$allocator@U?$pair@IPBD@std@@@2@XZ ENDP ; std::vector<std::pair<unsigned int,char const *>,std::allocator<std::pair<unsigned int,char const *> > >::_Getal
_TEXT	ENDS
; Function compile flags: /Odtp /RTCsu
; File C:\Program Files (x86)\Microsoft Visual Studio\2019\Community\VC\Tools\MSVC\14.23.28105\include\vector
;	COMDAT ?_Getal@?$vector@U?$pair@IPBD@std@@V?$allocator@U?$pair@IPBD@std@@@2@@std@@AAEAAV?$allocator@U?$pair@IPBD@std@@@2@XZ
_TEXT	SEGMENT
_this$ = -4						; size = 4
?_Getal@?$vector@U?$pair@IPBD@std@@V?$allocator@U?$pair@IPBD@std@@@2@@std@@AAEAAV?$allocator@U?$pair@IPBD@std@@@2@XZ PROC ; std::vector<std::pair<unsigned int,char const *>,std::allocator<std::pair<unsigned int,char const *> > >::_Getal, COMDAT
; _this$ = ecx

; 1688 :     _Alty& _Getal() noexcept { // return reference to allocator

  00000	55		 push	 ebp
  00001	8b ec		 mov	 ebp, esp
  00003	51		 push	 ecx
  00004	c7 45 fc cc cc
	cc cc		 mov	 DWORD PTR [ebp-4], -858993460 ; ccccccccH
  0000b	89 4d fc	 mov	 DWORD PTR _this$[ebp], ecx

; 1689 :         return _Mypair._Get_first();

  0000e	8b 4d fc	 mov	 ecx, DWORD PTR _this$[ebp]
  00011	e8 00 00 00 00	 call	 ?_Get_first@?$_Compressed_pair@V?$allocator@U?$pair@IPBD@std@@@std@@V?$_Vector_val@U?$_Simple_types@U?$pair@IPBD@std@@@std@@@2@$00@std@@QAEAAV?$allocator@U?$pair@IPBD@std@@@2@XZ ; std::_Compressed_pair<std::allocator<std::pair<unsigned int,char const *> >,std::_Vector_val<std::_Simple_types<std::pair<unsigned int,char const *> > >,1>::_Get_first

; 1690 :     }

  00016	83 c4 04	 add	 esp, 4
  00019	3b ec		 cmp	 ebp, esp
  0001b	e8 00 00 00 00	 call	 __RTC_CheckEsp
  00020	8b e5		 mov	 esp, ebp
  00022	5d		 pop	 ebp
  00023	c3		 ret	 0
?_Getal@?$vector@U?$pair@IPBD@std@@V?$allocator@U?$pair@IPBD@std@@@2@@std@@AAEAAV?$allocator@U?$pair@IPBD@std@@@2@XZ ENDP ; std::vector<std::pair<unsigned int,char const *>,std::allocator<std::pair<unsigned int,char const *> > >::_Getal
_TEXT	ENDS
; Function compile flags: /Odtp /RTCsu
; File C:\Program Files (x86)\Microsoft Visual Studio\2019\Community\VC\Tools\MSVC\14.23.28105\include\vector
;	COMDAT ?_Xlength@?$vector@U?$pair@IPBD@std@@V?$allocator@U?$pair@IPBD@std@@@2@@std@@CAXXZ
_TEXT	SEGMENT
?_Xlength@?$vector@U?$pair@IPBD@std@@V?$allocator@U?$pair@IPBD@std@@@2@@std@@CAXXZ PROC ; std::vector<std::pair<unsigned int,char const *>,std::allocator<std::pair<unsigned int,char const *> > >::_Xlength, COMDAT

; 1660 :     [[noreturn]] static void _Xlength() { // report a length_error

  00000	55		 push	 ebp
  00001	8b ec		 mov	 ebp, esp

; 1661 :         _Xlength_error("vector<T> too long");

  00003	68 00 00 00 00	 push	 OFFSET ??_C@_0BD@OLBABOEK@vector?$DMT?$DO?5too?5long@
  00008	e8 00 00 00 00	 call	 ?_Xlength_error@std@@YAXPBD@Z ; std::_Xlength_error
$LN2@Xlength:

; 1662 :     }

  0000d	3b ec		 cmp	 ebp, esp
  0000f	e8 00 00 00 00	 call	 __RTC_CheckEsp
  00014	5d		 pop	 ebp
  00015	c3		 ret	 0
?_Xlength@?$vector@U?$pair@IPBD@std@@V?$allocator@U?$pair@IPBD@std@@@2@@std@@CAXXZ ENDP ; std::vector<std::pair<unsigned int,char const *>,std::allocator<std::pair<unsigned int,char const *> > >::_Xlength
_TEXT	ENDS
; Function compile flags: /Odtp /RTCsu
; File C:\Program Files (x86)\Microsoft Visual Studio\2019\Community\VC\Tools\MSVC\14.23.28105\include\vector
;	COMDAT ?_Tidy@?$vector@U?$pair@IPBD@std@@V?$allocator@U?$pair@IPBD@std@@@2@@std@@AAEXXZ
_TEXT	SEGMENT
__Myend$ = -32						; size = 4
__Mylast$ = -28						; size = 4
__Myfirst$ = -24					; size = 4
__My_data$ = -20					; size = 4
_this$ = -16						; size = 4
__$EHRec$ = -12						; size = 12
?_Tidy@?$vector@U?$pair@IPBD@std@@V?$allocator@U?$pair@IPBD@std@@@2@@std@@AAEXXZ PROC ; std::vector<std::pair<unsigned int,char const *>,std::allocator<std::pair<unsigned int,char const *> > >::_Tidy, COMDAT
; _this$ = ecx

; 1642 :     void _Tidy() noexcept { // free all storage

  00000	55		 push	 ebp
  00001	8b ec		 mov	 ebp, esp
  00003	6a ff		 push	 -1
  00005	68 00 00 00 00	 push	 __ehhandler$?_Tidy@?$vector@U?$pair@IPBD@std@@V?$allocator@U?$pair@IPBD@std@@@2@@std@@AAEXXZ
  0000a	64 a1 00 00 00
	00		 mov	 eax, DWORD PTR fs:0
  00010	50		 push	 eax
  00011	83 ec 14	 sub	 esp, 20			; 00000014H
  00014	b8 cc cc cc cc	 mov	 eax, -858993460		; ccccccccH
  00019	89 45 e0	 mov	 DWORD PTR [ebp-32], eax
  0001c	89 45 e4	 mov	 DWORD PTR [ebp-28], eax
  0001f	89 45 e8	 mov	 DWORD PTR [ebp-24], eax
  00022	89 45 ec	 mov	 DWORD PTR [ebp-20], eax
  00025	89 45 f0	 mov	 DWORD PTR [ebp-16], eax
  00028	a1 00 00 00 00	 mov	 eax, DWORD PTR ___security_cookie
  0002d	33 c5		 xor	 eax, ebp
  0002f	50		 push	 eax
  00030	8d 45 f4	 lea	 eax, DWORD PTR __$EHRec$[ebp]
  00033	64 a3 00 00 00
	00		 mov	 DWORD PTR fs:0, eax
  00039	89 4d f0	 mov	 DWORD PTR _this$[ebp], ecx

; 1643 :         auto& _My_data    = _Mypair._Myval2;

  0003c	8b 45 f0	 mov	 eax, DWORD PTR _this$[ebp]
  0003f	89 45 ec	 mov	 DWORD PTR __My_data$[ebp], eax

; 1644 :         pointer& _Myfirst = _My_data._Myfirst;

  00042	8b 4d ec	 mov	 ecx, DWORD PTR __My_data$[ebp]
  00045	83 c1 04	 add	 ecx, 4
  00048	89 4d e8	 mov	 DWORD PTR __Myfirst$[ebp], ecx

; 1645 :         pointer& _Mylast  = _My_data._Mylast;

  0004b	8b 55 ec	 mov	 edx, DWORD PTR __My_data$[ebp]
  0004e	83 c2 08	 add	 edx, 8
  00051	89 55 e4	 mov	 DWORD PTR __Mylast$[ebp], edx

; 1646 :         pointer& _Myend   = _My_data._Myend;

  00054	8b 45 ec	 mov	 eax, DWORD PTR __My_data$[ebp]
  00057	83 c0 0c	 add	 eax, 12			; 0000000cH
  0005a	89 45 e0	 mov	 DWORD PTR __Myend$[ebp], eax

; 1647 : 
; 1648 :         _My_data._Orphan_all();

  0005d	8b 4d ec	 mov	 ecx, DWORD PTR __My_data$[ebp]
  00060	e8 00 00 00 00	 call	 ?_Orphan_all@_Container_base12@std@@QAEXXZ ; std::_Container_base12::_Orphan_all

; 1649 : 
; 1650 :         if (_Myfirst) { // destroy and deallocate old array

  00065	8b 4d e8	 mov	 ecx, DWORD PTR __Myfirst$[ebp]
  00068	83 39 00	 cmp	 DWORD PTR [ecx], 0
  0006b	74 52		 je	 SHORT $LN1@Tidy

; 1651 :             _Destroy(_Myfirst, _Mylast);

  0006d	8b 55 e4	 mov	 edx, DWORD PTR __Mylast$[ebp]
  00070	8b 02		 mov	 eax, DWORD PTR [edx]
  00072	50		 push	 eax
  00073	8b 4d e8	 mov	 ecx, DWORD PTR __Myfirst$[ebp]
  00076	8b 11		 mov	 edx, DWORD PTR [ecx]
  00078	52		 push	 edx
  00079	8b 4d f0	 mov	 ecx, DWORD PTR _this$[ebp]
  0007c	e8 00 00 00 00	 call	 ?_Destroy@?$vector@U?$pair@IPBD@std@@V?$allocator@U?$pair@IPBD@std@@@2@@std@@AAEXPAU?$pair@IPBD@2@0@Z ; std::vector<std::pair<unsigned int,char const *>,std::allocator<std::pair<unsigned int,char const *> > >::_Destroy

; 1652 :             _Getal().deallocate(_Myfirst, static_cast<size_type>(_Myend - _Myfirst));

  00081	8b 45 e0	 mov	 eax, DWORD PTR __Myend$[ebp]
  00084	8b 4d e8	 mov	 ecx, DWORD PTR __Myfirst$[ebp]
  00087	8b 10		 mov	 edx, DWORD PTR [eax]
  00089	2b 11		 sub	 edx, DWORD PTR [ecx]
  0008b	c1 fa 03	 sar	 edx, 3
  0008e	52		 push	 edx
  0008f	8b 45 e8	 mov	 eax, DWORD PTR __Myfirst$[ebp]
  00092	8b 08		 mov	 ecx, DWORD PTR [eax]
  00094	51		 push	 ecx
  00095	8b 4d f0	 mov	 ecx, DWORD PTR _this$[ebp]
  00098	e8 00 00 00 00	 call	 ?_Getal@?$vector@U?$pair@IPBD@std@@V?$allocator@U?$pair@IPBD@std@@@2@@std@@AAEAAV?$allocator@U?$pair@IPBD@std@@@2@XZ ; std::vector<std::pair<unsigned int,char const *>,std::allocator<std::pair<unsigned int,char const *> > >::_Getal
  0009d	8b c8		 mov	 ecx, eax
  0009f	e8 00 00 00 00	 call	 ?deallocate@?$allocator@U?$pair@IPBD@std@@@std@@QAEXQAU?$pair@IPBD@2@I@Z ; std::allocator<std::pair<unsigned int,char const *> >::deallocate

; 1653 : 
; 1654 :             _Myfirst = pointer();

  000a4	8b 55 e8	 mov	 edx, DWORD PTR __Myfirst$[ebp]
  000a7	c7 02 00 00 00
	00		 mov	 DWORD PTR [edx], 0

; 1655 :             _Mylast  = pointer();

  000ad	8b 45 e4	 mov	 eax, DWORD PTR __Mylast$[ebp]
  000b0	c7 00 00 00 00
	00		 mov	 DWORD PTR [eax], 0

; 1656 :             _Myend   = pointer();

  000b6	8b 4d e0	 mov	 ecx, DWORD PTR __Myend$[ebp]
  000b9	c7 01 00 00 00
	00		 mov	 DWORD PTR [ecx], 0
$LN1@Tidy:

; 1657 :         }
; 1658 :     }

  000bf	8b 4d f4	 mov	 ecx, DWORD PTR __$EHRec$[ebp]
  000c2	64 89 0d 00 00
	00 00		 mov	 DWORD PTR fs:0, ecx
  000c9	59		 pop	 ecx
  000ca	83 c4 20	 add	 esp, 32			; 00000020H
  000cd	3b ec		 cmp	 ebp, esp
  000cf	e8 00 00 00 00	 call	 __RTC_CheckEsp
  000d4	8b e5		 mov	 esp, ebp
  000d6	5d		 pop	 ebp
  000d7	c3		 ret	 0
_TEXT	ENDS
;	COMDAT text$x
text$x	SEGMENT
__ehhandler$?_Tidy@?$vector@U?$pair@IPBD@std@@V?$allocator@U?$pair@IPBD@std@@@2@@std@@AAEXXZ:
  00000	8b 54 24 08	 mov	 edx, DWORD PTR [esp+8]
  00004	8d 42 0c	 lea	 eax, DWORD PTR [edx+12]
  00007	8b 4a e8	 mov	 ecx, DWORD PTR [edx-24]
  0000a	33 c8		 xor	 ecx, eax
  0000c	e8 00 00 00 00	 call	 @__security_check_cookie@4
  00011	b8 00 00 00 00	 mov	 eax, OFFSET __ehfuncinfo$?_Tidy@?$vector@U?$pair@IPBD@std@@V?$allocator@U?$pair@IPBD@std@@@2@@std@@AAEXXZ
  00016	e9 00 00 00 00	 jmp	 ___CxxFrameHandler3
text$x	ENDS
?_Tidy@?$vector@U?$pair@IPBD@std@@V?$allocator@U?$pair@IPBD@std@@@2@@std@@AAEXXZ ENDP ; std::vector<std::pair<unsigned int,char const *>,std::allocator<std::pair<unsigned int,char const *> > >::_Tidy
; Function compile flags: /Odtp /RTCsu
; File C:\Program Files (x86)\Microsoft Visual Studio\2019\Community\VC\Tools\MSVC\14.23.28105\include\vector
;	COMDAT ?_Buy_nonzero@?$vector@U?$pair@IPBD@std@@V?$allocator@U?$pair@IPBD@std@@@2@@std@@AAEXI@Z
_TEXT	SEGMENT
_this$ = -4						; size = 4
__Newcapacity$ = 8					; size = 4
?_Buy_nonzero@?$vector@U?$pair@IPBD@std@@V?$allocator@U?$pair@IPBD@std@@@2@@std@@AAEXI@Z PROC ; std::vector<std::pair<unsigned int,char const *>,std::allocator<std::pair<unsigned int,char const *> > >::_Buy_nonzero, COMDAT
; _this$ = ecx

; 1605 :     void _Buy_nonzero(const size_type _Newcapacity) {

  00000	55		 push	 ebp
  00001	8b ec		 mov	 ebp, esp
  00003	51		 push	 ecx
  00004	c7 45 fc cc cc
	cc cc		 mov	 DWORD PTR [ebp-4], -858993460 ; ccccccccH
  0000b	89 4d fc	 mov	 DWORD PTR _this$[ebp], ecx

; 1606 :         // allocate array with _Newcapacity elements
; 1607 : #ifdef _ENABLE_STL_INTERNAL_CHECK
; 1608 :         auto& _My_data    = _Mypair._Myval2;
; 1609 :         pointer& _Myfirst = _My_data._Myfirst;
; 1610 :         pointer& _Mylast  = _My_data._Mylast;
; 1611 :         pointer& _Myend   = _My_data._Myend;
; 1612 :         _STL_INTERNAL_CHECK(!_Myfirst && !_Mylast && !_Myend); // check that *this is tidy
; 1613 :         _STL_INTERNAL_CHECK(0 < _Newcapacity);
; 1614 : #endif // _ENABLE_STL_INTERNAL_CHECK
; 1615 : 
; 1616 :         if (_Newcapacity > max_size()) {

  0000e	8b 4d fc	 mov	 ecx, DWORD PTR _this$[ebp]
  00011	e8 00 00 00 00	 call	 ?max_size@?$vector@U?$pair@IPBD@std@@V?$allocator@U?$pair@IPBD@std@@@2@@std@@QBEIXZ ; std::vector<std::pair<unsigned int,char const *>,std::allocator<std::pair<unsigned int,char const *> > >::max_size
  00016	39 45 08	 cmp	 DWORD PTR __Newcapacity$[ebp], eax
  00019	76 05		 jbe	 SHORT $LN2@Buy_nonzer

; 1617 :             _Xlength();

  0001b	e8 00 00 00 00	 call	 ?_Xlength@?$vector@U?$pair@IPBD@std@@V?$allocator@U?$pair@IPBD@std@@@2@@std@@CAXXZ ; std::vector<std::pair<unsigned int,char const *>,std::allocator<std::pair<unsigned int,char const *> > >::_Xlength
$LN2@Buy_nonzer:

; 1618 :         }
; 1619 : 
; 1620 :         _Buy_raw(_Newcapacity);

  00020	8b 45 08	 mov	 eax, DWORD PTR __Newcapacity$[ebp]
  00023	50		 push	 eax
  00024	8b 4d fc	 mov	 ecx, DWORD PTR _this$[ebp]
  00027	e8 00 00 00 00	 call	 ?_Buy_raw@?$vector@U?$pair@IPBD@std@@V?$allocator@U?$pair@IPBD@std@@@2@@std@@AAEXI@Z ; std::vector<std::pair<unsigned int,char const *>,std::allocator<std::pair<unsigned int,char const *> > >::_Buy_raw
$LN3@Buy_nonzer:

; 1621 :     }

  0002c	83 c4 04	 add	 esp, 4
  0002f	3b ec		 cmp	 ebp, esp
  00031	e8 00 00 00 00	 call	 __RTC_CheckEsp
  00036	8b e5		 mov	 esp, ebp
  00038	5d		 pop	 ebp
  00039	c2 04 00	 ret	 4
?_Buy_nonzero@?$vector@U?$pair@IPBD@std@@V?$allocator@U?$pair@IPBD@std@@@2@@std@@AAEXI@Z ENDP ; std::vector<std::pair<unsigned int,char const *>,std::allocator<std::pair<unsigned int,char const *> > >::_Buy_nonzero
_TEXT	ENDS
; Function compile flags: /Odtp /RTCsu
; File C:\Program Files (x86)\Microsoft Visual Studio\2019\Community\VC\Tools\MSVC\14.23.28105\include\vector
;	COMDAT ?_Buy_raw@?$vector@U?$pair@IPBD@std@@V?$allocator@U?$pair@IPBD@std@@@2@@std@@AAEXI@Z
_TEXT	SEGMENT
__Newvec$ = -24						; size = 4
__Myend$ = -20						; size = 4
__Mylast$ = -16						; size = 4
__Myfirst$ = -12					; size = 4
__My_data$ = -8						; size = 4
_this$ = -4						; size = 4
__Newcapacity$ = 8					; size = 4
?_Buy_raw@?$vector@U?$pair@IPBD@std@@V?$allocator@U?$pair@IPBD@std@@@2@@std@@AAEXI@Z PROC ; std::vector<std::pair<unsigned int,char const *>,std::allocator<std::pair<unsigned int,char const *> > >::_Buy_raw, COMDAT
; _this$ = ecx

; 1589 :     void _Buy_raw(const size_type _Newcapacity) {

  00000	55		 push	 ebp
  00001	8b ec		 mov	 ebp, esp
  00003	83 ec 18	 sub	 esp, 24			; 00000018H
  00006	b8 cc cc cc cc	 mov	 eax, -858993460		; ccccccccH
  0000b	89 45 e8	 mov	 DWORD PTR [ebp-24], eax
  0000e	89 45 ec	 mov	 DWORD PTR [ebp-20], eax
  00011	89 45 f0	 mov	 DWORD PTR [ebp-16], eax
  00014	89 45 f4	 mov	 DWORD PTR [ebp-12], eax
  00017	89 45 f8	 mov	 DWORD PTR [ebp-8], eax
  0001a	89 45 fc	 mov	 DWORD PTR [ebp-4], eax
  0001d	89 4d fc	 mov	 DWORD PTR _this$[ebp], ecx

; 1590 :         // allocate array with _Newcapacity elements
; 1591 :         auto& _My_data    = _Mypair._Myval2;

  00020	8b 45 fc	 mov	 eax, DWORD PTR _this$[ebp]
  00023	89 45 f8	 mov	 DWORD PTR __My_data$[ebp], eax

; 1592 :         pointer& _Myfirst = _My_data._Myfirst;

  00026	8b 4d f8	 mov	 ecx, DWORD PTR __My_data$[ebp]
  00029	83 c1 04	 add	 ecx, 4
  0002c	89 4d f4	 mov	 DWORD PTR __Myfirst$[ebp], ecx

; 1593 :         pointer& _Mylast  = _My_data._Mylast;

  0002f	8b 55 f8	 mov	 edx, DWORD PTR __My_data$[ebp]
  00032	83 c2 08	 add	 edx, 8
  00035	89 55 f0	 mov	 DWORD PTR __Mylast$[ebp], edx

; 1594 :         pointer& _Myend   = _My_data._Myend;

  00038	8b 45 f8	 mov	 eax, DWORD PTR __My_data$[ebp]
  0003b	83 c0 0c	 add	 eax, 12			; 0000000cH
  0003e	89 45 ec	 mov	 DWORD PTR __Myend$[ebp], eax

; 1595 : 
; 1596 :         _STL_INTERNAL_CHECK(!_Myfirst && !_Mylast && !_Myend); // check that *this is tidy
; 1597 :         _STL_INTERNAL_CHECK(0 < _Newcapacity && _Newcapacity <= max_size());
; 1598 : 
; 1599 :         const auto _Newvec = _Getal().allocate(_Newcapacity);

  00041	8b 4d 08	 mov	 ecx, DWORD PTR __Newcapacity$[ebp]
  00044	51		 push	 ecx
  00045	8b 4d fc	 mov	 ecx, DWORD PTR _this$[ebp]
  00048	e8 00 00 00 00	 call	 ?_Getal@?$vector@U?$pair@IPBD@std@@V?$allocator@U?$pair@IPBD@std@@@2@@std@@AAEAAV?$allocator@U?$pair@IPBD@std@@@2@XZ ; std::vector<std::pair<unsigned int,char const *>,std::allocator<std::pair<unsigned int,char const *> > >::_Getal
  0004d	8b c8		 mov	 ecx, eax
  0004f	e8 00 00 00 00	 call	 ?allocate@?$allocator@U?$pair@IPBD@std@@@std@@QAEPAU?$pair@IPBD@2@I@Z ; std::allocator<std::pair<unsigned int,char const *> >::allocate
  00054	89 45 e8	 mov	 DWORD PTR __Newvec$[ebp], eax

; 1600 :         _Myfirst           = _Newvec;

  00057	8b 55 f4	 mov	 edx, DWORD PTR __Myfirst$[ebp]
  0005a	8b 45 e8	 mov	 eax, DWORD PTR __Newvec$[ebp]
  0005d	89 02		 mov	 DWORD PTR [edx], eax

; 1601 :         _Mylast            = _Newvec;

  0005f	8b 4d f0	 mov	 ecx, DWORD PTR __Mylast$[ebp]
  00062	8b 55 e8	 mov	 edx, DWORD PTR __Newvec$[ebp]
  00065	89 11		 mov	 DWORD PTR [ecx], edx

; 1602 :         _Myend             = _Newvec + _Newcapacity;

  00067	8b 45 08	 mov	 eax, DWORD PTR __Newcapacity$[ebp]
  0006a	8b 4d e8	 mov	 ecx, DWORD PTR __Newvec$[ebp]
  0006d	8d 14 c1	 lea	 edx, DWORD PTR [ecx+eax*8]
  00070	8b 45 ec	 mov	 eax, DWORD PTR __Myend$[ebp]
  00073	89 10		 mov	 DWORD PTR [eax], edx

; 1603 :     }

  00075	83 c4 18	 add	 esp, 24			; 00000018H
  00078	3b ec		 cmp	 ebp, esp
  0007a	e8 00 00 00 00	 call	 __RTC_CheckEsp
  0007f	8b e5		 mov	 esp, ebp
  00081	5d		 pop	 ebp
  00082	c2 04 00	 ret	 4
?_Buy_raw@?$vector@U?$pair@IPBD@std@@V?$allocator@U?$pair@IPBD@std@@@2@@std@@AAEXI@Z ENDP ; std::vector<std::pair<unsigned int,char const *>,std::allocator<std::pair<unsigned int,char const *> > >::_Buy_raw
_TEXT	ENDS
; Function compile flags: /Odtp /RTCsu
; File C:\Program Files (x86)\Microsoft Visual Studio\2019\Community\VC\Tools\MSVC\14.23.28105\include\vector
;	COMDAT ?_Destroy@?$vector@U?$pair@IPBD@std@@V?$allocator@U?$pair@IPBD@std@@@2@@std@@AAEXPAU?$pair@IPBD@2@0@Z
_TEXT	SEGMENT
_this$ = -4						; size = 4
__First$ = 8						; size = 4
__Last$ = 12						; size = 4
?_Destroy@?$vector@U?$pair@IPBD@std@@V?$allocator@U?$pair@IPBD@std@@@2@@std@@AAEXPAU?$pair@IPBD@2@0@Z PROC ; std::vector<std::pair<unsigned int,char const *>,std::allocator<std::pair<unsigned int,char const *> > >::_Destroy, COMDAT
; _this$ = ecx

; 1567 :     void _Destroy(pointer _First, pointer _Last) { // destroy [_First, _Last) using allocator

  00000	55		 push	 ebp
  00001	8b ec		 mov	 ebp, esp
  00003	51		 push	 ecx
  00004	c7 45 fc cc cc
	cc cc		 mov	 DWORD PTR [ebp-4], -858993460 ; ccccccccH
  0000b	89 4d fc	 mov	 DWORD PTR _this$[ebp], ecx

; 1568 :         _Destroy_range(_First, _Last, _Getal());

  0000e	8b 4d fc	 mov	 ecx, DWORD PTR _this$[ebp]
  00011	e8 00 00 00 00	 call	 ?_Getal@?$vector@U?$pair@IPBD@std@@V?$allocator@U?$pair@IPBD@std@@@2@@std@@AAEAAV?$allocator@U?$pair@IPBD@std@@@2@XZ ; std::vector<std::pair<unsigned int,char const *>,std::allocator<std::pair<unsigned int,char const *> > >::_Getal
  00016	50		 push	 eax
  00017	8b 45 0c	 mov	 eax, DWORD PTR __Last$[ebp]
  0001a	50		 push	 eax
  0001b	8b 4d 08	 mov	 ecx, DWORD PTR __First$[ebp]
  0001e	51		 push	 ecx
  0001f	e8 00 00 00 00	 call	 ??$_Destroy_range@V?$allocator@U?$pair@IPBD@std@@@std@@@std@@YAXPAU?$pair@IPBD@0@QAU10@AAV?$allocator@U?$pair@IPBD@std@@@0@@Z ; std::_Destroy_range<std::allocator<std::pair<unsigned int,char const *> > >
  00024	83 c4 0c	 add	 esp, 12			; 0000000cH

; 1569 :     }

  00027	83 c4 04	 add	 esp, 4
  0002a	3b ec		 cmp	 ebp, esp
  0002c	e8 00 00 00 00	 call	 __RTC_CheckEsp
  00031	8b e5		 mov	 esp, ebp
  00033	5d		 pop	 ebp
  00034	c2 08 00	 ret	 8
?_Destroy@?$vector@U?$pair@IPBD@std@@V?$allocator@U?$pair@IPBD@std@@@2@@std@@AAEXPAU?$pair@IPBD@2@0@Z ENDP ; std::vector<std::pair<unsigned int,char const *>,std::allocator<std::pair<unsigned int,char const *> > >::_Destroy
_TEXT	ENDS
; Function compile flags: /Odtp /RTCsu
; File C:\Program Files (x86)\Microsoft Visual Studio\2019\Community\VC\Tools\MSVC\14.23.28105\include\vector
;	COMDAT ?max_size@?$vector@U?$pair@IPBD@std@@V?$allocator@U?$pair@IPBD@std@@@2@@std@@QBEIXZ
_TEXT	SEGMENT
$T1 = -12						; size = 4
$T2 = -8						; size = 4
_this$ = -4						; size = 4
?max_size@?$vector@U?$pair@IPBD@std@@V?$allocator@U?$pair@IPBD@std@@@2@@std@@QBEIXZ PROC ; std::vector<std::pair<unsigned int,char const *>,std::allocator<std::pair<unsigned int,char const *> > >::max_size, COMDAT
; _this$ = ecx

; 1441 :     _NODISCARD size_type max_size() const noexcept { // return maximum possible length of sequence

  00000	55		 push	 ebp
  00001	8b ec		 mov	 ebp, esp
  00003	83 ec 0c	 sub	 esp, 12			; 0000000cH
  00006	c7 45 f4 cc cc
	cc cc		 mov	 DWORD PTR [ebp-12], -858993460 ; ccccccccH
  0000d	c7 45 f8 cc cc
	cc cc		 mov	 DWORD PTR [ebp-8], -858993460 ; ccccccccH
  00014	c7 45 fc cc cc
	cc cc		 mov	 DWORD PTR [ebp-4], -858993460 ; ccccccccH
  0001b	89 4d fc	 mov	 DWORD PTR _this$[ebp], ecx

; 1442 :         return _Min_value(

  0001e	8b 4d fc	 mov	 ecx, DWORD PTR _this$[ebp]
  00021	e8 00 00 00 00	 call	 ?_Getal@?$vector@U?$pair@IPBD@std@@V?$allocator@U?$pair@IPBD@std@@@2@@std@@ABEABV?$allocator@U?$pair@IPBD@std@@@2@XZ ; std::vector<std::pair<unsigned int,char const *>,std::allocator<std::pair<unsigned int,char const *> > >::_Getal
  00026	50		 push	 eax
  00027	e8 00 00 00 00	 call	 ?max_size@?$_Default_allocator_traits@V?$allocator@U?$pair@IPBD@std@@@std@@@std@@SAIABV?$allocator@U?$pair@IPBD@std@@@2@@Z ; std::_Default_allocator_traits<std::allocator<std::pair<unsigned int,char const *> > >::max_size
  0002c	83 c4 04	 add	 esp, 4
  0002f	89 45 f8	 mov	 DWORD PTR $T2[ebp], eax
  00032	e8 00 00 00 00	 call	 ?max@?$numeric_limits@H@std@@SAHXZ ; std::numeric_limits<int>::max
  00037	89 45 f4	 mov	 DWORD PTR $T1[ebp], eax
  0003a	8d 45 f8	 lea	 eax, DWORD PTR $T2[ebp]
  0003d	50		 push	 eax
  0003e	8d 4d f4	 lea	 ecx, DWORD PTR $T1[ebp]
  00041	51		 push	 ecx
  00042	e8 00 00 00 00	 call	 ??$_Min_value@I@std@@YAABIABI0@Z ; std::_Min_value<unsigned int>
  00047	83 c4 08	 add	 esp, 8
  0004a	8b 00		 mov	 eax, DWORD PTR [eax]

; 1443 :             static_cast<size_type>((numeric_limits<difference_type>::max)()), _Alty_traits::max_size(_Getal()));
; 1444 :     }

  0004c	83 c4 0c	 add	 esp, 12			; 0000000cH
  0004f	3b ec		 cmp	 ebp, esp
  00051	e8 00 00 00 00	 call	 __RTC_CheckEsp
  00056	8b e5		 mov	 esp, ebp
  00058	5d		 pop	 ebp
  00059	c3		 ret	 0
?max_size@?$vector@U?$pair@IPBD@std@@V?$allocator@U?$pair@IPBD@std@@@2@@std@@QBEIXZ ENDP ; std::vector<std::pair<unsigned int,char const *>,std::allocator<std::pair<unsigned int,char const *> > >::max_size
_TEXT	ENDS
; Function compile flags: /Odtp /RTCsu
; File C:\Program Files (x86)\Microsoft Visual Studio\2019\Community\VC\Tools\MSVC\14.23.28105\include\vector
;	COMDAT ?_Unchecked_end@?$vector@U?$pair@IPBD@std@@V?$allocator@U?$pair@IPBD@std@@@2@@std@@QAEPAU?$pair@IPBD@2@XZ
_TEXT	SEGMENT
_this$ = -4						; size = 4
?_Unchecked_end@?$vector@U?$pair@IPBD@std@@V?$allocator@U?$pair@IPBD@std@@@2@@std@@QAEPAU?$pair@IPBD@2@XZ PROC ; std::vector<std::pair<unsigned int,char const *>,std::allocator<std::pair<unsigned int,char const *> > >::_Unchecked_end, COMDAT
; _this$ = ecx

; 1423 :     pointer _Unchecked_end() noexcept { // return pointer for end of mutable sequence

  00000	55		 push	 ebp
  00001	8b ec		 mov	 ebp, esp
  00003	51		 push	 ecx
  00004	c7 45 fc cc cc
	cc cc		 mov	 DWORD PTR [ebp-4], -858993460 ; ccccccccH
  0000b	89 4d fc	 mov	 DWORD PTR _this$[ebp], ecx

; 1424 :         return _Mypair._Myval2._Mylast;

  0000e	8b 45 fc	 mov	 eax, DWORD PTR _this$[ebp]
  00011	8b 40 08	 mov	 eax, DWORD PTR [eax+8]

; 1425 :     }

  00014	8b e5		 mov	 esp, ebp
  00016	5d		 pop	 ebp
  00017	c3		 ret	 0
?_Unchecked_end@?$vector@U?$pair@IPBD@std@@V?$allocator@U?$pair@IPBD@std@@@2@@std@@QAEPAU?$pair@IPBD@2@XZ ENDP ; std::vector<std::pair<unsigned int,char const *>,std::allocator<std::pair<unsigned int,char const *> > >::_Unchecked_end
_TEXT	ENDS
; Function compile flags: /Odtp /RTCsu
; File C:\Program Files (x86)\Microsoft Visual Studio\2019\Community\VC\Tools\MSVC\14.23.28105\include\vector
;	COMDAT ?_Unchecked_begin@?$vector@U?$pair@IPBD@std@@V?$allocator@U?$pair@IPBD@std@@@2@@std@@QAEPAU?$pair@IPBD@2@XZ
_TEXT	SEGMENT
_this$ = -4						; size = 4
?_Unchecked_begin@?$vector@U?$pair@IPBD@std@@V?$allocator@U?$pair@IPBD@std@@@2@@std@@QAEPAU?$pair@IPBD@2@XZ PROC ; std::vector<std::pair<unsigned int,char const *>,std::allocator<std::pair<unsigned int,char const *> > >::_Unchecked_begin, COMDAT
; _this$ = ecx

; 1415 :     pointer _Unchecked_begin() noexcept { // return pointer for beginning of mutable sequence

  00000	55		 push	 ebp
  00001	8b ec		 mov	 ebp, esp
  00003	51		 push	 ecx
  00004	c7 45 fc cc cc
	cc cc		 mov	 DWORD PTR [ebp-4], -858993460 ; ccccccccH
  0000b	89 4d fc	 mov	 DWORD PTR _this$[ebp], ecx

; 1416 :         return _Mypair._Myval2._Myfirst;

  0000e	8b 45 fc	 mov	 eax, DWORD PTR _this$[ebp]
  00011	8b 40 04	 mov	 eax, DWORD PTR [eax+4]

; 1417 :     }

  00014	8b e5		 mov	 esp, ebp
  00016	5d		 pop	 ebp
  00017	c3		 ret	 0
?_Unchecked_begin@?$vector@U?$pair@IPBD@std@@V?$allocator@U?$pair@IPBD@std@@@2@@std@@QAEPAU?$pair@IPBD@2@XZ ENDP ; std::vector<std::pair<unsigned int,char const *>,std::allocator<std::pair<unsigned int,char const *> > >::_Unchecked_begin
_TEXT	ENDS
; Function compile flags: /Odtp /RTCsu
; File C:\Program Files (x86)\Microsoft Visual Studio\2019\Community\VC\Tools\MSVC\14.23.28105\include\vector
;	COMDAT ??1?$vector@U?$pair@IPBD@std@@V?$allocator@U?$pair@IPBD@std@@@2@@std@@QAE@XZ
_TEXT	SEGMENT
$T2 = -36						; size = 4
_$S1$ = -25						; size = 1
__Alproxy$ = -20					; size = 4
_this$ = -16						; size = 4
__$EHRec$ = -12						; size = 12
??1?$vector@U?$pair@IPBD@std@@V?$allocator@U?$pair@IPBD@std@@@2@@std@@QAE@XZ PROC ; std::vector<std::pair<unsigned int,char const *>,std::allocator<std::pair<unsigned int,char const *> > >::~vector<std::pair<unsigned int,char const *>,std::allocator<std::pair<unsigned int,char const *> > >, COMDAT
; _this$ = ecx

; 623  :     ~vector() noexcept {

  00000	55		 push	 ebp
  00001	8b ec		 mov	 ebp, esp
  00003	6a ff		 push	 -1
  00005	68 00 00 00 00	 push	 __ehhandler$??1?$vector@U?$pair@IPBD@std@@V?$allocator@U?$pair@IPBD@std@@@2@@std@@QAE@XZ
  0000a	64 a1 00 00 00
	00		 mov	 eax, DWORD PTR fs:0
  00010	50		 push	 eax
  00011	83 ec 18	 sub	 esp, 24			; 00000018H
  00014	b8 cc cc cc cc	 mov	 eax, -858993460		; ccccccccH
  00019	89 45 dc	 mov	 DWORD PTR [ebp-36], eax
  0001c	89 45 e0	 mov	 DWORD PTR [ebp-32], eax
  0001f	89 45 e4	 mov	 DWORD PTR [ebp-28], eax
  00022	89 45 e8	 mov	 DWORD PTR [ebp-24], eax
  00025	89 45 ec	 mov	 DWORD PTR [ebp-20], eax
  00028	89 45 f0	 mov	 DWORD PTR [ebp-16], eax
  0002b	a1 00 00 00 00	 mov	 eax, DWORD PTR ___security_cookie
  00030	33 c5		 xor	 eax, ebp
  00032	50		 push	 eax
  00033	8d 45 f4	 lea	 eax, DWORD PTR __$EHRec$[ebp]
  00036	64 a3 00 00 00
	00		 mov	 DWORD PTR fs:0, eax
  0003c	89 4d f0	 mov	 DWORD PTR _this$[ebp], ecx

; 624  :         _Tidy();

  0003f	8b 4d f0	 mov	 ecx, DWORD PTR _this$[ebp]
  00042	e8 00 00 00 00	 call	 ?_Tidy@?$vector@U?$pair@IPBD@std@@V?$allocator@U?$pair@IPBD@std@@@2@@std@@AAEXXZ ; std::vector<std::pair<unsigned int,char const *>,std::allocator<std::pair<unsigned int,char const *> > >::_Tidy

; 625  : #if _ITERATOR_DEBUG_LEVEL != 0
; 626  :         auto&& _Alproxy = _GET_PROXY_ALLOCATOR(_Alty, _Getal());

  00047	8b 4d f0	 mov	 ecx, DWORD PTR _this$[ebp]
  0004a	e8 00 00 00 00	 call	 ?_Getal@?$vector@U?$pair@IPBD@std@@V?$allocator@U?$pair@IPBD@std@@@2@@std@@AAEAAV?$allocator@U?$pair@IPBD@std@@@2@XZ ; std::vector<std::pair<unsigned int,char const *>,std::allocator<std::pair<unsigned int,char const *> > >::_Getal
  0004f	50		 push	 eax
  00050	8d 4d e7	 lea	 ecx, DWORD PTR _$S1$[ebp]
  00053	e8 00 00 00 00	 call	 ??$?0U?$pair@IPBD@std@@@?$allocator@U_Container_proxy@std@@@std@@QAE@ABV?$allocator@U?$pair@IPBD@std@@@1@@Z ; std::allocator<std::_Container_proxy>::allocator<std::_Container_proxy><std::pair<unsigned int,char const *> >
  00058	8d 45 e7	 lea	 eax, DWORD PTR _$S1$[ebp]
  0005b	89 45 ec	 mov	 DWORD PTR __Alproxy$[ebp], eax

; 627  :         _Delete_plain_internal(_Alproxy, _STD exchange(_Mypair._Myval2._Myproxy, nullptr));

  0005e	c7 45 dc 00 00
	00 00		 mov	 DWORD PTR $T2[ebp], 0
  00065	8d 4d dc	 lea	 ecx, DWORD PTR $T2[ebp]
  00068	51		 push	 ecx
  00069	8b 55 f0	 mov	 edx, DWORD PTR _this$[ebp]
  0006c	52		 push	 edx
  0006d	e8 00 00 00 00	 call	 ??$exchange@PAU_Container_proxy@std@@$$T@std@@YAPAU_Container_proxy@0@AAPAU10@$$QA$$T@Z ; std::exchange<std::_Container_proxy *,std::nullptr_t>
  00072	83 c4 08	 add	 esp, 8
  00075	50		 push	 eax
  00076	8b 45 ec	 mov	 eax, DWORD PTR __Alproxy$[ebp]
  00079	50		 push	 eax
  0007a	e8 00 00 00 00	 call	 ??$_Delete_plain_internal@V?$allocator@U_Container_proxy@std@@@std@@@std@@YAXAAV?$allocator@U_Container_proxy@std@@@0@QAU_Container_proxy@0@@Z ; std::_Delete_plain_internal<std::allocator<std::_Container_proxy> >
  0007f	83 c4 08	 add	 esp, 8

; 628  : #endif // _ITERATOR_DEBUG_LEVEL != 0
; 629  :     }

  00082	52		 push	 edx
  00083	8b cd		 mov	 ecx, ebp
  00085	50		 push	 eax
  00086	8d 15 00 00 00
	00		 lea	 edx, DWORD PTR $LN6@vector
  0008c	e8 00 00 00 00	 call	 @_RTC_CheckStackVars@8
  00091	58		 pop	 eax
  00092	5a		 pop	 edx
  00093	8b 4d f4	 mov	 ecx, DWORD PTR __$EHRec$[ebp]
  00096	64 89 0d 00 00
	00 00		 mov	 DWORD PTR fs:0, ecx
  0009d	59		 pop	 ecx
  0009e	83 c4 24	 add	 esp, 36			; 00000024H
  000a1	3b ec		 cmp	 ebp, esp
  000a3	e8 00 00 00 00	 call	 __RTC_CheckEsp
  000a8	8b e5		 mov	 esp, ebp
  000aa	5d		 pop	 ebp
  000ab	c3		 ret	 0
$LN6@vector:
  000ac	01 00 00 00	 DD	 1
  000b0	00 00 00 00	 DD	 $LN5@vector
$LN5@vector:
  000b4	e7 ff ff ff	 DD	 -25			; ffffffe7H
  000b8	01 00 00 00	 DD	 1
  000bc	00 00 00 00	 DD	 $LN3@vector
$LN3@vector:
  000c0	24		 DB	 36			; 00000024H
  000c1	53		 DB	 83			; 00000053H
  000c2	31		 DB	 49			; 00000031H
  000c3	00		 DB	 0
_TEXT	ENDS
;	COMDAT text$x
text$x	SEGMENT
__ehhandler$??1?$vector@U?$pair@IPBD@std@@V?$allocator@U?$pair@IPBD@std@@@2@@std@@QAE@XZ:
  00000	8b 54 24 08	 mov	 edx, DWORD PTR [esp+8]
  00004	8d 42 0c	 lea	 eax, DWORD PTR [edx+12]
  00007	8b 4a e4	 mov	 ecx, DWORD PTR [edx-28]
  0000a	33 c8		 xor	 ecx, eax
  0000c	e8 00 00 00 00	 call	 @__security_check_cookie@4
  00011	b8 00 00 00 00	 mov	 eax, OFFSET __ehfuncinfo$??1?$vector@U?$pair@IPBD@std@@V?$allocator@U?$pair@IPBD@std@@@2@@std@@QAE@XZ
  00016	e9 00 00 00 00	 jmp	 ___CxxFrameHandler3
text$x	ENDS
??1?$vector@U?$pair@IPBD@std@@V?$allocator@U?$pair@IPBD@std@@@2@@std@@QAE@XZ ENDP ; std::vector<std::pair<unsigned int,char const *>,std::allocator<std::pair<unsigned int,char const *> > >::~vector<std::pair<unsigned int,char const *>,std::allocator<std::pair<unsigned int,char const *> > >
; Function compile flags: /Odtp /RTCsu
; File C:\Program Files (x86)\Microsoft Visual Studio\2019\Community\VC\Tools\MSVC\14.23.28105\include\vector
;	COMDAT ??0?$vector@U?$pair@IPBD@std@@V?$allocator@U?$pair@IPBD@std@@@2@@std@@QAE@V?$initializer_list@U?$pair@IPBD@std@@@1@ABV?$allocator@U?$pair@IPBD@std@@@1@@Z
_TEXT	SEGMENT
$T2 = -51						; size = 1
$T3 = -49						; size = 1
__Proxy$ = -44						; size = 8
_$S2$ = -25						; size = 1
__Alproxy$ = -20					; size = 4
_this$ = -16						; size = 4
__$EHRec$ = -12						; size = 12
__Ilist$ = 8						; size = 8
__Al$ = 16						; size = 4
??0?$vector@U?$pair@IPBD@std@@V?$allocator@U?$pair@IPBD@std@@@2@@std@@QAE@V?$initializer_list@U?$pair@IPBD@std@@@1@ABV?$allocator@U?$pair@IPBD@std@@@1@@Z PROC ; std::vector<std::pair<unsigned int,char const *>,std::allocator<std::pair<unsigned int,char const *> > >::vector<std::pair<unsigned int,char const *>,std::allocator<std::pair<unsigned int,char const *> > >, COMDAT
; _this$ = ecx

; 458  :     vector(initializer_list<_Ty> _Ilist, const _Alloc& _Al = _Alloc())

  00000	55		 push	 ebp
  00001	8b ec		 mov	 ebp, esp
  00003	6a ff		 push	 -1
  00005	68 00 00 00 00	 push	 __ehhandler$??0?$vector@U?$pair@IPBD@std@@V?$allocator@U?$pair@IPBD@std@@@2@@std@@QAE@V?$initializer_list@U?$pair@IPBD@std@@@1@ABV?$allocator@U?$pair@IPBD@std@@@1@@Z
  0000a	64 a1 00 00 00
	00		 mov	 eax, DWORD PTR fs:0
  00010	50		 push	 eax
  00011	83 ec 28	 sub	 esp, 40			; 00000028H
  00014	57		 push	 edi
  00015	51		 push	 ecx
  00016	8d 7d cc	 lea	 edi, DWORD PTR [ebp-52]
  00019	b9 0a 00 00 00	 mov	 ecx, 10			; 0000000aH
  0001e	b8 cc cc cc cc	 mov	 eax, -858993460		; ccccccccH
  00023	f3 ab		 rep stosd
  00025	59		 pop	 ecx
  00026	a1 00 00 00 00	 mov	 eax, DWORD PTR ___security_cookie
  0002b	33 c5		 xor	 eax, ebp
  0002d	50		 push	 eax
  0002e	8d 45 f4	 lea	 eax, DWORD PTR __$EHRec$[ebp]
  00031	64 a3 00 00 00
	00		 mov	 DWORD PTR fs:0, eax
  00037	89 4d f0	 mov	 DWORD PTR _this$[ebp], ecx

; 459  :         : _Mypair(_One_then_variadic_args_t(), _Al) { // construct from initializer_list, optional allocator

  0003a	8b 45 10	 mov	 eax, DWORD PTR __Al$[ebp]
  0003d	50		 push	 eax
  0003e	0f b6 4d cf	 movzx	 ecx, BYTE PTR $T3[ebp]
  00042	51		 push	 ecx
  00043	8b 4d f0	 mov	 ecx, DWORD PTR _this$[ebp]
  00046	e8 00 00 00 00	 call	 ??$?0ABV?$allocator@U?$pair@IPBD@std@@@std@@$$V@?$_Compressed_pair@V?$allocator@U?$pair@IPBD@std@@@std@@V?$_Vector_val@U?$_Simple_types@U?$pair@IPBD@std@@@std@@@2@$00@std@@QAE@U_One_then_variadic_args_t@1@ABV?$allocator@U?$pair@IPBD@std@@@1@@Z ; std::_Compressed_pair<std::allocator<std::pair<unsigned int,char const *> >,std::_Vector_val<std::_Simple_types<std::pair<unsigned int,char const *> > >,1>::_Compressed_pair<std::allocator<std::pair<unsigned int,char const *> >,std::_Vector_val<std::_Simple_types<std::pair<unsigned int,char const *> > >,1><std::allocator<std::pair<unsigned int,char const *> > const &>

; 460  :         auto&& _Alproxy = _GET_PROXY_ALLOCATOR(_Alty, _Getal());

  0004b	8b 4d f0	 mov	 ecx, DWORD PTR _this$[ebp]
  0004e	e8 00 00 00 00	 call	 ?_Getal@?$vector@U?$pair@IPBD@std@@V?$allocator@U?$pair@IPBD@std@@@2@@std@@AAEAAV?$allocator@U?$pair@IPBD@std@@@2@XZ ; std::vector<std::pair<unsigned int,char const *>,std::allocator<std::pair<unsigned int,char const *> > >::_Getal
  00053	50		 push	 eax
  00054	8d 4d e7	 lea	 ecx, DWORD PTR _$S2$[ebp]
  00057	e8 00 00 00 00	 call	 ??$?0U?$pair@IPBD@std@@@?$allocator@U_Container_proxy@std@@@std@@QAE@ABV?$allocator@U?$pair@IPBD@std@@@1@@Z ; std::allocator<std::_Container_proxy>::allocator<std::_Container_proxy><std::pair<unsigned int,char const *> >
  0005c	8d 55 e7	 lea	 edx, DWORD PTR _$S2$[ebp]
  0005f	89 55 ec	 mov	 DWORD PTR __Alproxy$[ebp], edx

; 461  :         _Container_proxy_ptr<_Alty> _Proxy(_Alproxy, _Mypair._Myval2);

  00062	8b 45 f0	 mov	 eax, DWORD PTR _this$[ebp]
  00065	50		 push	 eax
  00066	8b 4d ec	 mov	 ecx, DWORD PTR __Alproxy$[ebp]
  00069	51		 push	 ecx
  0006a	8d 4d d4	 lea	 ecx, DWORD PTR __Proxy$[ebp]
  0006d	e8 00 00 00 00	 call	 ??0?$_Container_proxy_ptr12@V?$allocator@U_Container_proxy@std@@@std@@@std@@QAE@AAV?$allocator@U_Container_proxy@std@@@1@AAU_Container_base12@1@@Z ; std::_Container_proxy_ptr12<std::allocator<std::_Container_proxy> >::_Container_proxy_ptr12<std::allocator<std::_Container_proxy> >
  00072	c7 45 fc 00 00
	00 00		 mov	 DWORD PTR __$EHRec$[ebp+8], 0

; 462  :         _Range_construct_or_tidy(_Ilist.begin(), _Ilist.end(), random_access_iterator_tag{});

  00079	0f b6 55 cd	 movzx	 edx, BYTE PTR $T2[ebp]
  0007d	52		 push	 edx
  0007e	8d 4d 08	 lea	 ecx, DWORD PTR __Ilist$[ebp]
  00081	e8 00 00 00 00	 call	 ?end@?$initializer_list@U?$pair@IPBD@std@@@std@@QBEPBU?$pair@IPBD@2@XZ ; std::initializer_list<std::pair<unsigned int,char const *> >::end
  00086	50		 push	 eax
  00087	8d 4d 08	 lea	 ecx, DWORD PTR __Ilist$[ebp]
  0008a	e8 00 00 00 00	 call	 ?begin@?$initializer_list@U?$pair@IPBD@std@@@std@@QBEPBU?$pair@IPBD@2@XZ ; std::initializer_list<std::pair<unsigned int,char const *> >::begin
  0008f	50		 push	 eax
  00090	8b 4d f0	 mov	 ecx, DWORD PTR _this$[ebp]
  00093	e8 00 00 00 00	 call	 ??$_Range_construct_or_tidy@PBU?$pair@IPBD@std@@@?$vector@U?$pair@IPBD@std@@V?$allocator@U?$pair@IPBD@std@@@2@@std@@AAEXPBU?$pair@IPBD@1@0Uforward_iterator_tag@1@@Z ; std::vector<std::pair<unsigned int,char const *>,std::allocator<std::pair<unsigned int,char const *> > >::_Range_construct_or_tidy<std::pair<unsigned int,char const *> const *>

; 463  :         _Proxy._Release();

  00098	8d 4d d4	 lea	 ecx, DWORD PTR __Proxy$[ebp]
  0009b	e8 00 00 00 00	 call	 ?_Release@_Basic_container_proxy_ptr12@std@@QAEXXZ ; std::_Basic_container_proxy_ptr12::_Release

; 464  :     }

  000a0	c7 45 fc ff ff
	ff ff		 mov	 DWORD PTR __$EHRec$[ebp+8], -1
  000a7	8d 4d d4	 lea	 ecx, DWORD PTR __Proxy$[ebp]
  000aa	e8 00 00 00 00	 call	 ??1?$_Container_proxy_ptr12@V?$allocator@U_Container_proxy@std@@@std@@@std@@QAE@XZ ; std::_Container_proxy_ptr12<std::allocator<std::_Container_proxy> >::~_Container_proxy_ptr12<std::allocator<std::_Container_proxy> >
  000af	8b 45 f0	 mov	 eax, DWORD PTR _this$[ebp]
  000b2	52		 push	 edx
  000b3	8b cd		 mov	 ecx, ebp
  000b5	50		 push	 eax
  000b6	8d 15 00 00 00
	00		 lea	 edx, DWORD PTR $LN8@vector
  000bc	e8 00 00 00 00	 call	 @_RTC_CheckStackVars@8
  000c1	58		 pop	 eax
  000c2	5a		 pop	 edx
  000c3	8b 4d f4	 mov	 ecx, DWORD PTR __$EHRec$[ebp]
  000c6	64 89 0d 00 00
	00 00		 mov	 DWORD PTR fs:0, ecx
  000cd	59		 pop	 ecx
  000ce	5f		 pop	 edi
  000cf	83 c4 34	 add	 esp, 52			; 00000034H
  000d2	3b ec		 cmp	 ebp, esp
  000d4	e8 00 00 00 00	 call	 __RTC_CheckEsp
  000d9	8b e5		 mov	 esp, ebp
  000db	5d		 pop	 ebp
  000dc	c2 0c 00	 ret	 12			; 0000000cH
  000df	90		 npad	 1
$LN8@vector:
  000e0	02 00 00 00	 DD	 2
  000e4	00 00 00 00	 DD	 $LN7@vector
$LN7@vector:
  000e8	e7 ff ff ff	 DD	 -25			; ffffffe7H
  000ec	01 00 00 00	 DD	 1
  000f0	00 00 00 00	 DD	 $LN4@vector
  000f4	d4 ff ff ff	 DD	 -44			; ffffffd4H
  000f8	08 00 00 00	 DD	 8
  000fc	00 00 00 00	 DD	 $LN5@vector
$LN5@vector:
  00100	5f		 DB	 95			; 0000005fH
  00101	50		 DB	 80			; 00000050H
  00102	72		 DB	 114			; 00000072H
  00103	6f		 DB	 111			; 0000006fH
  00104	78		 DB	 120			; 00000078H
  00105	79		 DB	 121			; 00000079H
  00106	00		 DB	 0
$LN4@vector:
  00107	24		 DB	 36			; 00000024H
  00108	53		 DB	 83			; 00000053H
  00109	32		 DB	 50			; 00000032H
  0010a	00		 DB	 0
_TEXT	ENDS
;	COMDAT text$x
text$x	SEGMENT
__unwindfunclet$??0?$vector@U?$pair@IPBD@std@@V?$allocator@U?$pair@IPBD@std@@@2@@std@@QAE@V?$initializer_list@U?$pair@IPBD@std@@@1@ABV?$allocator@U?$pair@IPBD@std@@@1@@Z$0:
  00000	8d 4d d4	 lea	 ecx, DWORD PTR __Proxy$[ebp]
  00003	e9 00 00 00 00	 jmp	 ??1?$_Container_proxy_ptr12@V?$allocator@U_Container_proxy@std@@@std@@@std@@QAE@XZ ; std::_Container_proxy_ptr12<std::allocator<std::_Container_proxy> >::~_Container_proxy_ptr12<std::allocator<std::_Container_proxy> >
__ehhandler$??0?$vector@U?$pair@IPBD@std@@V?$allocator@U?$pair@IPBD@std@@@2@@std@@QAE@V?$initializer_list@U?$pair@IPBD@std@@@1@ABV?$allocator@U?$pair@IPBD@std@@@1@@Z:
  00008	8b 54 24 08	 mov	 edx, DWORD PTR [esp+8]
  0000c	8d 42 0c	 lea	 eax, DWORD PTR [edx+12]
  0000f	8b 4a d0	 mov	 ecx, DWORD PTR [edx-48]
  00012	33 c8		 xor	 ecx, eax
  00014	e8 00 00 00 00	 call	 @__security_check_cookie@4
  00019	b8 00 00 00 00	 mov	 eax, OFFSET __ehfuncinfo$??0?$vector@U?$pair@IPBD@std@@V?$allocator@U?$pair@IPBD@std@@@2@@std@@QAE@V?$initializer_list@U?$pair@IPBD@std@@@1@ABV?$allocator@U?$pair@IPBD@std@@@1@@Z
  0001e	e9 00 00 00 00	 jmp	 ___CxxFrameHandler3
text$x	ENDS
??0?$vector@U?$pair@IPBD@std@@V?$allocator@U?$pair@IPBD@std@@@2@@std@@QAE@V?$initializer_list@U?$pair@IPBD@std@@@1@ABV?$allocator@U?$pair@IPBD@std@@@1@@Z ENDP ; std::vector<std::pair<unsigned int,char const *>,std::allocator<std::pair<unsigned int,char const *> > >::vector<std::pair<unsigned int,char const *>,std::allocator<std::pair<unsigned int,char const *> > >
; Function compile flags: /Odtp /RTCsu
; File C:\Program Files (x86)\Microsoft Visual Studio\2019\Community\VC\Tools\MSVC\14.23.28105\include\xmemory
;	COMDAT ?max_size@?$_Default_allocator_traits@V?$allocator@U?$pair@IPBD@std@@@std@@@std@@SAIABV?$allocator@U?$pair@IPBD@std@@@2@@Z
_TEXT	SEGMENT
___formal$ = 8						; size = 4
?max_size@?$_Default_allocator_traits@V?$allocator@U?$pair@IPBD@std@@@std@@@std@@SAIABV?$allocator@U?$pair@IPBD@std@@@2@@Z PROC ; std::_Default_allocator_traits<std::allocator<std::pair<unsigned int,char const *> > >::max_size, COMDAT

; 766  :     _NODISCARD static size_type max_size(const _Alloc&) noexcept {

  00000	55		 push	 ebp
  00001	8b ec		 mov	 ebp, esp

; 767  :         return static_cast<size_t>(-1) / sizeof(value_type);

  00003	b8 ff ff ff 1f	 mov	 eax, 536870911		; 1fffffffH

; 768  :     }

  00008	5d		 pop	 ebp
  00009	c3		 ret	 0
?max_size@?$_Default_allocator_traits@V?$allocator@U?$pair@IPBD@std@@@std@@@std@@SAIABV?$allocator@U?$pair@IPBD@std@@@2@@Z ENDP ; std::_Default_allocator_traits<std::allocator<std::pair<unsigned int,char const *> > >::max_size
_TEXT	ENDS
; Function compile flags: /Odtp /RTCsu
; File C:\Program Files (x86)\Microsoft Visual Studio\2019\Community\VC\Tools\MSVC\14.23.28105\include\xmemory
;	COMDAT ?allocate@?$allocator@U?$pair@IPBD@std@@@std@@QAEPAU?$pair@IPBD@2@I@Z
_TEXT	SEGMENT
_this$ = -4						; size = 4
__Count$ = 8						; size = 4
?allocate@?$allocator@U?$pair@IPBD@std@@@std@@QAEPAU?$pair@IPBD@2@I@Z PROC ; std::allocator<std::pair<unsigned int,char const *> >::allocate, COMDAT
; _this$ = ecx

; 870  :     _NODISCARD _DECLSPEC_ALLOCATOR _Ty* allocate(_CRT_GUARDOVERFLOW const size_t _Count) {

  00000	55		 push	 ebp
  00001	8b ec		 mov	 ebp, esp
  00003	51		 push	 ecx
  00004	c7 45 fc cc cc
	cc cc		 mov	 DWORD PTR [ebp-4], -858993460 ; ccccccccH
  0000b	89 4d fc	 mov	 DWORD PTR _this$[ebp], ecx

; 871  :         return static_cast<_Ty*>(_Allocate<_New_alignof<_Ty>>(_Get_size_of_n<sizeof(_Ty)>(_Count)));

  0000e	8b 45 08	 mov	 eax, DWORD PTR __Count$[ebp]
  00011	50		 push	 eax
  00012	e8 00 00 00 00	 call	 ??$_Get_size_of_n@$07@std@@YAII@Z ; std::_Get_size_of_n<8>
  00017	83 c4 04	 add	 esp, 4
  0001a	50		 push	 eax
  0001b	e8 00 00 00 00	 call	 ??$_Allocate@$07U_Default_allocate_traits@std@@$0A@@std@@YAPAXI@Z ; std::_Allocate<8,std::_Default_allocate_traits,0>
  00020	83 c4 04	 add	 esp, 4

; 872  :     }

  00023	83 c4 04	 add	 esp, 4
  00026	3b ec		 cmp	 ebp, esp
  00028	e8 00 00 00 00	 call	 __RTC_CheckEsp
  0002d	8b e5		 mov	 esp, ebp
  0002f	5d		 pop	 ebp
  00030	c2 04 00	 ret	 4
?allocate@?$allocator@U?$pair@IPBD@std@@@std@@QAEPAU?$pair@IPBD@2@I@Z ENDP ; std::allocator<std::pair<unsigned int,char const *> >::allocate
_TEXT	ENDS
; Function compile flags: /Odtp /RTCsu
; File C:\Program Files (x86)\Microsoft Visual Studio\2019\Community\VC\Tools\MSVC\14.23.28105\include\xmemory
;	COMDAT ?deallocate@?$allocator@U?$pair@IPBD@std@@@std@@QAEXQAU?$pair@IPBD@2@I@Z
_TEXT	SEGMENT
_this$ = -4						; size = 4
__Ptr$ = 8						; size = 4
__Count$ = 12						; size = 4
?deallocate@?$allocator@U?$pair@IPBD@std@@@std@@QAEXQAU?$pair@IPBD@2@I@Z PROC ; std::allocator<std::pair<unsigned int,char const *> >::deallocate, COMDAT
; _this$ = ecx

; 865  :     void deallocate(_Ty* const _Ptr, const size_t _Count) {

  00000	55		 push	 ebp
  00001	8b ec		 mov	 ebp, esp
  00003	51		 push	 ecx
  00004	c7 45 fc cc cc
	cc cc		 mov	 DWORD PTR [ebp-4], -858993460 ; ccccccccH
  0000b	89 4d fc	 mov	 DWORD PTR _this$[ebp], ecx

; 866  :         // no overflow check on the following multiply; we assume _Allocate did that check
; 867  :         _Deallocate<_New_alignof<_Ty>>(_Ptr, sizeof(_Ty) * _Count);

  0000e	8b 45 0c	 mov	 eax, DWORD PTR __Count$[ebp]
  00011	c1 e0 03	 shl	 eax, 3
  00014	50		 push	 eax
  00015	8b 4d 08	 mov	 ecx, DWORD PTR __Ptr$[ebp]
  00018	51		 push	 ecx
  00019	e8 00 00 00 00	 call	 ??$_Deallocate@$07$0A@@std@@YAXPAXI@Z ; std::_Deallocate<8,0>
  0001e	83 c4 08	 add	 esp, 8

; 868  :     }

  00021	83 c4 04	 add	 esp, 4
  00024	3b ec		 cmp	 ebp, esp
  00026	e8 00 00 00 00	 call	 __RTC_CheckEsp
  0002b	8b e5		 mov	 esp, ebp
  0002d	5d		 pop	 ebp
  0002e	c2 08 00	 ret	 8
?deallocate@?$allocator@U?$pair@IPBD@std@@@std@@QAEXQAU?$pair@IPBD@2@I@Z ENDP ; std::allocator<std::pair<unsigned int,char const *> >::deallocate
_TEXT	ENDS
; Function compile flags: /Odtp /RTCsu
; File C:\Program Files (x86)\Microsoft Visual Studio\2019\Community\VC\Tools\MSVC\14.23.28105\include\xmemory
;	COMDAT ??0?$allocator@U?$pair@IPBD@std@@@std@@QAE@XZ
_TEXT	SEGMENT
_this$ = -4						; size = 4
??0?$allocator@U?$pair@IPBD@std@@@std@@QAE@XZ PROC	; std::allocator<std::pair<unsigned int,char const *> >::allocator<std::pair<unsigned int,char const *> >, COMDAT
; _this$ = ecx

; 859  :     constexpr allocator() noexcept {}

  00000	55		 push	 ebp
  00001	8b ec		 mov	 ebp, esp
  00003	51		 push	 ecx
  00004	c7 45 fc cc cc
	cc cc		 mov	 DWORD PTR [ebp-4], -858993460 ; ccccccccH
  0000b	89 4d fc	 mov	 DWORD PTR _this$[ebp], ecx
  0000e	8b 45 fc	 mov	 eax, DWORD PTR _this$[ebp]
  00011	8b e5		 mov	 esp, ebp
  00013	5d		 pop	 ebp
  00014	c3		 ret	 0
??0?$allocator@U?$pair@IPBD@std@@@std@@QAE@XZ ENDP	; std::allocator<std::pair<unsigned int,char const *> >::allocator<std::pair<unsigned int,char const *> >
_TEXT	ENDS
; Function compile flags: /Odtp /RTCsu
; File D:\work\intel\intel_codec\QSVPipeline\convert_csp.cpp
_TEXT	SEGMENT
$T1 = -172						; size = 12
$T2 = -160						; size = 12
_x$3 = -148						; size = 4
_dst_ptr$4 = -144					; size = 4
_src_v_ptr$5 = -140					; size = 4
_src_u_ptr$6 = -136					; size = 4
_x_fin$7 = -132						; size = 4
_y$8 = -128						; size = 4
_uv_fin$ = -124						; size = 4
_dstLine$ = -120					; size = 4
_srcVLine$ = -116					; size = 4
_srcULine$ = -112					; size = 4
$T9 = -108						; size = 12
_uv_range$ = -92					; size = 12
_x$10 = -76						; size = 4
_dst_ptr$11 = -72					; size = 4
_y$12 = -68						; size = 4
_y_width$13 = -64					; size = 4
_dstLine$14 = -60					; size = 4
_srcYLine$15 = -56					; size = 4
$T16 = -52						; size = 12
_y_range$17 = -36					; size = 12
_crop_bottom$ = -20					; size = 4
_crop_right$ = -16					; size = 4
_crop_up$ = -12						; size = 4
_crop_left$ = -8					; size = 4
__$ArrayPad$ = -4					; size = 4
_dst$ = 8						; size = 4
_src$ = 12						; size = 4
_width$ = 16						; size = 4
_src_y_pitch_byte$ = 20					; size = 4
_src_uv_pitch_byte$ = 24				; size = 4
_dst_y_pitch_byte$ = 28					; size = 4
_height$ = 32						; size = 4
_dst_height$ = 36					; size = 4
_thread_id$ = 40					; size = 4
_thread_n$ = 44						; size = 4
_crop$ = 48						; size = 4
??$convert_yv12_to_p010_c@$0A@@@YAXPAPAXPAPBXHHHHHHHHPAH@Z PROC ; convert_yv12_to_p010_c<0>

; 874  : static void convert_yv12_to_p010_c(void **dst, const void **src, int width, int src_y_pitch_byte, int src_uv_pitch_byte, int dst_y_pitch_byte, int height, int dst_height, int thread_id, int thread_n, int *crop) {

  00000	55		 push	 ebp
  00001	8b ec		 mov	 ebp, esp
  00003	81 ec ac 00 00
	00		 sub	 esp, 172		; 000000acH
  00009	57		 push	 edi
  0000a	8d bd 54 ff ff
	ff		 lea	 edi, DWORD PTR [ebp-172]
  00010	b9 2b 00 00 00	 mov	 ecx, 43			; 0000002bH
  00015	b8 cc cc cc cc	 mov	 eax, -858993460		; ccccccccH
  0001a	f3 ab		 rep stosd
  0001c	a1 00 00 00 00	 mov	 eax, DWORD PTR ___security_cookie
  00021	33 c5		 xor	 eax, ebp
  00023	89 45 fc	 mov	 DWORD PTR __$ArrayPad$[ebp], eax

; 875  :     const int crop_left   = crop[0];

  00026	b8 04 00 00 00	 mov	 eax, 4
  0002b	6b c8 00	 imul	 ecx, eax, 0
  0002e	8b 55 30	 mov	 edx, DWORD PTR _crop$[ebp]
  00031	8b 04 0a	 mov	 eax, DWORD PTR [edx+ecx]
  00034	89 45 f8	 mov	 DWORD PTR _crop_left$[ebp], eax

; 876  :     const int crop_up     = crop[1];

  00037	b9 04 00 00 00	 mov	 ecx, 4
  0003c	c1 e1 00	 shl	 ecx, 0
  0003f	8b 55 30	 mov	 edx, DWORD PTR _crop$[ebp]
  00042	8b 04 0a	 mov	 eax, DWORD PTR [edx+ecx]
  00045	89 45 f4	 mov	 DWORD PTR _crop_up$[ebp], eax

; 877  :     const int crop_right  = crop[2];

  00048	b9 04 00 00 00	 mov	 ecx, 4
  0004d	d1 e1		 shl	 ecx, 1
  0004f	8b 55 30	 mov	 edx, DWORD PTR _crop$[ebp]
  00052	8b 04 0a	 mov	 eax, DWORD PTR [edx+ecx]
  00055	89 45 f0	 mov	 DWORD PTR _crop_right$[ebp], eax

; 878  :     const int crop_bottom = crop[3];

  00058	b9 04 00 00 00	 mov	 ecx, 4
  0005d	6b d1 03	 imul	 edx, ecx, 3
  00060	8b 45 30	 mov	 eax, DWORD PTR _crop$[ebp]
  00063	8b 0c 10	 mov	 ecx, DWORD PTR [eax+edx]
  00066	89 4d ec	 mov	 DWORD PTR _crop_bottom$[ebp], ecx

; 879  :     //Y
; 880  :     if (!uv_only) {

  00069	ba 01 00 00 00	 mov	 edx, 1
  0006e	85 d2		 test	 edx, edx
  00070	0f 84 f1 00 00
	00		 je	 $LN14@convert_yv

; 881  :         const auto y_range = thread_y_range(crop_up, height - crop_bottom, thread_id, thread_n);

  00076	8b 45 2c	 mov	 eax, DWORD PTR _thread_n$[ebp]
  00079	50		 push	 eax
  0007a	8b 4d 28	 mov	 ecx, DWORD PTR _thread_id$[ebp]
  0007d	51		 push	 ecx
  0007e	8b 55 20	 mov	 edx, DWORD PTR _height$[ebp]
  00081	2b 55 ec	 sub	 edx, DWORD PTR _crop_bottom$[ebp]
  00084	52		 push	 edx
  00085	8b 45 f4	 mov	 eax, DWORD PTR _crop_up$[ebp]
  00088	50		 push	 eax
  00089	8d 8d 60 ff ff
	ff		 lea	 ecx, DWORD PTR $T2[ebp]
  0008f	51		 push	 ecx
  00090	e8 00 00 00 00	 call	 ?thread_y_range@@YA?AUTHREAD_Y_RANGE@@HHHH@Z ; thread_y_range
  00095	83 c4 14	 add	 esp, 20			; 00000014H
  00098	8b 10		 mov	 edx, DWORD PTR [eax]
  0009a	89 55 cc	 mov	 DWORD PTR $T16[ebp], edx
  0009d	8b 48 04	 mov	 ecx, DWORD PTR [eax+4]
  000a0	89 4d d0	 mov	 DWORD PTR $T16[ebp+4], ecx
  000a3	8b 50 08	 mov	 edx, DWORD PTR [eax+8]
  000a6	89 55 d4	 mov	 DWORD PTR $T16[ebp+8], edx
  000a9	8b 45 cc	 mov	 eax, DWORD PTR $T16[ebp]
  000ac	89 45 dc	 mov	 DWORD PTR _y_range$17[ebp], eax
  000af	8b 4d d0	 mov	 ecx, DWORD PTR $T16[ebp+4]
  000b2	89 4d e0	 mov	 DWORD PTR _y_range$17[ebp+4], ecx
  000b5	8b 55 d4	 mov	 edx, DWORD PTR $T16[ebp+8]
  000b8	89 55 e4	 mov	 DWORD PTR _y_range$17[ebp+8], edx

; 882  :         uint8_t *srcYLine = (uint8_t *)src[0] + src_y_pitch_byte * y_range.start_src + crop_left;

  000bb	b8 04 00 00 00	 mov	 eax, 4
  000c0	6b c8 00	 imul	 ecx, eax, 0
  000c3	8b 55 14	 mov	 edx, DWORD PTR _src_y_pitch_byte$[ebp]
  000c6	0f af 55 dc	 imul	 edx, DWORD PTR _y_range$17[ebp]
  000ca	8b 45 0c	 mov	 eax, DWORD PTR _src$[ebp]
  000cd	8b 0c 08	 mov	 ecx, DWORD PTR [eax+ecx]
  000d0	03 ca		 add	 ecx, edx
  000d2	03 4d f8	 add	 ecx, DWORD PTR _crop_left$[ebp]
  000d5	89 4d c8	 mov	 DWORD PTR _srcYLine$15[ebp], ecx

; 883  :         uint8_t *dstLine  = (uint8_t *)dst[0] + dst_y_pitch_byte * y_range.start_dst;

  000d8	ba 04 00 00 00	 mov	 edx, 4
  000dd	6b c2 00	 imul	 eax, edx, 0
  000e0	8b 4d 1c	 mov	 ecx, DWORD PTR _dst_y_pitch_byte$[ebp]
  000e3	0f af 4d e0	 imul	 ecx, DWORD PTR _y_range$17[ebp+4]
  000e7	8b 55 08	 mov	 edx, DWORD PTR _dst$[ebp]
  000ea	03 0c 02	 add	 ecx, DWORD PTR [edx+eax]
  000ed	89 4d c4	 mov	 DWORD PTR _dstLine$14[ebp], ecx

; 884  :         const int y_width = width - crop_right - crop_left;

  000f0	8b 45 10	 mov	 eax, DWORD PTR _width$[ebp]
  000f3	2b 45 f0	 sub	 eax, DWORD PTR _crop_right$[ebp]
  000f6	2b 45 f8	 sub	 eax, DWORD PTR _crop_left$[ebp]
  000f9	89 45 c0	 mov	 DWORD PTR _y_width$13[ebp], eax

; 885  :         for (int y = 0; y < y_range.len; y++, srcYLine += src_y_pitch_byte, dstLine += dst_y_pitch_byte) {

  000fc	c7 45 bc 00 00
	00 00		 mov	 DWORD PTR _y$12[ebp], 0
  00103	eb 1b		 jmp	 SHORT $LN4@convert_yv
$LN2@convert_yv:
  00105	8b 4d bc	 mov	 ecx, DWORD PTR _y$12[ebp]
  00108	83 c1 01	 add	 ecx, 1
  0010b	89 4d bc	 mov	 DWORD PTR _y$12[ebp], ecx
  0010e	8b 55 c8	 mov	 edx, DWORD PTR _srcYLine$15[ebp]
  00111	03 55 14	 add	 edx, DWORD PTR _src_y_pitch_byte$[ebp]
  00114	89 55 c8	 mov	 DWORD PTR _srcYLine$15[ebp], edx
  00117	8b 45 c4	 mov	 eax, DWORD PTR _dstLine$14[ebp]
  0011a	03 45 1c	 add	 eax, DWORD PTR _dst_y_pitch_byte$[ebp]
  0011d	89 45 c4	 mov	 DWORD PTR _dstLine$14[ebp], eax
$LN4@convert_yv:
  00120	8b 4d bc	 mov	 ecx, DWORD PTR _y$12[ebp]
  00123	3b 4d e4	 cmp	 ecx, DWORD PTR _y_range$17[ebp+8]
  00126	7d 3f		 jge	 SHORT $LN14@convert_yv

; 886  :             uint16_t *dst_ptr = (uint16_t *)dstLine;

  00128	8b 55 c4	 mov	 edx, DWORD PTR _dstLine$14[ebp]
  0012b	89 55 b8	 mov	 DWORD PTR _dst_ptr$11[ebp], edx

; 887  :             for (int x = 0; x < y_width; x++) {

  0012e	c7 45 b4 00 00
	00 00		 mov	 DWORD PTR _x$10[ebp], 0
  00135	eb 09		 jmp	 SHORT $LN7@convert_yv
$LN5@convert_yv:
  00137	8b 45 b4	 mov	 eax, DWORD PTR _x$10[ebp]
  0013a	83 c0 01	 add	 eax, 1
  0013d	89 45 b4	 mov	 DWORD PTR _x$10[ebp], eax
$LN7@convert_yv:
  00140	8b 4d b4	 mov	 ecx, DWORD PTR _x$10[ebp]
  00143	3b 4d c0	 cmp	 ecx, DWORD PTR _y_width$13[ebp]
  00146	7d 1d		 jge	 SHORT $LN6@convert_yv

; 888  :                 dst_ptr[x] = (uint16_t)((((uint32_t)srcYLine[x]) << 8) + (2 << 6));

  00148	8b 55 c8	 mov	 edx, DWORD PTR _srcYLine$15[ebp]
  0014b	03 55 b4	 add	 edx, DWORD PTR _x$10[ebp]
  0014e	0f b6 02	 movzx	 eax, BYTE PTR [edx]
  00151	c1 e0 08	 shl	 eax, 8
  00154	05 80 00 00 00	 add	 eax, 128		; 00000080H
  00159	8b 4d b4	 mov	 ecx, DWORD PTR _x$10[ebp]
  0015c	8b 55 b8	 mov	 edx, DWORD PTR _dst_ptr$11[ebp]
  0015f	66 89 04 4a	 mov	 WORD PTR [edx+ecx*2], ax

; 889  :             }

  00163	eb d2		 jmp	 SHORT $LN5@convert_yv
$LN6@convert_yv:

; 890  :         }

  00165	eb 9e		 jmp	 SHORT $LN2@convert_yv
$LN14@convert_yv:

; 891  :     }
; 892  :     //UV
; 893  :     const auto uv_range = thread_y_range(crop_up >> 1, (height - crop_bottom) >> 1, thread_id, thread_n);

  00167	8b 45 2c	 mov	 eax, DWORD PTR _thread_n$[ebp]
  0016a	50		 push	 eax
  0016b	8b 4d 28	 mov	 ecx, DWORD PTR _thread_id$[ebp]
  0016e	51		 push	 ecx
  0016f	8b 55 20	 mov	 edx, DWORD PTR _height$[ebp]
  00172	2b 55 ec	 sub	 edx, DWORD PTR _crop_bottom$[ebp]
  00175	d1 fa		 sar	 edx, 1
  00177	52		 push	 edx
  00178	8b 45 f4	 mov	 eax, DWORD PTR _crop_up$[ebp]
  0017b	d1 f8		 sar	 eax, 1
  0017d	50		 push	 eax
  0017e	8d 8d 54 ff ff
	ff		 lea	 ecx, DWORD PTR $T1[ebp]
  00184	51		 push	 ecx
  00185	e8 00 00 00 00	 call	 ?thread_y_range@@YA?AUTHREAD_Y_RANGE@@HHHH@Z ; thread_y_range
  0018a	83 c4 14	 add	 esp, 20			; 00000014H
  0018d	8b 10		 mov	 edx, DWORD PTR [eax]
  0018f	89 55 94	 mov	 DWORD PTR $T9[ebp], edx
  00192	8b 48 04	 mov	 ecx, DWORD PTR [eax+4]
  00195	89 4d 98	 mov	 DWORD PTR $T9[ebp+4], ecx
  00198	8b 50 08	 mov	 edx, DWORD PTR [eax+8]
  0019b	89 55 9c	 mov	 DWORD PTR $T9[ebp+8], edx
  0019e	8b 45 94	 mov	 eax, DWORD PTR $T9[ebp]
  001a1	89 45 a4	 mov	 DWORD PTR _uv_range$[ebp], eax
  001a4	8b 4d 98	 mov	 ecx, DWORD PTR $T9[ebp+4]
  001a7	89 4d a8	 mov	 DWORD PTR _uv_range$[ebp+4], ecx
  001aa	8b 55 9c	 mov	 edx, DWORD PTR $T9[ebp+8]
  001ad	89 55 ac	 mov	 DWORD PTR _uv_range$[ebp+8], edx

; 894  :     uint8_t *srcULine = (uint8_t *)src[1] + ((src_uv_pitch_byte * uv_range.start_src) + (crop_left >> 1));

  001b0	b8 04 00 00 00	 mov	 eax, 4
  001b5	c1 e0 00	 shl	 eax, 0
  001b8	8b 4d 18	 mov	 ecx, DWORD PTR _src_uv_pitch_byte$[ebp]
  001bb	0f af 4d a4	 imul	 ecx, DWORD PTR _uv_range$[ebp]
  001bf	8b 55 f8	 mov	 edx, DWORD PTR _crop_left$[ebp]
  001c2	d1 fa		 sar	 edx, 1
  001c4	03 ca		 add	 ecx, edx
  001c6	8b 55 0c	 mov	 edx, DWORD PTR _src$[ebp]
  001c9	03 0c 02	 add	 ecx, DWORD PTR [edx+eax]
  001cc	89 4d 90	 mov	 DWORD PTR _srcULine$[ebp], ecx

; 895  :     uint8_t *srcVLine = (uint8_t *)src[2] + ((src_uv_pitch_byte * uv_range.start_src) + (crop_left >> 1));

  001cf	b8 04 00 00 00	 mov	 eax, 4
  001d4	d1 e0		 shl	 eax, 1
  001d6	8b 4d 18	 mov	 ecx, DWORD PTR _src_uv_pitch_byte$[ebp]
  001d9	0f af 4d a4	 imul	 ecx, DWORD PTR _uv_range$[ebp]
  001dd	8b 55 f8	 mov	 edx, DWORD PTR _crop_left$[ebp]
  001e0	d1 fa		 sar	 edx, 1
  001e2	03 ca		 add	 ecx, edx
  001e4	8b 55 0c	 mov	 edx, DWORD PTR _src$[ebp]
  001e7	03 0c 02	 add	 ecx, DWORD PTR [edx+eax]
  001ea	89 4d 8c	 mov	 DWORD PTR _srcVLine$[ebp], ecx

; 896  :     uint8_t *dstLine  = (uint8_t *)dst[1] + dst_y_pitch_byte * uv_range.start_dst;

  001ed	b8 04 00 00 00	 mov	 eax, 4
  001f2	c1 e0 00	 shl	 eax, 0
  001f5	8b 4d 1c	 mov	 ecx, DWORD PTR _dst_y_pitch_byte$[ebp]
  001f8	0f af 4d a8	 imul	 ecx, DWORD PTR _uv_range$[ebp+4]
  001fc	8b 55 08	 mov	 edx, DWORD PTR _dst$[ebp]
  001ff	03 0c 02	 add	 ecx, DWORD PTR [edx+eax]
  00202	89 4d 88	 mov	 DWORD PTR _dstLine$[ebp], ecx

; 897  :     const int uv_fin = (height - crop_bottom) >> 1;

  00205	8b 45 20	 mov	 eax, DWORD PTR _height$[ebp]
  00208	2b 45 ec	 sub	 eax, DWORD PTR _crop_bottom$[ebp]
  0020b	d1 f8		 sar	 eax, 1
  0020d	89 45 84	 mov	 DWORD PTR _uv_fin$[ebp], eax

; 898  :     for (int y = 0; y < uv_range.len; y++, srcULine += src_uv_pitch_byte, srcVLine += src_uv_pitch_byte, dstLine += dst_y_pitch_byte) {

  00210	c7 45 80 00 00
	00 00		 mov	 DWORD PTR _y$8[ebp], 0
  00217	eb 24		 jmp	 SHORT $LN10@convert_yv
$LN8@convert_yv:
  00219	8b 4d 80	 mov	 ecx, DWORD PTR _y$8[ebp]
  0021c	83 c1 01	 add	 ecx, 1
  0021f	89 4d 80	 mov	 DWORD PTR _y$8[ebp], ecx
  00222	8b 55 90	 mov	 edx, DWORD PTR _srcULine$[ebp]
  00225	03 55 18	 add	 edx, DWORD PTR _src_uv_pitch_byte$[ebp]
  00228	89 55 90	 mov	 DWORD PTR _srcULine$[ebp], edx
  0022b	8b 45 8c	 mov	 eax, DWORD PTR _srcVLine$[ebp]
  0022e	03 45 18	 add	 eax, DWORD PTR _src_uv_pitch_byte$[ebp]
  00231	89 45 8c	 mov	 DWORD PTR _srcVLine$[ebp], eax
  00234	8b 4d 88	 mov	 ecx, DWORD PTR _dstLine$[ebp]
  00237	03 4d 1c	 add	 ecx, DWORD PTR _dst_y_pitch_byte$[ebp]
  0023a	89 4d 88	 mov	 DWORD PTR _dstLine$[ebp], ecx
$LN10@convert_yv:
  0023d	8b 55 80	 mov	 edx, DWORD PTR _y$8[ebp]
  00240	3b 55 ac	 cmp	 edx, DWORD PTR _uv_range$[ebp+8]
  00243	0f 8d df 00 00
	00		 jge	 $LN1@convert_yv

; 899  :         const int x_fin = width - crop_right;

  00249	8b 45 10	 mov	 eax, DWORD PTR _width$[ebp]
  0024c	2b 45 f0	 sub	 eax, DWORD PTR _crop_right$[ebp]
  0024f	89 85 7c ff ff
	ff		 mov	 DWORD PTR _x_fin$7[ebp], eax

; 900  :         uint8_t *src_u_ptr = srcULine;

  00255	8b 4d 90	 mov	 ecx, DWORD PTR _srcULine$[ebp]
  00258	89 8d 78 ff ff
	ff		 mov	 DWORD PTR _src_u_ptr$6[ebp], ecx

; 901  :         uint8_t *src_v_ptr = srcVLine;

  0025e	8b 55 8c	 mov	 edx, DWORD PTR _srcVLine$[ebp]
  00261	89 95 74 ff ff
	ff		 mov	 DWORD PTR _src_v_ptr$5[ebp], edx

; 902  :         uint16_t *dst_ptr = (uint16_t *)dstLine;

  00267	8b 45 88	 mov	 eax, DWORD PTR _dstLine$[ebp]
  0026a	89 85 70 ff ff
	ff		 mov	 DWORD PTR _dst_ptr$4[ebp], eax

; 903  :         for (int x = crop_left; x < x_fin; x += 2, src_u_ptr++, src_v_ptr++, dst_ptr += 2) {

  00270	8b 4d f8	 mov	 ecx, DWORD PTR _crop_left$[ebp]
  00273	89 8d 6c ff ff
	ff		 mov	 DWORD PTR _x$3[ebp], ecx
  00279	eb 3c		 jmp	 SHORT $LN13@convert_yv
$LN11@convert_yv:
  0027b	8b 95 6c ff ff
	ff		 mov	 edx, DWORD PTR _x$3[ebp]
  00281	83 c2 02	 add	 edx, 2
  00284	89 95 6c ff ff
	ff		 mov	 DWORD PTR _x$3[ebp], edx
  0028a	8b 85 78 ff ff
	ff		 mov	 eax, DWORD PTR _src_u_ptr$6[ebp]
  00290	83 c0 01	 add	 eax, 1
  00293	89 85 78 ff ff
	ff		 mov	 DWORD PTR _src_u_ptr$6[ebp], eax
  00299	8b 8d 74 ff ff
	ff		 mov	 ecx, DWORD PTR _src_v_ptr$5[ebp]
  0029f	83 c1 01	 add	 ecx, 1
  002a2	89 8d 74 ff ff
	ff		 mov	 DWORD PTR _src_v_ptr$5[ebp], ecx
  002a8	8b 95 70 ff ff
	ff		 mov	 edx, DWORD PTR _dst_ptr$4[ebp]
  002ae	83 c2 04	 add	 edx, 4
  002b1	89 95 70 ff ff
	ff		 mov	 DWORD PTR _dst_ptr$4[ebp], edx
$LN13@convert_yv:
  002b7	8b 85 6c ff ff
	ff		 mov	 eax, DWORD PTR _x$3[ebp]
  002bd	3b 85 7c ff ff
	ff		 cmp	 eax, DWORD PTR _x_fin$7[ebp]
  002c3	7d 5e		 jge	 SHORT $LN12@convert_yv

; 904  :             dst_ptr[0] = (uint16_t)((((uint32_t)src_u_ptr[0]) << 8) + (2<<6));

  002c5	b9 01 00 00 00	 mov	 ecx, 1
  002ca	6b d1 00	 imul	 edx, ecx, 0
  002cd	8b 85 78 ff ff
	ff		 mov	 eax, DWORD PTR _src_u_ptr$6[ebp]
  002d3	0f b6 0c 10	 movzx	 ecx, BYTE PTR [eax+edx]
  002d7	c1 e1 08	 shl	 ecx, 8
  002da	81 c1 80 00 00
	00		 add	 ecx, 128		; 00000080H
  002e0	ba 02 00 00 00	 mov	 edx, 2
  002e5	6b c2 00	 imul	 eax, edx, 0
  002e8	8b 95 70 ff ff
	ff		 mov	 edx, DWORD PTR _dst_ptr$4[ebp]
  002ee	66 89 0c 02	 mov	 WORD PTR [edx+eax], cx

; 905  :             dst_ptr[1] = (uint16_t)((((uint32_t)src_v_ptr[0]) << 8) + (2<<6));

  002f2	b8 01 00 00 00	 mov	 eax, 1
  002f7	6b c8 00	 imul	 ecx, eax, 0
  002fa	8b 95 74 ff ff
	ff		 mov	 edx, DWORD PTR _src_v_ptr$5[ebp]
  00300	0f b6 04 0a	 movzx	 eax, BYTE PTR [edx+ecx]
  00304	c1 e0 08	 shl	 eax, 8
  00307	05 80 00 00 00	 add	 eax, 128		; 00000080H
  0030c	b9 02 00 00 00	 mov	 ecx, 2
  00311	c1 e1 00	 shl	 ecx, 0
  00314	8b 95 70 ff ff
	ff		 mov	 edx, DWORD PTR _dst_ptr$4[ebp]
  0031a	66 89 04 0a	 mov	 WORD PTR [edx+ecx], ax

; 906  :         }

  0031e	e9 58 ff ff ff	 jmp	 $LN11@convert_yv
$LN12@convert_yv:

; 907  :     }

  00323	e9 f1 fe ff ff	 jmp	 $LN8@convert_yv
$LN1@convert_yv:

; 908  : }

  00328	52		 push	 edx
  00329	8b cd		 mov	 ecx, ebp
  0032b	50		 push	 eax
  0032c	8d 15 00 00 00
	00		 lea	 edx, DWORD PTR $LN19@convert_yv
  00332	e8 00 00 00 00	 call	 @_RTC_CheckStackVars@8
  00337	58		 pop	 eax
  00338	5a		 pop	 edx
  00339	5f		 pop	 edi
  0033a	8b 4d fc	 mov	 ecx, DWORD PTR __$ArrayPad$[ebp]
  0033d	33 cd		 xor	 ecx, ebp
  0033f	e8 00 00 00 00	 call	 @__security_check_cookie@4
  00344	81 c4 ac 00 00
	00		 add	 esp, 172		; 000000acH
  0034a	3b ec		 cmp	 ebp, esp
  0034c	e8 00 00 00 00	 call	 __RTC_CheckEsp
  00351	8b e5		 mov	 esp, ebp
  00353	5d		 pop	 ebp
  00354	c3		 ret	 0
  00355	0f 1f 00	 npad	 3
$LN19@convert_yv:
  00358	02 00 00 00	 DD	 2
  0035c	00 00 00 00	 DD	 $LN18@convert_yv
$LN18@convert_yv:
  00360	dc ff ff ff	 DD	 -36			; ffffffdcH
  00364	0c 00 00 00	 DD	 12			; 0000000cH
  00368	00 00 00 00	 DD	 $LN16@convert_yv
  0036c	a4 ff ff ff	 DD	 -92			; ffffffa4H
  00370	0c 00 00 00	 DD	 12			; 0000000cH
  00374	00 00 00 00	 DD	 $LN17@convert_yv
$LN17@convert_yv:
  00378	75		 DB	 117			; 00000075H
  00379	76		 DB	 118			; 00000076H
  0037a	5f		 DB	 95			; 0000005fH
  0037b	72		 DB	 114			; 00000072H
  0037c	61		 DB	 97			; 00000061H
  0037d	6e		 DB	 110			; 0000006eH
  0037e	67		 DB	 103			; 00000067H
  0037f	65		 DB	 101			; 00000065H
  00380	00		 DB	 0
$LN16@convert_yv:
  00381	79		 DB	 121			; 00000079H
  00382	5f		 DB	 95			; 0000005fH
  00383	72		 DB	 114			; 00000072H
  00384	61		 DB	 97			; 00000061H
  00385	6e		 DB	 110			; 0000006eH
  00386	67		 DB	 103			; 00000067H
  00387	65		 DB	 101			; 00000065H
  00388	00		 DB	 0
??$convert_yv12_to_p010_c@$0A@@@YAXPAPAXPAPBXHHHHHHHHPAH@Z ENDP ; convert_yv12_to_p010_c<0>
_TEXT	ENDS
; Function compile flags: /Odtp /RTCsu
; File D:\work\intel\intel_codec\QSVPipeline\convert_csp.cpp
_TEXT	SEGMENT
_dst$ = 8						; size = 4
_src$ = 12						; size = 4
_width$ = 16						; size = 4
_src_y_pitch_byte$ = 20					; size = 4
_src_uv_pitch_byte$ = 24				; size = 4
_dst_y_pitch_byte$ = 28					; size = 4
_height$ = 32						; size = 4
_dst_height$ = 36					; size = 4
_thread_id$ = 40					; size = 4
_thread_n$ = 44						; size = 4
_crop$ = 48						; size = 4
?convert_yv12_to_p010@@YAXPAPAXPAPBXHHHHHHHHPAH@Z PROC	; convert_yv12_to_p010

; 910  : static void convert_yv12_to_p010(void **dst, const void **src, int width, int src_y_pitch_byte, int src_uv_pitch_byte, int dst_y_pitch_byte, int height, int dst_height, int thread_id, int thread_n, int *crop) {

  00000	55		 push	 ebp
  00001	8b ec		 mov	 ebp, esp

; 911  :     convert_yv12_to_p010_c<false>(dst, src, width, src_y_pitch_byte, src_uv_pitch_byte, dst_y_pitch_byte, height, dst_height, thread_id, thread_n, crop);

  00003	8b 45 30	 mov	 eax, DWORD PTR _crop$[ebp]
  00006	50		 push	 eax
  00007	8b 4d 2c	 mov	 ecx, DWORD PTR _thread_n$[ebp]
  0000a	51		 push	 ecx
  0000b	8b 55 28	 mov	 edx, DWORD PTR _thread_id$[ebp]
  0000e	52		 push	 edx
  0000f	8b 45 24	 mov	 eax, DWORD PTR _dst_height$[ebp]
  00012	50		 push	 eax
  00013	8b 4d 20	 mov	 ecx, DWORD PTR _height$[ebp]
  00016	51		 push	 ecx
  00017	8b 55 1c	 mov	 edx, DWORD PTR _dst_y_pitch_byte$[ebp]
  0001a	52		 push	 edx
  0001b	8b 45 18	 mov	 eax, DWORD PTR _src_uv_pitch_byte$[ebp]
  0001e	50		 push	 eax
  0001f	8b 4d 14	 mov	 ecx, DWORD PTR _src_y_pitch_byte$[ebp]
  00022	51		 push	 ecx
  00023	8b 55 10	 mov	 edx, DWORD PTR _width$[ebp]
  00026	52		 push	 edx
  00027	8b 45 0c	 mov	 eax, DWORD PTR _src$[ebp]
  0002a	50		 push	 eax
  0002b	8b 4d 08	 mov	 ecx, DWORD PTR _dst$[ebp]
  0002e	51		 push	 ecx
  0002f	e8 00 00 00 00	 call	 ??$convert_yv12_to_p010_c@$0A@@@YAXPAPAXPAPBXHHHHHHHHPAH@Z ; convert_yv12_to_p010_c<0>
  00034	83 c4 2c	 add	 esp, 44			; 0000002cH

; 912  : }

  00037	3b ec		 cmp	 ebp, esp
  00039	e8 00 00 00 00	 call	 __RTC_CheckEsp
  0003e	5d		 pop	 ebp
  0003f	c3		 ret	 0
?convert_yv12_to_p010@@YAXPAPAXPAPBXHHHHHHHHPAH@Z ENDP	; convert_yv12_to_p010
_TEXT	ENDS
; Function compile flags: /Odtp /RTCsu
; File D:\work\intel\intel_codec\QSVPipeline\convert_csp.cpp
_TEXT	SEGMENT
tv302 = -280						; size = 4
tv240 = -276						; size = 4
tv241 = -272						; size = 4
tv235 = -268						; size = 4
tv232 = -264						; size = 4
tv229 = -260						; size = 4
tv227 = -256						; size = 4
$T1 = -252						; size = 4
$T2 = -248						; size = 4
$T3 = -244						; size = 4
$T4 = -240						; size = 4
$T5 = -236						; size = 12
_cy3x1$6 = -224						; size = 4
_cy2x1$7 = -220						; size = 4
_cy1x1$8 = -216						; size = 4
_cy0x1$9 = -212						; size = 4
_sy5x1$10 = -208					; size = 4
_sy4x1$11 = -204					; size = 4
_sy3x1$12 = -200					; size = 4
_sy2x1$13 = -196					; size = 4
_sy1x1$14 = -192					; size = 4
_sy0x1$15 = -188					; size = 4
_cxplus$16 = -184					; size = 4
_x$17 = -180						; size = 4
_cy3x0$18 = -176					; size = 4
_cy2x0$19 = -172					; size = 4
_cy1x0$20 = -168					; size = 4
_cy0x0$21 = -164					; size = 4
