; Listing generated by Microsoft (R) Optimizing Compiler Version 19.23.28106.4 

	TITLE	D:\work\intel\intel_codec\QSVPipeline\qsv_hw_va.cpp
	.686P
	.XMM
	include listing.inc
	.model	flat

INCLUDELIB MSVCRTD
INCLUDELIB OLDNAMES

CONST	SEGMENT
$SG124010 DB	'invalid argument', 00H
	ORG $+3
$SG124011 DB	'%s', 00H
	ORG $+1
$SG124012 DB	'C:\Program Files (x86)\Microsoft Visual Studio\2019\Comm'
	DB	'unity\VC\Tools\MSVC\14.23.28105\include\xmemory', 00H
$SG124013 DB	'C', 00H, ':', 00H, '\', 00H, 'P', 00H, 'r', 00H, 'o', 00H
	DB	'g', 00H, 'r', 00H, 'a', 00H, 'm', 00H, ' ', 00H, 'F', 00H, 'i'
	DB	00H, 'l', 00H, 'e', 00H, 's', 00H, ' ', 00H, '(', 00H, 'x', 00H
	DB	'8', 00H, '6', 00H, ')', 00H, '\', 00H, 'M', 00H, 'i', 00H, 'c'
	DB	00H, 'r', 00H, 'o', 00H, 's', 00H, 'o', 00H, 'f', 00H, 't', 00H
	DB	' ', 00H, 'V', 00H, 'i', 00H, 's', 00H, 'u', 00H, 'a', 00H, 'l'
	DB	00H, ' ', 00H, 'S', 00H, 't', 00H, 'u', 00H, 'd', 00H, 'i', 00H
	DB	'o', 00H, '\', 00H, '2', 00H, '0', 00H, '1', 00H, '9', 00H, '\'
	DB	00H, 'C', 00H, 'o', 00H, 'm', 00H, 'm', 00H, 'u', 00H, 'n', 00H
	DB	'i', 00H, 't', 00H, 'y', 00H, '\', 00H, 'V', 00H, 'C', 00H, '\'
	DB	00H, 'T', 00H, 'o', 00H, 'o', 00H, 'l', 00H, 's', 00H, '\', 00H
	DB	'M', 00H, 'S', 00H, 'V', 00H, 'C', 00H, '\', 00H, '1', 00H, '4'
	DB	00H, '.', 00H, '2', 00H, '3', 00H, '.', 00H, '2', 00H, '8', 00H
	DB	'1', 00H, '0', 00H, '5', 00H, '\', 00H, 'i', 00H, 'n', 00H, 'c'
	DB	00H, 'l', 00H, 'u', 00H, 'd', 00H, 'e', 00H, '\', 00H, 'x', 00H
	DB	'm', 00H, 'e', 00H, 'm', 00H, 'o', 00H, 'r', 00H, 'y', 00H, 00H
	DB	00H
$SG124014 DB	's', 00H, 't', 00H, 'd', 00H, ':', 00H, ':', 00H, '_', 00H
	DB	'A', 00H, 'l', 00H, 'l', 00H, 'o', 00H, 'c', 00H, 'a', 00H, 't'
	DB	00H, 'e', 00H, '_', 00H, 'm', 00H, 'a', 00H, 'n', 00H, 'u', 00H
	DB	'a', 00H, 'l', 00H, 'l', 00H, 'y', 00H, '_', 00H, 'v', 00H, 'e'
	DB	00H, 'c', 00H, 't', 00H, 'o', 00H, 'r', 00H, '_', 00H, 'a', 00H
	DB	'l', 00H, 'i', 00H, 'g', 00H, 'n', 00H, 'e', 00H, 'd', 00H, 00H
	DB	00H
	ORG $+2
$SG124015 DB	'"', 00H, 'i', 00H, 'n', 00H, 'v', 00H, 'a', 00H, 'l', 00H
	DB	'i', 00H, 'd', 00H, ' ', 00H, 'a', 00H, 'r', 00H, 'g', 00H, 'u'
	DB	00H, 'm', 00H, 'e', 00H, 'n', 00H, 't', 00H, '"', 00H, 00H, 00H
	ORG $+2
$SG124056 DB	'C:\Program Files (x86)\Microsoft Visual Studio\2019\Comm'
	DB	'unity\VC\Tools\MSVC\14.23.28105\include\xlocale', 00H
$SG111442 DB	'Invalid', 00H
$SG111443 DB	'nv12', 00H
	ORG $+3
$SG111444 DB	'yv12', 00H
	ORG $+3
$SG111445 DB	'yuy2', 00H
	ORG $+3
$SG111446 DB	'yuv422', 00H
	ORG $+1
$SG111447 DB	'nv16', 00H
	ORG $+3
$SG111448 DB	'yuv444', 00H
	ORG $+1
$SG111449 DB	'yv12(9bit)', 00H
	ORG $+1
$SG111450 DB	'yv12(10bit)', 00H
$SG111451 DB	'yv12(12bit)', 00H
$SG111452 DB	'yv12(14bit)', 00H
$SG111453 DB	'yv12(16bit)', 00H
$SG111454 DB	'p010', 00H
	ORG $+3
$SG111455 DB	'yuv422(9bit)', 00H
	ORG $+3
$SG111456 DB	'yuv422(10bit)', 00H
	ORG $+2
$SG111457 DB	'yuv422(12bit)', 00H
	ORG $+2
$SG111458 DB	'yuv422(14bit)', 00H
	ORG $+2
$SG111459 DB	'yuv422(16bit)', 00H
	ORG $+2
$SG111460 DB	'p210', 00H
	ORG $+3
$SG111461 DB	'yuv444(9bit)', 00H
	ORG $+3
$SG111462 DB	'yuv444(10bit)', 00H
	ORG $+2
$SG111463 DB	'yuv444(12bit)', 00H
	ORG $+2
$SG111464 DB	'yuv444(14bit)', 00H
	ORG $+2
$SG111465 DB	'yuv444(16bit)', 00H
	ORG $+2
$SG111466 DB	'yuva444', 00H
$SG111467 DB	'yuva444(16bit)', 00H
	ORG $+1
$SG111468 DB	'rgb24r', 00H
	ORG $+1
$SG111469 DB	'rgb32r', 00H
	ORG $+1
$SG111470 DB	'rgb24', 00H
	ORG $+2
$SG111471 DB	'rgb32', 00H
	ORG $+2
$SG111472 DB	'bgr24', 00H
	ORG $+2
$SG111473 DB	'bgr32', 00H
	ORG $+2
$SG111474 DB	'rgb', 00H
$SG111475 DB	'rgba', 00H
	ORG $+3
$SG111476 DB	'gbr', 00H
$SG111477 DB	'gbra', 00H
	ORG $+3
$SG111478 DB	'yc48', 00H
	ORG $+3
$SG111479 DB	'y8', 00H
	ORG $+1
$SG111480 DB	'yc16', 00H
	ORG $+3
$SG112412 DB	'H.264/AVC', 00H
	ORG $+2
$SG112414 DB	'H.265/HEVC', 00H
	ORG $+1
$SG112416 DB	'MPEG2', 00H
	ORG $+2
$SG112418 DB	'MPEG1', 00H
	ORG $+2
$SG112420 DB	'VC-1', 00H
	ORG $+3
$SG112422 DB	'MPEG4', 00H
	ORG $+2
$SG112424 DB	'VP8', 00H
$SG112426 DB	'VP9', 00H
$SG112428 DB	'unknown', 00H
$SG112535 DB	'unknown', 00H
?list_colormatrix@@3QBUCX_DESC@@B DD FLAT:$SG113030	; list_colormatrix
	DD	02H
	DD	FLAT:$SG113031
	DD	07fffffffH
	DD	FLAT:$SG113032
	DD	01H
	DD	FLAT:$SG113033
	DD	06H
	DD	FLAT:$SG113034
	DD	05H
	DD	FLAT:$SG113035
	DD	07H
	DD	FLAT:$SG113036
	DD	08H
	DD	FLAT:$SG113037
	DD	04H
	DD	FLAT:$SG113038
	DD	00H
	DD	FLAT:$SG113039
	DD	09H
	DD	FLAT:$SG113040
	DD	0aH
	DD	FLAT:$SG113041
	DD	0cH
	DD	FLAT:$SG113042
	DD	0dH
	DD	FLAT:$SG113043
	DD	0eH
	DD	FLAT:$SG113044
	DD	0fH
	DD	00H
	DD	00H
$SG113030 DB	'undef', 00H
	ORG $+2
$SG113031 DB	'auto', 00H
	ORG $+3
$SG113032 DB	'bt709', 00H
	ORG $+2
$SG113033 DB	'smpte170m', 00H
	ORG $+2
$SG113034 DB	'bt470bg', 00H
$SG113035 DB	'smpte240m', 00H
	ORG $+2
$SG113036 DB	'YCgCo', 00H
	ORG $+2
$SG113037 DB	'fcc', 00H
$SG113038 DB	'GBR', 00H
$SG113039 DB	'bt2020nc', 00H
	ORG $+3
$SG113040 DB	'bt2020c', 00H
$SG113041 DB	'derived-ncl', 00H
$SG113042 DB	'derived-cl', 00H
	ORG $+1
$SG113043 DB	'ictco', 00H
	ORG $+2
$SG113044 DB	'2100-lms', 00H
	ORG $+3
?list_transfer@@3QBUCX_DESC@@B DD FLAT:$SG113185	; list_transfer
	DD	02H
	DD	FLAT:$SG113186
	DD	07fffffffH
	DD	FLAT:$SG113187
	DD	01H
	DD	FLAT:$SG113188
	DD	06H
	DD	FLAT:$SG113189
	DD	04H
	DD	FLAT:$SG113190
	DD	05H
	DD	FLAT:$SG113191
	DD	07H
	DD	FLAT:$SG113192
	DD	08H
	DD	FLAT:$SG113193
	DD	09H
	DD	FLAT:$SG113194
	DD	0aH
	DD	FLAT:$SG113195
	DD	0bH
	DD	FLAT:$SG113196
	DD	0cH
	DD	FLAT:$SG113197
	DD	0dH
	DD	FLAT:$SG113198
	DD	0eH
	DD	FLAT:$SG113199
	DD	0fH
	DD	FLAT:$SG113200
	DD	010H
	DD	FLAT:$SG113201
	DD	011H
	DD	FLAT:$SG113202
	DD	012H
	DD	00H
	DD	00H
$SG113185 DB	'undef', 00H
	ORG $+2
$SG113186 DB	'auto', 00H
	ORG $+3
$SG113187 DB	'bt709', 00H
	ORG $+2
$SG113188 DB	'smpte170m', 00H
	ORG $+2
$SG113189 DB	'bt470m', 00H
	ORG $+1
$SG113190 DB	'bt470bg', 00H
$SG113191 DB	'smpte240m', 00H
	ORG $+2
$SG113192 DB	'linear', 00H
	ORG $+1
$SG113193 DB	'log100', 00H
	ORG $+1
$SG113194 DB	'log316', 00H
	ORG $+1
$SG113195 DB	'iec61966-2-4', 00H
	ORG $+3
$SG113196 DB	'bt1361e', 00H
$SG113197 DB	'iec61966-2-1', 00H
	ORG $+3
$SG113198 DB	'bt2020-10', 00H
	ORG $+2
$SG113199 DB	'bt2020-12', 00H
	ORG $+2
$SG113200 DB	'smpte2084', 00H
	ORG $+2
$SG113201 DB	'smpte428', 00H
	ORG $+3
$SG113202 DB	'arib-srd-b67', 00H
	ORG $+3
?list_colorprim@@3QBUCX_DESC@@B DD FLAT:$SG113334	; list_colorprim
	DD	02H
	DD	FLAT:$SG113335
	DD	07fffffffH
	DD	FLAT:$SG113336
	DD	01H
	DD	FLAT:$SG113337
	DD	06H
	DD	FLAT:$SG113338
	DD	04H
	DD	FLAT:$SG113339
	DD	05H
	DD	FLAT:$SG113340
	DD	07H
	DD	FLAT:$SG113341
	DD	08H
	DD	FLAT:$SG113342
	DD	09H
	DD	FLAT:$SG113343
	DD	0aH
	DD	FLAT:$SG113344
	DD	0bH
	DD	FLAT:$SG113345
	DD	0cH
	DD	FLAT:$SG113346
	DD	0dH
	DD	00H
	DD	00H
$SG113334 DB	'undef', 00H
	ORG $+2
$SG113335 DB	'auto', 00H
	ORG $+3
$SG113336 DB	'bt709', 00H
	ORG $+2
$SG113337 DB	'smpte170m', 00H
	ORG $+2
$SG113338 DB	'bt470m', 00H
	ORG $+1
$SG113339 DB	'bt470bg', 00H
$SG113340 DB	'smpte240m', 00H
	ORG $+2
$SG113341 DB	'film', 00H
	ORG $+3
$SG113342 DB	'bt2020', 00H
	ORG $+1
$SG113343 DB	'st428', 00H
	ORG $+2
$SG113344 DB	'st431-2', 00H
$SG113345 DB	'st432-1', 00H
$SG113346 DB	'ebu3213-e', 00H
	ORG $+2
?list_videoformat@@3QBUCX_DESC@@B DD FLAT:$SG113348	; list_videoformat
	DD	05H
	DD	FLAT:$SG113349
	DD	02H
	DD	FLAT:$SG113350
	DD	00H
	DD	FLAT:$SG113351
	DD	01H
	DD	FLAT:$SG113352
	DD	03H
	DD	FLAT:$SG113353
	DD	04H
	DD	00H
	DD	00H
$SG113348 DB	'undef', 00H
	ORG $+2
$SG113349 DB	'ntsc', 00H
	ORG $+3
$SG113350 DB	'component', 00H
	ORG $+2
$SG113351 DB	'pal', 00H
$SG113352 DB	'secam', 00H
	ORG $+2
$SG113353 DB	'mac', 00H
$SG113355 DB	'0', 00H
	ORG $+2
$SG113356 DB	'1', 00H
	ORG $+2
$SG113357 DB	'2', 00H
	ORG $+2
$SG113358 DB	'3', 00H
	ORG $+2
$SG113359 DB	'4', 00H
	ORG $+2
$SG113360 DB	'5', 00H
	ORG $+2
$SG113362 DB	'limited', 00H
$SG113363 DB	'full', 00H
	ORG $+3
$SG113364 DB	'tv', 00H
	ORG $+1
$SG113365 DB	'pc', 00H
	ORG $+1
$SG114447 DB	'trace', 00H
	ORG $+2
$SG114448 DB	'debug', 00H
	ORG $+2
$SG114449 DB	'more', 00H
	ORG $+3
$SG114450 DB	'info', 00H
	ORG $+3
$SG114451 DB	'warn', 00H
	ORG $+3
$SG114452 DB	'error', 00H
	ORG $+2
$SG114454 DB	'cfr', 00H
$SG114455 DB	'vfr', 00H
$SG114456 DB	'forcecfr', 00H
	ORG $+3
$SG114458 DB	'swr', 00H
$SG114459 DB	'soxr', 00H
CONST	ENDS
PUBLIC	?__empty_global_delete@@YAXPAX@Z		; __empty_global_delete
PUBLIC	?__empty_global_delete@@YAXPAXI@Z		; __empty_global_delete
PUBLIC	??$make_array@W4CspMatrix@@W41@W41@W41@W41@W41@W41@W41@W41@W41@W41@W41@W41@W41@W41@@@YA?AV?$array@W4CspMatrix@@$0O@@std@@$$QAW4CspMatrix@@0000000000000@Z ; make_array<enum CspMatrix,enum CspMatrix,enum CspMatrix,enum CspMatrix,enum CspMatrix,enum CspMatrix,enum CspMatrix,enum CspMatrix,enum CspMatrix,enum CspMatrix,enum CspMatrix,enum CspMatrix,enum CspMatrix,enum CspMatrix,enum CspMatrix>
PUBLIC	??$make_array@W4CspTransfer@@W41@W41@W41@W41@W41@W41@W41@W41@W41@W41@W41@W41@W41@W41@W41@@@YA?AV?$array@W4CspTransfer@@$0P@@std@@$$QAW4CspTransfer@@00000000000000@Z ; make_array<enum CspTransfer,enum CspTransfer,enum CspTransfer,enum CspTransfer,enum CspTransfer,enum CspTransfer,enum CspTransfer,enum CspTransfer,enum CspTransfer,enum CspTransfer,enum CspTransfer,enum CspTransfer,enum CspTransfer,enum CspTransfer,enum CspTransfer,enum CspTransfer>
PUBLIC	??$make_array@W4CspColorprim@@W41@W41@W41@W41@W41@W41@W41@W41@W41@W41@W41@W41@@@YA?AV?$array@W4CspColorprim@@$0M@@std@@$$QAW4CspColorprim@@00000000000@Z ; make_array<enum CspColorprim,enum CspColorprim,enum CspColorprim,enum CspColorprim,enum CspColorprim,enum CspColorprim,enum CspColorprim,enum CspColorprim,enum CspColorprim,enum CspColorprim,enum CspColorprim,enum CspColorprim,enum CspColorprim>
EXTRN	@__security_check_cookie@4:PROC
EXTRN	__RTC_CheckEsp:PROC
EXTRN	__RTC_InitBase:PROC
EXTRN	__RTC_Shutdown:PROC
EXTRN	___security_cookie:DWORD
_BSS	SEGMENT
?CspMatrixList@@3V?$array@W4CspMatrix@@$0O@@std@@B DB 038H DUP (?) ; CspMatrixList
?CspTransferList@@3V?$array@W4CspTransfer@@$0P@@std@@B DB 03cH DUP (?) ; CspTransferList
?CspColorprimList@@3V?$array@W4CspColorprim@@$0M@@std@@B DB 030H DUP (?) ; CspColorprimList
_BSS	ENDS
CRT$XCU	SEGMENT
?CspMatrixList$initializer$@@3P6AXXZA DD FLAT:??__ECspMatrixList@@YAXXZ ; CspMatrixList$initializer$
CRT$XCU	ENDS
;	COMDAT rtc$TMZ
rtc$TMZ	SEGMENT
__RTC_Shutdown.rtc$TMZ DD FLAT:__RTC_Shutdown
rtc$TMZ	ENDS
;	COMDAT rtc$IMZ
rtc$IMZ	SEGMENT
__RTC_InitBase.rtc$IMZ DD FLAT:__RTC_InitBase
rtc$IMZ	ENDS
CRT$XCU	SEGMENT
?CspTransferList$initializer$@@3P6AXXZA DD FLAT:??__ECspTransferList@@YAXXZ ; CspTransferList$initializer$
CRT$XCU	ENDS
CRT$XCU	SEGMENT
?CspColorprimList$initializer$@@3P6AXXZA DD FLAT:??__ECspColorprimList@@YAXXZ ; CspColorprimList$initializer$
CRT$XCU	ENDS
; Function compile flags: /Odtp /RTCsu
; File D:\work\intel\intel_codec\QSVPipeline\rgy_util.h
;	COMDAT ??__ECspColorprimList@@YAXXZ
text$di	SEGMENT
$T1 = -148						; size = 48
$T2 = -100						; size = 4
$T3 = -96						; size = 4
$T4 = -92						; size = 4
$T5 = -88						; size = 4
$T6 = -84						; size = 4
$T7 = -80						; size = 4
$T8 = -76						; size = 4
$T9 = -72						; size = 4
$T10 = -68						; size = 4
$T11 = -64						; size = 4
$T12 = -60						; size = 4
$T13 = -56						; size = 4
$T14 = -52						; size = 48
__$ArrayPad$ = -4					; size = 4
??__ECspColorprimList@@YAXXZ PROC			; `dynamic initializer for 'CspColorprimList'', COMDAT

; 1187 : );

  00000	55		 push	 ebp
  00001	8b ec		 mov	 ebp, esp
  00003	81 ec 94 00 00
	00		 sub	 esp, 148		; 00000094H
  00009	56		 push	 esi
  0000a	57		 push	 edi
  0000b	8d bd 6c ff ff
	ff		 lea	 edi, DWORD PTR [ebp-148]
  00011	b9 25 00 00 00	 mov	 ecx, 37			; 00000025H
  00016	b8 cc cc cc cc	 mov	 eax, -858993460		; ccccccccH
  0001b	f3 ab		 rep stosd
  0001d	a1 00 00 00 00	 mov	 eax, DWORD PTR ___security_cookie
  00022	33 c5		 xor	 eax, ebp
  00024	89 45 fc	 mov	 DWORD PTR __$ArrayPad$[ebp], eax

; 1174 : static const auto CspColorprimList = make_array<CspColorprim>(

  00027	c7 45 c8 0d 00
	00 00		 mov	 DWORD PTR $T13[ebp], 13	; 0000000dH
  0002e	c7 45 c4 0c 00
	00 00		 mov	 DWORD PTR $T12[ebp], 12	; 0000000cH
  00035	c7 45 c0 0b 00
	00 00		 mov	 DWORD PTR $T11[ebp], 11	; 0000000bH
  0003c	c7 45 bc 0a 00
	00 00		 mov	 DWORD PTR $T10[ebp], 10	; 0000000aH
  00043	c7 45 b8 09 00
	00 00		 mov	 DWORD PTR $T9[ebp], 9
  0004a	c7 45 b4 08 00
	00 00		 mov	 DWORD PTR $T8[ebp], 8
  00051	c7 45 b0 07 00
	00 00		 mov	 DWORD PTR $T7[ebp], 7
  00058	c7 45 ac 06 00
	00 00		 mov	 DWORD PTR $T6[ebp], 6
  0005f	c7 45 a8 05 00
	00 00		 mov	 DWORD PTR $T5[ebp], 5
  00066	c7 45 a4 04 00
	00 00		 mov	 DWORD PTR $T4[ebp], 4
  0006d	c7 45 a0 02 00
	00 00		 mov	 DWORD PTR $T3[ebp], 2
  00074	c7 45 9c 01 00
	00 00		 mov	 DWORD PTR $T2[ebp], 1
  0007b	8d 45 c8	 lea	 eax, DWORD PTR $T13[ebp]
  0007e	50		 push	 eax
  0007f	8d 4d c4	 lea	 ecx, DWORD PTR $T12[ebp]
  00082	51		 push	 ecx
  00083	8d 55 c0	 lea	 edx, DWORD PTR $T11[ebp]
  00086	52		 push	 edx
  00087	8d 45 bc	 lea	 eax, DWORD PTR $T10[ebp]
  0008a	50		 push	 eax
  0008b	8d 4d b8	 lea	 ecx, DWORD PTR $T9[ebp]
  0008e	51		 push	 ecx
  0008f	8d 55 b4	 lea	 edx, DWORD PTR $T8[ebp]
  00092	52		 push	 edx
  00093	8d 45 b0	 lea	 eax, DWORD PTR $T7[ebp]
  00096	50		 push	 eax
  00097	8d 4d ac	 lea	 ecx, DWORD PTR $T6[ebp]
  0009a	51		 push	 ecx
  0009b	8d 55 a8	 lea	 edx, DWORD PTR $T5[ebp]
  0009e	52		 push	 edx
  0009f	8d 45 a4	 lea	 eax, DWORD PTR $T4[ebp]
  000a2	50		 push	 eax
  000a3	8d 4d a0	 lea	 ecx, DWORD PTR $T3[ebp]
  000a6	51		 push	 ecx
  000a7	8d 55 9c	 lea	 edx, DWORD PTR $T2[ebp]
  000aa	52		 push	 edx
  000ab	8d 85 6c ff ff
	ff		 lea	 eax, DWORD PTR $T1[ebp]
  000b1	50		 push	 eax
  000b2	e8 00 00 00 00	 call	 ??$make_array@W4CspColorprim@@W41@W41@W41@W41@W41@W41@W41@W41@W41@W41@W41@W41@@@YA?AV?$array@W4CspColorprim@@$0M@@std@@$$QAW4CspColorprim@@00000000000@Z ; make_array<enum CspColorprim,enum CspColorprim,enum CspColorprim,enum CspColorprim,enum CspColorprim,enum CspColorprim,enum CspColorprim,enum CspColorprim,enum CspColorprim,enum CspColorprim,enum CspColorprim,enum CspColorprim,enum CspColorprim>
  000b7	83 c4 34	 add	 esp, 52			; 00000034H
  000ba	b9 0c 00 00 00	 mov	 ecx, 12			; 0000000cH
  000bf	8b f0		 mov	 esi, eax
  000c1	8d 7d cc	 lea	 edi, DWORD PTR $T14[ebp]
  000c4	f3 a5		 rep movsd
  000c6	b9 0c 00 00 00	 mov	 ecx, 12			; 0000000cH
  000cb	8d 75 cc	 lea	 esi, DWORD PTR $T14[ebp]
  000ce	bf 00 00 00 00	 mov	 edi, OFFSET ?CspColorprimList@@3V?$array@W4CspColorprim@@$0M@@std@@B
  000d3	f3 a5		 rep movsd
  000d5	5f		 pop	 edi
  000d6	5e		 pop	 esi
  000d7	8b 4d fc	 mov	 ecx, DWORD PTR __$ArrayPad$[ebp]
  000da	33 cd		 xor	 ecx, ebp
  000dc	e8 00 00 00 00	 call	 @__security_check_cookie@4
  000e1	81 c4 94 00 00
	00		 add	 esp, 148		; 00000094H
  000e7	3b ec		 cmp	 ebp, esp
  000e9	e8 00 00 00 00	 call	 __RTC_CheckEsp
  000ee	8b e5		 mov	 esp, ebp
  000f0	5d		 pop	 ebp
  000f1	c3		 ret	 0
??__ECspColorprimList@@YAXXZ ENDP			; `dynamic initializer for 'CspColorprimList''
text$di	ENDS
; Function compile flags: /Odtp /RTCsu
; File D:\work\intel\intel_codec\QSVPipeline\rgy_util.h
;	COMDAT ??$make_array@W4CspColorprim@@W41@W41@W41@W41@W41@W41@W41@W41@W41@W41@W41@W41@@@YA?AV?$array@W4CspColorprim@@$0M@@std@@$$QAW4CspColorprim@@00000000000@Z
_TEXT	SEGMENT
$T1 = -52						; size = 48
__$ArrayPad$ = -4					; size = 4
$T2 = 8							; size = 4
_<args_0>$ = 12						; size = 4
_<args_1>$ = 16						; size = 4
_<args_2>$ = 20						; size = 4
_<args_3>$ = 24						; size = 4
_<args_4>$ = 28						; size = 4
_<args_5>$ = 32						; size = 4
_<args_6>$ = 36						; size = 4
_<args_7>$ = 40						; size = 4
_<args_8>$ = 44						; size = 4
_<args_9>$ = 48						; size = 4
_<args_10>$ = 52					; size = 4
_<args_11>$ = 56					; size = 4
??$make_array@W4CspColorprim@@W41@W41@W41@W41@W41@W41@W41@W41@W41@W41@W41@W41@@@YA?AV?$array@W4CspColorprim@@$0M@@std@@$$QAW4CspColorprim@@00000000000@Z PROC ; make_array<enum CspColorprim,enum CspColorprim,enum CspColorprim,enum CspColorprim,enum CspColorprim,enum CspColorprim,enum CspColorprim,enum CspColorprim,enum CspColorprim,enum CspColorprim,enum CspColorprim,enum CspColorprim,enum CspColorprim>, COMDAT

; 129  : constexpr std::array<T, sizeof...(Args)> make_array(Args&&... args) {

  00000	55		 push	 ebp
  00001	8b ec		 mov	 ebp, esp
  00003	83 ec 34	 sub	 esp, 52			; 00000034H
  00006	56		 push	 esi
  00007	57		 push	 edi
  00008	8d 7d cc	 lea	 edi, DWORD PTR [ebp-52]
  0000b	b9 0d 00 00 00	 mov	 ecx, 13			; 0000000dH
  00010	b8 cc cc cc cc	 mov	 eax, -858993460		; ccccccccH
  00015	f3 ab		 rep stosd
  00017	a1 00 00 00 00	 mov	 eax, DWORD PTR ___security_cookie
  0001c	33 c5		 xor	 eax, ebp
  0001e	89 45 fc	 mov	 DWORD PTR __$ArrayPad$[ebp], eax

; 130  :     return std::array<T, sizeof...(Args)>{ static_cast<Args&&>(args)... };

  00021	8b 45 0c	 mov	 eax, DWORD PTR _<args_0>$[ebp]
  00024	8b 08		 mov	 ecx, DWORD PTR [eax]
  00026	89 4d cc	 mov	 DWORD PTR $T1[ebp], ecx
  00029	8b 55 10	 mov	 edx, DWORD PTR _<args_1>$[ebp]
  0002c	8b 02		 mov	 eax, DWORD PTR [edx]
  0002e	89 45 d0	 mov	 DWORD PTR $T1[ebp+4], eax
  00031	8b 4d 14	 mov	 ecx, DWORD PTR _<args_2>$[ebp]
  00034	8b 11		 mov	 edx, DWORD PTR [ecx]
  00036	89 55 d4	 mov	 DWORD PTR $T1[ebp+8], edx
  00039	8b 45 18	 mov	 eax, DWORD PTR _<args_3>$[ebp]
  0003c	8b 08		 mov	 ecx, DWORD PTR [eax]
  0003e	89 4d d8	 mov	 DWORD PTR $T1[ebp+12], ecx
  00041	8b 55 1c	 mov	 edx, DWORD PTR _<args_4>$[ebp]
  00044	8b 02		 mov	 eax, DWORD PTR [edx]
  00046	89 45 dc	 mov	 DWORD PTR $T1[ebp+16], eax
  00049	8b 4d 20	 mov	 ecx, DWORD PTR _<args_5>$[ebp]
  0004c	8b 11		 mov	 edx, DWORD PTR [ecx]
  0004e	89 55 e0	 mov	 DWORD PTR $T1[ebp+20], edx
  00051	8b 45 24	 mov	 eax, DWORD PTR _<args_6>$[ebp]
  00054	8b 08		 mov	 ecx, DWORD PTR [eax]
  00056	89 4d e4	 mov	 DWORD PTR $T1[ebp+24], ecx
  00059	8b 55 28	 mov	 edx, DWORD PTR _<args_7>$[ebp]
  0005c	8b 02		 mov	 eax, DWORD PTR [edx]
  0005e	89 45 e8	 mov	 DWORD PTR $T1[ebp+28], eax
  00061	8b 4d 2c	 mov	 ecx, DWORD PTR _<args_8>$[ebp]
  00064	8b 11		 mov	 edx, DWORD PTR [ecx]
  00066	89 55 ec	 mov	 DWORD PTR $T1[ebp+32], edx
  00069	8b 45 30	 mov	 eax, DWORD PTR _<args_9>$[ebp]
  0006c	8b 08		 mov	 ecx, DWORD PTR [eax]
  0006e	89 4d f0	 mov	 DWORD PTR $T1[ebp+36], ecx
  00071	8b 55 34	 mov	 edx, DWORD PTR _<args_10>$[ebp]
  00074	8b 02		 mov	 eax, DWORD PTR [edx]
  00076	89 45 f4	 mov	 DWORD PTR $T1[ebp+40], eax
  00079	8b 4d 38	 mov	 ecx, DWORD PTR _<args_11>$[ebp]
  0007c	8b 11		 mov	 edx, DWORD PTR [ecx]
  0007e	89 55 f8	 mov	 DWORD PTR $T1[ebp+44], edx
  00081	b9 0c 00 00 00	 mov	 ecx, 12			; 0000000cH
  00086	8d 75 cc	 lea	 esi, DWORD PTR $T1[ebp]
  00089	8b 7d 08	 mov	 edi, DWORD PTR $T2[ebp]
  0008c	f3 a5		 rep movsd
  0008e	8b 45 08	 mov	 eax, DWORD PTR $T2[ebp]

; 131  : }

  00091	5f		 pop	 edi
  00092	5e		 pop	 esi
  00093	8b 4d fc	 mov	 ecx, DWORD PTR __$ArrayPad$[ebp]
  00096	33 cd		 xor	 ecx, ebp
  00098	e8 00 00 00 00	 call	 @__security_check_cookie@4
  0009d	8b e5		 mov	 esp, ebp
  0009f	5d		 pop	 ebp
  000a0	c3		 ret	 0
??$make_array@W4CspColorprim@@W41@W41@W41@W41@W41@W41@W41@W41@W41@W41@W41@W41@@@YA?AV?$array@W4CspColorprim@@$0M@@std@@$$QAW4CspColorprim@@00000000000@Z ENDP ; make_array<enum CspColorprim,enum CspColorprim,enum CspColorprim,enum CspColorprim,enum CspColorprim,enum CspColorprim,enum CspColorprim,enum CspColorprim,enum CspColorprim,enum CspColorprim,enum CspColorprim,enum CspColorprim,enum CspColorprim>
_TEXT	ENDS
; Function compile flags: /Odtp /RTCsu
; File D:\work\intel\intel_codec\QSVPipeline\rgy_util.h
;	COMDAT ??__ECspTransferList@@YAXXZ
text$di	SEGMENT
$T1 = -184						; size = 60
$T2 = -124						; size = 4
$T3 = -120						; size = 4
$T4 = -116						; size = 4
$T5 = -112						; size = 4
$T6 = -108						; size = 4
$T7 = -104						; size = 4
$T8 = -100						; size = 4
$T9 = -96						; size = 4
$T10 = -92						; size = 4
$T11 = -88						; size = 4
$T12 = -84						; size = 4
$T13 = -80						; size = 4
$T14 = -76						; size = 4
$T15 = -72						; size = 4
$T16 = -68						; size = 4
$T17 = -64						; size = 60
__$ArrayPad$ = -4					; size = 4
??__ECspTransferList@@YAXXZ PROC			; `dynamic initializer for 'CspTransferList'', COMDAT

; 1135 : );

  00000	55		 push	 ebp
  00001	8b ec		 mov	 ebp, esp
  00003	81 ec b8 00 00
	00		 sub	 esp, 184		; 000000b8H
  00009	56		 push	 esi
  0000a	57		 push	 edi
  0000b	8d bd 48 ff ff
	ff		 lea	 edi, DWORD PTR [ebp-184]
  00011	b9 2e 00 00 00	 mov	 ecx, 46			; 0000002eH
  00016	b8 cc cc cc cc	 mov	 eax, -858993460		; ccccccccH
  0001b	f3 ab		 rep stosd
  0001d	a1 00 00 00 00	 mov	 eax, DWORD PTR ___security_cookie
  00022	33 c5		 xor	 eax, ebp
  00024	89 45 fc	 mov	 DWORD PTR __$ArrayPad$[ebp], eax

; 1119 : static const auto CspTransferList = make_array<CspTransfer>(

  00027	c7 45 bc 12 00
	00 00		 mov	 DWORD PTR $T16[ebp], 18	; 00000012H
  0002e	c7 45 b8 10 00
	00 00		 mov	 DWORD PTR $T15[ebp], 16	; 00000010H
  00035	c7 45 b4 0f 00
	00 00		 mov	 DWORD PTR $T14[ebp], 15	; 0000000fH
  0003c	c7 45 b0 0e 00
	00 00		 mov	 DWORD PTR $T13[ebp], 14	; 0000000eH
  00043	c7 45 ac 0d 00
	00 00		 mov	 DWORD PTR $T12[ebp], 13	; 0000000dH
  0004a	c7 45 a8 0b 00
	00 00		 mov	 DWORD PTR $T11[ebp], 11	; 0000000bH
  00051	c7 45 a4 0a 00
	00 00		 mov	 DWORD PTR $T10[ebp], 10	; 0000000aH
  00058	c7 45 a0 09 00
	00 00		 mov	 DWORD PTR $T9[ebp], 9
  0005f	c7 45 9c 08 00
	00 00		 mov	 DWORD PTR $T8[ebp], 8
  00066	c7 45 98 07 00
	00 00		 mov	 DWORD PTR $T7[ebp], 7
  0006d	c7 45 94 06 00
	00 00		 mov	 DWORD PTR $T6[ebp], 6
  00074	c7 45 90 05 00
	00 00		 mov	 DWORD PTR $T5[ebp], 5
  0007b	c7 45 8c 04 00
	00 00		 mov	 DWORD PTR $T4[ebp], 4
  00082	c7 45 88 02 00
	00 00		 mov	 DWORD PTR $T3[ebp], 2
  00089	c7 45 84 01 00
	00 00		 mov	 DWORD PTR $T2[ebp], 1
  00090	8d 45 bc	 lea	 eax, DWORD PTR $T16[ebp]
  00093	50		 push	 eax
  00094	8d 4d b8	 lea	 ecx, DWORD PTR $T15[ebp]
  00097	51		 push	 ecx
  00098	8d 55 b4	 lea	 edx, DWORD PTR $T14[ebp]
  0009b	52		 push	 edx
  0009c	8d 45 b0	 lea	 eax, DWORD PTR $T13[ebp]
  0009f	50		 push	 eax
  000a0	8d 4d ac	 lea	 ecx, DWORD PTR $T12[ebp]
  000a3	51		 push	 ecx
  000a4	8d 55 a8	 lea	 edx, DWORD PTR $T11[ebp]
  000a7	52		 push	 edx
  000a8	8d 45 a4	 lea	 eax, DWORD PTR $T10[ebp]
  000ab	50		 push	 eax
  000ac	8d 4d a0	 lea	 ecx, DWORD PTR $T9[ebp]
  000af	51		 push	 ecx
  000b0	8d 55 9c	 lea	 edx, DWORD PTR $T8[ebp]
  000b3	52		 push	 edx
  000b4	8d 45 98	 lea	 eax, DWORD PTR $T7[ebp]
  000b7	50		 push	 eax
  000b8	8d 4d 94	 lea	 ecx, DWORD PTR $T6[ebp]
  000bb	51		 push	 ecx
  000bc	8d 55 90	 lea	 edx, DWORD PTR $T5[ebp]
  000bf	52		 push	 edx
  000c0	8d 45 8c	 lea	 eax, DWORD PTR $T4[ebp]
  000c3	50		 push	 eax
  000c4	8d 4d 88	 lea	 ecx, DWORD PTR $T3[ebp]
  000c7	51		 push	 ecx
  000c8	8d 55 84	 lea	 edx, DWORD PTR $T2[ebp]
  000cb	52		 push	 edx
  000cc	8d 85 48 ff ff
	ff		 lea	 eax, DWORD PTR $T1[ebp]
  000d2	50		 push	 eax
  000d3	e8 00 00 00 00	 call	 ??$make_array@W4CspTransfer@@W41@W41@W41@W41@W41@W41@W41@W41@W41@W41@W41@W41@W41@W41@W41@@@YA?AV?$array@W4CspTransfer@@$0P@@std@@$$QAW4CspTransfer@@00000000000000@Z ; make_array<enum CspTransfer,enum CspTransfer,enum CspTransfer,enum CspTransfer,enum CspTransfer,enum CspTransfer,enum CspTransfer,enum CspTransfer,enum CspTransfer,enum CspTransfer,enum CspTransfer,enum CspTransfer,enum CspTransfer,enum CspTransfer,enum CspTransfer,enum CspTransfer>
  000d8	83 c4 40	 add	 esp, 64			; 00000040H
  000db	b9 0f 00 00 00	 mov	 ecx, 15			; 0000000fH
  000e0	8b f0		 mov	 esi, eax
  000e2	8d 7d c0	 lea	 edi, DWORD PTR $T17[ebp]
  000e5	f3 a5		 rep movsd
  000e7	b9 0f 00 00 00	 mov	 ecx, 15			; 0000000fH
  000ec	8d 75 c0	 lea	 esi, DWORD PTR $T17[ebp]
  000ef	bf 00 00 00 00	 mov	 edi, OFFSET ?CspTransferList@@3V?$array@W4CspTransfer@@$0P@@std@@B
  000f4	f3 a5		 rep movsd
  000f6	5f		 pop	 edi
  000f7	5e		 pop	 esi
  000f8	8b 4d fc	 mov	 ecx, DWORD PTR __$ArrayPad$[ebp]
  000fb	33 cd		 xor	 ecx, ebp
  000fd	e8 00 00 00 00	 call	 @__security_check_cookie@4
  00102	81 c4 b8 00 00
	00		 add	 esp, 184		; 000000b8H
  00108	3b ec		 cmp	 ebp, esp
  0010a	e8 00 00 00 00	 call	 __RTC_CheckEsp
  0010f	8b e5		 mov	 esp, ebp
  00111	5d		 pop	 ebp
  00112	c3		 ret	 0
??__ECspTransferList@@YAXXZ ENDP			; `dynamic initializer for 'CspTransferList''
text$di	ENDS
; Function compile flags: /Odtp /RTCsu
; File D:\work\intel\intel_codec\QSVPipeline\rgy_util.h
;	COMDAT ??$make_array@W4CspTransfer@@W41@W41@W41@W41@W41@W41@W41@W41@W41@W41@W41@W41@W41@W41@W41@@@YA?AV?$array@W4CspTransfer@@$0P@@std@@$$QAW4CspTransfer@@00000000000000@Z
_TEXT	SEGMENT
$T1 = -64						; size = 60
__$ArrayPad$ = -4					; size = 4
$T2 = 8							; size = 4
_<args_0>$ = 12						; size = 4
_<args_1>$ = 16						; size = 4
_<args_2>$ = 20						; size = 4
_<args_3>$ = 24						; size = 4
_<args_4>$ = 28						; size = 4
_<args_5>$ = 32						; size = 4
_<args_6>$ = 36						; size = 4
_<args_7>$ = 40						; size = 4
_<args_8>$ = 44						; size = 4
_<args_9>$ = 48						; size = 4
_<args_10>$ = 52					; size = 4
_<args_11>$ = 56					; size = 4
_<args_12>$ = 60					; size = 4
_<args_13>$ = 64					; size = 4
_<args_14>$ = 68					; size = 4
??$make_array@W4CspTransfer@@W41@W41@W41@W41@W41@W41@W41@W41@W41@W41@W41@W41@W41@W41@W41@@@YA?AV?$array@W4CspTransfer@@$0P@@std@@$$QAW4CspTransfer@@00000000000000@Z PROC ; make_array<enum CspTransfer,enum CspTransfer,enum CspTransfer,enum CspTransfer,enum CspTransfer,enum CspTransfer,enum CspTransfer,enum CspTransfer,enum CspTransfer,enum CspTransfer,enum CspTransfer,enum CspTransfer,enum CspTransfer,enum CspTransfer,enum CspTransfer,enum CspTransfer>, COMDAT

; 129  : constexpr std::array<T, sizeof...(Args)> make_array(Args&&... args) {

  00000	55		 push	 ebp
  00001	8b ec		 mov	 ebp, esp
  00003	83 ec 40	 sub	 esp, 64			; 00000040H
  00006	56		 push	 esi
  00007	57		 push	 edi
  00008	8d 7d c0	 lea	 edi, DWORD PTR [ebp-64]
  0000b	b9 10 00 00 00	 mov	 ecx, 16			; 00000010H
  00010	b8 cc cc cc cc	 mov	 eax, -858993460		; ccccccccH
  00015	f3 ab		 rep stosd
  00017	a1 00 00 00 00	 mov	 eax, DWORD PTR ___security_cookie
  0001c	33 c5		 xor	 eax, ebp
  0001e	89 45 fc	 mov	 DWORD PTR __$ArrayPad$[ebp], eax

; 130  :     return std::array<T, sizeof...(Args)>{ static_cast<Args&&>(args)... };

  00021	8b 45 0c	 mov	 eax, DWORD PTR _<args_0>$[ebp]
  00024	8b 08		 mov	 ecx, DWORD PTR [eax]
  00026	89 4d c0	 mov	 DWORD PTR $T1[ebp], ecx
  00029	8b 55 10	 mov	 edx, DWORD PTR _<args_1>$[ebp]
  0002c	8b 02		 mov	 eax, DWORD PTR [edx]
  0002e	89 45 c4	 mov	 DWORD PTR $T1[ebp+4], eax
  00031	8b 4d 14	 mov	 ecx, DWORD PTR _<args_2>$[ebp]
  00034	8b 11		 mov	 edx, DWORD PTR [ecx]
  00036	89 55 c8	 mov	 DWORD PTR $T1[ebp+8], edx
  00039	8b 45 18	 mov	 eax, DWORD PTR _<args_3>$[ebp]
  0003c	8b 08		 mov	 ecx, DWORD PTR [eax]
  0003e	89 4d cc	 mov	 DWORD PTR $T1[ebp+12], ecx
  00041	8b 55 1c	 mov	 edx, DWORD PTR _<args_4>$[ebp]
  00044	8b 02		 mov	 eax, DWORD PTR [edx]
  00046	89 45 d0	 mov	 DWORD PTR $T1[ebp+16], eax
  00049	8b 4d 20	 mov	 ecx, DWORD PTR _<args_5>$[ebp]
  0004c	8b 11		 mov	 edx, DWORD PTR [ecx]
  0004e	89 55 d4	 mov	 DWORD PTR $T1[ebp+20], edx
  00051	8b 45 24	 mov	 eax, DWORD PTR _<args_6>$[ebp]
  00054	8b 08		 mov	 ecx, DWORD PTR [eax]
  00056	89 4d d8	 mov	 DWORD PTR $T1[ebp+24], ecx
  00059	8b 55 28	 mov	 edx, DWORD PTR _<args_7>$[ebp]
  0005c	8b 02		 mov	 eax, DWORD PTR [edx]
  0005e	89 45 dc	 mov	 DWORD PTR $T1[ebp+28], eax
  00061	8b 4d 2c	 mov	 ecx, DWORD PTR _<args_8>$[ebp]
  00064	8b 11		 mov	 edx, DWORD PTR [ecx]
  00066	89 55 e0	 mov	 DWORD PTR $T1[ebp+32], edx
  00069	8b 45 30	 mov	 eax, DWORD PTR _<args_9>$[ebp]
  0006c	8b 08		 mov	 ecx, DWORD PTR [eax]
  0006e	89 4d e4	 mov	 DWORD PTR $T1[ebp+36], ecx
  00071	8b 55 34	 mov	 edx, DWORD PTR _<args_10>$[ebp]
  00074	8b 02		 mov	 eax, DWORD PTR [edx]
  00076	89 45 e8	 mov	 DWORD PTR $T1[ebp+40], eax
  00079	8b 4d 38	 mov	 ecx, DWORD PTR _<args_11>$[ebp]
  0007c	8b 11		 mov	 edx, DWORD PTR [ecx]
  0007e	89 55 ec	 mov	 DWORD PTR $T1[ebp+44], edx
  00081	8b 45 3c	 mov	 eax, DWORD PTR _<args_12>$[ebp]
  00084	8b 08		 mov	 ecx, DWORD PTR [eax]
  00086	89 4d f0	 mov	 DWORD PTR $T1[ebp+48], ecx
  00089	8b 55 40	 mov	 edx, DWORD PTR _<args_13>$[ebp]
  0008c	8b 02		 mov	 eax, DWORD PTR [edx]
  0008e	89 45 f4	 mov	 DWORD PTR $T1[ebp+52], eax
  00091	8b 4d 44	 mov	 ecx, DWORD PTR _<args_14>$[ebp]
  00094	8b 11		 mov	 edx, DWORD PTR [ecx]
  00096	89 55 f8	 mov	 DWORD PTR $T1[ebp+56], edx
  00099	b9 0f 00 00 00	 mov	 ecx, 15			; 0000000fH
  0009e	8d 75 c0	 lea	 esi, DWORD PTR $T1[ebp]
  000a1	8b 7d 08	 mov	 edi, DWORD PTR $T2[ebp]
  000a4	f3 a5		 rep movsd
  000a6	8b 45 08	 mov	 eax, DWORD PTR $T2[ebp]

; 131  : }

  000a9	5f		 pop	 edi
  000aa	5e		 pop	 esi
  000ab	8b 4d fc	 mov	 ecx, DWORD PTR __$ArrayPad$[ebp]
  000ae	33 cd		 xor	 ecx, ebp
  000b0	e8 00 00 00 00	 call	 @__security_check_cookie@4
  000b5	8b e5		 mov	 esp, ebp
  000b7	5d		 pop	 ebp
  000b8	c3		 ret	 0
??$make_array@W4CspTransfer@@W41@W41@W41@W41@W41@W41@W41@W41@W41@W41@W41@W41@W41@W41@W41@@@YA?AV?$array@W4CspTransfer@@$0P@@std@@$$QAW4CspTransfer@@00000000000000@Z ENDP ; make_array<enum CspTransfer,enum CspTransfer,enum CspTransfer,enum CspTransfer,enum CspTransfer,enum CspTransfer,enum CspTransfer,enum CspTransfer,enum CspTransfer,enum CspTransfer,enum CspTransfer,enum CspTransfer,enum CspTransfer,enum CspTransfer,enum CspTransfer,enum CspTransfer>
_TEXT	ENDS
; Function compile flags: /Odtp /RTCsu
; File D:\work\intel\intel_codec\QSVPipeline\rgy_util.h
;	COMDAT ??__ECspMatrixList@@YAXXZ
text$di	SEGMENT
$T1 = -172						; size = 56
$T2 = -116						; size = 4
$T3 = -112						; size = 4
$T4 = -108						; size = 4
$T5 = -104						; size = 4
$T6 = -100						; size = 4
$T7 = -96						; size = 4
$T8 = -92						; size = 4
$T9 = -88						; size = 4
$T10 = -84						; size = 4
$T11 = -80						; size = 4
$T12 = -76						; size = 4
$T13 = -72						; size = 4
$T14 = -68						; size = 4
$T15 = -64						; size = 4
$T16 = -60						; size = 56
__$ArrayPad$ = -4					; size = 4
??__ECspMatrixList@@YAXXZ PROC				; `dynamic initializer for 'CspMatrixList'', COMDAT

; 1080 : );

  00000	55		 push	 ebp
  00001	8b ec		 mov	 ebp, esp
  00003	81 ec ac 00 00
	00		 sub	 esp, 172		; 000000acH
  00009	56		 push	 esi
  0000a	57		 push	 edi
  0000b	8d bd 54 ff ff
	ff		 lea	 edi, DWORD PTR [ebp-172]
  00011	b9 2b 00 00 00	 mov	 ecx, 43			; 0000002bH
  00016	b8 cc cc cc cc	 mov	 eax, -858993460		; ccccccccH
  0001b	f3 ab		 rep stosd
  0001d	a1 00 00 00 00	 mov	 eax, DWORD PTR ___security_cookie
  00022	33 c5		 xor	 eax, ebp
  00024	89 45 fc	 mov	 DWORD PTR __$ArrayPad$[ebp], eax

; 1065 : static const auto CspMatrixList = make_array<CspMatrix>(

  00027	c7 45 c0 0f 00
	00 00		 mov	 DWORD PTR $T15[ebp], 15	; 0000000fH
  0002e	c7 45 bc 0e 00
	00 00		 mov	 DWORD PTR $T14[ebp], 14	; 0000000eH
  00035	c7 45 b8 0d 00
	00 00		 mov	 DWORD PTR $T13[ebp], 13	; 0000000dH
  0003c	c7 45 b4 0c 00
	00 00		 mov	 DWORD PTR $T12[ebp], 12	; 0000000cH
  00043	c7 45 b0 0a 00
	00 00		 mov	 DWORD PTR $T11[ebp], 10	; 0000000aH
  0004a	c7 45 ac 09 00
	00 00		 mov	 DWORD PTR $T10[ebp], 9
  00051	c7 45 a8 08 00
	00 00		 mov	 DWORD PTR $T9[ebp], 8
  00058	c7 45 a4 07 00
	00 00		 mov	 DWORD PTR $T8[ebp], 7
  0005f	c7 45 a0 06 00
	00 00		 mov	 DWORD PTR $T7[ebp], 6
  00066	c7 45 9c 05 00
	00 00		 mov	 DWORD PTR $T6[ebp], 5
  0006d	c7 45 98 04 00
	00 00		 mov	 DWORD PTR $T5[ebp], 4
  00074	c7 45 94 02 00
	00 00		 mov	 DWORD PTR $T4[ebp], 2
  0007b	c7 45 90 01 00
	00 00		 mov	 DWORD PTR $T3[ebp], 1
  00082	c7 45 8c 00 00
	00 00		 mov	 DWORD PTR $T2[ebp], 0
  00089	8d 45 c0	 lea	 eax, DWORD PTR $T15[ebp]
  0008c	50		 push	 eax
  0008d	8d 4d bc	 lea	 ecx, DWORD PTR $T14[ebp]
  00090	51		 push	 ecx
  00091	8d 55 b8	 lea	 edx, DWORD PTR $T13[ebp]
  00094	52		 push	 edx
  00095	8d 45 b4	 lea	 eax, DWORD PTR $T12[ebp]
  00098	50		 push	 eax
  00099	8d 4d b0	 lea	 ecx, DWORD PTR $T11[ebp]
  0009c	51		 push	 ecx
  0009d	8d 55 ac	 lea	 edx, DWORD PTR $T10[ebp]
  000a0	52		 push	 edx
  000a1	8d 45 a8	 lea	 eax, DWORD PTR $T9[ebp]
  000a4	50		 push	 eax
  000a5	8d 4d a4	 lea	 ecx, DWORD PTR $T8[ebp]
  000a8	51		 push	 ecx
  000a9	8d 55 a0	 lea	 edx, DWORD PTR $T7[ebp]
  000ac	52		 push	 edx
  000ad	8d 45 9c	 lea	 eax, DWORD PTR $T6[ebp]
  000b0	50		 push	 eax
  000b1	8d 4d 98	 lea	 ecx, DWORD PTR $T5[ebp]
  000b4	51		 push	 ecx
  000b5	8d 55 94	 lea	 edx, DWORD PTR $T4[ebp]
  000b8	52		 push	 edx
  000b9	8d 45 90	 lea	 eax, DWORD PTR $T3[ebp]
  000bc	50		 push	 eax
  000bd	8d 4d 8c	 lea	 ecx, DWORD PTR $T2[ebp]
  000c0	51		 push	 ecx
  000c1	8d 95 54 ff ff
	ff		 lea	 edx, DWORD PTR $T1[ebp]
  000c7	52		 push	 edx
  000c8	e8 00 00 00 00	 call	 ??$make_array@W4CspMatrix@@W41@W41@W41@W41@W41@W41@W41@W41@W41@W41@W41@W41@W41@W41@@@YA?AV?$array@W4CspMatrix@@$0O@@std@@$$QAW4CspMatrix@@0000000000000@Z ; make_array<enum CspMatrix,enum CspMatrix,enum CspMatrix,enum CspMatrix,enum CspMatrix,enum CspMatrix,enum CspMatrix,enum CspMatrix,enum CspMatrix,enum CspMatrix,enum CspMatrix,enum CspMatrix,enum CspMatrix,enum CspMatrix,enum CspMatrix>
  000cd	83 c4 3c	 add	 esp, 60			; 0000003cH
  000d0	b9 0e 00 00 00	 mov	 ecx, 14			; 0000000eH
  000d5	8b f0		 mov	 esi, eax
  000d7	8d 7d c4	 lea	 edi, DWORD PTR $T16[ebp]
  000da	f3 a5		 rep movsd
  000dc	b9 0e 00 00 00	 mov	 ecx, 14			; 0000000eH
  000e1	8d 75 c4	 lea	 esi, DWORD PTR $T16[ebp]
  000e4	bf 00 00 00 00	 mov	 edi, OFFSET ?CspMatrixList@@3V?$array@W4CspMatrix@@$0O@@std@@B
  000e9	f3 a5		 rep movsd
  000eb	5f		 pop	 edi
  000ec	5e		 pop	 esi
  000ed	8b 4d fc	 mov	 ecx, DWORD PTR __$ArrayPad$[ebp]
  000f0	33 cd		 xor	 ecx, ebp
  000f2	e8 00 00 00 00	 call	 @__security_check_cookie@4
  000f7	81 c4 ac 00 00
	00		 add	 esp, 172		; 000000acH
  000fd	3b ec		 cmp	 ebp, esp
  000ff	e8 00 00 00 00	 call	 __RTC_CheckEsp
  00104	8b e5		 mov	 esp, ebp
  00106	5d		 pop	 ebp
  00107	c3		 ret	 0
??__ECspMatrixList@@YAXXZ ENDP				; `dynamic initializer for 'CspMatrixList''
text$di	ENDS
; Function compile flags: /Odtp /RTCsu
; File D:\work\intel\intel_codec\QSVPipeline\rgy_util.h
;	COMDAT ??$make_array@W4CspMatrix@@W41@W41@W41@W41@W41@W41@W41@W41@W41@W41@W41@W41@W41@W41@@@YA?AV?$array@W4CspMatrix@@$0O@@std@@$$QAW4CspMatrix@@0000000000000@Z
_TEXT	SEGMENT
$T1 = -60						; size = 56
__$ArrayPad$ = -4					; size = 4
$T2 = 8							; size = 4
_<args_0>$ = 12						; size = 4
_<args_1>$ = 16						; size = 4
_<args_2>$ = 20						; size = 4
_<args_3>$ = 24						; size = 4
_<args_4>$ = 28						; size = 4
_<args_5>$ = 32						; size = 4
_<args_6>$ = 36						; size = 4
_<args_7>$ = 40						; size = 4
_<args_8>$ = 44						; size = 4
_<args_9>$ = 48						; size = 4
_<args_10>$ = 52					; size = 4
_<args_11>$ = 56					; size = 4
_<args_12>$ = 60					; size = 4
_<args_13>$ = 64					; size = 4
??$make_array@W4CspMatrix@@W41@W41@W41@W41@W41@W41@W41@W41@W41@W41@W41@W41@W41@W41@@@YA?AV?$array@W4CspMatrix@@$0O@@std@@$$QAW4CspMatrix@@0000000000000@Z PROC ; make_array<enum CspMatrix,enum CspMatrix,enum CspMatrix,enum CspMatrix,enum CspMatrix,enum CspMatrix,enum CspMatrix,enum CspMatrix,enum CspMatrix,enum CspMatrix,enum CspMatrix,enum CspMatrix,enum CspMatrix,enum CspMatrix,enum CspMatrix>, COMDAT

; 129  : constexpr std::array<T, sizeof...(Args)> make_array(Args&&... args) {

  00000	55		 push	 ebp
  00001	8b ec		 mov	 ebp, esp
  00003	83 ec 3c	 sub	 esp, 60			; 0000003cH
  00006	56		 push	 esi
  00007	57		 push	 edi
  00008	8d 7d c4	 lea	 edi, DWORD PTR [ebp-60]
  0000b	b9 0f 00 00 00	 mov	 ecx, 15			; 0000000fH
  00010	b8 cc cc cc cc	 mov	 eax, -858993460		; ccccccccH
  00015	f3 ab		 rep stosd
  00017	a1 00 00 00 00	 mov	 eax, DWORD PTR ___security_cookie
  0001c	33 c5		 xor	 eax, ebp
  0001e	89 45 fc	 mov	 DWORD PTR __$ArrayPad$[ebp], eax

; 130  :     return std::array<T, sizeof...(Args)>{ static_cast<Args&&>(args)... };

  00021	8b 45 0c	 mov	 eax, DWORD PTR _<args_0>$[ebp]
  00024	8b 08		 mov	 ecx, DWORD PTR [eax]
  00026	89 4d c4	 mov	 DWORD PTR $T1[ebp], ecx
  00029	8b 55 10	 mov	 edx, DWORD PTR _<args_1>$[ebp]
  0002c	8b 02		 mov	 eax, DWORD PTR [edx]
  0002e	89 45 c8	 mov	 DWORD PTR $T1[ebp+4], eax
  00031	8b 4d 14	 mov	 ecx, DWORD PTR _<args_2>$[ebp]
  00034	8b 11		 mov	 edx, DWORD PTR [ecx]
  00036	89 55 cc	 mov	 DWORD PTR $T1[ebp+8], edx
  00039	8b 45 18	 mov	 eax, DWORD PTR _<args_3>$[ebp]
  0003c	8b 08		 mov	 ecx, DWORD PTR [eax]
  0003e	89 4d d0	 mov	 DWORD PTR $T1[ebp+12], ecx
  00041	8b 55 1c	 mov	 edx, DWORD PTR _<args_4>$[ebp]
  00044	8b 02		 mov	 eax, DWORD PTR [edx]
  00046	89 45 d4	 mov	 DWORD PTR $T1[ebp+16], eax
  00049	8b 4d 20	 mov	 ecx, DWORD PTR _<args_5>$[ebp]
  0004c	8b 11		 mov	 edx, DWORD PTR [ecx]
  0004e	89 55 d8	 mov	 DWORD PTR $T1[ebp+20], edx
  00051	8b 45 24	 mov	 eax, DWORD PTR _<args_6>$[ebp]
  00054	8b 08		 mov	 ecx, DWORD PTR [eax]
  00056	89 4d dc	 mov	 DWORD PTR $T1[ebp+24], ecx
  00059	8b 55 28	 mov	 edx, DWORD PTR _<args_7>$[ebp]
  0005c	8b 02		 mov	 eax, DWORD PTR [edx]
  0005e	89 45 e0	 mov	 DWORD PTR $T1[ebp+28], eax
  00061	8b 4d 2c	 mov	 ecx, DWORD PTR _<args_8>$[ebp]
  00064	8b 11		 mov	 edx, DWORD PTR [ecx]
  00066	89 55 e4	 mov	 DWORD PTR $T1[ebp+32], edx
  00069	8b 45 30	 mov	 eax, DWORD PTR _<args_9>$[ebp]
  0006c	8b 08		 mov	 ecx, DWORD PTR [eax]
  0006e	89 4d e8	 mov	 DWORD PTR $T1[ebp+36], ecx
  00071	8b 55 34	 mov	 edx, DWORD PTR _<args_10>$[ebp]
  00074	8b 02		 mov	 eax, DWORD PTR [edx]
  00076	89 45 ec	 mov	 DWORD PTR $T1[ebp+40], eax
  00079	8b 4d 38	 mov	 ecx, DWORD PTR _<args_11>$[ebp]
  0007c	8b 11		 mov	 edx, DWORD PTR [ecx]
  0007e	89 55 f0	 mov	 DWORD PTR $T1[ebp+44], edx
  00081	8b 45 3c	 mov	 eax, DWORD PTR _<args_12>$[ebp]
  00084	8b 08		 mov	 ecx, DWORD PTR [eax]
  00086	89 4d f4	 mov	 DWORD PTR $T1[ebp+48], ecx
  00089	8b 55 40	 mov	 edx, DWORD PTR _<args_13>$[ebp]
  0008c	8b 02		 mov	 eax, DWORD PTR [edx]
  0008e	89 45 f8	 mov	 DWORD PTR $T1[ebp+52], eax
  00091	b9 0e 00 00 00	 mov	 ecx, 14			; 0000000eH
  00096	8d 75 c4	 lea	 esi, DWORD PTR $T1[ebp]
  00099	8b 7d 08	 mov	 edi, DWORD PTR $T2[ebp]
  0009c	f3 a5		 rep movsd
  0009e	8b 45 08	 mov	 eax, DWORD PTR $T2[ebp]

; 131  : }

  000a1	5f		 pop	 edi
  000a2	5e		 pop	 esi
  000a3	8b 4d fc	 mov	 ecx, DWORD PTR __$ArrayPad$[ebp]
  000a6	33 cd		 xor	 ecx, ebp
  000a8	e8 00 00 00 00	 call	 @__security_check_cookie@4
  000ad	8b e5		 mov	 esp, ebp
  000af	5d		 pop	 ebp
  000b0	c3		 ret	 0
??$make_array@W4CspMatrix@@W41@W41@W41@W41@W41@W41@W41@W41@W41@W41@W41@W41@W41@W41@@@YA?AV?$array@W4CspMatrix@@$0O@@std@@$$QAW4CspMatrix@@0000000000000@Z ENDP ; make_array<enum CspMatrix,enum CspMatrix,enum CspMatrix,enum CspMatrix,enum CspMatrix,enum CspMatrix,enum CspMatrix,enum CspMatrix,enum CspMatrix,enum CspMatrix,enum CspMatrix,enum CspMatrix,enum CspMatrix,enum CspMatrix,enum CspMatrix>
_TEXT	ENDS
; Function compile flags: /Odtp /RTCsu
; File D:\work\intel\intel_codec\QSVPipeline\qsv_hw_va.cpp
;	COMDAT ?__empty_global_delete@@YAXPAXI@Z
_TEXT	SEGMENT
___formal$ = 8						; size = 4
___formal$ = 12						; size = 4
?__empty_global_delete@@YAXPAXI@Z PROC			; __empty_global_delete, COMDAT

  00000	55		 push	 ebp
  00001	8b ec		 mov	 ebp, esp
  00003	5d		 pop	 ebp
  00004	c3		 ret	 0
?__empty_global_delete@@YAXPAXI@Z ENDP			; __empty_global_delete
_TEXT	ENDS
; Function compile flags: /Odtp /RTCsu
; File D:\work\intel\intel_codec\QSVPipeline\qsv_hw_va.cpp
;	COMDAT ?__empty_global_delete@@YAXPAX@Z
_TEXT	SEGMENT
___formal$ = 8						; size = 4
?__empty_global_delete@@YAXPAX@Z PROC			; __empty_global_delete, COMDAT

  00000	55		 push	 ebp
  00001	8b ec		 mov	 ebp, esp
  00003	5d		 pop	 ebp
  00004	c3		 ret	 0
?__empty_global_delete@@YAXPAX@Z ENDP			; __empty_global_delete
_TEXT	ENDS
END
