; Listing generated by Microsoft (R) Optimizing Compiler Version 19.23.28106.4 

	TITLE	D:\work\intel\intel_codec\QSVPipeline\rgy_pipe.cpp
	.686P
	.XMM
	include listing.inc
	.model	flat

INCLUDELIB MSVCRTD
INCLUDELIB OLDNAMES

CONST	SEGMENT
$SG114797 DB	'wb', 00H
	ORG $+1
$SG115348 DB	' ', 00H
	ORG $+2
$SG124212 DB	'invalid argument', 00H
	ORG $+3
$SG124213 DB	'%s', 00H
	ORG $+1
$SG124214 DB	'C:\Program Files (x86)\Microsoft Visual Studio\2019\Comm'
	DB	'unity\VC\Tools\MSVC\14.23.28105\include\xmemory', 00H
$SG124215 DB	'C', 00H, ':', 00H, '\', 00H, 'P', 00H, 'r', 00H, 'o', 00H
	DB	'g', 00H, 'r', 00H, 'a', 00H, 'm', 00H, ' ', 00H, 'F', 00H, 'i'
	DB	00H, 'l', 00H, 'e', 00H, 's', 00H, ' ', 00H, '(', 00H, 'x', 00H
	DB	'8', 00H, '6', 00H, ')', 00H, '\', 00H, 'M', 00H, 'i', 00H, 'c'
	DB	00H, 'r', 00H, 'o', 00H, 's', 00H, 'o', 00H, 'f', 00H, 't', 00H
	DB	' ', 00H, 'V', 00H, 'i', 00H, 's', 00H, 'u', 00H, 'a', 00H, 'l'
	DB	00H, ' ', 00H, 'S', 00H, 't', 00H, 'u', 00H, 'd', 00H, 'i', 00H
	DB	'o', 00H, '\', 00H, '2', 00H, '0', 00H, '1', 00H, '9', 00H, '\'
	DB	00H, 'C', 00H, 'o', 00H, 'm', 00H, 'm', 00H, 'u', 00H, 'n', 00H
	DB	'i', 00H, 't', 00H, 'y', 00H, '\', 00H, 'V', 00H, 'C', 00H, '\'
	DB	00H, 'T', 00H, 'o', 00H, 'o', 00H, 'l', 00H, 's', 00H, '\', 00H
	DB	'M', 00H, 'S', 00H, 'V', 00H, 'C', 00H, '\', 00H, '1', 00H, '4'
	DB	00H, '.', 00H, '2', 00H, '3', 00H, '.', 00H, '2', 00H, '8', 00H
	DB	'1', 00H, '0', 00H, '5', 00H, '\', 00H, 'i', 00H, 'n', 00H, 'c'
	DB	00H, 'l', 00H, 'u', 00H, 'd', 00H, 'e', 00H, '\', 00H, 'x', 00H
	DB	'm', 00H, 'e', 00H, 'm', 00H, 'o', 00H, 'r', 00H, 'y', 00H, 00H
	DB	00H
$SG124216 DB	's', 00H, 't', 00H, 'd', 00H, ':', 00H, ':', 00H, '_', 00H
	DB	'A', 00H, 'l', 00H, 'l', 00H, 'o', 00H, 'c', 00H, 'a', 00H, 't'
	DB	00H, 'e', 00H, '_', 00H, 'm', 00H, 'a', 00H, 'n', 00H, 'u', 00H
	DB	'a', 00H, 'l', 00H, 'l', 00H, 'y', 00H, '_', 00H, 'v', 00H, 'e'
	DB	00H, 'c', 00H, 't', 00H, 'o', 00H, 'r', 00H, '_', 00H, 'a', 00H
	DB	'l', 00H, 'i', 00H, 'g', 00H, 'n', 00H, 'e', 00H, 'd', 00H, 00H
	DB	00H
	ORG $+2
$SG124217 DB	'"', 00H, 'i', 00H, 'n', 00H, 'v', 00H, 'a', 00H, 'l', 00H
	DB	'i', 00H, 'd', 00H, ' ', 00H, 'a', 00H, 'r', 00H, 'g', 00H, 'u'
	DB	00H, 'm', 00H, 'e', 00H, 'n', 00H, 't', 00H, '"', 00H, 00H, 00H
	ORG $+2
$SG124258 DB	'C:\Program Files (x86)\Microsoft Visual Studio\2019\Comm'
	DB	'unity\VC\Tools\MSVC\14.23.28105\include\xlocale', 00H
$SG111478 DB	'Invalid', 00H
$SG111479 DB	'nv12', 00H
	ORG $+3
$SG111480 DB	'yv12', 00H
	ORG $+3
$SG111481 DB	'yuy2', 00H
	ORG $+3
$SG111482 DB	'yuv422', 00H
	ORG $+1
$SG111483 DB	'nv16', 00H
	ORG $+3
$SG111484 DB	'yuv444', 00H
	ORG $+1
$SG111485 DB	'yv12(9bit)', 00H
	ORG $+1
$SG111486 DB	'yv12(10bit)', 00H
$SG111487 DB	'yv12(12bit)', 00H
$SG111488 DB	'yv12(14bit)', 00H
$SG111489 DB	'yv12(16bit)', 00H
$SG111490 DB	'p010', 00H
	ORG $+3
$SG111491 DB	'yuv422(9bit)', 00H
	ORG $+3
$SG111492 DB	'yuv422(10bit)', 00H
	ORG $+2
$SG111493 DB	'yuv422(12bit)', 00H
	ORG $+2
$SG111494 DB	'yuv422(14bit)', 00H
	ORG $+2
$SG111495 DB	'yuv422(16bit)', 00H
	ORG $+2
$SG111496 DB	'p210', 00H
	ORG $+3
$SG111497 DB	'yuv444(9bit)', 00H
	ORG $+3
$SG111498 DB	'yuv444(10bit)', 00H
	ORG $+2
$SG111499 DB	'yuv444(12bit)', 00H
	ORG $+2
$SG111500 DB	'yuv444(14bit)', 00H
	ORG $+2
$SG111501 DB	'yuv444(16bit)', 00H
	ORG $+2
$SG111502 DB	'yuva444', 00H
$SG111503 DB	'yuva444(16bit)', 00H
	ORG $+1
$SG111504 DB	'rgb24r', 00H
	ORG $+1
$SG111505 DB	'rgb32r', 00H
	ORG $+1
$SG111506 DB	'rgb24', 00H
	ORG $+2
$SG111507 DB	'rgb32', 00H
	ORG $+2
$SG111508 DB	'bgr24', 00H
	ORG $+2
$SG111509 DB	'bgr32', 00H
	ORG $+2
$SG111510 DB	'rgb', 00H
$SG111511 DB	'rgba', 00H
	ORG $+3
$SG111512 DB	'gbr', 00H
$SG111513 DB	'gbra', 00H
	ORG $+3
$SG111514 DB	'yc48', 00H
	ORG $+3
$SG111515 DB	'y8', 00H
	ORG $+1
$SG111516 DB	'yc16', 00H
	ORG $+3
$SG112446 DB	'H.264/AVC', 00H
	ORG $+2
$SG112448 DB	'H.265/HEVC', 00H
	ORG $+1
$SG112450 DB	'MPEG2', 00H
	ORG $+2
$SG112452 DB	'MPEG1', 00H
	ORG $+2
$SG112454 DB	'VC-1', 00H
	ORG $+3
$SG112456 DB	'MPEG4', 00H
	ORG $+2
$SG112458 DB	'VP8', 00H
$SG112460 DB	'VP9', 00H
$SG112462 DB	'unknown', 00H
$SG112569 DB	'unknown', 00H
?list_colormatrix@@3QBUCX_DESC@@B DD FLAT:$SG113064	; list_colormatrix
	DD	02H
	DD	FLAT:$SG113065
	DD	07fffffffH
	DD	FLAT:$SG113066
	DD	01H
	DD	FLAT:$SG113067
	DD	06H
	DD	FLAT:$SG113068
	DD	05H
	DD	FLAT:$SG113069
	DD	07H
	DD	FLAT:$SG113070
	DD	08H
	DD	FLAT:$SG113071
	DD	04H
	DD	FLAT:$SG113072
	DD	00H
	DD	FLAT:$SG113073
	DD	09H
	DD	FLAT:$SG113074
	DD	0aH
	DD	FLAT:$SG113075
	DD	0cH
	DD	FLAT:$SG113076
	DD	0dH
	DD	FLAT:$SG113077
	DD	0eH
	DD	FLAT:$SG113078
	DD	0fH
	DD	00H
	DD	00H
$SG113064 DB	'undef', 00H
	ORG $+2
$SG113065 DB	'auto', 00H
	ORG $+3
$SG113066 DB	'bt709', 00H
	ORG $+2
$SG113067 DB	'smpte170m', 00H
	ORG $+2
$SG113068 DB	'bt470bg', 00H
$SG113069 DB	'smpte240m', 00H
	ORG $+2
$SG113070 DB	'YCgCo', 00H
	ORG $+2
$SG113071 DB	'fcc', 00H
$SG113072 DB	'GBR', 00H
$SG113073 DB	'bt2020nc', 00H
	ORG $+3
$SG113074 DB	'bt2020c', 00H
$SG113075 DB	'derived-ncl', 00H
$SG113076 DB	'derived-cl', 00H
	ORG $+1
$SG113077 DB	'ictco', 00H
	ORG $+2
$SG113078 DB	'2100-lms', 00H
	ORG $+3
?list_transfer@@3QBUCX_DESC@@B DD FLAT:$SG113219	; list_transfer
	DD	02H
	DD	FLAT:$SG113220
	DD	07fffffffH
	DD	FLAT:$SG113221
	DD	01H
	DD	FLAT:$SG113222
	DD	06H
	DD	FLAT:$SG113223
	DD	04H
	DD	FLAT:$SG113224
	DD	05H
	DD	FLAT:$SG113225
	DD	07H
	DD	FLAT:$SG113226
	DD	08H
	DD	FLAT:$SG113227
	DD	09H
	DD	FLAT:$SG113228
	DD	0aH
	DD	FLAT:$SG113229
	DD	0bH
	DD	FLAT:$SG113230
	DD	0cH
	DD	FLAT:$SG113231
	DD	0dH
	DD	FLAT:$SG113232
	DD	0eH
	DD	FLAT:$SG113233
	DD	0fH
	DD	FLAT:$SG113234
	DD	010H
	DD	FLAT:$SG113235
	DD	011H
	DD	FLAT:$SG113236
	DD	012H
	DD	00H
	DD	00H
$SG113219 DB	'undef', 00H
	ORG $+2
$SG113220 DB	'auto', 00H
	ORG $+3
$SG113221 DB	'bt709', 00H
	ORG $+2
$SG113222 DB	'smpte170m', 00H
	ORG $+2
$SG113223 DB	'bt470m', 00H
	ORG $+1
$SG113224 DB	'bt470bg', 00H
$SG113225 DB	'smpte240m', 00H
	ORG $+2
$SG113226 DB	'linear', 00H
	ORG $+1
$SG113227 DB	'log100', 00H
	ORG $+1
$SG113228 DB	'log316', 00H
	ORG $+1
$SG113229 DB	'iec61966-2-4', 00H
	ORG $+3
$SG113230 DB	'bt1361e', 00H
$SG113231 DB	'iec61966-2-1', 00H
	ORG $+3
$SG113232 DB	'bt2020-10', 00H
	ORG $+2
$SG113233 DB	'bt2020-12', 00H
	ORG $+2
$SG113234 DB	'smpte2084', 00H
	ORG $+2
$SG113235 DB	'smpte428', 00H
	ORG $+3
$SG113236 DB	'arib-srd-b67', 00H
	ORG $+3
?list_colorprim@@3QBUCX_DESC@@B DD FLAT:$SG113368	; list_colorprim
	DD	02H
	DD	FLAT:$SG113369
	DD	07fffffffH
	DD	FLAT:$SG113370
	DD	01H
	DD	FLAT:$SG113371
	DD	06H
	DD	FLAT:$SG113372
	DD	04H
	DD	FLAT:$SG113373
	DD	05H
	DD	FLAT:$SG113374
	DD	07H
	DD	FLAT:$SG113375
	DD	08H
	DD	FLAT:$SG113376
	DD	09H
	DD	FLAT:$SG113377
	DD	0aH
	DD	FLAT:$SG113378
	DD	0bH
	DD	FLAT:$SG113379
	DD	0cH
	DD	FLAT:$SG113380
	DD	0dH
	DD	00H
	DD	00H
$SG113368 DB	'undef', 00H
	ORG $+2
$SG113369 DB	'auto', 00H
	ORG $+3
$SG113370 DB	'bt709', 00H
	ORG $+2
$SG113371 DB	'smpte170m', 00H
	ORG $+2
$SG113372 DB	'bt470m', 00H
	ORG $+1
$SG113373 DB	'bt470bg', 00H
$SG113374 DB	'smpte240m', 00H
	ORG $+2
$SG113375 DB	'film', 00H
	ORG $+3
$SG113376 DB	'bt2020', 00H
	ORG $+1
$SG113377 DB	'st428', 00H
	ORG $+2
$SG113378 DB	'st431-2', 00H
$SG113379 DB	'st432-1', 00H
$SG113380 DB	'ebu3213-e', 00H
	ORG $+2
?list_videoformat@@3QBUCX_DESC@@B DD FLAT:$SG113382	; list_videoformat
	DD	05H
	DD	FLAT:$SG113383
	DD	02H
	DD	FLAT:$SG113384
	DD	00H
	DD	FLAT:$SG113385
	DD	01H
	DD	FLAT:$SG113386
	DD	03H
	DD	FLAT:$SG113387
	DD	04H
	DD	00H
	DD	00H
$SG113382 DB	'undef', 00H
	ORG $+2
$SG113383 DB	'ntsc', 00H
	ORG $+3
$SG113384 DB	'component', 00H
	ORG $+2
$SG113385 DB	'pal', 00H
$SG113386 DB	'secam', 00H
	ORG $+2
$SG113387 DB	'mac', 00H
$SG113389 DB	'0', 00H
	ORG $+2
$SG113390 DB	'1', 00H
	ORG $+2
$SG113391 DB	'2', 00H
	ORG $+2
$SG113392 DB	'3', 00H
	ORG $+2
$SG113393 DB	'4', 00H
	ORG $+2
$SG113394 DB	'5', 00H
	ORG $+2
$SG113396 DB	'limited', 00H
$SG113397 DB	'full', 00H
	ORG $+3
$SG113398 DB	'tv', 00H
	ORG $+1
$SG113399 DB	'pc', 00H
	ORG $+1
$SG114481 DB	'trace', 00H
	ORG $+2
$SG114482 DB	'debug', 00H
	ORG $+2
$SG114483 DB	'more', 00H
	ORG $+3
$SG114484 DB	'info', 00H
	ORG $+3
$SG114485 DB	'warn', 00H
	ORG $+3
$SG114486 DB	'error', 00H
	ORG $+2
$SG114488 DB	'cfr', 00H
$SG114489 DB	'vfr', 00H
$SG114490 DB	'forcecfr', 00H
	ORG $+3
$SG114492 DB	'swr', 00H
$SG114493 DB	'soxr', 00H
CONST	ENDS
PUBLIC	?__empty_global_delete@@YAXPAX@Z		; __empty_global_delete
PUBLIC	?__empty_global_delete@@YAXPAXI@Z		; __empty_global_delete
PUBLIC	??2@YAPAXIPAX@Z					; operator new
PUBLIC	?max@?$numeric_limits@H@std@@SAHXZ		; std::numeric_limits<int>::max
PUBLIC	??0exception@std@@QAE@QBDH@Z			; std::exception::exception
PUBLIC	??0exception@std@@QAE@ABV01@@Z			; std::exception::exception
PUBLIC	??1exception@std@@UAE@XZ			; std::exception::~exception
PUBLIC	?what@exception@std@@UBEPBDXZ			; std::exception::what
PUBLIC	??_Gexception@std@@UAEPAXI@Z			; std::exception::`scalar deleting destructor'
PUBLIC	??0bad_alloc@std@@AAE@QBD@Z			; std::bad_alloc::bad_alloc
PUBLIC	??1bad_alloc@std@@UAE@XZ			; std::bad_alloc::~bad_alloc
PUBLIC	??0bad_alloc@std@@QAE@ABV01@@Z			; std::bad_alloc::bad_alloc
PUBLIC	??_Gbad_alloc@std@@UAEPAXI@Z			; std::bad_alloc::`scalar deleting destructor'
PUBLIC	??0bad_array_new_length@std@@QAE@XZ		; std::bad_array_new_length::bad_array_new_length
PUBLIC	??1bad_array_new_length@std@@UAE@XZ		; std::bad_array_new_length::~bad_array_new_length
PUBLIC	??0bad_array_new_length@std@@QAE@ABV01@@Z	; std::bad_array_new_length::bad_array_new_length
PUBLIC	??_Gbad_array_new_length@std@@UAEPAXI@Z		; std::bad_array_new_length::`scalar deleting destructor'
PUBLIC	?_Throw_bad_array_new_length@std@@YAXXZ		; std::_Throw_bad_array_new_length
PUBLIC	?_Allocate@_Default_allocate_traits@std@@SAPAXI@Z ; std::_Default_allocate_traits::_Allocate
PUBLIC	?_Adjust_manually_vector_aligned@std@@YAXAAPAXAAI@Z ; std::_Adjust_manually_vector_aligned
PUBLIC	??$_Convert_size@I@std@@YAII@Z			; std::_Convert_size<unsigned int>
PUBLIC	??0_Container_proxy@std@@QAE@PAU_Container_base12@1@@Z ; std::_Container_proxy::_Container_proxy
PUBLIC	??0_Container_base12@std@@QAE@XZ		; std::_Container_base12::_Container_base12
PUBLIC	?_Orphan_all@_Container_base12@std@@QAEXXZ	; std::_Container_base12::_Orphan_all
PUBLIC	?_Swap_proxy_and_iterators@_Container_base12@std@@QAEXAAU12@@Z ; std::_Container_base12::_Swap_proxy_and_iterators
PUBLIC	?_Release@_Basic_container_proxy_ptr12@std@@QAEXXZ ; std::_Basic_container_proxy_ptr12::_Release
PUBLIC	??0RGYPipeProcess@@QAE@XZ			; RGYPipeProcess::RGYPipeProcess
PUBLIC	??1RGYPipeProcess@@UAE@XZ			; RGYPipeProcess::~RGYPipeProcess
PUBLIC	??_GRGYPipeProcess@@UAEPAXI@Z			; RGYPipeProcess::`scalar deleting destructor'
PUBLIC	??0RGYPipeProcessWin@@QAE@XZ			; RGYPipeProcessWin::RGYPipeProcessWin
PUBLIC	??1RGYPipeProcessWin@@UAE@XZ			; RGYPipeProcessWin::~RGYPipeProcessWin
PUBLIC	?init@RGYPipeProcessWin@@UAEXXZ			; RGYPipeProcessWin::init
PUBLIC	?run@RGYPipeProcessWin@@UAEHABV?$vector@PBDV?$allocator@PBD@std@@@std@@PBDPAUProcessPipe@@I_N3@Z ; RGYPipeProcessWin::run
PUBLIC	?close@RGYPipeProcessWin@@UAEXXZ		; RGYPipeProcessWin::close
PUBLIC	?processAlive@RGYPipeProcessWin@@UAE_NXZ	; RGYPipeProcessWin::processAlive
PUBLIC	?getProcessInfo@RGYPipeProcessWin@@QAEABU_PROCESS_INFORMATION@@XZ ; RGYPipeProcessWin::getProcessInfo
PUBLIC	?startPipes@RGYPipeProcessWin@@MAEHPAUProcessPipe@@@Z ; RGYPipeProcessWin::startPipes
PUBLIC	??_GRGYPipeProcessWin@@UAEPAXI@Z		; RGYPipeProcessWin::`scalar deleting destructor'
PUBLIC	?length@?$_Narrow_char_traits@DH@std@@SAIQBD@Z	; std::_Narrow_char_traits<char,int>::length
PUBLIC	?copy@?$_Narrow_char_traits@DH@std@@SAPADQADQBDI@Z ; std::_Narrow_char_traits<char,int>::copy
PUBLIC	?move@?$_Narrow_char_traits@DH@std@@SAPADQADQBDI@Z ; std::_Narrow_char_traits<char,int>::move
PUBLIC	?assign@?$_Narrow_char_traits@DH@std@@SAXAADABD@Z ; std::_Narrow_char_traits<char,int>::assign
PUBLIC	??0?$allocator@D@std@@QAE@XZ			; std::allocator<char>::allocator<char>
PUBLIC	?deallocate@?$allocator@D@std@@QAEXQADI@Z	; std::allocator<char>::deallocate
PUBLIC	?allocate@?$allocator@D@std@@QAEPADI@Z		; std::allocator<char>::allocate
PUBLIC	?max_size@?$_Default_allocator_traits@V?$allocator@D@std@@@std@@SAIABV?$allocator@D@2@@Z ; std::_Default_allocator_traits<std::allocator<char> >::max_size
PUBLIC	??0?$_String_val@U?$_Simple_types@D@std@@@std@@QAE@XZ ; std::_String_val<std::_Simple_types<char> >::_String_val<std::_Simple_types<char> >
PUBLIC	?_Myptr@?$_String_val@U?$_Simple_types@D@std@@@std@@QAEPADXZ ; std::_String_val<std::_Simple_types<char> >::_Myptr
PUBLIC	?_Myptr@?$_String_val@U?$_Simple_types@D@std@@@std@@QBEPBDXZ ; std::_String_val<std::_Simple_types<char> >::_Myptr
PUBLIC	?_Large_string_engaged@?$_String_val@U?$_Simple_types@D@std@@@std@@QBE_NXZ ; std::_String_val<std::_Simple_types<char> >::_Large_string_engaged
PUBLIC	??0_Bxty@?$_String_val@U?$_Simple_types@D@std@@@std@@QAE@XZ ; std::_String_val<std::_Simple_types<char> >::_Bxty::_Bxty
PUBLIC	??1_Bxty@?$_String_val@U?$_Simple_types@D@std@@@std@@QAE@XZ ; std::_String_val<std::_Simple_types<char> >::_Bxty::~_Bxty
PUBLIC	??1?$_String_val@U?$_Simple_types@D@std@@@std@@QAE@XZ ; std::_String_val<std::_Simple_types<char> >::~_String_val<std::_Simple_types<char> >
PUBLIC	??0?$basic_string@DU?$char_traits@D@std@@V?$allocator@D@2@@std@@QAE@XZ ; std::basic_string<char,std::char_traits<char>,std::allocator<char> >::basic_string<char,std::char_traits<char>,std::allocator<char> >
PUBLIC	??0?$basic_string@DU?$char_traits@D@std@@V?$allocator@D@2@@std@@QAE@QBD@Z ; std::basic_string<char,std::char_traits<char>,std::allocator<char> >::basic_string<char,std::char_traits<char>,std::allocator<char> >
PUBLIC	??0?$basic_string@DU?$char_traits@D@std@@V?$allocator@D@2@@std@@QAE@$$QAV01@@Z ; std::basic_string<char,std::char_traits<char>,std::allocator<char> >::basic_string<char,std::char_traits<char>,std::allocator<char> >
PUBLIC	?_Memcpy_val_from@?$basic_string@DU?$char_traits@D@std@@V?$allocator@D@2@@std@@AAEXABV12@@Z ; std::basic_string<char,std::char_traits<char>,std::allocator<char> >::_Memcpy_val_from
PUBLIC	?_Take_contents@?$basic_string@DU?$char_traits@D@std@@V?$allocator@D@2@@std@@AAEXAAV12@U?$integral_constant@_N$00@2@@Z ; std::basic_string<char,std::char_traits<char>,std::allocator<char> >::_Take_contents
PUBLIC	??1?$basic_string@DU?$char_traits@D@std@@V?$allocator@D@2@@std@@QAE@XZ ; std::basic_string<char,std::char_traits<char>,std::allocator<char> >::~basic_string<char,std::char_traits<char>,std::allocator<char> >
PUBLIC	??Y?$basic_string@DU?$char_traits@D@std@@V?$allocator@D@2@@std@@QAEAAV01@ABV01@@Z ; std::basic_string<char,std::char_traits<char>,std::allocator<char> >::operator+=
PUBLIC	?append@?$basic_string@DU?$char_traits@D@std@@V?$allocator@D@2@@std@@QAEAAV12@ABV12@@Z ; std::basic_string<char,std::char_traits<char>,std::allocator<char> >::append
PUBLIC	?append@?$basic_string@DU?$char_traits@D@std@@V?$allocator@D@2@@std@@QAEAAV12@QBDI@Z ; std::basic_string<char,std::char_traits<char>,std::allocator<char> >::append
PUBLIC	?append@?$basic_string@DU?$char_traits@D@std@@V?$allocator@D@2@@std@@QAEAAV12@QBD@Z ; std::basic_string<char,std::char_traits<char>,std::allocator<char> >::append
PUBLIC	?assign@?$basic_string@DU?$char_traits@D@std@@V?$allocator@D@2@@std@@QAEAAV12@QBDI@Z ; std::basic_string<char,std::char_traits<char>,std::allocator<char> >::assign
PUBLIC	?assign@?$basic_string@DU?$char_traits@D@std@@V?$allocator@D@2@@std@@QAEAAV12@QBD@Z ; std::basic_string<char,std::char_traits<char>,std::allocator<char> >::assign
PUBLIC	?c_str@?$basic_string@DU?$char_traits@D@std@@V?$allocator@D@2@@std@@QBEPBDXZ ; std::basic_string<char,std::char_traits<char>,std::allocator<char> >::c_str
PUBLIC	?max_size@?$basic_string@DU?$char_traits@D@std@@V?$allocator@D@2@@std@@QBEIXZ ; std::basic_string<char,std::char_traits<char>,std::allocator<char> >::max_size
PUBLIC	?_Calculate_growth@?$basic_string@DU?$char_traits@D@std@@V?$allocator@D@2@@std@@CAIIII@Z ; std::basic_string<char,std::char_traits<char>,std::allocator<char> >::_Calculate_growth
PUBLIC	?_Calculate_growth@?$basic_string@DU?$char_traits@D@std@@V?$allocator@D@2@@std@@ABEII@Z ; std::basic_string<char,std::char_traits<char>,std::allocator<char> >::_Calculate_growth
PUBLIC	?_Tidy_init@?$basic_string@DU?$char_traits@D@std@@V?$allocator@D@2@@std@@AAEXXZ ; std::basic_string<char,std::char_traits<char>,std::allocator<char> >::_Tidy_init
PUBLIC	?_Tidy_deallocate@?$basic_string@DU?$char_traits@D@std@@V?$allocator@D@2@@std@@AAEXXZ ; std::basic_string<char,std::char_traits<char>,std::allocator<char> >::_Tidy_deallocate
PUBLIC	?_Xlen@?$basic_string@DU?$char_traits@D@std@@V?$allocator@D@2@@std@@CAXXZ ; std::basic_string<char,std::char_traits<char>,std::allocator<char> >::_Xlen
PUBLIC	?_Swap_proxy_and_iterators@?$basic_string@DU?$char_traits@D@std@@V?$allocator@D@2@@std@@AAEXAAV12@@Z ; std::basic_string<char,std::char_traits<char>,std::allocator<char> >::_Swap_proxy_and_iterators
PUBLIC	?_Getal@?$basic_string@DU?$char_traits@D@std@@V?$allocator@D@2@@std@@AAEAAV?$allocator@D@2@XZ ; std::basic_string<char,std::char_traits<char>,std::allocator<char> >::_Getal
PUBLIC	?_Getal@?$basic_string@DU?$char_traits@D@std@@V?$allocator@D@2@@std@@ABEABV?$allocator@D@2@XZ ; std::basic_string<char,std::char_traits<char>,std::allocator<char> >::_Getal
PUBLIC	?_Get_first@?$_Compressed_pair@V?$allocator@D@std@@V?$_String_val@U?$_Simple_types@D@std@@@2@$00@std@@QAEAAV?$allocator@D@2@XZ ; std::_Compressed_pair<std::allocator<char>,std::_String_val<std::_Simple_types<char> >,1>::_Get_first
PUBLIC	?_Get_first@?$_Compressed_pair@V?$allocator@D@std@@V?$_String_val@U?$_Simple_types@D@std@@@2@$00@std@@QBEABV?$allocator@D@2@XZ ; std::_Compressed_pair<std::allocator<char>,std::_String_val<std::_Simple_types<char> >,1>::_Get_first
PUBLIC	??1?$_Compressed_pair@V?$allocator@D@std@@V?$_String_val@U?$_Simple_types@D@std@@@2@$00@std@@QAE@XZ ; std::_Compressed_pair<std::allocator<char>,std::_String_val<std::_Simple_types<char> >,1>::~_Compressed_pair<std::allocator<char>,std::_String_val<std::_Simple_types<char> >,1>
PUBLIC	??$make_array@W4CspMatrix@@W41@W41@W41@W41@W41@W41@W41@W41@W41@W41@W41@W41@W41@W41@@@YA?AV?$array@W4CspMatrix@@$0O@@std@@$$QAW4CspMatrix@@0000000000000@Z ; make_array<enum CspMatrix,enum CspMatrix,enum CspMatrix,enum CspMatrix,enum CspMatrix,enum CspMatrix,enum CspMatrix,enum CspMatrix,enum CspMatrix,enum CspMatrix,enum CspMatrix,enum CspMatrix,enum CspMatrix,enum CspMatrix,enum CspMatrix>
PUBLIC	??$make_array@W4CspTransfer@@W41@W41@W41@W41@W41@W41@W41@W41@W41@W41@W41@W41@W41@W41@W41@@@YA?AV?$array@W4CspTransfer@@$0P@@std@@$$QAW4CspTransfer@@00000000000000@Z ; make_array<enum CspTransfer,enum CspTransfer,enum CspTransfer,enum CspTransfer,enum CspTransfer,enum CspTransfer,enum CspTransfer,enum CspTransfer,enum CspTransfer,enum CspTransfer,enum CspTransfer,enum CspTransfer,enum CspTransfer,enum CspTransfer,enum CspTransfer,enum CspTransfer>
PUBLIC	??$make_array@W4CspColorprim@@W41@W41@W41@W41@W41@W41@W41@W41@W41@W41@W41@W41@@@YA?AV?$array@W4CspColorprim@@$0M@@std@@$$QAW4CspColorprim@@00000000000@Z ; make_array<enum CspColorprim,enum CspColorprim,enum CspColorprim,enum CspColorprim,enum CspColorprim,enum CspColorprim,enum CspColorprim,enum CspColorprim,enum CspColorprim,enum CspColorprim,enum CspColorprim,enum CspColorprim,enum CspColorprim>
PUBLIC	??$?HDU?$char_traits@D@std@@V?$allocator@D@1@@std@@YA?AV?$basic_string@DU?$char_traits@D@std@@V?$allocator@D@2@@0@$$QAV10@QBD@Z ; std::operator+<char,std::char_traits<char>,std::allocator<char> >
PUBLIC	?_Unchecked_begin@?$vector@PBDV?$allocator@PBD@std@@@std@@QBEPBQBDXZ ; std::vector<char const *,std::allocator<char const *> >::_Unchecked_begin
PUBLIC	?_Unchecked_end@?$vector@PBDV?$allocator@PBD@std@@@std@@QBEPBQBDXZ ; std::vector<char const *,std::allocator<char const *> >::_Unchecked_end
PUBLIC	??$move@AAV?$basic_string@DU?$char_traits@D@std@@V?$allocator@D@2@@std@@@std@@YA$$QAV?$basic_string@DU?$char_traits@D@std@@V?$allocator@D@2@@0@AAV10@@Z ; std::move<std::basic_string<char,std::char_traits<char>,std::allocator<char> > &>
PUBLIC	??$_Min_value@I@std@@YAABIABI0@Z		; std::_Min_value<unsigned int>
PUBLIC	?allocate@?$allocator@U_Container_proxy@std@@@std@@QAEPAU_Container_proxy@2@I@Z ; std::allocator<std::_Container_proxy>::allocate
PUBLIC	??$_Delete_plain_internal@V?$allocator@U_Container_proxy@std@@@std@@@std@@YAXAAV?$allocator@U_Container_proxy@std@@@0@QAU_Container_proxy@0@@Z ; std::_Delete_plain_internal<std::allocator<std::_Container_proxy> >
PUBLIC	??0?$_Container_proxy_ptr12@V?$allocator@U_Container_proxy@std@@@std@@@std@@QAE@AAV?$allocator@U_Container_proxy@std@@@1@AAU_Container_base12@1@@Z ; std::_Container_proxy_ptr12<std::allocator<std::_Container_proxy> >::_Container_proxy_ptr12<std::allocator<std::_Container_proxy> >
PUBLIC	??1?$_Container_proxy_ptr12@V?$allocator@U_Container_proxy@std@@@std@@@std@@QAE@XZ ; std::_Container_proxy_ptr12<std::allocator<std::_Container_proxy> >::~_Container_proxy_ptr12<std::allocator<std::_Container_proxy> >
PUBLIC	??$_Alloc_proxy@V?$allocator@U_Container_proxy@std@@@std@@@_Container_base12@std@@QAEX$$QAV?$allocator@U_Container_proxy@std@@@1@@Z ; std::_Container_base12::_Alloc_proxy<std::allocator<std::_Container_proxy> >
PUBLIC	??$_Unfancy@D@std@@YAPADPAD@Z			; std::_Unfancy<char>
PUBLIC	??$addressof@V?$_String_val@U?$_Simple_types@D@std@@@std@@@std@@YAPAV?$_String_val@U?$_Simple_types@D@std@@@0@AAV10@@Z ; std::addressof<std::_String_val<std::_Simple_types<char> > >
PUBLIC	??$?0D@?$allocator@U_Container_proxy@std@@@std@@QAE@ABV?$allocator@D@1@@Z ; std::allocator<std::_Container_proxy>::allocator<std::_Container_proxy><char>
PUBLIC	??$move@AAV?$allocator@D@std@@@std@@YA$$QAV?$allocator@D@0@AAV10@@Z ; std::move<std::allocator<char> &>
PUBLIC	??$?0V?$allocator@D@std@@$$V@?$_Compressed_pair@V?$allocator@D@std@@V?$_String_val@U?$_Simple_types@D@std@@@2@$00@std@@QAE@U_One_then_variadic_args_t@1@$$QAV?$allocator@D@1@@Z ; std::_Compressed_pair<std::allocator<char>,std::_String_val<std::_Simple_types<char> >,1>::_Compressed_pair<std::allocator<char>,std::_String_val<std::_Simple_types<char> >,1><std::allocator<char> >
PUBLIC	??$?0$$V@?$_Compressed_pair@V?$allocator@D@std@@V?$_String_val@U?$_Simple_types@D@std@@@2@$00@std@@QAE@U_Zero_then_variadic_args_t@1@@Z ; std::_Compressed_pair<std::allocator<char>,std::_String_val<std::_Simple_types<char> >,1>::_Compressed_pair<std::allocator<char>,std::_String_val<std::_Simple_types<char> >,1><>
PUBLIC	??$_Unfancy@U_Container_proxy@std@@@std@@YAPAU_Container_proxy@0@PAU10@@Z ; std::_Unfancy<std::_Container_proxy>
PUBLIC	??$addressof@U_Container_base12@std@@@std@@YAPAU_Container_base12@0@AAU10@@Z ; std::addressof<std::_Container_base12>
PUBLIC	??$_Construct_in_place@U_Container_proxy@std@@PAU_Container_base12@2@@std@@YAXAAU_Container_proxy@0@$$QAPAU_Container_base12@0@@Z ; std::_Construct_in_place<std::_Container_proxy,std::_Container_base12 *>
PUBLIC	??$_Destroy_in_place@PAD@std@@YAXAAPAD@Z	; std::_Destroy_in_place<char *>
PUBLIC	??$_Max_value@I@std@@YAABIABI0@Z		; std::_Max_value<unsigned int>
PUBLIC	??$addressof@$$CBV?$_String_val@U?$_Simple_types@D@std@@@std@@@std@@YAPBV?$_String_val@U?$_Simple_types@D@std@@@0@ABV10@@Z ; std::addressof<std::_String_val<std::_Simple_types<char> > const >
PUBLIC	??R<lambda_9366063389c5f42a00a5088cf24e69de>@@QBEXQADIQBD@Z ; <lambda_9366063389c5f42a00a5088cf24e69de>::operator()
PUBLIC	??$_Reallocate_for@V<lambda_9366063389c5f42a00a5088cf24e69de>@@PBD@?$basic_string@DU?$char_traits@D@std@@V?$allocator@D@2@@std@@AAEAAV01@IV<lambda_9366063389c5f42a00a5088cf24e69de>@@PBD@Z ; std::basic_string<char,std::char_traits<char>,std::allocator<char> >::_Reallocate_for<<lambda_9366063389c5f42a00a5088cf24e69de>,char const *>
PUBLIC	??R<lambda_ab246b20b9526e2ef7792587e4298a77>@@QBEXQADQBDI1I@Z ; <lambda_ab246b20b9526e2ef7792587e4298a77>::operator()
PUBLIC	??$_Reallocate_grow_by@V<lambda_ab246b20b9526e2ef7792587e4298a77>@@PBDI@?$basic_string@DU?$char_traits@D@std@@V?$allocator@D@2@@std@@AAEAAV01@IV<lambda_ab246b20b9526e2ef7792587e4298a77>@@PBDI@Z ; std::basic_string<char,std::char_traits<char>,std::allocator<char> >::_Reallocate_grow_by<<lambda_ab246b20b9526e2ef7792587e4298a77>,char const *,unsigned int>
PUBLIC	??$_Construct_in_place@PADABQAD@std@@YAXAAPADABQAD@Z ; std::_Construct_in_place<char *,char * const &>
PUBLIC	??$_Get_size_of_n@$00@std@@YAII@Z		; std::_Get_size_of_n<1>
PUBLIC	??$_Allocate@$07U_Default_allocate_traits@std@@$0A@@std@@YAPAXI@Z ; std::_Allocate<8,std::_Default_allocate_traits,0>
PUBLIC	??$_Deallocate@$07$0A@@std@@YAXPAXI@Z		; std::_Deallocate<8,0>
PUBLIC	??$_Get_size_of_n@$07@std@@YAII@Z		; std::_Get_size_of_n<8>
PUBLIC	??$_Deallocate_plain@V?$allocator@U_Container_proxy@std@@@std@@@std@@YAXAAV?$allocator@U_Container_proxy@std@@@0@QAU_Container_proxy@0@@Z ; std::_Deallocate_plain<std::allocator<std::_Container_proxy> >
PUBLIC	??$forward@V?$allocator@D@std@@@std@@YA$$QAV?$allocator@D@0@AAV10@@Z ; std::forward<std::allocator<char> >
PUBLIC	??$addressof@U_Container_proxy@std@@@std@@YAPAU_Container_proxy@0@AAU10@@Z ; std::addressof<std::_Container_proxy>
PUBLIC	??$forward@PAU_Container_base12@std@@@std@@YA$$QAPAU_Container_base12@0@AAPAU10@@Z ; std::forward<std::_Container_base12 *>
PUBLIC	??$addressof@PAD@std@@YAPAPADAAPAD@Z		; std::addressof<char *>
PUBLIC	??$forward@ABQAD@std@@YAABQADABQAD@Z		; std::forward<char * const &>
PUBLIC	??$_Allocate_manually_vector_aligned@U_Default_allocate_traits@std@@@std@@YAPAXI@Z ; std::_Allocate_manually_vector_aligned<std::_Default_allocate_traits>
PUBLIC	?deallocate@?$_Default_allocator_traits@V?$allocator@U_Container_proxy@std@@@std@@@std@@SAXAAV?$allocator@U_Container_proxy@std@@@2@QAU_Container_proxy@2@I@Z ; std::_Default_allocator_traits<std::allocator<std::_Container_proxy> >::deallocate
PUBLIC	??_7exception@std@@6B@				; std::exception::`vftable'
PUBLIC	??_C@_0BC@EOODALEL@Unknown?5exception@		; `string'
PUBLIC	??_7bad_alloc@std@@6B@				; std::bad_alloc::`vftable'
PUBLIC	??_7bad_array_new_length@std@@6B@		; std::bad_array_new_length::`vftable'
PUBLIC	??_C@_0BF@KINCDENJ@bad?5array?5new?5length@	; `string'
PUBLIC	__TI3?AVbad_array_new_length@std@@
PUBLIC	__CTA3?AVbad_array_new_length@std@@
PUBLIC	??_R0?AVbad_array_new_length@std@@@8		; std::bad_array_new_length `RTTI Type Descriptor'
PUBLIC	__CT??_R0?AVbad_array_new_length@std@@@8??0bad_array_new_length@std@@QAE@ABV01@@Z12
PUBLIC	??_R0?AVbad_alloc@std@@@8			; std::bad_alloc `RTTI Type Descriptor'
PUBLIC	__CT??_R0?AVbad_alloc@std@@@8??0bad_alloc@std@@QAE@ABV01@@Z12
PUBLIC	??_R0?AVexception@std@@@8			; std::exception `RTTI Type Descriptor'
PUBLIC	__CT??_R0?AVexception@std@@@8??0exception@std@@QAE@ABV01@@Z12
PUBLIC	??_C@_0BB@FCMFBGOM@invalid?5argument@		; `string'
PUBLIC	??_C@_02DKCKIIND@?$CFs@				; `string'
PUBLIC	??_C@_0GI@FJIKDGOA@C?3?2Program?5Files?5?$CIx86?$CJ?2Microsof@ ; `string'
PUBLIC	??_C@_1NA@CDBIFGMM@?$AAC?$AA?3?$AA?2?$AAP?$AAr?$AAo?$AAg?$AAr?$AAa?$AAm?$AA?5?$AAF?$AAi?$AAl?$AAe@ ; `string'
PUBLIC	??_C@_1EK@NIFDJFDG@?$AAs?$AAt?$AAd?$AA?3?$AA?3?$AA_?$AAA?$AAd?$AAj?$AAu?$AAs?$AAt?$AA_?$AAm?$AAa@ ; `string'
PUBLIC	??_C@_1CG@JNLFBNGN@?$AA?$CC?$AAi?$AAn?$AAv?$AAa?$AAl?$AAi?$AAd?$AA?5?$AAa?$AAr?$AAg?$AAu?$AAm?$AAe@ ; `string'
PUBLIC	??_7RGYPipeProcess@@6B@				; RGYPipeProcess::`vftable'
PUBLIC	??_7RGYPipeProcessWin@@6B@			; RGYPipeProcessWin::`vftable'
PUBLIC	??_C@_0BA@JFNIOLAK@string?5too?5long@		; `string'
PUBLIC	??_R4exception@std@@6B@				; std::exception::`RTTI Complete Object Locator'
PUBLIC	??_R3exception@std@@8				; std::exception::`RTTI Class Hierarchy Descriptor'
PUBLIC	??_R2exception@std@@8				; std::exception::`RTTI Base Class Array'
PUBLIC	??_R1A@?0A@EA@exception@std@@8			; std::exception::`RTTI Base Class Descriptor at (0,-1,0,64)'
PUBLIC	??_R4bad_alloc@std@@6B@				; std::bad_alloc::`RTTI Complete Object Locator'
PUBLIC	??_R3bad_alloc@std@@8				; std::bad_alloc::`RTTI Class Hierarchy Descriptor'
PUBLIC	??_R2bad_alloc@std@@8				; std::bad_alloc::`RTTI Base Class Array'
PUBLIC	??_R1A@?0A@EA@bad_alloc@std@@8			; std::bad_alloc::`RTTI Base Class Descriptor at (0,-1,0,64)'
PUBLIC	??_R4bad_array_new_length@std@@6B@		; std::bad_array_new_length::`RTTI Complete Object Locator'
PUBLIC	??_R3bad_array_new_length@std@@8		; std::bad_array_new_length::`RTTI Class Hierarchy Descriptor'
PUBLIC	??_R2bad_array_new_length@std@@8		; std::bad_array_new_length::`RTTI Base Class Array'
PUBLIC	??_R1A@?0A@EA@bad_array_new_length@std@@8	; std::bad_array_new_length::`RTTI Base Class Descriptor at (0,-1,0,64)'
PUBLIC	??_R4RGYPipeProcess@@6B@			; RGYPipeProcess::`RTTI Complete Object Locator'
PUBLIC	??_R0?AVRGYPipeProcess@@@8			; RGYPipeProcess `RTTI Type Descriptor'
PUBLIC	??_R3RGYPipeProcess@@8				; RGYPipeProcess::`RTTI Class Hierarchy Descriptor'
PUBLIC	??_R2RGYPipeProcess@@8				; RGYPipeProcess::`RTTI Base Class Array'
PUBLIC	??_R1A@?0A@EA@RGYPipeProcess@@8			; RGYPipeProcess::`RTTI Base Class Descriptor at (0,-1,0,64)'
PUBLIC	??_R4RGYPipeProcessWin@@6B@			; RGYPipeProcessWin::`RTTI Complete Object Locator'
PUBLIC	??_R0?AVRGYPipeProcessWin@@@8			; RGYPipeProcessWin `RTTI Type Descriptor'
PUBLIC	??_R3RGYPipeProcessWin@@8			; RGYPipeProcessWin::`RTTI Class Hierarchy Descriptor'
PUBLIC	??_R2RGYPipeProcessWin@@8			; RGYPipeProcessWin::`RTTI Base Class Array'
PUBLIC	??_R1A@?0A@EA@RGYPipeProcessWin@@8		; RGYPipeProcessWin::`RTTI Base Class Descriptor at (0,-1,0,64)'
EXTRN	__purecall:PROC
EXTRN	??2@YAPAXI@Z:PROC				; operator new
EXTRN	??3@YAXPAXI@Z:PROC				; operator delete
EXTRN	__imp___invalid_parameter:PROC
EXTRN	_memcpy:PROC
EXTRN	_memmove:PROC
EXTRN	_memset:PROC
EXTRN	_strlen:PROC
EXTRN	__imp__CloseHandle@4:PROC
EXTRN	__imp__SetHandleInformation@12:PROC
EXTRN	__imp__CreatePipe@16:PROC
EXTRN	__imp__WaitForSingleObject@8:PROC
EXTRN	__imp__CreateProcessA@40:PROC
EXTRN	__imp___open_osfhandle:PROC
EXTRN	__imp___CrtDbgReport:PROC
EXTRN	__imp_??0_Lockit@std@@QAE@H@Z:PROC
EXTRN	__imp_??1_Lockit@std@@QAE@XZ:PROC
EXTRN	__imp___fdopen:PROC
EXTRN	___std_exception_copy:PROC
EXTRN	___std_exception_destroy:PROC
EXTRN	??_Eexception@std@@UAEPAXI@Z:PROC		; std::exception::`vector deleting destructor'
EXTRN	??_Ebad_alloc@std@@UAEPAXI@Z:PROC		; std::bad_alloc::`vector deleting destructor'
EXTRN	??_Ebad_array_new_length@std@@UAEPAXI@Z:PROC	; std::bad_array_new_length::`vector deleting destructor'
EXTRN	?_Xlength_error@std@@YAXPBD@Z:PROC		; std::_Xlength_error
EXTRN	??_ERGYPipeProcess@@UAEPAXI@Z:PROC		; RGYPipeProcess::`vector deleting destructor'
EXTRN	??_ERGYPipeProcessWin@@UAEPAXI@Z:PROC		; RGYPipeProcessWin::`vector deleting destructor'
EXTRN	@_RTC_CheckStackVars@8:PROC
EXTRN	@__security_check_cookie@4:PROC
EXTRN	__CxxThrowException@8:PROC
EXTRN	__RTC_CheckEsp:PROC
EXTRN	__RTC_InitBase:PROC
EXTRN	__RTC_Shutdown:PROC
EXTRN	___CxxFrameHandler3:PROC
EXTRN	??_7type_info@@6B@:QWORD			; type_info::`vftable'
EXTRN	___security_cookie:DWORD
_BSS	SEGMENT
?CspMatrixList@@3V?$array@W4CspMatrix@@$0O@@std@@B DB 038H DUP (?) ; CspMatrixList
?CspTransferList@@3V?$array@W4CspTransfer@@$0P@@std@@B DB 03cH DUP (?) ; CspTransferList
?CspColorprimList@@3V?$array@W4CspColorprim@@$0M@@std@@B DB 030H DUP (?) ; CspColorprimList
_BSS	ENDS
CRT$XCU	SEGMENT
?CspMatrixList$initializer$@@3P6AXXZA DD FLAT:??__ECspMatrixList@@YAXXZ ; CspMatrixList$initializer$
CRT$XCU	ENDS
;	COMDAT rtc$TMZ
rtc$TMZ	SEGMENT
__RTC_Shutdown.rtc$TMZ DD FLAT:__RTC_Shutdown
rtc$TMZ	ENDS
;	COMDAT rtc$IMZ
rtc$IMZ	SEGMENT
__RTC_InitBase.rtc$IMZ DD FLAT:__RTC_InitBase
rtc$IMZ	ENDS
;	COMDAT ??_R1A@?0A@EA@RGYPipeProcessWin@@8
rdata$r	SEGMENT
??_R1A@?0A@EA@RGYPipeProcessWin@@8 DD FLAT:??_R0?AVRGYPipeProcessWin@@@8 ; RGYPipeProcessWin::`RTTI Base Class Descriptor at (0,-1,0,64)'
	DD	01H
	DD	00H
	DD	0ffffffffH
	DD	00H
	DD	040H
	DD	FLAT:??_R3RGYPipeProcessWin@@8
rdata$r	ENDS
;	COMDAT ??_R2RGYPipeProcessWin@@8
rdata$r	SEGMENT
??_R2RGYPipeProcessWin@@8 DD FLAT:??_R1A@?0A@EA@RGYPipeProcessWin@@8 ; RGYPipeProcessWin::`RTTI Base Class Array'
	DD	FLAT:??_R1A@?0A@EA@RGYPipeProcess@@8
rdata$r	ENDS
;	COMDAT ??_R3RGYPipeProcessWin@@8
rdata$r	SEGMENT
??_R3RGYPipeProcessWin@@8 DD 00H			; RGYPipeProcessWin::`RTTI Class Hierarchy Descriptor'
	DD	00H
	DD	02H
	DD	FLAT:??_R2RGYPipeProcessWin@@8
rdata$r	ENDS
;	COMDAT ??_R0?AVRGYPipeProcessWin@@@8
data$r	SEGMENT
??_R0?AVRGYPipeProcessWin@@@8 DD FLAT:??_7type_info@@6B@ ; RGYPipeProcessWin `RTTI Type Descriptor'
	DD	00H
	DB	'.?AVRGYPipeProcessWin@@', 00H
data$r	ENDS
;	COMDAT ??_R4RGYPipeProcessWin@@6B@
rdata$r	SEGMENT
??_R4RGYPipeProcessWin@@6B@ DD 00H			; RGYPipeProcessWin::`RTTI Complete Object Locator'
	DD	00H
	DD	00H
	DD	FLAT:??_R0?AVRGYPipeProcessWin@@@8
	DD	FLAT:??_R3RGYPipeProcessWin@@8
rdata$r	ENDS
;	COMDAT ??_R1A@?0A@EA@RGYPipeProcess@@8
rdata$r	SEGMENT
??_R1A@?0A@EA@RGYPipeProcess@@8 DD FLAT:??_R0?AVRGYPipeProcess@@@8 ; RGYPipeProcess::`RTTI Base Class Descriptor at (0,-1,0,64)'
	DD	00H
	DD	00H
	DD	0ffffffffH
	DD	00H
	DD	040H
	DD	FLAT:??_R3RGYPipeProcess@@8
rdata$r	ENDS
;	COMDAT ??_R2RGYPipeProcess@@8
rdata$r	SEGMENT
??_R2RGYPipeProcess@@8 DD FLAT:??_R1A@?0A@EA@RGYPipeProcess@@8 ; RGYPipeProcess::`RTTI Base Class Array'
rdata$r	ENDS
;	COMDAT ??_R3RGYPipeProcess@@8
rdata$r	SEGMENT
??_R3RGYPipeProcess@@8 DD 00H				; RGYPipeProcess::`RTTI Class Hierarchy Descriptor'
	DD	00H
	DD	01H
	DD	FLAT:??_R2RGYPipeProcess@@8
rdata$r	ENDS
;	COMDAT ??_R0?AVRGYPipeProcess@@@8
data$r	SEGMENT
??_R0?AVRGYPipeProcess@@@8 DD FLAT:??_7type_info@@6B@	; RGYPipeProcess `RTTI Type Descriptor'
	DD	00H
	DB	'.?AVRGYPipeProcess@@', 00H
data$r	ENDS
;	COMDAT ??_R4RGYPipeProcess@@6B@
rdata$r	SEGMENT
??_R4RGYPipeProcess@@6B@ DD 00H				; RGYPipeProcess::`RTTI Complete Object Locator'
	DD	00H
	DD	00H
	DD	FLAT:??_R0?AVRGYPipeProcess@@@8
	DD	FLAT:??_R3RGYPipeProcess@@8
rdata$r	ENDS
;	COMDAT ??_R1A@?0A@EA@bad_array_new_length@std@@8
rdata$r	SEGMENT
??_R1A@?0A@EA@bad_array_new_length@std@@8 DD FLAT:??_R0?AVbad_array_new_length@std@@@8 ; std::bad_array_new_length::`RTTI Base Class Descriptor at (0,-1,0,64)'
	DD	02H
	DD	00H
	DD	0ffffffffH
	DD	00H
	DD	040H
	DD	FLAT:??_R3bad_array_new_length@std@@8
rdata$r	ENDS
;	COMDAT ??_R2bad_array_new_length@std@@8
rdata$r	SEGMENT
??_R2bad_array_new_length@std@@8 DD FLAT:??_R1A@?0A@EA@bad_array_new_length@std@@8 ; std::bad_array_new_length::`RTTI Base Class Array'
	DD	FLAT:??_R1A@?0A@EA@bad_alloc@std@@8
	DD	FLAT:??_R1A@?0A@EA@exception@std@@8
rdata$r	ENDS
;	COMDAT ??_R3bad_array_new_length@std@@8
rdata$r	SEGMENT
??_R3bad_array_new_length@std@@8 DD 00H			; std::bad_array_new_length::`RTTI Class Hierarchy Descriptor'
	DD	00H
	DD	03H
	DD	FLAT:??_R2bad_array_new_length@std@@8
rdata$r	ENDS
;	COMDAT ??_R4bad_array_new_length@std@@6B@
rdata$r	SEGMENT
??_R4bad_array_new_length@std@@6B@ DD 00H		; std::bad_array_new_length::`RTTI Complete Object Locator'
	DD	00H
	DD	00H
	DD	FLAT:??_R0?AVbad_array_new_length@std@@@8
	DD	FLAT:??_R3bad_array_new_length@std@@8
rdata$r	ENDS
;	COMDAT ??_R1A@?0A@EA@bad_alloc@std@@8
rdata$r	SEGMENT
??_R1A@?0A@EA@bad_alloc@std@@8 DD FLAT:??_R0?AVbad_alloc@std@@@8 ; std::bad_alloc::`RTTI Base Class Descriptor at (0,-1,0,64)'
	DD	01H
	DD	00H
	DD	0ffffffffH
	DD	00H
	DD	040H
	DD	FLAT:??_R3bad_alloc@std@@8
rdata$r	ENDS
;	COMDAT ??_R2bad_alloc@std@@8
rdata$r	SEGMENT
??_R2bad_alloc@std@@8 DD FLAT:??_R1A@?0A@EA@bad_alloc@std@@8 ; std::bad_alloc::`RTTI Base Class Array'
	DD	FLAT:??_R1A@?0A@EA@exception@std@@8
rdata$r	ENDS
;	COMDAT ??_R3bad_alloc@std@@8
rdata$r	SEGMENT
??_R3bad_alloc@std@@8 DD 00H				; std::bad_alloc::`RTTI Class Hierarchy Descriptor'
	DD	00H
	DD	02H
	DD	FLAT:??_R2bad_alloc@std@@8
rdata$r	ENDS
;	COMDAT ??_R4bad_alloc@std@@6B@
rdata$r	SEGMENT
??_R4bad_alloc@std@@6B@ DD 00H				; std::bad_alloc::`RTTI Complete Object Locator'
	DD	00H
	DD	00H
	DD	FLAT:??_R0?AVbad_alloc@std@@@8
	DD	FLAT:??_R3bad_alloc@std@@8
rdata$r	ENDS
;	COMDAT ??_R1A@?0A@EA@exception@std@@8
rdata$r	SEGMENT
??_R1A@?0A@EA@exception@std@@8 DD FLAT:??_R0?AVexception@std@@@8 ; std::exception::`RTTI Base Class Descriptor at (0,-1,0,64)'
	DD	00H
	DD	00H
	DD	0ffffffffH
	DD	00H
	DD	040H
	DD	FLAT:??_R3exception@std@@8
rdata$r	ENDS
;	COMDAT ??_R2exception@std@@8
rdata$r	SEGMENT
??_R2exception@std@@8 DD FLAT:??_R1A@?0A@EA@exception@std@@8 ; std::exception::`RTTI Base Class Array'
rdata$r	ENDS
;	COMDAT ??_R3exception@std@@8
rdata$r	SEGMENT
??_R3exception@std@@8 DD 00H				; std::exception::`RTTI Class Hierarchy Descriptor'
	DD	00H
	DD	01H
	DD	FLAT:??_R2exception@std@@8
rdata$r	ENDS
;	COMDAT ??_R4exception@std@@6B@
rdata$r	SEGMENT
??_R4exception@std@@6B@ DD 00H				; std::exception::`RTTI Complete Object Locator'
	DD	00H
	DD	00H
	DD	FLAT:??_R0?AVexception@std@@@8
	DD	FLAT:??_R3exception@std@@8
rdata$r	ENDS
;	COMDAT ??_C@_0BA@JFNIOLAK@string?5too?5long@
CONST	SEGMENT
??_C@_0BA@JFNIOLAK@string?5too?5long@ DB 'string too long', 00H ; `string'
CONST	ENDS
;	COMDAT ??_7RGYPipeProcessWin@@6B@
CONST	SEGMENT
??_7RGYPipeProcessWin@@6B@ DD FLAT:??_R4RGYPipeProcessWin@@6B@ ; RGYPipeProcessWin::`vftable'
	DD	FLAT:??_ERGYPipeProcessWin@@UAEPAXI@Z
	DD	FLAT:?init@RGYPipeProcessWin@@UAEXXZ
	DD	FLAT:?run@RGYPipeProcessWin@@UAEHABV?$vector@PBDV?$allocator@PBD@std@@@std@@PBDPAUProcessPipe@@I_N3@Z
	DD	FLAT:?close@RGYPipeProcessWin@@UAEXXZ
	DD	FLAT:?processAlive@RGYPipeProcessWin@@UAE_NXZ
	DD	FLAT:?startPipes@RGYPipeProcessWin@@MAEHPAUProcessPipe@@@Z
CONST	ENDS
;	COMDAT ??_7RGYPipeProcess@@6B@
CONST	SEGMENT
??_7RGYPipeProcess@@6B@ DD FLAT:??_R4RGYPipeProcess@@6B@ ; RGYPipeProcess::`vftable'
	DD	FLAT:??_ERGYPipeProcess@@UAEPAXI@Z
	DD	FLAT:__purecall
	DD	FLAT:__purecall
	DD	FLAT:__purecall
	DD	FLAT:__purecall
	DD	FLAT:__purecall
CONST	ENDS
;	COMDAT ??_C@_1CG@JNLFBNGN@?$AA?$CC?$AAi?$AAn?$AAv?$AAa?$AAl?$AAi?$AAd?$AA?5?$AAa?$AAr?$AAg?$AAu?$AAm?$AAe@
CONST	SEGMENT
??_C@_1CG@JNLFBNGN@?$AA?$CC?$AAi?$AAn?$AAv?$AAa?$AAl?$AAi?$AAd?$AA?5?$AAa?$AAr?$AAg?$AAu?$AAm?$AAe@ DB '"'
	DB	00H, 'i', 00H, 'n', 00H, 'v', 00H, 'a', 00H, 'l', 00H, 'i', 00H
	DB	'd', 00H, ' ', 00H, 'a', 00H, 'r', 00H, 'g', 00H, 'u', 00H, 'm'
	DB	00H, 'e', 00H, 'n', 00H, 't', 00H, '"', 00H, 00H, 00H ; `string'
CONST	ENDS
;	COMDAT ??_C@_1EK@NIFDJFDG@?$AAs?$AAt?$AAd?$AA?3?$AA?3?$AA_?$AAA?$AAd?$AAj?$AAu?$AAs?$AAt?$AA_?$AAm?$AAa@
CONST	SEGMENT
??_C@_1EK@NIFDJFDG@?$AAs?$AAt?$AAd?$AA?3?$AA?3?$AA_?$AAA?$AAd?$AAj?$AAu?$AAs?$AAt?$AA_?$AAm?$AAa@ DB 's'
	DB	00H, 't', 00H, 'd', 00H, ':', 00H, ':', 00H, '_', 00H, 'A', 00H
	DB	'd', 00H, 'j', 00H, 'u', 00H, 's', 00H, 't', 00H, '_', 00H, 'm'
	DB	00H, 'a', 00H, 'n', 00H, 'u', 00H, 'a', 00H, 'l', 00H, 'l', 00H
	DB	'y', 00H, '_', 00H, 'v', 00H, 'e', 00H, 'c', 00H, 't', 00H, 'o'
	DB	00H, 'r', 00H, '_', 00H, 'a', 00H, 'l', 00H, 'i', 00H, 'g', 00H
	DB	'n', 00H, 'e', 00H, 'd', 00H, 00H, 00H	; `string'
CONST	ENDS
;	COMDAT ??_C@_1NA@CDBIFGMM@?$AAC?$AA?3?$AA?2?$AAP?$AAr?$AAo?$AAg?$AAr?$AAa?$AAm?$AA?5?$AAF?$AAi?$AAl?$AAe@
CONST	SEGMENT
??_C@_1NA@CDBIFGMM@?$AAC?$AA?3?$AA?2?$AAP?$AAr?$AAo?$AAg?$AAr?$AAa?$AAm?$AA?5?$AAF?$AAi?$AAl?$AAe@ DB 'C'
	DB	00H, ':', 00H, '\', 00H, 'P', 00H, 'r', 00H, 'o', 00H, 'g', 00H
	DB	'r', 00H, 'a', 00H, 'm', 00H, ' ', 00H, 'F', 00H, 'i', 00H, 'l'
	DB	00H, 'e', 00H, 's', 00H, ' ', 00H, '(', 00H, 'x', 00H, '8', 00H
	DB	'6', 00H, ')', 00H, '\', 00H, 'M', 00H, 'i', 00H, 'c', 00H, 'r'
	DB	00H, 'o', 00H, 's', 00H, 'o', 00H, 'f', 00H, 't', 00H, ' ', 00H
	DB	'V', 00H, 'i', 00H, 's', 00H, 'u', 00H, 'a', 00H, 'l', 00H, ' '
	DB	00H, 'S', 00H, 't', 00H, 'u', 00H, 'd', 00H, 'i', 00H, 'o', 00H
	DB	'\', 00H, '2', 00H, '0', 00H, '1', 00H, '9', 00H, '\', 00H, 'C'
	DB	00H, 'o', 00H, 'm', 00H, 'm', 00H, 'u', 00H, 'n', 00H, 'i', 00H
	DB	't', 00H, 'y', 00H, '\', 00H, 'V', 00H, 'C', 00H, '\', 00H, 'T'
	DB	00H, 'o', 00H, 'o', 00H, 'l', 00H, 's', 00H, '\', 00H, 'M', 00H
	DB	'S', 00H, 'V', 00H, 'C', 00H, '\', 00H, '1', 00H, '4', 00H, '.'
	DB	00H, '2', 00H, '3', 00H, '.', 00H, '2', 00H, '8', 00H, '1', 00H
	DB	'0', 00H, '5', 00H, '\', 00H, 'i', 00H, 'n', 00H, 'c', 00H, 'l'
	DB	00H, 'u', 00H, 'd', 00H, 'e', 00H, '\', 00H, 'x', 00H, 'm', 00H
	DB	'e', 00H, 'm', 00H, 'o', 00H, 'r', 00H, 'y', 00H, 00H, 00H ; `string'
CONST	ENDS
;	COMDAT ??_C@_0GI@FJIKDGOA@C?3?2Program?5Files?5?$CIx86?$CJ?2Microsof@
CONST	SEGMENT
??_C@_0GI@FJIKDGOA@C?3?2Program?5Files?5?$CIx86?$CJ?2Microsof@ DB 'C:\Pro'
	DB	'gram Files (x86)\Microsoft Visual Studio\2019\Community\VC\To'
	DB	'ols\MSVC\14.23.28105\include\xmemory', 00H	; `string'
CONST	ENDS
;	COMDAT ??_C@_02DKCKIIND@?$CFs@
CONST	SEGMENT
??_C@_02DKCKIIND@?$CFs@ DB '%s', 00H			; `string'
CONST	ENDS
;	COMDAT ??_C@_0BB@FCMFBGOM@invalid?5argument@
CONST	SEGMENT
??_C@_0BB@FCMFBGOM@invalid?5argument@ DB 'invalid argument', 00H ; `string'
CONST	ENDS
;	COMDAT __CT??_R0?AVexception@std@@@8??0exception@std@@QAE@ABV01@@Z12
xdata$x	SEGMENT
__CT??_R0?AVexception@std@@@8??0exception@std@@QAE@ABV01@@Z12 DD 00H
	DD	FLAT:??_R0?AVexception@std@@@8
	DD	00H
	DD	0ffffffffH
	ORG $+4
	DD	0cH
	DD	FLAT:??0exception@std@@QAE@ABV01@@Z
xdata$x	ENDS
;	COMDAT ??_R0?AVexception@std@@@8
data$r	SEGMENT
??_R0?AVexception@std@@@8 DD FLAT:??_7type_info@@6B@	; std::exception `RTTI Type Descriptor'
	DD	00H
	DB	'.?AVexception@std@@', 00H
data$r	ENDS
;	COMDAT __CT??_R0?AVbad_alloc@std@@@8??0bad_alloc@std@@QAE@ABV01@@Z12
xdata$x	SEGMENT
__CT??_R0?AVbad_alloc@std@@@8??0bad_alloc@std@@QAE@ABV01@@Z12 DD 010H
	DD	FLAT:??_R0?AVbad_alloc@std@@@8
	DD	00H
	DD	0ffffffffH
	ORG $+4
	DD	0cH
	DD	FLAT:??0bad_alloc@std@@QAE@ABV01@@Z
xdata$x	ENDS
;	COMDAT ??_R0?AVbad_alloc@std@@@8
data$r	SEGMENT
??_R0?AVbad_alloc@std@@@8 DD FLAT:??_7type_info@@6B@	; std::bad_alloc `RTTI Type Descriptor'
	DD	00H
	DB	'.?AVbad_alloc@std@@', 00H
data$r	ENDS
;	COMDAT __CT??_R0?AVbad_array_new_length@std@@@8??0bad_array_new_length@std@@QAE@ABV01@@Z12
xdata$x	SEGMENT
__CT??_R0?AVbad_array_new_length@std@@@8??0bad_array_new_length@std@@QAE@ABV01@@Z12 DD 00H
	DD	FLAT:??_R0?AVbad_array_new_length@std@@@8
	DD	00H
	DD	0ffffffffH
	ORG $+4
	DD	0cH
	DD	FLAT:??0bad_array_new_length@std@@QAE@ABV01@@Z
xdata$x	ENDS
;	COMDAT ??_R0?AVbad_array_new_length@std@@@8
data$r	SEGMENT
??_R0?AVbad_array_new_length@std@@@8 DD FLAT:??_7type_info@@6B@ ; std::bad_array_new_length `RTTI Type Descriptor'
	DD	00H
	DB	'.?AVbad_array_new_length@std@@', 00H
data$r	ENDS
;	COMDAT __CTA3?AVbad_array_new_length@std@@
xdata$x	SEGMENT
__CTA3?AVbad_array_new_length@std@@ DD 03H
	DD	FLAT:__CT??_R0?AVbad_array_new_length@std@@@8??0bad_array_new_length@std@@QAE@ABV01@@Z12
	DD	FLAT:__CT??_R0?AVbad_alloc@std@@@8??0bad_alloc@std@@QAE@ABV01@@Z12
	DD	FLAT:__CT??_R0?AVexception@std@@@8??0exception@std@@QAE@ABV01@@Z12
xdata$x	ENDS
;	COMDAT __TI3?AVbad_array_new_length@std@@
xdata$x	SEGMENT
__TI3?AVbad_array_new_length@std@@ DD 00H
	DD	FLAT:??1bad_array_new_length@std@@UAE@XZ
	DD	00H
	DD	FLAT:__CTA3?AVbad_array_new_length@std@@
xdata$x	ENDS
;	COMDAT ??_C@_0BF@KINCDENJ@bad?5array?5new?5length@
CONST	SEGMENT
??_C@_0BF@KINCDENJ@bad?5array?5new?5length@ DB 'bad array new length', 00H ; `string'
CONST	ENDS
;	COMDAT ??_7bad_array_new_length@std@@6B@
CONST	SEGMENT
??_7bad_array_new_length@std@@6B@ DD FLAT:??_R4bad_array_new_length@std@@6B@ ; std::bad_array_new_length::`vftable'
	DD	FLAT:??_Ebad_array_new_length@std@@UAEPAXI@Z
	DD	FLAT:?what@exception@std@@UBEPBDXZ
CONST	ENDS
;	COMDAT ??_7bad_alloc@std@@6B@
CONST	SEGMENT
??_7bad_alloc@std@@6B@ DD FLAT:??_R4bad_alloc@std@@6B@	; std::bad_alloc::`vftable'
	DD	FLAT:??_Ebad_alloc@std@@UAEPAXI@Z
	DD	FLAT:?what@exception@std@@UBEPBDXZ
CONST	ENDS
;	COMDAT ??_C@_0BC@EOODALEL@Unknown?5exception@
CONST	SEGMENT
??_C@_0BC@EOODALEL@Unknown?5exception@ DB 'Unknown exception', 00H ; `string'
CONST	ENDS
;	COMDAT ??_7exception@std@@6B@
CONST	SEGMENT
??_7exception@std@@6B@ DD FLAT:??_R4exception@std@@6B@	; std::exception::`vftable'
	DD	FLAT:??_Eexception@std@@UAEPAXI@Z
	DD	FLAT:?what@exception@std@@UBEPBDXZ
CONST	ENDS
;	COMDAT xdata$x
xdata$x	SEGMENT
__ehfuncinfo$??$_Deallocate_plain@V?$allocator@U_Container_proxy@std@@@std@@@std@@YAXAAV?$allocator@U_Container_proxy@std@@@0@QAU_Container_proxy@0@@Z DD 019930522H
	DD	00H
	DD	00H
	DD	2 DUP(00H)
	DD	2 DUP(00H)
	DD	00H
	DD	04H
xdata$x	ENDS
;	COMDAT xdata$x
xdata$x	SEGMENT
__ehfuncinfo$??$_Deallocate@$07$0A@@std@@YAXPAXI@Z DD 019930522H
	DD	00H
	DD	00H
	DD	2 DUP(00H)
	DD	2 DUP(00H)
	DD	00H
	DD	04H
xdata$x	ENDS
;	COMDAT xdata$x
xdata$x	SEGMENT
__unwindtable$??$?0$$V@?$_Compressed_pair@V?$allocator@D@std@@V?$_String_val@U?$_Simple_types@D@std@@@2@$00@std@@QAE@U_Zero_then_variadic_args_t@1@@Z DD 0ffffffffH
	DD	FLAT:__unwindfunclet$??$?0$$V@?$_Compressed_pair@V?$allocator@D@std@@V?$_String_val@U?$_Simple_types@D@std@@@2@$00@std@@QAE@U_Zero_then_variadic_args_t@1@@Z$0
__ehfuncinfo$??$?0$$V@?$_Compressed_pair@V?$allocator@D@std@@V?$_String_val@U?$_Simple_types@D@std@@@2@$00@std@@QAE@U_Zero_then_variadic_args_t@1@@Z DD 019930522H
	DD	01H
	DD	FLAT:__unwindtable$??$?0$$V@?$_Compressed_pair@V?$allocator@D@std@@V?$_String_val@U?$_Simple_types@D@std@@@2@$00@std@@QAE@U_Zero_then_variadic_args_t@1@@Z
	DD	2 DUP(00H)
	DD	2 DUP(00H)
	DD	00H
	DD	00H
xdata$x	ENDS
;	COMDAT xdata$x
xdata$x	SEGMENT
__unwindtable$??$?0V?$allocator@D@std@@$$V@?$_Compressed_pair@V?$allocator@D@std@@V?$_String_val@U?$_Simple_types@D@std@@@2@$00@std@@QAE@U_One_then_variadic_args_t@1@$$QAV?$allocator@D@1@@Z DD 0ffffffffH
	DD	FLAT:__unwindfunclet$??$?0V?$allocator@D@std@@$$V@?$_Compressed_pair@V?$allocator@D@std@@V?$_String_val@U?$_Simple_types@D@std@@@2@$00@std@@QAE@U_One_then_variadic_args_t@1@$$QAV?$allocator@D@1@@Z$0
__ehfuncinfo$??$?0V?$allocator@D@std@@$$V@?$_Compressed_pair@V?$allocator@D@std@@V?$_String_val@U?$_Simple_types@D@std@@@2@$00@std@@QAE@U_One_then_variadic_args_t@1@$$QAV?$allocator@D@1@@Z DD 019930522H
	DD	01H
	DD	FLAT:__unwindtable$??$?0V?$allocator@D@std@@$$V@?$_Compressed_pair@V?$allocator@D@std@@V?$_String_val@U?$_Simple_types@D@std@@@2@$00@std@@QAE@U_One_then_variadic_args_t@1@$$QAV?$allocator@D@1@@Z
	DD	2 DUP(00H)
	DD	2 DUP(00H)
	DD	00H
	DD	00H
xdata$x	ENDS
;	COMDAT xdata$x
xdata$x	SEGMENT
__unwindtable$??$?HDU?$char_traits@D@std@@V?$allocator@D@1@@std@@YA?AV?$basic_string@DU?$char_traits@D@std@@V?$allocator@D@2@@0@$$QAV10@QBD@Z DD 0ffffffffH
	DD	FLAT:__unwindfunclet$??$?HDU?$char_traits@D@std@@V?$allocator@D@1@@std@@YA?AV?$basic_string@DU?$char_traits@D@std@@V?$allocator@D@2@@0@$$QAV10@QBD@Z$0
__ehfuncinfo$??$?HDU?$char_traits@D@std@@V?$allocator@D@1@@std@@YA?AV?$basic_string@DU?$char_traits@D@std@@V?$allocator@D@2@@0@$$QAV10@QBD@Z DD 019930522H
	DD	01H
	DD	FLAT:__unwindtable$??$?HDU?$char_traits@D@std@@V?$allocator@D@1@@std@@YA?AV?$basic_string@DU?$char_traits@D@std@@V?$allocator@D@2@@0@$$QAV10@QBD@Z
	DD	2 DUP(00H)
	DD	2 DUP(00H)
	DD	00H
	DD	00H
xdata$x	ENDS
;	COMDAT xdata$x
xdata$x	SEGMENT
__unwindtable$??1?$_Compressed_pair@V?$allocator@D@std@@V?$_String_val@U?$_Simple_types@D@std@@@2@$00@std@@QAE@XZ DD 0ffffffffH
	DD	FLAT:__unwindfunclet$??1?$_Compressed_pair@V?$allocator@D@std@@V?$_String_val@U?$_Simple_types@D@std@@@2@$00@std@@QAE@XZ$0
__ehfuncinfo$??1?$_Compressed_pair@V?$allocator@D@std@@V?$_String_val@U?$_Simple_types@D@std@@@2@$00@std@@QAE@XZ DD 019930522H
	DD	01H
	DD	FLAT:__unwindtable$??1?$_Compressed_pair@V?$allocator@D@std@@V?$_String_val@U?$_Simple_types@D@std@@@2@$00@std@@QAE@XZ
	DD	2 DUP(00H)
	DD	2 DUP(00H)
	DD	00H
	DD	04H
xdata$x	ENDS
;	COMDAT xdata$x
xdata$x	SEGMENT
__ehfuncinfo$?_Tidy_deallocate@?$basic_string@DU?$char_traits@D@std@@V?$allocator@D@2@@std@@AAEXXZ DD 019930522H
	DD	00H
	DD	00H
	DD	2 DUP(00H)
	DD	2 DUP(00H)
	DD	00H
	DD	04H
xdata$x	ENDS
;	COMDAT xdata$x
xdata$x	SEGMENT
__ehfuncinfo$?c_str@?$basic_string@DU?$char_traits@D@std@@V?$allocator@D@2@@std@@QBEPBDXZ DD 019930522H
	DD	00H
	DD	00H
	DD	2 DUP(00H)
	DD	2 DUP(00H)
	DD	00H
	DD	04H
xdata$x	ENDS
;	COMDAT xdata$x
xdata$x	SEGMENT
__unwindtable$??1?$basic_string@DU?$char_traits@D@std@@V?$allocator@D@2@@std@@QAE@XZ DD 0ffffffffH
	DD	FLAT:__unwindfunclet$??1?$basic_string@DU?$char_traits@D@std@@V?$allocator@D@2@@std@@QAE@XZ$0
__ehfuncinfo$??1?$basic_string@DU?$char_traits@D@std@@V?$allocator@D@2@@std@@QAE@XZ DD 019930522H
	DD	01H
	DD	FLAT:__unwindtable$??1?$basic_string@DU?$char_traits@D@std@@V?$allocator@D@2@@std@@QAE@XZ
	DD	2 DUP(00H)
	DD	2 DUP(00H)
	DD	00H
	DD	04H
xdata$x	ENDS
;	COMDAT xdata$x
xdata$x	SEGMENT
__ehfuncinfo$?_Take_contents@?$basic_string@DU?$char_traits@D@std@@V?$allocator@D@2@@std@@AAEXAAV12@U?$integral_constant@_N$00@2@@Z DD 019930522H
	DD	00H
	DD	00H
	DD	2 DUP(00H)
	DD	2 DUP(00H)
	DD	00H
	DD	04H
xdata$x	ENDS
;	COMDAT xdata$x
xdata$x	SEGMENT
__ehfuncinfo$?_Memcpy_val_from@?$basic_string@DU?$char_traits@D@std@@V?$allocator@D@2@@std@@AAEXABV12@@Z DD 019930522H
	DD	00H
	DD	00H
	DD	2 DUP(00H)
	DD	2 DUP(00H)
	DD	00H
	DD	04H
xdata$x	ENDS
;	COMDAT xdata$x
xdata$x	SEGMENT
__unwindtable$??0?$basic_string@DU?$char_traits@D@std@@V?$allocator@D@2@@std@@QAE@$$QAV01@@Z DD 0ffffffffH
	DD	FLAT:__unwindfunclet$??0?$basic_string@DU?$char_traits@D@std@@V?$allocator@D@2@@std@@QAE@$$QAV01@@Z$0
__ehfuncinfo$??0?$basic_string@DU?$char_traits@D@std@@V?$allocator@D@2@@std@@QAE@$$QAV01@@Z DD 019930522H
	DD	01H
	DD	FLAT:__unwindtable$??0?$basic_string@DU?$char_traits@D@std@@V?$allocator@D@2@@std@@QAE@$$QAV01@@Z
	DD	2 DUP(00H)
	DD	2 DUP(00H)
	DD	00H
	DD	04H
xdata$x	ENDS
;	COMDAT xdata$x
xdata$x	SEGMENT
__unwindtable$??0?$basic_string@DU?$char_traits@D@std@@V?$allocator@D@2@@std@@QAE@QBD@Z DD 0ffffffffH
	DD	FLAT:__unwindfunclet$??0?$basic_string@DU?$char_traits@D@std@@V?$allocator@D@2@@std@@QAE@QBD@Z$0
	DD	00H
	DD	FLAT:__unwindfunclet$??0?$basic_string@DU?$char_traits@D@std@@V?$allocator@D@2@@std@@QAE@QBD@Z$1
__ehfuncinfo$??0?$basic_string@DU?$char_traits@D@std@@V?$allocator@D@2@@std@@QAE@QBD@Z DD 019930522H
	DD	02H
	DD	FLAT:__unwindtable$??0?$basic_string@DU?$char_traits@D@std@@V?$allocator@D@2@@std@@QAE@QBD@Z
	DD	2 DUP(00H)
	DD	2 DUP(00H)
	DD	00H
	DD	00H
xdata$x	ENDS
;	COMDAT xdata$x
xdata$x	SEGMENT
__unwindtable$??0?$basic_string@DU?$char_traits@D@std@@V?$allocator@D@2@@std@@QAE@XZ DD 0ffffffffH
	DD	FLAT:__unwindfunclet$??0?$basic_string@DU?$char_traits@D@std@@V?$allocator@D@2@@std@@QAE@XZ$0
__ehfuncinfo$??0?$basic_string@DU?$char_traits@D@std@@V?$allocator@D@2@@std@@QAE@XZ DD 019930522H
	DD	01H
	DD	FLAT:__unwindtable$??0?$basic_string@DU?$char_traits@D@std@@V?$allocator@D@2@@std@@QAE@XZ
	DD	2 DUP(00H)
	DD	2 DUP(00H)
	DD	00H
	DD	04H
xdata$x	ENDS
;	COMDAT xdata$x
xdata$x	SEGMENT
__unwindtable$??1?$_String_val@U?$_Simple_types@D@std@@@std@@QAE@XZ DD 0ffffffffH
	DD	FLAT:__unwindfunclet$??1?$_String_val@U?$_Simple_types@D@std@@@std@@QAE@XZ$0
__ehfuncinfo$??1?$_String_val@U?$_Simple_types@D@std@@@std@@QAE@XZ DD 019930522H
	DD	01H
	DD	FLAT:__unwindtable$??1?$_String_val@U?$_Simple_types@D@std@@@std@@QAE@XZ
	DD	2 DUP(00H)
	DD	2 DUP(00H)
	DD	00H
	DD	04H
xdata$x	ENDS
;	COMDAT xdata$x
xdata$x	SEGMENT
__unwindtable$??0?$_String_val@U?$_Simple_types@D@std@@@std@@QAE@XZ DD 0ffffffffH
	DD	FLAT:__unwindfunclet$??0?$_String_val@U?$_Simple_types@D@std@@@std@@QAE@XZ$0
__ehfuncinfo$??0?$_String_val@U?$_Simple_types@D@std@@@std@@QAE@XZ DD 019930522H
	DD	01H
	DD	FLAT:__unwindtable$??0?$_String_val@U?$_Simple_types@D@std@@@std@@QAE@XZ
	DD	2 DUP(00H)
	DD	2 DUP(00H)
	DD	00H
	DD	00H
xdata$x	ENDS
;	COMDAT xdata$x
xdata$x	SEGMENT
__ehfuncinfo$?move@?$_Narrow_char_traits@DH@std@@SAPADQADQBDI@Z DD 019930522H
	DD	00H
	DD	00H
	DD	2 DUP(00H)
	DD	2 DUP(00H)
	DD	00H
	DD	04H
xdata$x	ENDS
;	COMDAT xdata$x
xdata$x	SEGMENT
__ehfuncinfo$?copy@?$_Narrow_char_traits@DH@std@@SAPADQADQBDI@Z DD 019930522H
	DD	00H
	DD	00H
	DD	2 DUP(00H)
	DD	2 DUP(00H)
	DD	00H
	DD	04H
xdata$x	ENDS
;	COMDAT xdata$x
xdata$x	SEGMENT
__ehfuncinfo$?length@?$_Narrow_char_traits@DH@std@@SAIQBD@Z DD 019930522H
	DD	00H
	DD	00H
	DD	2 DUP(00H)
	DD	2 DUP(00H)
	DD	00H
	DD	04H
xdata$x	ENDS
xdata$x	SEGMENT
__unwindtable$??1RGYPipeProcessWin@@UAE@XZ DD 0ffffffffH
	DD	FLAT:__unwindfunclet$??1RGYPipeProcessWin@@UAE@XZ$0
__unwindtable$??0RGYPipeProcessWin@@QAE@XZ DD 0ffffffffH
	DD	FLAT:__unwindfunclet$??0RGYPipeProcessWin@@QAE@XZ$0
__unwindtable$?run@RGYPipeProcessWin@@UAEHABV?$vector@PBDV?$allocator@PBD@std@@@std@@PBDPAUProcessPipe@@I_N3@Z DD 0ffffffffH
	DD	FLAT:__unwindfunclet$?run@RGYPipeProcessWin@@UAEHABV?$vector@PBDV?$allocator@PBD@std@@@std@@PBDPAUProcessPipe@@I_N3@Z$0
	DD	00H
	DD	FLAT:__unwindfunclet$?run@RGYPipeProcessWin@@UAEHABV?$vector@PBDV?$allocator@PBD@std@@@std@@PBDPAUProcessPipe@@I_N3@Z$1
	DD	01H
	DD	FLAT:__unwindfunclet$?run@RGYPipeProcessWin@@UAEHABV?$vector@PBDV?$allocator@PBD@std@@@std@@PBDPAUProcessPipe@@I_N3@Z$2
__ehfuncinfo$?run@RGYPipeProcessWin@@UAEHABV?$vector@PBDV?$allocator@PBD@std@@@std@@PBDPAUProcessPipe@@I_N3@Z DD 019930522H
	DD	03H
	DD	FLAT:__unwindtable$?run@RGYPipeProcessWin@@UAEHABV?$vector@PBDV?$allocator@PBD@std@@@std@@PBDPAUProcessPipe@@I_N3@Z
	DD	2 DUP(00H)
	DD	2 DUP(00H)
	DD	00H
	DD	00H
__ehfuncinfo$??1RGYPipeProcessWin@@UAE@XZ DD 019930522H
	DD	01H
	DD	FLAT:__unwindtable$??1RGYPipeProcessWin@@UAE@XZ
	DD	2 DUP(00H)
	DD	2 DUP(00H)
	DD	00H
	DD	04H
__ehfuncinfo$??0RGYPipeProcessWin@@QAE@XZ DD 019930522H
	DD	01H
	DD	FLAT:__unwindtable$??0RGYPipeProcessWin@@QAE@XZ
	DD	2 DUP(00H)
	DD	2 DUP(00H)
	DD	00H
	DD	00H
xdata$x	ENDS
;	COMDAT xdata$x
xdata$x	SEGMENT
__unwindtable$?_Swap_proxy_and_iterators@_Container_base12@std@@QAEXAAU12@@Z DD 0ffffffffH
	DD	FLAT:__unwindfunclet$?_Swap_proxy_and_iterators@_Container_base12@std@@QAEXAAU12@@Z$0
__ehfuncinfo$?_Swap_proxy_and_iterators@_Container_base12@std@@QAEXAAU12@@Z DD 019930522H
	DD	01H
	DD	FLAT:__unwindtable$?_Swap_proxy_and_iterators@_Container_base12@std@@QAEXAAU12@@Z
	DD	2 DUP(00H)
	DD	2 DUP(00H)
	DD	00H
	DD	04H
xdata$x	ENDS
;	COMDAT xdata$x
xdata$x	SEGMENT
__unwindtable$?_Orphan_all@_Container_base12@std@@QAEXXZ DD 0ffffffffH
	DD	FLAT:__unwindfunclet$?_Orphan_all@_Container_base12@std@@QAEXXZ$0
__ehfuncinfo$?_Orphan_all@_Container_base12@std@@QAEXXZ DD 019930522H
	DD	01H
	DD	FLAT:__unwindtable$?_Orphan_all@_Container_base12@std@@QAEXXZ
	DD	2 DUP(00H)
	DD	2 DUP(00H)
	DD	00H
	DD	04H
xdata$x	ENDS
;	COMDAT xdata$x
xdata$x	SEGMENT
__unwindtable$??0bad_array_new_length@std@@QAE@ABV01@@Z DD 0ffffffffH
	DD	FLAT:__unwindfunclet$??0bad_array_new_length@std@@QAE@ABV01@@Z$0
__ehfuncinfo$??0bad_array_new_length@std@@QAE@ABV01@@Z DD 019930522H
	DD	01H
	DD	FLAT:__unwindtable$??0bad_array_new_length@std@@QAE@ABV01@@Z
	DD	2 DUP(00H)
	DD	2 DUP(00H)
	DD	00H
	DD	04H
xdata$x	ENDS
;	COMDAT xdata$x
xdata$x	SEGMENT
__unwindtable$??1bad_array_new_length@std@@UAE@XZ DD 0ffffffffH
	DD	FLAT:__unwindfunclet$??1bad_array_new_length@std@@UAE@XZ$0
__ehfuncinfo$??1bad_array_new_length@std@@UAE@XZ DD 019930522H
	DD	01H
	DD	FLAT:__unwindtable$??1bad_array_new_length@std@@UAE@XZ
	DD	2 DUP(00H)
	DD	2 DUP(00H)
	DD	00H
	DD	04H
xdata$x	ENDS
;	COMDAT xdata$x
xdata$x	SEGMENT
__unwindtable$??0bad_array_new_length@std@@QAE@XZ DD 0ffffffffH
	DD	FLAT:__unwindfunclet$??0bad_array_new_length@std@@QAE@XZ$0
__ehfuncinfo$??0bad_array_new_length@std@@QAE@XZ DD 019930522H
	DD	01H
	DD	FLAT:__unwindtable$??0bad_array_new_length@std@@QAE@XZ
	DD	2 DUP(00H)
	DD	2 DUP(00H)
	DD	00H
	DD	04H
xdata$x	ENDS
;	COMDAT xdata$x
xdata$x	SEGMENT
__unwindtable$??0bad_alloc@std@@QAE@ABV01@@Z DD 0ffffffffH
	DD	FLAT:__unwindfunclet$??0bad_alloc@std@@QAE@ABV01@@Z$0
__ehfuncinfo$??0bad_alloc@std@@QAE@ABV01@@Z DD 019930522H
	DD	01H
	DD	FLAT:__unwindtable$??0bad_alloc@std@@QAE@ABV01@@Z
	DD	2 DUP(00H)
	DD	2 DUP(00H)
	DD	00H
	DD	04H
xdata$x	ENDS
;	COMDAT xdata$x
xdata$x	SEGMENT
__unwindtable$??1bad_alloc@std@@UAE@XZ DD 0ffffffffH
	DD	FLAT:__unwindfunclet$??1bad_alloc@std@@UAE@XZ$0
__ehfuncinfo$??1bad_alloc@std@@UAE@XZ DD 019930522H
	DD	01H
	DD	FLAT:__unwindtable$??1bad_alloc@std@@UAE@XZ
	DD	2 DUP(00H)
	DD	2 DUP(00H)
	DD	00H
	DD	04H
xdata$x	ENDS
;	COMDAT xdata$x
xdata$x	SEGMENT
__unwindtable$??0bad_alloc@std@@AAE@QBD@Z DD 0ffffffffH
	DD	FLAT:__unwindfunclet$??0bad_alloc@std@@AAE@QBD@Z$0
__ehfuncinfo$??0bad_alloc@std@@AAE@QBD@Z DD 019930522H
	DD	01H
	DD	FLAT:__unwindtable$??0bad_alloc@std@@AAE@QBD@Z
	DD	2 DUP(00H)
	DD	2 DUP(00H)
	DD	00H
	DD	04H
xdata$x	ENDS
;	COMDAT xdata$x
xdata$x	SEGMENT
__ehfuncinfo$??1exception@std@@UAE@XZ DD 019930522H
	DD	00H
	DD	00H
	DD	2 DUP(00H)
	DD	2 DUP(00H)
	DD	00H
	DD	04H
xdata$x	ENDS
;	COMDAT xdata$x
xdata$x	SEGMENT
__ehfuncinfo$??0exception@std@@QAE@ABV01@@Z DD 019930522H
	DD	00H
	DD	00H
	DD	2 DUP(00H)
	DD	2 DUP(00H)
	DD	00H
	DD	04H
xdata$x	ENDS
CRT$XCU	SEGMENT
?CspTransferList$initializer$@@3P6AXXZA DD FLAT:??__ECspTransferList@@YAXXZ ; CspTransferList$initializer$
CRT$XCU	ENDS
CRT$XCU	SEGMENT
?CspColorprimList$initializer$@@3P6AXXZA DD FLAT:??__ECspColorprimList@@YAXXZ ; CspColorprimList$initializer$
CRT$XCU	ENDS
; Function compile flags: /Odtp /RTCsu
; File C:\Program Files (x86)\Microsoft Visual Studio\2019\Community\VC\Tools\MSVC\14.23.28105\include\xmemory
;	COMDAT ?deallocate@?$_Default_allocator_traits@V?$allocator@U_Container_proxy@std@@@std@@@std@@SAXAAV?$allocator@U_Container_proxy@std@@@2@QAU_Container_proxy@2@I@Z
_TEXT	SEGMENT
___formal$ = 8						; size = 4
__Ptr$ = 12						; size = 4
__Count$ = 16						; size = 4
?deallocate@?$_Default_allocator_traits@V?$allocator@U_Container_proxy@std@@@std@@@std@@SAXAAV?$allocator@U_Container_proxy@std@@@2@QAU_Container_proxy@2@I@Z PROC ; std::_Default_allocator_traits<std::allocator<std::_Container_proxy> >::deallocate, COMDAT

; 751  :     static void deallocate(_Alloc&, const pointer _Ptr, const size_type _Count) {

  00000	55		 push	 ebp
  00001	8b ec		 mov	 ebp, esp

; 752  :         // no overflow check on the following multiply; we assume _Allocate did that check
; 753  :         _Deallocate<_New_alignof<value_type>>(_Ptr, sizeof(value_type) * _Count);

  00003	8b 45 10	 mov	 eax, DWORD PTR __Count$[ebp]
  00006	c1 e0 03	 shl	 eax, 3
  00009	50		 push	 eax
  0000a	8b 4d 0c	 mov	 ecx, DWORD PTR __Ptr$[ebp]
  0000d	51		 push	 ecx
  0000e	e8 00 00 00 00	 call	 ??$_Deallocate@$07$0A@@std@@YAXPAXI@Z ; std::_Deallocate<8,0>
  00013	83 c4 08	 add	 esp, 8

; 754  :     }

  00016	3b ec		 cmp	 ebp, esp
  00018	e8 00 00 00 00	 call	 __RTC_CheckEsp
  0001d	5d		 pop	 ebp
  0001e	c3		 ret	 0
?deallocate@?$_Default_allocator_traits@V?$allocator@U_Container_proxy@std@@@std@@@std@@SAXAAV?$allocator@U_Container_proxy@std@@@2@QAU_Container_proxy@2@I@Z ENDP ; std::_Default_allocator_traits<std::allocator<std::_Container_proxy> >::deallocate
_TEXT	ENDS
; Function compile flags: /Odtp /RTCsu
; File C:\Program Files (x86)\Microsoft Visual Studio\2019\Community\VC\Tools\MSVC\14.23.28105\include\xmemory
;	COMDAT ??$_Allocate_manually_vector_aligned@U_Default_allocate_traits@std@@@std@@YAPAXI@Z
_TEXT	SEGMENT
__Ptr$ = -12						; size = 4
__Ptr_container$ = -8					; size = 4
__Block_size$ = -4					; size = 4
__Bytes$ = 8						; size = 4
??$_Allocate_manually_vector_aligned@U_Default_allocate_traits@std@@@std@@YAPAXI@Z PROC ; std::_Allocate_manually_vector_aligned<std::_Default_allocate_traits>, COMDAT

; 83   : _DECLSPEC_ALLOCATOR void* _Allocate_manually_vector_aligned(const size_t _Bytes) {

  00000	55		 push	 ebp
  00001	8b ec		 mov	 ebp, esp
  00003	83 ec 0c	 sub	 esp, 12			; 0000000cH
  00006	56		 push	 esi
  00007	c7 45 f4 cc cc
	cc cc		 mov	 DWORD PTR [ebp-12], -858993460 ; ccccccccH
  0000e	c7 45 f8 cc cc
	cc cc		 mov	 DWORD PTR [ebp-8], -858993460 ; ccccccccH
  00015	c7 45 fc cc cc
	cc cc		 mov	 DWORD PTR [ebp-4], -858993460 ; ccccccccH

; 84   :     // allocate _Bytes manually aligned to at least _Big_allocation_alignment
; 85   :     const size_t _Block_size = _Non_user_size + _Bytes;

  0001c	8b 45 08	 mov	 eax, DWORD PTR __Bytes$[ebp]
  0001f	83 c0 27	 add	 eax, 39			; 00000027H
  00022	89 45 fc	 mov	 DWORD PTR __Block_size$[ebp], eax

; 86   :     if (_Block_size <= _Bytes) {

  00025	8b 4d fc	 mov	 ecx, DWORD PTR __Block_size$[ebp]
  00028	3b 4d 08	 cmp	 ecx, DWORD PTR __Bytes$[ebp]
  0002b	77 05		 ja	 SHORT $LN8@Allocate_m

; 87   :         _Throw_bad_array_new_length(); // add overflow

  0002d	e8 00 00 00 00	 call	 ?_Throw_bad_array_new_length@std@@YAXXZ ; std::_Throw_bad_array_new_length
$LN8@Allocate_m:

; 88   :     }
; 89   : 
; 90   :     const uintptr_t _Ptr_container = reinterpret_cast<uintptr_t>(_Traits::_Allocate(_Block_size));

  00032	8b 55 fc	 mov	 edx, DWORD PTR __Block_size$[ebp]
  00035	52		 push	 edx
  00036	e8 00 00 00 00	 call	 ?_Allocate@_Default_allocate_traits@std@@SAPAXI@Z ; std::_Default_allocate_traits::_Allocate
  0003b	83 c4 04	 add	 esp, 4
  0003e	89 45 f8	 mov	 DWORD PTR __Ptr_container$[ebp], eax
$LN4@Allocate_m:

; 91   :     _STL_VERIFY(_Ptr_container != 0, "invalid argument"); // validate even in release since we're doing p[-1]

  00041	83 7d f8 00	 cmp	 DWORD PTR __Ptr_container$[ebp], 0
  00045	74 02		 je	 SHORT $LN7@Allocate_m
  00047	eb 56		 jmp	 SHORT $LN2@Allocate_m
$LN7@Allocate_m:
  00049	8b f4		 mov	 esi, esp
  0004b	68 00 00 00 00	 push	 OFFSET $SG124212
  00050	68 00 00 00 00	 push	 OFFSET $SG124213
  00055	6a 00		 push	 0
  00057	6a 5b		 push	 91			; 0000005bH
  00059	68 00 00 00 00	 push	 OFFSET $SG124214
  0005e	6a 02		 push	 2
  00060	ff 15 00 00 00
	00		 call	 DWORD PTR __imp___CrtDbgReport
  00066	83 c4 18	 add	 esp, 24			; 00000018H
  00069	3b f4		 cmp	 esi, esp
  0006b	e8 00 00 00 00	 call	 __RTC_CheckEsp
  00070	83 f8 01	 cmp	 eax, 1
  00073	75 01		 jne	 SHORT $LN12@Allocate_m
  00075	cc		 int	 3
$LN12@Allocate_m:
  00076	8b f4		 mov	 esi, esp
  00078	6a 00		 push	 0
  0007a	6a 5b		 push	 91			; 0000005bH
  0007c	68 00 00 00 00	 push	 OFFSET $SG124215
  00081	68 00 00 00 00	 push	 OFFSET $SG124216
  00086	68 00 00 00 00	 push	 OFFSET $SG124217
  0008b	ff 15 00 00 00
	00		 call	 DWORD PTR __imp___invalid_parameter
  00091	83 c4 14	 add	 esp, 20			; 00000014H
  00094	3b f4		 cmp	 esi, esp
  00096	e8 00 00 00 00	 call	 __RTC_CheckEsp
  0009b	33 c9		 xor	 ecx, ecx
  0009d	75 aa		 jne	 SHORT $LN7@Allocate_m
$LN2@Allocate_m:
  0009f	33 d2		 xor	 edx, edx
  000a1	75 9e		 jne	 SHORT $LN4@Allocate_m

; 92   :     void* const _Ptr = reinterpret_cast<void*>((_Ptr_container + _Non_user_size) & ~(_Big_allocation_alignment - 1));

  000a3	8b 45 f8	 mov	 eax, DWORD PTR __Ptr_container$[ebp]
  000a6	83 c0 27	 add	 eax, 39			; 00000027H
  000a9	83 e0 e0	 and	 eax, -32		; ffffffe0H
  000ac	89 45 f4	 mov	 DWORD PTR __Ptr$[ebp], eax

; 93   :     static_cast<uintptr_t*>(_Ptr)[-1] = _Ptr_container;

  000af	b9 04 00 00 00	 mov	 ecx, 4
  000b4	6b d1 ff	 imul	 edx, ecx, -1
  000b7	8b 45 f4	 mov	 eax, DWORD PTR __Ptr$[ebp]
  000ba	8b 4d f8	 mov	 ecx, DWORD PTR __Ptr_container$[ebp]
  000bd	89 0c 10	 mov	 DWORD PTR [eax+edx], ecx

; 94   : 
; 95   : #ifdef _DEBUG
; 96   :     static_cast<uintptr_t*>(_Ptr)[-2] = _Big_allocation_sentinel;

  000c0	ba 04 00 00 00	 mov	 edx, 4
  000c5	6b c2 fe	 imul	 eax, edx, -2
  000c8	8b 4d f4	 mov	 ecx, DWORD PTR __Ptr$[ebp]
  000cb	c7 04 01 fa fa
	fa fa		 mov	 DWORD PTR [ecx+eax], -84215046 ; fafafafaH

; 97   : #endif // _DEBUG
; 98   :     return _Ptr;

  000d2	8b 45 f4	 mov	 eax, DWORD PTR __Ptr$[ebp]
$LN11@Allocate_m:

; 99   : }

  000d5	5e		 pop	 esi
  000d6	83 c4 0c	 add	 esp, 12			; 0000000cH
  000d9	3b ec		 cmp	 ebp, esp
  000db	e8 00 00 00 00	 call	 __RTC_CheckEsp
  000e0	8b e5		 mov	 esp, ebp
  000e2	5d		 pop	 ebp
  000e3	c3		 ret	 0
??$_Allocate_manually_vector_aligned@U_Default_allocate_traits@std@@@std@@YAPAXI@Z ENDP ; std::_Allocate_manually_vector_aligned<std::_Default_allocate_traits>
_TEXT	ENDS
; Function compile flags: /Odtp /RTCsu
; File C:\Program Files (x86)\Microsoft Visual Studio\2019\Community\VC\Tools\MSVC\14.23.28105\include\type_traits
;	COMDAT ??$forward@ABQAD@std@@YAABQADABQAD@Z
_TEXT	SEGMENT
__Arg$ = 8						; size = 4
??$forward@ABQAD@std@@YAABQADABQAD@Z PROC		; std::forward<char * const &>, COMDAT

; 1420 :     remove_reference_t<_Ty>& _Arg) noexcept { // forward an lvalue as either an lvalue or an rvalue

  00000	55		 push	 ebp
  00001	8b ec		 mov	 ebp, esp

; 1421 :     return static_cast<_Ty&&>(_Arg);

  00003	8b 45 08	 mov	 eax, DWORD PTR __Arg$[ebp]

; 1422 : }

  00006	5d		 pop	 ebp
  00007	c3		 ret	 0
??$forward@ABQAD@std@@YAABQADABQAD@Z ENDP		; std::forward<char * const &>
_TEXT	ENDS
; Function compile flags: /Odtp /RTCsu
; File C:\Program Files (x86)\Microsoft Visual Studio\2019\Community\VC\Tools\MSVC\14.23.28105\include\xstddef
;	COMDAT ??$addressof@PAD@std@@YAPAPADAAPAD@Z
_TEXT	SEGMENT
__Val$ = 8						; size = 4
??$addressof@PAD@std@@YAPAPADAAPAD@Z PROC		; std::addressof<char *>, COMDAT

; 279  : _NODISCARD constexpr _Ty* addressof(_Ty& _Val) noexcept { // return address of _Val

  00000	55		 push	 ebp
  00001	8b ec		 mov	 ebp, esp

; 280  :     return __builtin_addressof(_Val);

  00003	8b 45 08	 mov	 eax, DWORD PTR __Val$[ebp]

; 281  : }

  00006	5d		 pop	 ebp
  00007	c3		 ret	 0
??$addressof@PAD@std@@YAPAPADAAPAD@Z ENDP		; std::addressof<char *>
_TEXT	ENDS
; Function compile flags: /Odtp /RTCsu
; File C:\Program Files (x86)\Microsoft Visual Studio\2019\Community\VC\Tools\MSVC\14.23.28105\include\type_traits
;	COMDAT ??$forward@PAU_Container_base12@std@@@std@@YA$$QAPAU_Container_base12@0@AAPAU10@@Z
_TEXT	SEGMENT
__Arg$ = 8						; size = 4
??$forward@PAU_Container_base12@std@@@std@@YA$$QAPAU_Container_base12@0@AAPAU10@@Z PROC ; std::forward<std::_Container_base12 *>, COMDAT

; 1420 :     remove_reference_t<_Ty>& _Arg) noexcept { // forward an lvalue as either an lvalue or an rvalue

  00000	55		 push	 ebp
  00001	8b ec		 mov	 ebp, esp

; 1421 :     return static_cast<_Ty&&>(_Arg);

  00003	8b 45 08	 mov	 eax, DWORD PTR __Arg$[ebp]

; 1422 : }

  00006	5d		 pop	 ebp
  00007	c3		 ret	 0
??$forward@PAU_Container_base12@std@@@std@@YA$$QAPAU_Container_base12@0@AAPAU10@@Z ENDP ; std::forward<std::_Container_base12 *>
_TEXT	ENDS
; Function compile flags: /Odtp /RTCsu
; File C:\Program Files (x86)\Microsoft Visual Studio\2019\Community\VC\Tools\MSVC\14.23.28105\include\xstddef
;	COMDAT ??$addressof@U_Container_proxy@std@@@std@@YAPAU_Container_proxy@0@AAU10@@Z
_TEXT	SEGMENT
__Val$ = 8						; size = 4
??$addressof@U_Container_proxy@std@@@std@@YAPAU_Container_proxy@0@AAU10@@Z PROC ; std::addressof<std::_Container_proxy>, COMDAT

; 279  : _NODISCARD constexpr _Ty* addressof(_Ty& _Val) noexcept { // return address of _Val

  00000	55		 push	 ebp
  00001	8b ec		 mov	 ebp, esp

; 280  :     return __builtin_addressof(_Val);

  00003	8b 45 08	 mov	 eax, DWORD PTR __Val$[ebp]

; 281  : }

  00006	5d		 pop	 ebp
  00007	c3		 ret	 0
??$addressof@U_Container_proxy@std@@@std@@YAPAU_Container_proxy@0@AAU10@@Z ENDP ; std::addressof<std::_Container_proxy>
_TEXT	ENDS
; Function compile flags: /Odtp /RTCsu
; File C:\Program Files (x86)\Microsoft Visual Studio\2019\Community\VC\Tools\MSVC\14.23.28105\include\type_traits
;	COMDAT ??$forward@V?$allocator@D@std@@@std@@YA$$QAV?$allocator@D@0@AAV10@@Z
_TEXT	SEGMENT
__Arg$ = 8						; size = 4
??$forward@V?$allocator@D@std@@@std@@YA$$QAV?$allocator@D@0@AAV10@@Z PROC ; std::forward<std::allocator<char> >, COMDAT

; 1420 :     remove_reference_t<_Ty>& _Arg) noexcept { // forward an lvalue as either an lvalue or an rvalue

  00000	55		 push	 ebp
  00001	8b ec		 mov	 ebp, esp

; 1421 :     return static_cast<_Ty&&>(_Arg);

  00003	8b 45 08	 mov	 eax, DWORD PTR __Arg$[ebp]

; 1422 : }

  00006	5d		 pop	 ebp
  00007	c3		 ret	 0
??$forward@V?$allocator@D@std@@@std@@YA$$QAV?$allocator@D@0@AAV10@@Z ENDP ; std::forward<std::allocator<char> >
_TEXT	ENDS
; Function compile flags: /Odtp /RTCsu
; File C:\Program Files (x86)\Microsoft Visual Studio\2019\Community\VC\Tools\MSVC\14.23.28105\include\xmemory
;	COMDAT ??$_Deallocate_plain@V?$allocator@U_Container_proxy@std@@@std@@@std@@YAXAAV?$allocator@U_Container_proxy@std@@@0@QAU_Container_proxy@0@@Z
_TEXT	SEGMENT
__$EHRec$ = -12						; size = 12
__Al$ = 8						; size = 4
__Ptr$ = 12						; size = 4
??$_Deallocate_plain@V?$allocator@U_Container_proxy@std@@@std@@@std@@YAXAAV?$allocator@U_Container_proxy@std@@@0@QAU_Container_proxy@0@@Z PROC ; std::_Deallocate_plain<std::allocator<std::_Container_proxy> >, COMDAT

; 1081 : void _Deallocate_plain(_Alloc& _Al, typename _Alloc::value_type* const _Ptr) noexcept {

  00000	55		 push	 ebp
  00001	8b ec		 mov	 ebp, esp
  00003	6a ff		 push	 -1
  00005	68 00 00 00 00	 push	 __ehhandler$??$_Deallocate_plain@V?$allocator@U_Container_proxy@std@@@std@@@std@@YAXAAV?$allocator@U_Container_proxy@std@@@0@QAU_Container_proxy@0@@Z
  0000a	64 a1 00 00 00
	00		 mov	 eax, DWORD PTR fs:0
  00010	50		 push	 eax
  00011	a1 00 00 00 00	 mov	 eax, DWORD PTR ___security_cookie
  00016	33 c5		 xor	 eax, ebp
  00018	50		 push	 eax
  00019	8d 45 f4	 lea	 eax, DWORD PTR __$EHRec$[ebp]
  0001c	64 a3 00 00 00
	00		 mov	 DWORD PTR fs:0, eax

; 1082 :     // deallocate a plain pointer using an allocator
; 1083 :     using _Alloc_traits = allocator_traits<_Alloc>;
; 1084 :     if constexpr (is_same_v<_Alloc_ptr_t<_Alloc>, typename _Alloc::value_type*>) {
; 1085 :         _Alloc_traits::deallocate(_Al, _Ptr, 1);

  00022	6a 01		 push	 1
  00024	8b 45 0c	 mov	 eax, DWORD PTR __Ptr$[ebp]
  00027	50		 push	 eax
  00028	8b 4d 08	 mov	 ecx, DWORD PTR __Al$[ebp]
  0002b	51		 push	 ecx
  0002c	e8 00 00 00 00	 call	 ?deallocate@?$_Default_allocator_traits@V?$allocator@U_Container_proxy@std@@@std@@@std@@SAXAAV?$allocator@U_Container_proxy@std@@@2@QAU_Container_proxy@2@I@Z ; std::_Default_allocator_traits<std::allocator<std::_Container_proxy> >::deallocate
  00031	83 c4 0c	 add	 esp, 12			; 0000000cH

; 1086 :     } else {
; 1087 :         using _Ptr_traits = pointer_traits<_Alloc_ptr_t<_Alloc>>;
; 1088 :         _Alloc_traits::deallocate(_Al, _Ptr_traits::pointer_to(*_Ptr), 1);
; 1089 :     }
; 1090 : }

  00034	8b 4d f4	 mov	 ecx, DWORD PTR __$EHRec$[ebp]
  00037	64 89 0d 00 00
	00 00		 mov	 DWORD PTR fs:0, ecx
  0003e	59		 pop	 ecx
  0003f	83 c4 0c	 add	 esp, 12			; 0000000cH
  00042	3b ec		 cmp	 ebp, esp
  00044	e8 00 00 00 00	 call	 __RTC_CheckEsp
  00049	8b e5		 mov	 esp, ebp
  0004b	5d		 pop	 ebp
  0004c	c3		 ret	 0
_TEXT	ENDS
;	COMDAT text$x
text$x	SEGMENT
__ehhandler$??$_Deallocate_plain@V?$allocator@U_Container_proxy@std@@@std@@@std@@YAXAAV?$allocator@U_Container_proxy@std@@@0@QAU_Container_proxy@0@@Z:
  00000	8b 54 24 08	 mov	 edx, DWORD PTR [esp+8]
  00004	8d 42 0c	 lea	 eax, DWORD PTR [edx+12]
  00007	8b 4a fc	 mov	 ecx, DWORD PTR [edx-4]
  0000a	33 c8		 xor	 ecx, eax
  0000c	e8 00 00 00 00	 call	 @__security_check_cookie@4
  00011	b8 00 00 00 00	 mov	 eax, OFFSET __ehfuncinfo$??$_Deallocate_plain@V?$allocator@U_Container_proxy@std@@@std@@@std@@YAXAAV?$allocator@U_Container_proxy@std@@@0@QAU_Container_proxy@0@@Z
  00016	e9 00 00 00 00	 jmp	 ___CxxFrameHandler3
text$x	ENDS
??$_Deallocate_plain@V?$allocator@U_Container_proxy@std@@@std@@@std@@YAXAAV?$allocator@U_Container_proxy@std@@@0@QAU_Container_proxy@0@@Z ENDP ; std::_Deallocate_plain<std::allocator<std::_Container_proxy> >
; Function compile flags: /Odtp /RTCsu
; File C:\Program Files (x86)\Microsoft Visual Studio\2019\Community\VC\Tools\MSVC\14.23.28105\include\xmemory
;	COMDAT ??$_Get_size_of_n@$07@std@@YAII@Z
_TEXT	SEGMENT
__Max_possible$1 = -8					; size = 4
__Overflow_is_possible$ = -1				; size = 1
__Count$ = 8						; size = 4
??$_Get_size_of_n@$07@std@@YAII@Z PROC			; std::_Get_size_of_n<8>, COMDAT

; 24   : _NODISCARD constexpr size_t _Get_size_of_n(const size_t _Count) {

  00000	55		 push	 ebp
  00001	8b ec		 mov	 ebp, esp
  00003	83 ec 08	 sub	 esp, 8
  00006	c7 45 f8 cc cc
	cc cc		 mov	 DWORD PTR [ebp-8], -858993460 ; ccccccccH
  0000d	c7 45 fc cc cc
	cc cc		 mov	 DWORD PTR [ebp-4], -858993460 ; ccccccccH

; 25   :     constexpr bool _Overflow_is_possible = _Ty_size > 1;

  00014	c6 45 ff 01	 mov	 BYTE PTR __Overflow_is_possible$[ebp], 1

; 26   : 
; 27   :     if
; 28   :         _CONSTEXPR_IF(_Overflow_is_possible) {
; 29   :             constexpr size_t _Max_possible = static_cast<size_t>(-1) / _Ty_size;

  00018	c7 45 f8 ff ff
	ff 1f		 mov	 DWORD PTR __Max_possible$1[ebp], 536870911 ; 1fffffffH

; 30   :             if (_Count > _Max_possible) {

  0001f	81 7d 08 ff ff
	ff 1f		 cmp	 DWORD PTR __Count$[ebp], 536870911 ; 1fffffffH
  00026	76 05		 jbe	 SHORT $LN2@Get_size_o

; 31   :                 _Throw_bad_array_new_length(); // multiply overflow

  00028	e8 00 00 00 00	 call	 ?_Throw_bad_array_new_length@std@@YAXXZ ; std::_Throw_bad_array_new_length
$LN2@Get_size_o:

; 32   :             }
; 33   :         }
; 34   : 
; 35   :     return _Count * _Ty_size;

  0002d	8b 45 08	 mov	 eax, DWORD PTR __Count$[ebp]
  00030	c1 e0 03	 shl	 eax, 3
$LN3@Get_size_o:

; 36   : }

  00033	83 c4 08	 add	 esp, 8
  00036	3b ec		 cmp	 ebp, esp
  00038	e8 00 00 00 00	 call	 __RTC_CheckEsp
  0003d	8b e5		 mov	 esp, ebp
  0003f	5d		 pop	 ebp
  00040	c3		 ret	 0
??$_Get_size_of_n@$07@std@@YAII@Z ENDP			; std::_Get_size_of_n<8>
_TEXT	ENDS
; Function compile flags: /Odtp /RTCsu
; File C:\Program Files (x86)\Microsoft Visual Studio\2019\Community\VC\Tools\MSVC\14.23.28105\include\xmemory
;	COMDAT ??$_Deallocate@$07$0A@@std@@YAXPAXI@Z
_TEXT	SEGMENT
__$EHRec$ = -12						; size = 12
__Ptr$ = 8						; size = 4
__Bytes$ = 12						; size = 4
??$_Deallocate@$07$0A@@std@@YAXPAXI@Z PROC		; std::_Deallocate<8,0>, COMDAT

; 183  : void _Deallocate(void* _Ptr, size_t _Bytes) noexcept {

  00000	55		 push	 ebp
  00001	8b ec		 mov	 ebp, esp
  00003	6a ff		 push	 -1
  00005	68 00 00 00 00	 push	 __ehhandler$??$_Deallocate@$07$0A@@std@@YAXPAXI@Z
  0000a	64 a1 00 00 00
	00		 mov	 eax, DWORD PTR fs:0
  00010	50		 push	 eax
  00011	a1 00 00 00 00	 mov	 eax, DWORD PTR ___security_cookie
  00016	33 c5		 xor	 eax, ebp
  00018	50		 push	 eax
  00019	8d 45 f4	 lea	 eax, DWORD PTR __$EHRec$[ebp]
  0001c	64 a3 00 00 00
	00		 mov	 DWORD PTR fs:0, eax

; 184  :     // deallocate storage allocated by _Allocate when !_HAS_ALIGNED_NEW || _Align <= __STDCPP_DEFAULT_NEW_ALIGNMENT__
; 185  : #if defined(_M_IX86) || defined(_M_X64)
; 186  :     if (_Bytes >= _Big_allocation_threshold) { // boost the alignment of big allocations to help autovectorization

  00022	81 7d 0c 00 10
	00 00		 cmp	 DWORD PTR __Bytes$[ebp], 4096 ; 00001000H
  00029	72 10		 jb	 SHORT $LN2@Deallocate

; 187  :         _Adjust_manually_vector_aligned(_Ptr, _Bytes);

  0002b	8d 45 0c	 lea	 eax, DWORD PTR __Bytes$[ebp]
  0002e	50		 push	 eax
  0002f	8d 4d 08	 lea	 ecx, DWORD PTR __Ptr$[ebp]
  00032	51		 push	 ecx
  00033	e8 00 00 00 00	 call	 ?_Adjust_manually_vector_aligned@std@@YAXAAPAXAAI@Z ; std::_Adjust_manually_vector_aligned
  00038	83 c4 08	 add	 esp, 8
$LN2@Deallocate:

; 188  :     }
; 189  : #endif // defined(_M_IX86) || defined(_M_X64)
; 190  : 
; 191  :     ::operator delete(_Ptr, _Bytes);

  0003b	8b 55 0c	 mov	 edx, DWORD PTR __Bytes$[ebp]
  0003e	52		 push	 edx
  0003f	8b 45 08	 mov	 eax, DWORD PTR __Ptr$[ebp]
  00042	50		 push	 eax
  00043	e8 00 00 00 00	 call	 ??3@YAXPAXI@Z		; operator delete
  00048	83 c4 08	 add	 esp, 8

; 192  : }

  0004b	8b 4d f4	 mov	 ecx, DWORD PTR __$EHRec$[ebp]
  0004e	64 89 0d 00 00
	00 00		 mov	 DWORD PTR fs:0, ecx
  00055	59		 pop	 ecx
  00056	83 c4 0c	 add	 esp, 12			; 0000000cH
  00059	3b ec		 cmp	 ebp, esp
  0005b	e8 00 00 00 00	 call	 __RTC_CheckEsp
  00060	8b e5		 mov	 esp, ebp
  00062	5d		 pop	 ebp
  00063	c3		 ret	 0
_TEXT	ENDS
;	COMDAT text$x
text$x	SEGMENT
__ehhandler$??$_Deallocate@$07$0A@@std@@YAXPAXI@Z:
  00000	8b 54 24 08	 mov	 edx, DWORD PTR [esp+8]
  00004	8d 42 0c	 lea	 eax, DWORD PTR [edx+12]
  00007	8b 4a fc	 mov	 ecx, DWORD PTR [edx-4]
  0000a	33 c8		 xor	 ecx, eax
  0000c	e8 00 00 00 00	 call	 @__security_check_cookie@4
  00011	b8 00 00 00 00	 mov	 eax, OFFSET __ehfuncinfo$??$_Deallocate@$07$0A@@std@@YAXPAXI@Z
  00016	e9 00 00 00 00	 jmp	 ___CxxFrameHandler3
text$x	ENDS
??$_Deallocate@$07$0A@@std@@YAXPAXI@Z ENDP		; std::_Deallocate<8,0>
; Function compile flags: /Odtp /RTCsu
; File C:\Program Files (x86)\Microsoft Visual Studio\2019\Community\VC\Tools\MSVC\14.23.28105\include\xmemory
;	COMDAT ??$_Allocate@$07U_Default_allocate_traits@std@@$0A@@std@@YAPAXI@Z
_TEXT	SEGMENT
__Bytes$ = 8						; size = 4
??$_Allocate@$07U_Default_allocate_traits@std@@$0A@@std@@YAPAXI@Z PROC ; std::_Allocate<8,std::_Default_allocate_traits,0>, COMDAT

; 167  : _DECLSPEC_ALLOCATOR void* _Allocate(const size_t _Bytes) {

  00000	55		 push	 ebp
  00001	8b ec		 mov	 ebp, esp

; 168  :     // allocate _Bytes when !_HAS_ALIGNED_NEW || _Align <= __STDCPP_DEFAULT_NEW_ALIGNMENT__
; 169  : #if defined(_M_IX86) || defined(_M_X64)
; 170  :     if (_Bytes >= _Big_allocation_threshold) { // boost the alignment of big allocations to help autovectorization

  00003	81 7d 08 00 10
	00 00		 cmp	 DWORD PTR __Bytes$[ebp], 4096 ; 00001000H
  0000a	72 0e		 jb	 SHORT $LN2@Allocate

; 171  :         return _Allocate_manually_vector_aligned<_Traits>(_Bytes);

  0000c	8b 45 08	 mov	 eax, DWORD PTR __Bytes$[ebp]
  0000f	50		 push	 eax
  00010	e8 00 00 00 00	 call	 ??$_Allocate_manually_vector_aligned@U_Default_allocate_traits@std@@@std@@YAPAXI@Z ; std::_Allocate_manually_vector_aligned<std::_Default_allocate_traits>
  00015	83 c4 04	 add	 esp, 4
  00018	eb 16		 jmp	 SHORT $LN1@Allocate
$LN2@Allocate:

; 172  :     }
; 173  : #endif // defined(_M_IX86) || defined(_M_X64)
; 174  : 
; 175  :     if (_Bytes != 0) {

  0001a	83 7d 08 00	 cmp	 DWORD PTR __Bytes$[ebp], 0
  0001e	74 0e		 je	 SHORT $LN3@Allocate

; 176  :         return _Traits::_Allocate(_Bytes);

  00020	8b 4d 08	 mov	 ecx, DWORD PTR __Bytes$[ebp]
  00023	51		 push	 ecx
  00024	e8 00 00 00 00	 call	 ?_Allocate@_Default_allocate_traits@std@@SAPAXI@Z ; std::_Default_allocate_traits::_Allocate
  00029	83 c4 04	 add	 esp, 4
  0002c	eb 02		 jmp	 SHORT $LN1@Allocate
$LN3@Allocate:

; 177  :     }
; 178  : 
; 179  :     return nullptr;

  0002e	33 c0		 xor	 eax, eax
$LN1@Allocate:

; 180  : }

  00030	3b ec		 cmp	 ebp, esp
  00032	e8 00 00 00 00	 call	 __RTC_CheckEsp
  00037	5d		 pop	 ebp
  00038	c3		 ret	 0
??$_Allocate@$07U_Default_allocate_traits@std@@$0A@@std@@YAPAXI@Z ENDP ; std::_Allocate<8,std::_Default_allocate_traits,0>
_TEXT	ENDS
; Function compile flags: /Odtp /RTCsu
; File C:\Program Files (x86)\Microsoft Visual Studio\2019\Community\VC\Tools\MSVC\14.23.28105\include\xmemory
;	COMDAT ??$_Get_size_of_n@$00@std@@YAII@Z
_TEXT	SEGMENT
__Overflow_is_possible$ = -1				; size = 1
__Count$ = 8						; size = 4
??$_Get_size_of_n@$00@std@@YAII@Z PROC			; std::_Get_size_of_n<1>, COMDAT

; 24   : _NODISCARD constexpr size_t _Get_size_of_n(const size_t _Count) {

  00000	55		 push	 ebp
  00001	8b ec		 mov	 ebp, esp
  00003	51		 push	 ecx
  00004	c7 45 fc cc cc
	cc cc		 mov	 DWORD PTR [ebp-4], -858993460 ; ccccccccH

; 25   :     constexpr bool _Overflow_is_possible = _Ty_size > 1;

  0000b	c6 45 ff 00	 mov	 BYTE PTR __Overflow_is_possible$[ebp], 0

; 26   : 
; 27   :     if
; 28   :         _CONSTEXPR_IF(_Overflow_is_possible) {
; 29   :             constexpr size_t _Max_possible = static_cast<size_t>(-1) / _Ty_size;
; 30   :             if (_Count > _Max_possible) {
; 31   :                 _Throw_bad_array_new_length(); // multiply overflow
; 32   :             }
; 33   :         }
; 34   : 
; 35   :     return _Count * _Ty_size;

  0000f	8b 45 08	 mov	 eax, DWORD PTR __Count$[ebp]

; 36   : }

  00012	8b e5		 mov	 esp, ebp
  00014	5d		 pop	 ebp
  00015	c3		 ret	 0
??$_Get_size_of_n@$00@std@@YAII@Z ENDP			; std::_Get_size_of_n<1>
_TEXT	ENDS
; Function compile flags: /Odtp /RTCsu
; File C:\Program Files (x86)\Microsoft Visual Studio\2019\Community\VC\Tools\MSVC\14.23.28105\include\xmemory
;	COMDAT ??$_Construct_in_place@PADABQAD@std@@YAXAAPADABQAD@Z
_TEXT	SEGMENT
$T1 = -4						; size = 4
__Obj$ = 8						; size = 4
_<_Args_0>$ = 12					; size = 4
??$_Construct_in_place@PADABQAD@std@@YAXAAPADABQAD@Z PROC ; std::_Construct_in_place<char *,char * const &>, COMDAT

; 198  : void _Construct_in_place(_Ty& _Obj, _Types&&... _Args) _NOEXCEPT_COND(is_nothrow_constructible_v<_Ty, _Types...>) {

  00000	55		 push	 ebp
  00001	8b ec		 mov	 ebp, esp
  00003	51		 push	 ecx
  00004	c7 45 fc cc cc
	cc cc		 mov	 DWORD PTR [ebp-4], -858993460 ; ccccccccH

; 199  :     ::new (const_cast<void*>(static_cast<const volatile void*>(_STD addressof(_Obj))))

  0000b	8b 45 08	 mov	 eax, DWORD PTR __Obj$[ebp]
  0000e	50		 push	 eax
  0000f	e8 00 00 00 00	 call	 ??$addressof@PAD@std@@YAPAPADAAPAD@Z ; std::addressof<char *>
  00014	83 c4 04	 add	 esp, 4
  00017	50		 push	 eax
  00018	6a 04		 push	 4
  0001a	e8 00 00 00 00	 call	 ??2@YAPAXIPAX@Z		; operator new
  0001f	83 c4 08	 add	 esp, 8
  00022	89 45 fc	 mov	 DWORD PTR $T1[ebp], eax
  00025	8b 4d 0c	 mov	 ecx, DWORD PTR _<_Args_0>$[ebp]
  00028	51		 push	 ecx
  00029	e8 00 00 00 00	 call	 ??$forward@ABQAD@std@@YAABQADABQAD@Z ; std::forward<char * const &>
  0002e	83 c4 04	 add	 esp, 4
  00031	8b 55 fc	 mov	 edx, DWORD PTR $T1[ebp]
  00034	8b 00		 mov	 eax, DWORD PTR [eax]
  00036	89 02		 mov	 DWORD PTR [edx], eax

; 200  :         _Ty(_STD forward<_Types>(_Args)...);
; 201  : }

  00038	83 c4 04	 add	 esp, 4
  0003b	3b ec		 cmp	 ebp, esp
  0003d	e8 00 00 00 00	 call	 __RTC_CheckEsp
  00042	8b e5		 mov	 esp, ebp
  00044	5d		 pop	 ebp
  00045	c3		 ret	 0
??$_Construct_in_place@PADABQAD@std@@YAXAAPADABQAD@Z ENDP ; std::_Construct_in_place<char *,char * const &>
_TEXT	ENDS
; Function compile flags: /Odtp /RTCsu
; File C:\Program Files (x86)\Microsoft Visual Studio\2019\Community\VC\Tools\MSVC\14.23.28105\include\xstring
;	COMDAT ??$_Reallocate_grow_by@V<lambda_ab246b20b9526e2ef7792587e4298a77>@@PBDI@?$basic_string@DU?$char_traits@D@std@@V?$allocator@D@2@@std@@AAEAAV01@IV<lambda_ab246b20b9526e2ef7792587e4298a77>@@PBDI@Z
_TEXT	SEGMENT
__Old_ptr$1 = -48					; size = 4
__Raw_new$ = -44					; size = 4
__New_ptr$ = -36					; size = 4
__Al$ = -28						; size = 4
__New_capacity$ = -24					; size = 4
__Old_capacity$ = -20					; size = 4
__New_size$ = -16					; size = 4
__Old_size$ = -12					; size = 4
__My_data$ = -8						; size = 4
_this$ = -4						; size = 4
__Size_increase$ = 8					; size = 4
__Fn$ = 12						; size = 1
_<_Args_0>$ = 16					; size = 4
_<_Args_1>$ = 20					; size = 4
??$_Reallocate_grow_by@V<lambda_ab246b20b9526e2ef7792587e4298a77>@@PBDI@?$basic_string@DU?$char_traits@D@std@@V?$allocator@D@2@@std@@AAEAAV01@IV<lambda_ab246b20b9526e2ef7792587e4298a77>@@PBDI@Z PROC ; std::basic_string<char,std::char_traits<char>,std::allocator<char> >::_Reallocate_grow_by<<lambda_ab246b20b9526e2ef7792587e4298a77>,char const *,unsigned int>, COMDAT
; _this$ = ecx

; 4108 :     basic_string& _Reallocate_grow_by(const size_type _Size_increase, _Fty _Fn, _ArgTys... _Args) {

  00000	55		 push	 ebp
  00001	8b ec		 mov	 ebp, esp
  00003	83 ec 30	 sub	 esp, 48			; 00000030H
  00006	57		 push	 edi
  00007	51		 push	 ecx
  00008	8d 7d d0	 lea	 edi, DWORD PTR [ebp-48]
  0000b	b9 0c 00 00 00	 mov	 ecx, 12			; 0000000cH
  00010	b8 cc cc cc cc	 mov	 eax, -858993460		; ccccccccH
  00015	f3 ab		 rep stosd
  00017	59		 pop	 ecx
  00018	89 4d fc	 mov	 DWORD PTR _this$[ebp], ecx

; 4109 :         // reallocate to increase size by _Size_increase elements, new buffer prepared by
; 4110 :         // _Fn(_New_ptr, _Old_ptr, _Old_size, _Args...)
; 4111 :         auto& _My_data            = _Mypair._Myval2;

  0001b	8b 45 fc	 mov	 eax, DWORD PTR _this$[ebp]
  0001e	89 45 f8	 mov	 DWORD PTR __My_data$[ebp], eax

; 4112 :         const size_type _Old_size = _My_data._Mysize;

  00021	8b 4d f8	 mov	 ecx, DWORD PTR __My_data$[ebp]
  00024	8b 51 14	 mov	 edx, DWORD PTR [ecx+20]
  00027	89 55 f4	 mov	 DWORD PTR __Old_size$[ebp], edx

; 4113 :         if (max_size() - _Old_size < _Size_increase) {

  0002a	8b 4d fc	 mov	 ecx, DWORD PTR _this$[ebp]
  0002d	e8 00 00 00 00	 call	 ?max_size@?$basic_string@DU?$char_traits@D@std@@V?$allocator@D@2@@std@@QBEIXZ ; std::basic_string<char,std::char_traits<char>,std::allocator<char> >::max_size
  00032	2b 45 f4	 sub	 eax, DWORD PTR __Old_size$[ebp]
  00035	3b 45 08	 cmp	 eax, DWORD PTR __Size_increase$[ebp]
  00038	73 05		 jae	 SHORT $LN2@Reallocate

; 4114 :             _Xlen(); // result too long

  0003a	e8 00 00 00 00	 call	 ?_Xlen@?$basic_string@DU?$char_traits@D@std@@V?$allocator@D@2@@std@@CAXXZ ; std::basic_string<char,std::char_traits<char>,std::allocator<char> >::_Xlen
$LN2@Reallocate:

; 4115 :         }
; 4116 : 
; 4117 :         const size_type _New_size     = _Old_size + _Size_increase;

  0003f	8b 45 f4	 mov	 eax, DWORD PTR __Old_size$[ebp]
  00042	03 45 08	 add	 eax, DWORD PTR __Size_increase$[ebp]
  00045	89 45 f0	 mov	 DWORD PTR __New_size$[ebp], eax

; 4118 :         const size_type _Old_capacity = _My_data._Myres;

  00048	8b 4d f8	 mov	 ecx, DWORD PTR __My_data$[ebp]
  0004b	8b 51 18	 mov	 edx, DWORD PTR [ecx+24]
  0004e	89 55 ec	 mov	 DWORD PTR __Old_capacity$[ebp], edx

; 4119 :         const size_type _New_capacity = _Calculate_growth(_New_size);

  00051	8b 45 f0	 mov	 eax, DWORD PTR __New_size$[ebp]
  00054	50		 push	 eax
  00055	8b 4d fc	 mov	 ecx, DWORD PTR _this$[ebp]
  00058	e8 00 00 00 00	 call	 ?_Calculate_growth@?$basic_string@DU?$char_traits@D@std@@V?$allocator@D@2@@std@@ABEII@Z ; std::basic_string<char,std::char_traits<char>,std::allocator<char> >::_Calculate_growth
  0005d	89 45 e8	 mov	 DWORD PTR __New_capacity$[ebp], eax

; 4120 :         auto& _Al                     = _Getal();

  00060	8b 4d fc	 mov	 ecx, DWORD PTR _this$[ebp]
  00063	e8 00 00 00 00	 call	 ?_Getal@?$basic_string@DU?$char_traits@D@std@@V?$allocator@D@2@@std@@AAEAAV?$allocator@D@2@XZ ; std::basic_string<char,std::char_traits<char>,std::allocator<char> >::_Getal
  00068	89 45 e4	 mov	 DWORD PTR __Al$[ebp], eax

; 4121 :         const pointer _New_ptr        = _Al.allocate(_New_capacity + 1); // throws

  0006b	8b 4d e8	 mov	 ecx, DWORD PTR __New_capacity$[ebp]
  0006e	83 c1 01	 add	 ecx, 1
  00071	51		 push	 ecx
  00072	8b 4d e4	 mov	 ecx, DWORD PTR __Al$[ebp]
  00075	e8 00 00 00 00	 call	 ?allocate@?$allocator@D@std@@QAEPADI@Z ; std::allocator<char>::allocate
  0007a	89 45 dc	 mov	 DWORD PTR __New_ptr$[ebp], eax

; 4122 :         _My_data._Orphan_all();

  0007d	8b 4d f8	 mov	 ecx, DWORD PTR __My_data$[ebp]
  00080	e8 00 00 00 00	 call	 ?_Orphan_all@_Container_base12@std@@QAEXXZ ; std::_Container_base12::_Orphan_all

; 4123 :         _My_data._Mysize      = _New_size;

  00085	8b 55 f8	 mov	 edx, DWORD PTR __My_data$[ebp]
  00088	8b 45 f0	 mov	 eax, DWORD PTR __New_size$[ebp]
  0008b	89 42 14	 mov	 DWORD PTR [edx+20], eax

; 4124 :         _My_data._Myres       = _New_capacity;

  0008e	8b 4d f8	 mov	 ecx, DWORD PTR __My_data$[ebp]
  00091	8b 55 e8	 mov	 edx, DWORD PTR __New_capacity$[ebp]
  00094	89 51 18	 mov	 DWORD PTR [ecx+24], edx

; 4125 :         _Elem* const _Raw_new = _Unfancy(_New_ptr);

  00097	8b 45 dc	 mov	 eax, DWORD PTR __New_ptr$[ebp]
  0009a	50		 push	 eax
  0009b	e8 00 00 00 00	 call	 ??$_Unfancy@D@std@@YAPADPAD@Z ; std::_Unfancy<char>
  000a0	83 c4 04	 add	 esp, 4
  000a3	89 45 d4	 mov	 DWORD PTR __Raw_new$[ebp], eax

; 4126 :         if (_BUF_SIZE <= _Old_capacity) {

  000a6	83 7d ec 10	 cmp	 DWORD PTR __Old_capacity$[ebp], 16 ; 00000010H
  000aa	72 4c		 jb	 SHORT $LN3@Reallocate

; 4127 :             const pointer _Old_ptr = _My_data._Bx._Ptr;

  000ac	8b 4d f8	 mov	 ecx, DWORD PTR __My_data$[ebp]
  000af	8b 51 04	 mov	 edx, DWORD PTR [ecx+4]
  000b2	89 55 d0	 mov	 DWORD PTR __Old_ptr$1[ebp], edx

; 4128 :             _Fn(_Raw_new, _Unfancy(_Old_ptr), _Old_size, _Args...);

  000b5	8b 45 14	 mov	 eax, DWORD PTR _<_Args_1>$[ebp]
  000b8	50		 push	 eax
  000b9	8b 4d 10	 mov	 ecx, DWORD PTR _<_Args_0>$[ebp]
  000bc	51		 push	 ecx
  000bd	8b 55 f4	 mov	 edx, DWORD PTR __Old_size$[ebp]
  000c0	52		 push	 edx
  000c1	8b 45 d0	 mov	 eax, DWORD PTR __Old_ptr$1[ebp]
  000c4	50		 push	 eax
  000c5	e8 00 00 00 00	 call	 ??$_Unfancy@D@std@@YAPADPAD@Z ; std::_Unfancy<char>
  000ca	83 c4 04	 add	 esp, 4
  000cd	50		 push	 eax
  000ce	8b 4d d4	 mov	 ecx, DWORD PTR __Raw_new$[ebp]
  000d1	51		 push	 ecx
  000d2	8d 4d 0c	 lea	 ecx, DWORD PTR __Fn$[ebp]
  000d5	e8 00 00 00 00	 call	 ??R<lambda_ab246b20b9526e2ef7792587e4298a77>@@QBEXQADQBDI1I@Z ; <lambda_ab246b20b9526e2ef7792587e4298a77>::operator()

; 4129 :             _Al.deallocate(_Old_ptr, _Old_capacity + 1);

  000da	8b 55 ec	 mov	 edx, DWORD PTR __Old_capacity$[ebp]
  000dd	83 c2 01	 add	 edx, 1
  000e0	52		 push	 edx
  000e1	8b 45 d0	 mov	 eax, DWORD PTR __Old_ptr$1[ebp]
  000e4	50		 push	 eax
  000e5	8b 4d e4	 mov	 ecx, DWORD PTR __Al$[ebp]
  000e8	e8 00 00 00 00	 call	 ?deallocate@?$allocator@D@std@@QAEXQADI@Z ; std::allocator<char>::deallocate

; 4130 :             _My_data._Bx._Ptr = _New_ptr;

  000ed	8b 4d f8	 mov	 ecx, DWORD PTR __My_data$[ebp]
  000f0	8b 55 dc	 mov	 edx, DWORD PTR __New_ptr$[ebp]
  000f3	89 51 04	 mov	 DWORD PTR [ecx+4], edx

; 4131 :         } else {

  000f6	eb 32		 jmp	 SHORT $LN4@Reallocate
$LN3@Reallocate:

; 4132 :             _Fn(_Raw_new, _My_data._Bx._Buf, _Old_size, _Args...);

  000f8	8b 45 14	 mov	 eax, DWORD PTR _<_Args_1>$[ebp]
  000fb	50		 push	 eax
  000fc	8b 4d 10	 mov	 ecx, DWORD PTR _<_Args_0>$[ebp]
  000ff	51		 push	 ecx
  00100	8b 55 f4	 mov	 edx, DWORD PTR __Old_size$[ebp]
  00103	52		 push	 edx
  00104	8b 45 f8	 mov	 eax, DWORD PTR __My_data$[ebp]
  00107	83 c0 04	 add	 eax, 4
  0010a	50		 push	 eax
  0010b	8b 4d d4	 mov	 ecx, DWORD PTR __Raw_new$[ebp]
  0010e	51		 push	 ecx
  0010f	8d 4d 0c	 lea	 ecx, DWORD PTR __Fn$[ebp]
  00112	e8 00 00 00 00	 call	 ??R<lambda_ab246b20b9526e2ef7792587e4298a77>@@QBEXQADQBDI1I@Z ; <lambda_ab246b20b9526e2ef7792587e4298a77>::operator()

; 4133 :             _Construct_in_place(_My_data._Bx._Ptr, _New_ptr);

  00117	8d 55 dc	 lea	 edx, DWORD PTR __New_ptr$[ebp]
  0011a	52		 push	 edx
  0011b	8b 45 f8	 mov	 eax, DWORD PTR __My_data$[ebp]
  0011e	83 c0 04	 add	 eax, 4
  00121	50		 push	 eax
  00122	e8 00 00 00 00	 call	 ??$_Construct_in_place@PADABQAD@std@@YAXAAPADABQAD@Z ; std::_Construct_in_place<char *,char * const &>
  00127	83 c4 08	 add	 esp, 8
$LN4@Reallocate:

; 4134 :         }
; 4135 : 
; 4136 :         return *this;

  0012a	8b 45 fc	 mov	 eax, DWORD PTR _this$[ebp]
$LN5@Reallocate:

; 4137 :     }

  0012d	52		 push	 edx
  0012e	8b cd		 mov	 ecx, ebp
  00130	50		 push	 eax
  00131	8d 15 00 00 00
	00		 lea	 edx, DWORD PTR $LN8@Reallocate
  00137	e8 00 00 00 00	 call	 @_RTC_CheckStackVars@8
  0013c	58		 pop	 eax
  0013d	5a		 pop	 edx
  0013e	5f		 pop	 edi
  0013f	83 c4 30	 add	 esp, 48			; 00000030H
  00142	3b ec		 cmp	 ebp, esp
  00144	e8 00 00 00 00	 call	 __RTC_CheckEsp
  00149	8b e5		 mov	 esp, ebp
  0014b	5d		 pop	 ebp
  0014c	c2 10 00	 ret	 16			; 00000010H
  0014f	90		 npad	 1
$LN8@Reallocate:
  00150	01 00 00 00	 DD	 1
  00154	00 00 00 00	 DD	 $LN7@Reallocate
$LN7@Reallocate:
  00158	dc ff ff ff	 DD	 -36			; ffffffdcH
  0015c	04 00 00 00	 DD	 4
  00160	00 00 00 00	 DD	 $LN6@Reallocate
$LN6@Reallocate:
  00164	5f		 DB	 95			; 0000005fH
  00165	4e		 DB	 78			; 0000004eH
  00166	65		 DB	 101			; 00000065H
  00167	77		 DB	 119			; 00000077H
  00168	5f		 DB	 95			; 0000005fH
  00169	70		 DB	 112			; 00000070H
  0016a	74		 DB	 116			; 00000074H
  0016b	72		 DB	 114			; 00000072H
  0016c	00		 DB	 0
??$_Reallocate_grow_by@V<lambda_ab246b20b9526e2ef7792587e4298a77>@@PBDI@?$basic_string@DU?$char_traits@D@std@@V?$allocator@D@2@@std@@AAEAAV01@IV<lambda_ab246b20b9526e2ef7792587e4298a77>@@PBDI@Z ENDP ; std::basic_string<char,std::char_traits<char>,std::allocator<char> >::_Reallocate_grow_by<<lambda_ab246b20b9526e2ef7792587e4298a77>,char const *,unsigned int>
_TEXT	ENDS
; Function compile flags: /Odtp /RTCsu
; File C:\Program Files (x86)\Microsoft Visual Studio\2019\Community\VC\Tools\MSVC\14.23.28105\include\xstring
;	COMDAT ??R<lambda_ab246b20b9526e2ef7792587e4298a77>@@QBEXQADQBDI1I@Z
_TEXT	SEGMENT
$T1 = -5						; size = 1
_this$ = -4						; size = 4
__New_ptr$ = 8						; size = 4
__Old_ptr$ = 12						; size = 4
__Old_size$ = 16					; size = 4
__Ptr$ = 20						; size = 4
__Count$ = 24						; size = 4
??R<lambda_ab246b20b9526e2ef7792587e4298a77>@@QBEXQADQBDI1I@Z PROC ; <lambda_ab246b20b9526e2ef7792587e4298a77>::operator(), COMDAT
; _this$ = ecx

; 2748 :                 const size_type _Count) {

  00000	55		 push	 ebp
  00001	8b ec		 mov	 ebp, esp
  00003	83 ec 08	 sub	 esp, 8
  00006	c7 45 f8 cc cc
	cc cc		 mov	 DWORD PTR [ebp-8], -858993460 ; ccccccccH
  0000d	c7 45 fc cc cc
	cc cc		 mov	 DWORD PTR [ebp-4], -858993460 ; ccccccccH
  00014	89 4d fc	 mov	 DWORD PTR _this$[ebp], ecx

; 2749 :                 _Traits::copy(_New_ptr, _Old_ptr, _Old_size);

  00017	8b 45 10	 mov	 eax, DWORD PTR __Old_size$[ebp]
  0001a	50		 push	 eax
  0001b	8b 4d 0c	 mov	 ecx, DWORD PTR __Old_ptr$[ebp]
  0001e	51		 push	 ecx
  0001f	8b 55 08	 mov	 edx, DWORD PTR __New_ptr$[ebp]
  00022	52		 push	 edx
  00023	e8 00 00 00 00	 call	 ?copy@?$_Narrow_char_traits@DH@std@@SAPADQADQBDI@Z ; std::_Narrow_char_traits<char,int>::copy
  00028	83 c4 0c	 add	 esp, 12			; 0000000cH

; 2750 :                 _Traits::copy(_New_ptr + _Old_size, _Ptr, _Count);

  0002b	8b 45 18	 mov	 eax, DWORD PTR __Count$[ebp]
  0002e	50		 push	 eax
  0002f	8b 4d 14	 mov	 ecx, DWORD PTR __Ptr$[ebp]
  00032	51		 push	 ecx
  00033	8b 55 08	 mov	 edx, DWORD PTR __New_ptr$[ebp]
  00036	03 55 10	 add	 edx, DWORD PTR __Old_size$[ebp]
  00039	52		 push	 edx
  0003a	e8 00 00 00 00	 call	 ?copy@?$_Narrow_char_traits@DH@std@@SAPADQADQBDI@Z ; std::_Narrow_char_traits<char,int>::copy
  0003f	83 c4 0c	 add	 esp, 12			; 0000000cH

; 2751 :                 _Traits::assign(_New_ptr[_Old_size + _Count], _Elem());

  00042	c6 45 fb 00	 mov	 BYTE PTR $T1[ebp], 0
  00046	8d 45 fb	 lea	 eax, DWORD PTR $T1[ebp]
  00049	50		 push	 eax
  0004a	8b 4d 10	 mov	 ecx, DWORD PTR __Old_size$[ebp]
  0004d	03 4d 18	 add	 ecx, DWORD PTR __Count$[ebp]
  00050	03 4d 08	 add	 ecx, DWORD PTR __New_ptr$[ebp]
  00053	51		 push	 ecx
  00054	e8 00 00 00 00	 call	 ?assign@?$_Narrow_char_traits@DH@std@@SAXAADABD@Z ; std::_Narrow_char_traits<char,int>::assign
  00059	83 c4 08	 add	 esp, 8

; 2752 :             },

  0005c	83 c4 08	 add	 esp, 8
  0005f	3b ec		 cmp	 ebp, esp
  00061	e8 00 00 00 00	 call	 __RTC_CheckEsp
  00066	8b e5		 mov	 esp, ebp
  00068	5d		 pop	 ebp
  00069	c2 14 00	 ret	 20			; 00000014H
??R<lambda_ab246b20b9526e2ef7792587e4298a77>@@QBEXQADQBDI1I@Z ENDP ; <lambda_ab246b20b9526e2ef7792587e4298a77>::operator()
_TEXT	ENDS
; Function compile flags: /Odtp /RTCsu
; File C:\Program Files (x86)\Microsoft Visual Studio\2019\Community\VC\Tools\MSVC\14.23.28105\include\xstring
;	COMDAT ??$_Reallocate_for@V<lambda_9366063389c5f42a00a5088cf24e69de>@@PBD@?$basic_string@DU?$char_traits@D@std@@V?$allocator@D@2@@std@@AAEAAV01@IV<lambda_9366063389c5f42a00a5088cf24e69de>@@PBD@Z
_TEXT	SEGMENT
__New_ptr$ = -24					; size = 4
__Al$ = -16						; size = 4
__New_capacity$ = -12					; size = 4
__Old_capacity$ = -8					; size = 4
_this$ = -4						; size = 4
__New_size$ = 8						; size = 4
__Fn$ = 12						; size = 1
_<_Args_0>$ = 16					; size = 4
??$_Reallocate_for@V<lambda_9366063389c5f42a00a5088cf24e69de>@@PBD@?$basic_string@DU?$char_traits@D@std@@V?$allocator@D@2@@std@@AAEAAV01@IV<lambda_9366063389c5f42a00a5088cf24e69de>@@PBD@Z PROC ; std::basic_string<char,std::char_traits<char>,std::allocator<char> >::_Reallocate_for<<lambda_9366063389c5f42a00a5088cf24e69de>,char const *>, COMDAT
; _this$ = ecx

; 4082 :     basic_string& _Reallocate_for(const size_type _New_size, _Fty _Fn, _ArgTys... _Args) {

  00000	55		 push	 ebp
  00001	8b ec		 mov	 ebp, esp
  00003	83 ec 1c	 sub	 esp, 28			; 0000001cH
  00006	b8 cc cc cc cc	 mov	 eax, -858993460		; ccccccccH
  0000b	89 45 e4	 mov	 DWORD PTR [ebp-28], eax
  0000e	89 45 e8	 mov	 DWORD PTR [ebp-24], eax
  00011	89 45 ec	 mov	 DWORD PTR [ebp-20], eax
  00014	89 45 f0	 mov	 DWORD PTR [ebp-16], eax
  00017	89 45 f4	 mov	 DWORD PTR [ebp-12], eax
  0001a	89 45 f8	 mov	 DWORD PTR [ebp-8], eax
  0001d	89 45 fc	 mov	 DWORD PTR [ebp-4], eax
  00020	89 4d fc	 mov	 DWORD PTR _this$[ebp], ecx

; 4083 :         // reallocate to store exactly _New_size elements, new buffer prepared by
; 4084 :         // _Fn(_New_ptr, _New_size, _Args...)
; 4085 :         if (_New_size > max_size()) {

  00023	8b 4d fc	 mov	 ecx, DWORD PTR _this$[ebp]
  00026	e8 00 00 00 00	 call	 ?max_size@?$basic_string@DU?$char_traits@D@std@@V?$allocator@D@2@@std@@QBEIXZ ; std::basic_string<char,std::char_traits<char>,std::allocator<char> >::max_size
  0002b	39 45 08	 cmp	 DWORD PTR __New_size$[ebp], eax
  0002e	76 05		 jbe	 SHORT $LN2@Reallocate

; 4086 :             _Xlen(); // result too long

  00030	e8 00 00 00 00	 call	 ?_Xlen@?$basic_string@DU?$char_traits@D@std@@V?$allocator@D@2@@std@@CAXXZ ; std::basic_string<char,std::char_traits<char>,std::allocator<char> >::_Xlen
$LN2@Reallocate:

; 4087 :         }
; 4088 : 
; 4089 :         const size_type _Old_capacity = _Mypair._Myval2._Myres;

  00035	8b 45 fc	 mov	 eax, DWORD PTR _this$[ebp]
  00038	8b 48 18	 mov	 ecx, DWORD PTR [eax+24]
  0003b	89 4d f8	 mov	 DWORD PTR __Old_capacity$[ebp], ecx

; 4090 :         const size_type _New_capacity = _Calculate_growth(_New_size);

  0003e	8b 55 08	 mov	 edx, DWORD PTR __New_size$[ebp]
  00041	52		 push	 edx
  00042	8b 4d fc	 mov	 ecx, DWORD PTR _this$[ebp]
  00045	e8 00 00 00 00	 call	 ?_Calculate_growth@?$basic_string@DU?$char_traits@D@std@@V?$allocator@D@2@@std@@ABEII@Z ; std::basic_string<char,std::char_traits<char>,std::allocator<char> >::_Calculate_growth
  0004a	89 45 f4	 mov	 DWORD PTR __New_capacity$[ebp], eax

; 4091 :         auto& _Al                     = _Getal();

  0004d	8b 4d fc	 mov	 ecx, DWORD PTR _this$[ebp]
  00050	e8 00 00 00 00	 call	 ?_Getal@?$basic_string@DU?$char_traits@D@std@@V?$allocator@D@2@@std@@AAEAAV?$allocator@D@2@XZ ; std::basic_string<char,std::char_traits<char>,std::allocator<char> >::_Getal
  00055	89 45 f0	 mov	 DWORD PTR __Al$[ebp], eax

; 4092 :         const pointer _New_ptr        = _Al.allocate(_New_capacity + 1); // throws

  00058	8b 45 f4	 mov	 eax, DWORD PTR __New_capacity$[ebp]
  0005b	83 c0 01	 add	 eax, 1
  0005e	50		 push	 eax
  0005f	8b 4d f0	 mov	 ecx, DWORD PTR __Al$[ebp]
  00062	e8 00 00 00 00	 call	 ?allocate@?$allocator@D@std@@QAEPADI@Z ; std::allocator<char>::allocate
  00067	89 45 e8	 mov	 DWORD PTR __New_ptr$[ebp], eax

; 4093 :         _Mypair._Myval2._Orphan_all();

  0006a	8b 4d fc	 mov	 ecx, DWORD PTR _this$[ebp]
  0006d	e8 00 00 00 00	 call	 ?_Orphan_all@_Container_base12@std@@QAEXXZ ; std::_Container_base12::_Orphan_all

; 4094 :         _Mypair._Myval2._Mysize = _New_size;

  00072	8b 4d fc	 mov	 ecx, DWORD PTR _this$[ebp]
  00075	8b 55 08	 mov	 edx, DWORD PTR __New_size$[ebp]
  00078	89 51 14	 mov	 DWORD PTR [ecx+20], edx

; 4095 :         _Mypair._Myval2._Myres  = _New_capacity;

  0007b	8b 45 fc	 mov	 eax, DWORD PTR _this$[ebp]
  0007e	8b 4d f4	 mov	 ecx, DWORD PTR __New_capacity$[ebp]
  00081	89 48 18	 mov	 DWORD PTR [eax+24], ecx

; 4096 :         _Fn(_Unfancy(_New_ptr), _New_size, _Args...);

  00084	8b 55 10	 mov	 edx, DWORD PTR _<_Args_0>$[ebp]
  00087	52		 push	 edx
  00088	8b 45 08	 mov	 eax, DWORD PTR __New_size$[ebp]
  0008b	50		 push	 eax
  0008c	8b 4d e8	 mov	 ecx, DWORD PTR __New_ptr$[ebp]
  0008f	51		 push	 ecx
  00090	e8 00 00 00 00	 call	 ??$_Unfancy@D@std@@YAPADPAD@Z ; std::_Unfancy<char>
  00095	83 c4 04	 add	 esp, 4
  00098	50		 push	 eax
  00099	8d 4d 0c	 lea	 ecx, DWORD PTR __Fn$[ebp]
  0009c	e8 00 00 00 00	 call	 ??R<lambda_9366063389c5f42a00a5088cf24e69de>@@QBEXQADIQBD@Z ; <lambda_9366063389c5f42a00a5088cf24e69de>::operator()

; 4097 :         if (_BUF_SIZE <= _Old_capacity) {

  000a1	83 7d f8 10	 cmp	 DWORD PTR __Old_capacity$[ebp], 16 ; 00000010H
  000a5	72 21		 jb	 SHORT $LN3@Reallocate

; 4098 :             _Al.deallocate(_Mypair._Myval2._Bx._Ptr, _Old_capacity + 1);

  000a7	8b 55 f8	 mov	 edx, DWORD PTR __Old_capacity$[ebp]
  000aa	83 c2 01	 add	 edx, 1
  000ad	52		 push	 edx
  000ae	8b 45 fc	 mov	 eax, DWORD PTR _this$[ebp]
  000b1	8b 48 04	 mov	 ecx, DWORD PTR [eax+4]
  000b4	51		 push	 ecx
  000b5	8b 4d f0	 mov	 ecx, DWORD PTR __Al$[ebp]
  000b8	e8 00 00 00 00	 call	 ?deallocate@?$allocator@D@std@@QAEXQADI@Z ; std::allocator<char>::deallocate

; 4099 :             _Mypair._Myval2._Bx._Ptr = _New_ptr;

  000bd	8b 55 fc	 mov	 edx, DWORD PTR _this$[ebp]
  000c0	8b 45 e8	 mov	 eax, DWORD PTR __New_ptr$[ebp]
  000c3	89 42 04	 mov	 DWORD PTR [edx+4], eax

; 4100 :         } else {

  000c6	eb 13		 jmp	 SHORT $LN4@Reallocate
$LN3@Reallocate:

; 4101 :             _Construct_in_place(_Mypair._Myval2._Bx._Ptr, _New_ptr);

  000c8	8d 4d e8	 lea	 ecx, DWORD PTR __New_ptr$[ebp]
  000cb	51		 push	 ecx
  000cc	8b 55 fc	 mov	 edx, DWORD PTR _this$[ebp]
  000cf	83 c2 04	 add	 edx, 4
  000d2	52		 push	 edx
  000d3	e8 00 00 00 00	 call	 ??$_Construct_in_place@PADABQAD@std@@YAXAAPADABQAD@Z ; std::_Construct_in_place<char *,char * const &>
  000d8	83 c4 08	 add	 esp, 8
$LN4@Reallocate:

; 4102 :         }
; 4103 : 
; 4104 :         return *this;

  000db	8b 45 fc	 mov	 eax, DWORD PTR _this$[ebp]
$LN5@Reallocate:

; 4105 :     }

  000de	52		 push	 edx
  000df	8b cd		 mov	 ecx, ebp
  000e1	50		 push	 eax
  000e2	8d 15 00 00 00
	00		 lea	 edx, DWORD PTR $LN8@Reallocate
  000e8	e8 00 00 00 00	 call	 @_RTC_CheckStackVars@8
  000ed	58		 pop	 eax
  000ee	5a		 pop	 edx
  000ef	83 c4 1c	 add	 esp, 28			; 0000001cH
  000f2	3b ec		 cmp	 ebp, esp
  000f4	e8 00 00 00 00	 call	 __RTC_CheckEsp
  000f9	8b e5		 mov	 esp, ebp
  000fb	5d		 pop	 ebp
  000fc	c2 0c 00	 ret	 12			; 0000000cH
  000ff	90		 npad	 1
$LN8@Reallocate:
  00100	01 00 00 00	 DD	 1
  00104	00 00 00 00	 DD	 $LN7@Reallocate
$LN7@Reallocate:
  00108	e8 ff ff ff	 DD	 -24			; ffffffe8H
  0010c	04 00 00 00	 DD	 4
  00110	00 00 00 00	 DD	 $LN6@Reallocate
$LN6@Reallocate:
  00114	5f		 DB	 95			; 0000005fH
  00115	4e		 DB	 78			; 0000004eH
  00116	65		 DB	 101			; 00000065H
  00117	77		 DB	 119			; 00000077H
  00118	5f		 DB	 95			; 0000005fH
  00119	70		 DB	 112			; 00000070H
  0011a	74		 DB	 116			; 00000074H
  0011b	72		 DB	 114			; 00000072H
  0011c	00		 DB	 0
??$_Reallocate_for@V<lambda_9366063389c5f42a00a5088cf24e69de>@@PBD@?$basic_string@DU?$char_traits@D@std@@V?$allocator@D@2@@std@@AAEAAV01@IV<lambda_9366063389c5f42a00a5088cf24e69de>@@PBD@Z ENDP ; std::basic_string<char,std::char_traits<char>,std::allocator<char> >::_Reallocate_for<<lambda_9366063389c5f42a00a5088cf24e69de>,char const *>
_TEXT	ENDS
; Function compile flags: /Odtp /RTCsu
; File C:\Program Files (x86)\Microsoft Visual Studio\2019\Community\VC\Tools\MSVC\14.23.28105\include\xstring
;	COMDAT ??R<lambda_9366063389c5f42a00a5088cf24e69de>@@QBEXQADIQBD@Z
_TEXT	SEGMENT
$T1 = -5						; size = 1
_this$ = -4						; size = 4
__New_ptr$ = 8						; size = 4
__Count$ = 12						; size = 4
__Ptr$ = 16						; size = 4
??R<lambda_9366063389c5f42a00a5088cf24e69de>@@QBEXQADIQBD@Z PROC ; <lambda_9366063389c5f42a00a5088cf24e69de>::operator(), COMDAT
; _this$ = ecx

; 2853 :             [](_Elem* const _New_ptr, const size_type _Count, const _Elem* const _Ptr) {

  00000	55		 push	 ebp
  00001	8b ec		 mov	 ebp, esp
  00003	83 ec 08	 sub	 esp, 8
  00006	c7 45 f8 cc cc
	cc cc		 mov	 DWORD PTR [ebp-8], -858993460 ; ccccccccH
  0000d	c7 45 fc cc cc
	cc cc		 mov	 DWORD PTR [ebp-4], -858993460 ; ccccccccH
  00014	89 4d fc	 mov	 DWORD PTR _this$[ebp], ecx

; 2854 :                 _Traits::copy(_New_ptr, _Ptr, _Count);

  00017	8b 45 0c	 mov	 eax, DWORD PTR __Count$[ebp]
  0001a	50		 push	 eax
  0001b	8b 4d 10	 mov	 ecx, DWORD PTR __Ptr$[ebp]
  0001e	51		 push	 ecx
  0001f	8b 55 08	 mov	 edx, DWORD PTR __New_ptr$[ebp]
  00022	52		 push	 edx
  00023	e8 00 00 00 00	 call	 ?copy@?$_Narrow_char_traits@DH@std@@SAPADQADQBDI@Z ; std::_Narrow_char_traits<char,int>::copy
  00028	83 c4 0c	 add	 esp, 12			; 0000000cH

; 2855 :                 _Traits::assign(_New_ptr[_Count], _Elem());

  0002b	c6 45 fb 00	 mov	 BYTE PTR $T1[ebp], 0
  0002f	8d 45 fb	 lea	 eax, DWORD PTR $T1[ebp]
  00032	50		 push	 eax
  00033	8b 4d 08	 mov	 ecx, DWORD PTR __New_ptr$[ebp]
  00036	03 4d 0c	 add	 ecx, DWORD PTR __Count$[ebp]
  00039	51		 push	 ecx
  0003a	e8 00 00 00 00	 call	 ?assign@?$_Narrow_char_traits@DH@std@@SAXAADABD@Z ; std::_Narrow_char_traits<char,int>::assign
  0003f	83 c4 08	 add	 esp, 8

; 2856 :             },

  00042	83 c4 08	 add	 esp, 8
  00045	3b ec		 cmp	 ebp, esp
  00047	e8 00 00 00 00	 call	 __RTC_CheckEsp
  0004c	8b e5		 mov	 esp, ebp
  0004e	5d		 pop	 ebp
  0004f	c2 0c 00	 ret	 12			; 0000000cH
??R<lambda_9366063389c5f42a00a5088cf24e69de>@@QBEXQADIQBD@Z ENDP ; <lambda_9366063389c5f42a00a5088cf24e69de>::operator()
_TEXT	ENDS
; Function compile flags: /Odtp /RTCsu
; File C:\Program Files (x86)\Microsoft Visual Studio\2019\Community\VC\Tools\MSVC\14.23.28105\include\xstddef
;	COMDAT ??$addressof@$$CBV?$_String_val@U?$_Simple_types@D@std@@@std@@@std@@YAPBV?$_String_val@U?$_Simple_types@D@std@@@0@ABV10@@Z
_TEXT	SEGMENT
__Val$ = 8						; size = 4
??$addressof@$$CBV?$_String_val@U?$_Simple_types@D@std@@@std@@@std@@YAPBV?$_String_val@U?$_Simple_types@D@std@@@0@ABV10@@Z PROC ; std::addressof<std::_String_val<std::_Simple_types<char> > const >, COMDAT

; 279  : _NODISCARD constexpr _Ty* addressof(_Ty& _Val) noexcept { // return address of _Val

  00000	55		 push	 ebp
  00001	8b ec		 mov	 ebp, esp

; 280  :     return __builtin_addressof(_Val);

  00003	8b 45 08	 mov	 eax, DWORD PTR __Val$[ebp]

; 281  : }

  00006	5d		 pop	 ebp
  00007	c3		 ret	 0
??$addressof@$$CBV?$_String_val@U?$_Simple_types@D@std@@@std@@@std@@YAPBV?$_String_val@U?$_Simple_types@D@std@@@0@ABV10@@Z ENDP ; std::addressof<std::_String_val<std::_Simple_types<char> > const >
_TEXT	ENDS
; Function compile flags: /Odtp /RTCsu
; File C:\Program Files (x86)\Microsoft Visual Studio\2019\Community\VC\Tools\MSVC\14.23.28105\include\utility
;	COMDAT ??$_Max_value@I@std@@YAABIABI0@Z
_TEXT	SEGMENT
tv65 = -8						; size = 4
$T1 = -4						; size = 4
__Left$ = 8						; size = 4
__Right$ = 12						; size = 4
??$_Max_value@I@std@@YAABIABI0@Z PROC			; std::_Max_value<unsigned int>, COMDAT

; 32   :     _NOEXCEPT_COND(noexcept(_Left < _Right)) { // return larger of _Left and _Right

  00000	55		 push	 ebp
  00001	8b ec		 mov	 ebp, esp
  00003	83 ec 08	 sub	 esp, 8
  00006	c7 45 f8 cc cc
	cc cc		 mov	 DWORD PTR [ebp-8], -858993460 ; ccccccccH
  0000d	c7 45 fc cc cc
	cc cc		 mov	 DWORD PTR [ebp-4], -858993460 ; ccccccccH

; 33   :     return _Left < _Right ? _Right : _Left;

  00014	8b 45 08	 mov	 eax, DWORD PTR __Left$[ebp]
  00017	8b 4d 0c	 mov	 ecx, DWORD PTR __Right$[ebp]
  0001a	8b 10		 mov	 edx, DWORD PTR [eax]
  0001c	3b 11		 cmp	 edx, DWORD PTR [ecx]
  0001e	73 08		 jae	 SHORT $LN3@Max_value
  00020	8b 45 0c	 mov	 eax, DWORD PTR __Right$[ebp]
  00023	89 45 f8	 mov	 DWORD PTR tv65[ebp], eax
  00026	eb 06		 jmp	 SHORT $LN4@Max_value
$LN3@Max_value:
  00028	8b 4d 08	 mov	 ecx, DWORD PTR __Left$[ebp]
  0002b	89 4d f8	 mov	 DWORD PTR tv65[ebp], ecx
$LN4@Max_value:
  0002e	8b 55 f8	 mov	 edx, DWORD PTR tv65[ebp]
  00031	89 55 fc	 mov	 DWORD PTR $T1[ebp], edx
  00034	8b 45 fc	 mov	 eax, DWORD PTR $T1[ebp]

; 34   : }

  00037	8b e5		 mov	 esp, ebp
  00039	5d		 pop	 ebp
  0003a	c3		 ret	 0
??$_Max_value@I@std@@YAABIABI0@Z ENDP			; std::_Max_value<unsigned int>
_TEXT	ENDS
; Function compile flags: /Odtp /RTCsu
; File C:\Program Files (x86)\Microsoft Visual Studio\2019\Community\VC\Tools\MSVC\14.23.28105\include\xmemory
;	COMDAT ??$_Destroy_in_place@PAD@std@@YAXAAPAD@Z
_TEXT	SEGMENT
__Obj$ = 8						; size = 4
??$_Destroy_in_place@PAD@std@@YAXAAPAD@Z PROC		; std::_Destroy_in_place<char *>, COMDAT

; 321  : void _Destroy_in_place(_Ty& _Obj) noexcept {

  00000	55		 push	 ebp
  00001	8b ec		 mov	 ebp, esp

; 322  :     _Obj.~_Ty();
; 323  : }

  00003	5d		 pop	 ebp
  00004	c3		 ret	 0
??$_Destroy_in_place@PAD@std@@YAXAAPAD@Z ENDP		; std::_Destroy_in_place<char *>
_TEXT	ENDS
; Function compile flags: /Odtp /RTCsu
; File C:\Program Files (x86)\Microsoft Visual Studio\2019\Community\VC\Tools\MSVC\14.23.28105\include\xmemory
;	COMDAT ??$_Construct_in_place@U_Container_proxy@std@@PAU_Container_base12@2@@std@@YAXAAU_Container_proxy@0@$$QAPAU_Container_base12@0@@Z
_TEXT	SEGMENT
$T1 = -4						; size = 4
__Obj$ = 8						; size = 4
_<_Args_0>$ = 12					; size = 4
??$_Construct_in_place@U_Container_proxy@std@@PAU_Container_base12@2@@std@@YAXAAU_Container_proxy@0@$$QAPAU_Container_base12@0@@Z PROC ; std::_Construct_in_place<std::_Container_proxy,std::_Container_base12 *>, COMDAT

; 198  : void _Construct_in_place(_Ty& _Obj, _Types&&... _Args) _NOEXCEPT_COND(is_nothrow_constructible_v<_Ty, _Types...>) {

  00000	55		 push	 ebp
  00001	8b ec		 mov	 ebp, esp
  00003	51		 push	 ecx
  00004	c7 45 fc cc cc
	cc cc		 mov	 DWORD PTR [ebp-4], -858993460 ; ccccccccH

; 199  :     ::new (const_cast<void*>(static_cast<const volatile void*>(_STD addressof(_Obj))))

  0000b	8b 45 08	 mov	 eax, DWORD PTR __Obj$[ebp]
  0000e	50		 push	 eax
  0000f	e8 00 00 00 00	 call	 ??$addressof@U_Container_proxy@std@@@std@@YAPAU_Container_proxy@0@AAU10@@Z ; std::addressof<std::_Container_proxy>
  00014	83 c4 04	 add	 esp, 4
  00017	50		 push	 eax
  00018	6a 08		 push	 8
  0001a	e8 00 00 00 00	 call	 ??2@YAPAXIPAX@Z		; operator new
  0001f	83 c4 08	 add	 esp, 8
  00022	89 45 fc	 mov	 DWORD PTR $T1[ebp], eax
  00025	8b 4d 0c	 mov	 ecx, DWORD PTR _<_Args_0>$[ebp]
  00028	51		 push	 ecx
  00029	e8 00 00 00 00	 call	 ??$forward@PAU_Container_base12@std@@@std@@YA$$QAPAU_Container_base12@0@AAPAU10@@Z ; std::forward<std::_Container_base12 *>
  0002e	83 c4 04	 add	 esp, 4
  00031	8b 10		 mov	 edx, DWORD PTR [eax]
  00033	52		 push	 edx
  00034	8b 4d fc	 mov	 ecx, DWORD PTR $T1[ebp]
  00037	e8 00 00 00 00	 call	 ??0_Container_proxy@std@@QAE@PAU_Container_base12@1@@Z ; std::_Container_proxy::_Container_proxy

; 200  :         _Ty(_STD forward<_Types>(_Args)...);
; 201  : }

  0003c	83 c4 04	 add	 esp, 4
  0003f	3b ec		 cmp	 ebp, esp
  00041	e8 00 00 00 00	 call	 __RTC_CheckEsp
  00046	8b e5		 mov	 esp, ebp
  00048	5d		 pop	 ebp
  00049	c3		 ret	 0
??$_Construct_in_place@U_Container_proxy@std@@PAU_Container_base12@2@@std@@YAXAAU_Container_proxy@0@$$QAPAU_Container_base12@0@@Z ENDP ; std::_Construct_in_place<std::_Container_proxy,std::_Container_base12 *>
_TEXT	ENDS
; Function compile flags: /Odtp /RTCsu
; File C:\Program Files (x86)\Microsoft Visual Studio\2019\Community\VC\Tools\MSVC\14.23.28105\include\xstddef
;	COMDAT ??$addressof@U_Container_base12@std@@@std@@YAPAU_Container_base12@0@AAU10@@Z
_TEXT	SEGMENT
__Val$ = 8						; size = 4
??$addressof@U_Container_base12@std@@@std@@YAPAU_Container_base12@0@AAU10@@Z PROC ; std::addressof<std::_Container_base12>, COMDAT

; 279  : _NODISCARD constexpr _Ty* addressof(_Ty& _Val) noexcept { // return address of _Val

  00000	55		 push	 ebp
  00001	8b ec		 mov	 ebp, esp

; 280  :     return __builtin_addressof(_Val);

  00003	8b 45 08	 mov	 eax, DWORD PTR __Val$[ebp]

; 281  : }

  00006	5d		 pop	 ebp
  00007	c3		 ret	 0
??$addressof@U_Container_base12@std@@@std@@YAPAU_Container_base12@0@AAU10@@Z ENDP ; std::addressof<std::_Container_base12>
_TEXT	ENDS
; Function compile flags: /Odtp /RTCsu
; File C:\Program Files (x86)\Microsoft Visual Studio\2019\Community\VC\Tools\MSVC\14.23.28105\include\xstddef
;	COMDAT ??$_Unfancy@U_Container_proxy@std@@@std@@YAPAU_Container_proxy@0@PAU10@@Z
_TEXT	SEGMENT
__Ptr$ = 8						; size = 4
??$_Unfancy@U_Container_proxy@std@@@std@@YAPAU_Container_proxy@0@PAU10@@Z PROC ; std::_Unfancy<std::_Container_proxy>, COMDAT

; 293  : _Ty* _Unfancy(_Ty* _Ptr) { // do nothing for plain pointers

  00000	55		 push	 ebp
  00001	8b ec		 mov	 ebp, esp

; 294  :     return _Ptr;

  00003	8b 45 08	 mov	 eax, DWORD PTR __Ptr$[ebp]

; 295  : }

  00006	5d		 pop	 ebp
  00007	c3		 ret	 0
??$_Unfancy@U_Container_proxy@std@@@std@@YAPAU_Container_proxy@0@PAU10@@Z ENDP ; std::_Unfancy<std::_Container_proxy>
_TEXT	ENDS
; Function compile flags: /Odtp /RTCsu
; File C:\Program Files (x86)\Microsoft Visual Studio\2019\Community\VC\Tools\MSVC\14.23.28105\include\xmemory
;	COMDAT ??$?0$$V@?$_Compressed_pair@V?$allocator@D@std@@V?$_String_val@U?$_Simple_types@D@std@@@2@$00@std@@QAE@U_Zero_then_variadic_args_t@1@@Z
_TEXT	SEGMENT
_this$ = -16						; size = 4
__$EHRec$ = -12						; size = 12
___formal$ = 8						; size = 1
??$?0$$V@?$_Compressed_pair@V?$allocator@D@std@@V?$_String_val@U?$_Simple_types@D@std@@@2@$00@std@@QAE@U_Zero_then_variadic_args_t@1@@Z PROC ; std::_Compressed_pair<std::allocator<char>,std::_String_val<std::_Simple_types<char> >,1>::_Compressed_pair<std::allocator<char>,std::_String_val<std::_Simple_types<char> >,1><>, COMDAT
; _this$ = ecx

; 1414 :         : _Ty1(), _Myval2(_STD forward<_Other2>(_Val2)...) {}

  00000	55		 push	 ebp
  00001	8b ec		 mov	 ebp, esp
  00003	6a ff		 push	 -1
  00005	68 00 00 00 00	 push	 __ehhandler$??$?0$$V@?$_Compressed_pair@V?$allocator@D@std@@V?$_String_val@U?$_Simple_types@D@std@@@2@$00@std@@QAE@U_Zero_then_variadic_args_t@1@@Z
  0000a	64 a1 00 00 00
	00		 mov	 eax, DWORD PTR fs:0
  00010	50		 push	 eax
  00011	51		 push	 ecx
  00012	c7 45 f0 cc cc
	cc cc		 mov	 DWORD PTR [ebp-16], -858993460 ; ccccccccH
  00019	a1 00 00 00 00	 mov	 eax, DWORD PTR ___security_cookie
  0001e	33 c5		 xor	 eax, ebp
  00020	50		 push	 eax
  00021	8d 45 f4	 lea	 eax, DWORD PTR __$EHRec$[ebp]
  00024	64 a3 00 00 00
	00		 mov	 DWORD PTR fs:0, eax
  0002a	89 4d f0	 mov	 DWORD PTR _this$[ebp], ecx
  0002d	8b 4d f0	 mov	 ecx, DWORD PTR _this$[ebp]
  00030	e8 00 00 00 00	 call	 ??0?$allocator@D@std@@QAE@XZ ; std::allocator<char>::allocator<char>
  00035	8b 4d f0	 mov	 ecx, DWORD PTR _this$[ebp]
  00038	e8 00 00 00 00	 call	 ??0?$_String_val@U?$_Simple_types@D@std@@@std@@QAE@XZ ; std::_String_val<std::_Simple_types<char> >::_String_val<std::_Simple_types<char> >
  0003d	c7 45 fc 00 00
	00 00		 mov	 DWORD PTR __$EHRec$[ebp+8], 0
  00044	c7 45 fc ff ff
	ff ff		 mov	 DWORD PTR __$EHRec$[ebp+8], -1
  0004b	8b 45 f0	 mov	 eax, DWORD PTR _this$[ebp]
  0004e	8b 4d f4	 mov	 ecx, DWORD PTR __$EHRec$[ebp]
  00051	64 89 0d 00 00
	00 00		 mov	 DWORD PTR fs:0, ecx
  00058	59		 pop	 ecx
  00059	83 c4 10	 add	 esp, 16			; 00000010H
  0005c	3b ec		 cmp	 ebp, esp
  0005e	e8 00 00 00 00	 call	 __RTC_CheckEsp
  00063	8b e5		 mov	 esp, ebp
  00065	5d		 pop	 ebp
  00066	c2 04 00	 ret	 4
_TEXT	ENDS
;	COMDAT text$x
text$x	SEGMENT
__unwindfunclet$??$?0$$V@?$_Compressed_pair@V?$allocator@D@std@@V?$_String_val@U?$_Simple_types@D@std@@@2@$00@std@@QAE@U_Zero_then_variadic_args_t@1@@Z$0:
  00000	8b 4d f0	 mov	 ecx, DWORD PTR _this$[ebp]
  00003	e9 00 00 00 00	 jmp	 ??1?$_String_val@U?$_Simple_types@D@std@@@std@@QAE@XZ
__ehhandler$??$?0$$V@?$_Compressed_pair@V?$allocator@D@std@@V?$_String_val@U?$_Simple_types@D@std@@@2@$00@std@@QAE@U_Zero_then_variadic_args_t@1@@Z:
  00008	8b 54 24 08	 mov	 edx, DWORD PTR [esp+8]
  0000c	8d 42 0c	 lea	 eax, DWORD PTR [edx+12]
  0000f	8b 4a f8	 mov	 ecx, DWORD PTR [edx-8]
  00012	33 c8		 xor	 ecx, eax
  00014	e8 00 00 00 00	 call	 @__security_check_cookie@4
  00019	b8 00 00 00 00	 mov	 eax, OFFSET __ehfuncinfo$??$?0$$V@?$_Compressed_pair@V?$allocator@D@std@@V?$_String_val@U?$_Simple_types@D@std@@@2@$00@std@@QAE@U_Zero_then_variadic_args_t@1@@Z
  0001e	e9 00 00 00 00	 jmp	 ___CxxFrameHandler3
text$x	ENDS
??$?0$$V@?$_Compressed_pair@V?$allocator@D@std@@V?$_String_val@U?$_Simple_types@D@std@@@2@$00@std@@QAE@U_Zero_then_variadic_args_t@1@@Z ENDP ; std::_Compressed_pair<std::allocator<char>,std::_String_val<std::_Simple_types<char> >,1>::_Compressed_pair<std::allocator<char>,std::_String_val<std::_Simple_types<char> >,1><>
; Function compile flags: /Odtp /RTCsu
; File C:\Program Files (x86)\Microsoft Visual Studio\2019\Community\VC\Tools\MSVC\14.23.28105\include\xmemory
;	COMDAT ??$?0V?$allocator@D@std@@$$V@?$_Compressed_pair@V?$allocator@D@std@@V?$_String_val@U?$_Simple_types@D@std@@@2@$00@std@@QAE@U_One_then_variadic_args_t@1@$$QAV?$allocator@D@1@@Z
_TEXT	SEGMENT
_this$ = -16						; size = 4
__$EHRec$ = -12						; size = 12
___formal$ = 8						; size = 1
__Val1$ = 12						; size = 4
??$?0V?$allocator@D@std@@$$V@?$_Compressed_pair@V?$allocator@D@std@@V?$_String_val@U?$_Simple_types@D@std@@@2@$00@std@@QAE@U_One_then_variadic_args_t@1@$$QAV?$allocator@D@1@@Z PROC ; std::_Compressed_pair<std::allocator<char>,std::_String_val<std::_Simple_types<char> >,1>::_Compressed_pair<std::allocator<char>,std::_String_val<std::_Simple_types<char> >,1><std::allocator<char> >, COMDAT
; _this$ = ecx

; 1418 :         : _Ty1(_STD forward<_Other1>(_Val1)), _Myval2(_STD forward<_Other2>(_Val2)...) {}

  00000	55		 push	 ebp
  00001	8b ec		 mov	 ebp, esp
  00003	6a ff		 push	 -1
  00005	68 00 00 00 00	 push	 __ehhandler$??$?0V?$allocator@D@std@@$$V@?$_Compressed_pair@V?$allocator@D@std@@V?$_String_val@U?$_Simple_types@D@std@@@2@$00@std@@QAE@U_One_then_variadic_args_t@1@$$QAV?$allocator@D@1@@Z
  0000a	64 a1 00 00 00
	00		 mov	 eax, DWORD PTR fs:0
  00010	50		 push	 eax
  00011	51		 push	 ecx
  00012	c7 45 f0 cc cc
	cc cc		 mov	 DWORD PTR [ebp-16], -858993460 ; ccccccccH
  00019	a1 00 00 00 00	 mov	 eax, DWORD PTR ___security_cookie
  0001e	33 c5		 xor	 eax, ebp
  00020	50		 push	 eax
  00021	8d 45 f4	 lea	 eax, DWORD PTR __$EHRec$[ebp]
  00024	64 a3 00 00 00
	00		 mov	 DWORD PTR fs:0, eax
  0002a	89 4d f0	 mov	 DWORD PTR _this$[ebp], ecx
  0002d	8b 45 0c	 mov	 eax, DWORD PTR __Val1$[ebp]
  00030	50		 push	 eax
  00031	e8 00 00 00 00	 call	 ??$forward@V?$allocator@D@std@@@std@@YA$$QAV?$allocator@D@0@AAV10@@Z ; std::forward<std::allocator<char> >
  00036	83 c4 04	 add	 esp, 4
  00039	8b 4d f0	 mov	 ecx, DWORD PTR _this$[ebp]
  0003c	e8 00 00 00 00	 call	 ??0?$_String_val@U?$_Simple_types@D@std@@@std@@QAE@XZ ; std::_String_val<std::_Simple_types<char> >::_String_val<std::_Simple_types<char> >
  00041	c7 45 fc 00 00
	00 00		 mov	 DWORD PTR __$EHRec$[ebp+8], 0
  00048	c7 45 fc ff ff
	ff ff		 mov	 DWORD PTR __$EHRec$[ebp+8], -1
  0004f	8b 45 f0	 mov	 eax, DWORD PTR _this$[ebp]
  00052	8b 4d f4	 mov	 ecx, DWORD PTR __$EHRec$[ebp]
  00055	64 89 0d 00 00
	00 00		 mov	 DWORD PTR fs:0, ecx
  0005c	59		 pop	 ecx
  0005d	83 c4 10	 add	 esp, 16			; 00000010H
  00060	3b ec		 cmp	 ebp, esp
  00062	e8 00 00 00 00	 call	 __RTC_CheckEsp
  00067	8b e5		 mov	 esp, ebp
  00069	5d		 pop	 ebp
  0006a	c2 08 00	 ret	 8
_TEXT	ENDS
;	COMDAT text$x
text$x	SEGMENT
__unwindfunclet$??$?0V?$allocator@D@std@@$$V@?$_Compressed_pair@V?$allocator@D@std@@V?$_String_val@U?$_Simple_types@D@std@@@2@$00@std@@QAE@U_One_then_variadic_args_t@1@$$QAV?$allocator@D@1@@Z$0:
  00000	8b 4d f0	 mov	 ecx, DWORD PTR _this$[ebp]
  00003	e9 00 00 00 00	 jmp	 ??1?$_String_val@U?$_Simple_types@D@std@@@std@@QAE@XZ
__ehhandler$??$?0V?$allocator@D@std@@$$V@?$_Compressed_pair@V?$allocator@D@std@@V?$_String_val@U?$_Simple_types@D@std@@@2@$00@std@@QAE@U_One_then_variadic_args_t@1@$$QAV?$allocator@D@1@@Z:
  00008	8b 54 24 08	 mov	 edx, DWORD PTR [esp+8]
  0000c	8d 42 0c	 lea	 eax, DWORD PTR [edx+12]
  0000f	8b 4a f8	 mov	 ecx, DWORD PTR [edx-8]
  00012	33 c8		 xor	 ecx, eax
  00014	e8 00 00 00 00	 call	 @__security_check_cookie@4
  00019	b8 00 00 00 00	 mov	 eax, OFFSET __ehfuncinfo$??$?0V?$allocator@D@std@@$$V@?$_Compressed_pair@V?$allocator@D@std@@V?$_String_val@U?$_Simple_types@D@std@@@2@$00@std@@QAE@U_One_then_variadic_args_t@1@$$QAV?$allocator@D@1@@Z
  0001e	e9 00 00 00 00	 jmp	 ___CxxFrameHandler3
text$x	ENDS
??$?0V?$allocator@D@std@@$$V@?$_Compressed_pair@V?$allocator@D@std@@V?$_String_val@U?$_Simple_types@D@std@@@2@$00@std@@QAE@U_One_then_variadic_args_t@1@$$QAV?$allocator@D@1@@Z ENDP ; std::_Compressed_pair<std::allocator<char>,std::_String_val<std::_Simple_types<char> >,1>::_Compressed_pair<std::allocator<char>,std::_String_val<std::_Simple_types<char> >,1><std::allocator<char> >
; Function compile flags: /Odtp /RTCsu
; File C:\Program Files (x86)\Microsoft Visual Studio\2019\Community\VC\Tools\MSVC\14.23.28105\include\type_traits
;	COMDAT ??$move@AAV?$allocator@D@std@@@std@@YA$$QAV?$allocator@D@0@AAV10@@Z
_TEXT	SEGMENT
__Arg$ = 8						; size = 4
??$move@AAV?$allocator@D@std@@@std@@YA$$QAV?$allocator@D@0@AAV10@@Z PROC ; std::move<std::allocator<char> &>, COMDAT

; 1432 : _NODISCARD constexpr remove_reference_t<_Ty>&& move(_Ty&& _Arg) noexcept { // forward _Arg as movable

  00000	55		 push	 ebp
  00001	8b ec		 mov	 ebp, esp

; 1433 :     return static_cast<remove_reference_t<_Ty>&&>(_Arg);

  00003	8b 45 08	 mov	 eax, DWORD PTR __Arg$[ebp]

; 1434 : }

  00006	5d		 pop	 ebp
  00007	c3		 ret	 0
??$move@AAV?$allocator@D@std@@@std@@YA$$QAV?$allocator@D@0@AAV10@@Z ENDP ; std::move<std::allocator<char> &>
_TEXT	ENDS
; Function compile flags: /Odtp /RTCsu
; File C:\Program Files (x86)\Microsoft Visual Studio\2019\Community\VC\Tools\MSVC\14.23.28105\include\xmemory
;	COMDAT ??$?0D@?$allocator@U_Container_proxy@std@@@std@@QAE@ABV?$allocator@D@1@@Z
_TEXT	SEGMENT
_this$ = -4						; size = 4
___formal$ = 8						; size = 4
??$?0D@?$allocator@U_Container_proxy@std@@@std@@QAE@ABV?$allocator@D@1@@Z PROC ; std::allocator<std::_Container_proxy>::allocator<std::_Container_proxy><char>, COMDAT
; _this$ = ecx

; 863  :     constexpr allocator(const allocator<_Other>&) noexcept {}

  00000	55		 push	 ebp
  00001	8b ec		 mov	 ebp, esp
  00003	51		 push	 ecx
  00004	c7 45 fc cc cc
	cc cc		 mov	 DWORD PTR [ebp-4], -858993460 ; ccccccccH
  0000b	89 4d fc	 mov	 DWORD PTR _this$[ebp], ecx
  0000e	8b 45 fc	 mov	 eax, DWORD PTR _this$[ebp]
  00011	8b e5		 mov	 esp, ebp
  00013	5d		 pop	 ebp
  00014	c2 04 00	 ret	 4
??$?0D@?$allocator@U_Container_proxy@std@@@std@@QAE@ABV?$allocator@D@1@@Z ENDP ; std::allocator<std::_Container_proxy>::allocator<std::_Container_proxy><char>
_TEXT	ENDS
; Function compile flags: /Odtp /RTCsu
; File C:\Program Files (x86)\Microsoft Visual Studio\2019\Community\VC\Tools\MSVC\14.23.28105\include\xstddef
;	COMDAT ??$addressof@V?$_String_val@U?$_Simple_types@D@std@@@std@@@std@@YAPAV?$_String_val@U?$_Simple_types@D@std@@@0@AAV10@@Z
_TEXT	SEGMENT
__Val$ = 8						; size = 4
??$addressof@V?$_String_val@U?$_Simple_types@D@std@@@std@@@std@@YAPAV?$_String_val@U?$_Simple_types@D@std@@@0@AAV10@@Z PROC ; std::addressof<std::_String_val<std::_Simple_types<char> > >, COMDAT

; 279  : _NODISCARD constexpr _Ty* addressof(_Ty& _Val) noexcept { // return address of _Val

  00000	55		 push	 ebp
  00001	8b ec		 mov	 ebp, esp

; 280  :     return __builtin_addressof(_Val);

  00003	8b 45 08	 mov	 eax, DWORD PTR __Val$[ebp]

; 281  : }

  00006	5d		 pop	 ebp
  00007	c3		 ret	 0
??$addressof@V?$_String_val@U?$_Simple_types@D@std@@@std@@@std@@YAPAV?$_String_val@U?$_Simple_types@D@std@@@0@AAV10@@Z ENDP ; std::addressof<std::_String_val<std::_Simple_types<char> > >
_TEXT	ENDS
; Function compile flags: /Odtp /RTCsu
; File C:\Program Files (x86)\Microsoft Visual Studio\2019\Community\VC\Tools\MSVC\14.23.28105\include\xstddef
;	COMDAT ??$_Unfancy@D@std@@YAPADPAD@Z
_TEXT	SEGMENT
__Ptr$ = 8						; size = 4
??$_Unfancy@D@std@@YAPADPAD@Z PROC			; std::_Unfancy<char>, COMDAT

; 293  : _Ty* _Unfancy(_Ty* _Ptr) { // do nothing for plain pointers

  00000	55		 push	 ebp
  00001	8b ec		 mov	 ebp, esp

; 294  :     return _Ptr;

  00003	8b 45 08	 mov	 eax, DWORD PTR __Ptr$[ebp]

; 295  : }

  00006	5d		 pop	 ebp
  00007	c3		 ret	 0
??$_Unfancy@D@std@@YAPADPAD@Z ENDP			; std::_Unfancy<char>
_TEXT	ENDS
; Function compile flags: /Odtp /RTCsu
; File C:\Program Files (x86)\Microsoft Visual Studio\2019\Community\VC\Tools\MSVC\14.23.28105\include\xmemory
;	COMDAT ??$_Alloc_proxy@V?$allocator@U_Container_proxy@std@@@std@@@_Container_base12@std@@QAEX$$QAV?$allocator@U_Container_proxy@std@@@1@@Z
_TEXT	SEGMENT
$T1 = -12						; size = 4
__New_proxy$ = -8					; size = 4
_this$ = -4						; size = 4
__Al$ = 8						; size = 4
??$_Alloc_proxy@V?$allocator@U_Container_proxy@std@@@std@@@_Container_base12@std@@QAEX$$QAV?$allocator@U_Container_proxy@std@@@1@@Z PROC ; std::_Container_base12::_Alloc_proxy<std::allocator<std::_Container_proxy> >, COMDAT
; _this$ = ecx

; 1184 :     void _Alloc_proxy(_Alloc&& _Al) {

  00000	55		 push	 ebp
  00001	8b ec		 mov	 ebp, esp
  00003	83 ec 0c	 sub	 esp, 12			; 0000000cH
  00006	c7 45 f4 cc cc
	cc cc		 mov	 DWORD PTR [ebp-12], -858993460 ; ccccccccH
  0000d	c7 45 f8 cc cc
	cc cc		 mov	 DWORD PTR [ebp-8], -858993460 ; ccccccccH
  00014	c7 45 fc cc cc
	cc cc		 mov	 DWORD PTR [ebp-4], -858993460 ; ccccccccH
  0001b	89 4d fc	 mov	 DWORD PTR _this$[ebp], ecx

; 1185 :         _Container_proxy* const _New_proxy = _Unfancy(_Al.allocate(1));

  0001e	6a 01		 push	 1
  00020	8b 4d 08	 mov	 ecx, DWORD PTR __Al$[ebp]
  00023	e8 00 00 00 00	 call	 ?allocate@?$allocator@U_Container_proxy@std@@@std@@QAEPAU_Container_proxy@2@I@Z ; std::allocator<std::_Container_proxy>::allocate
  00028	50		 push	 eax
  00029	e8 00 00 00 00	 call	 ??$_Unfancy@U_Container_proxy@std@@@std@@YAPAU_Container_proxy@0@PAU10@@Z ; std::_Unfancy<std::_Container_proxy>
  0002e	83 c4 04	 add	 esp, 4
  00031	89 45 f8	 mov	 DWORD PTR __New_proxy$[ebp], eax

; 1186 :         _Construct_in_place(*_New_proxy, this);

  00034	8b 45 fc	 mov	 eax, DWORD PTR _this$[ebp]
  00037	89 45 f4	 mov	 DWORD PTR $T1[ebp], eax
  0003a	8d 4d f4	 lea	 ecx, DWORD PTR $T1[ebp]
  0003d	51		 push	 ecx
  0003e	8b 55 f8	 mov	 edx, DWORD PTR __New_proxy$[ebp]
  00041	52		 push	 edx
  00042	e8 00 00 00 00	 call	 ??$_Construct_in_place@U_Container_proxy@std@@PAU_Container_base12@2@@std@@YAXAAU_Container_proxy@0@$$QAPAU_Container_base12@0@@Z ; std::_Construct_in_place<std::_Container_proxy,std::_Container_base12 *>
  00047	83 c4 08	 add	 esp, 8

; 1187 :         _Myproxy            = _New_proxy;

  0004a	8b 45 fc	 mov	 eax, DWORD PTR _this$[ebp]
  0004d	8b 4d f8	 mov	 ecx, DWORD PTR __New_proxy$[ebp]
  00050	89 08		 mov	 DWORD PTR [eax], ecx

; 1188 :         _New_proxy->_Mycont = this;

  00052	8b 55 f8	 mov	 edx, DWORD PTR __New_proxy$[ebp]
  00055	8b 45 fc	 mov	 eax, DWORD PTR _this$[ebp]
  00058	89 02		 mov	 DWORD PTR [edx], eax

; 1189 :     }

  0005a	83 c4 0c	 add	 esp, 12			; 0000000cH
  0005d	3b ec		 cmp	 ebp, esp
  0005f	e8 00 00 00 00	 call	 __RTC_CheckEsp
  00064	8b e5		 mov	 esp, ebp
  00066	5d		 pop	 ebp
  00067	c2 04 00	 ret	 4
??$_Alloc_proxy@V?$allocator@U_Container_proxy@std@@@std@@@_Container_base12@std@@QAEX$$QAV?$allocator@U_Container_proxy@std@@@1@@Z ENDP ; std::_Container_base12::_Alloc_proxy<std::allocator<std::_Container_proxy> >
_TEXT	ENDS
; Function compile flags: /Odtp /RTCsu
; File C:\Program Files (x86)\Microsoft Visual Studio\2019\Community\VC\Tools\MSVC\14.23.28105\include\xmemory
;	COMDAT ??1?$_Container_proxy_ptr12@V?$allocator@U_Container_proxy@std@@@std@@@std@@QAE@XZ
_TEXT	SEGMENT
_this$ = -4						; size = 4
??1?$_Container_proxy_ptr12@V?$allocator@U_Container_proxy@std@@@std@@@std@@QAE@XZ PROC ; std::_Container_proxy_ptr12<std::allocator<std::_Container_proxy> >::~_Container_proxy_ptr12<std::allocator<std::_Container_proxy> >, COMDAT
; _this$ = ecx

; 1382 :     ~_Container_proxy_ptr12() {

  00000	55		 push	 ebp
  00001	8b ec		 mov	 ebp, esp
  00003	51		 push	 ecx
  00004	c7 45 fc cc cc
	cc cc		 mov	 DWORD PTR [ebp-4], -858993460 ; ccccccccH
  0000b	89 4d fc	 mov	 DWORD PTR _this$[ebp], ecx

; 1383 :         if (_Ptr) {

  0000e	8b 45 fc	 mov	 eax, DWORD PTR _this$[ebp]
  00011	83 38 00	 cmp	 DWORD PTR [eax], 0
  00014	74 15		 je	 SHORT $LN1@Container_

; 1384 :             _Delete_plain_internal(_Al, _Ptr);

  00016	8b 4d fc	 mov	 ecx, DWORD PTR _this$[ebp]
  00019	8b 11		 mov	 edx, DWORD PTR [ecx]
  0001b	52		 push	 edx
  0001c	8b 45 fc	 mov	 eax, DWORD PTR _this$[ebp]
  0001f	8b 48 04	 mov	 ecx, DWORD PTR [eax+4]
  00022	51		 push	 ecx
  00023	e8 00 00 00 00	 call	 ??$_Delete_plain_internal@V?$allocator@U_Container_proxy@std@@@std@@@std@@YAXAAV?$allocator@U_Container_proxy@std@@@0@QAU_Container_proxy@0@@Z ; std::_Delete_plain_internal<std::allocator<std::_Container_proxy> >
  00028	83 c4 08	 add	 esp, 8
$LN1@Container_:

; 1385 :         }
; 1386 :     }

  0002b	83 c4 04	 add	 esp, 4
  0002e	3b ec		 cmp	 ebp, esp
  00030	e8 00 00 00 00	 call	 __RTC_CheckEsp
  00035	8b e5		 mov	 esp, ebp
  00037	5d		 pop	 ebp
  00038	c3		 ret	 0
??1?$_Container_proxy_ptr12@V?$allocator@U_Container_proxy@std@@@std@@@std@@QAE@XZ ENDP ; std::_Container_proxy_ptr12<std::allocator<std::_Container_proxy> >::~_Container_proxy_ptr12<std::allocator<std::_Container_proxy> >
_TEXT	ENDS
; Function compile flags: /Odtp /RTCsu
; File C:\Program Files (x86)\Microsoft Visual Studio\2019\Community\VC\Tools\MSVC\14.23.28105\include\xmemory
;	COMDAT ??0?$_Container_proxy_ptr12@V?$allocator@U_Container_proxy@std@@@std@@@std@@QAE@AAV?$allocator@U_Container_proxy@std@@@1@AAU_Container_base12@1@@Z
_TEXT	SEGMENT
$T1 = -8						; size = 4
_this$ = -4						; size = 4
__Al_$ = 8						; size = 4
__Mycont$ = 12						; size = 4
??0?$_Container_proxy_ptr12@V?$allocator@U_Container_proxy@std@@@std@@@std@@QAE@AAV?$allocator@U_Container_proxy@std@@@1@AAU_Container_base12@1@@Z PROC ; std::_Container_proxy_ptr12<std::allocator<std::_Container_proxy> >::_Container_proxy_ptr12<std::allocator<std::_Container_proxy> >, COMDAT
; _this$ = ecx

; 1368 :     _Container_proxy_ptr12(_Alloc& _Al_, _Container_base12& _Mycont)

  00000	55		 push	 ebp
  00001	8b ec		 mov	 ebp, esp
  00003	83 ec 08	 sub	 esp, 8
  00006	c7 45 f8 cc cc
	cc cc		 mov	 DWORD PTR [ebp-8], -858993460 ; ccccccccH
  0000d	c7 45 fc cc cc
	cc cc		 mov	 DWORD PTR [ebp-4], -858993460 ; ccccccccH
  00014	89 4d fc	 mov	 DWORD PTR _this$[ebp], ecx

; 1369 :         : _Al(_Al_) { // create a new _Container_proxy pointing at _Mycont

  00017	8b 45 fc	 mov	 eax, DWORD PTR _this$[ebp]
  0001a	8b 4d 08	 mov	 ecx, DWORD PTR __Al_$[ebp]
  0001d	89 48 04	 mov	 DWORD PTR [eax+4], ecx

; 1370 :         _Ptr = _Unfancy(_Al_.allocate(1));

  00020	6a 01		 push	 1
  00022	8b 4d 08	 mov	 ecx, DWORD PTR __Al_$[ebp]
  00025	e8 00 00 00 00	 call	 ?allocate@?$allocator@U_Container_proxy@std@@@std@@QAEPAU_Container_proxy@2@I@Z ; std::allocator<std::_Container_proxy>::allocate
  0002a	50		 push	 eax
  0002b	e8 00 00 00 00	 call	 ??$_Unfancy@U_Container_proxy@std@@@std@@YAPAU_Container_proxy@0@PAU10@@Z ; std::_Unfancy<std::_Container_proxy>
  00030	83 c4 04	 add	 esp, 4
  00033	8b 55 fc	 mov	 edx, DWORD PTR _this$[ebp]
  00036	89 02		 mov	 DWORD PTR [edx], eax

; 1371 :         _Construct_in_place(*_Ptr, _STD addressof(_Mycont));

  00038	8b 45 0c	 mov	 eax, DWORD PTR __Mycont$[ebp]
  0003b	50		 push	 eax
  0003c	e8 00 00 00 00	 call	 ??$addressof@U_Container_base12@std@@@std@@YAPAU_Container_base12@0@AAU10@@Z ; std::addressof<std::_Container_base12>
  00041	83 c4 04	 add	 esp, 4
  00044	89 45 f8	 mov	 DWORD PTR $T1[ebp], eax
  00047	8d 4d f8	 lea	 ecx, DWORD PTR $T1[ebp]
  0004a	51		 push	 ecx
  0004b	8b 55 fc	 mov	 edx, DWORD PTR _this$[ebp]
  0004e	8b 02		 mov	 eax, DWORD PTR [edx]
  00050	50		 push	 eax
  00051	e8 00 00 00 00	 call	 ??$_Construct_in_place@U_Container_proxy@std@@PAU_Container_base12@2@@std@@YAXAAU_Container_proxy@0@$$QAPAU_Container_base12@0@@Z ; std::_Construct_in_place<std::_Container_proxy,std::_Container_base12 *>
  00056	83 c4 08	 add	 esp, 8

; 1372 :         _Mycont._Myproxy = _Ptr;

  00059	8b 4d 0c	 mov	 ecx, DWORD PTR __Mycont$[ebp]
  0005c	8b 55 fc	 mov	 edx, DWORD PTR _this$[ebp]
  0005f	8b 02		 mov	 eax, DWORD PTR [edx]
  00061	89 01		 mov	 DWORD PTR [ecx], eax

; 1373 :     }

  00063	8b 45 fc	 mov	 eax, DWORD PTR _this$[ebp]
  00066	83 c4 08	 add	 esp, 8
  00069	3b ec		 cmp	 ebp, esp
  0006b	e8 00 00 00 00	 call	 __RTC_CheckEsp
  00070	8b e5		 mov	 esp, ebp
  00072	5d		 pop	 ebp
  00073	c2 08 00	 ret	 8
??0?$_Container_proxy_ptr12@V?$allocator@U_Container_proxy@std@@@std@@@std@@QAE@AAV?$allocator@U_Container_proxy@std@@@1@AAU_Container_base12@1@@Z ENDP ; std::_Container_proxy_ptr12<std::allocator<std::_Container_proxy> >::_Container_proxy_ptr12<std::allocator<std::_Container_proxy> >
_TEXT	ENDS
; Function compile flags: /Odtp /RTCsu
; File C:\Program Files (x86)\Microsoft Visual Studio\2019\Community\VC\Tools\MSVC\14.23.28105\include\xmemory
;	COMDAT ??$_Delete_plain_internal@V?$allocator@U_Container_proxy@std@@@std@@@std@@YAXAAV?$allocator@U_Container_proxy@std@@@0@QAU_Container_proxy@0@@Z
_TEXT	SEGMENT
__Al$ = 8						; size = 4
__Ptr$ = 12						; size = 4
??$_Delete_plain_internal@V?$allocator@U_Container_proxy@std@@@std@@@std@@YAXAAV?$allocator@U_Container_proxy@std@@@0@QAU_Container_proxy@0@@Z PROC ; std::_Delete_plain_internal<std::allocator<std::_Container_proxy> >, COMDAT

; 1109 : void _Delete_plain_internal(_Alloc& _Al, typename _Alloc::value_type* const _Ptr) noexcept {

  00000	55		 push	 ebp
  00001	8b ec		 mov	 ebp, esp

; 1110 :     // destroy *_Ptr in place, then deallocate _Ptr using _Al; used for internal container types the user didn't name
; 1111 :     using _Ty = typename _Alloc::value_type;
; 1112 :     _Ptr->~_Ty();
; 1113 :     _Deallocate_plain(_Al, _Ptr);

  00003	8b 45 0c	 mov	 eax, DWORD PTR __Ptr$[ebp]
  00006	50		 push	 eax
  00007	8b 4d 08	 mov	 ecx, DWORD PTR __Al$[ebp]
  0000a	51		 push	 ecx
  0000b	e8 00 00 00 00	 call	 ??$_Deallocate_plain@V?$allocator@U_Container_proxy@std@@@std@@@std@@YAXAAV?$allocator@U_Container_proxy@std@@@0@QAU_Container_proxy@0@@Z ; std::_Deallocate_plain<std::allocator<std::_Container_proxy> >
  00010	83 c4 08	 add	 esp, 8

; 1114 : }

  00013	3b ec		 cmp	 ebp, esp
  00015	e8 00 00 00 00	 call	 __RTC_CheckEsp
  0001a	5d		 pop	 ebp
  0001b	c3		 ret	 0
??$_Delete_plain_internal@V?$allocator@U_Container_proxy@std@@@std@@@std@@YAXAAV?$allocator@U_Container_proxy@std@@@0@QAU_Container_proxy@0@@Z ENDP ; std::_Delete_plain_internal<std::allocator<std::_Container_proxy> >
_TEXT	ENDS
; Function compile flags: /Odtp /RTCsu
; File C:\Program Files (x86)\Microsoft Visual Studio\2019\Community\VC\Tools\MSVC\14.23.28105\include\xmemory
;	COMDAT ?allocate@?$allocator@U_Container_proxy@std@@@std@@QAEPAU_Container_proxy@2@I@Z
_TEXT	SEGMENT
_this$ = -4						; size = 4
__Count$ = 8						; size = 4
?allocate@?$allocator@U_Container_proxy@std@@@std@@QAEPAU_Container_proxy@2@I@Z PROC ; std::allocator<std::_Container_proxy>::allocate, COMDAT
; _this$ = ecx

; 870  :     _NODISCARD _DECLSPEC_ALLOCATOR _Ty* allocate(_CRT_GUARDOVERFLOW const size_t _Count) {

  00000	55		 push	 ebp
  00001	8b ec		 mov	 ebp, esp
  00003	51		 push	 ecx
  00004	c7 45 fc cc cc
	cc cc		 mov	 DWORD PTR [ebp-4], -858993460 ; ccccccccH
  0000b	89 4d fc	 mov	 DWORD PTR _this$[ebp], ecx

; 871  :         return static_cast<_Ty*>(_Allocate<_New_alignof<_Ty>>(_Get_size_of_n<sizeof(_Ty)>(_Count)));

  0000e	8b 45 08	 mov	 eax, DWORD PTR __Count$[ebp]
  00011	50		 push	 eax
  00012	e8 00 00 00 00	 call	 ??$_Get_size_of_n@$07@std@@YAII@Z ; std::_Get_size_of_n<8>
  00017	83 c4 04	 add	 esp, 4
  0001a	50		 push	 eax
  0001b	e8 00 00 00 00	 call	 ??$_Allocate@$07U_Default_allocate_traits@std@@$0A@@std@@YAPAXI@Z ; std::_Allocate<8,std::_Default_allocate_traits,0>
  00020	83 c4 04	 add	 esp, 4

; 872  :     }

  00023	83 c4 04	 add	 esp, 4
  00026	3b ec		 cmp	 ebp, esp
  00028	e8 00 00 00 00	 call	 __RTC_CheckEsp
  0002d	8b e5		 mov	 esp, ebp
  0002f	5d		 pop	 ebp
  00030	c2 04 00	 ret	 4
?allocate@?$allocator@U_Container_proxy@std@@@std@@QAEPAU_Container_proxy@2@I@Z ENDP ; std::allocator<std::_Container_proxy>::allocate
_TEXT	ENDS
; Function compile flags: /Odtp /RTCsu
; File C:\Program Files (x86)\Microsoft Visual Studio\2019\Community\VC\Tools\MSVC\14.23.28105\include\utility
;	COMDAT ??$_Min_value@I@std@@YAABIABI0@Z
_TEXT	SEGMENT
tv65 = -8						; size = 4
$T1 = -4						; size = 4
__Left$ = 8						; size = 4
__Right$ = 12						; size = 4
??$_Min_value@I@std@@YAABIABI0@Z PROC			; std::_Min_value<unsigned int>, COMDAT

; 25   :     _NOEXCEPT_COND(noexcept(_Right < _Left)) { // return smaller of _Left and _Right

  00000	55		 push	 ebp
  00001	8b ec		 mov	 ebp, esp
  00003	83 ec 08	 sub	 esp, 8
  00006	c7 45 f8 cc cc
	cc cc		 mov	 DWORD PTR [ebp-8], -858993460 ; ccccccccH
  0000d	c7 45 fc cc cc
	cc cc		 mov	 DWORD PTR [ebp-4], -858993460 ; ccccccccH

; 26   :     return _Right < _Left ? _Right : _Left;

  00014	8b 45 0c	 mov	 eax, DWORD PTR __Right$[ebp]
  00017	8b 4d 08	 mov	 ecx, DWORD PTR __Left$[ebp]
  0001a	8b 10		 mov	 edx, DWORD PTR [eax]
  0001c	3b 11		 cmp	 edx, DWORD PTR [ecx]
  0001e	73 08		 jae	 SHORT $LN3@Min_value
  00020	8b 45 0c	 mov	 eax, DWORD PTR __Right$[ebp]
  00023	89 45 f8	 mov	 DWORD PTR tv65[ebp], eax
  00026	eb 06		 jmp	 SHORT $LN4@Min_value
$LN3@Min_value:
  00028	8b 4d 08	 mov	 ecx, DWORD PTR __Left$[ebp]
  0002b	89 4d f8	 mov	 DWORD PTR tv65[ebp], ecx
$LN4@Min_value:
  0002e	8b 55 f8	 mov	 edx, DWORD PTR tv65[ebp]
  00031	89 55 fc	 mov	 DWORD PTR $T1[ebp], edx
  00034	8b 45 fc	 mov	 eax, DWORD PTR $T1[ebp]

; 27   : }

  00037	8b e5		 mov	 esp, ebp
  00039	5d		 pop	 ebp
  0003a	c3		 ret	 0
??$_Min_value@I@std@@YAABIABI0@Z ENDP			; std::_Min_value<unsigned int>
_TEXT	ENDS
; Function compile flags: /Odtp /RTCsu
; File C:\Program Files (x86)\Microsoft Visual Studio\2019\Community\VC\Tools\MSVC\14.23.28105\include\type_traits
;	COMDAT ??$move@AAV?$basic_string@DU?$char_traits@D@std@@V?$allocator@D@2@@std@@@std@@YA$$QAV?$basic_string@DU?$char_traits@D@std@@V?$allocator@D@2@@0@AAV10@@Z
_TEXT	SEGMENT
__Arg$ = 8						; size = 4
??$move@AAV?$basic_string@DU?$char_traits@D@std@@V?$allocator@D@2@@std@@@std@@YA$$QAV?$basic_string@DU?$char_traits@D@std@@V?$allocator@D@2@@0@AAV10@@Z PROC ; std::move<std::basic_string<char,std::char_traits<char>,std::allocator<char> > &>, COMDAT

; 1432 : _NODISCARD constexpr remove_reference_t<_Ty>&& move(_Ty&& _Arg) noexcept { // forward _Arg as movable

  00000	55		 push	 ebp
  00001	8b ec		 mov	 ebp, esp

; 1433 :     return static_cast<remove_reference_t<_Ty>&&>(_Arg);

  00003	8b 45 08	 mov	 eax, DWORD PTR __Arg$[ebp]

; 1434 : }

  00006	5d		 pop	 ebp
  00007	c3		 ret	 0
??$move@AAV?$basic_string@DU?$char_traits@D@std@@V?$allocator@D@2@@std@@@std@@YA$$QAV?$basic_string@DU?$char_traits@D@std@@V?$allocator@D@2@@0@AAV10@@Z ENDP ; std::move<std::basic_string<char,std::char_traits<char>,std::allocator<char> > &>
_TEXT	ENDS
; Function compile flags: /Odtp /RTCsu
; File C:\Program Files (x86)\Microsoft Visual Studio\2019\Community\VC\Tools\MSVC\14.23.28105\include\vector
;	COMDAT ?_Unchecked_end@?$vector@PBDV?$allocator@PBD@std@@@std@@QBEPBQBDXZ
_TEXT	SEGMENT
_this$ = -4						; size = 4
?_Unchecked_end@?$vector@PBDV?$allocator@PBD@std@@@std@@QBEPBQBDXZ PROC ; std::vector<char const *,std::allocator<char const *> >::_Unchecked_end, COMDAT
; _this$ = ecx

; 1427 :     const_pointer _Unchecked_end() const noexcept { // return pointer for end of nonmutable sequence

  00000	55		 push	 ebp
  00001	8b ec		 mov	 ebp, esp
  00003	51		 push	 ecx
  00004	c7 45 fc cc cc
	cc cc		 mov	 DWORD PTR [ebp-4], -858993460 ; ccccccccH
  0000b	89 4d fc	 mov	 DWORD PTR _this$[ebp], ecx

; 1428 :         return _Mypair._Myval2._Mylast;

  0000e	8b 45 fc	 mov	 eax, DWORD PTR _this$[ebp]
  00011	8b 40 08	 mov	 eax, DWORD PTR [eax+8]

; 1429 :     }

  00014	8b e5		 mov	 esp, ebp
  00016	5d		 pop	 ebp
  00017	c3		 ret	 0
?_Unchecked_end@?$vector@PBDV?$allocator@PBD@std@@@std@@QBEPBQBDXZ ENDP ; std::vector<char const *,std::allocator<char const *> >::_Unchecked_end
_TEXT	ENDS
; Function compile flags: /Odtp /RTCsu
; File C:\Program Files (x86)\Microsoft Visual Studio\2019\Community\VC\Tools\MSVC\14.23.28105\include\vector
;	COMDAT ?_Unchecked_begin@?$vector@PBDV?$allocator@PBD@std@@@std@@QBEPBQBDXZ
_TEXT	SEGMENT
_this$ = -4						; size = 4
?_Unchecked_begin@?$vector@PBDV?$allocator@PBD@std@@@std@@QBEPBQBDXZ PROC ; std::vector<char const *,std::allocator<char const *> >::_Unchecked_begin, COMDAT
; _this$ = ecx

; 1419 :     const_pointer _Unchecked_begin() const noexcept { // return pointer for beginning of nonmutable sequence

  00000	55		 push	 ebp
  00001	8b ec		 mov	 ebp, esp
  00003	51		 push	 ecx
  00004	c7 45 fc cc cc
	cc cc		 mov	 DWORD PTR [ebp-4], -858993460 ; ccccccccH
  0000b	89 4d fc	 mov	 DWORD PTR _this$[ebp], ecx

; 1420 :         return _Mypair._Myval2._Myfirst;

  0000e	8b 45 fc	 mov	 eax, DWORD PTR _this$[ebp]
  00011	8b 40 04	 mov	 eax, DWORD PTR [eax+4]

; 1421 :     }

  00014	8b e5		 mov	 esp, ebp
  00016	5d		 pop	 ebp
  00017	c3		 ret	 0
?_Unchecked_begin@?$vector@PBDV?$allocator@PBD@std@@@std@@QBEPBQBDXZ ENDP ; std::vector<char const *,std::allocator<char const *> >::_Unchecked_begin
_TEXT	ENDS
; Function compile flags: /Odtp /RTCsu
; File C:\Program Files (x86)\Microsoft Visual Studio\2019\Community\VC\Tools\MSVC\14.23.28105\include\xstring
;	COMDAT ??$?HDU?$char_traits@D@std@@V?$allocator@D@1@@std@@YA?AV?$basic_string@DU?$char_traits@D@std@@V?$allocator@D@2@@0@$$QAV10@QBD@Z
_TEXT	SEGMENT
$T2 = -16						; size = 4
__$EHRec$ = -12						; size = 12
___$ReturnUdt$ = 8					; size = 4
__Left$ = 12						; size = 4
__Right$ = 16						; size = 4
??$?HDU?$char_traits@D@std@@V?$allocator@D@1@@std@@YA?AV?$basic_string@DU?$char_traits@D@std@@V?$allocator@D@2@@0@$$QAV10@QBD@Z PROC ; std::operator+<char,std::char_traits<char>,std::allocator<char> >, COMDAT

; 4321 :     _In_z_ const _Elem* const _Right) { // return string + NTCTS

  00000	55		 push	 ebp
  00001	8b ec		 mov	 ebp, esp
  00003	6a ff		 push	 -1
  00005	68 00 00 00 00	 push	 __ehhandler$??$?HDU?$char_traits@D@std@@V?$allocator@D@1@@std@@YA?AV?$basic_string@DU?$char_traits@D@std@@V?$allocator@D@2@@0@$$QAV10@QBD@Z
  0000a	64 a1 00 00 00
	00		 mov	 eax, DWORD PTR fs:0
  00010	50		 push	 eax
  00011	51		 push	 ecx
  00012	c7 45 f0 cc cc
	cc cc		 mov	 DWORD PTR [ebp-16], -858993460 ; ccccccccH
  00019	a1 00 00 00 00	 mov	 eax, DWORD PTR ___security_cookie
  0001e	33 c5		 xor	 eax, ebp
  00020	50		 push	 eax
  00021	8d 45 f4	 lea	 eax, DWORD PTR __$EHRec$[ebp]
  00024	64 a3 00 00 00
	00		 mov	 DWORD PTR fs:0, eax
  0002a	c7 45 f0 00 00
	00 00		 mov	 DWORD PTR $T2[ebp], 0

; 4322 :     return _STD move(_Left.append(_Right));

  00031	8b 45 10	 mov	 eax, DWORD PTR __Right$[ebp]
  00034	50		 push	 eax
  00035	8b 4d 0c	 mov	 ecx, DWORD PTR __Left$[ebp]
  00038	e8 00 00 00 00	 call	 ?append@?$basic_string@DU?$char_traits@D@std@@V?$allocator@D@2@@std@@QAEAAV12@QBD@Z ; std::basic_string<char,std::char_traits<char>,std::allocator<char> >::append
  0003d	50		 push	 eax
  0003e	e8 00 00 00 00	 call	 ??$move@AAV?$basic_string@DU?$char_traits@D@std@@V?$allocator@D@2@@std@@@std@@YA$$QAV?$basic_string@DU?$char_traits@D@std@@V?$allocator@D@2@@0@AAV10@@Z ; std::move<std::basic_string<char,std::char_traits<char>,std::allocator<char> > &>
  00043	83 c4 04	 add	 esp, 4
  00046	50		 push	 eax
  00047	8b 4d 08	 mov	 ecx, DWORD PTR ___$ReturnUdt$[ebp]
  0004a	e8 00 00 00 00	 call	 ??0?$basic_string@DU?$char_traits@D@std@@V?$allocator@D@2@@std@@QAE@$$QAV01@@Z ; std::basic_string<char,std::char_traits<char>,std::allocator<char> >::basic_string<char,std::char_traits<char>,std::allocator<char> >
  0004f	c7 45 fc 00 00
	00 00		 mov	 DWORD PTR __$EHRec$[ebp+8], 0
  00056	8b 4d f0	 mov	 ecx, DWORD PTR $T2[ebp]
  00059	83 c9 01	 or	 ecx, 1
  0005c	89 4d f0	 mov	 DWORD PTR $T2[ebp], ecx
  0005f	8b 45 08	 mov	 eax, DWORD PTR ___$ReturnUdt$[ebp]

; 4323 : }

  00062	8b 4d f4	 mov	 ecx, DWORD PTR __$EHRec$[ebp]
  00065	64 89 0d 00 00
	00 00		 mov	 DWORD PTR fs:0, ecx
  0006c	59		 pop	 ecx
  0006d	83 c4 10	 add	 esp, 16			; 00000010H
  00070	3b ec		 cmp	 ebp, esp
  00072	e8 00 00 00 00	 call	 __RTC_CheckEsp
  00077	8b e5		 mov	 esp, ebp
  00079	5d		 pop	 ebp
  0007a	c3		 ret	 0
_TEXT	ENDS
;	COMDAT text$x
text$x	SEGMENT
__unwindfunclet$??$?HDU?$char_traits@D@std@@V?$allocator@D@1@@std@@YA?AV?$basic_string@DU?$char_traits@D@std@@V?$allocator@D@2@@0@$$QAV10@QBD@Z$0:
  00000	8b 45 f0	 mov	 eax, DWORD PTR $T2[ebp]
  00003	83 e0 01	 and	 eax, 1
  00006	0f 84 0c 00 00
	00		 je	 $LN4@operator
  0000c	83 65 f0 fe	 and	 DWORD PTR $T2[ebp], -2	; fffffffeH
  00010	8b 4d 08	 mov	 ecx, DWORD PTR ___$ReturnUdt$[ebp]
  00013	e9 00 00 00 00	 jmp	 ??1?$basic_string@DU?$char_traits@D@std@@V?$allocator@D@2@@std@@QAE@XZ ; std::basic_string<char,std::char_traits<char>,std::allocator<char> >::~basic_string<char,std::char_traits<char>,std::allocator<char> >
$LN4@operator:
  00018	c3		 ret	 0
__ehhandler$??$?HDU?$char_traits@D@std@@V?$allocator@D@1@@std@@YA?AV?$basic_string@DU?$char_traits@D@std@@V?$allocator@D@2@@0@$$QAV10@QBD@Z:
  00019	8b 54 24 08	 mov	 edx, DWORD PTR [esp+8]
  0001d	8d 42 0c	 lea	 eax, DWORD PTR [edx+12]
  00020	8b 4a f8	 mov	 ecx, DWORD PTR [edx-8]
  00023	33 c8		 xor	 ecx, eax
  00025	e8 00 00 00 00	 call	 @__security_check_cookie@4
  0002a	b8 00 00 00 00	 mov	 eax, OFFSET __ehfuncinfo$??$?HDU?$char_traits@D@std@@V?$allocator@D@1@@std@@YA?AV?$basic_string@DU?$char_traits@D@std@@V?$allocator@D@2@@0@$$QAV10@QBD@Z
  0002f	e9 00 00 00 00	 jmp	 ___CxxFrameHandler3
text$x	ENDS
??$?HDU?$char_traits@D@std@@V?$allocator@D@1@@std@@YA?AV?$basic_string@DU?$char_traits@D@std@@V?$allocator@D@2@@0@$$QAV10@QBD@Z ENDP ; std::operator+<char,std::char_traits<char>,std::allocator<char> >
; Function compile flags: /Odtp /RTCsu
; File D:\work\intel\intel_codec\QSVPipeline\rgy_util.h
;	COMDAT ??__ECspColorprimList@@YAXXZ
text$di	SEGMENT
$T1 = -148						; size = 48
$T2 = -100						; size = 4
$T3 = -96						; size = 4
$T4 = -92						; size = 4
$T5 = -88						; size = 4
$T6 = -84						; size = 4
$T7 = -80						; size = 4
$T8 = -76						; size = 4
$T9 = -72						; size = 4
$T10 = -68						; size = 4
$T11 = -64						; size = 4
$T12 = -60						; size = 4
$T13 = -56						; size = 4
$T14 = -52						; size = 48
__$ArrayPad$ = -4					; size = 4
??__ECspColorprimList@@YAXXZ PROC			; `dynamic initializer for 'CspColorprimList'', COMDAT

; 1187 : );

  00000	55		 push	 ebp
  00001	8b ec		 mov	 ebp, esp
  00003	81 ec 94 00 00
	00		 sub	 esp, 148		; 00000094H
  00009	56		 push	 esi
  0000a	57		 push	 edi
  0000b	8d bd 6c ff ff
	ff		 lea	 edi, DWORD PTR [ebp-148]
  00011	b9 25 00 00 00	 mov	 ecx, 37			; 00000025H
  00016	b8 cc cc cc cc	 mov	 eax, -858993460		; ccccccccH
  0001b	f3 ab		 rep stosd
  0001d	a1 00 00 00 00	 mov	 eax, DWORD PTR ___security_cookie
  00022	33 c5		 xor	 eax, ebp
  00024	89 45 fc	 mov	 DWORD PTR __$ArrayPad$[ebp], eax

; 1174 : static const auto CspColorprimList = make_array<CspColorprim>(

  00027	c7 45 c8 0d 00
	00 00		 mov	 DWORD PTR $T13[ebp], 13	; 0000000dH
  0002e	c7 45 c4 0c 00
	00 00		 mov	 DWORD PTR $T12[ebp], 12	; 0000000cH
  00035	c7 45 c0 0b 00
	00 00		 mov	 DWORD PTR $T11[ebp], 11	; 0000000bH
  0003c	c7 45 bc 0a 00
	00 00		 mov	 DWORD PTR $T10[ebp], 10	; 0000000aH
  00043	c7 45 b8 09 00
	00 00		 mov	 DWORD PTR $T9[ebp], 9
  0004a	c7 45 b4 08 00
	00 00		 mov	 DWORD PTR $T8[ebp], 8
  00051	c7 45 b0 07 00
	00 00		 mov	 DWORD PTR $T7[ebp], 7
  00058	c7 45 ac 06 00
	00 00		 mov	 DWORD PTR $T6[ebp], 6
  0005f	c7 45 a8 05 00
	00 00		 mov	 DWORD PTR $T5[ebp], 5
  00066	c7 45 a4 04 00
	00 00		 mov	 DWORD PTR $T4[ebp], 4
  0006d	c7 45 a0 02 00
	00 00		 mov	 DWORD PTR $T3[ebp], 2
  00074	c7 45 9c 01 00
	00 00		 mov	 DWORD PTR $T2[ebp], 1
  0007b	8d 45 c8	 lea	 eax, DWORD PTR $T13[ebp]
  0007e	50		 push	 eax
  0007f	8d 4d c4	 lea	 ecx, DWORD PTR $T12[ebp]
  00082	51		 push	 ecx
  00083	8d 55 c0	 lea	 edx, DWORD PTR $T11[ebp]
  00086	52		 push	 edx
  00087	8d 45 bc	 lea	 eax, DWORD PTR $T10[ebp]
  0008a	50		 push	 eax
  0008b	8d 4d b8	 lea	 ecx, DWORD PTR $T9[ebp]
  0008e	51		 push	 ecx
  0008f	8d 55 b4	 lea	 edx, DWORD PTR $T8[ebp]
  00092	52		 push	 edx
  00093	8d 45 b0	 lea	 eax, DWORD PTR $T7[ebp]
  00096	50		 push	 eax
  00097	8d 4d ac	 lea	 ecx, DWORD PTR $T6[ebp]
  0009a	51		 push	 ecx
  0009b	8d 55 a8	 lea	 edx, DWORD PTR $T5[ebp]
  0009e	52		 push	 edx
  0009f	8d 45 a4	 lea	 eax, DWORD PTR $T4[ebp]
  000a2	50		 push	 eax
  000a3	8d 4d a0	 lea	 ecx, DWORD PTR $T3[ebp]
  000a6	51		 push	 ecx
  000a7	8d 55 9c	 lea	 edx, DWORD PTR $T2[ebp]
  000aa	52		 push	 edx
  000ab	8d 85 6c ff ff
	ff		 lea	 eax, DWORD PTR $T1[ebp]
  000b1	50		 push	 eax
  000b2	e8 00 00 00 00	 call	 ??$make_array@W4CspColorprim@@W41@W41@W41@W41@W41@W41@W41@W41@W41@W41@W41@W41@@@YA?AV?$array@W4CspColorprim@@$0M@@std@@$$QAW4CspColorprim@@00000000000@Z ; make_array<enum CspColorprim,enum CspColorprim,enum CspColorprim,enum CspColorprim,enum CspColorprim,enum CspColorprim,enum CspColorprim,enum CspColorprim,enum CspColorprim,enum CspColorprim,enum CspColorprim,enum CspColorprim,enum CspColorprim>
  000b7	83 c4 34	 add	 esp, 52			; 00000034H
  000ba	b9 0c 00 00 00	 mov	 ecx, 12			; 0000000cH
  000bf	8b f0		 mov	 esi, eax
  000c1	8d 7d cc	 lea	 edi, DWORD PTR $T14[ebp]
  000c4	f3 a5		 rep movsd
  000c6	b9 0c 00 00 00	 mov	 ecx, 12			; 0000000cH
  000cb	8d 75 cc	 lea	 esi, DWORD PTR $T14[ebp]
  000ce	bf 00 00 00 00	 mov	 edi, OFFSET ?CspColorprimList@@3V?$array@W4CspColorprim@@$0M@@std@@B
  000d3	f3 a5		 rep movsd
  000d5	5f		 pop	 edi
  000d6	5e		 pop	 esi
  000d7	8b 4d fc	 mov	 ecx, DWORD PTR __$ArrayPad$[ebp]
  000da	33 cd		 xor	 ecx, ebp
  000dc	e8 00 00 00 00	 call	 @__security_check_cookie@4
  000e1	81 c4 94 00 00
	00		 add	 esp, 148		; 00000094H
  000e7	3b ec		 cmp	 ebp, esp
  000e9	e8 00 00 00 00	 call	 __RTC_CheckEsp
  000ee	8b e5		 mov	 esp, ebp
  000f0	5d		 pop	 ebp
  000f1	c3		 ret	 0
??__ECspColorprimList@@YAXXZ ENDP			; `dynamic initializer for 'CspColorprimList''
text$di	ENDS
; Function compile flags: /Odtp /RTCsu
; File D:\work\intel\intel_codec\QSVPipeline\rgy_util.h
;	COMDAT ??$make_array@W4CspColorprim@@W41@W41@W41@W41@W41@W41@W41@W41@W41@W41@W41@W41@@@YA?AV?$array@W4CspColorprim@@$0M@@std@@$$QAW4CspColorprim@@00000000000@Z
_TEXT	SEGMENT
$T1 = -52						; size = 48
__$ArrayPad$ = -4					; size = 4
$T2 = 8							; size = 4
_<args_0>$ = 12						; size = 4
_<args_1>$ = 16						; size = 4
_<args_2>$ = 20						; size = 4
_<args_3>$ = 24						; size = 4
_<args_4>$ = 28						; size = 4
_<args_5>$ = 32						; size = 4
_<args_6>$ = 36						; size = 4
_<args_7>$ = 40						; size = 4
_<args_8>$ = 44						; size = 4
_<args_9>$ = 48						; size = 4
_<args_10>$ = 52					; size = 4
_<args_11>$ = 56					; size = 4
??$make_array@W4CspColorprim@@W41@W41@W41@W41@W41@W41@W41@W41@W41@W41@W41@W41@@@YA?AV?$array@W4CspColorprim@@$0M@@std@@$$QAW4CspColorprim@@00000000000@Z PROC ; make_array<enum CspColorprim,enum CspColorprim,enum CspColorprim,enum CspColorprim,enum CspColorprim,enum CspColorprim,enum CspColorprim,enum CspColorprim,enum CspColorprim,enum CspColorprim,enum CspColorprim,enum CspColorprim,enum CspColorprim>, COMDAT

; 129  : constexpr std::array<T, sizeof...(Args)> make_array(Args&&... args) {

  00000	55		 push	 ebp
  00001	8b ec		 mov	 ebp, esp
  00003	83 ec 34	 sub	 esp, 52			; 00000034H
  00006	56		 push	 esi
  00007	57		 push	 edi
  00008	8d 7d cc	 lea	 edi, DWORD PTR [ebp-52]
  0000b	b9 0d 00 00 00	 mov	 ecx, 13			; 0000000dH
  00010	b8 cc cc cc cc	 mov	 eax, -858993460		; ccccccccH
  00015	f3 ab		 rep stosd
  00017	a1 00 00 00 00	 mov	 eax, DWORD PTR ___security_cookie
  0001c	33 c5		 xor	 eax, ebp
  0001e	89 45 fc	 mov	 DWORD PTR __$ArrayPad$[ebp], eax

; 130  :     return std::array<T, sizeof...(Args)>{ static_cast<Args&&>(args)... };

  00021	8b 45 0c	 mov	 eax, DWORD PTR _<args_0>$[ebp]
  00024	8b 08		 mov	 ecx, DWORD PTR [eax]
  00026	89 4d cc	 mov	 DWORD PTR $T1[ebp], ecx
  00029	8b 55 10	 mov	 edx, DWORD PTR _<args_1>$[ebp]
  0002c	8b 02		 mov	 eax, DWORD PTR [edx]
  0002e	89 45 d0	 mov	 DWORD PTR $T1[ebp+4], eax
  00031	8b 4d 14	 mov	 ecx, DWORD PTR _<args_2>$[ebp]
  00034	8b 11		 mov	 edx, DWORD PTR [ecx]
  00036	89 55 d4	 mov	 DWORD PTR $T1[ebp+8], edx
  00039	8b 45 18	 mov	 eax, DWORD PTR _<args_3>$[ebp]
  0003c	8b 08		 mov	 ecx, DWORD PTR [eax]
  0003e	89 4d d8	 mov	 DWORD PTR $T1[ebp+12], ecx
  00041	8b 55 1c	 mov	 edx, DWORD PTR _<args_4>$[ebp]
  00044	8b 02		 mov	 eax, DWORD PTR [edx]
  00046	89 45 dc	 mov	 DWORD PTR $T1[ebp+16], eax
  00049	8b 4d 20	 mov	 ecx, DWORD PTR _<args_5>$[ebp]
  0004c	8b 11		 mov	 edx, DWORD PTR [ecx]
  0004e	89 55 e0	 mov	 DWORD PTR $T1[ebp+20], edx
  00051	8b 45 24	 mov	 eax, DWORD PTR _<args_6>$[ebp]
  00054	8b 08		 mov	 ecx, DWORD PTR [eax]
  00056	89 4d e4	 mov	 DWORD PTR $T1[ebp+24], ecx
  00059	8b 55 28	 mov	 edx, DWORD PTR _<args_7>$[ebp]
  0005c	8b 02		 mov	 eax, DWORD PTR [edx]
  0005e	89 45 e8	 mov	 DWORD PTR $T1[ebp+28], eax
  00061	8b 4d 2c	 mov	 ecx, DWORD PTR _<args_8>$[ebp]
  00064	8b 11		 mov	 edx, DWORD PTR [ecx]
  00066	89 55 ec	 mov	 DWORD PTR $T1[ebp+32], edx
  00069	8b 45 30	 mov	 eax, DWORD PTR _<args_9>$[ebp]
  0006c	8b 08		 mov	 ecx, DWORD PTR [eax]
  0006e	89 4d f0	 mov	 DWORD PTR $T1[ebp+36], ecx
  00071	8b 55 34	 mov	 edx, DWORD PTR _<args_10>$[ebp]
  00074	8b 02		 mov	 eax, DWORD PTR [edx]
  00076	89 45 f4	 mov	 DWORD PTR $T1[ebp+40], eax
  00079	8b 4d 38	 mov	 ecx, DWORD PTR _<args_11>$[ebp]
  0007c	8b 11		 mov	 edx, DWORD PTR [ecx]
  0007e	89 55 f8	 mov	 DWORD PTR $T1[ebp+44], edx
  00081	b9 0c 00 00 00	 mov	 ecx, 12			; 0000000cH
  00086	8d 75 cc	 lea	 esi, DWORD PTR $T1[ebp]
  00089	8b 7d 08	 mov	 edi, DWORD PTR $T2[ebp]
  0008c	f3 a5		 rep movsd
  0008e	8b 45 08	 mov	 eax, DWORD PTR $T2[ebp]

; 131  : }

  00091	5f		 pop	 edi
  00092	5e		 pop	 esi
  00093	8b 4d fc	 mov	 ecx, DWORD PTR __$ArrayPad$[ebp]
  00096	33 cd		 xor	 ecx, ebp
  00098	e8 00 00 00 00	 call	 @__security_check_cookie@4
  0009d	8b e5		 mov	 esp, ebp
  0009f	5d		 pop	 ebp
  000a0	c3		 ret	 0
??$make_array@W4CspColorprim@@W41@W41@W41@W41@W41@W41@W41@W41@W41@W41@W41@W41@@@YA?AV?$array@W4CspColorprim@@$0M@@std@@$$QAW4CspColorprim@@00000000000@Z ENDP ; make_array<enum CspColorprim,enum CspColorprim,enum CspColorprim,enum CspColorprim,enum CspColorprim,enum CspColorprim,enum CspColorprim,enum CspColorprim,enum CspColorprim,enum CspColorprim,enum CspColorprim,enum CspColorprim,enum CspColorprim>
_TEXT	ENDS
; Function compile flags: /Odtp /RTCsu
; File D:\work\intel\intel_codec\QSVPipeline\rgy_util.h
;	COMDAT ??__ECspTransferList@@YAXXZ
text$di	SEGMENT
$T1 = -184						; size = 60
$T2 = -124						; size = 4
$T3 = -120						; size = 4
$T4 = -116						; size = 4
$T5 = -112						; size = 4
$T6 = -108						; size = 4
$T7 = -104						; size = 4
$T8 = -100						; size = 4
$T9 = -96						; size = 4
$T10 = -92						; size = 4
$T11 = -88						; size = 4
$T12 = -84						; size = 4
$T13 = -80						; size = 4
$T14 = -76						; size = 4
$T15 = -72						; size = 4
$T16 = -68						; size = 4
$T17 = -64						; size = 60
__$ArrayPad$ = -4					; size = 4
??__ECspTransferList@@YAXXZ PROC			; `dynamic initializer for 'CspTransferList'', COMDAT

; 1135 : );

  00000	55		 push	 ebp
  00001	8b ec		 mov	 ebp, esp
  00003	81 ec b8 00 00
	00		 sub	 esp, 184		; 000000b8H
  00009	56		 push	 esi
  0000a	57		 push	 edi
  0000b	8d bd 48 ff ff
	ff		 lea	 edi, DWORD PTR [ebp-184]
  00011	b9 2e 00 00 00	 mov	 ecx, 46			; 0000002eH
  00016	b8 cc cc cc cc	 mov	 eax, -858993460		; ccccccccH
  0001b	f3 ab		 rep stosd
  0001d	a1 00 00 00 00	 mov	 eax, DWORD PTR ___security_cookie
  00022	33 c5		 xor	 eax, ebp
  00024	89 45 fc	 mov	 DWORD PTR __$ArrayPad$[ebp], eax

; 1119 : static const auto CspTransferList = make_array<CspTransfer>(

  00027	c7 45 bc 12 00
	00 00		 mov	 DWORD PTR $T16[ebp], 18	; 00000012H
  0002e	c7 45 b8 10 00
	00 00		 mov	 DWORD PTR $T15[ebp], 16	; 00000010H
  00035	c7 45 b4 0f 00
	00 00		 mov	 DWORD PTR $T14[ebp], 15	; 0000000fH
  0003c	c7 45 b0 0e 00
	00 00		 mov	 DWORD PTR $T13[ebp], 14	; 0000000eH
  00043	c7 45 ac 0d 00
	00 00		 mov	 DWORD PTR $T12[ebp], 13	; 0000000dH
  0004a	c7 45 a8 0b 00
	00 00		 mov	 DWORD PTR $T11[ebp], 11	; 0000000bH
  00051	c7 45 a4 0a 00
	00 00		 mov	 DWORD PTR $T10[ebp], 10	; 0000000aH
  00058	c7 45 a0 09 00
	00 00		 mov	 DWORD PTR $T9[ebp], 9
  0005f	c7 45 9c 08 00
	00 00		 mov	 DWORD PTR $T8[ebp], 8
  00066	c7 45 98 07 00
	00 00		 mov	 DWORD PTR $T7[ebp], 7
  0006d	c7 45 94 06 00
	00 00		 mov	 DWORD PTR $T6[ebp], 6
  00074	c7 45 90 05 00
	00 00		 mov	 DWORD PTR $T5[ebp], 5
  0007b	c7 45 8c 04 00
	00 00		 mov	 DWORD PTR $T4[ebp], 4
  00082	c7 45 88 02 00
	00 00		 mov	 DWORD PTR $T3[ebp], 2
  00089	c7 45 84 01 00
	00 00		 mov	 DWORD PTR $T2[ebp], 1
  00090	8d 45 bc	 lea	 eax, DWORD PTR $T16[ebp]
  00093	50		 push	 eax
  00094	8d 4d b8	 lea	 ecx, DWORD PTR $T15[ebp]
  00097	51		 push	 ecx
  00098	8d 55 b4	 lea	 edx, DWORD PTR $T14[ebp]
  0009b	52		 push	 edx
  0009c	8d 45 b0	 lea	 eax, DWORD PTR $T13[ebp]
  0009f	50		 push	 eax
  000a0	8d 4d ac	 lea	 ecx, DWORD PTR $T12[ebp]
  000a3	51		 push	 ecx
  000a4	8d 55 a8	 lea	 edx, DWORD PTR $T11[ebp]
  000a7	52		 push	 edx
  000a8	8d 45 a4	 lea	 eax, DWORD PTR $T10[ebp]
  000ab	50		 push	 eax
  000ac	8d 4d a0	 lea	 ecx, DWORD PTR $T9[ebp]
  000af	51		 push	 ecx
  000b0	8d 55 9c	 lea	 edx, DWORD PTR $T8[ebp]
  000b3	52		 push	 edx
  000b4	8d 45 98	 lea	 eax, DWORD PTR $T7[ebp]
  000b7	50		 push	 eax
  000b8	8d 4d 94	 lea	 ecx, DWORD PTR $T6[ebp]
  000bb	51		 push	 ecx
  000bc	8d 55 90	 lea	 edx, DWORD PTR $T5[ebp]
  000bf	52		 push	 edx
  000c0	8d 45 8c	 lea	 eax, DWORD PTR $T4[ebp]
  000c3	50		 push	 eax
  000c4	8d 4d 88	 lea	 ecx, DWORD PTR $T3[ebp]
  000c7	51		 push	 ecx
  000c8	8d 55 84	 lea	 edx, DWORD PTR $T2[ebp]
  000cb	52		 push	 edx
  000cc	8d 85 48 ff ff
	ff		 lea	 eax, DWORD PTR $T1[ebp]
  000d2	50		 push	 eax
  000d3	e8 00 00 00 00	 call	 ??$make_array@W4CspTransfer@@W41@W41@W41@W41@W41@W41@W41@W41@W41@W41@W41@W41@W41@W41@W41@@@YA?AV?$array@W4CspTransfer@@$0P@@std@@$$QAW4CspTransfer@@00000000000000@Z ; make_array<enum CspTransfer,enum CspTransfer,enum CspTransfer,enum CspTransfer,enum CspTransfer,enum CspTransfer,enum CspTransfer,enum CspTransfer,enum CspTransfer,enum CspTransfer,enum CspTransfer,enum CspTransfer,enum CspTransfer,enum CspTransfer,enum CspTransfer,enum CspTransfer>
  000d8	83 c4 40	 add	 esp, 64			; 00000040H
  000db	b9 0f 00 00 00	 mov	 ecx, 15			; 0000000fH
  000e0	8b f0		 mov	 esi, eax
  000e2	8d 7d c0	 lea	 edi, DWORD PTR $T17[ebp]
  000e5	f3 a5		 rep movsd
  000e7	b9 0f 00 00 00	 mov	 ecx, 15			; 0000000fH
  000ec	8d 75 c0	 lea	 esi, DWORD PTR $T17[ebp]
  000ef	bf 00 00 00 00	 mov	 edi, OFFSET ?CspTransferList@@3V?$array@W4CspTransfer@@$0P@@std@@B
  000f4	f3 a5		 rep movsd
  000f6	5f		 pop	 edi
  000f7	5e		 pop	 esi
  000f8	8b 4d fc	 mov	 ecx, DWORD PTR __$ArrayPad$[ebp]
  000fb	33 cd		 xor	 ecx, ebp
  000fd	e8 00 00 00 00	 call	 @__security_check_cookie@4
  00102	81 c4 b8 00 00
	00		 add	 esp, 184		; 000000b8H
  00108	3b ec		 cmp	 ebp, esp
  0010a	e8 00 00 00 00	 call	 __RTC_CheckEsp
  0010f	8b e5		 mov	 esp, ebp
  00111	5d		 pop	 ebp
  00112	c3		 ret	 0
??__ECspTransferList@@YAXXZ ENDP			; `dynamic initializer for 'CspTransferList''
text$di	ENDS
; Function compile flags: /Odtp /RTCsu
; File D:\work\intel\intel_codec\QSVPipeline\rgy_util.h
;	COMDAT ??$make_array@W4CspTransfer@@W41@W41@W41@W41@W41@W41@W41@W41@W41@W41@W41@W41@W41@W41@W41@@@YA?AV?$array@W4CspTransfer@@$0P@@std@@$$QAW4CspTransfer@@00000000000000@Z
_TEXT	SEGMENT
$T1 = -64						; size = 60
__$ArrayPad$ = -4					; size = 4
$T2 = 8							; size = 4
_<args_0>$ = 12						; size = 4
_<args_1>$ = 16						; size = 4
_<args_2>$ = 20						; size = 4
_<args_3>$ = 24						; size = 4
_<args_4>$ = 28						; size = 4
_<args_5>$ = 32						; size = 4
_<args_6>$ = 36						; size = 4
_<args_7>$ = 40						; size = 4
_<args_8>$ = 44						; size = 4
_<args_9>$ = 48						; size = 4
_<args_10>$ = 52					; size = 4
_<args_11>$ = 56					; size = 4
_<args_12>$ = 60					; size = 4
_<args_13>$ = 64					; size = 4
_<args_14>$ = 68					; size = 4
??$make_array@W4CspTransfer@@W41@W41@W41@W41@W41@W41@W41@W41@W41@W41@W41@W41@W41@W41@W41@@@YA?AV?$array@W4CspTransfer@@$0P@@std@@$$QAW4CspTransfer@@00000000000000@Z PROC ; make_array<enum CspTransfer,enum CspTransfer,enum CspTransfer,enum CspTransfer,enum CspTransfer,enum CspTransfer,enum CspTransfer,enum CspTransfer,enum CspTransfer,enum CspTransfer,enum CspTransfer,enum CspTransfer,enum CspTransfer,enum CspTransfer,enum CspTransfer,enum CspTransfer>, COMDAT

; 129  : constexpr std::array<T, sizeof...(Args)> make_array(Args&&... args) {

  00000	55		 push	 ebp
  00001	8b ec		 mov	 ebp, esp
  00003	83 ec 40	 sub	 esp, 64			; 00000040H
  00006	56		 push	 esi
  00007	57		 push	 edi
  00008	8d 7d c0	 lea	 edi, DWORD PTR [ebp-64]
  0000b	b9 10 00 00 00	 mov	 ecx, 16			; 00000010H
  00010	b8 cc cc cc cc	 mov	 eax, -858993460		; ccccccccH
  00015	f3 ab		 rep stosd
  00017	a1 00 00 00 00	 mov	 eax, DWORD PTR ___security_cookie
  0001c	33 c5		 xor	 eax, ebp
  0001e	89 45 fc	 mov	 DWORD PTR __$ArrayPad$[ebp], eax

; 130  :     return std::array<T, sizeof...(Args)>{ static_cast<Args&&>(args)... };

  00021	8b 45 0c	 mov	 eax, DWORD PTR _<args_0>$[ebp]
  00024	8b 08		 mov	 ecx, DWORD PTR [eax]
  00026	89 4d c0	 mov	 DWORD PTR $T1[ebp], ecx
  00029	8b 55 10	 mov	 edx, DWORD PTR _<args_1>$[ebp]
  0002c	8b 02		 mov	 eax, DWORD PTR [edx]
  0002e	89 45 c4	 mov	 DWORD PTR $T1[ebp+4], eax
  00031	8b 4d 14	 mov	 ecx, DWORD PTR _<args_2>$[ebp]
  00034	8b 11		 mov	 edx, DWORD PTR [ecx]
  00036	89 55 c8	 mov	 DWORD PTR $T1[ebp+8], edx
  00039	8b 45 18	 mov	 eax, DWORD PTR _<args_3>$[ebp]
  0003c	8b 08		 mov	 ecx, DWORD PTR [eax]
  0003e	89 4d cc	 mov	 DWORD PTR $T1[ebp+12], ecx
  00041	8b 55 1c	 mov	 edx, DWORD PTR _<args_4>$[ebp]
  00044	8b 02		 mov	 eax, DWORD PTR [edx]
  00046	89 45 d0	 mov	 DWORD PTR $T1[ebp+16], eax
  00049	8b 4d 20	 mov	 ecx, DWORD PTR _<args_5>$[ebp]
  0004c	8b 11		 mov	 edx, DWORD PTR [ecx]
  0004e	89 55 d4	 mov	 DWORD PTR $T1[ebp+20], edx
  00051	8b 45 24	 mov	 eax, DWORD PTR _<args_6>$[ebp]
  00054	8b 08		 mov	 ecx, DWORD PTR [eax]
  00056	89 4d d8	 mov	 DWORD PTR $T1[ebp+24], ecx
  00059	8b 55 28	 mov	 edx, DWORD PTR _<args_7>$[ebp]
  0005c	8b 02		 mov	 eax, DWORD PTR [edx]
  0005e	89 45 dc	 mov	 DWORD PTR $T1[ebp+28], eax
  00061	8b 4d 2c	 mov	 ecx, DWORD PTR _<args_8>$[ebp]
  00064	8b 11		 mov	 edx, DWORD PTR [ecx]
  00066	89 55 e0	 mov	 DWORD PTR $T1[ebp+32], edx
  00069	8b 45 30	 mov	 eax, DWORD PTR _<args_9>$[ebp]
  0006c	8b 08		 mov	 ecx, DWORD PTR [eax]
  0006e	89 4d e4	 mov	 DWORD PTR $T1[ebp+36], ecx
  00071	8b 55 34	 mov	 edx, DWORD PTR _<args_10>$[ebp]
  00074	8b 02		 mov	 eax, DWORD PTR [edx]
  00076	89 45 e8	 mov	 DWORD PTR $T1[ebp+40], eax
  00079	8b 4d 38	 mov	 ecx, DWORD PTR _<args_11>$[ebp]
  0007c	8b 11		 mov	 edx, DWORD PTR [ecx]
  0007e	89 55 ec	 mov	 DWORD PTR $T1[ebp+44], edx
  00081	8b 45 3c	 mov	 eax, DWORD PTR _<args_12>$[ebp]
  00084	8b 08		 mov	 ecx, DWORD PTR [eax]
  00086	89 4d f0	 mov	 DWORD PTR $T1[ebp+48], ecx
  00089	8b 55 40	 mov	 edx, DWORD PTR _<args_13>$[ebp]
  0008c	8b 02		 mov	 eax, DWORD PTR [edx]
  0008e	89 45 f4	 mov	 DWORD PTR $T1[ebp+52], eax
  00091	8b 4d 44	 mov	 ecx, DWORD PTR _<args_14>$[ebp]
  00094	8b 11		 mov	 edx, DWORD PTR [ecx]
  00096	89 55 f8	 mov	 DWORD PTR $T1[ebp+56], edx
  00099	b9 0f 00 00 00	 mov	 ecx, 15			; 0000000fH
  0009e	8d 75 c0	 lea	 esi, DWORD PTR $T1[ebp]
  000a1	8b 7d 08	 mov	 edi, DWORD PTR $T2[ebp]
  000a4	f3 a5		 rep movsd
  000a6	8b 45 08	 mov	 eax, DWORD PTR $T2[ebp]

; 131  : }

  000a9	5f		 pop	 edi
  000aa	5e		 pop	 esi
  000ab	8b 4d fc	 mov	 ecx, DWORD PTR __$ArrayPad$[ebp]
  000ae	33 cd		 xor	 ecx, ebp
  000b0	e8 00 00 00 00	 call	 @__security_check_cookie@4
  000b5	8b e5		 mov	 esp, ebp
  000b7	5d		 pop	 ebp
  000b8	c3		 ret	 0
??$make_array@W4CspTransfer@@W41@W41@W41@W41@W41@W41@W41@W41@W41@W41@W41@W41@W41@W41@W41@@@YA?AV?$array@W4CspTransfer@@$0P@@std@@$$QAW4CspTransfer@@00000000000000@Z ENDP ; make_array<enum CspTransfer,enum CspTransfer,enum CspTransfer,enum CspTransfer,enum CspTransfer,enum CspTransfer,enum CspTransfer,enum CspTransfer,enum CspTransfer,enum CspTransfer,enum CspTransfer,enum CspTransfer,enum CspTransfer,enum CspTransfer,enum CspTransfer,enum CspTransfer>
_TEXT	ENDS
; Function compile flags: /Odtp /RTCsu
; File D:\work\intel\intel_codec\QSVPipeline\rgy_util.h
;	COMDAT ??__ECspMatrixList@@YAXXZ
text$di	SEGMENT
$T1 = -172						; size = 56
$T2 = -116						; size = 4
$T3 = -112						; size = 4
$T4 = -108						; size = 4
$T5 = -104						; size = 4
$T6 = -100						; size = 4
$T7 = -96						; size = 4
$T8 = -92						; size = 4
$T9 = -88						; size = 4
$T10 = -84						; size = 4
$T11 = -80						; size = 4
$T12 = -76						; size = 4
$T13 = -72						; size = 4
$T14 = -68						; size = 4
$T15 = -64						; size = 4
$T16 = -60						; size = 56
__$ArrayPad$ = -4					; size = 4
??__ECspMatrixList@@YAXXZ PROC				; `dynamic initializer for 'CspMatrixList'', COMDAT

; 1080 : );

  00000	55		 push	 ebp
  00001	8b ec		 mov	 ebp, esp
  00003	81 ec ac 00 00
	00		 sub	 esp, 172		; 000000acH
  00009	56		 push	 esi
  0000a	57		 push	 edi
  0000b	8d bd 54 ff ff
	ff		 lea	 edi, DWORD PTR [ebp-172]
  00011	b9 2b 00 00 00	 mov	 ecx, 43			; 0000002bH
  00016	b8 cc cc cc cc	 mov	 eax, -858993460		; ccccccccH
  0001b	f3 ab		 rep stosd
  0001d	a1 00 00 00 00	 mov	 eax, DWORD PTR ___security_cookie
  00022	33 c5		 xor	 eax, ebp
  00024	89 45 fc	 mov	 DWORD PTR __$ArrayPad$[ebp], eax

; 1065 : static const auto CspMatrixList = make_array<CspMatrix>(

  00027	c7 45 c0 0f 00
	00 00		 mov	 DWORD PTR $T15[ebp], 15	; 0000000fH
  0002e	c7 45 bc 0e 00
	00 00		 mov	 DWORD PTR $T14[ebp], 14	; 0000000eH
  00035	c7 45 b8 0d 00
	00 00		 mov	 DWORD PTR $T13[ebp], 13	; 0000000dH
  0003c	c7 45 b4 0c 00
	00 00		 mov	 DWORD PTR $T12[ebp], 12	; 0000000cH
  00043	c7 45 b0 0a 00
	00 00		 mov	 DWORD PTR $T11[ebp], 10	; 0000000aH
  0004a	c7 45 ac 09 00
	00 00		 mov	 DWORD PTR $T10[ebp], 9
  00051	c7 45 a8 08 00
	00 00		 mov	 DWORD PTR $T9[ebp], 8
  00058	c7 45 a4 07 00
	00 00		 mov	 DWORD PTR $T8[ebp], 7
  0005f	c7 45 a0 06 00
	00 00		 mov	 DWORD PTR $T7[ebp], 6
  00066	c7 45 9c 05 00
	00 00		 mov	 DWORD PTR $T6[ebp], 5
  0006d	c7 45 98 04 00
	00 00		 mov	 DWORD PTR $T5[ebp], 4
  00074	c7 45 94 02 00
	00 00		 mov	 DWORD PTR $T4[ebp], 2
  0007b	c7 45 90 01 00
	00 00		 mov	 DWORD PTR $T3[ebp], 1
  00082	c7 45 8c 00 00
	00 00		 mov	 DWORD PTR $T2[ebp], 0
  00089	8d 45 c0	 lea	 eax, DWORD PTR $T15[ebp]
  0008c	50		 push	 eax
  0008d	8d 4d bc	 lea	 ecx, DWORD PTR $T14[ebp]
  00090	51		 push	 ecx
  00091	8d 55 b8	 lea	 edx, DWORD PTR $T13[ebp]
  00094	52		 push	 edx
  00095	8d 45 b4	 lea	 eax, DWORD PTR $T12[ebp]
  00098	50		 push	 eax
  00099	8d 4d b0	 lea	 ecx, DWORD PTR $T11[ebp]
  0009c	51		 push	 ecx
  0009d	8d 55 ac	 lea	 edx, DWORD PTR $T10[ebp]
  000a0	52		 push	 edx
  000a1	8d 45 a8	 lea	 eax, DWORD PTR $T9[ebp]
  000a4	50		 push	 eax
  000a5	8d 4d a4	 lea	 ecx, DWORD PTR $T8[ebp]
  000a8	51		 push	 ecx
  000a9	8d 55 a0	 lea	 edx, DWORD PTR $T7[ebp]
  000ac	52		 push	 edx
  000ad	8d 45 9c	 lea	 eax, DWORD PTR $T6[ebp]
  000b0	50		 push	 eax
  000b1	8d 4d 98	 lea	 ecx, DWORD PTR $T5[ebp]
  000b4	51		 push	 ecx
  000b5	8d 55 94	 lea	 edx, DWORD PTR $T4[ebp]
  000b8	52		 push	 edx
  000b9	8d 45 90	 lea	 eax, DWORD PTR $T3[ebp]
  000bc	50		 push	 eax
  000bd	8d 4d 8c	 lea	 ecx, DWORD PTR $T2[ebp]
  000c0	51		 push	 ecx
  000c1	8d 95 54 ff ff
	ff		 lea	 edx, DWORD PTR $T1[ebp]
  000c7	52		 push	 edx
  000c8	e8 00 00 00 00	 call	 ??$make_array@W4CspMatrix@@W41@W41@W41@W41@W41@W41@W41@W41@W41@W41@W41@W41@W41@W41@@@YA?AV?$array@W4CspMatrix@@$0O@@std@@$$QAW4CspMatrix@@0000000000000@Z ; make_array<enum CspMatrix,enum CspMatrix,enum CspMatrix,enum CspMatrix,enum CspMatrix,enum CspMatrix,enum CspMatrix,enum CspMatrix,enum CspMatrix,enum CspMatrix,enum CspMatrix,enum CspMatrix,enum CspMatrix,enum CspMatrix,enum CspMatrix>
  000cd	83 c4 3c	 add	 esp, 60			; 0000003cH
  000d0	b9 0e 00 00 00	 mov	 ecx, 14			; 0000000eH
  000d5	8b f0		 mov	 esi, eax
  000d7	8d 7d c4	 lea	 edi, DWORD PTR $T16[ebp]
  000da	f3 a5		 rep movsd
  000dc	b9 0e 00 00 00	 mov	 ecx, 14			; 0000000eH
  000e1	8d 75 c4	 lea	 esi, DWORD PTR $T16[ebp]
  000e4	bf 00 00 00 00	 mov	 edi, OFFSET ?CspMatrixList@@3V?$array@W4CspMatrix@@$0O@@std@@B
  000e9	f3 a5		 rep movsd
  000eb	5f		 pop	 edi
  000ec	5e		 pop	 esi
  000ed	8b 4d fc	 mov	 ecx, DWORD PTR __$ArrayPad$[ebp]
  000f0	33 cd		 xor	 ecx, ebp
  000f2	e8 00 00 00 00	 call	 @__security_check_cookie@4
  000f7	81 c4 ac 00 00
	00		 add	 esp, 172		; 000000acH
  000fd	3b ec		 cmp	 ebp, esp
  000ff	e8 00 00 00 00	 call	 __RTC_CheckEsp
  00104	8b e5		 mov	 esp, ebp
  00106	5d		 pop	 ebp
  00107	c3		 ret	 0
??__ECspMatrixList@@YAXXZ ENDP				; `dynamic initializer for 'CspMatrixList''
text$di	ENDS
; Function compile flags: /Odtp /RTCsu
; File D:\work\intel\intel_codec\QSVPipeline\rgy_util.h
;	COMDAT ??$make_array@W4CspMatrix@@W41@W41@W41@W41@W41@W41@W41@W41@W41@W41@W41@W41@W41@W41@@@YA?AV?$array@W4CspMatrix@@$0O@@std@@$$QAW4CspMatrix@@0000000000000@Z
_TEXT	SEGMENT
$T1 = -60						; size = 56
__$ArrayPad$ = -4					; size = 4
$T2 = 8							; size = 4
_<args_0>$ = 12						; size = 4
_<args_1>$ = 16						; size = 4
_<args_2>$ = 20						; size = 4
_<args_3>$ = 24						; size = 4
_<args_4>$ = 28						; size = 4
_<args_5>$ = 32						; size = 4
_<args_6>$ = 36						; size = 4
_<args_7>$ = 40						; size = 4
_<args_8>$ = 44						; size = 4
_<args_9>$ = 48						; size = 4
_<args_10>$ = 52					; size = 4
_<args_11>$ = 56					; size = 4
_<args_12>$ = 60					; size = 4
_<args_13>$ = 64					; size = 4
??$make_array@W4CspMatrix@@W41@W41@W41@W41@W41@W41@W41@W41@W41@W41@W41@W41@W41@W41@@@YA?AV?$array@W4CspMatrix@@$0O@@std@@$$QAW4CspMatrix@@0000000000000@Z PROC ; make_array<enum CspMatrix,enum CspMatrix,enum CspMatrix,enum CspMatrix,enum CspMatrix,enum CspMatrix,enum CspMatrix,enum CspMatrix,enum CspMatrix,enum CspMatrix,enum CspMatrix,enum CspMatrix,enum CspMatrix,enum CspMatrix,enum CspMatrix>, COMDAT

; 129  : constexpr std::array<T, sizeof...(Args)> make_array(Args&&... args) {

  00000	55		 push	 ebp
  00001	8b ec		 mov	 ebp, esp
  00003	83 ec 3c	 sub	 esp, 60			; 0000003cH
  00006	56		 push	 esi
  00007	57		 push	 edi
  00008	8d 7d c4	 lea	 edi, DWORD PTR [ebp-60]
  0000b	b9 0f 00 00 00	 mov	 ecx, 15			; 0000000fH
  00010	b8 cc cc cc cc	 mov	 eax, -858993460		; ccccccccH
  00015	f3 ab		 rep stosd
  00017	a1 00 00 00 00	 mov	 eax, DWORD PTR ___security_cookie
  0001c	33 c5		 xor	 eax, ebp
  0001e	89 45 fc	 mov	 DWORD PTR __$ArrayPad$[ebp], eax

; 130  :     return std::array<T, sizeof...(Args)>{ static_cast<Args&&>(args)... };

  00021	8b 45 0c	 mov	 eax, DWORD PTR _<args_0>$[ebp]
  00024	8b 08		 mov	 ecx, DWORD PTR [eax]
  00026	89 4d c4	 mov	 DWORD PTR $T1[ebp], ecx
  00029	8b 55 10	 mov	 edx, DWORD PTR _<args_1>$[ebp]
  0002c	8b 02		 mov	 eax, DWORD PTR [edx]
  0002e	89 45 c8	 mov	 DWORD PTR $T1[ebp+4], eax
  00031	8b 4d 14	 mov	 ecx, DWORD PTR _<args_2>$[ebp]
  00034	8b 11		 mov	 edx, DWORD PTR [ecx]
  00036	89 55 cc	 mov	 DWORD PTR $T1[ebp+8], edx
  00039	8b 45 18	 mov	 eax, DWORD PTR _<args_3>$[ebp]
  0003c	8b 08		 mov	 ecx, DWORD PTR [eax]
  0003e	89 4d d0	 mov	 DWORD PTR $T1[ebp+12], ecx
  00041	8b 55 1c	 mov	 edx, DWORD PTR _<args_4>$[ebp]
  00044	8b 02		 mov	 eax, DWORD PTR [edx]
  00046	89 45 d4	 mov	 DWORD PTR $T1[ebp+16], eax
  00049	8b 4d 20	 mov	 ecx, DWORD PTR _<args_5>$[ebp]
  0004c	8b 11		 mov	 edx, DWORD PTR [ecx]
  0004e	89 55 d8	 mov	 DWORD PTR $T1[ebp+20], edx
  00051	8b 45 24	 mov	 eax, DWORD PTR _<args_6>$[ebp]
  00054	8b 08		 mov	 ecx, DWORD PTR [eax]
  00056	89 4d dc	 mov	 DWORD PTR $T1[ebp+24], ecx
  00059	8b 55 28	 mov	 edx, DWORD PTR _<args_7>$[ebp]
  0005c	8b 02		 mov	 eax, DWORD PTR [edx]
  0005e	89 45 e0	 mov	 DWORD PTR $T1[ebp+28], eax
  00061	8b 4d 2c	 mov	 ecx, DWORD PTR _<args_8>$[ebp]
  00064	8b 11		 mov	 edx, DWORD PTR [ecx]
  00066	89 55 e4	 mov	 DWORD PTR $T1[ebp+32], edx
  00069	8b 45 30	 mov	 eax, DWORD PTR _<args_9>$[ebp]
  0006c	8b 08		 mov	 ecx, DWORD PTR [eax]
  0006e	89 4d e8	 mov	 DWORD PTR $T1[ebp+36], ecx
  00071	8b 55 34	 mov	 edx, DWORD PTR _<args_10>$[ebp]
  00074	8b 02		 mov	 eax, DWORD PTR [edx]
  00076	89 45 ec	 mov	 DWORD PTR $T1[ebp+40], eax
  00079	8b 4d 38	 mov	 ecx, DWORD PTR _<args_11>$[ebp]
  0007c	8b 11		 mov	 edx, DWORD PTR [ecx]
  0007e	89 55 f0	 mov	 DWORD PTR $T1[ebp+44], edx
  00081	8b 45 3c	 mov	 eax, DWORD PTR _<args_12>$[ebp]
  00084	8b 08		 mov	 ecx, DWORD PTR [eax]
  00086	89 4d f4	 mov	 DWORD PTR $T1[ebp+48], ecx
  00089	8b 55 40	 mov	 edx, DWORD PTR _<args_13>$[ebp]
  0008c	8b 02		 mov	 eax, DWORD PTR [edx]
  0008e	89 45 f8	 mov	 DWORD PTR $T1[ebp+52], eax
  00091	b9 0e 00 00 00	 mov	 ecx, 14			; 0000000eH
  00096	8d 75 c4	 lea	 esi, DWORD PTR $T1[ebp]
  00099	8b 7d 08	 mov	 edi, DWORD PTR $T2[ebp]
  0009c	f3 a5		 rep movsd
  0009e	8b 45 08	 mov	 eax, DWORD PTR $T2[ebp]

; 131  : }

  000a1	5f		 pop	 edi
  000a2	5e		 pop	 esi
  000a3	8b 4d fc	 mov	 ecx, DWORD PTR __$ArrayPad$[ebp]
  000a6	33 cd		 xor	 ecx, ebp
  000a8	e8 00 00 00 00	 call	 @__security_check_cookie@4
  000ad	8b e5		 mov	 esp, ebp
  000af	5d		 pop	 ebp
  000b0	c3		 ret	 0
??$make_array@W4CspMatrix@@W41@W41@W41@W41@W41@W41@W41@W41@W41@W41@W41@W41@W41@W41@@@YA?AV?$array@W4CspMatrix@@$0O@@std@@$$QAW4CspMatrix@@0000000000000@Z ENDP ; make_array<enum CspMatrix,enum CspMatrix,enum CspMatrix,enum CspMatrix,enum CspMatrix,enum CspMatrix,enum CspMatrix,enum CspMatrix,enum CspMatrix,enum CspMatrix,enum CspMatrix,enum CspMatrix,enum CspMatrix,enum CspMatrix,enum CspMatrix>
_TEXT	ENDS
; Function compile flags: /Odtp /RTCsu
;	COMDAT ??1?$_Compressed_pair@V?$allocator@D@std@@V?$_String_val@U?$_Simple_types@D@std@@@2@$00@std@@QAE@XZ
_TEXT	SEGMENT
_this$ = -16						; size = 4
__$EHRec$ = -12						; size = 12
??1?$_Compressed_pair@V?$allocator@D@std@@V?$_String_val@U?$_Simple_types@D@std@@@2@$00@std@@QAE@XZ PROC ; std::_Compressed_pair<std::allocator<char>,std::_String_val<std::_Simple_types<char> >,1>::~_Compressed_pair<std::allocator<char>,std::_String_val<std::_Simple_types<char> >,1>, COMDAT
; _this$ = ecx
  00000	55		 push	 ebp
  00001	8b ec		 mov	 ebp, esp
  00003	6a ff		 push	 -1
  00005	68 00 00 00 00	 push	 __ehhandler$??1?$_Compressed_pair@V?$allocator@D@std@@V?$_String_val@U?$_Simple_types@D@std@@@2@$00@std@@QAE@XZ
  0000a	64 a1 00 00 00
	00		 mov	 eax, DWORD PTR fs:0
  00010	50		 push	 eax
  00011	51		 push	 ecx
  00012	c7 45 f0 cc cc
	cc cc		 mov	 DWORD PTR [ebp-16], -858993460 ; ccccccccH
  00019	a1 00 00 00 00	 mov	 eax, DWORD PTR ___security_cookie
  0001e	33 c5		 xor	 eax, ebp
  00020	50		 push	 eax
  00021	8d 45 f4	 lea	 eax, DWORD PTR __$EHRec$[ebp]
  00024	64 a3 00 00 00
	00		 mov	 DWORD PTR fs:0, eax
  0002a	89 4d f0	 mov	 DWORD PTR _this$[ebp], ecx
  0002d	c7 45 fc 00 00
	00 00		 mov	 DWORD PTR __$EHRec$[ebp+8], 0
  00034	c7 45 fc ff ff
	ff ff		 mov	 DWORD PTR __$EHRec$[ebp+8], -1
  0003b	8b 4d f0	 mov	 ecx, DWORD PTR _this$[ebp]
  0003e	e8 00 00 00 00	 call	 ??1?$_String_val@U?$_Simple_types@D@std@@@std@@QAE@XZ
  00043	8b 4d f4	 mov	 ecx, DWORD PTR __$EHRec$[ebp]
  00046	64 89 0d 00 00
	00 00		 mov	 DWORD PTR fs:0, ecx
  0004d	59		 pop	 ecx
  0004e	83 c4 10	 add	 esp, 16			; 00000010H
  00051	3b ec		 cmp	 ebp, esp
  00053	e8 00 00 00 00	 call	 __RTC_CheckEsp
  00058	8b e5		 mov	 esp, ebp
  0005a	5d		 pop	 ebp
  0005b	c3		 ret	 0
_TEXT	ENDS
;	COMDAT text$x
text$x	SEGMENT
__unwindfunclet$??1?$_Compressed_pair@V?$allocator@D@std@@V?$_String_val@U?$_Simple_types@D@std@@@2@$00@std@@QAE@XZ$0:
  00000	8b 4d f0	 mov	 ecx, DWORD PTR _this$[ebp]
  00003	e9 00 00 00 00	 jmp	 ??1?$_String_val@U?$_Simple_types@D@std@@@std@@QAE@XZ
__ehhandler$??1?$_Compressed_pair@V?$allocator@D@std@@V?$_String_val@U?$_Simple_types@D@std@@@2@$00@std@@QAE@XZ:
  00008	8b 54 24 08	 mov	 edx, DWORD PTR [esp+8]
  0000c	8d 42 0c	 lea	 eax, DWORD PTR [edx+12]
  0000f	8b 4a f8	 mov	 ecx, DWORD PTR [edx-8]
  00012	33 c8		 xor	 ecx, eax
  00014	e8 00 00 00 00	 call	 @__security_check_cookie@4
  00019	b8 00 00 00 00	 mov	 eax, OFFSET __ehfuncinfo$??1?$_Compressed_pair@V?$allocator@D@std@@V?$_String_val@U?$_Simple_types@D@std@@@2@$00@std@@QAE@XZ
  0001e	e9 00 00 00 00	 jmp	 ___CxxFrameHandler3
text$x	ENDS
??1?$_Compressed_pair@V?$allocator@D@std@@V?$_String_val@U?$_Simple_types@D@std@@@2@$00@std@@QAE@XZ ENDP ; std::_Compressed_pair<std::allocator<char>,std::_String_val<std::_Simple_types<char> >,1>::~_Compressed_pair<std::allocator<char>,std::_String_val<std::_Simple_types<char> >,1>
; Function compile flags: /Odtp /RTCsu
; File C:\Program Files (x86)\Microsoft Visual Studio\2019\Community\VC\Tools\MSVC\14.23.28105\include\xmemory
;	COMDAT ?_Get_first@?$_Compressed_pair@V?$allocator@D@std@@V?$_String_val@U?$_Simple_types@D@std@@@2@$00@std@@QBEABV?$allocator@D@2@XZ
_TEXT	SEGMENT
_this$ = -4						; size = 4
?_Get_first@?$_Compressed_pair@V?$allocator@D@std@@V?$_String_val@U?$_Simple_types@D@std@@@2@$00@std@@QBEABV?$allocator@D@2@XZ PROC ; std::_Compressed_pair<std::allocator<char>,std::_String_val<std::_Simple_types<char> >,1>::_Get_first, COMDAT
; _this$ = ecx

; 1424 :     const _Ty1& _Get_first() const noexcept {

  00000	55		 push	 ebp
  00001	8b ec		 mov	 ebp, esp
  00003	51		 push	 ecx
  00004	c7 45 fc cc cc
	cc cc		 mov	 DWORD PTR [ebp-4], -858993460 ; ccccccccH
  0000b	89 4d fc	 mov	 DWORD PTR _this$[ebp], ecx

; 1425 :         return *this;

  0000e	8b 45 fc	 mov	 eax, DWORD PTR _this$[ebp]

; 1426 :     }

  00011	8b e5		 mov	 esp, ebp
  00013	5d		 pop	 ebp
  00014	c3		 ret	 0
?_Get_first@?$_Compressed_pair@V?$allocator@D@std@@V?$_String_val@U?$_Simple_types@D@std@@@2@$00@std@@QBEABV?$allocator@D@2@XZ ENDP ; std::_Compressed_pair<std::allocator<char>,std::_String_val<std::_Simple_types<char> >,1>::_Get_first
_TEXT	ENDS
; Function compile flags: /Odtp /RTCsu
; File C:\Program Files (x86)\Microsoft Visual Studio\2019\Community\VC\Tools\MSVC\14.23.28105\include\xmemory
;	COMDAT ?_Get_first@?$_Compressed_pair@V?$allocator@D@std@@V?$_String_val@U?$_Simple_types@D@std@@@2@$00@std@@QAEAAV?$allocator@D@2@XZ
_TEXT	SEGMENT
_this$ = -4						; size = 4
?_Get_first@?$_Compressed_pair@V?$allocator@D@std@@V?$_String_val@U?$_Simple_types@D@std@@@2@$00@std@@QAEAAV?$allocator@D@2@XZ PROC ; std::_Compressed_pair<std::allocator<char>,std::_String_val<std::_Simple_types<char> >,1>::_Get_first, COMDAT
; _this$ = ecx

; 1420 :     _Ty1& _Get_first() noexcept {

  00000	55		 push	 ebp
  00001	8b ec		 mov	 ebp, esp
  00003	51		 push	 ecx
  00004	c7 45 fc cc cc
	cc cc		 mov	 DWORD PTR [ebp-4], -858993460 ; ccccccccH
  0000b	89 4d fc	 mov	 DWORD PTR _this$[ebp], ecx

; 1421 :         return *this;

  0000e	8b 45 fc	 mov	 eax, DWORD PTR _this$[ebp]

; 1422 :     }

  00011	8b e5		 mov	 esp, ebp
  00013	5d		 pop	 ebp
  00014	c3		 ret	 0
?_Get_first@?$_Compressed_pair@V?$allocator@D@std@@V?$_String_val@U?$_Simple_types@D@std@@@2@$00@std@@QAEAAV?$allocator@D@2@XZ ENDP ; std::_Compressed_pair<std::allocator<char>,std::_String_val<std::_Simple_types<char> >,1>::_Get_first
_TEXT	ENDS
; Function compile flags: /Odtp /RTCsu
; File C:\Program Files (x86)\Microsoft Visual Studio\2019\Community\VC\Tools\MSVC\14.23.28105\include\xstring
;	COMDAT ?_Getal@?$basic_string@DU?$char_traits@D@std@@V?$allocator@D@2@@std@@ABEABV?$allocator@D@2@XZ
_TEXT	SEGMENT
_this$ = -4						; size = 4
?_Getal@?$basic_string@DU?$char_traits@D@std@@V?$allocator@D@2@@std@@ABEABV?$allocator@D@2@XZ PROC ; std::basic_string<char,std::char_traits<char>,std::allocator<char> >::_Getal, COMDAT
; _this$ = ecx

; 4198 :     const _Alty& _Getal() const noexcept { // return const reference to allocator

  00000	55		 push	 ebp
  00001	8b ec		 mov	 ebp, esp
  00003	51		 push	 ecx
  00004	c7 45 fc cc cc
	cc cc		 mov	 DWORD PTR [ebp-4], -858993460 ; ccccccccH
  0000b	89 4d fc	 mov	 DWORD PTR _this$[ebp], ecx

; 4199 :         return _Mypair._Get_first();

  0000e	8b 4d fc	 mov	 ecx, DWORD PTR _this$[ebp]
  00011	e8 00 00 00 00	 call	 ?_Get_first@?$_Compressed_pair@V?$allocator@D@std@@V?$_String_val@U?$_Simple_types@D@std@@@2@$00@std@@QBEABV?$allocator@D@2@XZ ; std::_Compressed_pair<std::allocator<char>,std::_String_val<std::_Simple_types<char> >,1>::_Get_first

; 4200 :     }

  00016	83 c4 04	 add	 esp, 4
  00019	3b ec		 cmp	 ebp, esp
  0001b	e8 00 00 00 00	 call	 __RTC_CheckEsp
  00020	8b e5		 mov	 esp, ebp
  00022	5d		 pop	 ebp
  00023	c3		 ret	 0
?_Getal@?$basic_string@DU?$char_traits@D@std@@V?$allocator@D@2@@std@@ABEABV?$allocator@D@2@XZ ENDP ; std::basic_string<char,std::char_traits<char>,std::allocator<char> >::_Getal
_TEXT	ENDS
; Function compile flags: /Odtp /RTCsu
; File C:\Program Files (x86)\Microsoft Visual Studio\2019\Community\VC\Tools\MSVC\14.23.28105\include\xstring
;	COMDAT ?_Getal@?$basic_string@DU?$char_traits@D@std@@V?$allocator@D@2@@std@@AAEAAV?$allocator@D@2@XZ
_TEXT	SEGMENT
_this$ = -4						; size = 4
?_Getal@?$basic_string@DU?$char_traits@D@std@@V?$allocator@D@2@@std@@AAEAAV?$allocator@D@2@XZ PROC ; std::basic_string<char,std::char_traits<char>,std::allocator<char> >::_Getal, COMDAT
; _this$ = ecx

; 4194 :     _Alty& _Getal() noexcept { // return reference to allocator

  00000	55		 push	 ebp
  00001	8b ec		 mov	 ebp, esp
  00003	51		 push	 ecx
  00004	c7 45 fc cc cc
	cc cc		 mov	 DWORD PTR [ebp-4], -858993460 ; ccccccccH
  0000b	89 4d fc	 mov	 DWORD PTR _this$[ebp], ecx

; 4195 :         return _Mypair._Get_first();

  0000e	8b 4d fc	 mov	 ecx, DWORD PTR _this$[ebp]
  00011	e8 00 00 00 00	 call	 ?_Get_first@?$_Compressed_pair@V?$allocator@D@std@@V?$_String_val@U?$_Simple_types@D@std@@@2@$00@std@@QAEAAV?$allocator@D@2@XZ ; std::_Compressed_pair<std::allocator<char>,std::_String_val<std::_Simple_types<char> >,1>::_Get_first

; 4196 :     }

  00016	83 c4 04	 add	 esp, 4
  00019	3b ec		 cmp	 ebp, esp
  0001b	e8 00 00 00 00	 call	 __RTC_CheckEsp
  00020	8b e5		 mov	 esp, ebp
  00022	5d		 pop	 ebp
  00023	c3		 ret	 0
?_Getal@?$basic_string@DU?$char_traits@D@std@@V?$allocator@D@2@@std@@AAEAAV?$allocator@D@2@XZ ENDP ; std::basic_string<char,std::char_traits<char>,std::allocator<char> >::_Getal
_TEXT	ENDS
; Function compile flags: /Odtp /RTCsu
; File C:\Program Files (x86)\Microsoft Visual Studio\2019\Community\VC\Tools\MSVC\14.23.28105\include\xstring
;	COMDAT ?_Swap_proxy_and_iterators@?$basic_string@DU?$char_traits@D@std@@V?$allocator@D@2@@std@@AAEXAAV12@@Z
_TEXT	SEGMENT
_this$ = -4						; size = 4
__Right$ = 8						; size = 4
?_Swap_proxy_and_iterators@?$basic_string@DU?$char_traits@D@std@@V?$allocator@D@2@@std@@AAEXAAV12@@Z PROC ; std::basic_string<char,std::char_traits<char>,std::allocator<char> >::_Swap_proxy_and_iterators, COMDAT
; _this$ = ecx

; 4190 :     void _Swap_proxy_and_iterators(basic_string& _Right) { // swap all iterators

  00000	55		 push	 ebp
  00001	8b ec		 mov	 ebp, esp
  00003	51		 push	 ecx
  00004	c7 45 fc cc cc
	cc cc		 mov	 DWORD PTR [ebp-4], -858993460 ; ccccccccH
  0000b	89 4d fc	 mov	 DWORD PTR _this$[ebp], ecx

; 4191 :         _Mypair._Myval2._Swap_proxy_and_iterators(_Right._Mypair._Myval2);

  0000e	8b 45 08	 mov	 eax, DWORD PTR __Right$[ebp]
  00011	50		 push	 eax
  00012	8b 4d fc	 mov	 ecx, DWORD PTR _this$[ebp]
  00015	e8 00 00 00 00	 call	 ?_Swap_proxy_and_iterators@_Container_base12@std@@QAEXAAU12@@Z ; std::_Container_base12::_Swap_proxy_and_iterators

; 4192 :     }

  0001a	83 c4 04	 add	 esp, 4
  0001d	3b ec		 cmp	 ebp, esp
  0001f	e8 00 00 00 00	 call	 __RTC_CheckEsp
  00024	8b e5		 mov	 esp, ebp
  00026	5d		 pop	 ebp
  00027	c2 04 00	 ret	 4
?_Swap_proxy_and_iterators@?$basic_string@DU?$char_traits@D@std@@V?$allocator@D@2@@std@@AAEXAAV12@@Z ENDP ; std::basic_string<char,std::char_traits<char>,std::allocator<char> >::_Swap_proxy_and_iterators
_TEXT	ENDS
; Function compile flags: /Odtp /RTCsu
; File C:\Program Files (x86)\Microsoft Visual Studio\2019\Community\VC\Tools\MSVC\14.23.28105\include\xstring
;	COMDAT ?_Xlen@?$basic_string@DU?$char_traits@D@std@@V?$allocator@D@2@@std@@CAXXZ
_TEXT	SEGMENT
?_Xlen@?$basic_string@DU?$char_traits@D@std@@V?$allocator@D@2@@std@@CAXXZ PROC ; std::basic_string<char,std::char_traits<char>,std::allocator<char> >::_Xlen, COMDAT

; 4180 :     [[noreturn]] static void _Xlen() { // report a length_error

  00000	55		 push	 ebp
  00001	8b ec		 mov	 ebp, esp

; 4181 :         _Xlength_error("string too long");

  00003	68 00 00 00 00	 push	 OFFSET ??_C@_0BA@JFNIOLAK@string?5too?5long@
  00008	e8 00 00 00 00	 call	 ?_Xlength_error@std@@YAXPBD@Z ; std::_Xlength_error
$LN2@Xlen:

; 4182 :     }

  0000d	3b ec		 cmp	 ebp, esp
  0000f	e8 00 00 00 00	 call	 __RTC_CheckEsp
  00014	5d		 pop	 ebp
  00015	c3		 ret	 0
?_Xlen@?$basic_string@DU?$char_traits@D@std@@V?$allocator@D@2@@std@@CAXXZ ENDP ; std::basic_string<char,std::char_traits<char>,std::allocator<char> >::_Xlen
_TEXT	ENDS
; Function compile flags: /Odtp /RTCsu
; File C:\Program Files (x86)\Microsoft Visual Studio\2019\Community\VC\Tools\MSVC\14.23.28105\include\xstring
;	COMDAT ?_Tidy_deallocate@?$basic_string@DU?$char_traits@D@std@@V?$allocator@D@2@@std@@AAEXXZ
_TEXT	SEGMENT
$T2 = -25						; size = 1
__Al$3 = -24						; size = 4
__Ptr$4 = -20						; size = 4
_this$ = -16						; size = 4
__$EHRec$ = -12						; size = 12
?_Tidy_deallocate@?$basic_string@DU?$char_traits@D@std@@V?$allocator@D@2@@std@@AAEXXZ PROC ; std::basic_string<char,std::char_traits<char>,std::allocator<char> >::_Tidy_deallocate, COMDAT
; _this$ = ecx

; 4164 :     void _Tidy_deallocate() noexcept { // initialize buffer, deallocating any storage

  00000	55		 push	 ebp
  00001	8b ec		 mov	 ebp, esp
  00003	6a ff		 push	 -1
  00005	68 00 00 00 00	 push	 __ehhandler$?_Tidy_deallocate@?$basic_string@DU?$char_traits@D@std@@V?$allocator@D@2@@std@@AAEXXZ
  0000a	64 a1 00 00 00
	00		 mov	 eax, DWORD PTR fs:0
  00010	50		 push	 eax
  00011	83 ec 10	 sub	 esp, 16			; 00000010H
  00014	b8 cc cc cc cc	 mov	 eax, -858993460		; ccccccccH
  00019	89 45 e4	 mov	 DWORD PTR [ebp-28], eax
  0001c	89 45 e8	 mov	 DWORD PTR [ebp-24], eax
  0001f	89 45 ec	 mov	 DWORD PTR [ebp-20], eax
  00022	89 45 f0	 mov	 DWORD PTR [ebp-16], eax
  00025	a1 00 00 00 00	 mov	 eax, DWORD PTR ___security_cookie
  0002a	33 c5		 xor	 eax, ebp
  0002c	50		 push	 eax
  0002d	8d 45 f4	 lea	 eax, DWORD PTR __$EHRec$[ebp]
  00030	64 a3 00 00 00
	00		 mov	 DWORD PTR fs:0, eax
  00036	89 4d f0	 mov	 DWORD PTR _this$[ebp], ecx

; 4165 :         _Mypair._Myval2._Orphan_all();

  00039	8b 4d f0	 mov	 ecx, DWORD PTR _this$[ebp]
  0003c	e8 00 00 00 00	 call	 ?_Orphan_all@_Container_base12@std@@QAEXXZ ; std::_Container_base12::_Orphan_all

; 4166 :         if (_Mypair._Myval2._Large_string_engaged()) {

  00041	8b 4d f0	 mov	 ecx, DWORD PTR _this$[ebp]
  00044	e8 00 00 00 00	 call	 ?_Large_string_engaged@?$_String_val@U?$_Simple_types@D@std@@@std@@QBE_NXZ ; std::_String_val<std::_Simple_types<char> >::_Large_string_engaged
  00049	0f b6 c0	 movzx	 eax, al
  0004c	85 c0		 test	 eax, eax
  0004e	74 39		 je	 SHORT $LN2@Tidy_deall

; 4167 :             const pointer _Ptr = _Mypair._Myval2._Bx._Ptr;

  00050	8b 4d f0	 mov	 ecx, DWORD PTR _this$[ebp]
  00053	8b 51 04	 mov	 edx, DWORD PTR [ecx+4]
  00056	89 55 ec	 mov	 DWORD PTR __Ptr$4[ebp], edx

; 4168 :             auto& _Al          = _Getal();

  00059	8b 4d f0	 mov	 ecx, DWORD PTR _this$[ebp]
  0005c	e8 00 00 00 00	 call	 ?_Getal@?$basic_string@DU?$char_traits@D@std@@V?$allocator@D@2@@std@@AAEAAV?$allocator@D@2@XZ ; std::basic_string<char,std::char_traits<char>,std::allocator<char> >::_Getal
  00061	89 45 e8	 mov	 DWORD PTR __Al$3[ebp], eax

; 4169 :             _Destroy_in_place(_Mypair._Myval2._Bx._Ptr);

  00064	8b 45 f0	 mov	 eax, DWORD PTR _this$[ebp]
  00067	83 c0 04	 add	 eax, 4
  0006a	50		 push	 eax
  0006b	e8 00 00 00 00	 call	 ??$_Destroy_in_place@PAD@std@@YAXAAPAD@Z ; std::_Destroy_in_place<char *>
  00070	83 c4 04	 add	 esp, 4

; 4170 :             _Al.deallocate(_Ptr, _Mypair._Myval2._Myres + 1);

  00073	8b 4d f0	 mov	 ecx, DWORD PTR _this$[ebp]
  00076	8b 51 18	 mov	 edx, DWORD PTR [ecx+24]
  00079	83 c2 01	 add	 edx, 1
  0007c	52		 push	 edx
  0007d	8b 45 ec	 mov	 eax, DWORD PTR __Ptr$4[ebp]
  00080	50		 push	 eax
  00081	8b 4d e8	 mov	 ecx, DWORD PTR __Al$3[ebp]
  00084	e8 00 00 00 00	 call	 ?deallocate@?$allocator@D@std@@QAEXQADI@Z ; std::allocator<char>::deallocate
$LN2@Tidy_deall:

; 4171 :         }
; 4172 : 
; 4173 :         _Mypair._Myval2._Mysize = 0;

  00089	8b 4d f0	 mov	 ecx, DWORD PTR _this$[ebp]
  0008c	c7 41 14 00 00
	00 00		 mov	 DWORD PTR [ecx+20], 0

; 4174 :         _Mypair._Myval2._Myres  = _BUF_SIZE - 1;

  00093	8b 55 f0	 mov	 edx, DWORD PTR _this$[ebp]
  00096	c7 42 18 0f 00
	00 00		 mov	 DWORD PTR [edx+24], 15	; 0000000fH

; 4175 :         // the _Traits::assign is last so the codegen doesn't think the char
; 4176 :         // write can alias this
; 4177 :         _Traits::assign(_Mypair._Myval2._Bx._Buf[0], _Elem());

  0009d	c6 45 e7 00	 mov	 BYTE PTR $T2[ebp], 0
  000a1	8d 45 e7	 lea	 eax, DWORD PTR $T2[ebp]
  000a4	50		 push	 eax
  000a5	b9 01 00 00 00	 mov	 ecx, 1
  000aa	6b d1 00	 imul	 edx, ecx, 0
  000ad	8b 45 f0	 mov	 eax, DWORD PTR _this$[ebp]
  000b0	8d 4c 10 04	 lea	 ecx, DWORD PTR [eax+edx+4]
  000b4	51		 push	 ecx
  000b5	e8 00 00 00 00	 call	 ?assign@?$_Narrow_char_traits@DH@std@@SAXAADABD@Z ; std::_Narrow_char_traits<char,int>::assign
  000ba	83 c4 08	 add	 esp, 8

; 4178 :     }

  000bd	8b 4d f4	 mov	 ecx, DWORD PTR __$EHRec$[ebp]
  000c0	64 89 0d 00 00
	00 00		 mov	 DWORD PTR fs:0, ecx
  000c7	59		 pop	 ecx
  000c8	83 c4 1c	 add	 esp, 28			; 0000001cH
  000cb	3b ec		 cmp	 ebp, esp
  000cd	e8 00 00 00 00	 call	 __RTC_CheckEsp
  000d2	8b e5		 mov	 esp, ebp
  000d4	5d		 pop	 ebp
  000d5	c3		 ret	 0
_TEXT	ENDS
;	COMDAT text$x
text$x	SEGMENT
__ehhandler$?_Tidy_deallocate@?$basic_string@DU?$char_traits@D@std@@V?$allocator@D@2@@std@@AAEXXZ:
  00000	8b 54 24 08	 mov	 edx, DWORD PTR [esp+8]
  00004	8d 42 0c	 lea	 eax, DWORD PTR [edx+12]
  00007	8b 4a ec	 mov	 ecx, DWORD PTR [edx-20]
  0000a	33 c8		 xor	 ecx, eax
  0000c	e8 00 00 00 00	 call	 @__security_check_cookie@4
  00011	b8 00 00 00 00	 mov	 eax, OFFSET __ehfuncinfo$?_Tidy_deallocate@?$basic_string@DU?$char_traits@D@std@@V?$allocator@D@2@@std@@AAEXXZ
  00016	e9 00 00 00 00	 jmp	 ___CxxFrameHandler3
text$x	ENDS
?_Tidy_deallocate@?$basic_string@DU?$char_traits@D@std@@V?$allocator@D@2@@std@@AAEXXZ ENDP ; std::basic_string<char,std::char_traits<char>,std::allocator<char> >::_Tidy_deallocate
; Function compile flags: /Odtp /RTCsu
; File C:\Program Files (x86)\Microsoft Visual Studio\2019\Community\VC\Tools\MSVC\14.23.28105\include\xstring
;	COMDAT ?_Tidy_init@?$basic_string@DU?$char_traits@D@std@@V?$allocator@D@2@@std@@AAEXXZ
_TEXT	SEGMENT
$T1 = -5						; size = 1
_this$ = -4						; size = 4
?_Tidy_init@?$basic_string@DU?$char_traits@D@std@@V?$allocator@D@2@@std@@AAEXXZ PROC ; std::basic_string<char,std::char_traits<char>,std::allocator<char> >::_Tidy_init, COMDAT
; _this$ = ecx

; 4156 :     void _Tidy_init() noexcept { // initialize basic_string data members

  00000	55		 push	 ebp
  00001	8b ec		 mov	 ebp, esp
  00003	83 ec 08	 sub	 esp, 8
  00006	c7 45 f8 cc cc
	cc cc		 mov	 DWORD PTR [ebp-8], -858993460 ; ccccccccH
  0000d	c7 45 fc cc cc
	cc cc		 mov	 DWORD PTR [ebp-4], -858993460 ; ccccccccH
  00014	89 4d fc	 mov	 DWORD PTR _this$[ebp], ecx

; 4157 :         _Mypair._Myval2._Mysize = 0;

  00017	8b 45 fc	 mov	 eax, DWORD PTR _this$[ebp]
  0001a	c7 40 14 00 00
	00 00		 mov	 DWORD PTR [eax+20], 0

; 4158 :         _Mypair._Myval2._Myres  = _BUF_SIZE - 1;

  00021	8b 4d fc	 mov	 ecx, DWORD PTR _this$[ebp]
  00024	c7 41 18 0f 00
	00 00		 mov	 DWORD PTR [ecx+24], 15	; 0000000fH

; 4159 :         // the _Traits::assign is last so the codegen doesn't think the char
; 4160 :         // write can alias this
; 4161 :         _Traits::assign(_Mypair._Myval2._Bx._Buf[0], _Elem());

  0002b	c6 45 fb 00	 mov	 BYTE PTR $T1[ebp], 0
  0002f	8d 55 fb	 lea	 edx, DWORD PTR $T1[ebp]
  00032	52		 push	 edx
  00033	b8 01 00 00 00	 mov	 eax, 1
  00038	6b c8 00	 imul	 ecx, eax, 0
  0003b	8b 55 fc	 mov	 edx, DWORD PTR _this$[ebp]
  0003e	8d 44 0a 04	 lea	 eax, DWORD PTR [edx+ecx+4]
  00042	50		 push	 eax
  00043	e8 00 00 00 00	 call	 ?assign@?$_Narrow_char_traits@DH@std@@SAXAADABD@Z ; std::_Narrow_char_traits<char,int>::assign
  00048	83 c4 08	 add	 esp, 8

; 4162 :     }

  0004b	83 c4 08	 add	 esp, 8
  0004e	3b ec		 cmp	 ebp, esp
  00050	e8 00 00 00 00	 call	 __RTC_CheckEsp
  00055	8b e5		 mov	 esp, ebp
  00057	5d		 pop	 ebp
  00058	c3		 ret	 0
?_Tidy_init@?$basic_string@DU?$char_traits@D@std@@V?$allocator@D@2@@std@@AAEXXZ ENDP ; std::basic_string<char,std::char_traits<char>,std::allocator<char> >::_Tidy_init
_TEXT	ENDS
; Function compile flags: /Odtp /RTCsu
; File C:\Program Files (x86)\Microsoft Visual Studio\2019\Community\VC\Tools\MSVC\14.23.28105\include\xstring
;	COMDAT ?_Calculate_growth@?$basic_string@DU?$char_traits@D@std@@V?$allocator@D@2@@std@@ABEII@Z
_TEXT	SEGMENT
_this$ = -4						; size = 4
__Requested$ = 8					; size = 4
?_Calculate_growth@?$basic_string@DU?$char_traits@D@std@@V?$allocator@D@2@@std@@ABEII@Z PROC ; std::basic_string<char,std::char_traits<char>,std::allocator<char> >::_Calculate_growth, COMDAT
; _this$ = ecx

; 4077 :     _NODISCARD size_type _Calculate_growth(const size_type _Requested) const noexcept {

  00000	55		 push	 ebp
  00001	8b ec		 mov	 ebp, esp
  00003	51		 push	 ecx
  00004	c7 45 fc cc cc
	cc cc		 mov	 DWORD PTR [ebp-4], -858993460 ; ccccccccH
  0000b	89 4d fc	 mov	 DWORD PTR _this$[ebp], ecx

; 4078 :         return _Calculate_growth(_Requested, _Mypair._Myval2._Myres, max_size());

  0000e	8b 4d fc	 mov	 ecx, DWORD PTR _this$[ebp]
  00011	e8 00 00 00 00	 call	 ?max_size@?$basic_string@DU?$char_traits@D@std@@V?$allocator@D@2@@std@@QBEIXZ ; std::basic_string<char,std::char_traits<char>,std::allocator<char> >::max_size
  00016	50		 push	 eax
  00017	8b 45 fc	 mov	 eax, DWORD PTR _this$[ebp]
  0001a	8b 48 18	 mov	 ecx, DWORD PTR [eax+24]
  0001d	51		 push	 ecx
  0001e	8b 55 08	 mov	 edx, DWORD PTR __Requested$[ebp]
  00021	52		 push	 edx
  00022	e8 00 00 00 00	 call	 ?_Calculate_growth@?$basic_string@DU?$char_traits@D@std@@V?$allocator@D@2@@std@@CAIIII@Z ; std::basic_string<char,std::char_traits<char>,std::allocator<char> >::_Calculate_growth
  00027	83 c4 0c	 add	 esp, 12			; 0000000cH

; 4079 :     }

  0002a	83 c4 04	 add	 esp, 4
  0002d	3b ec		 cmp	 ebp, esp
  0002f	e8 00 00 00 00	 call	 __RTC_CheckEsp
  00034	8b e5		 mov	 esp, ebp
  00036	5d		 pop	 ebp
  00037	c2 04 00	 ret	 4
?_Calculate_growth@?$basic_string@DU?$char_traits@D@std@@V?$allocator@D@2@@std@@ABEII@Z ENDP ; std::basic_string<char,std::char_traits<char>,std::allocator<char> >::_Calculate_growth
_TEXT	ENDS
; Function compile flags: /Odtp /RTCsu
; File C:\Program Files (x86)\Microsoft Visual Studio\2019\Community\VC\Tools\MSVC\14.23.28105\include\xstring
;	COMDAT ?_Calculate_growth@?$basic_string@DU?$char_traits@D@std@@V?$allocator@D@2@@std@@CAIIII@Z
_TEXT	SEGMENT
$T1 = -16						; size = 4
__Masked$ = -8						; size = 4
__Requested$ = 8					; size = 4
__Old$ = 12						; size = 4
__Max$ = 16						; size = 4
?_Calculate_growth@?$basic_string@DU?$char_traits@D@std@@V?$allocator@D@2@@std@@CAIIII@Z PROC ; std::basic_string<char,std::char_traits<char>,std::allocator<char> >::_Calculate_growth, COMDAT

; 4064 :         const size_type _Requested, const size_type _Old, const size_type _Max) noexcept {

  00000	55		 push	 ebp
  00001	8b ec		 mov	 ebp, esp
  00003	83 ec 10	 sub	 esp, 16			; 00000010H
  00006	b8 cc cc cc cc	 mov	 eax, -858993460		; ccccccccH
  0000b	89 45 f0	 mov	 DWORD PTR [ebp-16], eax
  0000e	89 45 f4	 mov	 DWORD PTR [ebp-12], eax
  00011	89 45 f8	 mov	 DWORD PTR [ebp-8], eax
  00014	89 45 fc	 mov	 DWORD PTR [ebp-4], eax

; 4065 :         const size_type _Masked = _Requested | _ALLOC_MASK;

  00017	8b 45 08	 mov	 eax, DWORD PTR __Requested$[ebp]
  0001a	83 c8 0f	 or	 eax, 15			; 0000000fH
  0001d	89 45 f8	 mov	 DWORD PTR __Masked$[ebp], eax

; 4066 :         if (_Masked > _Max) { // the mask overflows, settle for max_size()

  00020	8b 4d f8	 mov	 ecx, DWORD PTR __Masked$[ebp]
  00023	3b 4d 10	 cmp	 ecx, DWORD PTR __Max$[ebp]
  00026	76 05		 jbe	 SHORT $LN2@Calculate_

; 4067 :             return _Max;

  00028	8b 45 10	 mov	 eax, DWORD PTR __Max$[ebp]
  0002b	eb 31		 jmp	 SHORT $LN1@Calculate_
$LN2@Calculate_:

; 4068 :         }
; 4069 : 
; 4070 :         if (_Old > _Max - _Old / 2) { // similarly, geometric overflows

  0002d	8b 55 0c	 mov	 edx, DWORD PTR __Old$[ebp]
  00030	d1 ea		 shr	 edx, 1
  00032	8b 45 10	 mov	 eax, DWORD PTR __Max$[ebp]
  00035	2b c2		 sub	 eax, edx
  00037	39 45 0c	 cmp	 DWORD PTR __Old$[ebp], eax
  0003a	76 05		 jbe	 SHORT $LN3@Calculate_

; 4071 :             return _Max;

  0003c	8b 45 10	 mov	 eax, DWORD PTR __Max$[ebp]
  0003f	eb 1d		 jmp	 SHORT $LN1@Calculate_
$LN3@Calculate_:

; 4072 :         }
; 4073 : 
; 4074 :         return _Max_value(_Masked, _Old + _Old / 2);

  00041	8b 4d 0c	 mov	 ecx, DWORD PTR __Old$[ebp]
  00044	d1 e9		 shr	 ecx, 1
  00046	03 4d 0c	 add	 ecx, DWORD PTR __Old$[ebp]
  00049	89 4d f0	 mov	 DWORD PTR $T1[ebp], ecx
  0004c	8d 55 f0	 lea	 edx, DWORD PTR $T1[ebp]
  0004f	52		 push	 edx
  00050	8d 45 f8	 lea	 eax, DWORD PTR __Masked$[ebp]
  00053	50		 push	 eax
  00054	e8 00 00 00 00	 call	 ??$_Max_value@I@std@@YAABIABI0@Z ; std::_Max_value<unsigned int>
  00059	83 c4 08	 add	 esp, 8
  0005c	8b 00		 mov	 eax, DWORD PTR [eax]
$LN1@Calculate_:

; 4075 :     }

  0005e	52		 push	 edx
  0005f	8b cd		 mov	 ecx, ebp
  00061	50		 push	 eax
  00062	8d 15 00 00 00
	00		 lea	 edx, DWORD PTR $LN7@Calculate_
  00068	e8 00 00 00 00	 call	 @_RTC_CheckStackVars@8
  0006d	58		 pop	 eax
  0006e	5a		 pop	 edx
  0006f	83 c4 10	 add	 esp, 16			; 00000010H
  00072	3b ec		 cmp	 ebp, esp
  00074	e8 00 00 00 00	 call	 __RTC_CheckEsp
  00079	8b e5		 mov	 esp, ebp
  0007b	5d		 pop	 ebp
  0007c	c3		 ret	 0
  0007d	0f 1f 00	 npad	 3
$LN7@Calculate_:
  00080	01 00 00 00	 DD	 1
  00084	00 00 00 00	 DD	 $LN6@Calculate_
$LN6@Calculate_:
  00088	f8 ff ff ff	 DD	 -8			; fffffff8H
  0008c	04 00 00 00	 DD	 4
  00090	00 00 00 00	 DD	 $LN5@Calculate_
$LN5@Calculate_:
  00094	5f		 DB	 95			; 0000005fH
  00095	4d		 DB	 77			; 0000004dH
  00096	61		 DB	 97			; 00000061H
  00097	73		 DB	 115			; 00000073H
  00098	6b		 DB	 107			; 0000006bH
  00099	65		 DB	 101			; 00000065H
  0009a	64		 DB	 100			; 00000064H
  0009b	00		 DB	 0
?_Calculate_growth@?$basic_string@DU?$char_traits@D@std@@V?$allocator@D@2@@std@@CAIIII@Z ENDP ; std::basic_string<char,std::char_traits<char>,std::allocator<char> >::_Calculate_growth
_TEXT	ENDS
; Function compile flags: /Odtp /RTCsu
; File C:\Program Files (x86)\Microsoft Visual Studio\2019\Community\VC\Tools\MSVC\14.23.28105\include\xstring
;	COMDAT ?max_size@?$basic_string@DU?$char_traits@D@std@@V?$allocator@D@2@@std@@QBEIXZ
_TEXT	SEGMENT
$T1 = -32						; size = 4
$T2 = -28						; size = 4
$T3 = -24						; size = 4
__Storage_max$ = -20					; size = 4
__Alloc_max$ = -12					; size = 4
_this$ = -4						; size = 4
?max_size@?$basic_string@DU?$char_traits@D@std@@V?$allocator@D@2@@std@@QBEIXZ PROC ; std::basic_string<char,std::char_traits<char>,std::allocator<char> >::max_size, COMDAT
; _this$ = ecx

; 3570 :     _NODISCARD size_type max_size() const noexcept { // return maximum possible length of sequence

  00000	55		 push	 ebp
  00001	8b ec		 mov	 ebp, esp
  00003	83 ec 20	 sub	 esp, 32			; 00000020H
  00006	b8 cc cc cc cc	 mov	 eax, -858993460		; ccccccccH
  0000b	89 45 e0	 mov	 DWORD PTR [ebp-32], eax
  0000e	89 45 e4	 mov	 DWORD PTR [ebp-28], eax
  00011	89 45 e8	 mov	 DWORD PTR [ebp-24], eax
  00014	89 45 ec	 mov	 DWORD PTR [ebp-20], eax
  00017	89 45 f0	 mov	 DWORD PTR [ebp-16], eax
  0001a	89 45 f4	 mov	 DWORD PTR [ebp-12], eax
  0001d	89 45 f8	 mov	 DWORD PTR [ebp-8], eax
  00020	89 45 fc	 mov	 DWORD PTR [ebp-4], eax
  00023	89 4d fc	 mov	 DWORD PTR _this$[ebp], ecx

; 3571 :         const size_type _Alloc_max   = _Alty_traits::max_size(_Getal());

  00026	8b 4d fc	 mov	 ecx, DWORD PTR _this$[ebp]
  00029	e8 00 00 00 00	 call	 ?_Getal@?$basic_string@DU?$char_traits@D@std@@V?$allocator@D@2@@std@@ABEABV?$allocator@D@2@XZ ; std::basic_string<char,std::char_traits<char>,std::allocator<char> >::_Getal
  0002e	50		 push	 eax
  0002f	e8 00 00 00 00	 call	 ?max_size@?$_Default_allocator_traits@V?$allocator@D@std@@@std@@SAIABV?$allocator@D@2@@Z ; std::_Default_allocator_traits<std::allocator<char> >::max_size
  00034	83 c4 04	 add	 esp, 4
  00037	89 45 f4	 mov	 DWORD PTR __Alloc_max$[ebp], eax

; 3572 :         const size_type _Storage_max = // can always store small string

  0003a	c7 45 e8 10 00
	00 00		 mov	 DWORD PTR $T3[ebp], 16	; 00000010H
  00041	8d 45 e8	 lea	 eax, DWORD PTR $T3[ebp]
  00044	50		 push	 eax
  00045	8d 4d f4	 lea	 ecx, DWORD PTR __Alloc_max$[ebp]
  00048	51		 push	 ecx
  00049	e8 00 00 00 00	 call	 ??$_Max_value@I@std@@YAABIABI0@Z ; std::_Max_value<unsigned int>
  0004e	83 c4 08	 add	 esp, 8
  00051	8b 10		 mov	 edx, DWORD PTR [eax]
  00053	89 55 ec	 mov	 DWORD PTR __Storage_max$[ebp], edx

; 3573 :             _Max_value(_Alloc_max, static_cast<size_type>(_BUF_SIZE));
; 3574 :         return _Min_value(static_cast<size_type>((numeric_limits<difference_type>::max)()),

  00056	8b 45 ec	 mov	 eax, DWORD PTR __Storage_max$[ebp]
  00059	83 e8 01	 sub	 eax, 1
  0005c	89 45 e4	 mov	 DWORD PTR $T2[ebp], eax
  0005f	e8 00 00 00 00	 call	 ?max@?$numeric_limits@H@std@@SAHXZ ; std::numeric_limits<int>::max
  00064	89 45 e0	 mov	 DWORD PTR $T1[ebp], eax
  00067	8d 4d e4	 lea	 ecx, DWORD PTR $T2[ebp]
  0006a	51		 push	 ecx
  0006b	8d 55 e0	 lea	 edx, DWORD PTR $T1[ebp]
  0006e	52		 push	 edx
  0006f	e8 00 00 00 00	 call	 ??$_Min_value@I@std@@YAABIABI0@Z ; std::_Min_value<unsigned int>
  00074	83 c4 08	 add	 esp, 8
  00077	8b 00		 mov	 eax, DWORD PTR [eax]

; 3575 :             _Storage_max - 1 // -1 is for null terminator and/or npos
; 3576 :         );
; 3577 :     }

  00079	52		 push	 edx
  0007a	8b cd		 mov	 ecx, ebp
  0007c	50		 push	 eax
  0007d	8d 15 00 00 00
	00		 lea	 edx, DWORD PTR $LN5@max_size
  00083	e8 00 00 00 00	 call	 @_RTC_CheckStackVars@8
  00088	58		 pop	 eax
  00089	5a		 pop	 edx
  0008a	83 c4 20	 add	 esp, 32			; 00000020H
  0008d	3b ec		 cmp	 ebp, esp
  0008f	e8 00 00 00 00	 call	 __RTC_CheckEsp
  00094	8b e5		 mov	 esp, ebp
  00096	5d		 pop	 ebp
  00097	c3		 ret	 0
$LN5@max_size:
  00098	01 00 00 00	 DD	 1
  0009c	00 00 00 00	 DD	 $LN4@max_size
$LN4@max_size:
  000a0	f4 ff ff ff	 DD	 -12			; fffffff4H
  000a4	04 00 00 00	 DD	 4
  000a8	00 00 00 00	 DD	 $LN3@max_size
$LN3@max_size:
  000ac	5f		 DB	 95			; 0000005fH
  000ad	41		 DB	 65			; 00000041H
  000ae	6c		 DB	 108			; 0000006cH
  000af	6c		 DB	 108			; 0000006cH
  000b0	6f		 DB	 111			; 0000006fH
  000b1	63		 DB	 99			; 00000063H
  000b2	5f		 DB	 95			; 0000005fH
  000b3	6d		 DB	 109			; 0000006dH
  000b4	61		 DB	 97			; 00000061H
  000b5	78		 DB	 120			; 00000078H
  000b6	00		 DB	 0
?max_size@?$basic_string@DU?$char_traits@D@std@@V?$allocator@D@2@@std@@QBEIXZ ENDP ; std::basic_string<char,std::char_traits<char>,std::allocator<char> >::max_size
_TEXT	ENDS
; Function compile flags: /Odtp /RTCsu
; File C:\Program Files (x86)\Microsoft Visual Studio\2019\Community\VC\Tools\MSVC\14.23.28105\include\xstring
;	COMDAT ?c_str@?$basic_string@DU?$char_traits@D@std@@V?$allocator@D@2@@std@@QBEPBDXZ
_TEXT	SEGMENT
_this$ = -16						; size = 4
__$EHRec$ = -12						; size = 12
?c_str@?$basic_string@DU?$char_traits@D@std@@V?$allocator@D@2@@std@@QBEPBDXZ PROC ; std::basic_string<char,std::char_traits<char>,std::allocator<char> >::c_str, COMDAT
; _this$ = ecx

; 3548 :     _NODISCARD _Ret_z_ const _Elem* c_str() const noexcept { // return pointer to null-terminated immutable array

  00000	55		 push	 ebp
  00001	8b ec		 mov	 ebp, esp
  00003	6a ff		 push	 -1
  00005	68 00 00 00 00	 push	 __ehhandler$?c_str@?$basic_string@DU?$char_traits@D@std@@V?$allocator@D@2@@std@@QBEPBDXZ
  0000a	64 a1 00 00 00
	00		 mov	 eax, DWORD PTR fs:0
  00010	50		 push	 eax
  00011	51		 push	 ecx
  00012	c7 45 f0 cc cc
	cc cc		 mov	 DWORD PTR [ebp-16], -858993460 ; ccccccccH
  00019	a1 00 00 00 00	 mov	 eax, DWORD PTR ___security_cookie
  0001e	33 c5		 xor	 eax, ebp
  00020	50		 push	 eax
  00021	8d 45 f4	 lea	 eax, DWORD PTR __$EHRec$[ebp]
  00024	64 a3 00 00 00
	00		 mov	 DWORD PTR fs:0, eax
  0002a	89 4d f0	 mov	 DWORD PTR _this$[ebp], ecx

; 3549 :         return _Mypair._Myval2._Myptr();

  0002d	8b 4d f0	 mov	 ecx, DWORD PTR _this$[ebp]
  00030	e8 00 00 00 00	 call	 ?_Myptr@?$_String_val@U?$_Simple_types@D@std@@@std@@QBEPBDXZ ; std::_String_val<std::_Simple_types<char> >::_Myptr

; 3550 :     }

  00035	8b 4d f4	 mov	 ecx, DWORD PTR __$EHRec$[ebp]
  00038	64 89 0d 00 00
	00 00		 mov	 DWORD PTR fs:0, ecx
  0003f	59		 pop	 ecx
  00040	83 c4 10	 add	 esp, 16			; 00000010H
  00043	3b ec		 cmp	 ebp, esp
  00045	e8 00 00 00 00	 call	 __RTC_CheckEsp
  0004a	8b e5		 mov	 esp, ebp
  0004c	5d		 pop	 ebp
  0004d	c3		 ret	 0
_TEXT	ENDS
;	COMDAT text$x
text$x	SEGMENT
__ehhandler$?c_str@?$basic_string@DU?$char_traits@D@std@@V?$allocator@D@2@@std@@QBEPBDXZ:
  00000	8b 54 24 08	 mov	 edx, DWORD PTR [esp+8]
  00004	8d 42 0c	 lea	 eax, DWORD PTR [edx+12]
  00007	8b 4a f8	 mov	 ecx, DWORD PTR [edx-8]
  0000a	33 c8		 xor	 ecx, eax
  0000c	e8 00 00 00 00	 call	 @__security_check_cookie@4
  00011	b8 00 00 00 00	 mov	 eax, OFFSET __ehfuncinfo$?c_str@?$basic_string@DU?$char_traits@D@std@@V?$allocator@D@2@@std@@QBEPBDXZ
  00016	e9 00 00 00 00	 jmp	 ___CxxFrameHandler3
text$x	ENDS
?c_str@?$basic_string@DU?$char_traits@D@std@@V?$allocator@D@2@@std@@QBEPBDXZ ENDP ; std::basic_string<char,std::char_traits<char>,std::allocator<char> >::c_str
; Function compile flags: /Odtp /RTCsu
; File C:\Program Files (x86)\Microsoft Visual Studio\2019\Community\VC\Tools\MSVC\14.23.28105\include\xstring
;	COMDAT ?assign@?$basic_string@DU?$char_traits@D@std@@V?$allocator@D@2@@std@@QAEAAV12@QBD@Z
_TEXT	SEGMENT
_this$ = -4						; size = 4
__Ptr$ = 8						; size = 4
?assign@?$basic_string@DU?$char_traits@D@std@@V?$allocator@D@2@@std@@QAEAAV12@QBD@Z PROC ; std::basic_string<char,std::char_traits<char>,std::allocator<char> >::assign, COMDAT
; _this$ = ecx

; 2860 :     basic_string& assign(_In_z_ const _Elem* const _Ptr) { // assign [_Ptr, <null>)

  00000	55		 push	 ebp
  00001	8b ec		 mov	 ebp, esp
  00003	51		 push	 ecx
  00004	c7 45 fc cc cc
	cc cc		 mov	 DWORD PTR [ebp-4], -858993460 ; ccccccccH
  0000b	89 4d fc	 mov	 DWORD PTR _this$[ebp], ecx

; 2861 :         return assign(_Ptr, _Convert_size<size_type>(_Traits::length(_Ptr)));

  0000e	8b 45 08	 mov	 eax, DWORD PTR __Ptr$[ebp]
  00011	50		 push	 eax
  00012	e8 00 00 00 00	 call	 ?length@?$_Narrow_char_traits@DH@std@@SAIQBD@Z ; std::_Narrow_char_traits<char,int>::length
  00017	83 c4 04	 add	 esp, 4
  0001a	50		 push	 eax
  0001b	e8 00 00 00 00	 call	 ??$_Convert_size@I@std@@YAII@Z ; std::_Convert_size<unsigned int>
  00020	83 c4 04	 add	 esp, 4
  00023	50		 push	 eax
  00024	8b 4d 08	 mov	 ecx, DWORD PTR __Ptr$[ebp]
  00027	51		 push	 ecx
  00028	8b 4d fc	 mov	 ecx, DWORD PTR _this$[ebp]
  0002b	e8 00 00 00 00	 call	 ?assign@?$basic_string@DU?$char_traits@D@std@@V?$allocator@D@2@@std@@QAEAAV12@QBDI@Z ; std::basic_string<char,std::char_traits<char>,std::allocator<char> >::assign

; 2862 :     }

  00030	83 c4 04	 add	 esp, 4
  00033	3b ec		 cmp	 ebp, esp
  00035	e8 00 00 00 00	 call	 __RTC_CheckEsp
  0003a	8b e5		 mov	 esp, ebp
  0003c	5d		 pop	 ebp
  0003d	c2 04 00	 ret	 4
?assign@?$basic_string@DU?$char_traits@D@std@@V?$allocator@D@2@@std@@QAEAAV12@QBD@Z ENDP ; std::basic_string<char,std::char_traits<char>,std::allocator<char> >::assign
_TEXT	ENDS
; Function compile flags: /Odtp /RTCsu
; File C:\Program Files (x86)\Microsoft Visual Studio\2019\Community\VC\Tools\MSVC\14.23.28105\include\xstring
;	COMDAT ?assign@?$basic_string@DU?$char_traits@D@std@@V?$allocator@D@2@@std@@QAEAAV12@QBDI@Z
_TEXT	SEGMENT
$T1 = -10						; size = 1
$T2 = -9						; size = 1
__Old_ptr$3 = -8					; size = 4
_this$ = -4						; size = 4
__Ptr$ = 8						; size = 4
__Count$ = 12						; size = 4
?assign@?$basic_string@DU?$char_traits@D@std@@V?$allocator@D@2@@std@@QAEAAV12@QBDI@Z PROC ; std::basic_string<char,std::char_traits<char>,std::allocator<char> >::assign, COMDAT
; _this$ = ecx

; 2841 :     basic_string& assign(_In_reads_(_Count) const _Elem* const _Ptr, _CRT_GUARDOVERFLOW const size_type _Count) {

  00000	55		 push	 ebp
  00001	8b ec		 mov	 ebp, esp
  00003	83 ec 0c	 sub	 esp, 12			; 0000000cH
  00006	c7 45 f4 cc cc
	cc cc		 mov	 DWORD PTR [ebp-12], -858993460 ; ccccccccH
  0000d	c7 45 f8 cc cc
	cc cc		 mov	 DWORD PTR [ebp-8], -858993460 ; ccccccccH
  00014	c7 45 fc cc cc
	cc cc		 mov	 DWORD PTR [ebp-4], -858993460 ; ccccccccH
  0001b	89 4d fc	 mov	 DWORD PTR _this$[ebp], ecx

; 2842 :         // assign [_Ptr, _Ptr + _Count)
; 2843 :         if (_Count <= _Mypair._Myval2._Myres) {

  0001e	8b 45 fc	 mov	 eax, DWORD PTR _this$[ebp]
  00021	8b 4d 0c	 mov	 ecx, DWORD PTR __Count$[ebp]
  00024	3b 48 18	 cmp	 ecx, DWORD PTR [eax+24]
  00027	77 44		 ja	 SHORT $LN2@assign

; 2844 :             _Elem* const _Old_ptr   = _Mypair._Myval2._Myptr();

  00029	8b 4d fc	 mov	 ecx, DWORD PTR _this$[ebp]
  0002c	e8 00 00 00 00	 call	 ?_Myptr@?$_String_val@U?$_Simple_types@D@std@@@std@@QAEPADXZ ; std::_String_val<std::_Simple_types<char> >::_Myptr
  00031	89 45 f8	 mov	 DWORD PTR __Old_ptr$3[ebp], eax

; 2845 :             _Mypair._Myval2._Mysize = _Count;

  00034	8b 55 fc	 mov	 edx, DWORD PTR _this$[ebp]
  00037	8b 45 0c	 mov	 eax, DWORD PTR __Count$[ebp]
  0003a	89 42 14	 mov	 DWORD PTR [edx+20], eax

; 2846 :             _Traits::move(_Old_ptr, _Ptr, _Count);

  0003d	8b 4d 0c	 mov	 ecx, DWORD PTR __Count$[ebp]
  00040	51		 push	 ecx
  00041	8b 55 08	 mov	 edx, DWORD PTR __Ptr$[ebp]
  00044	52		 push	 edx
  00045	8b 45 f8	 mov	 eax, DWORD PTR __Old_ptr$3[ebp]
  00048	50		 push	 eax
  00049	e8 00 00 00 00	 call	 ?move@?$_Narrow_char_traits@DH@std@@SAPADQADQBDI@Z ; std::_Narrow_char_traits<char,int>::move
  0004e	83 c4 0c	 add	 esp, 12			; 0000000cH

; 2847 :             _Traits::assign(_Old_ptr[_Count], _Elem());

  00051	c6 45 f7 00	 mov	 BYTE PTR $T2[ebp], 0
  00055	8d 4d f7	 lea	 ecx, DWORD PTR $T2[ebp]
  00058	51		 push	 ecx
  00059	8b 55 f8	 mov	 edx, DWORD PTR __Old_ptr$3[ebp]
  0005c	03 55 0c	 add	 edx, DWORD PTR __Count$[ebp]
  0005f	52		 push	 edx
  00060	e8 00 00 00 00	 call	 ?assign@?$_Narrow_char_traits@DH@std@@SAXAADABD@Z ; std::_Narrow_char_traits<char,int>::assign
  00065	83 c4 08	 add	 esp, 8

; 2848 :             return *this;

  00068	8b 45 fc	 mov	 eax, DWORD PTR _this$[ebp]
  0006b	eb 1a		 jmp	 SHORT $LN1@assign
$LN2@assign:

; 2849 :         }
; 2850 : 
; 2851 :         return _Reallocate_for(

  0006d	33 c0		 xor	 eax, eax
  0006f	88 45 f6	 mov	 BYTE PTR $T1[ebp], al
  00072	8b 4d 08	 mov	 ecx, DWORD PTR __Ptr$[ebp]
  00075	51		 push	 ecx
  00076	0f b6 55 f6	 movzx	 edx, BYTE PTR $T1[ebp]
  0007a	52		 push	 edx
  0007b	8b 45 0c	 mov	 eax, DWORD PTR __Count$[ebp]
  0007e	50		 push	 eax
  0007f	8b 4d fc	 mov	 ecx, DWORD PTR _this$[ebp]
  00082	e8 00 00 00 00	 call	 ??$_Reallocate_for@V<lambda_9366063389c5f42a00a5088cf24e69de>@@PBD@?$basic_string@DU?$char_traits@D@std@@V?$allocator@D@2@@std@@AAEAAV01@IV<lambda_9366063389c5f42a00a5088cf24e69de>@@PBD@Z ; std::basic_string<char,std::char_traits<char>,std::allocator<char> >::_Reallocate_for<<lambda_9366063389c5f42a00a5088cf24e69de>,char const *>
$LN1@assign:

; 2852 :             _Count,
; 2853 :             [](_Elem* const _New_ptr, const size_type _Count, const _Elem* const _Ptr) {
; 2854 :                 _Traits::copy(_New_ptr, _Ptr, _Count);
; 2855 :                 _Traits::assign(_New_ptr[_Count], _Elem());
; 2856 :             },
; 2857 :             _Ptr);
; 2858 :     }

  00087	83 c4 0c	 add	 esp, 12			; 0000000cH
  0008a	3b ec		 cmp	 ebp, esp
  0008c	e8 00 00 00 00	 call	 __RTC_CheckEsp
  00091	8b e5		 mov	 esp, ebp
  00093	5d		 pop	 ebp
  00094	c2 08 00	 ret	 8
?assign@?$basic_string@DU?$char_traits@D@std@@V?$allocator@D@2@@std@@QAEAAV12@QBDI@Z ENDP ; std::basic_string<char,std::char_traits<char>,std::allocator<char> >::assign
_TEXT	ENDS
; Function compile flags: /Odtp /RTCsu
; File C:\Program Files (x86)\Microsoft Visual Studio\2019\Community\VC\Tools\MSVC\14.23.28105\include\xstring
;	COMDAT ?append@?$basic_string@DU?$char_traits@D@std@@V?$allocator@D@2@@std@@QAEAAV12@QBD@Z
_TEXT	SEGMENT
_this$ = -4						; size = 4
__Ptr$ = 8						; size = 4
?append@?$basic_string@DU?$char_traits@D@std@@V?$allocator@D@2@@std@@QAEAAV12@QBD@Z PROC ; std::basic_string<char,std::char_traits<char>,std::allocator<char> >::append, COMDAT
; _this$ = ecx

; 2756 :     basic_string& append(_In_z_ const _Elem* const _Ptr) { // append [_Ptr, <null>)

  00000	55		 push	 ebp
  00001	8b ec		 mov	 ebp, esp
  00003	51		 push	 ecx
  00004	c7 45 fc cc cc
	cc cc		 mov	 DWORD PTR [ebp-4], -858993460 ; ccccccccH
  0000b	89 4d fc	 mov	 DWORD PTR _this$[ebp], ecx

; 2757 :         return append(_Ptr, _Convert_size<size_type>(_Traits::length(_Ptr)));

  0000e	8b 45 08	 mov	 eax, DWORD PTR __Ptr$[ebp]
  00011	50		 push	 eax
  00012	e8 00 00 00 00	 call	 ?length@?$_Narrow_char_traits@DH@std@@SAIQBD@Z ; std::_Narrow_char_traits<char,int>::length
  00017	83 c4 04	 add	 esp, 4
  0001a	50		 push	 eax
  0001b	e8 00 00 00 00	 call	 ??$_Convert_size@I@std@@YAII@Z ; std::_Convert_size<unsigned int>
  00020	83 c4 04	 add	 esp, 4
  00023	50		 push	 eax
  00024	8b 4d 08	 mov	 ecx, DWORD PTR __Ptr$[ebp]
  00027	51		 push	 ecx
  00028	8b 4d fc	 mov	 ecx, DWORD PTR _this$[ebp]
  0002b	e8 00 00 00 00	 call	 ?append@?$basic_string@DU?$char_traits@D@std@@V?$allocator@D@2@@std@@QAEAAV12@QBDI@Z ; std::basic_string<char,std::char_traits<char>,std::allocator<char> >::append

; 2758 :     }

  00030	83 c4 04	 add	 esp, 4
  00033	3b ec		 cmp	 ebp, esp
  00035	e8 00 00 00 00	 call	 __RTC_CheckEsp
  0003a	8b e5		 mov	 esp, ebp
  0003c	5d		 pop	 ebp
  0003d	c2 04 00	 ret	 4
?append@?$basic_string@DU?$char_traits@D@std@@V?$allocator@D@2@@std@@QAEAAV12@QBD@Z ENDP ; std::basic_string<char,std::char_traits<char>,std::allocator<char> >::append
_TEXT	ENDS
; Function compile flags: /Odtp /RTCsu
; File C:\Program Files (x86)\Microsoft Visual Studio\2019\Community\VC\Tools\MSVC\14.23.28105\include\xstring
;	COMDAT ?append@?$basic_string@DU?$char_traits@D@std@@V?$allocator@D@2@@std@@QAEAAV12@QBDI@Z
_TEXT	SEGMENT
$T1 = -14						; size = 1
$T2 = -13						; size = 1
__Old_ptr$3 = -12					; size = 4
__Old_size$ = -8					; size = 4
_this$ = -4						; size = 4
__Ptr$ = 8						; size = 4
__Count$ = 12						; size = 4
?append@?$basic_string@DU?$char_traits@D@std@@V?$allocator@D@2@@std@@QAEAAV12@QBDI@Z PROC ; std::basic_string<char,std::char_traits<char>,std::allocator<char> >::append, COMDAT
; _this$ = ecx

; 2734 :     basic_string& append(_In_reads_(_Count) const _Elem* const _Ptr, _CRT_GUARDOVERFLOW const size_type _Count) {

  00000	55		 push	 ebp
  00001	8b ec		 mov	 ebp, esp
  00003	83 ec 10	 sub	 esp, 16			; 00000010H
  00006	b8 cc cc cc cc	 mov	 eax, -858993460		; ccccccccH
  0000b	89 45 f0	 mov	 DWORD PTR [ebp-16], eax
  0000e	89 45 f4	 mov	 DWORD PTR [ebp-12], eax
  00011	89 45 f8	 mov	 DWORD PTR [ebp-8], eax
  00014	89 45 fc	 mov	 DWORD PTR [ebp-4], eax
  00017	89 4d fc	 mov	 DWORD PTR _this$[ebp], ecx

; 2735 :         // append [_Ptr, _Ptr + _Count)
; 2736 :         const size_type _Old_size = _Mypair._Myval2._Mysize;

  0001a	8b 45 fc	 mov	 eax, DWORD PTR _this$[ebp]
  0001d	8b 48 14	 mov	 ecx, DWORD PTR [eax+20]
  00020	89 4d f8	 mov	 DWORD PTR __Old_size$[ebp], ecx

; 2737 :         if (_Count <= _Mypair._Myval2._Myres - _Old_size) {

  00023	8b 55 fc	 mov	 edx, DWORD PTR _this$[ebp]
  00026	8b 42 18	 mov	 eax, DWORD PTR [edx+24]
  00029	2b 45 f8	 sub	 eax, DWORD PTR __Old_size$[ebp]
  0002c	39 45 0c	 cmp	 DWORD PTR __Count$[ebp], eax
  0002f	77 4d		 ja	 SHORT $LN2@append

; 2738 :             _Mypair._Myval2._Mysize = _Old_size + _Count;

  00031	8b 4d f8	 mov	 ecx, DWORD PTR __Old_size$[ebp]
  00034	03 4d 0c	 add	 ecx, DWORD PTR __Count$[ebp]
  00037	8b 55 fc	 mov	 edx, DWORD PTR _this$[ebp]
  0003a	89 4a 14	 mov	 DWORD PTR [edx+20], ecx

; 2739 :             _Elem* const _Old_ptr   = _Mypair._Myval2._Myptr();

  0003d	8b 4d fc	 mov	 ecx, DWORD PTR _this$[ebp]
  00040	e8 00 00 00 00	 call	 ?_Myptr@?$_String_val@U?$_Simple_types@D@std@@@std@@QAEPADXZ ; std::_String_val<std::_Simple_types<char> >::_Myptr
  00045	89 45 f4	 mov	 DWORD PTR __Old_ptr$3[ebp], eax

; 2740 :             _Traits::move(_Old_ptr + _Old_size, _Ptr, _Count);

  00048	8b 45 0c	 mov	 eax, DWORD PTR __Count$[ebp]
  0004b	50		 push	 eax
  0004c	8b 4d 08	 mov	 ecx, DWORD PTR __Ptr$[ebp]
  0004f	51		 push	 ecx
  00050	8b 55 f4	 mov	 edx, DWORD PTR __Old_ptr$3[ebp]
  00053	03 55 f8	 add	 edx, DWORD PTR __Old_size$[ebp]
  00056	52		 push	 edx
  00057	e8 00 00 00 00	 call	 ?move@?$_Narrow_char_traits@DH@std@@SAPADQADQBDI@Z ; std::_Narrow_char_traits<char,int>::move
  0005c	83 c4 0c	 add	 esp, 12			; 0000000cH

; 2741 :             _Traits::assign(_Old_ptr[_Old_size + _Count], _Elem());

  0005f	c6 45 f3 00	 mov	 BYTE PTR $T2[ebp], 0
  00063	8d 45 f3	 lea	 eax, DWORD PTR $T2[ebp]
  00066	50		 push	 eax
  00067	8b 4d f8	 mov	 ecx, DWORD PTR __Old_size$[ebp]
  0006a	03 4d 0c	 add	 ecx, DWORD PTR __Count$[ebp]
  0006d	03 4d f4	 add	 ecx, DWORD PTR __Old_ptr$3[ebp]
  00070	51		 push	 ecx
  00071	e8 00 00 00 00	 call	 ?assign@?$_Narrow_char_traits@DH@std@@SAXAADABD@Z ; std::_Narrow_char_traits<char,int>::assign
  00076	83 c4 08	 add	 esp, 8

; 2742 :             return *this;

  00079	8b 45 fc	 mov	 eax, DWORD PTR _this$[ebp]
  0007c	eb 1e		 jmp	 SHORT $LN1@append
$LN2@append:

; 2743 :         }
; 2744 : 
; 2745 :         return _Reallocate_grow_by(

  0007e	33 d2		 xor	 edx, edx
  00080	88 55 f2	 mov	 BYTE PTR $T1[ebp], dl
  00083	8b 45 0c	 mov	 eax, DWORD PTR __Count$[ebp]
  00086	50		 push	 eax
  00087	8b 4d 08	 mov	 ecx, DWORD PTR __Ptr$[ebp]
  0008a	51		 push	 ecx
  0008b	0f b6 55 f2	 movzx	 edx, BYTE PTR $T1[ebp]
  0008f	52		 push	 edx
  00090	8b 45 0c	 mov	 eax, DWORD PTR __Count$[ebp]
  00093	50		 push	 eax
  00094	8b 4d fc	 mov	 ecx, DWORD PTR _this$[ebp]
  00097	e8 00 00 00 00	 call	 ??$_Reallocate_grow_by@V<lambda_ab246b20b9526e2ef7792587e4298a77>@@PBDI@?$basic_string@DU?$char_traits@D@std@@V?$allocator@D@2@@std@@AAEAAV01@IV<lambda_ab246b20b9526e2ef7792587e4298a77>@@PBDI@Z ; std::basic_string<char,std::char_traits<char>,std::allocator<char> >::_Reallocate_grow_by<<lambda_ab246b20b9526e2ef7792587e4298a77>,char const *,unsigned int>
$LN1@append:

; 2746 :             _Count,
; 2747 :             [](_Elem* const _New_ptr, const _Elem* const _Old_ptr, const size_type _Old_size, const _Elem* const _Ptr,
; 2748 :                 const size_type _Count) {
; 2749 :                 _Traits::copy(_New_ptr, _Old_ptr, _Old_size);
; 2750 :                 _Traits::copy(_New_ptr + _Old_size, _Ptr, _Count);
; 2751 :                 _Traits::assign(_New_ptr[_Old_size + _Count], _Elem());
; 2752 :             },
; 2753 :             _Ptr, _Count);
; 2754 :     }

  0009c	83 c4 10	 add	 esp, 16			; 00000010H
  0009f	3b ec		 cmp	 ebp, esp
  000a1	e8 00 00 00 00	 call	 __RTC_CheckEsp
  000a6	8b e5		 mov	 esp, ebp
  000a8	5d		 pop	 ebp
  000a9	c2 08 00	 ret	 8
?append@?$basic_string@DU?$char_traits@D@std@@V?$allocator@D@2@@std@@QAEAAV12@QBDI@Z ENDP ; std::basic_string<char,std::char_traits<char>,std::allocator<char> >::append
_TEXT	ENDS
; Function compile flags: /Odtp /RTCsu
; File C:\Program Files (x86)\Microsoft Visual Studio\2019\Community\VC\Tools\MSVC\14.23.28105\include\xstring
;	COMDAT ?append@?$basic_string@DU?$char_traits@D@std@@V?$allocator@D@2@@std@@QAEAAV12@ABV12@@Z
_TEXT	SEGMENT
_this$ = -4						; size = 4
__Right$ = 8						; size = 4
?append@?$basic_string@DU?$char_traits@D@std@@V?$allocator@D@2@@std@@QAEAAV12@ABV12@@Z PROC ; std::basic_string<char,std::char_traits<char>,std::allocator<char> >::append, COMDAT
; _this$ = ecx

; 2708 :     basic_string& append(const basic_string& _Right) { // append _Right

  00000	55		 push	 ebp
  00001	8b ec		 mov	 ebp, esp
  00003	51		 push	 ecx
  00004	c7 45 fc cc cc
	cc cc		 mov	 DWORD PTR [ebp-4], -858993460 ; ccccccccH
  0000b	89 4d fc	 mov	 DWORD PTR _this$[ebp], ecx

; 2709 :         return append(_Right._Mypair._Myval2._Myptr(), _Right._Mypair._Myval2._Mysize);

  0000e	8b 45 08	 mov	 eax, DWORD PTR __Right$[ebp]
  00011	8b 48 14	 mov	 ecx, DWORD PTR [eax+20]
  00014	51		 push	 ecx
  00015	8b 4d 08	 mov	 ecx, DWORD PTR __Right$[ebp]
  00018	e8 00 00 00 00	 call	 ?_Myptr@?$_String_val@U?$_Simple_types@D@std@@@std@@QBEPBDXZ ; std::_String_val<std::_Simple_types<char> >::_Myptr
  0001d	50		 push	 eax
  0001e	8b 4d fc	 mov	 ecx, DWORD PTR _this$[ebp]
  00021	e8 00 00 00 00	 call	 ?append@?$basic_string@DU?$char_traits@D@std@@V?$allocator@D@2@@std@@QAEAAV12@QBDI@Z ; std::basic_string<char,std::char_traits<char>,std::allocator<char> >::append

; 2710 :     }

  00026	83 c4 04	 add	 esp, 4
  00029	3b ec		 cmp	 ebp, esp
  0002b	e8 00 00 00 00	 call	 __RTC_CheckEsp
  00030	8b e5		 mov	 esp, ebp
  00032	5d		 pop	 ebp
  00033	c2 04 00	 ret	 4
?append@?$basic_string@DU?$char_traits@D@std@@V?$allocator@D@2@@std@@QAEAAV12@ABV12@@Z ENDP ; std::basic_string<char,std::char_traits<char>,std::allocator<char> >::append
_TEXT	ENDS
; Function compile flags: /Odtp /RTCsu
; File C:\Program Files (x86)\Microsoft Visual Studio\2019\Community\VC\Tools\MSVC\14.23.28105\include\xstring
;	COMDAT ??Y?$basic_string@DU?$char_traits@D@std@@V?$allocator@D@2@@std@@QAEAAV01@ABV01@@Z
_TEXT	SEGMENT
_this$ = -4						; size = 4
__Right$ = 8						; size = 4
??Y?$basic_string@DU?$char_traits@D@std@@V?$allocator@D@2@@std@@QAEAAV01@ABV01@@Z PROC ; std::basic_string<char,std::char_traits<char>,std::allocator<char> >::operator+=, COMDAT
; _this$ = ecx

; 2688 :     basic_string& operator+=(const basic_string& _Right) { // append _Right

  00000	55		 push	 ebp
  00001	8b ec		 mov	 ebp, esp
  00003	51		 push	 ecx
  00004	c7 45 fc cc cc
	cc cc		 mov	 DWORD PTR [ebp-4], -858993460 ; ccccccccH
  0000b	89 4d fc	 mov	 DWORD PTR _this$[ebp], ecx

; 2689 :         return append(_Right);

  0000e	8b 45 08	 mov	 eax, DWORD PTR __Right$[ebp]
  00011	50		 push	 eax
  00012	8b 4d fc	 mov	 ecx, DWORD PTR _this$[ebp]
  00015	e8 00 00 00 00	 call	 ?append@?$basic_string@DU?$char_traits@D@std@@V?$allocator@D@2@@std@@QAEAAV12@ABV12@@Z ; std::basic_string<char,std::char_traits<char>,std::allocator<char> >::append

; 2690 :     }

  0001a	83 c4 04	 add	 esp, 4
  0001d	3b ec		 cmp	 ebp, esp
  0001f	e8 00 00 00 00	 call	 __RTC_CheckEsp
  00024	8b e5		 mov	 esp, ebp
  00026	5d		 pop	 ebp
  00027	c2 04 00	 ret	 4
??Y?$basic_string@DU?$char_traits@D@std@@V?$allocator@D@2@@std@@QAEAAV01@ABV01@@Z ENDP ; std::basic_string<char,std::char_traits<char>,std::allocator<char> >::operator+=
_TEXT	ENDS
; Function compile flags: /Odtp /RTCsu
; File C:\Program Files (x86)\Microsoft Visual Studio\2019\Community\VC\Tools\MSVC\14.23.28105\include\xstring
;	COMDAT ??1?$basic_string@DU?$char_traits@D@std@@V?$allocator@D@2@@std@@QAE@XZ
_TEXT	SEGMENT
__To_delete$ = -36					; size = 4
_$S9$ = -25						; size = 1
__Alproxy$ = -20					; size = 4
_this$ = -16						; size = 4
__$EHRec$ = -12						; size = 12
??1?$basic_string@DU?$char_traits@D@std@@V?$allocator@D@2@@std@@QAE@XZ PROC ; std::basic_string<char,std::char_traits<char>,std::allocator<char> >::~basic_string<char,std::char_traits<char>,std::allocator<char> >, COMDAT
; _this$ = ecx

; 2597 :     ~basic_string() noexcept { // destroy the string

  00000	55		 push	 ebp
  00001	8b ec		 mov	 ebp, esp
  00003	6a ff		 push	 -1
  00005	68 00 00 00 00	 push	 __ehhandler$??1?$basic_string@DU?$char_traits@D@std@@V?$allocator@D@2@@std@@QAE@XZ
  0000a	64 a1 00 00 00
	00		 mov	 eax, DWORD PTR fs:0
  00010	50		 push	 eax
  00011	83 ec 18	 sub	 esp, 24			; 00000018H
  00014	b8 cc cc cc cc	 mov	 eax, -858993460		; ccccccccH
  00019	89 45 dc	 mov	 DWORD PTR [ebp-36], eax
  0001c	89 45 e0	 mov	 DWORD PTR [ebp-32], eax
  0001f	89 45 e4	 mov	 DWORD PTR [ebp-28], eax
  00022	89 45 e8	 mov	 DWORD PTR [ebp-24], eax
  00025	89 45 ec	 mov	 DWORD PTR [ebp-20], eax
  00028	89 45 f0	 mov	 DWORD PTR [ebp-16], eax
  0002b	a1 00 00 00 00	 mov	 eax, DWORD PTR ___security_cookie
  00030	33 c5		 xor	 eax, ebp
  00032	50		 push	 eax
  00033	8d 45 f4	 lea	 eax, DWORD PTR __$EHRec$[ebp]
  00036	64 a3 00 00 00
	00		 mov	 DWORD PTR fs:0, eax
  0003c	89 4d f0	 mov	 DWORD PTR _this$[ebp], ecx
  0003f	c7 45 fc 00 00
	00 00		 mov	 DWORD PTR __$EHRec$[ebp+8], 0

; 2598 :         _Tidy_deallocate();

  00046	8b 4d f0	 mov	 ecx, DWORD PTR _this$[ebp]
  00049	e8 00 00 00 00	 call	 ?_Tidy_deallocate@?$basic_string@DU?$char_traits@D@std@@V?$allocator@D@2@@std@@AAEXXZ ; std::basic_string<char,std::char_traits<char>,std::allocator<char> >::_Tidy_deallocate

; 2599 : #if _ITERATOR_DEBUG_LEVEL != 0
; 2600 :         auto&& _Alproxy          = _GET_PROXY_ALLOCATOR(_Alty, _Getal());

  0004e	8b 4d f0	 mov	 ecx, DWORD PTR _this$[ebp]
  00051	e8 00 00 00 00	 call	 ?_Getal@?$basic_string@DU?$char_traits@D@std@@V?$allocator@D@2@@std@@AAEAAV?$allocator@D@2@XZ ; std::basic_string<char,std::char_traits<char>,std::allocator<char> >::_Getal
  00056	50		 push	 eax
  00057	8d 4d e7	 lea	 ecx, DWORD PTR _$S9$[ebp]
  0005a	e8 00 00 00 00	 call	 ??$?0D@?$allocator@U_Container_proxy@std@@@std@@QAE@ABV?$allocator@D@1@@Z ; std::allocator<std::_Container_proxy>::allocator<std::_Container_proxy><char>
  0005f	8d 45 e7	 lea	 eax, DWORD PTR _$S9$[ebp]
  00062	89 45 ec	 mov	 DWORD PTR __Alproxy$[ebp], eax

; 2601 :         const auto _To_delete    = _Mypair._Myval2._Myproxy;

  00065	8b 4d f0	 mov	 ecx, DWORD PTR _this$[ebp]
  00068	8b 11		 mov	 edx, DWORD PTR [ecx]
  0006a	89 55 dc	 mov	 DWORD PTR __To_delete$[ebp], edx

; 2602 :         _Mypair._Myval2._Myproxy = nullptr;

  0006d	8b 45 f0	 mov	 eax, DWORD PTR _this$[ebp]
  00070	c7 00 00 00 00
	00		 mov	 DWORD PTR [eax], 0

; 2603 :         _Delete_plain_internal(_Alproxy, _To_delete);

  00076	8b 4d dc	 mov	 ecx, DWORD PTR __To_delete$[ebp]
  00079	51		 push	 ecx
  0007a	8b 55 ec	 mov	 edx, DWORD PTR __Alproxy$[ebp]
  0007d	52		 push	 edx
  0007e	e8 00 00 00 00	 call	 ??$_Delete_plain_internal@V?$allocator@U_Container_proxy@std@@@std@@@std@@YAXAAV?$allocator@U_Container_proxy@std@@@0@QAU_Container_proxy@0@@Z ; std::_Delete_plain_internal<std::allocator<std::_Container_proxy> >
  00083	83 c4 08	 add	 esp, 8

; 2604 : #endif // _ITERATOR_DEBUG_LEVEL != 0
; 2605 :     }

  00086	c7 45 fc ff ff
	ff ff		 mov	 DWORD PTR __$EHRec$[ebp+8], -1
  0008d	8b 4d f0	 mov	 ecx, DWORD PTR _this$[ebp]
  00090	e8 00 00 00 00	 call	 ??1?$_Compressed_pair@V?$allocator@D@std@@V?$_String_val@U?$_Simple_types@D@std@@@2@$00@std@@QAE@XZ
  00095	52		 push	 edx
  00096	8b cd		 mov	 ecx, ebp
  00098	50		 push	 eax
  00099	8d 15 00 00 00
	00		 lea	 edx, DWORD PTR $LN7@basic_stri
  0009f	e8 00 00 00 00	 call	 @_RTC_CheckStackVars@8
  000a4	58		 pop	 eax
  000a5	5a		 pop	 edx
  000a6	8b 4d f4	 mov	 ecx, DWORD PTR __$EHRec$[ebp]
  000a9	64 89 0d 00 00
	00 00		 mov	 DWORD PTR fs:0, ecx
  000b0	59		 pop	 ecx
  000b1	83 c4 24	 add	 esp, 36			; 00000024H
  000b4	3b ec		 cmp	 ebp, esp
  000b6	e8 00 00 00 00	 call	 __RTC_CheckEsp
  000bb	8b e5		 mov	 esp, ebp
  000bd	5d		 pop	 ebp
  000be	c3		 ret	 0
  000bf	90		 npad	 1
$LN7@basic_stri:
  000c0	01 00 00 00	 DD	 1
  000c4	00 00 00 00	 DD	 $LN6@basic_stri
$LN6@basic_stri:
  000c8	e7 ff ff ff	 DD	 -25			; ffffffe7H
  000cc	01 00 00 00	 DD	 1
  000d0	00 00 00 00	 DD	 $LN4@basic_stri
$LN4@basic_stri:
  000d4	24		 DB	 36			; 00000024H
  000d5	53		 DB	 83			; 00000053H
  000d6	39		 DB	 57			; 00000039H
  000d7	00		 DB	 0
_TEXT	ENDS
;	COMDAT text$x
text$x	SEGMENT
__unwindfunclet$??1?$basic_string@DU?$char_traits@D@std@@V?$allocator@D@2@@std@@QAE@XZ$0:
  00000	8b 4d f0	 mov	 ecx, DWORD PTR _this$[ebp]
  00003	e9 00 00 00 00	 jmp	 ??1?$_Compressed_pair@V?$allocator@D@std@@V?$_String_val@U?$_Simple_types@D@std@@@2@$00@std@@QAE@XZ
__ehhandler$??1?$basic_string@DU?$char_traits@D@std@@V?$allocator@D@2@@std@@QAE@XZ:
  00008	8b 54 24 08	 mov	 edx, DWORD PTR [esp+8]
  0000c	8d 42 0c	 lea	 eax, DWORD PTR [edx+12]
  0000f	8b 4a e4	 mov	 ecx, DWORD PTR [edx-28]
  00012	33 c8		 xor	 ecx, eax
  00014	e8 00 00 00 00	 call	 @__security_check_cookie@4
  00019	b8 00 00 00 00	 mov	 eax, OFFSET __ehfuncinfo$??1?$basic_string@DU?$char_traits@D@std@@V?$allocator@D@2@@std@@QAE@XZ
  0001e	e9 00 00 00 00	 jmp	 ___CxxFrameHandler3
text$x	ENDS
??1?$basic_string@DU?$char_traits@D@std@@V?$allocator@D@2@@std@@QAE@XZ ENDP ; std::basic_string<char,std::char_traits<char>,std::allocator<char> >::~basic_string<char,std::char_traits<char>,std::allocator<char> >
; Function compile flags: /Odtp /RTCsu
; File C:\Program Files (x86)\Microsoft Visual Studio\2019\Community\VC\Tools\MSVC\14.23.28105\include\xstring
;	COMDAT ?_Take_contents@?$basic_string@DU?$char_traits@D@std@@V?$allocator@D@2@@std@@AAEXAAV12@U?$integral_constant@_N$00@2@@Z
_TEXT	SEGMENT
_this$ = -16						; size = 4
__$EHRec$ = -12						; size = 12
__Right$ = 8						; size = 4
___formal$ = 12						; size = 1
?_Take_contents@?$basic_string@DU?$char_traits@D@std@@V?$allocator@D@2@@std@@AAEXAAV12@U?$integral_constant@_N$00@2@@Z PROC ; std::basic_string<char,std::char_traits<char>,std::allocator<char> >::_Take_contents, COMDAT
; _this$ = ecx

; 2484 :     void _Take_contents(basic_string& _Right, true_type) noexcept {

  00000	55		 push	 ebp
  00001	8b ec		 mov	 ebp, esp
  00003	6a ff		 push	 -1
  00005	68 00 00 00 00	 push	 __ehhandler$?_Take_contents@?$basic_string@DU?$char_traits@D@std@@V?$allocator@D@2@@std@@AAEXAAV12@U?$integral_constant@_N$00@2@@Z
  0000a	64 a1 00 00 00
	00		 mov	 eax, DWORD PTR fs:0
  00010	50		 push	 eax
  00011	51		 push	 ecx
  00012	c7 45 f0 cc cc
	cc cc		 mov	 DWORD PTR [ebp-16], -858993460 ; ccccccccH
  00019	a1 00 00 00 00	 mov	 eax, DWORD PTR ___security_cookie
  0001e	33 c5		 xor	 eax, ebp
  00020	50		 push	 eax
  00021	8d 45 f4	 lea	 eax, DWORD PTR __$EHRec$[ebp]
  00024	64 a3 00 00 00
	00		 mov	 DWORD PTR fs:0, eax
  0002a	89 4d f0	 mov	 DWORD PTR _this$[ebp], ecx

; 2485 :         // assign by stealing _Right's buffer, memcpy optimization
; 2486 :         // pre: this != &_Right
; 2487 :         // pre: allocator propagation (POCMA) from _Right, if necessary, is complete
; 2488 :         // pre: *this owns no memory, iterators orphaned (note:
; 2489 :         // _Buf/_Ptr/_Mysize/_Myres may be garbage init)
; 2490 : #if _ITERATOR_DEBUG_LEVEL != 0
; 2491 :         if (_Right._Mypair._Myval2._Large_string_engaged()) {

  0002d	8b 4d 08	 mov	 ecx, DWORD PTR __Right$[ebp]
  00030	e8 00 00 00 00	 call	 ?_Large_string_engaged@?$_String_val@U?$_Simple_types@D@std@@@std@@QBE_NXZ ; std::_String_val<std::_Simple_types<char> >::_Large_string_engaged
  00035	0f b6 c0	 movzx	 eax, al
  00038	85 c0		 test	 eax, eax
  0003a	74 0e		 je	 SHORT $LN2@Take_conte

; 2492 :             // take ownership of _Right's iterators along with its buffer
; 2493 :             _Swap_proxy_and_iterators(_Right);

  0003c	8b 4d 08	 mov	 ecx, DWORD PTR __Right$[ebp]
  0003f	51		 push	 ecx
  00040	8b 4d f0	 mov	 ecx, DWORD PTR _this$[ebp]
  00043	e8 00 00 00 00	 call	 ?_Swap_proxy_and_iterators@?$basic_string@DU?$char_traits@D@std@@V?$allocator@D@2@@std@@AAEXAAV12@@Z ; std::basic_string<char,std::char_traits<char>,std::allocator<char> >::_Swap_proxy_and_iterators

; 2494 :         } else {

  00048	eb 08		 jmp	 SHORT $LN3@Take_conte
$LN2@Take_conte:

; 2495 :             _Right._Mypair._Myval2._Orphan_all();

  0004a	8b 4d 08	 mov	 ecx, DWORD PTR __Right$[ebp]
  0004d	e8 00 00 00 00	 call	 ?_Orphan_all@_Container_base12@std@@QAEXXZ ; std::_Container_base12::_Orphan_all
$LN3@Take_conte:

; 2496 :         }
; 2497 : #endif // _ITERATOR_DEBUG_LEVEL != 0
; 2498 : 
; 2499 :         _Memcpy_val_from(_Right);

  00052	8b 55 08	 mov	 edx, DWORD PTR __Right$[ebp]
  00055	52		 push	 edx
  00056	8b 4d f0	 mov	 ecx, DWORD PTR _this$[ebp]
  00059	e8 00 00 00 00	 call	 ?_Memcpy_val_from@?$basic_string@DU?$char_traits@D@std@@V?$allocator@D@2@@std@@AAEXABV12@@Z ; std::basic_string<char,std::char_traits<char>,std::allocator<char> >::_Memcpy_val_from

; 2500 :         _Right._Tidy_init();

  0005e	8b 4d 08	 mov	 ecx, DWORD PTR __Right$[ebp]
  00061	e8 00 00 00 00	 call	 ?_Tidy_init@?$basic_string@DU?$char_traits@D@std@@V?$allocator@D@2@@std@@AAEXXZ ; std::basic_string<char,std::char_traits<char>,std::allocator<char> >::_Tidy_init

; 2501 :     }

  00066	8b 4d f4	 mov	 ecx, DWORD PTR __$EHRec$[ebp]
  00069	64 89 0d 00 00
	00 00		 mov	 DWORD PTR fs:0, ecx
  00070	59		 pop	 ecx
  00071	83 c4 10	 add	 esp, 16			; 00000010H
  00074	3b ec		 cmp	 ebp, esp
  00076	e8 00 00 00 00	 call	 __RTC_CheckEsp
  0007b	8b e5		 mov	 esp, ebp
  0007d	5d		 pop	 ebp
  0007e	c2 08 00	 ret	 8
_TEXT	ENDS
;	COMDAT text$x
text$x	SEGMENT
__ehhandler$?_Take_contents@?$basic_string@DU?$char_traits@D@std@@V?$allocator@D@2@@std@@AAEXAAV12@U?$integral_constant@_N$00@2@@Z:
  00000	8b 54 24 08	 mov	 edx, DWORD PTR [esp+8]
  00004	8d 42 0c	 lea	 eax, DWORD PTR [edx+12]
  00007	8b 4a f8	 mov	 ecx, DWORD PTR [edx-8]
  0000a	33 c8		 xor	 ecx, eax
  0000c	e8 00 00 00 00	 call	 @__security_check_cookie@4
  00011	b8 00 00 00 00	 mov	 eax, OFFSET __ehfuncinfo$?_Take_contents@?$basic_string@DU?$char_traits@D@std@@V?$allocator@D@2@@std@@AAEXAAV12@U?$integral_constant@_N$00@2@@Z
  00016	e9 00 00 00 00	 jmp	 ___CxxFrameHandler3
text$x	ENDS
?_Take_contents@?$basic_string@DU?$char_traits@D@std@@V?$allocator@D@2@@std@@AAEXAAV12@U?$integral_constant@_N$00@2@@Z ENDP ; std::basic_string<char,std::char_traits<char>,std::allocator<char> >::_Take_contents
; Function compile flags: /Odtp /RTCsu
; File C:\Program Files (x86)\Microsoft Visual Studio\2019\Community\VC\Tools\MSVC\14.23.28105\include\xstring
;	COMDAT ?_Memcpy_val_from@?$basic_string@DU?$char_traits@D@std@@V?$allocator@D@2@@std@@AAEXABV12@@Z
_TEXT	SEGMENT
__Right_data_mem$ = -24					; size = 4
__My_data_mem$ = -20					; size = 4
_this$ = -16						; size = 4
__$EHRec$ = -12						; size = 12
__Right$ = 8						; size = 4
?_Memcpy_val_from@?$basic_string@DU?$char_traits@D@std@@V?$allocator@D@2@@std@@AAEXABV12@@Z PROC ; std::basic_string<char,std::char_traits<char>,std::allocator<char> >::_Memcpy_val_from, COMDAT
; _this$ = ecx

; 2475 :     void _Memcpy_val_from(const basic_string& _Right) noexcept {

  00000	55		 push	 ebp
  00001	8b ec		 mov	 ebp, esp
  00003	6a ff		 push	 -1
  00005	68 00 00 00 00	 push	 __ehhandler$?_Memcpy_val_from@?$basic_string@DU?$char_traits@D@std@@V?$allocator@D@2@@std@@AAEXABV12@@Z
  0000a	64 a1 00 00 00
	00		 mov	 eax, DWORD PTR fs:0
  00010	50		 push	 eax
  00011	83 ec 0c	 sub	 esp, 12			; 0000000cH
  00014	c7 45 e8 cc cc
	cc cc		 mov	 DWORD PTR [ebp-24], -858993460 ; ccccccccH
  0001b	c7 45 ec cc cc
	cc cc		 mov	 DWORD PTR [ebp-20], -858993460 ; ccccccccH
  00022	c7 45 f0 cc cc
	cc cc		 mov	 DWORD PTR [ebp-16], -858993460 ; ccccccccH
  00029	a1 00 00 00 00	 mov	 eax, DWORD PTR ___security_cookie
  0002e	33 c5		 xor	 eax, ebp
  00030	50		 push	 eax
  00031	8d 45 f4	 lea	 eax, DWORD PTR __$EHRec$[ebp]
  00034	64 a3 00 00 00
	00		 mov	 DWORD PTR fs:0, eax
  0003a	89 4d f0	 mov	 DWORD PTR _this$[ebp], ecx

; 2476 :         _STL_INTERNAL_CHECK(_Can_memcpy_val); // TRANSITION, if constexpr
; 2477 :         const auto _My_data_mem =

  0003d	8b 45 f0	 mov	 eax, DWORD PTR _this$[ebp]
  00040	50		 push	 eax
  00041	e8 00 00 00 00	 call	 ??$addressof@V?$_String_val@U?$_Simple_types@D@std@@@std@@@std@@YAPAV?$_String_val@U?$_Simple_types@D@std@@@0@AAV10@@Z ; std::addressof<std::_String_val<std::_Simple_types<char> > >
  00046	83 c4 04	 add	 esp, 4
  00049	83 c0 04	 add	 eax, 4
  0004c	89 45 ec	 mov	 DWORD PTR __My_data_mem$[ebp], eax

; 2478 :             reinterpret_cast<unsigned char*>(_STD addressof(_Mypair._Myval2)) + _Memcpy_val_offset;
; 2479 :         const auto _Right_data_mem =

  0004f	8b 4d 08	 mov	 ecx, DWORD PTR __Right$[ebp]
  00052	51		 push	 ecx
  00053	e8 00 00 00 00	 call	 ??$addressof@$$CBV?$_String_val@U?$_Simple_types@D@std@@@std@@@std@@YAPBV?$_String_val@U?$_Simple_types@D@std@@@0@ABV10@@Z ; std::addressof<std::_String_val<std::_Simple_types<char> > const >
  00058	83 c4 04	 add	 esp, 4
  0005b	83 c0 04	 add	 eax, 4
  0005e	89 45 e8	 mov	 DWORD PTR __Right_data_mem$[ebp], eax

; 2480 :             reinterpret_cast<const unsigned char*>(_STD addressof(_Right._Mypair._Myval2)) + _Memcpy_val_offset;
; 2481 :         _CSTD memcpy(_My_data_mem, _Right_data_mem, _Memcpy_val_size);

  00061	6a 18		 push	 24			; 00000018H
  00063	8b 55 e8	 mov	 edx, DWORD PTR __Right_data_mem$[ebp]
  00066	52		 push	 edx
  00067	8b 45 ec	 mov	 eax, DWORD PTR __My_data_mem$[ebp]
  0006a	50		 push	 eax
  0006b	e8 00 00 00 00	 call	 _memcpy
  00070	83 c4 0c	 add	 esp, 12			; 0000000cH

; 2482 :     }

  00073	8b 4d f4	 mov	 ecx, DWORD PTR __$EHRec$[ebp]
  00076	64 89 0d 00 00
	00 00		 mov	 DWORD PTR fs:0, ecx
  0007d	59		 pop	 ecx
  0007e	83 c4 18	 add	 esp, 24			; 00000018H
  00081	3b ec		 cmp	 ebp, esp
  00083	e8 00 00 00 00	 call	 __RTC_CheckEsp
  00088	8b e5		 mov	 esp, ebp
  0008a	5d		 pop	 ebp
  0008b	c2 04 00	 ret	 4
_TEXT	ENDS
;	COMDAT text$x
text$x	SEGMENT
__ehhandler$?_Memcpy_val_from@?$basic_string@DU?$char_traits@D@std@@V?$allocator@D@2@@std@@AAEXABV12@@Z:
  00000	8b 54 24 08	 mov	 edx, DWORD PTR [esp+8]
  00004	8d 42 0c	 lea	 eax, DWORD PTR [edx+12]
  00007	8b 4a f0	 mov	 ecx, DWORD PTR [edx-16]
  0000a	33 c8		 xor	 ecx, eax
  0000c	e8 00 00 00 00	 call	 @__security_check_cookie@4
  00011	b8 00 00 00 00	 mov	 eax, OFFSET __ehfuncinfo$?_Memcpy_val_from@?$basic_string@DU?$char_traits@D@std@@V?$allocator@D@2@@std@@AAEXABV12@@Z
  00016	e9 00 00 00 00	 jmp	 ___CxxFrameHandler3
text$x	ENDS
?_Memcpy_val_from@?$basic_string@DU?$char_traits@D@std@@V?$allocator@D@2@@std@@AAEXABV12@@Z ENDP ; std::basic_string<char,std::char_traits<char>,std::allocator<char> >::_Memcpy_val_from
; Function compile flags: /Odtp /RTCsu
; File C:\Program Files (x86)\Microsoft Visual Studio\2019\Community\VC\Tools\MSVC\14.23.28105\include\xstring
;	COMDAT ??0?$basic_string@DU?$char_traits@D@std@@V?$allocator@D@2@@std@@QAE@$$QAV01@@Z
_TEXT	SEGMENT
$T2 = -19						; size = 1
$T3 = -18						; size = 1
$T4 = -17						; size = 1
_this$ = -16						; size = 4
__$EHRec$ = -12						; size = 12
__Right$ = 8						; size = 4
??0?$basic_string@DU?$char_traits@D@std@@V?$allocator@D@2@@std@@QAE@$$QAV01@@Z PROC ; std::basic_string<char,std::char_traits<char>,std::allocator<char> >::basic_string<char,std::char_traits<char>,std::allocator<char> >, COMDAT
; _this$ = ecx

; 2383 :     basic_string(basic_string&& _Right) noexcept : _Mypair(_One_then_variadic_args_t(), _STD move(_Right._Getal())) {

  00000	55		 push	 ebp
  00001	8b ec		 mov	 ebp, esp
  00003	6a ff		 push	 -1
  00005	68 00 00 00 00	 push	 __ehhandler$??0?$basic_string@DU?$char_traits@D@std@@V?$allocator@D@2@@std@@QAE@$$QAV01@@Z
  0000a	64 a1 00 00 00
	00		 mov	 eax, DWORD PTR fs:0
  00010	50		 push	 eax
  00011	83 ec 08	 sub	 esp, 8
  00014	c7 45 ec cc cc
	cc cc		 mov	 DWORD PTR [ebp-20], -858993460 ; ccccccccH
  0001b	c7 45 f0 cc cc
	cc cc		 mov	 DWORD PTR [ebp-16], -858993460 ; ccccccccH
  00022	a1 00 00 00 00	 mov	 eax, DWORD PTR ___security_cookie
  00027	33 c5		 xor	 eax, ebp
  00029	50		 push	 eax
  0002a	8d 45 f4	 lea	 eax, DWORD PTR __$EHRec$[ebp]
  0002d	64 a3 00 00 00
	00		 mov	 DWORD PTR fs:0, eax
  00033	89 4d f0	 mov	 DWORD PTR _this$[ebp], ecx
  00036	8b 4d 08	 mov	 ecx, DWORD PTR __Right$[ebp]
  00039	e8 00 00 00 00	 call	 ?_Getal@?$basic_string@DU?$char_traits@D@std@@V?$allocator@D@2@@std@@AAEAAV?$allocator@D@2@XZ ; std::basic_string<char,std::char_traits<char>,std::allocator<char> >::_Getal
  0003e	50		 push	 eax
  0003f	e8 00 00 00 00	 call	 ??$move@AAV?$allocator@D@std@@@std@@YA$$QAV?$allocator@D@0@AAV10@@Z ; std::move<std::allocator<char> &>
  00044	83 c4 04	 add	 esp, 4
  00047	50		 push	 eax
  00048	0f b6 45 ef	 movzx	 eax, BYTE PTR $T4[ebp]
  0004c	50		 push	 eax
  0004d	8b 4d f0	 mov	 ecx, DWORD PTR _this$[ebp]
  00050	e8 00 00 00 00	 call	 ??$?0V?$allocator@D@std@@$$V@?$_Compressed_pair@V?$allocator@D@std@@V?$_String_val@U?$_Simple_types@D@std@@@2@$00@std@@QAE@U_One_then_variadic_args_t@1@$$QAV?$allocator@D@1@@Z ; std::_Compressed_pair<std::allocator<char>,std::_String_val<std::_Simple_types<char> >,1>::_Compressed_pair<std::allocator<char>,std::_String_val<std::_Simple_types<char> >,1><std::allocator<char> >
  00055	c7 45 fc 00 00
	00 00		 mov	 DWORD PTR __$EHRec$[ebp+8], 0

; 2384 :         // construct by moving _Right
; 2385 :         _Mypair._Myval2._Alloc_proxy(_GET_PROXY_ALLOCATOR(_Alty, _Getal()));

  0005c	8b 4d f0	 mov	 ecx, DWORD PTR _this$[ebp]
  0005f	e8 00 00 00 00	 call	 ?_Getal@?$basic_string@DU?$char_traits@D@std@@V?$allocator@D@2@@std@@AAEAAV?$allocator@D@2@XZ ; std::basic_string<char,std::char_traits<char>,std::allocator<char> >::_Getal
  00064	50		 push	 eax
  00065	8d 4d ee	 lea	 ecx, DWORD PTR $T3[ebp]
  00068	e8 00 00 00 00	 call	 ??$?0D@?$allocator@U_Container_proxy@std@@@std@@QAE@ABV?$allocator@D@1@@Z ; std::allocator<std::_Container_proxy>::allocator<std::_Container_proxy><char>
  0006d	50		 push	 eax
  0006e	8b 4d f0	 mov	 ecx, DWORD PTR _this$[ebp]
  00071	e8 00 00 00 00	 call	 ??$_Alloc_proxy@V?$allocator@U_Container_proxy@std@@@std@@@_Container_base12@std@@QAEX$$QAV?$allocator@U_Container_proxy@std@@@1@@Z ; std::_Container_base12::_Alloc_proxy<std::allocator<std::_Container_proxy> >

; 2386 :         _Take_contents(_Right, bool_constant<_Can_memcpy_val>{});

  00076	33 c9		 xor	 ecx, ecx
  00078	88 4d ed	 mov	 BYTE PTR $T2[ebp], cl
  0007b	0f b6 55 ed	 movzx	 edx, BYTE PTR $T2[ebp]
  0007f	52		 push	 edx
  00080	8b 45 08	 mov	 eax, DWORD PTR __Right$[ebp]
  00083	50		 push	 eax
  00084	8b 4d f0	 mov	 ecx, DWORD PTR _this$[ebp]
  00087	e8 00 00 00 00	 call	 ?_Take_contents@?$basic_string@DU?$char_traits@D@std@@V?$allocator@D@2@@std@@AAEXAAV12@U?$integral_constant@_N$00@2@@Z ; std::basic_string<char,std::char_traits<char>,std::allocator<char> >::_Take_contents

; 2387 :     }

  0008c	c7 45 fc ff ff
	ff ff		 mov	 DWORD PTR __$EHRec$[ebp+8], -1
  00093	8b 45 f0	 mov	 eax, DWORD PTR _this$[ebp]
  00096	8b 4d f4	 mov	 ecx, DWORD PTR __$EHRec$[ebp]
  00099	64 89 0d 00 00
	00 00		 mov	 DWORD PTR fs:0, ecx
  000a0	59		 pop	 ecx
  000a1	83 c4 14	 add	 esp, 20			; 00000014H
  000a4	3b ec		 cmp	 ebp, esp
  000a6	e8 00 00 00 00	 call	 __RTC_CheckEsp
  000ab	8b e5		 mov	 esp, ebp
  000ad	5d		 pop	 ebp
  000ae	c2 04 00	 ret	 4
_TEXT	ENDS
;	COMDAT text$x
text$x	SEGMENT
__unwindfunclet$??0?$basic_string@DU?$char_traits@D@std@@V?$allocator@D@2@@std@@QAE@$$QAV01@@Z$0:
  00000	8b 4d f0	 mov	 ecx, DWORD PTR _this$[ebp]
  00003	e9 00 00 00 00	 jmp	 ??1?$_Compressed_pair@V?$allocator@D@std@@V?$_String_val@U?$_Simple_types@D@std@@@2@$00@std@@QAE@XZ
__ehhandler$??0?$basic_string@DU?$char_traits@D@std@@V?$allocator@D@2@@std@@QAE@$$QAV01@@Z:
  00008	8b 54 24 08	 mov	 edx, DWORD PTR [esp+8]
  0000c	8d 42 0c	 lea	 eax, DWORD PTR [edx+12]
  0000f	8b 4a f4	 mov	 ecx, DWORD PTR [edx-12]
  00012	33 c8		 xor	 ecx, eax
  00014	e8 00 00 00 00	 call	 @__security_check_cookie@4
  00019	b8 00 00 00 00	 mov	 eax, OFFSET __ehfuncinfo$??0?$basic_string@DU?$char_traits@D@std@@V?$allocator@D@2@@std@@QAE@$$QAV01@@Z
  0001e	e9 00 00 00 00	 jmp	 ___CxxFrameHandler3
text$x	ENDS
??0?$basic_string@DU?$char_traits@D@std@@V?$allocator@D@2@@std@@QAE@$$QAV01@@Z ENDP ; std::basic_string<char,std::char_traits<char>,std::allocator<char> >::basic_string<char,std::char_traits<char>,std::allocator<char> >
; Function compile flags: /Odtp /RTCsu
; File C:\Program Files (x86)\Microsoft Visual Studio\2019\Community\VC\Tools\MSVC\14.23.28105\include\xstring
;	COMDAT ??0?$basic_string@DU?$char_traits@D@std@@V?$allocator@D@2@@std@@QAE@QBD@Z
_TEXT	SEGMENT
$T2 = -49						; size = 1
__Proxy$ = -44						; size = 8
_$S11$ = -25						; size = 1
__Alproxy$ = -20					; size = 4
_this$ = -16						; size = 4
__$EHRec$ = -12						; size = 12
__Ptr$ = 8						; size = 4
??0?$basic_string@DU?$char_traits@D@std@@V?$allocator@D@2@@std@@QAE@QBD@Z PROC ; std::basic_string<char,std::char_traits<char>,std::allocator<char> >::basic_string<char,std::char_traits<char>,std::allocator<char> >, COMDAT
; _this$ = ecx

; 2297 :     basic_string(_In_z_ const _Elem* const _Ptr) : _Mypair(_Zero_then_variadic_args_t()) {

  00000	55		 push	 ebp
  00001	8b ec		 mov	 ebp, esp
  00003	6a ff		 push	 -1
  00005	68 00 00 00 00	 push	 __ehhandler$??0?$basic_string@DU?$char_traits@D@std@@V?$allocator@D@2@@std@@QAE@QBD@Z
  0000a	64 a1 00 00 00
	00		 mov	 eax, DWORD PTR fs:0
  00010	50		 push	 eax
  00011	83 ec 28	 sub	 esp, 40			; 00000028H
  00014	57		 push	 edi
  00015	51		 push	 ecx
  00016	8d 7d cc	 lea	 edi, DWORD PTR [ebp-52]
  00019	b9 0a 00 00 00	 mov	 ecx, 10			; 0000000aH
  0001e	b8 cc cc cc cc	 mov	 eax, -858993460		; ccccccccH
  00023	f3 ab		 rep stosd
  00025	59		 pop	 ecx
  00026	a1 00 00 00 00	 mov	 eax, DWORD PTR ___security_cookie
  0002b	33 c5		 xor	 eax, ebp
  0002d	50		 push	 eax
  0002e	8d 45 f4	 lea	 eax, DWORD PTR __$EHRec$[ebp]
  00031	64 a3 00 00 00
	00		 mov	 DWORD PTR fs:0, eax
  00037	89 4d f0	 mov	 DWORD PTR _this$[ebp], ecx
  0003a	0f b6 45 cf	 movzx	 eax, BYTE PTR $T2[ebp]
  0003e	50		 push	 eax
  0003f	8b 4d f0	 mov	 ecx, DWORD PTR _this$[ebp]
  00042	e8 00 00 00 00	 call	 ??$?0$$V@?$_Compressed_pair@V?$allocator@D@std@@V?$_String_val@U?$_Simple_types@D@std@@@2@$00@std@@QAE@U_Zero_then_variadic_args_t@1@@Z ; std::_Compressed_pair<std::allocator<char>,std::_String_val<std::_Simple_types<char> >,1>::_Compressed_pair<std::allocator<char>,std::_String_val<std::_Simple_types<char> >,1><>
  00047	c7 45 fc 00 00
	00 00		 mov	 DWORD PTR __$EHRec$[ebp+8], 0

; 2298 :         // construct from [_Ptr, <null>)
; 2299 :         auto&& _Alproxy = _GET_PROXY_ALLOCATOR(_Alty, _Getal());

  0004e	8b 4d f0	 mov	 ecx, DWORD PTR _this$[ebp]
  00051	e8 00 00 00 00	 call	 ?_Getal@?$basic_string@DU?$char_traits@D@std@@V?$allocator@D@2@@std@@AAEAAV?$allocator@D@2@XZ ; std::basic_string<char,std::char_traits<char>,std::allocator<char> >::_Getal
  00056	50		 push	 eax
  00057	8d 4d e7	 lea	 ecx, DWORD PTR _$S11$[ebp]
  0005a	e8 00 00 00 00	 call	 ??$?0D@?$allocator@U_Container_proxy@std@@@std@@QAE@ABV?$allocator@D@1@@Z ; std::allocator<std::_Container_proxy>::allocator<std::_Container_proxy><char>
  0005f	8d 4d e7	 lea	 ecx, DWORD PTR _$S11$[ebp]
  00062	89 4d ec	 mov	 DWORD PTR __Alproxy$[ebp], ecx

; 2300 :         _Container_proxy_ptr<_Alty> _Proxy(_Alproxy, _Mypair._Myval2);

  00065	8b 55 f0	 mov	 edx, DWORD PTR _this$[ebp]
  00068	52		 push	 edx
  00069	8b 45 ec	 mov	 eax, DWORD PTR __Alproxy$[ebp]
  0006c	50		 push	 eax
  0006d	8d 4d d4	 lea	 ecx, DWORD PTR __Proxy$[ebp]
  00070	e8 00 00 00 00	 call	 ??0?$_Container_proxy_ptr12@V?$allocator@U_Container_proxy@std@@@std@@@std@@QAE@AAV?$allocator@U_Container_proxy@std@@@1@AAU_Container_base12@1@@Z ; std::_Container_proxy_ptr12<std::allocator<std::_Container_proxy> >::_Container_proxy_ptr12<std::allocator<std::_Container_proxy> >
  00075	c6 45 fc 01	 mov	 BYTE PTR __$EHRec$[ebp+8], 1

; 2301 :         _Tidy_init();

  00079	8b 4d f0	 mov	 ecx, DWORD PTR _this$[ebp]
  0007c	e8 00 00 00 00	 call	 ?_Tidy_init@?$basic_string@DU?$char_traits@D@std@@V?$allocator@D@2@@std@@AAEXXZ ; std::basic_string<char,std::char_traits<char>,std::allocator<char> >::_Tidy_init

; 2302 :         assign(_Ptr);

  00081	8b 4d 08	 mov	 ecx, DWORD PTR __Ptr$[ebp]
  00084	51		 push	 ecx
  00085	8b 4d f0	 mov	 ecx, DWORD PTR _this$[ebp]
  00088	e8 00 00 00 00	 call	 ?assign@?$basic_string@DU?$char_traits@D@std@@V?$allocator@D@2@@std@@QAEAAV12@QBD@Z ; std::basic_string<char,std::char_traits<char>,std::allocator<char> >::assign

; 2303 :         _Proxy._Release();

  0008d	8d 4d d4	 lea	 ecx, DWORD PTR __Proxy$[ebp]
  00090	e8 00 00 00 00	 call	 ?_Release@_Basic_container_proxy_ptr12@std@@QAEXXZ ; std::_Basic_container_proxy_ptr12::_Release

; 2304 :     }

  00095	c6 45 fc 00	 mov	 BYTE PTR __$EHRec$[ebp+8], 0
  00099	8d 4d d4	 lea	 ecx, DWORD PTR __Proxy$[ebp]
  0009c	e8 00 00 00 00	 call	 ??1?$_Container_proxy_ptr12@V?$allocator@U_Container_proxy@std@@@std@@@std@@QAE@XZ ; std::_Container_proxy_ptr12<std::allocator<std::_Container_proxy> >::~_Container_proxy_ptr12<std::allocator<std::_Container_proxy> >
  000a1	c7 45 fc ff ff
	ff ff		 mov	 DWORD PTR __$EHRec$[ebp+8], -1
  000a8	8b 45 f0	 mov	 eax, DWORD PTR _this$[ebp]
  000ab	52		 push	 edx
  000ac	8b cd		 mov	 ecx, ebp
  000ae	50		 push	 eax
  000af	8d 15 00 00 00
	00		 lea	 edx, DWORD PTR $LN9@basic_stri
  000b5	e8 00 00 00 00	 call	 @_RTC_CheckStackVars@8
  000ba	58		 pop	 eax
  000bb	5a		 pop	 edx
  000bc	8b 4d f4	 mov	 ecx, DWORD PTR __$EHRec$[ebp]
  000bf	64 89 0d 00 00
	00 00		 mov	 DWORD PTR fs:0, ecx
  000c6	59		 pop	 ecx
  000c7	5f		 pop	 edi
  000c8	83 c4 34	 add	 esp, 52			; 00000034H
  000cb	3b ec		 cmp	 ebp, esp
  000cd	e8 00 00 00 00	 call	 __RTC_CheckEsp
  000d2	8b e5		 mov	 esp, ebp
  000d4	5d		 pop	 ebp
  000d5	c2 04 00	 ret	 4
$LN9@basic_stri:
  000d8	02 00 00 00	 DD	 2
  000dc	00 00 00 00	 DD	 $LN8@basic_stri
$LN8@basic_stri:
  000e0	e7 ff ff ff	 DD	 -25			; ffffffe7H
  000e4	01 00 00 00	 DD	 1
  000e8	00 00 00 00	 DD	 $LN5@basic_stri
  000ec	d4 ff ff ff	 DD	 -44			; ffffffd4H
  000f0	08 00 00 00	 DD	 8
  000f4	00 00 00 00	 DD	 $LN6@basic_stri
$LN6@basic_stri:
  000f8	5f		 DB	 95			; 0000005fH
  000f9	50		 DB	 80			; 00000050H
  000fa	72		 DB	 114			; 00000072H
  000fb	6f		 DB	 111			; 0000006fH
  000fc	78		 DB	 120			; 00000078H
  000fd	79		 DB	 121			; 00000079H
  000fe	00		 DB	 0
$LN5@basic_stri:
  000ff	24		 DB	 36			; 00000024H
  00100	53		 DB	 83			; 00000053H
  00101	31		 DB	 49			; 00000031H
  00102	31		 DB	 49			; 00000031H
  00103	00		 DB	 0
_TEXT	ENDS
;	COMDAT text$x
text$x	SEGMENT
__unwindfunclet$??0?$basic_string@DU?$char_traits@D@std@@V?$allocator@D@2@@std@@QAE@QBD@Z$0:
  00000	8b 4d f0	 mov	 ecx, DWORD PTR _this$[ebp]
  00003	e9 00 00 00 00	 jmp	 ??1?$_Compressed_pair@V?$allocator@D@std@@V?$_String_val@U?$_Simple_types@D@std@@@2@$00@std@@QAE@XZ
__unwindfunclet$??0?$basic_string@DU?$char_traits@D@std@@V?$allocator@D@2@@std@@QAE@QBD@Z$1:
  00008	8d 4d d4	 lea	 ecx, DWORD PTR __Proxy$[ebp]
  0000b	e9 00 00 00 00	 jmp	 ??1?$_Container_proxy_ptr12@V?$allocator@U_Container_proxy@std@@@std@@@std@@QAE@XZ ; std::_Container_proxy_ptr12<std::allocator<std::_Container_proxy> >::~_Container_proxy_ptr12<std::allocator<std::_Container_proxy> >
__ehhandler$??0?$basic_string@DU?$char_traits@D@std@@V?$allocator@D@2@@std@@QAE@QBD@Z:
  00010	8b 54 24 08	 mov	 edx, DWORD PTR [esp+8]
  00014	8d 42 0c	 lea	 eax, DWORD PTR [edx+12]
  00017	8b 4a d0	 mov	 ecx, DWORD PTR [edx-48]
  0001a	33 c8		 xor	 ecx, eax
  0001c	e8 00 00 00 00	 call	 @__security_check_cookie@4
  00021	b8 00 00 00 00	 mov	 eax, OFFSET __ehfuncinfo$??0?$basic_string@DU?$char_traits@D@std@@V?$allocator@D@2@@std@@QAE@QBD@Z
  00026	e9 00 00 00 00	 jmp	 ___CxxFrameHandler3
text$x	ENDS
