; Listing generated by Microsoft (R) Optimizing Compiler Version 19.23.28106.4 

	TITLE	D:\work\intel\intel_codec\QSVPipeline\rgy_log.cpp
	.686P
	.XMM
	include listing.inc
	.model	flat

INCLUDELIB MSVCRTD
INCLUDELIB OLDNAMES

PUBLIC	?HTML_FOOTER@RGYLog@@1PBDB			; RGYLog::HTML_FOOTER
_DATA	SEGMENT
?HTML_FOOTER@RGYLog@@1PBDB DD FLAT:$SG115998		; RGYLog::HTML_FOOTER
_DATA	ENDS
CONST	SEGMENT
?list_log_level@@3QBUCX_DESC@@B DD FLAT:$SG115491	; list_log_level
	DD	0fffffffdH
	DD	FLAT:$SG115492
	DD	0fffffffeH
	DD	FLAT:$SG115493
	DD	0ffffffffH
	DD	FLAT:$SG115494
	DD	00H
	DD	FLAT:$SG115495
	DD	01H
	DD	FLAT:$SG115496
	DD	02H
	DD	00H
	DD	00H
$SG115491 DB	'trace', 00H
	ORG $+2
$SG115492 DB	'debug', 00H
	ORG $+2
$SG115493 DB	'more', 00H
	ORG $+3
$SG115494 DB	'info', 00H
	ORG $+3
$SG115495 DB	'warn', 00H
	ORG $+3
$SG115496 DB	'error', 00H
	ORG $+2
$SG115498 DB	'cfr', 00H
$SG115499 DB	'vfr', 00H
$SG115500 DB	'forcecfr', 00H
	ORG $+3
$SG115502 DB	'swr', 00H
$SG115503 DB	'soxr', 00H
	ORG $+3
$SG115998 DB	'</body>', 0aH, '</html>', 0aH, 00H
	ORG $+3
$SG116818 DB	'a+', 00H
	ORG $+1
$SG116819 DB	'failed to open log file, log writing disabled.', 0aH, 00H
$SG116822 DB	'.html', 00H
	ORG $+2
$SG116823 DB	'.htm', 00H
	ORG $+3
$SG116827 DB	'doctype', 00H
$SG116828 DB	'html', 00H
	ORG $+3
$SG116838 DB	'wb', 00H
	ORG $+1
$SG116840 DB	'%s', 00H
	ORG $+1
$SG116839 DB	'<', 00H, '!', 00H, 'D', 00H, 'O', 00H, 'C', 00H, 'T', 00H
	DB	'Y', 00H, 'P', 00H, 'E', 00H, ' ', 00H, 'h', 00H, 't', 00H, 'm'
	DB	00H, 'l', 00H, '>', 00H, 0aH, 00H, '<', 00H, 'h', 00H, 't', 00H
	DB	'm', 00H, 'l', 00H, ' ', 00H, 'l', 00H, 'a', 00H, 'n', 00H, 'g'
	DB	00H, ' ', 00H, '=', 00H, ' ', 00H, '"', 00H, 'j', 00H, 'a', 00H
	DB	'"', 00H, '>', 00H, 0aH, 00H, '<', 00H, 'h', 00H, 'e', 00H, 'a'
	DB	00H, 'd', 00H, '>', 00H, 0aH, 00H, '<', 00H, 'm', 00H, 'e', 00H
	DB	't', 00H, 'a', 00H, ' ', 00H, 'c', 00H, 'h', 00H, 'a', 00H, 'r'
	DB	00H, 's', 00H, 'e', 00H, 't', 00H, ' ', 00H, '=', 00H, ' ', 00H
	DB	'"', 00H, 'U', 00H, 'T', 00H, 'F', 00H, '-', 00H, '8', 00H, '"'
	DB	00H, '>', 00H, 0aH, 00H, '<', 00H, 't', 00H, 'i', 00H, 't', 00H
	DB	'l', 00H, 'e', 00H, '>', 00H, 'Q', 00H, 'S', 00H, 'V', 00H, 'E'
	DB	00H, 'n', 00H, 'c', 00H, ' ', 00H, 'L', 00H, 'o', 00H, 'g', 00H
	DB	'<', 00H, '/', 00H, 't', 00H, 'i', 00H, 't', 00H, 'l', 00H, 'e'
	DB	00H, '>', 00H, 0aH, 00H, '<', 00H, 's', 00H, 't', 00H, 'y', 00H
	DB	'l', 00H, 'e', 00H, ' ', 00H, 't', 00H, 'y', 00H, 'p', 00H, 'e'
	DB	00H, '=', 00H, 't', 00H, 'e', 00H, 'x', 00H, 't', 00H, '/', 00H
	DB	'c', 00H, 's', 00H, 's', 00H, '>', 00H, 0aH, 00H, ' ', 00H, ' '
	DB	00H, ' ', 00H, 'b', 00H, 'o', 00H, 'd', 00H, 'y', 00H, ' ', 00H
	DB	' ', 00H, ' ', 00H, '{', 00H, ' ', 00H, 0aH, 00H, ' ', 00H, ' '
	DB	00H, ' ', 00H, ' ', 00H, ' ', 00H, ' ', 00H, ' ', 00H, 'b', 00H
	DB	'a', 00H, 'c', 00H, 'k', 00H, 'g', 00H, 'r', 00H, 'o', 00H, 'u'
	DB	00H, 'n', 00H, 'd', 00H, '-', 00H, 'c', 00H, 'o', 00H, 'l', 00H
	DB	'o', 00H, 'r', 00H, ':', 00H, ' ', 00H, '#', 00H, '3', 00H, '0'
	DB	00H, '3', 00H, '0', 00H, '3', 00H, '0', 00H, ';', 00H, 0aH, 00H
	DB	' ', 00H, ' ', 00H, ' ', 00H, ' ', 00H, ' ', 00H, ' ', 00H, ' '
	DB	00H, 'l', 00H, 'i', 00H, 'n', 00H, 'e', 00H, '-', 00H, 'h', 00H
	DB	'e', 00H, 'i', 00H, 'g', 00H, 'h', 00H, 't', 00H, ':', 00H, '1'
	DB	00H, '.', 00H, '0', 00H, ';', 00H, ' ', 00H, 'f', 00H, 'o', 00H
	DB	'n', 00H, 't', 00H, '-', 00H, 'f', 00H, 'a', 00H, 'm', 00H, 'i'
	DB	00H, 'l', 00H, 'y', 00H, ':', 00H, ' ', 00H, '"', 00H, 'M', 00H
	DB	'e', 00H, 'i', 00H, 'r', 00H, 'y', 00H, 'o', 00H, 'K', 00H, 'e'
	DB	00H, '_', 00H, 'G', 00H, 'o', 00H, 't', 00H, 'h', 00H, 'i', 00H
	DB	'c', 00H, '"', 00H, ',', 00H, '"', 00H, 'J', 090H, 0b4H, '0', 0b7H
	DB	'0', 0c3H, '0', 0afH, '0"', 00H, ',', 00H, '"', 00H, '-', 0ffH
	DB	'3', 0ffH, ' ', 00H, 0b4H, '0', 0b7H, '0', 0c3H, '0', 0afH, '0'
	DB	'"', 00H, ',', 00H, 's', 00H, 'a', 00H, 'n', 00H, 's', 00H, '-'
	DB	00H, 's', 00H, 'e', 00H, 'r', 00H, 'i', 00H, 'f', 00H, ';', 00H
	DB	0aH, 00H, ' ', 00H, ' ', 00H, ' ', 00H, ' ', 00H, ' ', 00H, ' '
	DB	00H, ' ', 00H, 'm', 00H, 'a', 00H, 'r', 00H, 'g', 00H, 'i', 00H
	DB	'n', 00H, ':', 00H, ' ', 00H, '1', 00H, '0', 00H, 'p', 00H, 'x'
	DB	00H, ';', 00H, 0aH, 00H, ' ', 00H, ' ', 00H, ' ', 00H, ' ', 00H
	DB	' ', 00H, ' ', 00H, ' ', 00H, 'p', 00H, 'a', 00H, 'd', 00H, 'd'
	DB	00H, 'i', 00H, 'n', 00H, 'g', 00H, ':', 00H, ' ', 00H, '0', 00H
	DB	'p', 00H, 'x', 00H, ';', 00H, 0aH, 00H, ' ', 00H, ' ', 00H, ' '
	DB	00H, '}', 00H, 0aH, 00H, ' ', 00H, ' ', 00H, ' ', 00H, 'd', 00H
	DB	'i', 00H, 'v', 00H, ' ', 00H, '{', 00H, 0aH, 00H, ' ', 00H, ' '
	DB	00H, ' ', 00H, ' ', 00H, ' ', 00H, ' ', 00H, ' ', 00H, 'w', 00H
	DB	'h', 00H, 'i', 00H, 't', 00H, 'e', 00H, '-', 00H, 's', 00H, 'p'
	DB	00H, 'a', 00H, 'c', 00H, 'e', 00H, ':', 00H, ' ', 00H, 'p', 00H
	DB	'r', 00H, 'e', 00H, ';', 00H, 0aH, 00H, ' ', 00H, ' ', 00H, ' '
	DB	00H, '}', 00H, 0aH, 00H, ' ', 00H, ' ', 00H, ' ', 00H, '.', 00H
	DB	'e', 00H, 'r', 00H, 'r', 00H, 'o', 00H, 'r', 00H, ' ', 00H, '{'
	DB	00H, ' ', 00H, 'c', 00H, 'o', 00H, 'l', 00H, 'o', 00H, 'r', 00H
	DB	':', 00H, ' ', 00H, '#', 00H, 'F', 00H, 'A', 00H, '5', 00H, '8'
	DB	00H, '5', 00H, '8', 00H, ' ', 00H, '}', 00H, 0aH, 00H, ' ', 00H
	DB	' ', 00H, ' ', 00H, '.', 00H, 'w', 00H, 'a', 00H, 'r', 00H, 'n'
	DB	00H, ' ', 00H, ' ', 00H, '{', 00H, ' ', 00H, 'c', 00H, 'o', 00H
	DB	'l', 00H, 'o', 00H, 'r', 00H, ':', 00H, ' ', 00H, '#', 00H, 'F'
	DB	00H, '7', 00H, 'D', 00H, '3', 00H, '5', 00H, '8', 00H, ' ', 00H
	DB	'}', 00H, 0aH, 00H, ' ', 00H, ' ', 00H, ' ', 00H, '.', 00H, 'm'
	DB	00H, 'o', 00H, 'r', 00H, 'e', 00H, ' ', 00H, ' ', 00H, '{', 00H
	DB	' ', 00H, 'c', 00H, 'o', 00H, 'l', 00H, 'o', 00H, 'r', 00H, ':'
	DB	00H, ' ', 00H, '#', 00H, 'C', 00H, 'E', 00H, 'F', 00H, '6', 00H
	DB	'F', 00H, '5', 00H, ' ', 00H, '}', 00H, 0aH, 00H, ' ', 00H, ' '
	DB	00H, ' ', 00H, '.', 00H, 'i', 00H, 'n', 00H, 'f', 00H, 'o', 00H
	DB	' ', 00H, ' ', 00H, '{', 00H, ' ', 00H, 'c', 00H, 'o', 00H, 'l'
	DB	00H, 'o', 00H, 'r', 00H, ':', 00H, ' ', 00H, '#', 00H, 'C', 00H
	DB	'E', 00H, 'F', 00H, '6', 00H, 'F', 00H, '5', 00H, ' ', 00H, '}'
	DB	00H, 0aH, 00H, ' ', 00H, ' ', 00H, ' ', 00H, '.', 00H, 'd', 00H
	DB	'e', 00H, 'b', 00H, 'u', 00H, 'g', 00H, ' ', 00H, '{', 00H, ' '
	DB	00H, 'c', 00H, 'o', 00H, 'l', 00H, 'o', 00H, 'r', 00H, ':', 00H
	DB	' ', 00H, '#', 00H, 'A', 00H, 'C', 00H, 'F', 00H, 'A', 00H, '5'
	DB	00H, '8', 00H, ' ', 00H, '}', 00H, 0aH, 00H, ' ', 00H, ' ', 00H
	DB	' ', 00H, '.', 00H, 't', 00H, 'r', 00H, 'a', 00H, 'c', 00H, 'e'
	DB	00H, ' ', 00H, '{', 00H, ' ', 00H, 'c', 00H, 'o', 00H, 'l', 00H
	DB	'o', 00H, 'r', 00H, ':', 00H, ' ', 00H, '#', 00H, 'A', 00H, 'C'
	DB	00H, 'F', 00H, 'A', 00H, '5', 00H, '8', 00H, ' ', 00H, '}', 00H
	DB	0aH, 00H, '<', 00H, '/', 00H, 's', 00H, 't', 00H, 'y', 00H, 'l'
	DB	00H, 'e', 00H, '>', 00H, 0aH, 00H, '<', 00H, '/', 00H, 'h', 00H
	DB	'e', 00H, 'a', 00H, 'd', 00H, '>', 00H, 0aH, 00H, '<', 00H, 'b'
	DB	00H, 'o', 00H, 'd', 00H, 'y', 00H, '>', 00H, 0aH, 00H, 00H, 00H
$SG116841 DB	'%s', 00H
	ORG $+1
$SG116851 DB	'-----', 00H
	ORG $+2
$SG116906 DB	'<hr>', 00H
	ORG $+3
$SG116907 DB	0aH, 00H
	ORG $+2
$SG116908 DB	'%%', 00H
	ORG $+1
$SG116909 DB	'%', 00H
	ORG $+2
$SG116910 DB	0aH, 00H
	ORG $+2
$SG116913 DB	'<hr>', 00H
	ORG $+3
$SG116914 DB	0aH, 00H
	ORG $+2
$SG116916 DB	'Intel', 00H
	ORG $+2
$SG116917 DB	'x86', 00H
$SG116918 DB	'3.25', 00H
	ORG $+3
$SG116919 DB	'QSVEnc', 00H
	ORG $+1
$SG116920 DB	'%s    %s (%s)', 0aH, 00H
	ORG $+1
$SG116921 DB	'x64', 00H
$SG116922 DB	'x86', 00H
$SG116923 DB	'OS        %s %s (%d)', 0aH, 00H
	ORG $+2
$SG116924 DB	'CPU Info  %s', 0aH, 00H
	ORG $+2
$SG116925 DB	'GPU Info  %s', 0aH, 00H
	ORG $+2
$SG116926 DB	'Locale    %s', 0aH, 00H
	ORG $+2
$SG116930 DB	0aH, 0aH, 00H
	ORG $+1
$SG117517 DB	'rb+', 00H
$SG117518 DB	'a', 00H
	ORG $+2
$SG118304 DB	0aH, 00H
	ORG $+2
$SG128331 DB	'invalid argument', 00H
	ORG $+3
$SG128332 DB	'%s', 00H
	ORG $+1
$SG112486 DB	'Invalid', 00H
$SG112493 DB	'yv12(9bit)', 00H
	ORG $+1
$SG128333 DB	'C:\Program Files (x86)\Microsoft Visual Studio\2019\Comm'
	DB	'unity\VC\Tools\MSVC\14.23.28105\include\xmemory', 00H
$SG128334 DB	'C', 00H, ':', 00H, '\', 00H, 'P', 00H, 'r', 00H, 'o', 00H
	DB	'g', 00H, 'r', 00H, 'a', 00H, 'm', 00H, ' ', 00H, 'F', 00H, 'i'
	DB	00H, 'l', 00H, 'e', 00H, 's', 00H, ' ', 00H, '(', 00H, 'x', 00H
	DB	'8', 00H, '6', 00H, ')', 00H, '\', 00H, 'M', 00H, 'i', 00H, 'c'
	DB	00H, 'r', 00H, 'o', 00H, 's', 00H, 'o', 00H, 'f', 00H, 't', 00H
	DB	' ', 00H, 'V', 00H, 'i', 00H, 's', 00H, 'u', 00H, 'a', 00H, 'l'
	DB	00H, ' ', 00H, 'S', 00H, 't', 00H, 'u', 00H, 'd', 00H, 'i', 00H
	DB	'o', 00H, '\', 00H, '2', 00H, '0', 00H, '1', 00H, '9', 00H, '\'
	DB	00H, 'C', 00H, 'o', 00H, 'm', 00H, 'm', 00H, 'u', 00H, 'n', 00H
	DB	'i', 00H, 't', 00H, 'y', 00H, '\', 00H, 'V', 00H, 'C', 00H, '\'
	DB	00H, 'T', 00H, 'o', 00H, 'o', 00H, 'l', 00H, 's', 00H, '\', 00H
	DB	'M', 00H, 'S', 00H, 'V', 00H, 'C', 00H, '\', 00H, '1', 00H, '4'
	DB	00H, '.', 00H, '2', 00H, '3', 00H, '.', 00H, '2', 00H, '8', 00H
	DB	'1', 00H, '0', 00H, '5', 00H, '\', 00H, 'i', 00H, 'n', 00H, 'c'
	DB	00H, 'l', 00H, 'u', 00H, 'd', 00H, 'e', 00H, '\', 00H, 'x', 00H
	DB	'm', 00H, 'e', 00H, 'm', 00H, 'o', 00H, 'r', 00H, 'y', 00H, 00H
	DB	00H
$SG128335 DB	's', 00H, 't', 00H, 'd', 00H, ':', 00H, ':', 00H, '_', 00H
	DB	'A', 00H, 'l', 00H, 'l', 00H, 'o', 00H, 'c', 00H, 'a', 00H, 't'
	DB	00H, 'e', 00H, '_', 00H, 'm', 00H, 'a', 00H, 'n', 00H, 'u', 00H
	DB	'a', 00H, 'l', 00H, 'l', 00H, 'y', 00H, '_', 00H, 'v', 00H, 'e'
	DB	00H, 'c', 00H, 't', 00H, 'o', 00H, 'r', 00H, '_', 00H, 'a', 00H
	DB	'l', 00H, 'i', 00H, 'g', 00H, 'n', 00H, 'e', 00H, 'd', 00H, 00H
	DB	00H
	ORG $+2
$SG128336 DB	'"', 00H, 'i', 00H, 'n', 00H, 'v', 00H, 'a', 00H, 'l', 00H
	DB	'i', 00H, 'd', 00H, ' ', 00H, 'a', 00H, 'r', 00H, 'g', 00H, 'u'
	DB	00H, 'm', 00H, 'e', 00H, 'n', 00H, 't', 00H, '"', 00H, 00H, 00H
	ORG $+2
$SG128643 DB	'C:\Program Files (x86)\Microsoft Visual Studio\2019\Comm'
	DB	'unity\VC\Tools\MSVC\14.23.28105\include\xlocale', 00H
$SG112487 DB	'nv12', 00H
	ORG $+3
$SG112488 DB	'yv12', 00H
	ORG $+3
$SG112489 DB	'yuy2', 00H
	ORG $+3
$SG112490 DB	'yuv422', 00H
	ORG $+1
$SG112491 DB	'nv16', 00H
	ORG $+3
$SG112492 DB	'yuv444', 00H
	ORG $+1
$SG112494 DB	'yv12(10bit)', 00H
$SG112495 DB	'yv12(12bit)', 00H
$SG112496 DB	'yv12(14bit)', 00H
$SG112497 DB	'yv12(16bit)', 00H
$SG112498 DB	'p010', 00H
	ORG $+3
$SG112499 DB	'yuv422(9bit)', 00H
	ORG $+3
$SG112500 DB	'yuv422(10bit)', 00H
	ORG $+2
$SG112501 DB	'yuv422(12bit)', 00H
	ORG $+2
$SG112502 DB	'yuv422(14bit)', 00H
	ORG $+2
$SG112503 DB	'yuv422(16bit)', 00H
	ORG $+2
$SG112504 DB	'p210', 00H
	ORG $+3
$SG112505 DB	'yuv444(9bit)', 00H
	ORG $+3
$SG112506 DB	'yuv444(10bit)', 00H
	ORG $+2
$SG112507 DB	'yuv444(12bit)', 00H
	ORG $+2
$SG112508 DB	'yuv444(14bit)', 00H
	ORG $+2
$SG112509 DB	'yuv444(16bit)', 00H
	ORG $+2
$SG112510 DB	'yuva444', 00H
$SG112511 DB	'yuva444(16bit)', 00H
	ORG $+1
$SG112512 DB	'rgb24r', 00H
	ORG $+1
$SG112513 DB	'rgb32r', 00H
	ORG $+1
$SG112514 DB	'rgb24', 00H
	ORG $+2
$SG112515 DB	'rgb32', 00H
	ORG $+2
$SG112516 DB	'bgr24', 00H
	ORG $+2
$SG112517 DB	'bgr32', 00H
	ORG $+2
$SG112518 DB	'rgb', 00H
$SG112519 DB	'rgba', 00H
	ORG $+3
$SG112520 DB	'gbr', 00H
$SG112521 DB	'gbra', 00H
	ORG $+3
$SG112522 DB	'yc48', 00H
	ORG $+3
$SG112523 DB	'y8', 00H
	ORG $+1
$SG112524 DB	'yc16', 00H
	ORG $+3
$SG113456 DB	'H.264/AVC', 00H
	ORG $+2
$SG113458 DB	'H.265/HEVC', 00H
	ORG $+1
$SG113460 DB	'MPEG2', 00H
	ORG $+2
$SG113462 DB	'MPEG1', 00H
	ORG $+2
$SG113464 DB	'VC-1', 00H
	ORG $+3
$SG113466 DB	'MPEG4', 00H
	ORG $+2
$SG113468 DB	'VP8', 00H
$SG113470 DB	'VP9', 00H
$SG113472 DB	'unknown', 00H
$SG113579 DB	'unknown', 00H
$SG114077 DB	'smpte170m', 00H
	ORG $+2
?list_colormatrix@@3QBUCX_DESC@@B DD FLAT:$SG114074	; list_colormatrix
	DD	02H
	DD	FLAT:$SG114075
	DD	07fffffffH
	DD	FLAT:$SG114076
	DD	01H
	DD	FLAT:$SG114077
	DD	06H
	DD	FLAT:$SG114078
	DD	05H
	DD	FLAT:$SG114079
	DD	07H
	DD	FLAT:$SG114080
	DD	08H
	DD	FLAT:$SG114081
	DD	04H
	DD	FLAT:$SG114082
	DD	00H
	DD	FLAT:$SG114083
	DD	09H
	DD	FLAT:$SG114084
	DD	0aH
	DD	FLAT:$SG114085
	DD	0cH
	DD	FLAT:$SG114086
	DD	0dH
	DD	FLAT:$SG114087
	DD	0eH
	DD	FLAT:$SG114088
	DD	0fH
	DD	00H
	DD	00H
$SG114074 DB	'undef', 00H
	ORG $+2
$SG114075 DB	'auto', 00H
	ORG $+3
$SG114076 DB	'bt709', 00H
	ORG $+2
$SG114078 DB	'bt470bg', 00H
$SG114079 DB	'smpte240m', 00H
	ORG $+2
$SG114080 DB	'YCgCo', 00H
	ORG $+2
$SG114081 DB	'fcc', 00H
$SG114082 DB	'GBR', 00H
$SG114083 DB	'bt2020nc', 00H
	ORG $+3
$SG114084 DB	'bt2020c', 00H
$SG114085 DB	'derived-ncl', 00H
$SG114086 DB	'derived-cl', 00H
	ORG $+1
$SG114087 DB	'ictco', 00H
	ORG $+2
$SG114088 DB	'2100-lms', 00H
	ORG $+3
$SG114229 DB	'undef', 00H
	ORG $+2
$SG114232 DB	'smpte170m', 00H
	ORG $+2
?list_transfer@@3QBUCX_DESC@@B DD FLAT:$SG114229	; list_transfer
	DD	02H
	DD	FLAT:$SG114230
	DD	07fffffffH
	DD	FLAT:$SG114231
	DD	01H
	DD	FLAT:$SG114232
	DD	06H
	DD	FLAT:$SG114233
	DD	04H
	DD	FLAT:$SG114234
	DD	05H
	DD	FLAT:$SG114235
	DD	07H
	DD	FLAT:$SG114236
	DD	08H
	DD	FLAT:$SG114237
	DD	09H
	DD	FLAT:$SG114238
	DD	0aH
	DD	FLAT:$SG114239
	DD	0bH
	DD	FLAT:$SG114240
	DD	0cH
	DD	FLAT:$SG114241
	DD	0dH
	DD	FLAT:$SG114242
	DD	0eH
	DD	FLAT:$SG114243
	DD	0fH
	DD	FLAT:$SG114244
	DD	010H
	DD	FLAT:$SG114245
	DD	011H
	DD	FLAT:$SG114246
	DD	012H
	DD	00H
	DD	00H
$SG114230 DB	'auto', 00H
	ORG $+3
$SG114231 DB	'bt709', 00H
	ORG $+2
$SG114233 DB	'bt470m', 00H
	ORG $+1
$SG114234 DB	'bt470bg', 00H
$SG114235 DB	'smpte240m', 00H
	ORG $+2
$SG114236 DB	'linear', 00H
	ORG $+1
$SG114237 DB	'log100', 00H
	ORG $+1
$SG114238 DB	'log316', 00H
	ORG $+1
$SG114239 DB	'iec61966-2-4', 00H
	ORG $+3
$SG114240 DB	'bt1361e', 00H
$SG114241 DB	'iec61966-2-1', 00H
	ORG $+3
$SG114242 DB	'bt2020-10', 00H
	ORG $+2
$SG114243 DB	'bt2020-12', 00H
	ORG $+2
$SG114244 DB	'smpte2084', 00H
	ORG $+2
$SG114245 DB	'smpte428', 00H
	ORG $+3
$SG114246 DB	'arib-srd-b67', 00H
	ORG $+3
$SG114378 DB	'undef', 00H
	ORG $+2
$SG114381 DB	'smpte170m', 00H
	ORG $+2
?list_colorprim@@3QBUCX_DESC@@B DD FLAT:$SG114378	; list_colorprim
	DD	02H
	DD	FLAT:$SG114379
	DD	07fffffffH
	DD	FLAT:$SG114380
	DD	01H
	DD	FLAT:$SG114381
	DD	06H
	DD	FLAT:$SG114382
	DD	04H
	DD	FLAT:$SG114383
	DD	05H
	DD	FLAT:$SG114384
	DD	07H
	DD	FLAT:$SG114385
	DD	08H
	DD	FLAT:$SG114386
	DD	09H
	DD	FLAT:$SG114387
	DD	0aH
	DD	FLAT:$SG114388
	DD	0bH
	DD	FLAT:$SG114389
	DD	0cH
	DD	FLAT:$SG114390
	DD	0dH
	DD	00H
	DD	00H
$SG114379 DB	'auto', 00H
	ORG $+3
$SG114380 DB	'bt709', 00H
	ORG $+2
$SG114382 DB	'bt470m', 00H
	ORG $+1
$SG114383 DB	'bt470bg', 00H
$SG114384 DB	'smpte240m', 00H
	ORG $+2
$SG114385 DB	'film', 00H
	ORG $+3
$SG114386 DB	'bt2020', 00H
	ORG $+1
$SG114387 DB	'st428', 00H
	ORG $+2
$SG114388 DB	'st431-2', 00H
$SG114389 DB	'st432-1', 00H
$SG114390 DB	'ebu3213-e', 00H
	ORG $+2
?list_videoformat@@3QBUCX_DESC@@B DD FLAT:$SG114392	; list_videoformat
	DD	05H
	DD	FLAT:$SG114393
	DD	02H
	DD	FLAT:$SG114394
	DD	00H
	DD	FLAT:$SG114395
	DD	01H
	DD	FLAT:$SG114396
	DD	03H
	DD	FLAT:$SG114397
	DD	04H
	DD	00H
	DD	00H
$SG114392 DB	'undef', 00H
	ORG $+2
$SG114393 DB	'ntsc', 00H
	ORG $+3
$SG114394 DB	'component', 00H
	ORG $+2
$SG114395 DB	'pal', 00H
$SG114396 DB	'secam', 00H
	ORG $+2
$SG114397 DB	'mac', 00H
$SG114399 DB	'0', 00H
	ORG $+2
$SG114400 DB	'1', 00H
	ORG $+2
$SG114401 DB	'2', 00H
	ORG $+2
$SG114402 DB	'3', 00H
	ORG $+2
$SG114403 DB	'4', 00H
	ORG $+2
$SG114404 DB	'5', 00H
	ORG $+2
$SG114406 DB	'limited', 00H
$SG114407 DB	'full', 00H
	ORG $+3
$SG114408 DB	'tv', 00H
	ORG $+1
$SG114409 DB	'pc', 00H
CONST	ENDS
PUBLIC	?__empty_global_delete@@YAXPAX@Z		; __empty_global_delete
PUBLIC	?__empty_global_delete@@YAXPAXI@Z		; __empty_global_delete
PUBLIC	??2@YAPAXIPAX@Z					; operator new
PUBLIC	___local_stdio_printf_options
PUBLIC	__vswprintf_s_l
PUBLIC	_vswprintf_s
PUBLIC	__vscwprintf_l
PUBLIC	__vscwprintf
PUBLIC	__vfprintf_l
PUBLIC	_fprintf
PUBLIC	__vsprintf_s_l
PUBLIC	_vsprintf_s
PUBLIC	__vscprintf_l
PUBLIC	__vscprintf
PUBLIC	_wmemcpy
PUBLIC	_wmemmove
PUBLIC	?max@?$numeric_limits@H@std@@SAHXZ		; std::numeric_limits<int>::max
PUBLIC	??0exception@std@@QAE@QBDH@Z			; std::exception::exception
PUBLIC	??0exception@std@@QAE@ABV01@@Z			; std::exception::exception
PUBLIC	??1exception@std@@UAE@XZ			; std::exception::~exception
PUBLIC	?what@exception@std@@UBEPBDXZ			; std::exception::what
PUBLIC	??_Gexception@std@@UAEPAXI@Z			; std::exception::`scalar deleting destructor'
PUBLIC	??0bad_alloc@std@@AAE@QBD@Z			; std::bad_alloc::bad_alloc
PUBLIC	??1bad_alloc@std@@UAE@XZ			; std::bad_alloc::~bad_alloc
PUBLIC	??0bad_alloc@std@@QAE@ABV01@@Z			; std::bad_alloc::bad_alloc
PUBLIC	??_Gbad_alloc@std@@UAEPAXI@Z			; std::bad_alloc::`scalar deleting destructor'
PUBLIC	??0bad_array_new_length@std@@QAE@XZ		; std::bad_array_new_length::bad_array_new_length
PUBLIC	??1bad_array_new_length@std@@UAE@XZ		; std::bad_array_new_length::~bad_array_new_length
PUBLIC	??0bad_array_new_length@std@@QAE@ABV01@@Z	; std::bad_array_new_length::bad_array_new_length
PUBLIC	??_Gbad_array_new_length@std@@UAEPAXI@Z		; std::bad_array_new_length::`scalar deleting destructor'
PUBLIC	?_Throw_bad_array_new_length@std@@YAXXZ		; std::_Throw_bad_array_new_length
PUBLIC	?strstr@@YAPADQADQBD@Z				; strstr
PUBLIC	??0_Iterator_base12_compatible@std@@QAE@XZ	; std::_Iterator_base12_compatible::_Iterator_base12_compatible
PUBLIC	?_Allocate@_Default_allocate_traits@std@@SAPAXI@Z ; std::_Default_allocate_traits::_Allocate
PUBLIC	?_Adjust_manually_vector_aligned@std@@YAXAAPAXAAI@Z ; std::_Adjust_manually_vector_aligned
PUBLIC	??$_Convert_size@I@std@@YAII@Z			; std::_Convert_size<unsigned int>
PUBLIC	??0_Container_proxy@std@@QAE@PAU_Container_base12@1@@Z ; std::_Container_proxy::_Container_proxy
PUBLIC	??0_Container_base12@std@@QAE@XZ		; std::_Container_base12::_Container_base12
PUBLIC	?_Orphan_all@_Container_base12@std@@QAEXXZ	; std::_Container_base12::_Orphan_all
PUBLIC	?_Swap_proxy_and_iterators@_Container_base12@std@@QAEXAAU12@@Z ; std::_Container_base12::_Swap_proxy_and_iterators
PUBLIC	?_Release@_Basic_container_proxy_ptr12@std@@QAEXXZ ; std::_Basic_container_proxy_ptr12::_Release
PUBLIC	?_Check_C_return@std@@YAHH@Z			; std::_Check_C_return
PUBLIC	?length@?$_WChar_traits@_W@std@@SAIPB_W@Z	; std::_WChar_traits<wchar_t>::length
PUBLIC	?copy@?$_WChar_traits@_W@std@@SAPA_WQA_WQB_WI@Z	; std::_WChar_traits<wchar_t>::copy
PUBLIC	?move@?$_WChar_traits@_W@std@@SAPA_WQA_WQB_WI@Z	; std::_WChar_traits<wchar_t>::move
PUBLIC	?assign@?$_WChar_traits@_W@std@@SAXAA_WAB_W@Z	; std::_WChar_traits<wchar_t>::assign
PUBLIC	?length@?$_Narrow_char_traits@DH@std@@SAIQBD@Z	; std::_Narrow_char_traits<char,int>::length
PUBLIC	?copy@?$_Narrow_char_traits@DH@std@@SAPADQADQBDI@Z ; std::_Narrow_char_traits<char,int>::copy
PUBLIC	?move@?$_Narrow_char_traits@DH@std@@SAPADQADQBDI@Z ; std::_Narrow_char_traits<char,int>::move
PUBLIC	?assign@?$_Narrow_char_traits@DH@std@@SAXAADABD@Z ; std::_Narrow_char_traits<char,int>::assign
PUBLIC	??0?$allocator@D@std@@QAE@XZ			; std::allocator<char>::allocator<char>
PUBLIC	?deallocate@?$allocator@D@std@@QAEXQADI@Z	; std::allocator<char>::deallocate
PUBLIC	?allocate@?$allocator@D@std@@QAEPADI@Z		; std::allocator<char>::allocate
PUBLIC	?max_size@?$_Default_allocator_traits@V?$allocator@D@std@@@std@@SAIABV?$allocator@D@2@@Z ; std::_Default_allocator_traits<std::allocator<char> >::max_size
PUBLIC	?select_on_container_copy_construction@?$_Default_allocator_traits@V?$allocator@D@std@@@std@@SA?AV?$allocator@D@2@ABV32@@Z ; std::_Default_allocator_traits<std::allocator<char> >::select_on_container_copy_construction
PUBLIC	??0?$_String_val@U?$_Simple_types@D@std@@@std@@QAE@XZ ; std::_String_val<std::_Simple_types<char> >::_String_val<std::_Simple_types<char> >
PUBLIC	?_Myptr@?$_String_val@U?$_Simple_types@D@std@@@std@@QAEPADXZ ; std::_String_val<std::_Simple_types<char> >::_Myptr
PUBLIC	?_Myptr@?$_String_val@U?$_Simple_types@D@std@@@std@@QBEPBDXZ ; std::_String_val<std::_Simple_types<char> >::_Myptr
PUBLIC	?_Large_string_engaged@?$_String_val@U?$_Simple_types@D@std@@@std@@QBE_NXZ ; std::_String_val<std::_Simple_types<char> >::_Large_string_engaged
PUBLIC	?_Check_offset@?$_String_val@U?$_Simple_types@D@std@@@std@@QBEXI@Z ; std::_String_val<std::_Simple_types<char> >::_Check_offset
PUBLIC	?_Xran@?$_String_val@U?$_Simple_types@D@std@@@std@@SAXXZ ; std::_String_val<std::_Simple_types<char> >::_Xran
PUBLIC	??0_Bxty@?$_String_val@U?$_Simple_types@D@std@@@std@@QAE@XZ ; std::_String_val<std::_Simple_types<char> >::_Bxty::_Bxty
PUBLIC	??1_Bxty@?$_String_val@U?$_Simple_types@D@std@@@std@@QAE@XZ ; std::_String_val<std::_Simple_types<char> >::_Bxty::~_Bxty
PUBLIC	??1?$_String_val@U?$_Simple_types@D@std@@@std@@QAE@XZ ; std::_String_val<std::_Simple_types<char> >::~_String_val<std::_Simple_types<char> >
PUBLIC	??0?$basic_string@DU?$char_traits@D@std@@V?$allocator@D@2@@std@@QAE@ABV01@@Z ; std::basic_string<char,std::char_traits<char>,std::allocator<char> >::basic_string<char,std::char_traits<char>,std::allocator<char> >
PUBLIC	??0?$basic_string@DU?$char_traits@D@std@@V?$allocator@D@2@@std@@QAE@XZ ; std::basic_string<char,std::char_traits<char>,std::allocator<char> >::basic_string<char,std::char_traits<char>,std::allocator<char> >
PUBLIC	??0?$basic_string@DU?$char_traits@D@std@@V?$allocator@D@2@@std@@QAE@QBD@Z ; std::basic_string<char,std::char_traits<char>,std::allocator<char> >::basic_string<char,std::char_traits<char>,std::allocator<char> >
PUBLIC	??0?$basic_string@DU?$char_traits@D@std@@V?$allocator@D@2@@std@@QAE@$$QAV01@@Z ; std::basic_string<char,std::char_traits<char>,std::allocator<char> >::basic_string<char,std::char_traits<char>,std::allocator<char> >
PUBLIC	?_Move_assign@?$basic_string@DU?$char_traits@D@std@@V?$allocator@D@2@@std@@AAEXAAV12@U_Equal_allocators@2@@Z ; std::basic_string<char,std::char_traits<char>,std::allocator<char> >::_Move_assign
PUBLIC	??4?$basic_string@DU?$char_traits@D@std@@V?$allocator@D@2@@std@@QAEAAV01@$$QAV01@@Z ; std::basic_string<char,std::char_traits<char>,std::allocator<char> >::operator=
PUBLIC	?_Memcpy_val_from@?$basic_string@DU?$char_traits@D@std@@V?$allocator@D@2@@std@@AAEXABV12@@Z ; std::basic_string<char,std::char_traits<char>,std::allocator<char> >::_Memcpy_val_from
PUBLIC	?_Take_contents@?$basic_string@DU?$char_traits@D@std@@V?$allocator@D@2@@std@@AAEXAAV12@U?$integral_constant@_N$00@2@@Z ; std::basic_string<char,std::char_traits<char>,std::allocator<char> >::_Take_contents
PUBLIC	?_Construct_lv_contents@?$basic_string@DU?$char_traits@D@std@@V?$allocator@D@2@@std@@AAEXABV12@@Z ; std::basic_string<char,std::char_traits<char>,std::allocator<char> >::_Construct_lv_contents
PUBLIC	??1?$basic_string@DU?$char_traits@D@std@@V?$allocator@D@2@@std@@QAE@XZ ; std::basic_string<char,std::char_traits<char>,std::allocator<char> >::~basic_string<char,std::char_traits<char>,std::allocator<char> >
PUBLIC	??Y?$basic_string@DU?$char_traits@D@std@@V?$allocator@D@2@@std@@QAEAAV01@ABV01@@Z ; std::basic_string<char,std::char_traits<char>,std::allocator<char> >::operator+=
PUBLIC	??Y?$basic_string@DU?$char_traits@D@std@@V?$allocator@D@2@@std@@QAEAAV01@QBD@Z ; std::basic_string<char,std::char_traits<char>,std::allocator<char> >::operator+=
PUBLIC	?append@?$basic_string@DU?$char_traits@D@std@@V?$allocator@D@2@@std@@QAEAAV12@ABV12@@Z ; std::basic_string<char,std::char_traits<char>,std::allocator<char> >::append
PUBLIC	?append@?$basic_string@DU?$char_traits@D@std@@V?$allocator@D@2@@std@@QAEAAV12@QBDI@Z ; std::basic_string<char,std::char_traits<char>,std::allocator<char> >::append
PUBLIC	?append@?$basic_string@DU?$char_traits@D@std@@V?$allocator@D@2@@std@@QAEAAV12@QBD@Z ; std::basic_string<char,std::char_traits<char>,std::allocator<char> >::append
PUBLIC	?assign@?$basic_string@DU?$char_traits@D@std@@V?$allocator@D@2@@std@@QAEAAV12@QBDI@Z ; std::basic_string<char,std::char_traits<char>,std::allocator<char> >::assign
PUBLIC	?assign@?$basic_string@DU?$char_traits@D@std@@V?$allocator@D@2@@std@@QAEAAV12@QBD@Z ; std::basic_string<char,std::char_traits<char>,std::allocator<char> >::assign
PUBLIC	?insert@?$basic_string@DU?$char_traits@D@std@@V?$allocator@D@2@@std@@QAEAAV12@IABV12@@Z ; std::basic_string<char,std::char_traits<char>,std::allocator<char> >::insert
PUBLIC	?insert@?$basic_string@DU?$char_traits@D@std@@V?$allocator@D@2@@std@@QAEAAV12@IQBDI@Z ; std::basic_string<char,std::char_traits<char>,std::allocator<char> >::insert
PUBLIC	?insert@?$basic_string@DU?$char_traits@D@std@@V?$allocator@D@2@@std@@QAEAAV12@IQBD@Z ; std::basic_string<char,std::char_traits<char>,std::allocator<char> >::insert
PUBLIC	??A?$basic_string@DU?$char_traits@D@std@@V?$allocator@D@2@@std@@QAEAADI@Z ; std::basic_string<char,std::char_traits<char>,std::allocator<char> >::operator[]
PUBLIC	?c_str@?$basic_string@DU?$char_traits@D@std@@V?$allocator@D@2@@std@@QBEPBDXZ ; std::basic_string<char,std::char_traits<char>,std::allocator<char> >::c_str
PUBLIC	?size@?$basic_string@DU?$char_traits@D@std@@V?$allocator@D@2@@std@@QBEIXZ ; std::basic_string<char,std::char_traits<char>,std::allocator<char> >::size
PUBLIC	?max_size@?$basic_string@DU?$char_traits@D@std@@V?$allocator@D@2@@std@@QBEIXZ ; std::basic_string<char,std::char_traits<char>,std::allocator<char> >::max_size
PUBLIC	?capacity@?$basic_string@DU?$char_traits@D@std@@V?$allocator@D@2@@std@@QBEIXZ ; std::basic_string<char,std::char_traits<char>,std::allocator<char> >::capacity
PUBLIC	?_Calculate_growth@?$basic_string@DU?$char_traits@D@std@@V?$allocator@D@2@@std@@CAIIII@Z ; std::basic_string<char,std::char_traits<char>,std::allocator<char> >::_Calculate_growth
PUBLIC	?_Calculate_growth@?$basic_string@DU?$char_traits@D@std@@V?$allocator@D@2@@std@@ABEII@Z ; std::basic_string<char,std::char_traits<char>,std::allocator<char> >::_Calculate_growth
PUBLIC	?_Tidy_init@?$basic_string@DU?$char_traits@D@std@@V?$allocator@D@2@@std@@AAEXXZ ; std::basic_string<char,std::char_traits<char>,std::allocator<char> >::_Tidy_init
PUBLIC	?_Tidy_deallocate@?$basic_string@DU?$char_traits@D@std@@V?$allocator@D@2@@std@@AAEXXZ ; std::basic_string<char,std::char_traits<char>,std::allocator<char> >::_Tidy_deallocate
PUBLIC	?_Xlen@?$basic_string@DU?$char_traits@D@std@@V?$allocator@D@2@@std@@CAXXZ ; std::basic_string<char,std::char_traits<char>,std::allocator<char> >::_Xlen
PUBLIC	?_Swap_proxy_and_iterators@?$basic_string@DU?$char_traits@D@std@@V?$allocator@D@2@@std@@AAEXAAV12@@Z ; std::basic_string<char,std::char_traits<char>,std::allocator<char> >::_Swap_proxy_and_iterators
PUBLIC	?_Getal@?$basic_string@DU?$char_traits@D@std@@V?$allocator@D@2@@std@@AAEAAV?$allocator@D@2@XZ ; std::basic_string<char,std::char_traits<char>,std::allocator<char> >::_Getal
PUBLIC	?_Getal@?$basic_string@DU?$char_traits@D@std@@V?$allocator@D@2@@std@@ABEABV?$allocator@D@2@XZ ; std::basic_string<char,std::char_traits<char>,std::allocator<char> >::_Getal
PUBLIC	?_Get_first@?$_Compressed_pair@V?$allocator@D@std@@V?$_String_val@U?$_Simple_types@D@std@@@2@$00@std@@QAEAAV?$allocator@D@2@XZ ; std::_Compressed_pair<std::allocator<char>,std::_String_val<std::_Simple_types<char> >,1>::_Get_first
PUBLIC	?_Get_first@?$_Compressed_pair@V?$allocator@D@std@@V?$_String_val@U?$_Simple_types@D@std@@@2@$00@std@@QBEABV?$allocator@D@2@XZ ; std::_Compressed_pair<std::allocator<char>,std::_String_val<std::_Simple_types<char> >,1>::_Get_first
PUBLIC	??1?$_Compressed_pair@V?$allocator@D@std@@V?$_String_val@U?$_Simple_types@D@std@@@2@$00@std@@QAE@XZ ; std::_Compressed_pair<std::allocator<char>,std::_String_val<std::_Simple_types<char> >,1>::~_Compressed_pair<std::allocator<char>,std::_String_val<std::_Simple_types<char> >,1>
PUBLIC	??_G?$basic_string@DU?$char_traits@D@std@@V?$allocator@D@2@@std@@QAEPAXI@Z ; std::basic_string<char,std::char_traits<char>,std::allocator<char> >::`scalar deleting destructor'
PUBLIC	??0?$allocator@_W@std@@QAE@XZ			; std::allocator<wchar_t>::allocator<wchar_t>
PUBLIC	?deallocate@?$allocator@_W@std@@QAEXQA_WI@Z	; std::allocator<wchar_t>::deallocate
PUBLIC	?allocate@?$allocator@_W@std@@QAEPA_WI@Z	; std::allocator<wchar_t>::allocate
PUBLIC	?max_size@?$_Default_allocator_traits@V?$allocator@_W@std@@@std@@SAIABV?$allocator@_W@2@@Z ; std::_Default_allocator_traits<std::allocator<wchar_t> >::max_size
PUBLIC	??0?$_String_val@U?$_Simple_types@_W@std@@@std@@QAE@XZ ; std::_String_val<std::_Simple_types<wchar_t> >::_String_val<std::_Simple_types<wchar_t> >
PUBLIC	?_Myptr@?$_String_val@U?$_Simple_types@_W@std@@@std@@QAEPA_WXZ ; std::_String_val<std::_Simple_types<wchar_t> >::_Myptr
PUBLIC	?_Large_string_engaged@?$_String_val@U?$_Simple_types@_W@std@@@std@@QBE_NXZ ; std::_String_val<std::_Simple_types<wchar_t> >::_Large_string_engaged
PUBLIC	??0_Bxty@?$_String_val@U?$_Simple_types@_W@std@@@std@@QAE@XZ ; std::_String_val<std::_Simple_types<wchar_t> >::_Bxty::_Bxty
PUBLIC	??1_Bxty@?$_String_val@U?$_Simple_types@_W@std@@@std@@QAE@XZ ; std::_String_val<std::_Simple_types<wchar_t> >::_Bxty::~_Bxty
PUBLIC	??1?$_String_val@U?$_Simple_types@_W@std@@@std@@QAE@XZ ; std::_String_val<std::_Simple_types<wchar_t> >::~_String_val<std::_Simple_types<wchar_t> >
PUBLIC	??0?$basic_string@_WU?$char_traits@_W@std@@V?$allocator@_W@2@@std@@QAE@QB_W@Z ; std::basic_string<wchar_t,std::char_traits<wchar_t>,std::allocator<wchar_t> >::basic_string<wchar_t,std::char_traits<wchar_t>,std::allocator<wchar_t> >
PUBLIC	??1?$basic_string@_WU?$char_traits@_W@std@@V?$allocator@_W@2@@std@@QAE@XZ ; std::basic_string<wchar_t,std::char_traits<wchar_t>,std::allocator<wchar_t> >::~basic_string<wchar_t,std::char_traits<wchar_t>,std::allocator<wchar_t> >
PUBLIC	?assign@?$basic_string@_WU?$char_traits@_W@std@@V?$allocator@_W@2@@std@@QAEAAV12@QB_WI@Z ; std::basic_string<wchar_t,std::char_traits<wchar_t>,std::allocator<wchar_t> >::assign
PUBLIC	?assign@?$basic_string@_WU?$char_traits@_W@std@@V?$allocator@_W@2@@std@@QAEAAV12@QB_W@Z ; std::basic_string<wchar_t,std::char_traits<wchar_t>,std::allocator<wchar_t> >::assign
PUBLIC	?max_size@?$basic_string@_WU?$char_traits@_W@std@@V?$allocator@_W@2@@std@@QBEIXZ ; std::basic_string<wchar_t,std::char_traits<wchar_t>,std::allocator<wchar_t> >::max_size
PUBLIC	?_Calculate_growth@?$basic_string@_WU?$char_traits@_W@std@@V?$allocator@_W@2@@std@@CAIIII@Z ; std::basic_string<wchar_t,std::char_traits<wchar_t>,std::allocator<wchar_t> >::_Calculate_growth
PUBLIC	?_Calculate_growth@?$basic_string@_WU?$char_traits@_W@std@@V?$allocator@_W@2@@std@@ABEII@Z ; std::basic_string<wchar_t,std::char_traits<wchar_t>,std::allocator<wchar_t> >::_Calculate_growth
PUBLIC	?_Tidy_init@?$basic_string@_WU?$char_traits@_W@std@@V?$allocator@_W@2@@std@@AAEXXZ ; std::basic_string<wchar_t,std::char_traits<wchar_t>,std::allocator<wchar_t> >::_Tidy_init
PUBLIC	?_Tidy_deallocate@?$basic_string@_WU?$char_traits@_W@std@@V?$allocator@_W@2@@std@@AAEXXZ ; std::basic_string<wchar_t,std::char_traits<wchar_t>,std::allocator<wchar_t> >::_Tidy_deallocate
PUBLIC	?_Xlen@?$basic_string@_WU?$char_traits@_W@std@@V?$allocator@_W@2@@std@@CAXXZ ; std::basic_string<wchar_t,std::char_traits<wchar_t>,std::allocator<wchar_t> >::_Xlen
PUBLIC	?_Getal@?$basic_string@_WU?$char_traits@_W@std@@V?$allocator@_W@2@@std@@AAEAAV?$allocator@_W@2@XZ ; std::basic_string<wchar_t,std::char_traits<wchar_t>,std::allocator<wchar_t> >::_Getal
PUBLIC	?_Getal@?$basic_string@_WU?$char_traits@_W@std@@V?$allocator@_W@2@@std@@ABEABV?$allocator@_W@2@XZ ; std::basic_string<wchar_t,std::char_traits<wchar_t>,std::allocator<wchar_t> >::_Getal
PUBLIC	?_Get_first@?$_Compressed_pair@V?$allocator@_W@std@@V?$_String_val@U?$_Simple_types@_W@std@@@2@$00@std@@QAEAAV?$allocator@_W@2@XZ ; std::_Compressed_pair<std::allocator<wchar_t>,std::_String_val<std::_Simple_types<wchar_t> >,1>::_Get_first
PUBLIC	?_Get_first@?$_Compressed_pair@V?$allocator@_W@std@@V?$_String_val@U?$_Simple_types@_W@std@@@2@$00@std@@QBEABV?$allocator@_W@2@XZ ; std::_Compressed_pair<std::allocator<wchar_t>,std::_String_val<std::_Simple_types<wchar_t> >,1>::_Get_first
PUBLIC	??1?$_Compressed_pair@V?$allocator@_W@std@@V?$_String_val@U?$_Simple_types@_W@std@@@2@$00@std@@QAE@XZ ; std::_Compressed_pair<std::allocator<wchar_t>,std::_String_val<std::_Simple_types<wchar_t> >,1>::~_Compressed_pair<std::allocator<wchar_t>,std::_String_val<std::_Simple_types<wchar_t> >,1>
PUBLIC	??0_Mutex_base@std@@QAE@H@Z			; std::_Mutex_base::_Mutex_base
PUBLIC	??1_Mutex_base@std@@QAE@XZ			; std::_Mutex_base::~_Mutex_base
PUBLIC	?lock@_Mutex_base@std@@QAEXXZ			; std::_Mutex_base::lock
PUBLIC	?unlock@_Mutex_base@std@@QAEXXZ			; std::_Mutex_base::unlock
PUBLIC	?_Mymtx@_Mutex_base@std@@AAEPAU_Mtx_internal_imp_t@@XZ ; std::_Mutex_base::_Mymtx
PUBLIC	??0mutex@std@@QAE@XZ				; std::mutex::mutex
PUBLIC	??1mutex@std@@QAE@XZ				; std::mutex::~mutex
PUBLIC	??_Gmutex@std@@QAEPAXI@Z			; std::mutex::`scalar deleting destructor'
PUBLIC	??0?$lock_guard@Vmutex@std@@@std@@QAE@AAVmutex@1@@Z ; std::lock_guard<std::mutex>::lock_guard<std::mutex>
PUBLIC	??1?$lock_guard@Vmutex@std@@@std@@QAE@XZ	; std::lock_guard<std::mutex>::~lock_guard<std::mutex>
PUBLIC	??$_Adl_verify_range@PADPAD@std@@YAXABQAD0@Z	; std::_Adl_verify_range<char *,char *>
PUBLIC	??$make_array@W4CspMatrix@@W41@W41@W41@W41@W41@W41@W41@W41@W41@W41@W41@W41@W41@W41@@@YA?AV?$array@W4CspMatrix@@$0O@@std@@$$QAW4CspMatrix@@0000000000000@Z ; make_array<enum CspMatrix,enum CspMatrix,enum CspMatrix,enum CspMatrix,enum CspMatrix,enum CspMatrix,enum CspMatrix,enum CspMatrix,enum CspMatrix,enum CspMatrix,enum CspMatrix,enum CspMatrix,enum CspMatrix,enum CspMatrix,enum CspMatrix>
PUBLIC	??$make_array@W4CspTransfer@@W41@W41@W41@W41@W41@W41@W41@W41@W41@W41@W41@W41@W41@W41@W41@@@YA?AV?$array@W4CspTransfer@@$0P@@std@@$$QAW4CspTransfer@@00000000000000@Z ; make_array<enum CspTransfer,enum CspTransfer,enum CspTransfer,enum CspTransfer,enum CspTransfer,enum CspTransfer,enum CspTransfer,enum CspTransfer,enum CspTransfer,enum CspTransfer,enum CspTransfer,enum CspTransfer,enum CspTransfer,enum CspTransfer,enum CspTransfer,enum CspTransfer>
PUBLIC	??$make_array@W4CspColorprim@@W41@W41@W41@W41@W41@W41@W41@W41@W41@W41@W41@W41@@@YA?AV?$array@W4CspColorprim@@$0M@@std@@$$QAW4CspColorprim@@00000000000@Z ; make_array<enum CspColorprim,enum CspColorprim,enum CspColorprim,enum CspColorprim,enum CspColorprim,enum CspColorprim,enum CspColorprim,enum CspColorprim,enum CspColorprim,enum CspColorprim,enum CspColorprim,enum CspColorprim,enum CspColorprim>
PUBLIC	??$?HDU?$char_traits@D@std@@V?$allocator@D@1@@std@@YA?AV?$basic_string@DU?$char_traits@D@std@@V?$allocator@D@2@@0@$$QAV10@QBD@Z ; std::operator+<char,std::char_traits<char>,std::allocator<char> >
PUBLIC	??$?HDU?$char_traits@D@std@@V?$allocator@D@1@@std@@YA?AV?$basic_string@DU?$char_traits@D@std@@V?$allocator@D@2@@0@$$QAV10@0@Z ; std::operator+<char,std::char_traits<char>,std::allocator<char> >
PUBLIC	??R?$default_delete@Vmutex@std@@@std@@QBEXPAVmutex@1@@Z ; std::default_delete<std::mutex>::operator()
PUBLIC	??1?$unique_ptr@Vmutex@std@@U?$default_delete@Vmutex@std@@@2@@std@@QAE@XZ ; std::unique_ptr<std::mutex,std::default_delete<std::mutex> >::~unique_ptr<std::mutex,std::default_delete<std::mutex> >
PUBLIC	?get@?$unique_ptr@Vmutex@std@@U?$default_delete@Vmutex@std@@@2@@std@@QBEPAVmutex@2@XZ ; std::unique_ptr<std::mutex,std::default_delete<std::mutex> >::get
PUBLIC	?reset@?$unique_ptr@Vmutex@std@@U?$default_delete@Vmutex@std@@@2@@std@@QAEXPAVmutex@2@@Z ; std::unique_ptr<std::mutex,std::default_delete<std::mutex> >::reset
PUBLIC	?_Get_first@?$_Compressed_pair@U?$default_delete@Vmutex@std@@@std@@PAVmutex@2@$00@std@@QAEAAU?$default_delete@Vmutex@std@@@2@XZ ; std::_Compressed_pair<std::default_delete<std::mutex>,std::mutex *,1>::_Get_first
PUBLIC	??0RGYLog@@QAE@PBDH@Z				; RGYLog::RGYLog
PUBLIC	??1RGYLog@@UAE@XZ				; RGYLog::~RGYLog
PUBLIC	?init@RGYLog@@QAEXPBDH@Z			; RGYLog::init
PUBLIC	?writeHtmlHeader@RGYLog@@QAEXXZ			; RGYLog::writeHtmlHeader
PUBLIC	?writeFileHeader@RGYLog@@QAEXPBD@Z		; RGYLog::writeFileHeader
PUBLIC	?writeFileFooter@RGYLog@@QAEXXZ			; RGYLog::writeFileFooter
PUBLIC	?write_log@RGYLog@@UAEXHPBD_N@Z			; RGYLog::write_log
PUBLIC	?write@RGYLog@@UAAXHPBDZZ			; RGYLog::write
PUBLIC	?write@RGYLog@@UAEXHPB_WPAD@Z			; RGYLog::write
PUBLIC	?write@RGYLog@@UAEXHPBDPADI@Z			; RGYLog::write
PUBLIC	?write_line@RGYLog@@UAEXHPBDPADI@Z		; RGYLog::write_line
PUBLIC	??_GRGYLog@@UAEPAXI@Z				; RGYLog::`scalar deleting destructor'
PUBLIC	??$?0U?$default_delete@Vmutex@std@@@std@@$0A@@?$unique_ptr@Vmutex@std@@U?$default_delete@Vmutex@std@@@2@@std@@QAE@XZ ; std::unique_ptr<std::mutex,std::default_delete<std::mutex> >::unique_ptr<std::mutex,std::default_delete<std::mutex> ><std::default_delete<std::mutex>,0>
PUBLIC	??1?$pair@HV?$basic_string@DU?$char_traits@D@std@@V?$allocator@D@2@@std@@@std@@QAE@XZ ; std::pair<int,std::basic_string<char,std::char_traits<char>,std::allocator<char> > >::~pair<int,std::basic_string<char,std::char_traits<char>,std::allocator<char> > >
PUBLIC	??0?$allocator@PBD@std@@QAE@XZ			; std::allocator<char const *>::allocator<char const *>
PUBLIC	?deallocate@?$allocator@PBD@std@@QAEXQAPBDI@Z	; std::allocator<char const *>::deallocate
PUBLIC	?allocate@?$allocator@PBD@std@@QAEPAPBDI@Z	; std::allocator<char const *>::allocate
PUBLIC	?max_size@?$_Default_allocator_traits@V?$allocator@PBD@std@@@std@@SAIABV?$allocator@PBD@2@@Z ; std::_Default_allocator_traits<std::allocator<char const *> >::max_size
PUBLIC	??0?$vector@PBDV?$allocator@PBD@std@@@std@@QAE@V?$initializer_list@PBD@1@ABV?$allocator@PBD@1@@Z ; std::vector<char const *,std::allocator<char const *> >::vector<char const *,std::allocator<char const *> >
PUBLIC	??1?$vector@PBDV?$allocator@PBD@std@@@std@@QAE@XZ ; std::vector<char const *,std::allocator<char const *> >::~vector<char const *,std::allocator<char const *> >
PUBLIC	?max_size@?$vector@PBDV?$allocator@PBD@std@@@std@@QBEIXZ ; std::vector<char const *,std::allocator<char const *> >::max_size
PUBLIC	?_Destroy@?$vector@PBDV?$allocator@PBD@std@@@std@@AAEXPAPBD0@Z ; std::vector<char const *,std::allocator<char const *> >::_Destroy
PUBLIC	?_Buy_raw@?$vector@PBDV?$allocator@PBD@std@@@std@@AAEXI@Z ; std::vector<char const *,std::allocator<char const *> >::_Buy_raw
PUBLIC	?_Buy_nonzero@?$vector@PBDV?$allocator@PBD@std@@@std@@AAEXI@Z ; std::vector<char const *,std::allocator<char const *> >::_Buy_nonzero
PUBLIC	?_Tidy@?$vector@PBDV?$allocator@PBD@std@@@std@@AAEXXZ ; std::vector<char const *,std::allocator<char const *> >::_Tidy
PUBLIC	?_Xlength@?$vector@PBDV?$allocator@PBD@std@@@std@@CAXXZ ; std::vector<char const *,std::allocator<char const *> >::_Xlength
PUBLIC	?_Getal@?$vector@PBDV?$allocator@PBD@std@@@std@@AAEAAV?$allocator@PBD@2@XZ ; std::vector<char const *,std::allocator<char const *> >::_Getal
PUBLIC	?_Getal@?$vector@PBDV?$allocator@PBD@std@@@std@@ABEABV?$allocator@PBD@2@XZ ; std::vector<char const *,std::allocator<char const *> >::_Getal
PUBLIC	??0?$_Vector_val@U?$_Simple_types@PBD@std@@@std@@QAE@XZ ; std::_Vector_val<std::_Simple_types<char const *> >::_Vector_val<std::_Simple_types<char const *> >
PUBLIC	?_Get_first@?$_Compressed_pair@V?$allocator@PBD@std@@V?$_Vector_val@U?$_Simple_types@PBD@std@@@2@$00@std@@QAEAAV?$allocator@PBD@2@XZ ; std::_Compressed_pair<std::allocator<char const *>,std::_Vector_val<std::_Simple_types<char const *> >,1>::_Get_first
PUBLIC	?_Get_first@?$_Compressed_pair@V?$allocator@PBD@std@@V?$_Vector_val@U?$_Simple_types@PBD@std@@@2@$00@std@@QBEABV?$allocator@PBD@2@XZ ; std::_Compressed_pair<std::allocator<char const *>,std::_Vector_val<std::_Simple_types<char const *> >,1>::_Get_first
PUBLIC	??0?$initializer_list@PBD@std@@QAE@PBQBD0@Z	; std::initializer_list<char const *>::initializer_list<char const *>
PUBLIC	?begin@?$initializer_list@PBD@std@@QBEPBQBDXZ	; std::initializer_list<char const *>::begin
PUBLIC	?end@?$initializer_list@PBD@std@@QBEPBQBDXZ	; std::initializer_list<char const *>::end
PUBLIC	??$max@H@std@@YAABHABH0@Z			; std::max<int>
PUBLIC	??$?HDU?$char_traits@D@std@@V?$allocator@D@1@@std@@YA?AV?$basic_string@DU?$char_traits@D@std@@V?$allocator@D@2@@0@QBD$$QAV10@@Z ; std::operator+<char,std::char_traits<char>,std::allocator<char> >
PUBLIC	?deallocate@?$allocator@V?$basic_string@DU?$char_traits@D@std@@V?$allocator@D@2@@std@@@std@@QAEXQAV?$basic_string@DU?$char_traits@D@std@@V?$allocator@D@2@@2@I@Z ; std::allocator<std::basic_string<char,std::char_traits<char>,std::allocator<char> > >::deallocate
PUBLIC	??1?$vector@V?$basic_string@DU?$char_traits@D@std@@V?$allocator@D@2@@std@@V?$allocator@V?$basic_string@DU?$char_traits@D@std@@V?$allocator@D@2@@std@@@2@@std@@QAE@XZ ; std::vector<std::basic_string<char,std::char_traits<char>,std::allocator<char> >,std::allocator<std::basic_string<char,std::char_traits<char>,std::allocator<char> > > >::~vector<std::basic_string<char,std::char_traits<char>,std::allocator<char> >,std::allocator<std::basic_string<char,std::char_traits<char>,std::allocator<char> > > >
PUBLIC	?size@?$vector@V?$basic_string@DU?$char_traits@D@std@@V?$allocator@D@2@@std@@V?$allocator@V?$basic_string@DU?$char_traits@D@std@@V?$allocator@D@2@@std@@@2@@std@@QBEIXZ ; std::vector<std::basic_string<char,std::char_traits<char>,std::allocator<char> >,std::allocator<std::basic_string<char,std::char_traits<char>,std::allocator<char> > > >::size
PUBLIC	??A?$vector@V?$basic_string@DU?$char_traits@D@std@@V?$allocator@D@2@@std@@V?$allocator@V?$basic_string@DU?$char_traits@D@std@@V?$allocator@D@2@@std@@@2@@std@@QAEAAV?$basic_string@DU?$char_traits@D@std@@V?$allocator@D@2@@1@I@Z ; std::vector<std::basic_string<char,std::char_traits<char>,std::allocator<char> >,std::allocator<std::basic_string<char,std::char_traits<char>,std::allocator<char> > > >::operator[]
PUBLIC	?_Destroy@?$vector@V?$basic_string@DU?$char_traits@D@std@@V?$allocator@D@2@@std@@V?$allocator@V?$basic_string@DU?$char_traits@D@std@@V?$allocator@D@2@@std@@@2@@std@@AAEXPAV?$basic_string@DU?$char_traits@D@std@@V?$allocator@D@2@@2@0@Z ; std::vector<std::basic_string<char,std::char_traits<char>,std::allocator<char> >,std::allocator<std::basic_string<char,std::char_traits<char>,std::allocator<char> > > >::_Destroy
PUBLIC	?_Tidy@?$vector@V?$basic_string@DU?$char_traits@D@std@@V?$allocator@D@2@@std@@V?$allocator@V?$basic_string@DU?$char_traits@D@std@@V?$allocator@D@2@@std@@@2@@std@@AAEXXZ ; std::vector<std::basic_string<char,std::char_traits<char>,std::allocator<char> >,std::allocator<std::basic_string<char,std::char_traits<char>,std::allocator<char> > > >::_Tidy
PUBLIC	?_Getal@?$vector@V?$basic_string@DU?$char_traits@D@std@@V?$allocator@D@2@@std@@V?$allocator@V?$basic_string@DU?$char_traits@D@std@@V?$allocator@D@2@@std@@@2@@std@@AAEAAV?$allocator@V?$basic_string@DU?$char_traits@D@std@@V?$allocator@D@2@@std@@@2@XZ ; std::vector<std::basic_string<char,std::char_traits<char>,std::allocator<char> >,std::allocator<std::basic_string<char,std::char_traits<char>,std::allocator<char> > > >::_Getal
PUBLIC	?_Get_first@?$_Compressed_pair@V?$allocator@V?$basic_string@DU?$char_traits@D@std@@V?$allocator@D@2@@std@@@std@@V?$_Vector_val@U?$_Simple_types@V?$basic_string@DU?$char_traits@D@std@@V?$allocator@D@2@@std@@@std@@@2@$00@std@@QAEAAV?$allocator@V?$basic_string@DU?$char_traits@D@std@@V?$allocator@D@2@@std@@@2@XZ ; std::_Compressed_pair<std::allocator<std::basic_string<char,std::char_traits<char>,std::allocator<char> > >,std::_Vector_val<std::_Simple_types<std::basic_string<char,std::char_traits<char>,std::allocator<char> > > >,1>::_Get_first
PUBLIC	??0?$vector@_WV?$allocator@_W@std@@@std@@QAE@IAB_WABV?$allocator@_W@1@@Z ; std::vector<wchar_t,std::allocator<wchar_t> >::vector<wchar_t,std::allocator<wchar_t> >
PUBLIC	??1?$vector@_WV?$allocator@_W@std@@@std@@QAE@XZ	; std::vector<wchar_t,std::allocator<wchar_t> >::~vector<wchar_t,std::allocator<wchar_t> >
PUBLIC	?data@?$vector@_WV?$allocator@_W@std@@@std@@QAEPA_WXZ ; std::vector<wchar_t,std::allocator<wchar_t> >::data
PUBLIC	?max_size@?$vector@_WV?$allocator@_W@std@@@std@@QBEIXZ ; std::vector<wchar_t,std::allocator<wchar_t> >::max_size
PUBLIC	?_Ufill@?$vector@_WV?$allocator@_W@std@@@std@@AAEPA_WPA_WIAB_W@Z ; std::vector<wchar_t,std::allocator<wchar_t> >::_Ufill
PUBLIC	?_Destroy@?$vector@_WV?$allocator@_W@std@@@std@@AAEXPA_W0@Z ; std::vector<wchar_t,std::allocator<wchar_t> >::_Destroy
PUBLIC	?_Buy_raw@?$vector@_WV?$allocator@_W@std@@@std@@AAEXI@Z ; std::vector<wchar_t,std::allocator<wchar_t> >::_Buy_raw
PUBLIC	?_Buy_nonzero@?$vector@_WV?$allocator@_W@std@@@std@@AAEXI@Z ; std::vector<wchar_t,std::allocator<wchar_t> >::_Buy_nonzero
PUBLIC	?_Tidy@?$vector@_WV?$allocator@_W@std@@@std@@AAEXXZ ; std::vector<wchar_t,std::allocator<wchar_t> >::_Tidy
PUBLIC	?_Xlength@?$vector@_WV?$allocator@_W@std@@@std@@CAXXZ ; std::vector<wchar_t,std::allocator<wchar_t> >::_Xlength
PUBLIC	?_Getal@?$vector@_WV?$allocator@_W@std@@@std@@AAEAAV?$allocator@_W@2@XZ ; std::vector<wchar_t,std::allocator<wchar_t> >::_Getal
PUBLIC	?_Getal@?$vector@_WV?$allocator@_W@std@@@std@@ABEABV?$allocator@_W@2@XZ ; std::vector<wchar_t,std::allocator<wchar_t> >::_Getal
PUBLIC	??0?$_Vector_val@U?$_Simple_types@_W@std@@@std@@QAE@XZ ; std::_Vector_val<std::_Simple_types<wchar_t> >::_Vector_val<std::_Simple_types<wchar_t> >
PUBLIC	?_Get_first@?$_Compressed_pair@V?$allocator@_W@std@@V?$_Vector_val@U?$_Simple_types@_W@std@@@2@$00@std@@QAEAAV?$allocator@_W@2@XZ ; std::_Compressed_pair<std::allocator<wchar_t>,std::_Vector_val<std::_Simple_types<wchar_t> >,1>::_Get_first
PUBLIC	?_Get_first@?$_Compressed_pair@V?$allocator@_W@std@@V?$_Vector_val@U?$_Simple_types@_W@std@@@2@$00@std@@QBEABV?$allocator@_W@2@XZ ; std::_Compressed_pair<std::allocator<wchar_t>,std::_Vector_val<std::_Simple_types<wchar_t> >,1>::_Get_first
PUBLIC	??0?$vector@DV?$allocator@D@std@@@std@@QAE@IABDABV?$allocator@D@1@@Z ; std::vector<char,std::allocator<char> >::vector<char,std::allocator<char> >
PUBLIC	??1?$vector@DV?$allocator@D@std@@@std@@QAE@XZ	; std::vector<char,std::allocator<char> >::~vector<char,std::allocator<char> >
PUBLIC	?data@?$vector@DV?$allocator@D@std@@@std@@QAEPADXZ ; std::vector<char,std::allocator<char> >::data
PUBLIC	?max_size@?$vector@DV?$allocator@D@std@@@std@@QBEIXZ ; std::vector<char,std::allocator<char> >::max_size
PUBLIC	?_Ufill@?$vector@DV?$allocator@D@std@@@std@@AAEPADPADIABD@Z ; std::vector<char,std::allocator<char> >::_Ufill
PUBLIC	?_Destroy@?$vector@DV?$allocator@D@std@@@std@@AAEXPAD0@Z ; std::vector<char,std::allocator<char> >::_Destroy
PUBLIC	?_Buy_raw@?$vector@DV?$allocator@D@std@@@std@@AAEXI@Z ; std::vector<char,std::allocator<char> >::_Buy_raw
PUBLIC	?_Buy_nonzero@?$vector@DV?$allocator@D@std@@@std@@AAEXI@Z ; std::vector<char,std::allocator<char> >::_Buy_nonzero
PUBLIC	?_Tidy@?$vector@DV?$allocator@D@std@@@std@@AAEXXZ ; std::vector<char,std::allocator<char> >::_Tidy
PUBLIC	?_Xlength@?$vector@DV?$allocator@D@std@@@std@@CAXXZ ; std::vector<char,std::allocator<char> >::_Xlength
PUBLIC	?_Getal@?$vector@DV?$allocator@D@std@@@std@@AAEAAV?$allocator@D@2@XZ ; std::vector<char,std::allocator<char> >::_Getal
PUBLIC	?_Getal@?$vector@DV?$allocator@D@std@@@std@@ABEABV?$allocator@D@2@XZ ; std::vector<char,std::allocator<char> >::_Getal
PUBLIC	??0?$_Vector_val@U?$_Simple_types@D@std@@@std@@QAE@XZ ; std::_Vector_val<std::_Simple_types<char> >::_Vector_val<std::_Simple_types<char> >
PUBLIC	?_Get_first@?$_Compressed_pair@V?$allocator@D@std@@V?$_Vector_val@U?$_Simple_types@D@std@@@2@$00@std@@QAEAAV?$allocator@D@2@XZ ; std::_Compressed_pair<std::allocator<char>,std::_Vector_val<std::_Simple_types<char> >,1>::_Get_first
PUBLIC	?_Get_first@?$_Compressed_pair@V?$allocator@D@std@@V?$_Vector_val@U?$_Simple_types@D@std@@@2@$00@std@@QBEABV?$allocator@D@2@XZ ; std::_Compressed_pair<std::allocator<char>,std::_Vector_val<std::_Simple_types<char> >,1>::_Get_first
PUBLIC	??$_Unfancy_maybe_null@D@std@@YAPADPAD@Z	; std::_Unfancy_maybe_null<char>
PUBLIC	?allocate@?$allocator@U_Container_proxy@std@@@std@@QAEPAU_Container_proxy@2@I@Z ; std::allocator<std::_Container_proxy>::allocate
PUBLIC	??$?0D@?$allocator@U_Container_proxy@std@@@std@@QAE@ABV?$allocator@D@1@@Z ; std::allocator<std::_Container_proxy>::allocator<std::_Container_proxy><char>
PUBLIC	??$exchange@PAU_Container_proxy@std@@$$T@std@@YAPAU_Container_proxy@0@AAPAU10@$$QA$$T@Z ; std::exchange<std::_Container_proxy *,std::nullptr_t>
PUBLIC	??$_Delete_plain_internal@V?$allocator@U_Container_proxy@std@@@std@@@std@@YAXAAV?$allocator@U_Container_proxy@std@@@0@QAU_Container_proxy@0@@Z ; std::_Delete_plain_internal<std::allocator<std::_Container_proxy> >
PUBLIC	??$?0ABV?$allocator@D@std@@$$V@?$_Compressed_pair@V?$allocator@D@std@@V?$_Vector_val@U?$_Simple_types@D@std@@@2@$00@std@@QAE@U_One_then_variadic_args_t@1@ABV?$allocator@D@1@@Z ; std::_Compressed_pair<std::allocator<char>,std::_Vector_val<std::_Simple_types<char> >,1>::_Compressed_pair<std::allocator<char>,std::_Vector_val<std::_Simple_types<char> >,1><std::allocator<char> const &>
PUBLIC	??$_Construct_n_copies_of_ty@D@?$vector@DV?$allocator@D@std@@@std@@AAEXIABD@Z ; std::vector<char,std::allocator<char> >::_Construct_n_copies_of_ty<char>
PUBLIC	??$_Unfancy_maybe_null@_W@std@@YAPA_WPA_W@Z	; std::_Unfancy_maybe_null<wchar_t>
PUBLIC	??$?0_W@?$allocator@U_Container_proxy@std@@@std@@QAE@ABV?$allocator@_W@1@@Z ; std::allocator<std::_Container_proxy>::allocator<std::_Container_proxy><wchar_t>
PUBLIC	??$?0ABV?$allocator@_W@std@@$$V@?$_Compressed_pair@V?$allocator@_W@std@@V?$_Vector_val@U?$_Simple_types@_W@std@@@2@$00@std@@QAE@U_One_then_variadic_args_t@1@ABV?$allocator@_W@1@@Z ; std::_Compressed_pair<std::allocator<wchar_t>,std::_Vector_val<std::_Simple_types<wchar_t> >,1>::_Compressed_pair<std::allocator<wchar_t>,std::_Vector_val<std::_Simple_types<wchar_t> >,1><std::allocator<wchar_t> const &>
PUBLIC	??$_Construct_n_copies_of_ty@_W@?$vector@_WV?$allocator@_W@std@@@std@@AAEXIAB_W@Z ; std::vector<wchar_t,std::allocator<wchar_t> >::_Construct_n_copies_of_ty<wchar_t>
PUBLIC	??$?0V?$basic_string@DU?$char_traits@D@std@@V?$allocator@D@2@@std@@@?$allocator@U_Container_proxy@std@@@std@@QAE@ABV?$allocator@V?$basic_string@DU?$char_traits@D@std@@V?$allocator@D@2@@std@@@1@@Z ; std::allocator<std::_Container_proxy>::allocator<std::_Container_proxy><std::basic_string<char,std::char_traits<char>,std::allocator<char> > >
PUBLIC	??$?0PBD@?$allocator@U_Container_proxy@std@@@std@@QAE@ABV?$allocator@PBD@1@@Z ; std::allocator<std::_Container_proxy>::allocator<std::_Container_proxy><char const *>
PUBLIC	??$?0ABV?$allocator@PBD@std@@$$V@?$_Compressed_pair@V?$allocator@PBD@std@@V?$_Vector_val@U?$_Simple_types@PBD@std@@@2@$00@std@@QAE@U_One_then_variadic_args_t@1@ABV?$allocator@PBD@1@@Z ; std::_Compressed_pair<std::allocator<char const *>,std::_Vector_val<std::_Simple_types<char const *> >,1>::_Compressed_pair<std::allocator<char const *>,std::_Vector_val<std::_Simple_types<char const *> >,1><std::allocator<char const *> const &>
PUBLIC	??0?$_Container_proxy_ptr12@V?$allocator@U_Container_proxy@std@@@std@@@std@@QAE@AAV?$allocator@U_Container_proxy@std@@@1@AAU_Container_base12@1@@Z ; std::_Container_proxy_ptr12<std::allocator<std::_Container_proxy> >::_Container_proxy_ptr12<std::allocator<std::_Container_proxy> >
PUBLIC	??1?$_Container_proxy_ptr12@V?$allocator@U_Container_proxy@std@@@std@@@std@@QAE@XZ ; std::_Container_proxy_ptr12<std::allocator<std::_Container_proxy> >::~_Container_proxy_ptr12<std::allocator<std::_Container_proxy> >
PUBLIC	??$_Range_construct_or_tidy@PBQBD@?$vector@PBDV?$allocator@PBD@std@@@std@@AAEXPBQBD0Uforward_iterator_tag@1@@Z ; std::vector<char const *,std::allocator<char const *> >::_Range_construct_or_tidy<char const * const *>
PUBLIC	??$exchange@PAVmutex@std@@AAPAV12@@std@@YAPAVmutex@0@AAPAV10@0@Z ; std::exchange<std::mutex *,std::mutex * &>
PUBLIC	??$move@AAV?$basic_string@DU?$char_traits@D@std@@V?$allocator@D@2@@std@@@std@@YA$$QAV?$basic_string@DU?$char_traits@D@std@@V?$allocator@D@2@@0@AAV10@@Z ; std::move<std::basic_string<char,std::char_traits<char>,std::allocator<char> > &>
PUBLIC	??$_Min_value@I@std@@YAABIABI0@Z		; std::_Min_value<unsigned int>
PUBLIC	??$_Alloc_proxy@V?$allocator@U_Container_proxy@std@@@std@@@_Container_base12@std@@QAEX$$QAV?$allocator@U_Container_proxy@std@@@1@@Z ; std::_Container_base12::_Alloc_proxy<std::allocator<std::_Container_proxy> >
PUBLIC	??$?0$$V@?$_Compressed_pair@V?$allocator@_W@std@@V?$_String_val@U?$_Simple_types@_W@std@@@2@$00@std@@QAE@U_Zero_then_variadic_args_t@1@@Z ; std::_Compressed_pair<std::allocator<wchar_t>,std::_String_val<std::_Simple_types<wchar_t> >,1>::_Compressed_pair<std::allocator<wchar_t>,std::_String_val<std::_Simple_types<wchar_t> >,1><>
PUBLIC	??$_Unfancy@D@std@@YAPADPAD@Z			; std::_Unfancy<char>
PUBLIC	??$addressof@V?$_String_val@U?$_Simple_types@D@std@@@std@@@std@@YAPAV?$_String_val@U?$_Simple_types@D@std@@@0@AAV10@@Z ; std::addressof<std::_String_val<std::_Simple_types<char> > >
PUBLIC	??$addressof@V?$basic_string@DU?$char_traits@D@std@@V?$allocator@D@2@@std@@@std@@YAPAV?$basic_string@DU?$char_traits@D@std@@V?$allocator@D@2@@0@AAV10@@Z ; std::addressof<std::basic_string<char,std::char_traits<char>,std::allocator<char> > >
PUBLIC	??$move@AAV?$allocator@D@std@@@std@@YA$$QAV?$allocator@D@0@AAV10@@Z ; std::move<std::allocator<char> &>
PUBLIC	??$?0V?$allocator@D@std@@$$V@?$_Compressed_pair@V?$allocator@D@std@@V?$_String_val@U?$_Simple_types@D@std@@@2@$00@std@@QAE@U_One_then_variadic_args_t@1@$$QAV?$allocator@D@1@@Z ; std::_Compressed_pair<std::allocator<char>,std::_String_val<std::_Simple_types<char> >,1>::_Compressed_pair<std::allocator<char>,std::_String_val<std::_Simple_types<char> >,1><std::allocator<char> >
PUBLIC	??$?0$$V@?$_Compressed_pair@V?$allocator@D@std@@V?$_String_val@U?$_Simple_types@D@std@@@2@$00@std@@QAE@U_Zero_then_variadic_args_t@1@@Z ; std::_Compressed_pair<std::allocator<char>,std::_String_val<std::_Simple_types<char> >,1>::_Compressed_pair<std::allocator<char>,std::_String_val<std::_Simple_types<char> >,1><>
PUBLIC	??$_Unfancy@U_Container_proxy@std@@@std@@YAPAU_Container_proxy@0@PAU10@@Z ; std::_Unfancy<std::_Container_proxy>
PUBLIC	??$addressof@U_Container_base12@std@@@std@@YAPAU_Container_base12@0@AAU10@@Z ; std::addressof<std::_Container_base12>
PUBLIC	??$_Construct_in_place@U_Container_proxy@std@@PAU_Container_base12@2@@std@@YAXAAU_Container_proxy@0@$$QAPAU_Container_base12@0@@Z ; std::_Construct_in_place<std::_Container_proxy,std::_Container_base12 *>
PUBLIC	??$_Destroy_in_place@PA_W@std@@YAXAAPA_W@Z	; std::_Destroy_in_place<wchar_t *>
PUBLIC	??R<lambda_03628ca18370b1f44a99b655e704819b>@@QBEXQA_WIQB_W@Z ; <lambda_03628ca18370b1f44a99b655e704819b>::operator()
PUBLIC	??$_Reallocate_for@V<lambda_03628ca18370b1f44a99b655e704819b>@@PB_W@?$basic_string@_WU?$char_traits@_W@std@@V?$allocator@_W@2@@std@@AAEAAV01@IV<lambda_03628ca18370b1f44a99b655e704819b>@@PB_W@Z ; std::basic_string<wchar_t,std::char_traits<wchar_t>,std::allocator<wchar_t> >::_Reallocate_for<<lambda_03628ca18370b1f44a99b655e704819b>,wchar_t const *>
PUBLIC	??$_Unfancy@_W@std@@YAPA_WPA_W@Z		; std::_Unfancy<wchar_t>
PUBLIC	??$_Destroy_in_place@PAD@std@@YAXAAPAD@Z	; std::_Destroy_in_place<char *>
PUBLIC	??$_Max_value@I@std@@YAABIABI0@Z		; std::_Max_value<unsigned int>
PUBLIC	??$addressof@$$CBV?$_String_val@U?$_Simple_types@D@std@@@std@@@std@@YAPBV?$_String_val@U?$_Simple_types@D@std@@@0@ABV10@@Z ; std::addressof<std::_String_val<std::_Simple_types<char> > const >
PUBLIC	??R<lambda_9366063389c5f42a00a5088cf24e69de>@@QBEXQADIQBD@Z ; <lambda_9366063389c5f42a00a5088cf24e69de>::operator()
PUBLIC	??$_Reallocate_for@V<lambda_9366063389c5f42a00a5088cf24e69de>@@PBD@?$basic_string@DU?$char_traits@D@std@@V?$allocator@D@2@@std@@AAEAAV01@IV<lambda_9366063389c5f42a00a5088cf24e69de>@@PBD@Z ; std::basic_string<char,std::char_traits<char>,std::allocator<char> >::_Reallocate_for<<lambda_9366063389c5f42a00a5088cf24e69de>,char const *>
PUBLIC	??R<lambda_ab246b20b9526e2ef7792587e4298a77>@@QBEXQADQBDI1I@Z ; <lambda_ab246b20b9526e2ef7792587e4298a77>::operator()
PUBLIC	??$_Reallocate_grow_by@V<lambda_ab246b20b9526e2ef7792587e4298a77>@@PBDI@?$basic_string@DU?$char_traits@D@std@@V?$allocator@D@2@@std@@AAEAAV01@IV<lambda_ab246b20b9526e2ef7792587e4298a77>@@PBDI@Z ; std::basic_string<char,std::char_traits<char>,std::allocator<char> >::_Reallocate_grow_by<<lambda_ab246b20b9526e2ef7792587e4298a77>,char const *,unsigned int>
PUBLIC	??$_Construct_in_place@PADABQAD@std@@YAXAAPADABQAD@Z ; std::_Construct_in_place<char *,char * const &>
PUBLIC	??$_Pocma@V?$allocator@D@std@@@std@@YAXAAV?$allocator@D@0@0@Z ; std::_Pocma<std::allocator<char> >
PUBLIC	??$_Get_size_of_n@$00@std@@YAII@Z		; std::_Get_size_of_n<1>
PUBLIC	??$_Allocate@$07U_Default_allocate_traits@std@@$0A@@std@@YAPAXI@Z ; std::_Allocate<8,std::_Default_allocate_traits,0>
PUBLIC	??$_Deallocate@$07$0A@@std@@YAXPAXI@Z		; std::_Deallocate<8,0>
PUBLIC	??$_Get_size_of_n@$07@std@@YAII@Z		; std::_Get_size_of_n<8>
PUBLIC	??$_Destroy_range@V?$allocator@D@std@@@std@@YAXPADQADAAV?$allocator@D@0@@Z ; std::_Destroy_range<std::allocator<char> >
PUBLIC	??$_Destroy_range@V?$allocator@_W@std@@@std@@YAXPA_WQA_WAAV?$allocator@_W@0@@Z ; std::_Destroy_range<std::allocator<wchar_t> >
PUBLIC	??$_Destroy_range@V?$allocator@V?$basic_string@DU?$char_traits@D@std@@V?$allocator@D@2@@std@@@std@@@std@@YAXPAV?$basic_string@DU?$char_traits@D@std@@V?$allocator@D@2@@0@QAV10@AAV?$allocator@V?$basic_string@DU?$char_traits@D@std@@V?$allocator@D@2@@std@@@0@@Z ; std::_Destroy_range<std::allocator<std::basic_string<char,std::char_traits<char>,std::allocator<char> > > >
PUBLIC	??$_Destroy_range@V?$allocator@PBD@std@@@std@@YAXPAPBDQAPBDAAV?$allocator@PBD@0@@Z ; std::_Destroy_range<std::allocator<char const *> >
PUBLIC	??$_Verify_range@D@std@@YAXQBD0@Z		; std::_Verify_range<char>
PUBLIC	??$?0$$V@?$_Compressed_pair@U?$default_delete@Vmutex@std@@@std@@PAVmutex@2@$00@std@@QAE@U_Zero_then_variadic_args_t@1@@Z ; std::_Compressed_pair<std::default_delete<std::mutex>,std::mutex *,1>::_Compressed_pair<std::default_delete<std::mutex>,std::mutex *,1><>
PUBLIC	??0?$_Array_const_iterator@D$0EAA@@std@@QAE@PBDI@Z ; std::_Array_const_iterator<char,1024>::_Array_const_iterator<char,1024>
PUBLIC	?_Verify_offset@?$_Array_const_iterator@D$0EAA@@std@@QBEXH@Z ; std::_Array_const_iterator<char,1024>::_Verify_offset
PUBLIC	?_Unwrapped@?$_Array_const_iterator@D$0EAA@@std@@QBEPBDXZ ; std::_Array_const_iterator<char,1024>::_Unwrapped
PUBLIC	?_Seek_to@?$_Array_const_iterator@D$0EAA@@std@@QAEXPBD@Z ; std::_Array_const_iterator<char,1024>::_Seek_to
PUBLIC	??0?$_Array_iterator@D$0EAA@@std@@QAE@PADI@Z	; std::_Array_iterator<char,1024>::_Array_iterator<char,1024>
PUBLIC	?_Unwrapped@?$_Array_iterator@D$0EAA@@std@@QBEPADXZ ; std::_Array_iterator<char,1024>::_Unwrapped
PUBLIC	??$_Deallocate_plain@V?$allocator@U_Container_proxy@std@@@std@@@std@@YAXAAV?$allocator@U_Container_proxy@std@@@0@QAU_Container_proxy@0@@Z ; std::_Deallocate_plain<std::allocator<std::_Container_proxy> >
PUBLIC	??$forward@ABV?$allocator@D@std@@@std@@YAABV?$allocator@D@0@ABV10@@Z ; std::forward<std::allocator<char> const &>
PUBLIC	??1?$_Tidy_guard@V?$vector@DV?$allocator@D@std@@@std@@@std@@QAE@XZ ; std::_Tidy_guard<std::vector<char,std::allocator<char> > >::~_Tidy_guard<std::vector<char,std::allocator<char> > >
PUBLIC	??$forward@ABV?$allocator@_W@std@@@std@@YAABV?$allocator@_W@0@ABV10@@Z ; std::forward<std::allocator<wchar_t> const &>
PUBLIC	??1?$_Tidy_guard@V?$vector@_WV?$allocator@_W@std@@@std@@@std@@QAE@XZ ; std::_Tidy_guard<std::vector<wchar_t,std::allocator<wchar_t> > >::~_Tidy_guard<std::vector<wchar_t,std::allocator<wchar_t> > >
PUBLIC	??$forward@ABV?$allocator@PBD@std@@@std@@YAABV?$allocator@PBD@0@ABV10@@Z ; std::forward<std::allocator<char const *> const &>
PUBLIC	??$distance@PBQBD@std@@YAHPBQBD0@Z		; std::distance<char const * const *>
PUBLIC	??1?$_Tidy_guard@V?$vector@PBDV?$allocator@PBD@std@@@std@@@std@@QAE@XZ ; std::_Tidy_guard<std::vector<char const *,std::allocator<char const *> > >::~_Tidy_guard<std::vector<char const *,std::allocator<char const *> > >
PUBLIC	??$_Ucopy@PBQBD@?$vector@PBDV?$allocator@PBD@std@@@std@@AAEPAPBDPBQBD0PAPBD@Z ; std::vector<char const *,std::allocator<char const *> >::_Ucopy<char const * const *>
PUBLIC	??$forward@V?$allocator@D@std@@@std@@YA$$QAV?$allocator@D@0@AAV10@@Z ; std::forward<std::allocator<char> >
PUBLIC	??$addressof@U_Container_proxy@std@@@std@@YAPAU_Container_proxy@0@AAU10@@Z ; std::addressof<std::_Container_proxy>
PUBLIC	??$forward@PAU_Container_base12@std@@@std@@YA$$QAPAU_Container_base12@0@AAPAU10@@Z ; std::forward<std::_Container_base12 *>
PUBLIC	??$_Construct_in_place@PA_WABQA_W@std@@YAXAAPA_WABQA_W@Z ; std::_Construct_in_place<wchar_t *,wchar_t * const &>
PUBLIC	??$addressof@PAD@std@@YAPAPADAAPAD@Z		; std::addressof<char *>
PUBLIC	??$forward@ABQAD@std@@YAABQADABQAD@Z		; std::forward<char * const &>
PUBLIC	??$_Allocate_manually_vector_aligned@U_Default_allocate_traits@std@@@std@@YAPAXI@Z ; std::_Allocate_manually_vector_aligned<std::_Default_allocate_traits>
PUBLIC	??$_Unfancy@V?$basic_string@DU?$char_traits@D@std@@V?$allocator@D@2@@std@@@std@@YAPAV?$basic_string@DU?$char_traits@D@std@@V?$allocator@D@2@@0@PAV10@@Z ; std::_Unfancy<std::basic_string<char,std::char_traits<char>,std::allocator<char> > >
PUBLIC	??$destroy@V?$basic_string@DU?$char_traits@D@std@@V?$allocator@D@2@@std@@@?$_Default_allocator_traits@V?$allocator@V?$basic_string@DU?$char_traits@D@std@@V?$allocator@D@2@@std@@@std@@@std@@SAXAAV?$allocator@V?$basic_string@DU?$char_traits@D@std@@V?$allocator@D@2@@std@@@1@QAV?$basic_string@DU?$char_traits@D@std@@V?$allocator@D@2@@1@@Z ; std::_Default_allocator_traits<std::allocator<std::basic_string<char,std::char_traits<char>,std::allocator<char> > > >::destroy<std::basic_string<char,std::char_traits<char>,std::allocator<char> > >
PUBLIC	??$_Uninitialized_fill_n@V?$allocator@D@std@@@std@@YAPADPADIABDAAV?$allocator@D@0@@Z ; std::_Uninitialized_fill_n<std::allocator<char> >
PUBLIC	??$_Uninitialized_fill_n@V?$allocator@_W@std@@@std@@YAPA_WPA_WIAB_WAAV?$allocator@_W@0@@Z ; std::_Uninitialized_fill_n<std::allocator<wchar_t> >
PUBLIC	??$_Get_size_of_n@$03@std@@YAII@Z		; std::_Get_size_of_n<4>
PUBLIC	??$_Get_size_of_n@$01@std@@YAII@Z		; std::_Get_size_of_n<2>
PUBLIC	??R<lambda_4d79bb85f269e6e8002a4599002d832c>@@QBEXQADQBDII1I@Z ; <lambda_4d79bb85f269e6e8002a4599002d832c>::operator()
PUBLIC	??$_Reallocate_grow_by@V<lambda_4d79bb85f269e6e8002a4599002d832c>@@IPBDI@?$basic_string@DU?$char_traits@D@std@@V?$allocator@D@2@@std@@AAEAAV01@IV<lambda_4d79bb85f269e6e8002a4599002d832c>@@IPBDI@Z ; std::basic_string<char,std::char_traits<char>,std::allocator<char> >::_Reallocate_grow_by<<lambda_4d79bb85f269e6e8002a4599002d832c>,unsigned int,char const *,unsigned int>
PUBLIC	??$_Get_unwrapped@D@std@@YAPADQAD@Z		; std::_Get_unwrapped<char>
PUBLIC	??$_Idl_distance@PADPAD@std@@YAHABQAD0@Z	; std::_Idl_distance<char *,char *>
PUBLIC	??$_Get_unwrapped_n@V?$_Array_iterator@D$0EAA@@std@@H$0A@@std@@YAPADABV?$_Array_iterator@D$0EAA@@0@H@Z ; std::_Get_unwrapped_n<std::_Array_iterator<char,1024>,int,0>
PUBLIC	??$_Seek_wrapped@V?$_Array_iterator@D$0EAA@@std@@PAD@std@@YAXAAV?$_Array_iterator@D$0EAA@@0@ABQAD@Z ; std::_Seek_wrapped<std::_Array_iterator<char,1024>,char *>
PUBLIC	?deallocate@?$_Default_allocator_traits@V?$allocator@U_Container_proxy@std@@@std@@@std@@SAXAAV?$allocator@U_Container_proxy@std@@@2@QAU_Container_proxy@2@I@Z ; std::_Default_allocator_traits<std::allocator<std::_Container_proxy> >::deallocate
PUBLIC	??$_Uninitialized_copy@PBQBDV?$allocator@PBD@std@@@std@@YAPAPBDQBQBD0PAPBDAAV?$allocator@PBD@0@@Z ; std::_Uninitialized_copy<char const * const *,std::allocator<char const *> >
PUBLIC	??$addressof@PA_W@std@@YAPAPA_WAAPA_W@Z		; std::addressof<wchar_t *>
PUBLIC	??$forward@ABQA_W@std@@YAABQA_WABQA_W@Z		; std::forward<wchar_t * const &>
PUBLIC	??0?$_Uninitialized_backout_al@V?$allocator@_W@std@@@std@@QAE@PA_WAAV?$allocator@_W@1@@Z ; std::_Uninitialized_backout_al<std::allocator<wchar_t> >::_Uninitialized_backout_al<std::allocator<wchar_t> >
PUBLIC	??1?$_Uninitialized_backout_al@V?$allocator@_W@std@@@std@@QAE@XZ ; std::_Uninitialized_backout_al<std::allocator<wchar_t> >::~_Uninitialized_backout_al<std::allocator<wchar_t> >
PUBLIC	?_Release@?$_Uninitialized_backout_al@V?$allocator@_W@std@@@std@@QAEPA_WXZ ; std::_Uninitialized_backout_al<std::allocator<wchar_t> >::_Release
PUBLIC	??$_Emplace_back@AB_W@?$_Uninitialized_backout_al@V?$allocator@_W@std@@@std@@QAEXAB_W@Z ; std::_Uninitialized_backout_al<std::allocator<wchar_t> >::_Emplace_back<wchar_t const &>
PUBLIC	??$_Get_unwrapped@QBD@std@@YAPBQBDQBQBD@Z	; std::_Get_unwrapped<char const * const>
PUBLIC	??$_Unfancy@PBD@std@@YAPAPBDPAPBD@Z		; std::_Unfancy<char const *>
PUBLIC	??$_Copy_memmove@PBQBDPAPBD@std@@YAPAPBDPBQBD0PAPBD@Z ; std::_Copy_memmove<char const * const *,char const * *>
PUBLIC	??$forward@AB_W@std@@YAAB_WAB_W@Z		; std::forward<wchar_t const &>
PUBLIC	??$construct@_WAB_W@?$_Default_allocator_traits@V?$allocator@_W@std@@@std@@SAXAAV?$allocator@_W@1@QA_WAB_W@Z ; std::_Default_allocator_traits<std::allocator<wchar_t> >::construct<wchar_t,wchar_t const &>
PUBLIC	?_OptionsStorage@?1??__local_stdio_printf_options@@9@4_KA ; `__local_stdio_printf_options'::`2'::_OptionsStorage
PUBLIC	??_7exception@std@@6B@				; std::exception::`vftable'
PUBLIC	??_C@_0BC@EOODALEL@Unknown?5exception@		; `string'
PUBLIC	??_7bad_alloc@std@@6B@				; std::bad_alloc::`vftable'
PUBLIC	??_7bad_array_new_length@std@@6B@		; std::bad_array_new_length::`vftable'
PUBLIC	??_C@_0BF@KINCDENJ@bad?5array?5new?5length@	; `string'
PUBLIC	__TI3?AVbad_array_new_length@std@@
PUBLIC	__CTA3?AVbad_array_new_length@std@@
PUBLIC	??_R0?AVbad_array_new_length@std@@@8		; std::bad_array_new_length `RTTI Type Descriptor'
PUBLIC	__CT??_R0?AVbad_array_new_length@std@@@8??0bad_array_new_length@std@@QAE@ABV01@@Z12
PUBLIC	??_R0?AVbad_alloc@std@@@8			; std::bad_alloc `RTTI Type Descriptor'
PUBLIC	__CT??_R0?AVbad_alloc@std@@@8??0bad_alloc@std@@QAE@ABV01@@Z12
PUBLIC	??_R0?AVexception@std@@@8			; std::exception `RTTI Type Descriptor'
PUBLIC	__CT??_R0?AVexception@std@@@8??0exception@std@@QAE@ABV01@@Z12
PUBLIC	??_C@_0BB@FCMFBGOM@invalid?5argument@		; `string'
PUBLIC	??_C@_02DKCKIIND@?$CFs@				; `string'
PUBLIC	??_C@_0GI@FJIKDGOA@C?3?2Program?5Files?5?$CIx86?$CJ?2Microsof@ ; `string'
PUBLIC	??_C@_1NA@CDBIFGMM@?$AAC?$AA?3?$AA?2?$AAP?$AAr?$AAo?$AAg?$AAr?$AAa?$AAm?$AA?5?$AAF?$AAi?$AAl?$AAe@ ; `string'
PUBLIC	??_C@_1EK@NIFDJFDG@?$AAs?$AAt?$AAd?$AA?3?$AA?3?$AA_?$AAA?$AAd?$AAj?$AAu?$AAs?$AAt?$AA_?$AAm?$AAa@ ; `string'
PUBLIC	??_C@_1CG@JNLFBNGN@?$AA?$CC?$AAi?$AAn?$AAv?$AAa?$AAl?$AAi?$AAd?$AA?5?$AAa?$AAr?$AAg?$AAu?$AAm?$AAe@ ; `string'
PUBLIC	??_7RGYLog@@6B@					; RGYLog::`vftable'
PUBLIC	??_C@_01EEMJAFIK@?6@				; `string'
PUBLIC	??_C@_0BB@LLLEBHGO@?$DMdiv?5class?$DN?$CC?$CFs?$CC?$DO@ ; `string'
PUBLIC	??_C@_07OMEDKIPB@?$DM?1div?$DO?6@		; `string'
PUBLIC	??_C@_0BO@PFKOHNJC@vector?5subscript?5out?5of?5range@ ; `string'
PUBLIC	??_C@_0GH@OOPCKGB@C?3?2Program?5Files?5?$CIx86?$CJ?2Microsof@ ; `string'
PUBLIC	??_C@_1MO@NOOOHLI@?$AAC?$AA?3?$AA?2?$AAP?$AAr?$AAo?$AAg?$AAr?$AAa?$AAm?$AA?5?$AAF?$AAi?$AAl?$AAe@ ; `string'
PUBLIC	??_C@_1BME@NCIPHHDN@?$AAs?$AAt?$AAd?$AA?3?$AA?3?$AAv?$AAe?$AAc?$AAt?$AAo?$AAr?$AA?$DM?$AAc?$AAl?$AAa@ ; `string'
PUBLIC	??_C@_1EA@LEKOKFNB@?$AA?$CC?$AAv?$AAe?$AAc?$AAt?$AAo?$AAr?$AA?5?$AAs?$AAu?$AAb?$AAs?$AAc?$AAr?$AAi@ ; `string'
PUBLIC	??_C@_0GJ@GDKIGMBO@C?3?2Program?5Files?5?$CIx86?$CJ?2Microsof@ ; `string'
PUBLIC	??_C@_0BO@LFGPDMIB@string?5subscript?5out?5of?5range@ ; `string'
PUBLIC	??_C@_0GI@KAEHDKAJ@C?3?2Program?5Files?5?$CIx86?$CJ?2Microsof@ ; `string'
PUBLIC	??_C@_1NA@MNJEKPBN@?$AAC?$AA?3?$AA?2?$AAP?$AAr?$AAo?$AAg?$AAr?$AAa?$AAm?$AA?5?$AAF?$AAi?$AAl?$AAe@ ; `string'
PUBLIC	??_C@_1EA@OADAPGGK@?$AA?$CC?$AAs?$AAt?$AAr?$AAi?$AAn?$AAg?$AA?5?$AAs?$AAu?$AAb?$AAs?$AAc?$AAr?$AAi@ ; `string'
PUBLIC	??_C@_1LO@NPPEKPAI@?$AAs?$AAt?$AAd?$AA?3?$AA?3?$AAb?$AAa?$AAs?$AAi?$AAc?$AA_?$AAs?$AAt?$AAr?$AAi@ ; `string'
PUBLIC	??_C@_0BI@CFPLBAOH@invalid?5string?5position@	; `string'
PUBLIC	??_C@_0BB@KBEKGHFK@integer?5overflow@		; `string'
PUBLIC	??_C@_1NC@OIIHGCJJ@?$AAC?$AA?3?$AA?2?$AAP?$AAr?$AAo?$AAg?$AAr?$AAa?$AAm?$AA?5?$AAF?$AAi?$AAl?$AAe@ ; `string'
PUBLIC	??_C@_1CM@MJCLAPGA@?$AAs?$AAt?$AAd?$AA?3?$AA?3?$AA_?$AAG?$AAe?$AAt?$AA_?$AAu?$AAn?$AAw?$AAr?$AAa@ ; `string'
PUBLIC	??_C@_1CG@NMONALKO@?$AA?$CC?$AAi?$AAn?$AAt?$AAe?$AAg?$AAe?$AAr?$AA?5?$AAo?$AAv?$AAe?$AAr?$AAf?$AAl@ ; `string'
PUBLIC	??_C@_0BD@FEEMDEPI@invalid?5comparator@		; `string'
PUBLIC	??_C@_0GK@EEDLHHLD@C?3?2Program?5Files?5?$CIx86?$CJ?2Microsof@ ; `string'
PUBLIC	??_C@_1NE@BOCHNKFM@?$AAC?$AA?3?$AA?2?$AAP?$AAr?$AAo?$AAg?$AAr?$AAa?$AAm?$AA?5?$AAF?$AAi?$AAl?$AAe@ ; `string'
PUBLIC	??_C@_1CK@NDNHPKPI@?$AA?$CC?$AAi?$AAn?$AAv?$AAa?$AAl?$AAi?$AAd?$AA?5?$AAc?$AAo?$AAm?$AAp?$AAa?$AAr@ ; `string'
PUBLIC	??_C@_1BC@ICCOKLEG@?$AAs?$AAt?$AAd?$AA?3?$AA?3?$AAm?$AAa?$AAx@ ; `string'
PUBLIC	??_C@_0BA@JFNIOLAK@string?5too?5long@		; `string'
PUBLIC	??_C@_0BD@OLBABOEK@vector?$DMT?$DO?5too?5long@	; `string'
PUBLIC	??_C@_0BJ@HAJGEHKO@transposed?5pointer?5range@	; `string'
PUBLIC	??_C@_1CG@LJCPDKEJ@?$AAs?$AAt?$AAd?$AA?3?$AA?3?$AA_?$AAV?$AAe?$AAr?$AAi?$AAf?$AAy?$AA_?$AAr?$AAa@ ; `string'
PUBLIC	??_C@_1DG@FJIKMGFD@?$AA?$CC?$AAt?$AAr?$AAa?$AAn?$AAs?$AAp?$AAo?$AAs?$AAe?$AAd?$AA?5?$AAp?$AAo?$AAi@ ; `string'
PUBLIC	??_C@_0CN@MJBFFPFE@cannot?5seek?5value?9initialized?5a@ ; `string'
PUBLIC	??_C@_1GM@LFGLLPDM@?$AAs?$AAt?$AAd?$AA?3?$AA?3?$AA_?$AAA?$AAr?$AAr?$AAa?$AAy?$AA_?$AAc?$AAo?$AAn@ ; `string'
PUBLIC	??_C@_1FO@OCIBMCIE@?$AA?$CC?$AAc?$AAa?$AAn?$AAn?$AAo?$AAt?$AA?5?$AAs?$AAe?$AAe?$AAk?$AA?5?$AAv?$AAa@ ; `string'
PUBLIC	??_C@_0CI@IAJIKPDP@cannot?5seek?5array?5iterator?5befo@ ; `string'
PUBLIC	??_C@_1FE@BIMEFIOA@?$AA?$CC?$AAc?$AAa?$AAn?$AAn?$AAo?$AAt?$AA?5?$AAs?$AAe?$AAe?$AAk?$AA?5?$AAa?$AAr@ ; `string'
PUBLIC	??_C@_0CF@LAPJIGDB@cannot?5seek?5array?5iterator?5afte@ ; `string'
PUBLIC	??_C@_1EO@EJLAFFGM@?$AA?$CC?$AAc?$AAa?$AAn?$AAn?$AAo?$AAt?$AA?5?$AAs?$AAe?$AAe?$AAk?$AA?5?$AAa?$AAr@ ; `string'
PUBLIC	??_R4exception@std@@6B@				; std::exception::`RTTI Complete Object Locator'
PUBLIC	??_R3exception@std@@8				; std::exception::`RTTI Class Hierarchy Descriptor'
PUBLIC	??_R2exception@std@@8				; std::exception::`RTTI Base Class Array'
PUBLIC	??_R1A@?0A@EA@exception@std@@8			; std::exception::`RTTI Base Class Descriptor at (0,-1,0,64)'
PUBLIC	??_R4bad_alloc@std@@6B@				; std::bad_alloc::`RTTI Complete Object Locator'
PUBLIC	??_R3bad_alloc@std@@8				; std::bad_alloc::`RTTI Class Hierarchy Descriptor'
PUBLIC	??_R2bad_alloc@std@@8				; std::bad_alloc::`RTTI Base Class Array'
PUBLIC	??_R1A@?0A@EA@bad_alloc@std@@8			; std::bad_alloc::`RTTI Base Class Descriptor at (0,-1,0,64)'
PUBLIC	??_R4bad_array_new_length@std@@6B@		; std::bad_array_new_length::`RTTI Complete Object Locator'
PUBLIC	??_R3bad_array_new_length@std@@8		; std::bad_array_new_length::`RTTI Class Hierarchy Descriptor'
PUBLIC	??_R2bad_array_new_length@std@@8		; std::bad_array_new_length::`RTTI Base Class Array'
PUBLIC	??_R1A@?0A@EA@bad_array_new_length@std@@8	; std::bad_array_new_length::`RTTI Base Class Descriptor at (0,-1,0,64)'
PUBLIC	??_R4RGYLog@@6B@				; RGYLog::`RTTI Complete Object Locator'
PUBLIC	??_R0?AVRGYLog@@@8				; RGYLog `RTTI Type Descriptor'
PUBLIC	??_R3RGYLog@@8					; RGYLog::`RTTI Class Hierarchy Descriptor'
PUBLIC	??_R2RGYLog@@8					; RGYLog::`RTTI Base Class Array'
PUBLIC	??_R1A@?0A@EA@RGYLog@@8				; RGYLog::`RTTI Base Class Descriptor at (0,-1,0,64)'
EXTRN	??2@YAPAXI@Z:PROC				; operator new
EXTRN	??3@YAXPAXI@Z:PROC				; operator delete
EXTRN	__imp___invalid_parameter:PROC
EXTRN	__imp___CrtDbgReport:PROC
EXTRN	__imp_??0_Lockit@std@@QAE@H@Z:PROC
EXTRN	__imp_??1_Lockit@std@@QAE@XZ:PROC
EXTRN	__imp____acrt_iob_func:PROC
EXTRN	__imp____stdio_common_vswprintf:PROC
EXTRN	__imp____stdio_common_vswprintf_s:PROC
EXTRN	__imp__fopen_s:PROC
EXTRN	__imp__fclose:PROC
EXTRN	__imp__fread:PROC
EXTRN	__imp___fseeki64:PROC
EXTRN	__imp___ftelli64:PROC
EXTRN	__imp__fwrite:PROC
EXTRN	__imp____stdio_common_vfprintf:PROC
EXTRN	__imp____stdio_common_vsprintf:PROC
EXTRN	__imp____stdio_common_vsprintf_s:PROC
EXTRN	_memcpy:PROC
EXTRN	_memmove:PROC
EXTRN	_memset:PROC
EXTRN	_strstr:PROC
EXTRN	__imp__wcslen:PROC
EXTRN	___std_exception_copy:PROC
EXTRN	___std_exception_destroy:PROC
EXTRN	??_Eexception@std@@UAEPAXI@Z:PROC		; std::exception::`vector deleting destructor'
EXTRN	??_Ebad_alloc@std@@UAEPAXI@Z:PROC		; std::bad_alloc::`vector deleting destructor'
EXTRN	??_Ebad_array_new_length@std@@UAEPAXI@Z:PROC	; std::bad_array_new_length::`vector deleting destructor'
EXTRN	_strlen:PROC
EXTRN	?_Xlength_error@std@@YAXPBD@Z:PROC		; std::_Xlength_error
EXTRN	?_Xout_of_range@std@@YAXPBD@Z:PROC		; std::_Xout_of_range
EXTRN	__Mtx_init_in_situ:PROC
EXTRN	__Mtx_destroy_in_situ:PROC
EXTRN	__Mtx_lock:PROC
EXTRN	__Mtx_unlock:PROC
EXTRN	?_Throw_C_error@std@@YAXH@Z:PROC		; std::_Throw_C_error
EXTRN	__imp__tolower:PROC
EXTRN	__imp__GetStdHandle@4:PROC
EXTRN	__imp__setlocale:PROC
EXTRN	?getCPUInfo@@YAHPADIPAVMFXVideoSession@@@Z:PROC	; getCPUInfo
EXTRN	?getGPUInfo@@YAHPBDPADI_N@Z:PROC		; getGPUInfo
EXTRN	?wstring_to_string@@YA?AV?$basic_string@DU?$char_traits@D@std@@V?$allocator@D@2@@std@@ABV?$basic_string@_WU?$char_traits@_W@std@@V?$allocator@_W@2@@2@I@Z:PROC ; wstring_to_string
EXTRN	?char_to_wstring@@YA?AV?$basic_string@_WU?$char_traits@_W@std@@V?$allocator@_W@2@@std@@PBDI@Z:PROC ; char_to_wstring
EXTRN	?tchar_to_string@@YA?AV?$basic_string@DU?$char_traits@D@std@@V?$allocator@D@2@@std@@PBDI@Z:PROC ; tchar_to_string
EXTRN	?char_to_tstring@@YA?AV?$basic_string@DU?$char_traits@D@std@@V?$allocator@D@2@@std@@PBDI@Z:PROC ; char_to_tstring
EXTRN	?wstring_to_tstring@@YA?AV?$basic_string@DU?$char_traits@D@std@@V?$allocator@D@2@@std@@PB_WI@Z:PROC ; wstring_to_tstring
EXTRN	?strsprintf@@YA?AV?$basic_string@DU?$char_traits@D@std@@V?$allocator@D@2@@std@@PBDZZ:PROC ; strsprintf
EXTRN	?split@@YA?AV?$vector@V?$basic_string@DU?$char_traits@D@std@@V?$allocator@D@2@@std@@V?$allocator@V?$basic_string@DU?$char_traits@D@std@@V?$allocator@D@2@@std@@@2@@std@@ABV?$basic_string@DU?$char_traits@D@std@@V?$allocator@D@2@@2@0_N@Z:PROC ; split
EXTRN	?str_replace@@YA?AV?$basic_string@DU?$char_traits@D@std@@V?$allocator@D@2@@std@@V12@ABV12@1@Z:PROC ; str_replace
EXTRN	?PathRemoveFileSpecFixed@@YA?AU?$pair@HV?$basic_string@DU?$char_traits@D@std@@V?$allocator@D@2@@std@@@std@@ABV?$basic_string@DU?$char_traits@D@std@@V?$allocator@D@2@@2@@Z:PROC ; PathRemoveFileSpecFixed
EXTRN	?CreateDirectoryRecursive@@YA_NPBD@Z:PROC	; CreateDirectoryRecursive
EXTRN	?check_ext@@YA_NPBDABV?$vector@PBDV?$allocator@PBD@std@@@std@@@Z:PROC ; check_ext
EXTRN	?rgy_print_stderr@@YAHHPBDPAX@Z:PROC		; rgy_print_stderr
EXTRN	?getOSVersion@@YA?AV?$basic_string@DU?$char_traits@D@std@@V?$allocator@D@2@@std@@PAU_OSVERSIONINFOEXW@@@Z:PROC ; getOSVersion
EXTRN	?rgy_is_64bit_os@@YAHXZ:PROC			; rgy_is_64bit_os
EXTRN	??_ERGYLog@@UAEPAXI@Z:PROC			; RGYLog::`vector deleting destructor'
EXTRN	@_RTC_CheckStackVars@8:PROC
EXTRN	@__security_check_cookie@4:PROC
EXTRN	__CxxThrowException@8:PROC
EXTRN	__RTC_CheckEsp:PROC
EXTRN	__RTC_InitBase:PROC
EXTRN	__RTC_Shutdown:PROC
EXTRN	___CxxFrameHandler3:PROC
EXTRN	_memset:PROC
EXTRN	??_7type_info@@6B@:QWORD			; type_info::`vftable'
EXTRN	___security_cookie:DWORD
;	COMDAT ?_OptionsStorage@?1??__local_stdio_printf_options@@9@4_KA
_BSS	SEGMENT
?_OptionsStorage@?1??__local_stdio_printf_options@@9@4_KA DQ 01H DUP (?) ; `__local_stdio_printf_options'::`2'::_OptionsStorage
_BSS	ENDS
_BSS	SEGMENT
?CspMatrixList@@3V?$array@W4CspMatrix@@$0O@@std@@B DB 038H DUP (?) ; CspMatrixList
?CspTransferList@@3V?$array@W4CspTransfer@@$0P@@std@@B DB 03cH DUP (?) ; CspTransferList
?CspColorprimList@@3V?$array@W4CspColorprim@@$0M@@std@@B DB 030H DUP (?) ; CspColorprimList
_BSS	ENDS
CRT$XCU	SEGMENT
?CspMatrixList$initializer$@@3P6AXXZA DD FLAT:??__ECspMatrixList@@YAXXZ ; CspMatrixList$initializer$
CRT$XCU	ENDS
;	COMDAT rtc$TMZ
rtc$TMZ	SEGMENT
__RTC_Shutdown.rtc$TMZ DD FLAT:__RTC_Shutdown
rtc$TMZ	ENDS
;	COMDAT rtc$IMZ
rtc$IMZ	SEGMENT
__RTC_InitBase.rtc$IMZ DD FLAT:__RTC_InitBase
rtc$IMZ	ENDS
;	COMDAT ??_R1A@?0A@EA@RGYLog@@8
rdata$r	SEGMENT
??_R1A@?0A@EA@RGYLog@@8 DD FLAT:??_R0?AVRGYLog@@@8	; RGYLog::`RTTI Base Class Descriptor at (0,-1,0,64)'
	DD	00H
	DD	00H
	DD	0ffffffffH
	DD	00H
	DD	040H
	DD	FLAT:??_R3RGYLog@@8
rdata$r	ENDS
;	COMDAT ??_R2RGYLog@@8
rdata$r	SEGMENT
??_R2RGYLog@@8 DD FLAT:??_R1A@?0A@EA@RGYLog@@8		; RGYLog::`RTTI Base Class Array'
rdata$r	ENDS
;	COMDAT ??_R3RGYLog@@8
rdata$r	SEGMENT
??_R3RGYLog@@8 DD 00H					; RGYLog::`RTTI Class Hierarchy Descriptor'
	DD	00H
	DD	01H
	DD	FLAT:??_R2RGYLog@@8
rdata$r	ENDS
;	COMDAT ??_R0?AVRGYLog@@@8
data$r	SEGMENT
??_R0?AVRGYLog@@@8 DD FLAT:??_7type_info@@6B@		; RGYLog `RTTI Type Descriptor'
	DD	00H
	DB	'.?AVRGYLog@@', 00H
data$r	ENDS
;	COMDAT ??_R4RGYLog@@6B@
rdata$r	SEGMENT
??_R4RGYLog@@6B@ DD 00H					; RGYLog::`RTTI Complete Object Locator'
	DD	00H
	DD	00H
	DD	FLAT:??_R0?AVRGYLog@@@8
	DD	FLAT:??_R3RGYLog@@8
rdata$r	ENDS
;	COMDAT ??_R1A@?0A@EA@bad_array_new_length@std@@8
rdata$r	SEGMENT
??_R1A@?0A@EA@bad_array_new_length@std@@8 DD FLAT:??_R0?AVbad_array_new_length@std@@@8 ; std::bad_array_new_length::`RTTI Base Class Descriptor at (0,-1,0,64)'
	DD	02H
	DD	00H
	DD	0ffffffffH
	DD	00H
	DD	040H
	DD	FLAT:??_R3bad_array_new_length@std@@8
rdata$r	ENDS
;	COMDAT ??_R2bad_array_new_length@std@@8
rdata$r	SEGMENT
??_R2bad_array_new_length@std@@8 DD FLAT:??_R1A@?0A@EA@bad_array_new_length@std@@8 ; std::bad_array_new_length::`RTTI Base Class Array'
	DD	FLAT:??_R1A@?0A@EA@bad_alloc@std@@8
	DD	FLAT:??_R1A@?0A@EA@exception@std@@8
rdata$r	ENDS
;	COMDAT ??_R3bad_array_new_length@std@@8
rdata$r	SEGMENT
??_R3bad_array_new_length@std@@8 DD 00H			; std::bad_array_new_length::`RTTI Class Hierarchy Descriptor'
	DD	00H
	DD	03H
	DD	FLAT:??_R2bad_array_new_length@std@@8
rdata$r	ENDS
;	COMDAT ??_R4bad_array_new_length@std@@6B@
rdata$r	SEGMENT
??_R4bad_array_new_length@std@@6B@ DD 00H		; std::bad_array_new_length::`RTTI Complete Object Locator'
	DD	00H
	DD	00H
	DD	FLAT:??_R0?AVbad_array_new_length@std@@@8
	DD	FLAT:??_R3bad_array_new_length@std@@8
rdata$r	ENDS
;	COMDAT ??_R1A@?0A@EA@bad_alloc@std@@8
rdata$r	SEGMENT
??_R1A@?0A@EA@bad_alloc@std@@8 DD FLAT:??_R0?AVbad_alloc@std@@@8 ; std::bad_alloc::`RTTI Base Class Descriptor at (0,-1,0,64)'
	DD	01H
	DD	00H
	DD	0ffffffffH
	DD	00H
	DD	040H
	DD	FLAT:??_R3bad_alloc@std@@8
rdata$r	ENDS
;	COMDAT ??_R2bad_alloc@std@@8
rdata$r	SEGMENT
??_R2bad_alloc@std@@8 DD FLAT:??_R1A@?0A@EA@bad_alloc@std@@8 ; std::bad_alloc::`RTTI Base Class Array'
	DD	FLAT:??_R1A@?0A@EA@exception@std@@8
rdata$r	ENDS
;	COMDAT ??_R3bad_alloc@std@@8
rdata$r	SEGMENT
??_R3bad_alloc@std@@8 DD 00H				; std::bad_alloc::`RTTI Class Hierarchy Descriptor'
	DD	00H
	DD	02H
	DD	FLAT:??_R2bad_alloc@std@@8
rdata$r	ENDS
;	COMDAT ??_R4bad_alloc@std@@6B@
rdata$r	SEGMENT
??_R4bad_alloc@std@@6B@ DD 00H				; std::bad_alloc::`RTTI Complete Object Locator'
	DD	00H
	DD	00H
	DD	FLAT:??_R0?AVbad_alloc@std@@@8
	DD	FLAT:??_R3bad_alloc@std@@8
rdata$r	ENDS
;	COMDAT ??_R1A@?0A@EA@exception@std@@8
rdata$r	SEGMENT
??_R1A@?0A@EA@exception@std@@8 DD FLAT:??_R0?AVexception@std@@@8 ; std::exception::`RTTI Base Class Descriptor at (0,-1,0,64)'
	DD	00H
	DD	00H
	DD	0ffffffffH
	DD	00H
	DD	040H
	DD	FLAT:??_R3exception@std@@8
rdata$r	ENDS
;	COMDAT ??_R2exception@std@@8
rdata$r	SEGMENT
??_R2exception@std@@8 DD FLAT:??_R1A@?0A@EA@exception@std@@8 ; std::exception::`RTTI Base Class Array'
rdata$r	ENDS
;	COMDAT ??_R3exception@std@@8
rdata$r	SEGMENT
??_R3exception@std@@8 DD 00H				; std::exception::`RTTI Class Hierarchy Descriptor'
	DD	00H
	DD	01H
	DD	FLAT:??_R2exception@std@@8
rdata$r	ENDS
;	COMDAT ??_R4exception@std@@6B@
rdata$r	SEGMENT
??_R4exception@std@@6B@ DD 00H				; std::exception::`RTTI Complete Object Locator'
	DD	00H
	DD	00H
	DD	FLAT:??_R0?AVexception@std@@@8
	DD	FLAT:??_R3exception@std@@8
rdata$r	ENDS
;	COMDAT ??_C@_1EO@EJLAFFGM@?$AA?$CC?$AAc?$AAa?$AAn?$AAn?$AAo?$AAt?$AA?5?$AAs?$AAe?$AAe?$AAk?$AA?5?$AAa?$AAr@
CONST	SEGMENT
??_C@_1EO@EJLAFFGM@?$AA?$CC?$AAc?$AAa?$AAn?$AAn?$AAo?$AAt?$AA?5?$AAs?$AAe?$AAe?$AAk?$AA?5?$AAa?$AAr@ DB '"'
	DB	00H, 'c', 00H, 'a', 00H, 'n', 00H, 'n', 00H, 'o', 00H, 't', 00H
	DB	' ', 00H, 's', 00H, 'e', 00H, 'e', 00H, 'k', 00H, ' ', 00H, 'a'
	DB	00H, 'r', 00H, 'r', 00H, 'a', 00H, 'y', 00H, ' ', 00H, 'i', 00H
	DB	't', 00H, 'e', 00H, 'r', 00H, 'a', 00H, 't', 00H, 'o', 00H, 'r'
	DB	00H, ' ', 00H, 'a', 00H, 'f', 00H, 't', 00H, 'e', 00H, 'r', 00H
	DB	' ', 00H, 'e', 00H, 'n', 00H, 'd', 00H, '"', 00H, 00H, 00H ; `string'
CONST	ENDS
;	COMDAT ??_C@_0CF@LAPJIGDB@cannot?5seek?5array?5iterator?5afte@
CONST	SEGMENT
??_C@_0CF@LAPJIGDB@cannot?5seek?5array?5iterator?5afte@ DB 'cannot seek a'
	DB	'rray iterator after end', 00H		; `string'
CONST	ENDS
;	COMDAT ??_C@_1FE@BIMEFIOA@?$AA?$CC?$AAc?$AAa?$AAn?$AAn?$AAo?$AAt?$AA?5?$AAs?$AAe?$AAe?$AAk?$AA?5?$AAa?$AAr@
CONST	SEGMENT
??_C@_1FE@BIMEFIOA@?$AA?$CC?$AAc?$AAa?$AAn?$AAn?$AAo?$AAt?$AA?5?$AAs?$AAe?$AAe?$AAk?$AA?5?$AAa?$AAr@ DB '"'
	DB	00H, 'c', 00H, 'a', 00H, 'n', 00H, 'n', 00H, 'o', 00H, 't', 00H
	DB	' ', 00H, 's', 00H, 'e', 00H, 'e', 00H, 'k', 00H, ' ', 00H, 'a'
	DB	00H, 'r', 00H, 'r', 00H, 'a', 00H, 'y', 00H, ' ', 00H, 'i', 00H
	DB	't', 00H, 'e', 00H, 'r', 00H, 'a', 00H, 't', 00H, 'o', 00H, 'r'
	DB	00H, ' ', 00H, 'b', 00H, 'e', 00H, 'f', 00H, 'o', 00H, 'r', 00H
	DB	'e', 00H, ' ', 00H, 'b', 00H, 'e', 00H, 'g', 00H, 'i', 00H, 'n'
	DB	00H, '"', 00H, 00H, 00H			; `string'
CONST	ENDS
;	COMDAT ??_C@_0CI@IAJIKPDP@cannot?5seek?5array?5iterator?5befo@
CONST	SEGMENT
??_C@_0CI@IAJIKPDP@cannot?5seek?5array?5iterator?5befo@ DB 'cannot seek a'
	DB	'rray iterator before begin', 00H		; `string'
CONST	ENDS
;	COMDAT ??_C@_1FO@OCIBMCIE@?$AA?$CC?$AAc?$AAa?$AAn?$AAn?$AAo?$AAt?$AA?5?$AAs?$AAe?$AAe?$AAk?$AA?5?$AAv?$AAa@
CONST	SEGMENT
??_C@_1FO@OCIBMCIE@?$AA?$CC?$AAc?$AAa?$AAn?$AAn?$AAo?$AAt?$AA?5?$AAs?$AAe?$AAe?$AAk?$AA?5?$AAv?$AAa@ DB '"'
	DB	00H, 'c', 00H, 'a', 00H, 'n', 00H, 'n', 00H, 'o', 00H, 't', 00H
	DB	' ', 00H, 's', 00H, 'e', 00H, 'e', 00H, 'k', 00H, ' ', 00H, 'v'
	DB	00H, 'a', 00H, 'l', 00H, 'u', 00H, 'e', 00H, '-', 00H, 'i', 00H
	DB	'n', 00H, 'i', 00H, 't', 00H, 'i', 00H, 'a', 00H, 'l', 00H, 'i'
	DB	00H, 'z', 00H, 'e', 00H, 'd', 00H, ' ', 00H, 'a', 00H, 'r', 00H
	DB	'r', 00H, 'a', 00H, 'y', 00H, ' ', 00H, 'i', 00H, 't', 00H, 'e'
	DB	00H, 'r', 00H, 'a', 00H, 't', 00H, 'o', 00H, 'r', 00H, '"', 00H
	DB	00H, 00H					; `string'
CONST	ENDS
;	COMDAT ??_C@_1GM@LFGLLPDM@?$AAs?$AAt?$AAd?$AA?3?$AA?3?$AA_?$AAA?$AAr?$AAr?$AAa?$AAy?$AA_?$AAc?$AAo?$AAn@
CONST	SEGMENT
??_C@_1GM@LFGLLPDM@?$AAs?$AAt?$AAd?$AA?3?$AA?3?$AA_?$AAA?$AAr?$AAr?$AAa?$AAy?$AA_?$AAc?$AAo?$AAn@ DB 's'
	DB	00H, 't', 00H, 'd', 00H, ':', 00H, ':', 00H, '_', 00H, 'A', 00H
	DB	'r', 00H, 'r', 00H, 'a', 00H, 'y', 00H, '_', 00H, 'c', 00H, 'o'
	DB	00H, 'n', 00H, 's', 00H, 't', 00H, '_', 00H, 'i', 00H, 't', 00H
	DB	'e', 00H, 'r', 00H, 'a', 00H, 't', 00H, 'o', 00H, 'r', 00H, '<'
	DB	00H, 'c', 00H, 'h', 00H, 'a', 00H, 'r', 00H, ',', 00H, '1', 00H
	DB	'0', 00H, '2', 00H, '4', 00H, '>', 00H, ':', 00H, ':', 00H, '_'
	DB	00H, 'V', 00H, 'e', 00H, 'r', 00H, 'i', 00H, 'f', 00H, 'y', 00H
	DB	'_', 00H, 'o', 00H, 'f', 00H, 'f', 00H, 's', 00H, 'e', 00H, 't'
	DB	00H, 00H, 00H				; `string'
CONST	ENDS
;	COMDAT ??_C@_0CN@MJBFFPFE@cannot?5seek?5value?9initialized?5a@
CONST	SEGMENT
??_C@_0CN@MJBFFPFE@cannot?5seek?5value?9initialized?5a@ DB 'cannot seek v'
	DB	'alue-initialized array iterator', 00H	; `string'
CONST	ENDS
;	COMDAT ??_C@_1DG@FJIKMGFD@?$AA?$CC?$AAt?$AAr?$AAa?$AAn?$AAs?$AAp?$AAo?$AAs?$AAe?$AAd?$AA?5?$AAp?$AAo?$AAi@
CONST	SEGMENT
??_C@_1DG@FJIKMGFD@?$AA?$CC?$AAt?$AAr?$AAa?$AAn?$AAs?$AAp?$AAo?$AAs?$AAe?$AAd?$AA?5?$AAp?$AAo?$AAi@ DB '"'
	DB	00H, 't', 00H, 'r', 00H, 'a', 00H, 'n', 00H, 's', 00H, 'p', 00H
	DB	'o', 00H, 's', 00H, 'e', 00H, 'd', 00H, ' ', 00H, 'p', 00H, 'o'
	DB	00H, 'i', 00H, 'n', 00H, 't', 00H, 'e', 00H, 'r', 00H, ' ', 00H
	DB	'r', 00H, 'a', 00H, 'n', 00H, 'g', 00H, 'e', 00H, '"', 00H, 00H
	DB	00H						; `string'
CONST	ENDS
;	COMDAT ??_C@_1CG@LJCPDKEJ@?$AAs?$AAt?$AAd?$AA?3?$AA?3?$AA_?$AAV?$AAe?$AAr?$AAi?$AAf?$AAy?$AA_?$AAr?$AAa@
CONST	SEGMENT
??_C@_1CG@LJCPDKEJ@?$AAs?$AAt?$AAd?$AA?3?$AA?3?$AA_?$AAV?$AAe?$AAr?$AAi?$AAf?$AAy?$AA_?$AAr?$AAa@ DB 's'
	DB	00H, 't', 00H, 'd', 00H, ':', 00H, ':', 00H, '_', 00H, 'V', 00H
	DB	'e', 00H, 'r', 00H, 'i', 00H, 'f', 00H, 'y', 00H, '_', 00H, 'r'
	DB	00H, 'a', 00H, 'n', 00H, 'g', 00H, 'e', 00H, 00H, 00H ; `string'
CONST	ENDS
;	COMDAT ??_C@_0BJ@HAJGEHKO@transposed?5pointer?5range@
CONST	SEGMENT
??_C@_0BJ@HAJGEHKO@transposed?5pointer?5range@ DB 'transposed pointer ran'
	DB	'ge', 00H					; `string'
CONST	ENDS
;	COMDAT ??_C@_0BD@OLBABOEK@vector?$DMT?$DO?5too?5long@
CONST	SEGMENT
??_C@_0BD@OLBABOEK@vector?$DMT?$DO?5too?5long@ DB 'vector<T> too long', 00H ; `string'
CONST	ENDS
;	COMDAT ??_C@_0BA@JFNIOLAK@string?5too?5long@
CONST	SEGMENT
??_C@_0BA@JFNIOLAK@string?5too?5long@ DB 'string too long', 00H ; `string'
CONST	ENDS
;	COMDAT ??_C@_1BC@ICCOKLEG@?$AAs?$AAt?$AAd?$AA?3?$AA?3?$AAm?$AAa?$AAx@
CONST	SEGMENT
??_C@_1BC@ICCOKLEG@?$AAs?$AAt?$AAd?$AA?3?$AA?3?$AAm?$AAa?$AAx@ DB 's', 00H
	DB	't', 00H, 'd', 00H, ':', 00H, ':', 00H, 'm', 00H, 'a', 00H, 'x'
	DB	00H, 00H, 00H				; `string'
CONST	ENDS
;	COMDAT ??_C@_1CK@NDNHPKPI@?$AA?$CC?$AAi?$AAn?$AAv?$AAa?$AAl?$AAi?$AAd?$AA?5?$AAc?$AAo?$AAm?$AAp?$AAa?$AAr@
CONST	SEGMENT
??_C@_1CK@NDNHPKPI@?$AA?$CC?$AAi?$AAn?$AAv?$AAa?$AAl?$AAi?$AAd?$AA?5?$AAc?$AAo?$AAm?$AAp?$AAa?$AAr@ DB '"'
	DB	00H, 'i', 00H, 'n', 00H, 'v', 00H, 'a', 00H, 'l', 00H, 'i', 00H
	DB	'd', 00H, ' ', 00H, 'c', 00H, 'o', 00H, 'm', 00H, 'p', 00H, 'a'
	DB	00H, 'r', 00H, 'a', 00H, 't', 00H, 'o', 00H, 'r', 00H, '"', 00H
	DB	00H, 00H					; `string'
CONST	ENDS
;	COMDAT ??_C@_1NE@BOCHNKFM@?$AAC?$AA?3?$AA?2?$AAP?$AAr?$AAo?$AAg?$AAr?$AAa?$AAm?$AA?5?$AAF?$AAi?$AAl?$AAe@
CONST	SEGMENT
??_C@_1NE@BOCHNKFM@?$AAC?$AA?3?$AA?2?$AAP?$AAr?$AAo?$AAg?$AAr?$AAa?$AAm?$AA?5?$AAF?$AAi?$AAl?$AAe@ DB 'C'
	DB	00H, ':', 00H, '\', 00H, 'P', 00H, 'r', 00H, 'o', 00H, 'g', 00H
	DB	'r', 00H, 'a', 00H, 'm', 00H, ' ', 00H, 'F', 00H, 'i', 00H, 'l'
	DB	00H, 'e', 00H, 's', 00H, ' ', 00H, '(', 00H, 'x', 00H, '8', 00H
	DB	'6', 00H, ')', 00H, '\', 00H, 'M', 00H, 'i', 00H, 'c', 00H, 'r'
	DB	00H, 'o', 00H, 's', 00H, 'o', 00H, 'f', 00H, 't', 00H, ' ', 00H
	DB	'V', 00H, 'i', 00H, 's', 00H, 'u', 00H, 'a', 00H, 'l', 00H, ' '
	DB	00H, 'S', 00H, 't', 00H, 'u', 00H, 'd', 00H, 'i', 00H, 'o', 00H
	DB	'\', 00H, '2', 00H, '0', 00H, '1', 00H, '9', 00H, '\', 00H, 'C'
	DB	00H, 'o', 00H, 'm', 00H, 'm', 00H, 'u', 00H, 'n', 00H, 'i', 00H
	DB	't', 00H, 'y', 00H, '\', 00H, 'V', 00H, 'C', 00H, '\', 00H, 'T'
	DB	00H, 'o', 00H, 'o', 00H, 'l', 00H, 's', 00H, '\', 00H, 'M', 00H
	DB	'S', 00H, 'V', 00H, 'C', 00H, '\', 00H, '1', 00H, '4', 00H, '.'
	DB	00H, '2', 00H, '3', 00H, '.', 00H, '2', 00H, '8', 00H, '1', 00H
	DB	'0', 00H, '5', 00H, '\', 00H, 'i', 00H, 'n', 00H, 'c', 00H, 'l'
	DB	00H, 'u', 00H, 'd', 00H, 'e', 00H, '\', 00H, 'a', 00H, 'l', 00H
	DB	'g', 00H, 'o', 00H, 'r', 00H, 'i', 00H, 't', 00H, 'h', 00H, 'm'
	DB	00H, 00H, 00H				; `string'
CONST	ENDS
;	COMDAT ??_C@_0GK@EEDLHHLD@C?3?2Program?5Files?5?$CIx86?$CJ?2Microsof@
CONST	SEGMENT
??_C@_0GK@EEDLHHLD@C?3?2Program?5Files?5?$CIx86?$CJ?2Microsof@ DB 'C:\Pro'
	DB	'gram Files (x86)\Microsoft Visual Studio\2019\Community\VC\To'
	DB	'ols\MSVC\14.23.28105\include\algorithm', 00H ; `string'
CONST	ENDS
;	COMDAT ??_C@_0BD@FEEMDEPI@invalid?5comparator@
CONST	SEGMENT
??_C@_0BD@FEEMDEPI@invalid?5comparator@ DB 'invalid comparator', 00H ; `string'
CONST	ENDS
;	COMDAT ??_C@_1CG@NMONALKO@?$AA?$CC?$AAi?$AAn?$AAt?$AAe?$AAg?$AAe?$AAr?$AA?5?$AAo?$AAv?$AAe?$AAr?$AAf?$AAl@
CONST	SEGMENT
??_C@_1CG@NMONALKO@?$AA?$CC?$AAi?$AAn?$AAt?$AAe?$AAg?$AAe?$AAr?$AA?5?$AAo?$AAv?$AAe?$AAr?$AAf?$AAl@ DB '"'
	DB	00H, 'i', 00H, 'n', 00H, 't', 00H, 'e', 00H, 'g', 00H, 'e', 00H
	DB	'r', 00H, ' ', 00H, 'o', 00H, 'v', 00H, 'e', 00H, 'r', 00H, 'f'
	DB	00H, 'l', 00H, 'o', 00H, 'w', 00H, '"', 00H, 00H, 00H ; `string'
CONST	ENDS
;	COMDAT ??_C@_1CM@MJCLAPGA@?$AAs?$AAt?$AAd?$AA?3?$AA?3?$AA_?$AAG?$AAe?$AAt?$AA_?$AAu?$AAn?$AAw?$AAr?$AAa@
CONST	SEGMENT
??_C@_1CM@MJCLAPGA@?$AAs?$AAt?$AAd?$AA?3?$AA?3?$AA_?$AAG?$AAe?$AAt?$AA_?$AAu?$AAn?$AAw?$AAr?$AAa@ DB 's'
	DB	00H, 't', 00H, 'd', 00H, ':', 00H, ':', 00H, '_', 00H, 'G', 00H
	DB	'e', 00H, 't', 00H, '_', 00H, 'u', 00H, 'n', 00H, 'w', 00H, 'r'
	DB	00H, 'a', 00H, 'p', 00H, 'p', 00H, 'e', 00H, 'd', 00H, '_', 00H
	DB	'n', 00H, 00H, 00H				; `string'
CONST	ENDS
;	COMDAT ??_C@_1NC@OIIHGCJJ@?$AAC?$AA?3?$AA?2?$AAP?$AAr?$AAo?$AAg?$AAr?$AAa?$AAm?$AA?5?$AAF?$AAi?$AAl?$AAe@
CONST	SEGMENT
??_C@_1NC@OIIHGCJJ@?$AAC?$AA?3?$AA?2?$AAP?$AAr?$AAo?$AAg?$AAr?$AAa?$AAm?$AA?5?$AAF?$AAi?$AAl?$AAe@ DB 'C'
	DB	00H, ':', 00H, '\', 00H, 'P', 00H, 'r', 00H, 'o', 00H, 'g', 00H
	DB	'r', 00H, 'a', 00H, 'm', 00H, ' ', 00H, 'F', 00H, 'i', 00H, 'l'
	DB	00H, 'e', 00H, 's', 00H, ' ', 00H, '(', 00H, 'x', 00H, '8', 00H
	DB	'6', 00H, ')', 00H, '\', 00H, 'M', 00H, 'i', 00H, 'c', 00H, 'r'
	DB	00H, 'o', 00H, 's', 00H, 'o', 00H, 'f', 00H, 't', 00H, ' ', 00H
	DB	'V', 00H, 'i', 00H, 's', 00H, 'u', 00H, 'a', 00H, 'l', 00H, ' '
	DB	00H, 'S', 00H, 't', 00H, 'u', 00H, 'd', 00H, 'i', 00H, 'o', 00H
	DB	'\', 00H, '2', 00H, '0', 00H, '1', 00H, '9', 00H, '\', 00H, 'C'
	DB	00H, 'o', 00H, 'm', 00H, 'm', 00H, 'u', 00H, 'n', 00H, 'i', 00H
	DB	't', 00H, 'y', 00H, '\', 00H, 'V', 00H, 'C', 00H, '\', 00H, 'T'
	DB	00H, 'o', 00H, 'o', 00H, 'l', 00H, 's', 00H, '\', 00H, 'M', 00H
	DB	'S', 00H, 'V', 00H, 'C', 00H, '\', 00H, '1', 00H, '4', 00H, '.'
	DB	00H, '2', 00H, '3', 00H, '.', 00H, '2', 00H, '8', 00H, '1', 00H
	DB	'0', 00H, '5', 00H, '\', 00H, 'i', 00H, 'n', 00H, 'c', 00H, 'l'
	DB	00H, 'u', 00H, 'd', 00H, 'e', 00H, '\', 00H, 'x', 00H, 'u', 00H
	DB	't', 00H, 'i', 00H, 'l', 00H, 'i', 00H, 't', 00H, 'y', 00H, 00H
	DB	00H						; `string'
CONST	ENDS
;	COMDAT ??_C@_0BB@KBEKGHFK@integer?5overflow@
CONST	SEGMENT
??_C@_0BB@KBEKGHFK@integer?5overflow@ DB 'integer overflow', 00H ; `string'
CONST	ENDS
;	COMDAT ??_C@_0BI@CFPLBAOH@invalid?5string?5position@
CONST	SEGMENT
??_C@_0BI@CFPLBAOH@invalid?5string?5position@ DB 'invalid string position'
	DB	00H						; `string'
CONST	ENDS
;	COMDAT ??_C@_1LO@NPPEKPAI@?$AAs?$AAt?$AAd?$AA?3?$AA?3?$AAb?$AAa?$AAs?$AAi?$AAc?$AA_?$AAs?$AAt?$AAr?$AAi@
CONST	SEGMENT
??_C@_1LO@NPPEKPAI@?$AAs?$AAt?$AAd?$AA?3?$AA?3?$AAb?$AAa?$AAs?$AAi?$AAc?$AA_?$AAs?$AAt?$AAr?$AAi@ DB 's'
	DB	00H, 't', 00H, 'd', 00H, ':', 00H, ':', 00H, 'b', 00H, 'a', 00H
	DB	's', 00H, 'i', 00H, 'c', 00H, '_', 00H, 's', 00H, 't', 00H, 'r'
	DB	00H, 'i', 00H, 'n', 00H, 'g', 00H, '<', 00H, 'c', 00H, 'h', 00H
	DB	'a', 00H, 'r', 00H, ',', 00H, 's', 00H, 't', 00H, 'r', 00H, 'u'
	DB	00H, 'c', 00H, 't', 00H, ' ', 00H, 's', 00H, 't', 00H, 'd', 00H
	DB	':', 00H, ':', 00H, 'c', 00H, 'h', 00H, 'a', 00H, 'r', 00H, '_'
	DB	00H, 't', 00H, 'r', 00H, 'a', 00H, 'i', 00H, 't', 00H, 's', 00H
	DB	'<', 00H, 'c', 00H, 'h', 00H, 'a', 00H, 'r', 00H, '>', 00H, ','
	DB	00H, 'c', 00H, 'l', 00H, 'a', 00H, 's', 00H, 's', 00H, ' ', 00H
	DB	's', 00H, 't', 00H, 'd', 00H, ':', 00H, ':', 00H, 'a', 00H, 'l'
	DB	00H, 'l', 00H, 'o', 00H, 'c', 00H, 'a', 00H, 't', 00H, 'o', 00H
	DB	'r', 00H, '<', 00H, 'c', 00H, 'h', 00H, 'a', 00H, 'r', 00H, '>'
	DB	00H, ' ', 00H, '>', 00H, ':', 00H, ':', 00H, 'o', 00H, 'p', 00H
	DB	'e', 00H, 'r', 00H, 'a', 00H, 't', 00H, 'o', 00H, 'r', 00H, ' '
	DB	00H, '[', 00H, ']', 00H, 00H, 00H		; `string'
CONST	ENDS
;	COMDAT ??_C@_1EA@OADAPGGK@?$AA?$CC?$AAs?$AAt?$AAr?$AAi?$AAn?$AAg?$AA?5?$AAs?$AAu?$AAb?$AAs?$AAc?$AAr?$AAi@
CONST	SEGMENT
??_C@_1EA@OADAPGGK@?$AA?$CC?$AAs?$AAt?$AAr?$AAi?$AAn?$AAg?$AA?5?$AAs?$AAu?$AAb?$AAs?$AAc?$AAr?$AAi@ DB '"'
	DB	00H, 's', 00H, 't', 00H, 'r', 00H, 'i', 00H, 'n', 00H, 'g', 00H
	DB	' ', 00H, 's', 00H, 'u', 00H, 'b', 00H, 's', 00H, 'c', 00H, 'r'
	DB	00H, 'i', 00H, 'p', 00H, 't', 00H, ' ', 00H, 'o', 00H, 'u', 00H
	DB	't', 00H, ' ', 00H, 'o', 00H, 'f', 00H, ' ', 00H, 'r', 00H, 'a'
	DB	00H, 'n', 00H, 'g', 00H, 'e', 00H, '"', 00H, 00H, 00H ; `string'
CONST	ENDS
;	COMDAT ??_C@_1NA@MNJEKPBN@?$AAC?$AA?3?$AA?2?$AAP?$AAr?$AAo?$AAg?$AAr?$AAa?$AAm?$AA?5?$AAF?$AAi?$AAl?$AAe@
CONST	SEGMENT
??_C@_1NA@MNJEKPBN@?$AAC?$AA?3?$AA?2?$AAP?$AAr?$AAo?$AAg?$AAr?$AAa?$AAm?$AA?5?$AAF?$AAi?$AAl?$AAe@ DB 'C'
	DB	00H, ':', 00H, '\', 00H, 'P', 00H, 'r', 00H, 'o', 00H, 'g', 00H
	DB	'r', 00H, 'a', 00H, 'm', 00H, ' ', 00H, 'F', 00H, 'i', 00H, 'l'
	DB	00H, 'e', 00H, 's', 00H, ' ', 00H, '(', 00H, 'x', 00H, '8', 00H
	DB	'6', 00H, ')', 00H, '\', 00H, 'M', 00H, 'i', 00H, 'c', 00H, 'r'
	DB	00H, 'o', 00H, 's', 00H, 'o', 00H, 'f', 00H, 't', 00H, ' ', 00H
	DB	'V', 00H, 'i', 00H, 's', 00H, 'u', 00H, 'a', 00H, 'l', 00H, ' '
	DB	00H, 'S', 00H, 't', 00H, 'u', 00H, 'd', 00H, 'i', 00H, 'o', 00H
	DB	'\', 00H, '2', 00H, '0', 00H, '1', 00H, '9', 00H, '\', 00H, 'C'
	DB	00H, 'o', 00H, 'm', 00H, 'm', 00H, 'u', 00H, 'n', 00H, 'i', 00H
	DB	't', 00H, 'y', 00H, '\', 00H, 'V', 00H, 'C', 00H, '\', 00H, 'T'
	DB	00H, 'o', 00H, 'o', 00H, 'l', 00H, 's', 00H, '\', 00H, 'M', 00H
	DB	'S', 00H, 'V', 00H, 'C', 00H, '\', 00H, '1', 00H, '4', 00H, '.'
	DB	00H, '2', 00H, '3', 00H, '.', 00H, '2', 00H, '8', 00H, '1', 00H
	DB	'0', 00H, '5', 00H, '\', 00H, 'i', 00H, 'n', 00H, 'c', 00H, 'l'
	DB	00H, 'u', 00H, 'd', 00H, 'e', 00H, '\', 00H, 'x', 00H, 's', 00H
	DB	't', 00H, 'r', 00H, 'i', 00H, 'n', 00H, 'g', 00H, 00H, 00H ; `string'
CONST	ENDS
;	COMDAT ??_C@_0GI@KAEHDKAJ@C?3?2Program?5Files?5?$CIx86?$CJ?2Microsof@
CONST	SEGMENT
??_C@_0GI@KAEHDKAJ@C?3?2Program?5Files?5?$CIx86?$CJ?2Microsof@ DB 'C:\Pro'
	DB	'gram Files (x86)\Microsoft Visual Studio\2019\Community\VC\To'
	DB	'ols\MSVC\14.23.28105\include\xstring', 00H	; `string'
CONST	ENDS
;	COMDAT ??_C@_0BO@LFGPDMIB@string?5subscript?5out?5of?5range@
CONST	SEGMENT
??_C@_0BO@LFGPDMIB@string?5subscript?5out?5of?5range@ DB 'string subscrip'
	DB	't out of range', 00H			; `string'
CONST	ENDS
;	COMDAT ??_C@_0GJ@GDKIGMBO@C?3?2Program?5Files?5?$CIx86?$CJ?2Microsof@
CONST	SEGMENT
??_C@_0GJ@GDKIGMBO@C?3?2Program?5Files?5?$CIx86?$CJ?2Microsof@ DB 'C:\Pro'
	DB	'gram Files (x86)\Microsoft Visual Studio\2019\Community\VC\To'
	DB	'ols\MSVC\14.23.28105\include\xutility', 00H	; `string'
CONST	ENDS
;	COMDAT ??_C@_1EA@LEKOKFNB@?$AA?$CC?$AAv?$AAe?$AAc?$AAt?$AAo?$AAr?$AA?5?$AAs?$AAu?$AAb?$AAs?$AAc?$AAr?$AAi@
CONST	SEGMENT
??_C@_1EA@LEKOKFNB@?$AA?$CC?$AAv?$AAe?$AAc?$AAt?$AAo?$AAr?$AA?5?$AAs?$AAu?$AAb?$AAs?$AAc?$AAr?$AAi@ DB '"'
	DB	00H, 'v', 00H, 'e', 00H, 'c', 00H, 't', 00H, 'o', 00H, 'r', 00H
	DB	' ', 00H, 's', 00H, 'u', 00H, 'b', 00H, 's', 00H, 'c', 00H, 'r'
	DB	00H, 'i', 00H, 'p', 00H, 't', 00H, ' ', 00H, 'o', 00H, 'u', 00H
	DB	't', 00H, ' ', 00H, 'o', 00H, 'f', 00H, ' ', 00H, 'r', 00H, 'a'
	DB	00H, 'n', 00H, 'g', 00H, 'e', 00H, '"', 00H, 00H, 00H ; `string'
CONST	ENDS
;	COMDAT ??_C@_1BME@NCIPHHDN@?$AAs?$AAt?$AAd?$AA?3?$AA?3?$AAv?$AAe?$AAc?$AAt?$AAo?$AAr?$AA?$DM?$AAc?$AAl?$AAa@
CONST	SEGMENT
??_C@_1BME@NCIPHHDN@?$AAs?$AAt?$AAd?$AA?3?$AA?3?$AAv?$AAe?$AAc?$AAt?$AAo?$AAr?$AA?$DM?$AAc?$AAl?$AAa@ DB 's'
	DB	00H, 't', 00H, 'd', 00H, ':', 00H, ':', 00H, 'v', 00H, 'e', 00H
	DB	'c', 00H, 't', 00H, 'o', 00H, 'r', 00H, '<', 00H, 'c', 00H, 'l'
	DB	00H, 'a', 00H, 's', 00H, 's', 00H, ' ', 00H, 's', 00H, 't', 00H
	DB	'd', 00H, ':', 00H, ':', 00H, 'b', 00H, 'a', 00H, 's', 00H, 'i'
	DB	00H, 'c', 00H, '_', 00H, 's', 00H, 't', 00H, 'r', 00H, 'i', 00H
	DB	'n', 00H, 'g', 00H, '<', 00H, 'c', 00H, 'h', 00H, 'a', 00H, 'r'
	DB	00H, ',', 00H, 's', 00H, 't', 00H, 'r', 00H, 'u', 00H, 'c', 00H
	DB	't', 00H, ' ', 00H, 's', 00H, 't', 00H, 'd', 00H, ':', 00H, ':'
	DB	00H, 'c', 00H, 'h', 00H, 'a', 00H, 'r', 00H, '_', 00H, 't', 00H
	DB	'r', 00H, 'a', 00H, 'i', 00H, 't', 00H, 's', 00H, '<', 00H, 'c'
	DB	00H, 'h', 00H, 'a', 00H, 'r', 00H, '>', 00H, ',', 00H, 'c', 00H
	DB	'l', 00H, 'a', 00H, 's', 00H, 's', 00H, ' ', 00H, 's', 00H, 't'
	DB	00H, 'd', 00H, ':', 00H, ':', 00H, 'a', 00H, 'l', 00H, 'l', 00H
	DB	'o', 00H, 'c', 00H, 'a', 00H, 't', 00H, 'o', 00H, 'r', 00H, '<'
	DB	00H, 'c', 00H, 'h', 00H, 'a', 00H, 'r', 00H, '>', 00H, ' ', 00H
	DB	'>', 00H, ',', 00H, 'c', 00H, 'l', 00H, 'a', 00H, 's', 00H, 's'
	DB	00H, ' ', 00H, 's', 00H, 't', 00H, 'd', 00H, ':', 00H, ':', 00H
	DB	'a', 00H, 'l', 00H, 'l', 00H, 'o', 00H, 'c', 00H, 'a', 00H, 't'
	DB	00H, 'o', 00H, 'r', 00H, '<', 00H, 'c', 00H, 'l', 00H, 'a', 00H
	DB	's', 00H, 's', 00H, ' ', 00H, 's', 00H, 't', 00H, 'd', 00H, ':'
	DB	00H, ':', 00H, 'b', 00H, 'a', 00H, 's', 00H, 'i', 00H, 'c', 00H
	DB	'_', 00H, 's', 00H, 't', 00H, 'r', 00H, 'i', 00H, 'n', 00H, 'g'
	DB	00H, '<', 00H, 'c', 00H, 'h', 00H, 'a', 00H, 'r', 00H, ',', 00H
	DB	's', 00H, 't', 00H, 'r', 00H, 'u', 00H, 'c', 00H, 't', 00H, ' '
	DB	00H, 's', 00H, 't', 00H, 'd', 00H, ':', 00H, ':', 00H, 'c', 00H
	DB	'h', 00H, 'a', 00H, 'r', 00H, '_', 00H, 't', 00H, 'r', 00H, 'a'
	DB	00H, 'i', 00H, 't', 00H, 's', 00H, '<', 00H, 'c', 00H, 'h', 00H
	DB	'a', 00H, 'r', 00H, '>', 00H, ',', 00H, 'c', 00H, 'l', 00H, 'a'
	DB	00H, 's', 00H, 's', 00H, ' ', 00H, 's', 00H, 't', 00H, 'd', 00H
	DB	':', 00H, ':', 00H, 'a', 00H, 'l', 00H, 'l', 00H, 'o', 00H, 'c'
	DB	00H, 'a', 00H, 't', 00H, 'o', 00H, 'r', 00H, '<', 00H, 'c', 00H
	DB	'h', 00H, 'a', 00H, 'r', 00H, '>', 00H, ' ', 00H, '>', 00H, ' '
	DB	00H, '>', 00H, ' ', 00H, '>', 00H, ':', 00H, ':', 00H, 'o', 00H
	DB	'p', 00H, 'e', 00H, 'r', 00H, 'a', 00H, 't', 00H, 'o', 00H, 'r'
	DB	00H, ' ', 00H, '[', 00H, ']', 00H, 00H, 00H	; `string'
CONST	ENDS
;	COMDAT ??_C@_1MO@NOOOHLI@?$AAC?$AA?3?$AA?2?$AAP?$AAr?$AAo?$AAg?$AAr?$AAa?$AAm?$AA?5?$AAF?$AAi?$AAl?$AAe@
CONST	SEGMENT
??_C@_1MO@NOOOHLI@?$AAC?$AA?3?$AA?2?$AAP?$AAr?$AAo?$AAg?$AAr?$AAa?$AAm?$AA?5?$AAF?$AAi?$AAl?$AAe@ DB 'C'
	DB	00H, ':', 00H, '\', 00H, 'P', 00H, 'r', 00H, 'o', 00H, 'g', 00H
	DB	'r', 00H, 'a', 00H, 'm', 00H, ' ', 00H, 'F', 00H, 'i', 00H, 'l'
	DB	00H, 'e', 00H, 's', 00H, ' ', 00H, '(', 00H, 'x', 00H, '8', 00H
	DB	'6', 00H, ')', 00H, '\', 00H, 'M', 00H, 'i', 00H, 'c', 00H, 'r'
	DB	00H, 'o', 00H, 's', 00H, 'o', 00H, 'f', 00H, 't', 00H, ' ', 00H
	DB	'V', 00H, 'i', 00H, 's', 00H, 'u', 00H, 'a', 00H, 'l', 00H, ' '
	DB	00H, 'S', 00H, 't', 00H, 'u', 00H, 'd', 00H, 'i', 00H, 'o', 00H
	DB	'\', 00H, '2', 00H, '0', 00H, '1', 00H, '9', 00H, '\', 00H, 'C'
	DB	00H, 'o', 00H, 'm', 00H, 'm', 00H, 'u', 00H, 'n', 00H, 'i', 00H
	DB	't', 00H, 'y', 00H, '\', 00H, 'V', 00H, 'C', 00H, '\', 00H, 'T'
	DB	00H, 'o', 00H, 'o', 00H, 'l', 00H, 's', 00H, '\', 00H, 'M', 00H
	DB	'S', 00H, 'V', 00H, 'C', 00H, '\', 00H, '1', 00H, '4', 00H, '.'
	DB	00H, '2', 00H, '3', 00H, '.', 00H, '2', 00H, '8', 00H, '1', 00H
	DB	'0', 00H, '5', 00H, '\', 00H, 'i', 00H, 'n', 00H, 'c', 00H, 'l'
	DB	00H, 'u', 00H, 'd', 00H, 'e', 00H, '\', 00H, 'v', 00H, 'e', 00H
	DB	'c', 00H, 't', 00H, 'o', 00H, 'r', 00H, 00H, 00H ; `string'
CONST	ENDS
;	COMDAT ??_C@_0GH@OOPCKGB@C?3?2Program?5Files?5?$CIx86?$CJ?2Microsof@
CONST	SEGMENT
??_C@_0GH@OOPCKGB@C?3?2Program?5Files?5?$CIx86?$CJ?2Microsof@ DB 'C:\Prog'
	DB	'ram Files (x86)\Microsoft Visual Studio\2019\Community\VC\Too'
	DB	'ls\MSVC\14.23.28105\include\vector', 00H	; `string'
CONST	ENDS
;	COMDAT ??_C@_0BO@PFKOHNJC@vector?5subscript?5out?5of?5range@
CONST	SEGMENT
??_C@_0BO@PFKOHNJC@vector?5subscript?5out?5of?5range@ DB 'vector subscrip'
	DB	't out of range', 00H			; `string'
CONST	ENDS
;	COMDAT ??_C@_07OMEDKIPB@?$DM?1div?$DO?6@
CONST	SEGMENT
??_C@_07OMEDKIPB@?$DM?1div?$DO?6@ DB '</div>', 0aH, 00H	; `string'
CONST	ENDS
;	COMDAT ??_C@_0BB@LLLEBHGO@?$DMdiv?5class?$DN?$CC?$CFs?$CC?$DO@
CONST	SEGMENT
??_C@_0BB@LLLEBHGO@?$DMdiv?5class?$DN?$CC?$CFs?$CC?$DO@ DB '<div class="%'
	DB	's">', 00H					; `string'
CONST	ENDS
;	COMDAT ??_C@_01EEMJAFIK@?6@
CONST	SEGMENT
??_C@_01EEMJAFIK@?6@ DB 0aH, 00H			; `string'
CONST	ENDS
;	COMDAT ?SEP5@?1??writeFileHeader@RGYLog@@QAEXPBD@Z@4QBDB
CONST	SEGMENT
?SEP5@?1??writeFileHeader@RGYLog@@QAEXPBD@Z@4QBDB DD FLAT:$SG116851 ; `RGYLog::writeFileHeader'::`2'::SEP5
CONST	ENDS
;	COMDAT ??_7RGYLog@@6B@
CONST	SEGMENT
??_7RGYLog@@6B@ DD FLAT:??_R4RGYLog@@6B@		; RGYLog::`vftable'
	DD	FLAT:??_ERGYLog@@UAEPAXI@Z
	DD	FLAT:?write_log@RGYLog@@UAEXHPBD_N@Z
	DD	FLAT:?write@RGYLog@@UAEXHPBDPADI@Z
	DD	FLAT:?write@RGYLog@@UAEXHPB_WPAD@Z
	DD	FLAT:?write@RGYLog@@UAAXHPBDZZ
	DD	FLAT:?write_line@RGYLog@@UAEXHPBDPADI@Z
CONST	ENDS
;	COMDAT ??_C@_1CG@JNLFBNGN@?$AA?$CC?$AAi?$AAn?$AAv?$AAa?$AAl?$AAi?$AAd?$AA?5?$AAa?$AAr?$AAg?$AAu?$AAm?$AAe@
CONST	SEGMENT
??_C@_1CG@JNLFBNGN@?$AA?$CC?$AAi?$AAn?$AAv?$AAa?$AAl?$AAi?$AAd?$AA?5?$AAa?$AAr?$AAg?$AAu?$AAm?$AAe@ DB '"'
	DB	00H, 'i', 00H, 'n', 00H, 'v', 00H, 'a', 00H, 'l', 00H, 'i', 00H
	DB	'd', 00H, ' ', 00H, 'a', 00H, 'r', 00H, 'g', 00H, 'u', 00H, 'm'
	DB	00H, 'e', 00H, 'n', 00H, 't', 00H, '"', 00H, 00H, 00H ; `string'
CONST	ENDS
;	COMDAT ??_C@_1EK@NIFDJFDG@?$AAs?$AAt?$AAd?$AA?3?$AA?3?$AA_?$AAA?$AAd?$AAj?$AAu?$AAs?$AAt?$AA_?$AAm?$AAa@
CONST	SEGMENT
??_C@_1EK@NIFDJFDG@?$AAs?$AAt?$AAd?$AA?3?$AA?3?$AA_?$AAA?$AAd?$AAj?$AAu?$AAs?$AAt?$AA_?$AAm?$AAa@ DB 's'
	DB	00H, 't', 00H, 'd', 00H, ':', 00H, ':', 00H, '_', 00H, 'A', 00H
	DB	'd', 00H, 'j', 00H, 'u', 00H, 's', 00H, 't', 00H, '_', 00H, 'm'
	DB	00H, 'a', 00H, 'n', 00H, 'u', 00H, 'a', 00H, 'l', 00H, 'l', 00H
	DB	'y', 00H, '_', 00H, 'v', 00H, 'e', 00H, 'c', 00H, 't', 00H, 'o'
	DB	00H, 'r', 00H, '_', 00H, 'a', 00H, 'l', 00H, 'i', 00H, 'g', 00H
	DB	'n', 00H, 'e', 00H, 'd', 00H, 00H, 00H	; `string'
CONST	ENDS
;	COMDAT ??_C@_1NA@CDBIFGMM@?$AAC?$AA?3?$AA?2?$AAP?$AAr?$AAo?$AAg?$AAr?$AAa?$AAm?$AA?5?$AAF?$AAi?$AAl?$AAe@
CONST	SEGMENT
??_C@_1NA@CDBIFGMM@?$AAC?$AA?3?$AA?2?$AAP?$AAr?$AAo?$AAg?$AAr?$AAa?$AAm?$AA?5?$AAF?$AAi?$AAl?$AAe@ DB 'C'
	DB	00H, ':', 00H, '\', 00H, 'P', 00H, 'r', 00H, 'o', 00H, 'g', 00H
	DB	'r', 00H, 'a', 00H, 'm', 00H, ' ', 00H, 'F', 00H, 'i', 00H, 'l'
	DB	00H, 'e', 00H, 's', 00H, ' ', 00H, '(', 00H, 'x', 00H, '8', 00H
	DB	'6', 00H, ')', 00H, '\', 00H, 'M', 00H, 'i', 00H, 'c', 00H, 'r'
	DB	00H, 'o', 00H, 's', 00H, 'o', 00H, 'f', 00H, 't', 00H, ' ', 00H
	DB	'V', 00H, 'i', 00H, 's', 00H, 'u', 00H, 'a', 00H, 'l', 00H, ' '
	DB	00H, 'S', 00H, 't', 00H, 'u', 00H, 'd', 00H, 'i', 00H, 'o', 00H
	DB	'\', 00H, '2', 00H, '0', 00H, '1', 00H, '9', 00H, '\', 00H, 'C'
	DB	00H, 'o', 00H, 'm', 00H, 'm', 00H, 'u', 00H, 'n', 00H, 'i', 00H
	DB	't', 00H, 'y', 00H, '\', 00H, 'V', 00H, 'C', 00H, '\', 00H, 'T'
	DB	00H, 'o', 00H, 'o', 00H, 'l', 00H, 's', 00H, '\', 00H, 'M', 00H
	DB	'S', 00H, 'V', 00H, 'C', 00H, '\', 00H, '1', 00H, '4', 00H, '.'
	DB	00H, '2', 00H, '3', 00H, '.', 00H, '2', 00H, '8', 00H, '1', 00H
	DB	'0', 00H, '5', 00H, '\', 00H, 'i', 00H, 'n', 00H, 'c', 00H, 'l'
	DB	00H, 'u', 00H, 'd', 00H, 'e', 00H, '\', 00H, 'x', 00H, 'm', 00H
	DB	'e', 00H, 'm', 00H, 'o', 00H, 'r', 00H, 'y', 00H, 00H, 00H ; `string'
CONST	ENDS
;	COMDAT ??_C@_0GI@FJIKDGOA@C?3?2Program?5Files?5?$CIx86?$CJ?2Microsof@
CONST	SEGMENT
??_C@_0GI@FJIKDGOA@C?3?2Program?5Files?5?$CIx86?$CJ?2Microsof@ DB 'C:\Pro'
	DB	'gram Files (x86)\Microsoft Visual Studio\2019\Community\VC\To'
	DB	'ols\MSVC\14.23.28105\include\xmemory', 00H	; `string'
CONST	ENDS
;	COMDAT ??_C@_02DKCKIIND@?$CFs@
CONST	SEGMENT
??_C@_02DKCKIIND@?$CFs@ DB '%s', 00H			; `string'
CONST	ENDS
;	COMDAT ??_C@_0BB@FCMFBGOM@invalid?5argument@
CONST	SEGMENT
??_C@_0BB@FCMFBGOM@invalid?5argument@ DB 'invalid argument', 00H ; `string'
CONST	ENDS
;	COMDAT __CT??_R0?AVexception@std@@@8??0exception@std@@QAE@ABV01@@Z12
xdata$x	SEGMENT
__CT??_R0?AVexception@std@@@8??0exception@std@@QAE@ABV01@@Z12 DD 00H
	DD	FLAT:??_R0?AVexception@std@@@8
	DD	00H
	DD	0ffffffffH
	ORG $+4
	DD	0cH
	DD	FLAT:??0exception@std@@QAE@ABV01@@Z
xdata$x	ENDS
;	COMDAT ??_R0?AVexception@std@@@8
data$r	SEGMENT
??_R0?AVexception@std@@@8 DD FLAT:??_7type_info@@6B@	; std::exception `RTTI Type Descriptor'
	DD	00H
	DB	'.?AVexception@std@@', 00H
data$r	ENDS
;	COMDAT __CT??_R0?AVbad_alloc@std@@@8??0bad_alloc@std@@QAE@ABV01@@Z12
xdata$x	SEGMENT
__CT??_R0?AVbad_alloc@std@@@8??0bad_alloc@std@@QAE@ABV01@@Z12 DD 010H
	DD	FLAT:??_R0?AVbad_alloc@std@@@8
	DD	00H
	DD	0ffffffffH
	ORG $+4
	DD	0cH
	DD	FLAT:??0bad_alloc@std@@QAE@ABV01@@Z
xdata$x	ENDS
;	COMDAT ??_R0?AVbad_alloc@std@@@8
data$r	SEGMENT
??_R0?AVbad_alloc@std@@@8 DD FLAT:??_7type_info@@6B@	; std::bad_alloc `RTTI Type Descriptor'
	DD	00H
	DB	'.?AVbad_alloc@std@@', 00H
data$r	ENDS
;	COMDAT __CT??_R0?AVbad_array_new_length@std@@@8??0bad_array_new_length@std@@QAE@ABV01@@Z12
xdata$x	SEGMENT
__CT??_R0?AVbad_array_new_length@std@@@8??0bad_array_new_length@std@@QAE@ABV01@@Z12 DD 00H
	DD	FLAT:??_R0?AVbad_array_new_length@std@@@8
	DD	00H
	DD	0ffffffffH
	ORG $+4
	DD	0cH
	DD	FLAT:??0bad_array_new_length@std@@QAE@ABV01@@Z
xdata$x	ENDS
;	COMDAT ??_R0?AVbad_array_new_length@std@@@8
data$r	SEGMENT
??_R0?AVbad_array_new_length@std@@@8 DD FLAT:??_7type_info@@6B@ ; std::bad_array_new_length `RTTI Type Descriptor'
	DD	00H
	DB	'.?AVbad_array_new_length@std@@', 00H
data$r	ENDS
;	COMDAT __CTA3?AVbad_array_new_length@std@@
xdata$x	SEGMENT
__CTA3?AVbad_array_new_length@std@@ DD 03H
	DD	FLAT:__CT??_R0?AVbad_array_new_length@std@@@8??0bad_array_new_length@std@@QAE@ABV01@@Z12
	DD	FLAT:__CT??_R0?AVbad_alloc@std@@@8??0bad_alloc@std@@QAE@ABV01@@Z12
	DD	FLAT:__CT??_R0?AVexception@std@@@8??0exception@std@@QAE@ABV01@@Z12
xdata$x	ENDS
;	COMDAT __TI3?AVbad_array_new_length@std@@
xdata$x	SEGMENT
__TI3?AVbad_array_new_length@std@@ DD 00H
	DD	FLAT:??1bad_array_new_length@std@@UAE@XZ
	DD	00H
	DD	FLAT:__CTA3?AVbad_array_new_length@std@@
xdata$x	ENDS
;	COMDAT ??_C@_0BF@KINCDENJ@bad?5array?5new?5length@
CONST	SEGMENT
??_C@_0BF@KINCDENJ@bad?5array?5new?5length@ DB 'bad array new length', 00H ; `string'
CONST	ENDS
;	COMDAT ??_7bad_array_new_length@std@@6B@
CONST	SEGMENT
??_7bad_array_new_length@std@@6B@ DD FLAT:??_R4bad_array_new_length@std@@6B@ ; std::bad_array_new_length::`vftable'
	DD	FLAT:??_Ebad_array_new_length@std@@UAEPAXI@Z
	DD	FLAT:?what@exception@std@@UBEPBDXZ
CONST	ENDS
;	COMDAT ??_7bad_alloc@std@@6B@
CONST	SEGMENT
??_7bad_alloc@std@@6B@ DD FLAT:??_R4bad_alloc@std@@6B@	; std::bad_alloc::`vftable'
	DD	FLAT:??_Ebad_alloc@std@@UAEPAXI@Z
	DD	FLAT:?what@exception@std@@UBEPBDXZ
CONST	ENDS
;	COMDAT ??_C@_0BC@EOODALEL@Unknown?5exception@
CONST	SEGMENT
??_C@_0BC@EOODALEL@Unknown?5exception@ DB 'Unknown exception', 00H ; `string'
CONST	ENDS
;	COMDAT ??_7exception@std@@6B@
CONST	SEGMENT
??_7exception@std@@6B@ DD FLAT:??_R4exception@std@@6B@	; std::exception::`vftable'
	DD	FLAT:??_Eexception@std@@UAEPAXI@Z
	DD	FLAT:?what@exception@std@@UBEPBDXZ
CONST	ENDS
;	COMDAT xdata$x
xdata$x	SEGMENT
__unwindtable$??$_Uninitialized_fill_n@V?$allocator@_W@std@@@std@@YAPA_WPA_WIAB_WAAV?$allocator@_W@0@@Z DD 0ffffffffH
	DD	FLAT:__unwindfunclet$??$_Uninitialized_fill_n@V?$allocator@_W@std@@@std@@YAPA_WPA_WIAB_WAAV?$allocator@_W@0@@Z$0
__ehfuncinfo$??$_Uninitialized_fill_n@V?$allocator@_W@std@@@std@@YAPA_WPA_WIAB_WAAV?$allocator@_W@0@@Z DD 019930522H
	DD	01H
	DD	FLAT:__unwindtable$??$_Uninitialized_fill_n@V?$allocator@_W@std@@@std@@YAPA_WPA_WIAB_WAAV?$allocator@_W@0@@Z
	DD	2 DUP(00H)
	DD	2 DUP(00H)
	DD	00H
	DD	00H
xdata$x	ENDS
;	COMDAT xdata$x
xdata$x	SEGMENT
__ehfuncinfo$??$_Deallocate_plain@V?$allocator@U_Container_proxy@std@@@std@@@std@@YAXAAV?$allocator@U_Container_proxy@std@@@0@QAU_Container_proxy@0@@Z DD 019930522H
	DD	00H
	DD	00H
	DD	2 DUP(00H)
	DD	2 DUP(00H)
	DD	00H
	DD	04H
xdata$x	ENDS
;	COMDAT xdata$x
xdata$x	SEGMENT
__ehfuncinfo$?_Verify_offset@?$_Array_const_iterator@D$0EAA@@std@@QBEXH@Z DD 019930522H
	DD	00H
	DD	00H
	DD	2 DUP(00H)
	DD	2 DUP(00H)
	DD	00H
	DD	04H
xdata$x	ENDS
;	COMDAT xdata$x
xdata$x	SEGMENT
__ehfuncinfo$??$_Verify_range@D@std@@YAXQBD0@Z DD 019930522H
	DD	00H
	DD	00H
	DD	2 DUP(00H)
	DD	2 DUP(00H)
	DD	00H
	DD	04H
xdata$x	ENDS
;	COMDAT xdata$x
xdata$x	SEGMENT
__ehfuncinfo$??$_Destroy_range@V?$allocator@V?$basic_string@DU?$char_traits@D@std@@V?$allocator@D@2@@std@@@std@@@std@@YAXPAV?$basic_string@DU?$char_traits@D@std@@V?$allocator@D@2@@0@QAV10@AAV?$allocator@V?$basic_string@DU?$char_traits@D@std@@V?$allocator@D@2@@std@@@0@@Z DD 019930522H
	DD	00H
	DD	00H
	DD	2 DUP(00H)
	DD	2 DUP(00H)
	DD	00H
	DD	04H
xdata$x	ENDS
;	COMDAT xdata$x
xdata$x	SEGMENT
__ehfuncinfo$??$_Deallocate@$07$0A@@std@@YAXPAXI@Z DD 019930522H
	DD	00H
	DD	00H
	DD	2 DUP(00H)
	DD	2 DUP(00H)
	DD	00H
	DD	04H
xdata$x	ENDS
;	COMDAT xdata$x
xdata$x	SEGMENT
__unwindtable$??$?0$$V@?$_Compressed_pair@V?$allocator@D@std@@V?$_String_val@U?$_Simple_types@D@std@@@2@$00@std@@QAE@U_Zero_then_variadic_args_t@1@@Z DD 0ffffffffH
	DD	FLAT:__unwindfunclet$??$?0$$V@?$_Compressed_pair@V?$allocator@D@std@@V?$_String_val@U?$_Simple_types@D@std@@@2@$00@std@@QAE@U_Zero_then_variadic_args_t@1@@Z$0
__ehfuncinfo$??$?0$$V@?$_Compressed_pair@V?$allocator@D@std@@V?$_String_val@U?$_Simple_types@D@std@@@2@$00@std@@QAE@U_Zero_then_variadic_args_t@1@@Z DD 019930522H
	DD	01H
	DD	FLAT:__unwindtable$??$?0$$V@?$_Compressed_pair@V?$allocator@D@std@@V?$_String_val@U?$_Simple_types@D@std@@@2@$00@std@@QAE@U_Zero_then_variadic_args_t@1@@Z
	DD	2 DUP(00H)
	DD	2 DUP(00H)
	DD	00H
	DD	00H
xdata$x	ENDS
;	COMDAT xdata$x
xdata$x	SEGMENT
__unwindtable$??$?0V?$allocator@D@std@@$$V@?$_Compressed_pair@V?$allocator@D@std@@V?$_String_val@U?$_Simple_types@D@std@@@2@$00@std@@QAE@U_One_then_variadic_args_t@1@$$QAV?$allocator@D@1@@Z DD 0ffffffffH
	DD	FLAT:__unwindfunclet$??$?0V?$allocator@D@std@@$$V@?$_Compressed_pair@V?$allocator@D@std@@V?$_String_val@U?$_Simple_types@D@std@@@2@$00@std@@QAE@U_One_then_variadic_args_t@1@$$QAV?$allocator@D@1@@Z$0
__ehfuncinfo$??$?0V?$allocator@D@std@@$$V@?$_Compressed_pair@V?$allocator@D@std@@V?$_String_val@U?$_Simple_types@D@std@@@2@$00@std@@QAE@U_One_then_variadic_args_t@1@$$QAV?$allocator@D@1@@Z DD 019930522H
	DD	01H
	DD	FLAT:__unwindtable$??$?0V?$allocator@D@std@@$$V@?$_Compressed_pair@V?$allocator@D@std@@V?$_String_val@U?$_Simple_types@D@std@@@2@$00@std@@QAE@U_One_then_variadic_args_t@1@$$QAV?$allocator@D@1@@Z
	DD	2 DUP(00H)
	DD	2 DUP(00H)
	DD	00H
	DD	00H
xdata$x	ENDS
;	COMDAT xdata$x
xdata$x	SEGMENT
__unwindtable$??$?0$$V@?$_Compressed_pair@V?$allocator@_W@std@@V?$_String_val@U?$_Simple_types@_W@std@@@2@$00@std@@QAE@U_Zero_then_variadic_args_t@1@@Z DD 0ffffffffH
	DD	FLAT:__unwindfunclet$??$?0$$V@?$_Compressed_pair@V?$allocator@_W@std@@V?$_String_val@U?$_Simple_types@_W@std@@@2@$00@std@@QAE@U_Zero_then_variadic_args_t@1@@Z$0
__ehfuncinfo$??$?0$$V@?$_Compressed_pair@V?$allocator@_W@std@@V?$_String_val@U?$_Simple_types@_W@std@@@2@$00@std@@QAE@U_Zero_then_variadic_args_t@1@@Z DD 019930522H
	DD	01H
	DD	FLAT:__unwindtable$??$?0$$V@?$_Compressed_pair@V?$allocator@_W@std@@V?$_String_val@U?$_Simple_types@_W@std@@@2@$00@std@@QAE@U_Zero_then_variadic_args_t@1@@Z
	DD	2 DUP(00H)
	DD	2 DUP(00H)
	DD	00H
	DD	00H
xdata$x	ENDS
;	COMDAT xdata$x
xdata$x	SEGMENT
__unwindtable$??$_Range_construct_or_tidy@PBQBD@?$vector@PBDV?$allocator@PBD@std@@@std@@AAEXPBQBD0Uforward_iterator_tag@1@@Z DD 0ffffffffH
	DD	FLAT:__unwindfunclet$??$_Range_construct_or_tidy@PBQBD@?$vector@PBDV?$allocator@PBD@std@@@std@@AAEXPBQBD0Uforward_iterator_tag@1@@Z$0
__ehfuncinfo$??$_Range_construct_or_tidy@PBQBD@?$vector@PBDV?$allocator@PBD@std@@@std@@AAEXPBQBD0Uforward_iterator_tag@1@@Z DD 019930522H
	DD	01H
	DD	FLAT:__unwindtable$??$_Range_construct_or_tidy@PBQBD@?$vector@PBDV?$allocator@PBD@std@@@std@@AAEXPBQBD0Uforward_iterator_tag@1@@Z
	DD	2 DUP(00H)
	DD	2 DUP(00H)
	DD	00H
	DD	00H
xdata$x	ENDS
;	COMDAT xdata$x
xdata$x	SEGMENT
__unwindtable$??$_Construct_n_copies_of_ty@_W@?$vector@_WV?$allocator@_W@std@@@std@@AAEXIAB_W@Z DD 0ffffffffH
	DD	FLAT:__unwindfunclet$??$_Construct_n_copies_of_ty@_W@?$vector@_WV?$allocator@_W@std@@@std@@AAEXIAB_W@Z$0
	DD	00H
	DD	FLAT:__unwindfunclet$??$_Construct_n_copies_of_ty@_W@?$vector@_WV?$allocator@_W@std@@@std@@AAEXIAB_W@Z$1
__ehfuncinfo$??$_Construct_n_copies_of_ty@_W@?$vector@_WV?$allocator@_W@std@@@std@@AAEXIAB_W@Z DD 019930522H
	DD	02H
	DD	FLAT:__unwindtable$??$_Construct_n_copies_of_ty@_W@?$vector@_WV?$allocator@_W@std@@@std@@AAEXIAB_W@Z
	DD	2 DUP(00H)
	DD	2 DUP(00H)
	DD	00H
	DD	00H
xdata$x	ENDS
;	COMDAT xdata$x
xdata$x	SEGMENT
__unwindtable$??$_Construct_n_copies_of_ty@D@?$vector@DV?$allocator@D@std@@@std@@AAEXIABD@Z DD 0ffffffffH
	DD	FLAT:__unwindfunclet$??$_Construct_n_copies_of_ty@D@?$vector@DV?$allocator@D@std@@@std@@AAEXIABD@Z$0
	DD	00H
	DD	FLAT:__unwindfunclet$??$_Construct_n_copies_of_ty@D@?$vector@DV?$allocator@D@std@@@std@@AAEXIABD@Z$1
__ehfuncinfo$??$_Construct_n_copies_of_ty@D@?$vector@DV?$allocator@D@std@@@std@@AAEXIABD@Z DD 019930522H
	DD	02H
	DD	FLAT:__unwindtable$??$_Construct_n_copies_of_ty@D@?$vector@DV?$allocator@D@std@@@std@@AAEXIABD@Z
	DD	2 DUP(00H)
	DD	2 DUP(00H)
	DD	00H
	DD	00H
xdata$x	ENDS
;	COMDAT xdata$x
xdata$x	SEGMENT
__ehfuncinfo$?_Tidy@?$vector@DV?$allocator@D@std@@@std@@AAEXXZ DD 019930522H
	DD	00H
	DD	00H
	DD	2 DUP(00H)
	DD	2 DUP(00H)
	DD	00H
	DD	04H
xdata$x	ENDS
;	COMDAT xdata$x
xdata$x	SEGMENT
__ehfuncinfo$?data@?$vector@DV?$allocator@D@std@@@std@@QAEPADXZ DD 019930522H
	DD	00H
	DD	00H
	DD	2 DUP(00H)
	DD	2 DUP(00H)
	DD	00H
	DD	04H
xdata$x	ENDS
;	COMDAT xdata$x
xdata$x	SEGMENT
__ehfuncinfo$??1?$vector@DV?$allocator@D@std@@@std@@QAE@XZ DD 019930522H
	DD	00H
	DD	00H
	DD	2 DUP(00H)
	DD	2 DUP(00H)
	DD	00H
	DD	04H
xdata$x	ENDS
;	COMDAT xdata$x
xdata$x	SEGMENT
__ehfuncinfo$?_Tidy@?$vector@_WV?$allocator@_W@std@@@std@@AAEXXZ DD 019930522H
	DD	00H
	DD	00H
	DD	2 DUP(00H)
	DD	2 DUP(00H)
	DD	00H
	DD	04H
xdata$x	ENDS
;	COMDAT xdata$x
xdata$x	SEGMENT
__ehfuncinfo$?data@?$vector@_WV?$allocator@_W@std@@@std@@QAEPA_WXZ DD 019930522H
	DD	00H
	DD	00H
	DD	2 DUP(00H)
	DD	2 DUP(00H)
	DD	00H
	DD	04H
xdata$x	ENDS
;	COMDAT xdata$x
xdata$x	SEGMENT
__ehfuncinfo$??1?$vector@_WV?$allocator@_W@std@@@std@@QAE@XZ DD 019930522H
	DD	00H
	DD	00H
	DD	2 DUP(00H)
	DD	2 DUP(00H)
	DD	00H
	DD	04H
xdata$x	ENDS
;	COMDAT xdata$x
xdata$x	SEGMENT
__ehfuncinfo$?_Tidy@?$vector@V?$basic_string@DU?$char_traits@D@std@@V?$allocator@D@2@@std@@V?$allocator@V?$basic_string@DU?$char_traits@D@std@@V?$allocator@D@2@@std@@@2@@std@@AAEXXZ DD 019930522H
	DD	00H
	DD	00H
	DD	2 DUP(00H)
	DD	2 DUP(00H)
	DD	00H
	DD	04H
xdata$x	ENDS
;	COMDAT xdata$x
xdata$x	SEGMENT
__ehfuncinfo$??A?$vector@V?$basic_string@DU?$char_traits@D@std@@V?$allocator@D@2@@std@@V?$allocator@V?$basic_string@DU?$char_traits@D@std@@V?$allocator@D@2@@std@@@2@@std@@QAEAAV?$basic_string@DU?$char_traits@D@std@@V?$allocator@D@2@@1@I@Z DD 019930522H
	DD	00H
	DD	00H
	DD	2 DUP(00H)
	DD	2 DUP(00H)
	DD	00H
	DD	04H
xdata$x	ENDS
;	COMDAT xdata$x
xdata$x	SEGMENT
__ehfuncinfo$??1?$vector@V?$basic_string@DU?$char_traits@D@std@@V?$allocator@D@2@@std@@V?$allocator@V?$basic_string@DU?$char_traits@D@std@@V?$allocator@D@2@@std@@@2@@std@@QAE@XZ DD 019930522H
	DD	00H
	DD	00H
	DD	2 DUP(00H)
	DD	2 DUP(00H)
	DD	00H
	DD	04H
xdata$x	ENDS
;	COMDAT xdata$x
xdata$x	SEGMENT
__ehfuncinfo$??R<lambda_f3909f92742c3c941cb1e6da4e121b41>@@QBE?AV?$basic_string@DU?$char_traits@D@std@@V?$allocator@D@2@@std@@V12@@Z DD 019930522H
	DD	08H
	DD	FLAT:__unwindtable$??R<lambda_f3909f92742c3c941cb1e6da4e121b41>@@QBE?AV?$basic_string@DU?$char_traits@D@std@@V?$allocator@D@2@@std@@V12@@Z
	DD	2 DUP(00H)
	DD	2 DUP(00H)
	DD	00H
	DD	00H
__unwindtable$??R<lambda_f3909f92742c3c941cb1e6da4e121b41>@@QBE?AV?$basic_string@DU?$char_traits@D@std@@V?$allocator@D@2@@std@@V12@@Z DD 0ffffffffH
	DD	FLAT:__unwindfunclet$??R<lambda_f3909f92742c3c941cb1e6da4e121b41>@@QBE?AV?$basic_string@DU?$char_traits@D@std@@V?$allocator@D@2@@std@@V12@@Z$6
	DD	00H
	DD	FLAT:__unwindfunclet$??R<lambda_f3909f92742c3c941cb1e6da4e121b41>@@QBE?AV?$basic_string@DU?$char_traits@D@std@@V?$allocator@D@2@@std@@V12@@Z$0
	DD	01H
	DD	FLAT:__unwindfunclet$??R<lambda_f3909f92742c3c941cb1e6da4e121b41>@@QBE?AV?$basic_string@DU?$char_traits@D@std@@V?$allocator@D@2@@std@@V12@@Z$1
	DD	02H
	DD	FLAT:__unwindfunclet$??R<lambda_f3909f92742c3c941cb1e6da4e121b41>@@QBE?AV?$basic_string@DU?$char_traits@D@std@@V?$allocator@D@2@@std@@V12@@Z$2
	DD	01H
	DD	FLAT:__unwindfunclet$??R<lambda_f3909f92742c3c941cb1e6da4e121b41>@@QBE?AV?$basic_string@DU?$char_traits@D@std@@V?$allocator@D@2@@std@@V12@@Z$2
	DD	04H
	DD	FLAT:__unwindfunclet$??R<lambda_f3909f92742c3c941cb1e6da4e121b41>@@QBE?AV?$basic_string@DU?$char_traits@D@std@@V?$allocator@D@2@@std@@V12@@Z$3
	DD	05H
	DD	FLAT:__unwindfunclet$??R<lambda_f3909f92742c3c941cb1e6da4e121b41>@@QBE?AV?$basic_string@DU?$char_traits@D@std@@V?$allocator@D@2@@std@@V12@@Z$4
	DD	06H
	DD	FLAT:__unwindfunclet$??R<lambda_f3909f92742c3c941cb1e6da4e121b41>@@QBE?AV?$basic_string@DU?$char_traits@D@std@@V?$allocator@D@2@@std@@V12@@Z$5
xdata$x	ENDS
;	COMDAT xdata$x
xdata$x	SEGMENT
__unwindtable$??$?HDU?$char_traits@D@std@@V?$allocator@D@1@@std@@YA?AV?$basic_string@DU?$char_traits@D@std@@V?$allocator@D@2@@0@QBD$$QAV10@@Z DD 0ffffffffH
	DD	FLAT:__unwindfunclet$??$?HDU?$char_traits@D@std@@V?$allocator@D@1@@std@@YA?AV?$basic_string@DU?$char_traits@D@std@@V?$allocator@D@2@@0@QBD$$QAV10@@Z$0
__ehfuncinfo$??$?HDU?$char_traits@D@std@@V?$allocator@D@1@@std@@YA?AV?$basic_string@DU?$char_traits@D@std@@V?$allocator@D@2@@0@QBD$$QAV10@@Z DD 019930522H
	DD	01H
	DD	FLAT:__unwindtable$??$?HDU?$char_traits@D@std@@V?$allocator@D@1@@std@@YA?AV?$basic_string@DU?$char_traits@D@std@@V?$allocator@D@2@@0@QBD$$QAV10@@Z
	DD	2 DUP(00H)
	DD	2 DUP(00H)
	DD	00H
	DD	00H
xdata$x	ENDS
;	COMDAT xdata$x
xdata$x	SEGMENT
__ehfuncinfo$??$max@H@std@@YAABHABH0@Z DD 019930522H
	DD	00H
	DD	00H
	DD	2 DUP(00H)
	DD	2 DUP(00H)
	DD	00H
	DD	04H
xdata$x	ENDS
;	COMDAT xdata$x
xdata$x	SEGMENT
__ehfuncinfo$?_Tidy@?$vector@PBDV?$allocator@PBD@std@@@std@@AAEXXZ DD 019930522H
	DD	00H
	DD	00H
	DD	2 DUP(00H)
	DD	2 DUP(00H)
	DD	00H
	DD	04H
xdata$x	ENDS
;	COMDAT xdata$x
xdata$x	SEGMENT
__ehfuncinfo$??1?$vector@PBDV?$allocator@PBD@std@@@std@@QAE@XZ DD 019930522H
	DD	00H
	DD	00H
	DD	2 DUP(00H)
	DD	2 DUP(00H)
	DD	00H
	DD	04H
xdata$x	ENDS
;	COMDAT xdata$x
xdata$x	SEGMENT
__unwindtable$??0?$vector@PBDV?$allocator@PBD@std@@@std@@QAE@V?$initializer_list@PBD@1@ABV?$allocator@PBD@1@@Z DD 0ffffffffH
	DD	FLAT:__unwindfunclet$??0?$vector@PBDV?$allocator@PBD@std@@@std@@QAE@V?$initializer_list@PBD@1@ABV?$allocator@PBD@1@@Z$0
__ehfuncinfo$??0?$vector@PBDV?$allocator@PBD@std@@@std@@QAE@V?$initializer_list@PBD@1@ABV?$allocator@PBD@1@@Z DD 019930522H
	DD	01H
	DD	FLAT:__unwindtable$??0?$vector@PBDV?$allocator@PBD@std@@@std@@QAE@V?$initializer_list@PBD@1@ABV?$allocator@PBD@1@@Z
	DD	2 DUP(00H)
	DD	2 DUP(00H)
	DD	00H
	DD	00H
xdata$x	ENDS
;	COMDAT xdata$x
xdata$x	SEGMENT
__unwindtable$??1?$pair@HV?$basic_string@DU?$char_traits@D@std@@V?$allocator@D@2@@std@@@std@@QAE@XZ DD 0ffffffffH
	DD	FLAT:__unwindfunclet$??1?$pair@HV?$basic_string@DU?$char_traits@D@std@@V?$allocator@D@2@@std@@@std@@QAE@XZ$0
__ehfuncinfo$??1?$pair@HV?$basic_string@DU?$char_traits@D@std@@V?$allocator@D@2@@std@@@std@@QAE@XZ DD 019930522H
	DD	01H
	DD	FLAT:__unwindtable$??1?$pair@HV?$basic_string@DU?$char_traits@D@std@@V?$allocator@D@2@@std@@@std@@QAE@XZ
	DD	2 DUP(00H)
	DD	2 DUP(00H)
	DD	00H
	DD	04H
xdata$x	ENDS
;	COMDAT xdata$x
xdata$x	SEGMENT
__ehfuncinfo$??$?0U?$default_delete@Vmutex@std@@@std@@$0A@@?$unique_ptr@Vmutex@std@@U?$default_delete@Vmutex@std@@@2@@std@@QAE@XZ DD 019930522H
	DD	00H
	DD	00H
	DD	2 DUP(00H)
	DD	2 DUP(00H)
	DD	00H
	DD	04H
xdata$x	ENDS
xdata$x	SEGMENT
__unwindtable$?write@RGYLog@@UAAXHPBDZZ DD 0ffffffffH
	DD	FLAT:__unwindfunclet$?write@RGYLog@@UAAXHPBDZZ$0
__unwindtable$??1RGYLog@@UAE@XZ DD 0ffffffffH
	DD	FLAT:__unwindfunclet$??1RGYLog@@UAE@XZ$0
__unwindtable$??0RGYLog@@QAE@PBDH@Z DD 0ffffffffH
	DD	FLAT:__unwindfunclet$??0RGYLog@@QAE@PBDH@Z$0
__unwindtable$?write@RGYLog@@UAEXHPBDPADI@Z DD 0ffffffffH
	DD	FLAT:__unwindfunclet$?write@RGYLog@@UAEXHPBDPADI@Z$0
	DD	00H
	DD	FLAT:__unwindfunclet$?write@RGYLog@@UAEXHPBDPADI@Z$1
__unwindtable$?write@RGYLog@@UAEXHPB_WPAD@Z DD 0ffffffffH
	DD	FLAT:__unwindfunclet$?write@RGYLog@@UAEXHPB_WPAD@Z$0
	DD	00H
	DD	FLAT:__unwindfunclet$?write@RGYLog@@UAEXHPB_WPAD@Z$1
__unwindtable$?writeHtmlHeader@RGYLog@@QAEXXZ DD 0ffffffffH
	DD	FLAT:__unwindfunclet$?writeHtmlHeader@RGYLog@@QAEXXZ$0
	DD	00H
	DD	FLAT:__unwindfunclet$?writeHtmlHeader@RGYLog@@QAEXXZ$1
__unwindtable$?init@RGYLog@@QAEXPBDH@Z DD 0ffffffffH
	DD	FLAT:__unwindfunclet$?init@RGYLog@@QAEXPBDH@Z$0
	DD	00H
	DD	FLAT:__unwindfunclet$?init@RGYLog@@QAEXPBDH@Z$1
	DD	0ffffffffH
	DD	FLAT:__unwindfunclet$?init@RGYLog@@QAEXPBDH@Z$2
__ehfuncinfo$?write_line@RGYLog@@UAEXHPBDPADI@Z DD 019930522H
	DD	06H
	DD	FLAT:__unwindtable$?write_line@RGYLog@@UAEXHPBDPADI@Z
	DD	2 DUP(00H)
	DD	2 DUP(00H)
	DD	00H
	DD	00H
__ehfuncinfo$?write@RGYLog@@UAEXHPBDPADI@Z DD 019930522H
	DD	02H
	DD	FLAT:__unwindtable$?write@RGYLog@@UAEXHPBDPADI@Z
	DD	2 DUP(00H)
	DD	2 DUP(00H)
	DD	00H
	DD	00H
__ehfuncinfo$?write@RGYLog@@UAEXHPB_WPAD@Z DD 019930522H
	DD	02H
	DD	FLAT:__unwindtable$?write@RGYLog@@UAEXHPB_WPAD@Z
	DD	2 DUP(00H)
	DD	2 DUP(00H)
	DD	00H
	DD	00H
__ehfuncinfo$?write@RGYLog@@UAAXHPBDZZ DD 019930522H
	DD	01H
	DD	FLAT:__unwindtable$?write@RGYLog@@UAAXHPBDZZ
	DD	2 DUP(00H)
	DD	2 DUP(00H)
	DD	00H
	DD	00H
__ehfuncinfo$?write_log@RGYLog@@UAEXHPBD_N@Z DD 019930522H
	DD	06H
	DD	FLAT:__unwindtable$?write_log@RGYLog@@UAEXHPBD_N@Z
	DD	2 DUP(00H)
	DD	2 DUP(00H)
	DD	00H
	DD	00H
__ehfuncinfo$?writeFileHeader@RGYLog@@QAEXPBD@Z DD 019930522H
	DD	08H
	DD	FLAT:__unwindtable$?writeFileHeader@RGYLog@@QAEXPBD@Z
	DD	2 DUP(00H)
	DD	2 DUP(00H)
	DD	00H
	DD	00H
__ehfuncinfo$?writeHtmlHeader@RGYLog@@QAEXXZ DD 019930522H
	DD	02H
	DD	FLAT:__unwindtable$?writeHtmlHeader@RGYLog@@QAEXXZ
	DD	2 DUP(00H)
	DD	2 DUP(00H)
	DD	00H
	DD	00H
__ehfuncinfo$?init@RGYLog@@QAEXPBDH@Z DD 019930522H
	DD	03H
	DD	FLAT:__unwindtable$?init@RGYLog@@QAEXPBDH@Z
	DD	2 DUP(00H)
	DD	2 DUP(00H)
	DD	00H
	DD	00H
__ehfuncinfo$??1RGYLog@@UAE@XZ DD 019930522H
	DD	01H
	DD	FLAT:__unwindtable$??1RGYLog@@UAE@XZ
	DD	2 DUP(00H)
	DD	2 DUP(00H)
	DD	00H
	DD	04H
__ehfuncinfo$??0RGYLog@@QAE@PBDH@Z DD 019930522H
	DD	01H
	DD	FLAT:__unwindtable$??0RGYLog@@QAE@PBDH@Z
	DD	2 DUP(00H)
	DD	2 DUP(00H)
	DD	00H
	DD	00H
__unwindtable$?write_line@RGYLog@@UAEXHPBDPADI@Z DD 0ffffffffH
	DD	FLAT:__unwindfunclet$?write_line@RGYLog@@UAEXHPBDPADI@Z$0
	DD	00H
	DD	FLAT:__unwindfunclet$?write_line@RGYLog@@UAEXHPBDPADI@Z$1
	DD	01H
	DD	FLAT:__unwindfunclet$?write_line@RGYLog@@UAEXHPBDPADI@Z$2
	DD	02H
	DD	FLAT:__unwindfunclet$?write_line@RGYLog@@UAEXHPBDPADI@Z$3
	DD	01H
	DD	FLAT:__unwindfunclet$?write_line@RGYLog@@UAEXHPBDPADI@Z$3
	DD	00H
	DD	FLAT:__unwindfunclet$?write_line@RGYLog@@UAEXHPBDPADI@Z$3
__unwindtable$?write_log@RGYLog@@UAEXHPBD_N@Z DD 0ffffffffH
	DD	FLAT:__unwindfunclet$?write_log@RGYLog@@UAEXHPBD_N@Z$0
	DD	00H
	DD	FLAT:__unwindfunclet$?write_log@RGYLog@@UAEXHPBD_N@Z$1
	DD	01H
	DD	FLAT:__unwindfunclet$?write_log@RGYLog@@UAEXHPBD_N@Z$2
	DD	00H
	DD	FLAT:__unwindfunclet$?write_log@RGYLog@@UAEXHPBD_N@Z$3
	DD	00H
	DD	FLAT:__unwindfunclet$?write_log@RGYLog@@UAEXHPBD_N@Z$4
	DD	00H
	DD	FLAT:__unwindfunclet$?write_log@RGYLog@@UAEXHPBD_N@Z$5
__unwindtable$?writeFileHeader@RGYLog@@QAEXPBD@Z DD 0ffffffffH
	DD	FLAT:__unwindfunclet$?writeFileHeader@RGYLog@@QAEXPBD@Z$0
	DD	00H
	DD	FLAT:__unwindfunclet$?writeFileHeader@RGYLog@@QAEXPBD@Z$1
	DD	01H
	DD	FLAT:__unwindfunclet$?writeFileHeader@RGYLog@@QAEXPBD@Z$2
	DD	02H
	DD	FLAT:__unwindfunclet$?writeFileHeader@RGYLog@@QAEXPBD@Z$3
	DD	02H
	DD	FLAT:__unwindfunclet$?writeFileHeader@RGYLog@@QAEXPBD@Z$4
	DD	04H
	DD	FLAT:__unwindfunclet$?writeFileHeader@RGYLog@@QAEXPBD@Z$5
	DD	05H
	DD	FLAT:__unwindfunclet$?writeFileHeader@RGYLog@@QAEXPBD@Z$6
	DD	00H
	DD	FLAT:__unwindfunclet$?writeFileHeader@RGYLog@@QAEXPBD@Z$7
xdata$x	ENDS
;	COMDAT xdata$x
xdata$x	SEGMENT
__ehfuncinfo$?reset@?$unique_ptr@Vmutex@std@@U?$default_delete@Vmutex@std@@@2@@std@@QAEXPAVmutex@2@@Z DD 019930522H
	DD	00H
	DD	00H
	DD	2 DUP(00H)
	DD	2 DUP(00H)
	DD	00H
	DD	04H
xdata$x	ENDS
;	COMDAT xdata$x
xdata$x	SEGMENT
__unwindtable$??$?HDU?$char_traits@D@std@@V?$allocator@D@1@@std@@YA?AV?$basic_string@DU?$char_traits@D@std@@V?$allocator@D@2@@0@$$QAV10@0@Z DD 0ffffffffH
	DD	FLAT:__unwindfunclet$??$?HDU?$char_traits@D@std@@V?$allocator@D@1@@std@@YA?AV?$basic_string@DU?$char_traits@D@std@@V?$allocator@D@2@@0@$$QAV10@0@Z$0
__ehfuncinfo$??$?HDU?$char_traits@D@std@@V?$allocator@D@1@@std@@YA?AV?$basic_string@DU?$char_traits@D@std@@V?$allocator@D@2@@0@$$QAV10@0@Z DD 019930522H
	DD	01H
	DD	FLAT:__unwindtable$??$?HDU?$char_traits@D@std@@V?$allocator@D@1@@std@@YA?AV?$basic_string@DU?$char_traits@D@std@@V?$allocator@D@2@@0@$$QAV10@0@Z
	DD	2 DUP(00H)
	DD	2 DUP(00H)
	DD	00H
	DD	00H
xdata$x	ENDS
;	COMDAT xdata$x
xdata$x	SEGMENT
__unwindtable$??$?HDU?$char_traits@D@std@@V?$allocator@D@1@@std@@YA?AV?$basic_string@DU?$char_traits@D@std@@V?$allocator@D@2@@0@$$QAV10@QBD@Z DD 0ffffffffH
	DD	FLAT:__unwindfunclet$??$?HDU?$char_traits@D@std@@V?$allocator@D@1@@std@@YA?AV?$basic_string@DU?$char_traits@D@std@@V?$allocator@D@2@@0@$$QAV10@QBD@Z$0
__ehfuncinfo$??$?HDU?$char_traits@D@std@@V?$allocator@D@1@@std@@YA?AV?$basic_string@DU?$char_traits@D@std@@V?$allocator@D@2@@0@$$QAV10@QBD@Z DD 019930522H
	DD	01H
	DD	FLAT:__unwindtable$??$?HDU?$char_traits@D@std@@V?$allocator@D@1@@std@@YA?AV?$basic_string@DU?$char_traits@D@std@@V?$allocator@D@2@@0@$$QAV10@QBD@Z
	DD	2 DUP(00H)
	DD	2 DUP(00H)
	DD	00H
	DD	00H
xdata$x	ENDS
;	COMDAT xdata$x
xdata$x	SEGMENT
__ehfuncinfo$??1?$lock_guard@Vmutex@std@@@std@@QAE@XZ DD 019930522H
	DD	00H
	DD	00H
	DD	2 DUP(00H)
	DD	2 DUP(00H)
	DD	00H
	DD	04H
xdata$x	ENDS
;	COMDAT xdata$x
xdata$x	SEGMENT
__unwindtable$??1mutex@std@@QAE@XZ DD 0ffffffffH
	DD	FLAT:__unwindfunclet$??1mutex@std@@QAE@XZ$0
__ehfuncinfo$??1mutex@std@@QAE@XZ DD 019930522H
	DD	01H
	DD	FLAT:__unwindtable$??1mutex@std@@QAE@XZ
	DD	2 DUP(00H)
	DD	2 DUP(00H)
	DD	00H
	DD	04H
xdata$x	ENDS
;	COMDAT xdata$x
xdata$x	SEGMENT
__unwindtable$??0mutex@std@@QAE@XZ DD 0ffffffffH
	DD	FLAT:__unwindfunclet$??0mutex@std@@QAE@XZ$0
__ehfuncinfo$??0mutex@std@@QAE@XZ DD 019930522H
	DD	01H
	DD	FLAT:__unwindtable$??0mutex@std@@QAE@XZ
	DD	2 DUP(00H)
	DD	2 DUP(00H)
	DD	00H
	DD	04H
xdata$x	ENDS
;	COMDAT xdata$x
xdata$x	SEGMENT
__ehfuncinfo$??1_Mutex_base@std@@QAE@XZ DD 019930522H
	DD	00H
	DD	00H
	DD	2 DUP(00H)
	DD	2 DUP(00H)
	DD	00H
	DD	04H
xdata$x	ENDS
;	COMDAT xdata$x
xdata$x	SEGMENT
__ehfuncinfo$??0_Mutex_base@std@@QAE@H@Z DD 019930522H
	DD	00H
	DD	00H
	DD	2 DUP(00H)
	DD	2 DUP(00H)
	DD	00H
	DD	04H
xdata$x	ENDS
;	COMDAT xdata$x
xdata$x	SEGMENT
__unwindtable$??1?$_Compressed_pair@V?$allocator@_W@std@@V?$_String_val@U?$_Simple_types@_W@std@@@2@$00@std@@QAE@XZ DD 0ffffffffH
	DD	FLAT:__unwindfunclet$??1?$_Compressed_pair@V?$allocator@_W@std@@V?$_String_val@U?$_Simple_types@_W@std@@@2@$00@std@@QAE@XZ$0
__ehfuncinfo$??1?$_Compressed_pair@V?$allocator@_W@std@@V?$_String_val@U?$_Simple_types@_W@std@@@2@$00@std@@QAE@XZ DD 019930522H
	DD	01H
	DD	FLAT:__unwindtable$??1?$_Compressed_pair@V?$allocator@_W@std@@V?$_String_val@U?$_Simple_types@_W@std@@@2@$00@std@@QAE@XZ
	DD	2 DUP(00H)
	DD	2 DUP(00H)
	DD	00H
	DD	04H
xdata$x	ENDS
;	COMDAT xdata$x
xdata$x	SEGMENT
__ehfuncinfo$?_Tidy_deallocate@?$basic_string@_WU?$char_traits@_W@std@@V?$allocator@_W@2@@std@@AAEXXZ DD 019930522H
	DD	00H
	DD	00H
	DD	2 DUP(00H)
	DD	2 DUP(00H)
	DD	00H
	DD	04H
xdata$x	ENDS
;	COMDAT xdata$x
xdata$x	SEGMENT
__unwindtable$??1?$basic_string@_WU?$char_traits@_W@std@@V?$allocator@_W@2@@std@@QAE@XZ DD 0ffffffffH
	DD	FLAT:__unwindfunclet$??1?$basic_string@_WU?$char_traits@_W@std@@V?$allocator@_W@2@@std@@QAE@XZ$0
__ehfuncinfo$??1?$basic_string@_WU?$char_traits@_W@std@@V?$allocator@_W@2@@std@@QAE@XZ DD 019930522H
	DD	01H
	DD	FLAT:__unwindtable$??1?$basic_string@_WU?$char_traits@_W@std@@V?$allocator@_W@2@@std@@QAE@XZ
	DD	2 DUP(00H)
	DD	2 DUP(00H)
	DD	00H
	DD	04H
xdata$x	ENDS
;	COMDAT xdata$x
xdata$x	SEGMENT
__unwindtable$??0?$basic_string@_WU?$char_traits@_W@std@@V?$allocator@_W@2@@std@@QAE@QB_W@Z DD 0ffffffffH
	DD	FLAT:__unwindfunclet$??0?$basic_string@_WU?$char_traits@_W@std@@V?$allocator@_W@2@@std@@QAE@QB_W@Z$0
	DD	00H
	DD	FLAT:__unwindfunclet$??0?$basic_string@_WU?$char_traits@_W@std@@V?$allocator@_W@2@@std@@QAE@QB_W@Z$1
__ehfuncinfo$??0?$basic_string@_WU?$char_traits@_W@std@@V?$allocator@_W@2@@std@@QAE@QB_W@Z DD 019930522H
	DD	02H
	DD	FLAT:__unwindtable$??0?$basic_string@_WU?$char_traits@_W@std@@V?$allocator@_W@2@@std@@QAE@QB_W@Z
	DD	2 DUP(00H)
	DD	2 DUP(00H)
	DD	00H
	DD	00H
xdata$x	ENDS
;	COMDAT xdata$x
xdata$x	SEGMENT
__unwindtable$??1?$_String_val@U?$_Simple_types@_W@std@@@std@@QAE@XZ DD 0ffffffffH
	DD	FLAT:__unwindfunclet$??1?$_String_val@U?$_Simple_types@_W@std@@@std@@QAE@XZ$0
__ehfuncinfo$??1?$_String_val@U?$_Simple_types@_W@std@@@std@@QAE@XZ DD 019930522H
	DD	01H
	DD	FLAT:__unwindtable$??1?$_String_val@U?$_Simple_types@_W@std@@@std@@QAE@XZ
	DD	2 DUP(00H)
	DD	2 DUP(00H)
	DD	00H
	DD	04H
xdata$x	ENDS
;	COMDAT xdata$x
xdata$x	SEGMENT
__unwindtable$??0?$_String_val@U?$_Simple_types@_W@std@@@std@@QAE@XZ DD 0ffffffffH
	DD	FLAT:__unwindfunclet$??0?$_String_val@U?$_Simple_types@_W@std@@@std@@QAE@XZ$0
__ehfuncinfo$??0?$_String_val@U?$_Simple_types@_W@std@@@std@@QAE@XZ DD 019930522H
	DD	01H
	DD	FLAT:__unwindtable$??0?$_String_val@U?$_Simple_types@_W@std@@@std@@QAE@XZ
	DD	2 DUP(00H)
	DD	2 DUP(00H)
	DD	00H
	DD	00H
xdata$x	ENDS
;	COMDAT xdata$x
xdata$x	SEGMENT
__unwindtable$??1?$_Compressed_pair@V?$allocator@D@std@@V?$_String_val@U?$_Simple_types@D@std@@@2@$00@std@@QAE@XZ DD 0ffffffffH
	DD	FLAT:__unwindfunclet$??1?$_Compressed_pair@V?$allocator@D@std@@V?$_String_val@U?$_Simple_types@D@std@@@2@$00@std@@QAE@XZ$0
__ehfuncinfo$??1?$_Compressed_pair@V?$allocator@D@std@@V?$_String_val@U?$_Simple_types@D@std@@@2@$00@std@@QAE@XZ DD 019930522H
	DD	01H
	DD	FLAT:__unwindtable$??1?$_Compressed_pair@V?$allocator@D@std@@V?$_String_val@U?$_Simple_types@D@std@@@2@$00@std@@QAE@XZ
	DD	2 DUP(00H)
	DD	2 DUP(00H)
	DD	00H
	DD	04H
xdata$x	ENDS
;	COMDAT xdata$x
xdata$x	SEGMENT
__ehfuncinfo$?_Tidy_deallocate@?$basic_string@DU?$char_traits@D@std@@V?$allocator@D@2@@std@@AAEXXZ DD 019930522H
	DD	00H
	DD	00H
	DD	2 DUP(00H)
	DD	2 DUP(00H)
	DD	00H
	DD	04H
xdata$x	ENDS
;	COMDAT xdata$x
xdata$x	SEGMENT
__ehfuncinfo$?c_str@?$basic_string@DU?$char_traits@D@std@@V?$allocator@D@2@@std@@QBEPBDXZ DD 019930522H
	DD	00H
	DD	00H
	DD	2 DUP(00H)
	DD	2 DUP(00H)
	DD	00H
	DD	04H
xdata$x	ENDS
;	COMDAT xdata$x
xdata$x	SEGMENT
__ehfuncinfo$??A?$basic_string@DU?$char_traits@D@std@@V?$allocator@D@2@@std@@QAEAADI@Z DD 019930522H
	DD	00H
	DD	00H
	DD	2 DUP(00H)
	DD	2 DUP(00H)
	DD	00H
	DD	04H
xdata$x	ENDS
;	COMDAT xdata$x
xdata$x	SEGMENT
__unwindtable$??1?$basic_string@DU?$char_traits@D@std@@V?$allocator@D@2@@std@@QAE@XZ DD 0ffffffffH
	DD	FLAT:__unwindfunclet$??1?$basic_string@DU?$char_traits@D@std@@V?$allocator@D@2@@std@@QAE@XZ$0
__ehfuncinfo$??1?$basic_string@DU?$char_traits@D@std@@V?$allocator@D@2@@std@@QAE@XZ DD 019930522H
	DD	01H
	DD	FLAT:__unwindtable$??1?$basic_string@DU?$char_traits@D@std@@V?$allocator@D@2@@std@@QAE@XZ
	DD	2 DUP(00H)
	DD	2 DUP(00H)
	DD	00H
	DD	04H
xdata$x	ENDS
;	COMDAT xdata$x
xdata$x	SEGMENT
__ehfuncinfo$?_Take_contents@?$basic_string@DU?$char_traits@D@std@@V?$allocator@D@2@@std@@AAEXAAV12@U?$integral_constant@_N$00@2@@Z DD 019930522H
	DD	00H
	DD	00H
	DD	2 DUP(00H)
	DD	2 DUP(00H)
	DD	00H
	DD	04H
xdata$x	ENDS
;	COMDAT xdata$x
xdata$x	SEGMENT
__ehfuncinfo$?_Memcpy_val_from@?$basic_string@DU?$char_traits@D@std@@V?$allocator@D@2@@std@@AAEXABV12@@Z DD 019930522H
	DD	00H
	DD	00H
	DD	2 DUP(00H)
	DD	2 DUP(00H)
	DD	00H
	DD	04H
xdata$x	ENDS
;	COMDAT xdata$x
xdata$x	SEGMENT
__unwindtable$??0?$basic_string@DU?$char_traits@D@std@@V?$allocator@D@2@@std@@QAE@$$QAV01@@Z DD 0ffffffffH
	DD	FLAT:__unwindfunclet$??0?$basic_string@DU?$char_traits@D@std@@V?$allocator@D@2@@std@@QAE@$$QAV01@@Z$0
__ehfuncinfo$??0?$basic_string@DU?$char_traits@D@std@@V?$allocator@D@2@@std@@QAE@$$QAV01@@Z DD 019930522H
	DD	01H
	DD	FLAT:__unwindtable$??0?$basic_string@DU?$char_traits@D@std@@V?$allocator@D@2@@std@@QAE@$$QAV01@@Z
	DD	2 DUP(00H)
	DD	2 DUP(00H)
	DD	00H
	DD	04H
xdata$x	ENDS
;	COMDAT xdata$x
xdata$x	SEGMENT
__unwindtable$??0?$basic_string@DU?$char_traits@D@std@@V?$allocator@D@2@@std@@QAE@QBD@Z DD 0ffffffffH
	DD	FLAT:__unwindfunclet$??0?$basic_string@DU?$char_traits@D@std@@V?$allocator@D@2@@std@@QAE@QBD@Z$0
	DD	00H
	DD	FLAT:__unwindfunclet$??0?$basic_string@DU?$char_traits@D@std@@V?$allocator@D@2@@std@@QAE@QBD@Z$1
__ehfuncinfo$??0?$basic_string@DU?$char_traits@D@std@@V?$allocator@D@2@@std@@QAE@QBD@Z DD 019930522H
	DD	02H
	DD	FLAT:__unwindtable$??0?$basic_string@DU?$char_traits@D@std@@V?$allocator@D@2@@std@@QAE@QBD@Z
	DD	2 DUP(00H)
	DD	2 DUP(00H)
	DD	00H
	DD	00H
xdata$x	ENDS
;	COMDAT xdata$x
xdata$x	SEGMENT
__unwindtable$??0?$basic_string@DU?$char_traits@D@std@@V?$allocator@D@2@@std@@QAE@XZ DD 0ffffffffH
	DD	FLAT:__unwindfunclet$??0?$basic_string@DU?$char_traits@D@std@@V?$allocator@D@2@@std@@QAE@XZ$0
__ehfuncinfo$??0?$basic_string@DU?$char_traits@D@std@@V?$allocator@D@2@@std@@QAE@XZ DD 019930522H
	DD	01H
	DD	FLAT:__unwindtable$??0?$basic_string@DU?$char_traits@D@std@@V?$allocator@D@2@@std@@QAE@XZ
	DD	2 DUP(00H)
	DD	2 DUP(00H)
	DD	00H
	DD	04H
xdata$x	ENDS
;	COMDAT xdata$x
xdata$x	SEGMENT
__unwindtable$??0?$basic_string@DU?$char_traits@D@std@@V?$allocator@D@2@@std@@QAE@ABV01@@Z DD 0ffffffffH
	DD	FLAT:__unwindfunclet$??0?$basic_string@DU?$char_traits@D@std@@V?$allocator@D@2@@std@@QAE@ABV01@@Z$0
	DD	00H
	DD	FLAT:__unwindfunclet$??0?$basic_string@DU?$char_traits@D@std@@V?$allocator@D@2@@std@@QAE@ABV01@@Z$1
__ehfuncinfo$??0?$basic_string@DU?$char_traits@D@std@@V?$allocator@D@2@@std@@QAE@ABV01@@Z DD 019930522H
	DD	02H
	DD	FLAT:__unwindtable$??0?$basic_string@DU?$char_traits@D@std@@V?$allocator@D@2@@std@@QAE@ABV01@@Z
	DD	2 DUP(00H)
	DD	2 DUP(00H)
	DD	00H
	DD	00H
xdata$x	ENDS
;	COMDAT xdata$x
xdata$x	SEGMENT
__unwindtable$??1?$_String_val@U?$_Simple_types@D@std@@@std@@QAE@XZ DD 0ffffffffH
	DD	FLAT:__unwindfunclet$??1?$_String_val@U?$_Simple_types@D@std@@@std@@QAE@XZ$0
__ehfuncinfo$??1?$_String_val@U?$_Simple_types@D@std@@@std@@QAE@XZ DD 019930522H
	DD	01H
	DD	FLAT:__unwindtable$??1?$_String_val@U?$_Simple_types@D@std@@@std@@QAE@XZ
	DD	2 DUP(00H)
	DD	2 DUP(00H)
	DD	00H
	DD	04H
xdata$x	ENDS
;	COMDAT xdata$x
xdata$x	SEGMENT
__unwindtable$??0?$_String_val@U?$_Simple_types@D@std@@@std@@QAE@XZ DD 0ffffffffH
	DD	FLAT:__unwindfunclet$??0?$_String_val@U?$_Simple_types@D@std@@@std@@QAE@XZ$0
__ehfuncinfo$??0?$_String_val@U?$_Simple_types@D@std@@@std@@QAE@XZ DD 019930522H
	DD	01H
	DD	FLAT:__unwindtable$??0?$_String_val@U?$_Simple_types@D@std@@@std@@QAE@XZ
	DD	2 DUP(00H)
	DD	2 DUP(00H)
	DD	00H
	DD	00H
xdata$x	ENDS
;	COMDAT xdata$x
xdata$x	SEGMENT
__ehfuncinfo$?move@?$_Narrow_char_traits@DH@std@@SAPADQADQBDI@Z DD 019930522H
	DD	00H
	DD	00H
	DD	2 DUP(00H)
	DD	2 DUP(00H)
	DD	00H
	DD	04H
xdata$x	ENDS
;	COMDAT xdata$x
xdata$x	SEGMENT
__ehfuncinfo$?copy@?$_Narrow_char_traits@DH@std@@SAPADQADQBDI@Z DD 019930522H
	DD	00H
	DD	00H
	DD	2 DUP(00H)
	DD	2 DUP(00H)
	DD	00H
	DD	04H
xdata$x	ENDS
;	COMDAT xdata$x
xdata$x	SEGMENT
__ehfuncinfo$?length@?$_Narrow_char_traits@DH@std@@SAIQBD@Z DD 019930522H
	DD	00H
	DD	00H
	DD	2 DUP(00H)
	DD	2 DUP(00H)
	DD	00H
	DD	04H
xdata$x	ENDS
;	COMDAT xdata$x
xdata$x	SEGMENT
__ehfuncinfo$?move@?$_WChar_traits@_W@std@@SAPA_WQA_WQB_WI@Z DD 019930522H
	DD	00H
	DD	00H
	DD	2 DUP(00H)
	DD	2 DUP(00H)
	DD	00H
	DD	04H
xdata$x	ENDS
;	COMDAT xdata$x
xdata$x	SEGMENT
__ehfuncinfo$?copy@?$_WChar_traits@_W@std@@SAPA_WQA_WQB_WI@Z DD 019930522H
	DD	00H
	DD	00H
	DD	2 DUP(00H)
	DD	2 DUP(00H)
	DD	00H
	DD	04H
xdata$x	ENDS
;	COMDAT xdata$x
xdata$x	SEGMENT
__ehfuncinfo$?length@?$_WChar_traits@_W@std@@SAIPB_W@Z DD 019930522H
	DD	00H
	DD	00H
	DD	2 DUP(00H)
	DD	2 DUP(00H)
	DD	00H
	DD	04H
xdata$x	ENDS
;	COMDAT xdata$x
xdata$x	SEGMENT
__unwindtable$?_Swap_proxy_and_iterators@_Container_base12@std@@QAEXAAU12@@Z DD 0ffffffffH
	DD	FLAT:__unwindfunclet$?_Swap_proxy_and_iterators@_Container_base12@std@@QAEXAAU12@@Z$0
__ehfuncinfo$?_Swap_proxy_and_iterators@_Container_base12@std@@QAEXAAU12@@Z DD 019930522H
	DD	01H
	DD	FLAT:__unwindtable$?_Swap_proxy_and_iterators@_Container_base12@std@@QAEXAAU12@@Z
	DD	2 DUP(00H)
	DD	2 DUP(00H)
	DD	00H
	DD	04H
xdata$x	ENDS
;	COMDAT xdata$x
xdata$x	SEGMENT
__unwindtable$?_Orphan_all@_Container_base12@std@@QAEXXZ DD 0ffffffffH
	DD	FLAT:__unwindfunclet$?_Orphan_all@_Container_base12@std@@QAEXXZ$0
__ehfuncinfo$?_Orphan_all@_Container_base12@std@@QAEXXZ DD 019930522H
	DD	01H
	DD	FLAT:__unwindtable$?_Orphan_all@_Container_base12@std@@QAEXXZ
	DD	2 DUP(00H)
	DD	2 DUP(00H)
	DD	00H
	DD	04H
xdata$x	ENDS
;	COMDAT xdata$x
xdata$x	SEGMENT
__unwindtable$??0bad_array_new_length@std@@QAE@ABV01@@Z DD 0ffffffffH
	DD	FLAT:__unwindfunclet$??0bad_array_new_length@std@@QAE@ABV01@@Z$0
__ehfuncinfo$??0bad_array_new_length@std@@QAE@ABV01@@Z DD 019930522H
	DD	01H
	DD	FLAT:__unwindtable$??0bad_array_new_length@std@@QAE@ABV01@@Z
	DD	2 DUP(00H)
	DD	2 DUP(00H)
	DD	00H
	DD	04H
xdata$x	ENDS
;	COMDAT xdata$x
xdata$x	SEGMENT
__unwindtable$??1bad_array_new_length@std@@UAE@XZ DD 0ffffffffH
	DD	FLAT:__unwindfunclet$??1bad_array_new_length@std@@UAE@XZ$0
__ehfuncinfo$??1bad_array_new_length@std@@UAE@XZ DD 019930522H
	DD	01H
	DD	FLAT:__unwindtable$??1bad_array_new_length@std@@UAE@XZ
	DD	2 DUP(00H)
	DD	2 DUP(00H)
	DD	00H
	DD	04H
xdata$x	ENDS
;	COMDAT xdata$x
xdata$x	SEGMENT
__unwindtable$??0bad_array_new_length@std@@QAE@XZ DD 0ffffffffH
	DD	FLAT:__unwindfunclet$??0bad_array_new_length@std@@QAE@XZ$0
__ehfuncinfo$??0bad_array_new_length@std@@QAE@XZ DD 019930522H
	DD	01H
	DD	FLAT:__unwindtable$??0bad_array_new_length@std@@QAE@XZ
	DD	2 DUP(00H)
	DD	2 DUP(00H)
	DD	00H
	DD	04H
xdata$x	ENDS
;	COMDAT xdata$x
xdata$x	SEGMENT
__unwindtable$??0bad_alloc@std@@QAE@ABV01@@Z DD 0ffffffffH
	DD	FLAT:__unwindfunclet$??0bad_alloc@std@@QAE@ABV01@@Z$0
__ehfuncinfo$??0bad_alloc@std@@QAE@ABV01@@Z DD 019930522H
	DD	01H
	DD	FLAT:__unwindtable$??0bad_alloc@std@@QAE@ABV01@@Z
	DD	2 DUP(00H)
	DD	2 DUP(00H)
	DD	00H
	DD	04H
xdata$x	ENDS
;	COMDAT xdata$x
xdata$x	SEGMENT
__unwindtable$??1bad_alloc@std@@UAE@XZ DD 0ffffffffH
	DD	FLAT:__unwindfunclet$??1bad_alloc@std@@UAE@XZ$0
__ehfuncinfo$??1bad_alloc@std@@UAE@XZ DD 019930522H
	DD	01H
	DD	FLAT:__unwindtable$??1bad_alloc@std@@UAE@XZ
	DD	2 DUP(00H)
	DD	2 DUP(00H)
	DD	00H
	DD	04H
xdata$x	ENDS
;	COMDAT xdata$x
xdata$x	SEGMENT
__unwindtable$??0bad_alloc@std@@AAE@QBD@Z DD 0ffffffffH
	DD	FLAT:__unwindfunclet$??0bad_alloc@std@@AAE@QBD@Z$0
__ehfuncinfo$??0bad_alloc@std@@AAE@QBD@Z DD 019930522H
	DD	01H
	DD	FLAT:__unwindtable$??0bad_alloc@std@@AAE@QBD@Z
	DD	2 DUP(00H)
	DD	2 DUP(00H)
	DD	00H
	DD	04H
xdata$x	ENDS
;	COMDAT xdata$x
xdata$x	SEGMENT
__ehfuncinfo$??1exception@std@@UAE@XZ DD 019930522H
	DD	00H
	DD	00H
	DD	2 DUP(00H)
	DD	2 DUP(00H)
	DD	00H
	DD	04H
xdata$x	ENDS
;	COMDAT xdata$x
xdata$x	SEGMENT
__ehfuncinfo$??0exception@std@@QAE@ABV01@@Z DD 019930522H
	DD	00H
	DD	00H
	DD	2 DUP(00H)
	DD	2 DUP(00H)
	DD	00H
	DD	04H
xdata$x	ENDS
CRT$XCU	SEGMENT
?CspTransferList$initializer$@@3P6AXXZA DD FLAT:??__ECspTransferList@@YAXXZ ; CspTransferList$initializer$
CRT$XCU	ENDS
CRT$XCU	SEGMENT
?CspColorprimList$initializer$@@3P6AXXZA DD FLAT:??__ECspColorprimList@@YAXXZ ; CspColorprimList$initializer$
CRT$XCU	ENDS
; Function compile flags: /Odtp /RTCsu
; File C:\Program Files (x86)\Microsoft Visual Studio\2019\Community\VC\Tools\MSVC\14.23.28105\include\xmemory
;	COMDAT ??$construct@_WAB_W@?$_Default_allocator_traits@V?$allocator@_W@std@@@std@@SAXAAV?$allocator@_W@1@QA_WAB_W@Z
_TEXT	SEGMENT
$T1 = -4						; size = 4
___formal$ = 8						; size = 4
__Ptr$ = 12						; size = 4
_<_Args_0>$ = 16					; size = 4
??$construct@_WAB_W@?$_Default_allocator_traits@V?$allocator@_W@std@@@std@@SAXAAV?$allocator@_W@1@QA_WAB_W@Z PROC ; std::_Default_allocator_traits<std::allocator<wchar_t> >::construct<wchar_t,wchar_t const &>, COMDAT

; 757  :     static void construct(_Alloc&, _Objty* const _Ptr, _Types&&... _Args) {

  00000	55		 push	 ebp
  00001	8b ec		 mov	 ebp, esp
  00003	51		 push	 ecx
  00004	c7 45 fc cc cc
	cc cc		 mov	 DWORD PTR [ebp-4], -858993460 ; ccccccccH

; 758  :         ::new (const_cast<void*>(static_cast<const volatile void*>(_Ptr))) _Objty(_STD forward<_Types>(_Args)...);

  0000b	8b 45 0c	 mov	 eax, DWORD PTR __Ptr$[ebp]
  0000e	50		 push	 eax
  0000f	6a 02		 push	 2
  00011	e8 00 00 00 00	 call	 ??2@YAPAXIPAX@Z		; operator new
  00016	83 c4 08	 add	 esp, 8
  00019	89 45 fc	 mov	 DWORD PTR $T1[ebp], eax
  0001c	8b 4d 10	 mov	 ecx, DWORD PTR _<_Args_0>$[ebp]
  0001f	51		 push	 ecx
  00020	e8 00 00 00 00	 call	 ??$forward@AB_W@std@@YAAB_WAB_W@Z ; std::forward<wchar_t const &>
  00025	83 c4 04	 add	 esp, 4
  00028	8b 55 fc	 mov	 edx, DWORD PTR $T1[ebp]
  0002b	66 8b 00	 mov	 ax, WORD PTR [eax]
  0002e	66 89 02	 mov	 WORD PTR [edx], ax

; 759  :     }

  00031	83 c4 04	 add	 esp, 4
  00034	3b ec		 cmp	 ebp, esp
  00036	e8 00 00 00 00	 call	 __RTC_CheckEsp
  0003b	8b e5		 mov	 esp, ebp
  0003d	5d		 pop	 ebp
  0003e	c3		 ret	 0
??$construct@_WAB_W@?$_Default_allocator_traits@V?$allocator@_W@std@@@std@@SAXAAV?$allocator@_W@1@QA_WAB_W@Z ENDP ; std::_Default_allocator_traits<std::allocator<wchar_t> >::construct<wchar_t,wchar_t const &>
_TEXT	ENDS
; Function compile flags: /Odtp /RTCsu
; File C:\Program Files (x86)\Microsoft Visual Studio\2019\Community\VC\Tools\MSVC\14.23.28105\include\type_traits
;	COMDAT ??$forward@AB_W@std@@YAAB_WAB_W@Z
_TEXT	SEGMENT
__Arg$ = 8						; size = 4
??$forward@AB_W@std@@YAAB_WAB_W@Z PROC			; std::forward<wchar_t const &>, COMDAT

; 1420 :     remove_reference_t<_Ty>& _Arg) noexcept { // forward an lvalue as either an lvalue or an rvalue

  00000	55		 push	 ebp
  00001	8b ec		 mov	 ebp, esp

; 1421 :     return static_cast<_Ty&&>(_Arg);

  00003	8b 45 08	 mov	 eax, DWORD PTR __Arg$[ebp]

; 1422 : }

  00006	5d		 pop	 ebp
  00007	c3		 ret	 0
??$forward@AB_W@std@@YAAB_WAB_W@Z ENDP			; std::forward<wchar_t const &>
_TEXT	ENDS
; Function compile flags: /Odtp /RTCsu
; File C:\Program Files (x86)\Microsoft Visual Studio\2019\Community\VC\Tools\MSVC\14.23.28105\include\xutility
;	COMDAT ??$_Copy_memmove@PBQBDPAPBD@std@@YAPAPBDPBQBD0PAPBD@Z
_TEXT	SEGMENT
__Count$ = -16						; size = 4
__Dest_ch$ = -12					; size = 4
__Last_ch$ = -8						; size = 4
__First_ch$ = -4					; size = 4
__First$ = 8						; size = 4
__Last$ = 12						; size = 4
__Dest$ = 16						; size = 4
??$_Copy_memmove@PBQBDPAPBD@std@@YAPAPBDPBQBD0PAPBD@Z PROC ; std::_Copy_memmove<char const * const *,char const * *>, COMDAT

; 1739 : _OutIt _Copy_memmove(_InIt _First, _InIt _Last, _OutIt _Dest) { // implement copy-like function as memmove

  00000	55		 push	 ebp
  00001	8b ec		 mov	 ebp, esp
  00003	83 ec 10	 sub	 esp, 16			; 00000010H
  00006	b8 cc cc cc cc	 mov	 eax, -858993460		; ccccccccH
  0000b	89 45 f0	 mov	 DWORD PTR [ebp-16], eax
  0000e	89 45 f4	 mov	 DWORD PTR [ebp-12], eax
  00011	89 45 f8	 mov	 DWORD PTR [ebp-8], eax
  00014	89 45 fc	 mov	 DWORD PTR [ebp-4], eax

; 1740 :     const char* const _First_ch = const_cast<const char*>(reinterpret_cast<const volatile char*>(_First));

  00017	8b 45 08	 mov	 eax, DWORD PTR __First$[ebp]
  0001a	89 45 fc	 mov	 DWORD PTR __First_ch$[ebp], eax

; 1741 :     const char* const _Last_ch  = const_cast<const char*>(reinterpret_cast<const volatile char*>(_Last));

  0001d	8b 4d 0c	 mov	 ecx, DWORD PTR __Last$[ebp]
  00020	89 4d f8	 mov	 DWORD PTR __Last_ch$[ebp], ecx

; 1742 :     char* const _Dest_ch        = const_cast<char*>(reinterpret_cast<volatile char*>(_Dest));

  00023	8b 55 10	 mov	 edx, DWORD PTR __Dest$[ebp]
  00026	89 55 f4	 mov	 DWORD PTR __Dest_ch$[ebp], edx

; 1743 :     const auto _Count           = static_cast<size_t>(_Last_ch - _First_ch);

  00029	8b 45 f8	 mov	 eax, DWORD PTR __Last_ch$[ebp]
  0002c	2b 45 fc	 sub	 eax, DWORD PTR __First_ch$[ebp]
  0002f	89 45 f0	 mov	 DWORD PTR __Count$[ebp], eax

; 1744 :     _CSTD memmove(_Dest_ch, _First_ch, _Count);

  00032	8b 4d f0	 mov	 ecx, DWORD PTR __Count$[ebp]
  00035	51		 push	 ecx
  00036	8b 55 fc	 mov	 edx, DWORD PTR __First_ch$[ebp]
  00039	52		 push	 edx
  0003a	8b 45 f4	 mov	 eax, DWORD PTR __Dest_ch$[ebp]
  0003d	50		 push	 eax
  0003e	e8 00 00 00 00	 call	 _memmove
  00043	83 c4 0c	 add	 esp, 12			; 0000000cH

; 1745 :     return reinterpret_cast<_OutIt>(_Dest_ch + _Count);

  00046	8b 45 f4	 mov	 eax, DWORD PTR __Dest_ch$[ebp]
  00049	03 45 f0	 add	 eax, DWORD PTR __Count$[ebp]

; 1746 : }

  0004c	83 c4 10	 add	 esp, 16			; 00000010H
  0004f	3b ec		 cmp	 ebp, esp
  00051	e8 00 00 00 00	 call	 __RTC_CheckEsp
  00056	8b e5		 mov	 esp, ebp
  00058	5d		 pop	 ebp
  00059	c3		 ret	 0
??$_Copy_memmove@PBQBDPAPBD@std@@YAPAPBDPBQBD0PAPBD@Z ENDP ; std::_Copy_memmove<char const * const *,char const * *>
_TEXT	ENDS
; Function compile flags: /Odtp /RTCsu
; File C:\Program Files (x86)\Microsoft Visual Studio\2019\Community\VC\Tools\MSVC\14.23.28105\include\xstddef
;	COMDAT ??$_Unfancy@PBD@std@@YAPAPBDPAPBD@Z
_TEXT	SEGMENT
__Ptr$ = 8						; size = 4
??$_Unfancy@PBD@std@@YAPAPBDPAPBD@Z PROC		; std::_Unfancy<char const *>, COMDAT

; 293  : _Ty* _Unfancy(_Ty* _Ptr) { // do nothing for plain pointers

  00000	55		 push	 ebp
  00001	8b ec		 mov	 ebp, esp

; 294  :     return _Ptr;

  00003	8b 45 08	 mov	 eax, DWORD PTR __Ptr$[ebp]

; 295  : }

  00006	5d		 pop	 ebp
  00007	c3		 ret	 0
??$_Unfancy@PBD@std@@YAPAPBDPAPBD@Z ENDP		; std::_Unfancy<char const *>
_TEXT	ENDS
; Function compile flags: /Odtp /RTCsu
; File C:\Program Files (x86)\Microsoft Visual Studio\2019\Community\VC\Tools\MSVC\14.23.28105\include\xutility
;	COMDAT ??$_Get_unwrapped@QBD@std@@YAPBQBDQBQBD@Z
_TEXT	SEGMENT
__Ptr$ = 8						; size = 4
??$_Get_unwrapped@QBD@std@@YAPBQBDQBQBD@Z PROC		; std::_Get_unwrapped<char const * const>, COMDAT

; 275  : _NODISCARD constexpr _Ty* _Get_unwrapped(_Ty* const _Ptr) { // special case already-unwrapped pointers

  00000	55		 push	 ebp
  00001	8b ec		 mov	 ebp, esp

; 276  :     return _Ptr;

  00003	8b 45 08	 mov	 eax, DWORD PTR __Ptr$[ebp]

; 277  : }

  00006	5d		 pop	 ebp
  00007	c3		 ret	 0
??$_Get_unwrapped@QBD@std@@YAPBQBDQBQBD@Z ENDP		; std::_Get_unwrapped<char const * const>
_TEXT	ENDS
; Function compile flags: /Odtp /RTCsu
; File C:\Program Files (x86)\Microsoft Visual Studio\2019\Community\VC\Tools\MSVC\14.23.28105\include\xmemory
;	COMDAT ??$_Emplace_back@AB_W@?$_Uninitialized_backout_al@V?$allocator@_W@std@@@std@@QAEXAB_W@Z
_TEXT	SEGMENT
_this$ = -4						; size = 4
_<_Vals_0>$ = 8						; size = 4
??$_Emplace_back@AB_W@?$_Uninitialized_backout_al@V?$allocator@_W@std@@@std@@QAEXAB_W@Z PROC ; std::_Uninitialized_backout_al<std::allocator<wchar_t> >::_Emplace_back<wchar_t const &>, COMDAT
; _this$ = ecx

; 1580 :     void _Emplace_back(_Types&&... _Vals) { // construct a new element at *_Last and increment

  00000	55		 push	 ebp
  00001	8b ec		 mov	 ebp, esp
  00003	51		 push	 ecx
  00004	c7 45 fc cc cc
	cc cc		 mov	 DWORD PTR [ebp-4], -858993460 ; ccccccccH
  0000b	89 4d fc	 mov	 DWORD PTR _this$[ebp], ecx

; 1581 :         allocator_traits<_Alloc>::construct(_Al, _Unfancy(_Last), _STD forward<_Types>(_Vals)...);

  0000e	8b 45 08	 mov	 eax, DWORD PTR _<_Vals_0>$[ebp]
  00011	50		 push	 eax
  00012	e8 00 00 00 00	 call	 ??$forward@AB_W@std@@YAAB_WAB_W@Z ; std::forward<wchar_t const &>
  00017	83 c4 04	 add	 esp, 4
  0001a	50		 push	 eax
  0001b	8b 4d fc	 mov	 ecx, DWORD PTR _this$[ebp]
  0001e	8b 51 04	 mov	 edx, DWORD PTR [ecx+4]
  00021	52		 push	 edx
  00022	e8 00 00 00 00	 call	 ??$_Unfancy@_W@std@@YAPA_WPA_W@Z ; std::_Unfancy<wchar_t>
  00027	83 c4 04	 add	 esp, 4
  0002a	50		 push	 eax
  0002b	8b 45 fc	 mov	 eax, DWORD PTR _this$[ebp]
  0002e	8b 48 08	 mov	 ecx, DWORD PTR [eax+8]
  00031	51		 push	 ecx
  00032	e8 00 00 00 00	 call	 ??$construct@_WAB_W@?$_Default_allocator_traits@V?$allocator@_W@std@@@std@@SAXAAV?$allocator@_W@1@QA_WAB_W@Z ; std::_Default_allocator_traits<std::allocator<wchar_t> >::construct<wchar_t,wchar_t const &>
  00037	83 c4 0c	 add	 esp, 12			; 0000000cH

; 1582 :         ++_Last;

  0003a	8b 55 fc	 mov	 edx, DWORD PTR _this$[ebp]
  0003d	8b 42 04	 mov	 eax, DWORD PTR [edx+4]
  00040	83 c0 02	 add	 eax, 2
  00043	8b 4d fc	 mov	 ecx, DWORD PTR _this$[ebp]
  00046	89 41 04	 mov	 DWORD PTR [ecx+4], eax

; 1583 :     }

  00049	83 c4 04	 add	 esp, 4
  0004c	3b ec		 cmp	 ebp, esp
  0004e	e8 00 00 00 00	 call	 __RTC_CheckEsp
  00053	8b e5		 mov	 esp, ebp
  00055	5d		 pop	 ebp
  00056	c2 04 00	 ret	 4
??$_Emplace_back@AB_W@?$_Uninitialized_backout_al@V?$allocator@_W@std@@@std@@QAEXAB_W@Z ENDP ; std::_Uninitialized_backout_al<std::allocator<wchar_t> >::_Emplace_back<wchar_t const &>
_TEXT	ENDS
; Function compile flags: /Odtp /RTCsu
; File C:\Program Files (x86)\Microsoft Visual Studio\2019\Community\VC\Tools\MSVC\14.23.28105\include\xmemory
;	COMDAT ?_Release@?$_Uninitialized_backout_al@V?$allocator@_W@std@@@std@@QAEPA_WXZ
_TEXT	SEGMENT
_this$ = -4						; size = 4
?_Release@?$_Uninitialized_backout_al@V?$allocator@_W@std@@@std@@QAEPA_WXZ PROC ; std::_Uninitialized_backout_al<std::allocator<wchar_t> >::_Release, COMDAT
; _this$ = ecx

; 1585 :     pointer _Release() { // suppress any exception handling backout and return _Last

  00000	55		 push	 ebp
  00001	8b ec		 mov	 ebp, esp
  00003	51		 push	 ecx
  00004	c7 45 fc cc cc
	cc cc		 mov	 DWORD PTR [ebp-4], -858993460 ; ccccccccH
  0000b	89 4d fc	 mov	 DWORD PTR _this$[ebp], ecx

; 1586 :         _First = _Last;

  0000e	8b 45 fc	 mov	 eax, DWORD PTR _this$[ebp]
  00011	8b 4d fc	 mov	 ecx, DWORD PTR _this$[ebp]
  00014	8b 51 04	 mov	 edx, DWORD PTR [ecx+4]
  00017	89 10		 mov	 DWORD PTR [eax], edx

; 1587 :         return _Last;

  00019	8b 45 fc	 mov	 eax, DWORD PTR _this$[ebp]
  0001c	8b 40 04	 mov	 eax, DWORD PTR [eax+4]

; 1588 :     }

  0001f	8b e5		 mov	 esp, ebp
  00021	5d		 pop	 ebp
  00022	c3		 ret	 0
?_Release@?$_Uninitialized_backout_al@V?$allocator@_W@std@@@std@@QAEPA_WXZ ENDP ; std::_Uninitialized_backout_al<std::allocator<wchar_t> >::_Release
_TEXT	ENDS
; Function compile flags: /Odtp /RTCsu
; File C:\Program Files (x86)\Microsoft Visual Studio\2019\Community\VC\Tools\MSVC\14.23.28105\include\xmemory
;	COMDAT ??1?$_Uninitialized_backout_al@V?$allocator@_W@std@@@std@@QAE@XZ
_TEXT	SEGMENT
_this$ = -4						; size = 4
??1?$_Uninitialized_backout_al@V?$allocator@_W@std@@@std@@QAE@XZ PROC ; std::_Uninitialized_backout_al<std::allocator<wchar_t> >::~_Uninitialized_backout_al<std::allocator<wchar_t> >, COMDAT
; _this$ = ecx

; 1575 :     ~_Uninitialized_backout_al() {

  00000	55		 push	 ebp
  00001	8b ec		 mov	 ebp, esp
  00003	51		 push	 ecx
  00004	c7 45 fc cc cc
	cc cc		 mov	 DWORD PTR [ebp-4], -858993460 ; ccccccccH
  0000b	89 4d fc	 mov	 DWORD PTR _this$[ebp], ecx

; 1576 :         _Destroy_range(_First, _Last, _Al);

  0000e	8b 45 fc	 mov	 eax, DWORD PTR _this$[ebp]
  00011	8b 48 08	 mov	 ecx, DWORD PTR [eax+8]
  00014	51		 push	 ecx
  00015	8b 55 fc	 mov	 edx, DWORD PTR _this$[ebp]
  00018	8b 42 04	 mov	 eax, DWORD PTR [edx+4]
  0001b	50		 push	 eax
  0001c	8b 4d fc	 mov	 ecx, DWORD PTR _this$[ebp]
  0001f	8b 11		 mov	 edx, DWORD PTR [ecx]
  00021	52		 push	 edx
  00022	e8 00 00 00 00	 call	 ??$_Destroy_range@V?$allocator@_W@std@@@std@@YAXPA_WQA_WAAV?$allocator@_W@0@@Z ; std::_Destroy_range<std::allocator<wchar_t> >
  00027	83 c4 0c	 add	 esp, 12			; 0000000cH

; 1577 :     }

  0002a	83 c4 04	 add	 esp, 4
  0002d	3b ec		 cmp	 ebp, esp
  0002f	e8 00 00 00 00	 call	 __RTC_CheckEsp
  00034	8b e5		 mov	 esp, ebp
  00036	5d		 pop	 ebp
  00037	c3		 ret	 0
??1?$_Uninitialized_backout_al@V?$allocator@_W@std@@@std@@QAE@XZ ENDP ; std::_Uninitialized_backout_al<std::allocator<wchar_t> >::~_Uninitialized_backout_al<std::allocator<wchar_t> >
_TEXT	ENDS
; Function compile flags: /Odtp /RTCsu
; File C:\Program Files (x86)\Microsoft Visual Studio\2019\Community\VC\Tools\MSVC\14.23.28105\include\xmemory
;	COMDAT ??0?$_Uninitialized_backout_al@V?$allocator@_W@std@@@std@@QAE@PA_WAAV?$allocator@_W@1@@Z
_TEXT	SEGMENT
_this$ = -4						; size = 4
__Dest$ = 8						; size = 4
__Al_$ = 12						; size = 4
??0?$_Uninitialized_backout_al@V?$allocator@_W@std@@@std@@QAE@PA_WAAV?$allocator@_W@1@@Z PROC ; std::_Uninitialized_backout_al<std::allocator<wchar_t> >::_Uninitialized_backout_al<std::allocator<wchar_t> >, COMDAT
; _this$ = ecx

; 1570 :     _Uninitialized_backout_al(pointer _Dest, _Alloc& _Al_) : _First(_Dest), _Last(_Dest), _Al(_Al_) {}

  00000	55		 push	 ebp
  00001	8b ec		 mov	 ebp, esp
  00003	51		 push	 ecx
  00004	c7 45 fc cc cc
	cc cc		 mov	 DWORD PTR [ebp-4], -858993460 ; ccccccccH
  0000b	89 4d fc	 mov	 DWORD PTR _this$[ebp], ecx
  0000e	8b 45 fc	 mov	 eax, DWORD PTR _this$[ebp]
  00011	8b 4d 08	 mov	 ecx, DWORD PTR __Dest$[ebp]
  00014	89 08		 mov	 DWORD PTR [eax], ecx
  00016	8b 55 fc	 mov	 edx, DWORD PTR _this$[ebp]
  00019	8b 45 08	 mov	 eax, DWORD PTR __Dest$[ebp]
  0001c	89 42 04	 mov	 DWORD PTR [edx+4], eax
  0001f	8b 4d fc	 mov	 ecx, DWORD PTR _this$[ebp]
  00022	8b 55 0c	 mov	 edx, DWORD PTR __Al_$[ebp]
  00025	89 51 08	 mov	 DWORD PTR [ecx+8], edx
  00028	8b 45 fc	 mov	 eax, DWORD PTR _this$[ebp]
  0002b	8b e5		 mov	 esp, ebp
  0002d	5d		 pop	 ebp
  0002e	c2 08 00	 ret	 8
??0?$_Uninitialized_backout_al@V?$allocator@_W@std@@@std@@QAE@PA_WAAV?$allocator@_W@1@@Z ENDP ; std::_Uninitialized_backout_al<std::allocator<wchar_t> >::_Uninitialized_backout_al<std::allocator<wchar_t> >
_TEXT	ENDS
; Function compile flags: /Odtp /RTCsu
; File C:\Program Files (x86)\Microsoft Visual Studio\2019\Community\VC\Tools\MSVC\14.23.28105\include\type_traits
;	COMDAT ??$forward@ABQA_W@std@@YAABQA_WABQA_W@Z
_TEXT	SEGMENT
__Arg$ = 8						; size = 4
??$forward@ABQA_W@std@@YAABQA_WABQA_W@Z PROC		; std::forward<wchar_t * const &>, COMDAT

; 1420 :     remove_reference_t<_Ty>& _Arg) noexcept { // forward an lvalue as either an lvalue or an rvalue

  00000	55		 push	 ebp
  00001	8b ec		 mov	 ebp, esp

; 1421 :     return static_cast<_Ty&&>(_Arg);

  00003	8b 45 08	 mov	 eax, DWORD PTR __Arg$[ebp]

; 1422 : }

  00006	5d		 pop	 ebp
  00007	c3		 ret	 0
??$forward@ABQA_W@std@@YAABQA_WABQA_W@Z ENDP		; std::forward<wchar_t * const &>
_TEXT	ENDS
; Function compile flags: /Odtp /RTCsu
; File C:\Program Files (x86)\Microsoft Visual Studio\2019\Community\VC\Tools\MSVC\14.23.28105\include\xstddef
;	COMDAT ??$addressof@PA_W@std@@YAPAPA_WAAPA_W@Z
_TEXT	SEGMENT
__Val$ = 8						; size = 4
??$addressof@PA_W@std@@YAPAPA_WAAPA_W@Z PROC		; std::addressof<wchar_t *>, COMDAT

; 279  : _NODISCARD constexpr _Ty* addressof(_Ty& _Val) noexcept { // return address of _Val

  00000	55		 push	 ebp
  00001	8b ec		 mov	 ebp, esp

; 280  :     return __builtin_addressof(_Val);

  00003	8b 45 08	 mov	 eax, DWORD PTR __Val$[ebp]

; 281  : }

  00006	5d		 pop	 ebp
  00007	c3		 ret	 0
??$addressof@PA_W@std@@YAPAPA_WAAPA_W@Z ENDP		; std::addressof<wchar_t *>
_TEXT	ENDS
; Function compile flags: /Odtp /RTCsu
; File C:\Program Files (x86)\Microsoft Visual Studio\2019\Community\VC\Tools\MSVC\14.23.28105\include\xmemory
;	COMDAT ??$_Uninitialized_copy@PBQBDV?$allocator@PBD@std@@@std@@YAPAPBDQBQBD0PAPBDAAV?$allocator@PBD@0@@Z
_TEXT	SEGMENT
__ULast$ = -8						; size = 4
__UFirst$ = -4						; size = 4
__First$ = 8						; size = 4
__Last$ = 12						; size = 4
__Dest$ = 16						; size = 4
__Al$ = 20						; size = 4
??$_Uninitialized_copy@PBQBDV?$allocator@PBD@std@@@std@@YAPAPBDQBQBD0PAPBDAAV?$allocator@PBD@0@@Z PROC ; std::_Uninitialized_copy<char const * const *,std::allocator<char const *> >, COMDAT

; 1600 :     const _InIt _First, const _InIt _Last, _Alloc_ptr_t<_Alloc> _Dest, _Alloc& _Al) {

  00000	55		 push	 ebp
  00001	8b ec		 mov	 ebp, esp
  00003	83 ec 08	 sub	 esp, 8
  00006	c7 45 f8 cc cc
	cc cc		 mov	 DWORD PTR [ebp-8], -858993460 ; ccccccccH
  0000d	c7 45 fc cc cc
	cc cc		 mov	 DWORD PTR [ebp-4], -858993460 ; ccccccccH

; 1601 :     // copy [_First, _Last) to raw _Dest, using _Al
; 1602 :     // note: only called internally from elsewhere in the STL
; 1603 :     using _Ptrval = typename _Alloc::value_type*;
; 1604 : 
; 1605 :     auto _UFirst      = _Get_unwrapped(_First);

  00014	8b 45 08	 mov	 eax, DWORD PTR __First$[ebp]
  00017	50		 push	 eax
  00018	e8 00 00 00 00	 call	 ??$_Get_unwrapped@QBD@std@@YAPBQBDQBQBD@Z ; std::_Get_unwrapped<char const * const>
  0001d	83 c4 04	 add	 esp, 4
  00020	89 45 fc	 mov	 DWORD PTR __UFirst$[ebp], eax

; 1606 :     const auto _ULast = _Get_unwrapped(_Last);

  00023	8b 4d 0c	 mov	 ecx, DWORD PTR __Last$[ebp]
  00026	51		 push	 ecx
  00027	e8 00 00 00 00	 call	 ??$_Get_unwrapped@QBD@std@@YAPBQBDQBQBD@Z ; std::_Get_unwrapped<char const * const>
  0002c	83 c4 04	 add	 esp, 4
  0002f	89 45 f8	 mov	 DWORD PTR __ULast$[ebp], eax

; 1607 : 
; 1608 :     if constexpr (conjunction_v<bool_constant<_Ptr_copy_cat<decltype(_UFirst), _Ptrval>::_Really_trivial>,
; 1609 :                       _Uses_default_construct<_Alloc, _Ptrval, decltype(*_UFirst)>>) {
; 1610 :         _Copy_memmove(_UFirst, _ULast, _Unfancy(_Dest));

  00032	8b 55 10	 mov	 edx, DWORD PTR __Dest$[ebp]
  00035	52		 push	 edx
  00036	e8 00 00 00 00	 call	 ??$_Unfancy@PBD@std@@YAPAPBDPAPBD@Z ; std::_Unfancy<char const *>
  0003b	83 c4 04	 add	 esp, 4
  0003e	50		 push	 eax
  0003f	8b 45 f8	 mov	 eax, DWORD PTR __ULast$[ebp]
  00042	50		 push	 eax
  00043	8b 4d fc	 mov	 ecx, DWORD PTR __UFirst$[ebp]
  00046	51		 push	 ecx
  00047	e8 00 00 00 00	 call	 ??$_Copy_memmove@PBQBDPAPBD@std@@YAPAPBDPBQBD0PAPBD@Z ; std::_Copy_memmove<char const * const *,char const * *>
  0004c	83 c4 0c	 add	 esp, 12			; 0000000cH

; 1611 :         _Dest += _ULast - _UFirst;

  0004f	8b 55 f8	 mov	 edx, DWORD PTR __ULast$[ebp]
  00052	2b 55 fc	 sub	 edx, DWORD PTR __UFirst$[ebp]
  00055	c1 fa 02	 sar	 edx, 2
  00058	8b 45 10	 mov	 eax, DWORD PTR __Dest$[ebp]
  0005b	8d 0c 90	 lea	 ecx, DWORD PTR [eax+edx*4]
  0005e	89 4d 10	 mov	 DWORD PTR __Dest$[ebp], ecx

; 1612 :         (void) _Al;
; 1613 :     } else {
; 1614 :         _Uninitialized_backout_al<_Alloc> _Backout{_Dest, _Al};
; 1615 :         for (; _UFirst != _ULast; ++_UFirst) {
; 1616 :             _Backout._Emplace_back(*_UFirst);
; 1617 :         }
; 1618 : 
; 1619 :         _Dest = _Backout._Release();
; 1620 :     }
; 1621 : 
; 1622 :     return _Dest;

  00061	8b 45 10	 mov	 eax, DWORD PTR __Dest$[ebp]

; 1623 : }

  00064	83 c4 08	 add	 esp, 8
  00067	3b ec		 cmp	 ebp, esp
  00069	e8 00 00 00 00	 call	 __RTC_CheckEsp
  0006e	8b e5		 mov	 esp, ebp
  00070	5d		 pop	 ebp
  00071	c3		 ret	 0
??$_Uninitialized_copy@PBQBDV?$allocator@PBD@std@@@std@@YAPAPBDQBQBD0PAPBDAAV?$allocator@PBD@0@@Z ENDP ; std::_Uninitialized_copy<char const * const *,std::allocator<char const *> >
_TEXT	ENDS
; Function compile flags: /Odtp /RTCsu
; File C:\Program Files (x86)\Microsoft Visual Studio\2019\Community\VC\Tools\MSVC\14.23.28105\include\xmemory
;	COMDAT ?deallocate@?$_Default_allocator_traits@V?$allocator@U_Container_proxy@std@@@std@@@std@@SAXAAV?$allocator@U_Container_proxy@std@@@2@QAU_Container_proxy@2@I@Z
_TEXT	SEGMENT
___formal$ = 8						; size = 4
__Ptr$ = 12						; size = 4
__Count$ = 16						; size = 4
?deallocate@?$_Default_allocator_traits@V?$allocator@U_Container_proxy@std@@@std@@@std@@SAXAAV?$allocator@U_Container_proxy@std@@@2@QAU_Container_proxy@2@I@Z PROC ; std::_Default_allocator_traits<std::allocator<std::_Container_proxy> >::deallocate, COMDAT

; 751  :     static void deallocate(_Alloc&, const pointer _Ptr, const size_type _Count) {

  00000	55		 push	 ebp
  00001	8b ec		 mov	 ebp, esp

; 752  :         // no overflow check on the following multiply; we assume _Allocate did that check
; 753  :         _Deallocate<_New_alignof<value_type>>(_Ptr, sizeof(value_type) * _Count);

  00003	8b 45 10	 mov	 eax, DWORD PTR __Count$[ebp]
  00006	c1 e0 03	 shl	 eax, 3
  00009	50		 push	 eax
  0000a	8b 4d 0c	 mov	 ecx, DWORD PTR __Ptr$[ebp]
  0000d	51		 push	 ecx
  0000e	e8 00 00 00 00	 call	 ??$_Deallocate@$07$0A@@std@@YAXPAXI@Z ; std::_Deallocate<8,0>
  00013	83 c4 08	 add	 esp, 8

; 754  :     }

  00016	3b ec		 cmp	 ebp, esp
  00018	e8 00 00 00 00	 call	 __RTC_CheckEsp
  0001d	5d		 pop	 ebp
  0001e	c3		 ret	 0
?deallocate@?$_Default_allocator_traits@V?$allocator@U_Container_proxy@std@@@std@@@std@@SAXAAV?$allocator@U_Container_proxy@std@@@2@QAU_Container_proxy@2@I@Z ENDP ; std::_Default_allocator_traits<std::allocator<std::_Container_proxy> >::deallocate
_TEXT	ENDS
; Function compile flags: /Odtp /RTCsu
; File C:\Program Files (x86)\Microsoft Visual Studio\2019\Community\VC\Tools\MSVC\14.23.28105\include\xutility
;	COMDAT ??$_Seek_wrapped@V?$_Array_iterator@D$0EAA@@std@@PAD@std@@YAXAAV?$_Array_iterator@D$0EAA@@0@ABQAD@Z
_TEXT	SEGMENT
__It$ = 8						; size = 4
__UIt$ = 12						; size = 4
??$_Seek_wrapped@V?$_Array_iterator@D$0EAA@@std@@PAD@std@@YAXAAV?$_Array_iterator@D$0EAA@@0@ABQAD@Z PROC ; std::_Seek_wrapped<std::_Array_iterator<char,1024>,char *>, COMDAT

; 415  : constexpr void _Seek_wrapped(_Iter& _It, const _UIter& _UIt) {

  00000	55		 push	 ebp
  00001	8b ec		 mov	 ebp, esp

; 416  :     if constexpr (_Wrapped_seekable_v<_Iter, _UIter>) {
; 417  :         _It._Seek_to(_UIt);

  00003	8b 45 0c	 mov	 eax, DWORD PTR __UIt$[ebp]
  00006	8b 08		 mov	 ecx, DWORD PTR [eax]
  00008	51		 push	 ecx
  00009	8b 4d 08	 mov	 ecx, DWORD PTR __It$[ebp]
  0000c	e8 00 00 00 00	 call	 ?_Seek_to@?$_Array_const_iterator@D$0EAA@@std@@QAEXPBD@Z ; std::_Array_const_iterator<char,1024>::_Seek_to

; 418  :     } else {
; 419  :         _It = _UIt;
; 420  :     }
; 421  : }

  00011	3b ec		 cmp	 ebp, esp
  00013	e8 00 00 00 00	 call	 __RTC_CheckEsp
  00018	5d		 pop	 ebp
  00019	c3		 ret	 0
??$_Seek_wrapped@V?$_Array_iterator@D$0EAA@@std@@PAD@std@@YAXAAV?$_Array_iterator@D$0EAA@@0@ABQAD@Z ENDP ; std::_Seek_wrapped<std::_Array_iterator<char,1024>,char *>
_TEXT	ENDS
; Function compile flags: /Odtp /RTCsu
; File C:\Program Files (x86)\Microsoft Visual Studio\2019\Community\VC\Tools\MSVC\14.23.28105\include\xutility
;	COMDAT ??$_Get_unwrapped_n@V?$_Array_iterator@D$0EAA@@std@@H$0A@@std@@YAPADABV?$_Array_iterator@D$0EAA@@0@H@Z
_TEXT	SEGMENT
__COff$ = -4						; size = 4
__It$ = 8						; size = 4
__Off$ = 12						; size = 4
??$_Get_unwrapped_n@V?$_Array_iterator@D$0EAA@@std@@H$0A@@std@@YAPADABV?$_Array_iterator@D$0EAA@@0@H@Z PROC ; std::_Get_unwrapped_n<std::_Array_iterator<char,1024>,int,0>, COMDAT

; 349  : _NODISCARD constexpr auto _Get_unwrapped_n(const _Iter& _It, const _Diff _Off) {

  00000	55		 push	 ebp
  00001	8b ec		 mov	 ebp, esp
  00003	51		 push	 ecx
  00004	56		 push	 esi
  00005	c7 45 fc cc cc
	cc cc		 mov	 DWORD PTR [ebp-4], -858993460 ; ccccccccH

; 350  :     // ask an iterator to assert that the iterator moved _Off positions is valid, and unwrap
; 351  :     using _IDiff     = _Iter_diff_t<_Iter>;
; 352  :     using _CDiff     = common_type_t<_Diff, _IDiff>;
; 353  :     const auto _COff = static_cast<_CDiff>(_Off);

  0000c	8b 45 0c	 mov	 eax, DWORD PTR __Off$[ebp]
  0000f	89 45 fc	 mov	 DWORD PTR __COff$[ebp], eax
$LN4@Get_unwrap:

; 354  : 
; 355  :     _STL_ASSERT(_COff <= static_cast<_CDiff>(_Max_possible_v<_IDiff>)

  00012	81 7d fc ff ff
	ff 7f		 cmp	 DWORD PTR __COff$[ebp], 2147483647 ; 7fffffffH
  00019	7f 0f		 jg	 SHORT $LN7@Get_unwrap
  0001b	33 c9		 xor	 ecx, ecx
  0001d	75 09		 jne	 SHORT $LN10@Get_unwrap
  0001f	81 7d fc 00 00
	00 80		 cmp	 DWORD PTR __COff$[ebp], -2147483648 ; 80000000H
  00026	7c 02		 jl	 SHORT $LN7@Get_unwrap
$LN10@Get_unwrap:
  00028	eb 5c		 jmp	 SHORT $LN2@Get_unwrap
$LN7@Get_unwrap:
  0002a	8b f4		 mov	 esi, esp
  0002c	68 00 00 00 00	 push	 OFFSET ??_C@_0BB@KBEKGHFK@integer?5overflow@
  00031	68 00 00 00 00	 push	 OFFSET ??_C@_02DKCKIIND@?$CFs@
  00036	6a 00		 push	 0
  00038	68 65 01 00 00	 push	 357			; 00000165H
  0003d	68 00 00 00 00	 push	 OFFSET ??_C@_0GJ@GDKIGMBO@C?3?2Program?5Files?5?$CIx86?$CJ?2Microsof@
  00042	6a 02		 push	 2
  00044	ff 15 00 00 00
	00		 call	 DWORD PTR __imp___CrtDbgReport
  0004a	83 c4 18	 add	 esp, 24			; 00000018H
  0004d	3b f4		 cmp	 esi, esp
  0004f	e8 00 00 00 00	 call	 __RTC_CheckEsp
  00054	83 f8 01	 cmp	 eax, 1
  00057	75 01		 jne	 SHORT $LN12@Get_unwrap
  00059	cc		 int	 3
$LN12@Get_unwrap:
  0005a	8b f4		 mov	 esi, esp
  0005c	6a 00		 push	 0
  0005e	68 65 01 00 00	 push	 357			; 00000165H
  00063	68 00 00 00 00	 push	 OFFSET ??_C@_1NC@OIIHGCJJ@?$AAC?$AA?3?$AA?2?$AAP?$AAr?$AAo?$AAg?$AAr?$AAa?$AAm?$AA?5?$AAF?$AAi?$AAl?$AAe@
  00068	68 00 00 00 00	 push	 OFFSET ??_C@_1CM@MJCLAPGA@?$AAs?$AAt?$AAd?$AA?3?$AA?3?$AA_?$AAG?$AAe?$AAt?$AA_?$AAu?$AAn?$AAw?$AAr?$AAa@
  0006d	68 00 00 00 00	 push	 OFFSET ??_C@_1CG@NMONALKO@?$AA?$CC?$AAi?$AAn?$AAt?$AAe?$AAg?$AAe?$AAr?$AA?5?$AAo?$AAv?$AAe?$AAr?$AAf?$AAl@
  00072	ff 15 00 00 00
	00		 call	 DWORD PTR __imp___invalid_parameter
  00078	83 c4 14	 add	 esp, 20			; 00000014H
  0007b	3b f4		 cmp	 esi, esp
  0007d	e8 00 00 00 00	 call	 __RTC_CheckEsp
  00082	33 c0		 xor	 eax, eax
  00084	75 a4		 jne	 SHORT $LN7@Get_unwrap
$LN2@Get_unwrap:
  00086	33 c9		 xor	 ecx, ecx
  00088	75 88		 jne	 SHORT $LN4@Get_unwrap

; 356  :                     && (is_unsigned_v<_Diff> || static_cast<_CDiff>(_Min_possible_v<_IDiff>) <= _COff),
; 357  :         "integer overflow");
; 358  :     (void) _COff;
; 359  : 
; 360  :     _It._Verify_offset(static_cast<_IDiff>(_Off));

  0008a	8b 55 0c	 mov	 edx, DWORD PTR __Off$[ebp]
  0008d	52		 push	 edx
  0008e	8b 4d 08	 mov	 ecx, DWORD PTR __It$[ebp]
  00091	e8 00 00 00 00	 call	 ?_Verify_offset@?$_Array_const_iterator@D$0EAA@@std@@QBEXH@Z ; std::_Array_const_iterator<char,1024>::_Verify_offset

; 361  :     return _It._Unwrapped();

  00096	8b 4d 08	 mov	 ecx, DWORD PTR __It$[ebp]
  00099	e8 00 00 00 00	 call	 ?_Unwrapped@?$_Array_iterator@D$0EAA@@std@@QBEPADXZ ; std::_Array_iterator<char,1024>::_Unwrapped

; 362  : }

  0009e	5e		 pop	 esi
  0009f	83 c4 04	 add	 esp, 4
  000a2	3b ec		 cmp	 ebp, esp
  000a4	e8 00 00 00 00	 call	 __RTC_CheckEsp
  000a9	8b e5		 mov	 esp, ebp
  000ab	5d		 pop	 ebp
  000ac	c3		 ret	 0
??$_Get_unwrapped_n@V?$_Array_iterator@D$0EAA@@std@@H$0A@@std@@YAPADABV?$_Array_iterator@D$0EAA@@0@H@Z ENDP ; std::_Get_unwrapped_n<std::_Array_iterator<char,1024>,int,0>
_TEXT	ENDS
; Function compile flags: /Odtp /RTCsu
; File C:\Program Files (x86)\Microsoft Visual Studio\2019\Community\VC\Tools\MSVC\14.23.28105\include\xutility
;	COMDAT ??$_Idl_distance@PADPAD@std@@YAHABQAD0@Z
_TEXT	SEGMENT
__First$ = 8						; size = 4
__Last$ = 12						; size = 4
??$_Idl_distance@PADPAD@std@@YAHABQAD0@Z PROC		; std::_Idl_distance<char *,char *>, COMDAT

; 483  : auto _Idl_distance(const _Iter& _First, const _Iter& _Last) {

  00000	55		 push	 ebp
  00001	8b ec		 mov	 ebp, esp

; 484  :     // tries to get the distance between _First and _Last if they are random-access iterators
; 485  :     if constexpr (_Is_random_iter_v<_Iter>) {
; 486  :         return static_cast<_Iter_diff_t<_Checked>>(_Last - _First);

  00003	8b 45 0c	 mov	 eax, DWORD PTR __Last$[ebp]
  00006	8b 4d 08	 mov	 ecx, DWORD PTR __First$[ebp]
  00009	8b 00		 mov	 eax, DWORD PTR [eax]
  0000b	2b 01		 sub	 eax, DWORD PTR [ecx]

; 487  :     } else {
; 488  :         (void) _First; // TRANSITION, VSO#486357
; 489  :         (void) _Last; // TRANSITION, VSO#486357
; 490  :         return _Distance_unknown{};
; 491  :     }
; 492  : }

  0000d	5d		 pop	 ebp
  0000e	c3		 ret	 0
??$_Idl_distance@PADPAD@std@@YAHABQAD0@Z ENDP		; std::_Idl_distance<char *,char *>
_TEXT	ENDS
; Function compile flags: /Odtp /RTCsu
; File C:\Program Files (x86)\Microsoft Visual Studio\2019\Community\VC\Tools\MSVC\14.23.28105\include\xutility
;	COMDAT ??$_Get_unwrapped@D@std@@YAPADQAD@Z
_TEXT	SEGMENT
__Ptr$ = 8						; size = 4
??$_Get_unwrapped@D@std@@YAPADQAD@Z PROC		; std::_Get_unwrapped<char>, COMDAT

; 275  : _NODISCARD constexpr _Ty* _Get_unwrapped(_Ty* const _Ptr) { // special case already-unwrapped pointers

  00000	55		 push	 ebp
  00001	8b ec		 mov	 ebp, esp

; 276  :     return _Ptr;

  00003	8b 45 08	 mov	 eax, DWORD PTR __Ptr$[ebp]

; 277  : }

  00006	5d		 pop	 ebp
  00007	c3		 ret	 0
??$_Get_unwrapped@D@std@@YAPADQAD@Z ENDP		; std::_Get_unwrapped<char>
_TEXT	ENDS
; Function compile flags: /Odtp /RTCsu
; File C:\Program Files (x86)\Microsoft Visual Studio\2019\Community\VC\Tools\MSVC\14.23.28105\include\xstring
;	COMDAT ??$_Reallocate_grow_by@V<lambda_4d79bb85f269e6e8002a4599002d832c>@@IPBDI@?$basic_string@DU?$char_traits@D@std@@V?$allocator@D@2@@std@@AAEAAV01@IV<lambda_4d79bb85f269e6e8002a4599002d832c>@@IPBDI@Z
_TEXT	SEGMENT
__Old_ptr$1 = -48					; size = 4
__Raw_new$ = -44					; size = 4
__New_ptr$ = -36					; size = 4
__Al$ = -28						; size = 4
__New_capacity$ = -24					; size = 4
__Old_capacity$ = -20					; size = 4
__New_size$ = -16					; size = 4
__Old_size$ = -12					; size = 4
__My_data$ = -8						; size = 4
_this$ = -4						; size = 4
__Size_increase$ = 8					; size = 4
__Fn$ = 12						; size = 1
_<_Args_0>$ = 16					; size = 4
_<_Args_1>$ = 20					; size = 4
_<_Args_2>$ = 24					; size = 4
??$_Reallocate_grow_by@V<lambda_4d79bb85f269e6e8002a4599002d832c>@@IPBDI@?$basic_string@DU?$char_traits@D@std@@V?$allocator@D@2@@std@@AAEAAV01@IV<lambda_4d79bb85f269e6e8002a4599002d832c>@@IPBDI@Z PROC ; std::basic_string<char,std::char_traits<char>,std::allocator<char> >::_Reallocate_grow_by<<lambda_4d79bb85f269e6e8002a4599002d832c>,unsigned int,char const *,unsigned int>, COMDAT
; _this$ = ecx

; 4108 :     basic_string& _Reallocate_grow_by(const size_type _Size_increase, _Fty _Fn, _ArgTys... _Args) {

  00000	55		 push	 ebp
  00001	8b ec		 mov	 ebp, esp
  00003	83 ec 30	 sub	 esp, 48			; 00000030H
  00006	57		 push	 edi
  00007	51		 push	 ecx
  00008	8d 7d d0	 lea	 edi, DWORD PTR [ebp-48]
  0000b	b9 0c 00 00 00	 mov	 ecx, 12			; 0000000cH
  00010	b8 cc cc cc cc	 mov	 eax, -858993460		; ccccccccH
  00015	f3 ab		 rep stosd
  00017	59		 pop	 ecx
  00018	89 4d fc	 mov	 DWORD PTR _this$[ebp], ecx

; 4109 :         // reallocate to increase size by _Size_increase elements, new buffer prepared by
; 4110 :         // _Fn(_New_ptr, _Old_ptr, _Old_size, _Args...)
; 4111 :         auto& _My_data            = _Mypair._Myval2;

  0001b	8b 45 fc	 mov	 eax, DWORD PTR _this$[ebp]
  0001e	89 45 f8	 mov	 DWORD PTR __My_data$[ebp], eax

; 4112 :         const size_type _Old_size = _My_data._Mysize;

  00021	8b 4d f8	 mov	 ecx, DWORD PTR __My_data$[ebp]
  00024	8b 51 14	 mov	 edx, DWORD PTR [ecx+20]
  00027	89 55 f4	 mov	 DWORD PTR __Old_size$[ebp], edx

; 4113 :         if (max_size() - _Old_size < _Size_increase) {

  0002a	8b 4d fc	 mov	 ecx, DWORD PTR _this$[ebp]
  0002d	e8 00 00 00 00	 call	 ?max_size@?$basic_string@DU?$char_traits@D@std@@V?$allocator@D@2@@std@@QBEIXZ ; std::basic_string<char,std::char_traits<char>,std::allocator<char> >::max_size
  00032	2b 45 f4	 sub	 eax, DWORD PTR __Old_size$[ebp]
  00035	3b 45 08	 cmp	 eax, DWORD PTR __Size_increase$[ebp]
  00038	73 05		 jae	 SHORT $LN2@Reallocate

; 4114 :             _Xlen(); // result too long

  0003a	e8 00 00 00 00	 call	 ?_Xlen@?$basic_string@DU?$char_traits@D@std@@V?$allocator@D@2@@std@@CAXXZ ; std::basic_string<char,std::char_traits<char>,std::allocator<char> >::_Xlen
$LN2@Reallocate:

; 4115 :         }
; 4116 : 
; 4117 :         const size_type _New_size     = _Old_size + _Size_increase;

  0003f	8b 45 f4	 mov	 eax, DWORD PTR __Old_size$[ebp]
  00042	03 45 08	 add	 eax, DWORD PTR __Size_increase$[ebp]
  00045	89 45 f0	 mov	 DWORD PTR __New_size$[ebp], eax

; 4118 :         const size_type _Old_capacity = _My_data._Myres;

  00048	8b 4d f8	 mov	 ecx, DWORD PTR __My_data$[ebp]
  0004b	8b 51 18	 mov	 edx, DWORD PTR [ecx+24]
  0004e	89 55 ec	 mov	 DWORD PTR __Old_capacity$[ebp], edx

; 4119 :         const size_type _New_capacity = _Calculate_growth(_New_size);

  00051	8b 45 f0	 mov	 eax, DWORD PTR __New_size$[ebp]
  00054	50		 push	 eax
  00055	8b 4d fc	 mov	 ecx, DWORD PTR _this$[ebp]
  00058	e8 00 00 00 00	 call	 ?_Calculate_growth@?$basic_string@DU?$char_traits@D@std@@V?$allocator@D@2@@std@@ABEII@Z ; std::basic_string<char,std::char_traits<char>,std::allocator<char> >::_Calculate_growth
  0005d	89 45 e8	 mov	 DWORD PTR __New_capacity$[ebp], eax

; 4120 :         auto& _Al                     = _Getal();

  00060	8b 4d fc	 mov	 ecx, DWORD PTR _this$[ebp]
  00063	e8 00 00 00 00	 call	 ?_Getal@?$basic_string@DU?$char_traits@D@std@@V?$allocator@D@2@@std@@AAEAAV?$allocator@D@2@XZ ; std::basic_string<char,std::char_traits<char>,std::allocator<char> >::_Getal
  00068	89 45 e4	 mov	 DWORD PTR __Al$[ebp], eax

; 4121 :         const pointer _New_ptr        = _Al.allocate(_New_capacity + 1); // throws

  0006b	8b 4d e8	 mov	 ecx, DWORD PTR __New_capacity$[ebp]
  0006e	83 c1 01	 add	 ecx, 1
  00071	51		 push	 ecx
  00072	8b 4d e4	 mov	 ecx, DWORD PTR __Al$[ebp]
  00075	e8 00 00 00 00	 call	 ?allocate@?$allocator@D@std@@QAEPADI@Z ; std::allocator<char>::allocate
  0007a	89 45 dc	 mov	 DWORD PTR __New_ptr$[ebp], eax

; 4122 :         _My_data._Orphan_all();

  0007d	8b 4d f8	 mov	 ecx, DWORD PTR __My_data$[ebp]
  00080	e8 00 00 00 00	 call	 ?_Orphan_all@_Container_base12@std@@QAEXXZ ; std::_Container_base12::_Orphan_all

; 4123 :         _My_data._Mysize      = _New_size;

  00085	8b 55 f8	 mov	 edx, DWORD PTR __My_data$[ebp]
  00088	8b 45 f0	 mov	 eax, DWORD PTR __New_size$[ebp]
  0008b	89 42 14	 mov	 DWORD PTR [edx+20], eax

; 4124 :         _My_data._Myres       = _New_capacity;

  0008e	8b 4d f8	 mov	 ecx, DWORD PTR __My_data$[ebp]
  00091	8b 55 e8	 mov	 edx, DWORD PTR __New_capacity$[ebp]
  00094	89 51 18	 mov	 DWORD PTR [ecx+24], edx

; 4125 :         _Elem* const _Raw_new = _Unfancy(_New_ptr);

  00097	8b 45 dc	 mov	 eax, DWORD PTR __New_ptr$[ebp]
  0009a	50		 push	 eax
  0009b	e8 00 00 00 00	 call	 ??$_Unfancy@D@std@@YAPADPAD@Z ; std::_Unfancy<char>
  000a0	83 c4 04	 add	 esp, 4
  000a3	89 45 d4	 mov	 DWORD PTR __Raw_new$[ebp], eax

; 4126 :         if (_BUF_SIZE <= _Old_capacity) {

  000a6	83 7d ec 10	 cmp	 DWORD PTR __Old_capacity$[ebp], 16 ; 00000010H
  000aa	72 50		 jb	 SHORT $LN3@Reallocate

; 4127 :             const pointer _Old_ptr = _My_data._Bx._Ptr;

  000ac	8b 4d f8	 mov	 ecx, DWORD PTR __My_data$[ebp]
  000af	8b 51 04	 mov	 edx, DWORD PTR [ecx+4]
  000b2	89 55 d0	 mov	 DWORD PTR __Old_ptr$1[ebp], edx

; 4128 :             _Fn(_Raw_new, _Unfancy(_Old_ptr), _Old_size, _Args...);

  000b5	8b 45 18	 mov	 eax, DWORD PTR _<_Args_2>$[ebp]
  000b8	50		 push	 eax
  000b9	8b 4d 14	 mov	 ecx, DWORD PTR _<_Args_1>$[ebp]
  000bc	51		 push	 ecx
  000bd	8b 55 10	 mov	 edx, DWORD PTR _<_Args_0>$[ebp]
  000c0	52		 push	 edx
  000c1	8b 45 f4	 mov	 eax, DWORD PTR __Old_size$[ebp]
  000c4	50		 push	 eax
  000c5	8b 4d d0	 mov	 ecx, DWORD PTR __Old_ptr$1[ebp]
  000c8	51		 push	 ecx
  000c9	e8 00 00 00 00	 call	 ??$_Unfancy@D@std@@YAPADPAD@Z ; std::_Unfancy<char>
  000ce	83 c4 04	 add	 esp, 4
  000d1	50		 push	 eax
  000d2	8b 55 d4	 mov	 edx, DWORD PTR __Raw_new$[ebp]
  000d5	52		 push	 edx
  000d6	8d 4d 0c	 lea	 ecx, DWORD PTR __Fn$[ebp]
  000d9	e8 00 00 00 00	 call	 ??R<lambda_4d79bb85f269e6e8002a4599002d832c>@@QBEXQADQBDII1I@Z ; <lambda_4d79bb85f269e6e8002a4599002d832c>::operator()

; 4129 :             _Al.deallocate(_Old_ptr, _Old_capacity + 1);

  000de	8b 45 ec	 mov	 eax, DWORD PTR __Old_capacity$[ebp]
  000e1	83 c0 01	 add	 eax, 1
  000e4	50		 push	 eax
  000e5	8b 4d d0	 mov	 ecx, DWORD PTR __Old_ptr$1[ebp]
  000e8	51		 push	 ecx
  000e9	8b 4d e4	 mov	 ecx, DWORD PTR __Al$[ebp]
  000ec	e8 00 00 00 00	 call	 ?deallocate@?$allocator@D@std@@QAEXQADI@Z ; std::allocator<char>::deallocate

; 4130 :             _My_data._Bx._Ptr = _New_ptr;

  000f1	8b 55 f8	 mov	 edx, DWORD PTR __My_data$[ebp]
  000f4	8b 45 dc	 mov	 eax, DWORD PTR __New_ptr$[ebp]
  000f7	89 42 04	 mov	 DWORD PTR [edx+4], eax

; 4131 :         } else {

  000fa	eb 36		 jmp	 SHORT $LN4@Reallocate
$LN3@Reallocate:

; 4132 :             _Fn(_Raw_new, _My_data._Bx._Buf, _Old_size, _Args...);

  000fc	8b 4d 18	 mov	 ecx, DWORD PTR _<_Args_2>$[ebp]
  000ff	51		 push	 ecx
  00100	8b 55 14	 mov	 edx, DWORD PTR _<_Args_1>$[ebp]
  00103	52		 push	 edx
  00104	8b 45 10	 mov	 eax, DWORD PTR _<_Args_0>$[ebp]
  00107	50		 push	 eax
  00108	8b 4d f4	 mov	 ecx, DWORD PTR __Old_size$[ebp]
  0010b	51		 push	 ecx
  0010c	8b 55 f8	 mov	 edx, DWORD PTR __My_data$[ebp]
  0010f	83 c2 04	 add	 edx, 4
  00112	52		 push	 edx
  00113	8b 45 d4	 mov	 eax, DWORD PTR __Raw_new$[ebp]
  00116	50		 push	 eax
  00117	8d 4d 0c	 lea	 ecx, DWORD PTR __Fn$[ebp]
  0011a	e8 00 00 00 00	 call	 ??R<lambda_4d79bb85f269e6e8002a4599002d832c>@@QBEXQADQBDII1I@Z ; <lambda_4d79bb85f269e6e8002a4599002d832c>::operator()

; 4133 :             _Construct_in_place(_My_data._Bx._Ptr, _New_ptr);

  0011f	8d 4d dc	 lea	 ecx, DWORD PTR __New_ptr$[ebp]
  00122	51		 push	 ecx
  00123	8b 55 f8	 mov	 edx, DWORD PTR __My_data$[ebp]
  00126	83 c2 04	 add	 edx, 4
  00129	52		 push	 edx
  0012a	e8 00 00 00 00	 call	 ??$_Construct_in_place@PADABQAD@std@@YAXAAPADABQAD@Z ; std::_Construct_in_place<char *,char * const &>
  0012f	83 c4 08	 add	 esp, 8
$LN4@Reallocate:

; 4134 :         }
; 4135 : 
; 4136 :         return *this;

  00132	8b 45 fc	 mov	 eax, DWORD PTR _this$[ebp]
$LN5@Reallocate:

; 4137 :     }

  00135	52		 push	 edx
  00136	8b cd		 mov	 ecx, ebp
  00138	50		 push	 eax
  00139	8d 15 00 00 00
	00		 lea	 edx, DWORD PTR $LN8@Reallocate
  0013f	e8 00 00 00 00	 call	 @_RTC_CheckStackVars@8
  00144	58		 pop	 eax
  00145	5a		 pop	 edx
  00146	5f		 pop	 edi
  00147	83 c4 30	 add	 esp, 48			; 00000030H
  0014a	3b ec		 cmp	 ebp, esp
  0014c	e8 00 00 00 00	 call	 __RTC_CheckEsp
  00151	8b e5		 mov	 esp, ebp
  00153	5d		 pop	 ebp
  00154	c2 14 00	 ret	 20			; 00000014H
  00157	90		 npad	 1
$LN8@Reallocate:
  00158	01 00 00 00	 DD	 1
  0015c	00 00 00 00	 DD	 $LN7@Reallocate
$LN7@Reallocate:
  00160	dc ff ff ff	 DD	 -36			; ffffffdcH
  00164	04 00 00 00	 DD	 4
  00168	00 00 00 00	 DD	 $LN6@Reallocate
$LN6@Reallocate:
  0016c	5f		 DB	 95			; 0000005fH
  0016d	4e		 DB	 78			; 0000004eH
  0016e	65		 DB	 101			; 00000065H
  0016f	77		 DB	 119			; 00000077H
  00170	5f		 DB	 95			; 0000005fH
  00171	70		 DB	 112			; 00000070H
  00172	74		 DB	 116			; 00000074H
  00173	72		 DB	 114			; 00000072H
  00174	00		 DB	 0
??$_Reallocate_grow_by@V<lambda_4d79bb85f269e6e8002a4599002d832c>@@IPBDI@?$basic_string@DU?$char_traits@D@std@@V?$allocator@D@2@@std@@AAEAAV01@IV<lambda_4d79bb85f269e6e8002a4599002d832c>@@IPBDI@Z ENDP ; std::basic_string<char,std::char_traits<char>,std::allocator<char> >::_Reallocate_grow_by<<lambda_4d79bb85f269e6e8002a4599002d832c>,unsigned int,char const *,unsigned int>
_TEXT	ENDS
; Function compile flags: /Odtp /RTCsu
; File C:\Program Files (x86)\Microsoft Visual Studio\2019\Community\VC\Tools\MSVC\14.23.28105\include\xstring
;	COMDAT ??R<lambda_4d79bb85f269e6e8002a4599002d832c>@@QBEXQADQBDII1I@Z
_TEXT	SEGMENT
_this$ = -4						; size = 4
__New_ptr$ = 8						; size = 4
__Old_ptr$ = 12						; size = 4
__Old_size$ = 16					; size = 4
__Off$ = 20						; size = 4
__Ptr$ = 24						; size = 4
__Count$ = 28						; size = 4
??R<lambda_4d79bb85f269e6e8002a4599002d832c>@@QBEXQADQBDII1I@Z PROC ; <lambda_4d79bb85f269e6e8002a4599002d832c>::operator(), COMDAT
; _this$ = ecx

; 2987 :                 const _Elem* const _Ptr, const size_type _Count) {

  00000	55		 push	 ebp
  00001	8b ec		 mov	 ebp, esp
  00003	51		 push	 ecx
  00004	c7 45 fc cc cc
	cc cc		 mov	 DWORD PTR [ebp-4], -858993460 ; ccccccccH
  0000b	89 4d fc	 mov	 DWORD PTR _this$[ebp], ecx

; 2988 :                 _Traits::copy(_New_ptr, _Old_ptr, _Off);

  0000e	8b 45 14	 mov	 eax, DWORD PTR __Off$[ebp]
  00011	50		 push	 eax
  00012	8b 4d 0c	 mov	 ecx, DWORD PTR __Old_ptr$[ebp]
  00015	51		 push	 ecx
  00016	8b 55 08	 mov	 edx, DWORD PTR __New_ptr$[ebp]
  00019	52		 push	 edx
  0001a	e8 00 00 00 00	 call	 ?copy@?$_Narrow_char_traits@DH@std@@SAPADQADQBDI@Z ; std::_Narrow_char_traits<char,int>::copy
  0001f	83 c4 0c	 add	 esp, 12			; 0000000cH

; 2989 :                 _Traits::copy(_New_ptr + _Off, _Ptr, _Count);

  00022	8b 45 1c	 mov	 eax, DWORD PTR __Count$[ebp]
  00025	50		 push	 eax
  00026	8b 4d 18	 mov	 ecx, DWORD PTR __Ptr$[ebp]
  00029	51		 push	 ecx
  0002a	8b 55 08	 mov	 edx, DWORD PTR __New_ptr$[ebp]
  0002d	03 55 14	 add	 edx, DWORD PTR __Off$[ebp]
  00030	52		 push	 edx
  00031	e8 00 00 00 00	 call	 ?copy@?$_Narrow_char_traits@DH@std@@SAPADQADQBDI@Z ; std::_Narrow_char_traits<char,int>::copy
  00036	83 c4 0c	 add	 esp, 12			; 0000000cH

; 2990 :                 _Traits::copy(_New_ptr + _Off + _Count, _Old_ptr + _Off, _Old_size - _Off + 1);

  00039	8b 45 10	 mov	 eax, DWORD PTR __Old_size$[ebp]
  0003c	2b 45 14	 sub	 eax, DWORD PTR __Off$[ebp]
  0003f	83 c0 01	 add	 eax, 1
  00042	50		 push	 eax
  00043	8b 4d 0c	 mov	 ecx, DWORD PTR __Old_ptr$[ebp]
  00046	03 4d 14	 add	 ecx, DWORD PTR __Off$[ebp]
  00049	51		 push	 ecx
  0004a	8b 55 08	 mov	 edx, DWORD PTR __New_ptr$[ebp]
  0004d	03 55 14	 add	 edx, DWORD PTR __Off$[ebp]
  00050	03 55 1c	 add	 edx, DWORD PTR __Count$[ebp]
  00053	52		 push	 edx
  00054	e8 00 00 00 00	 call	 ?copy@?$_Narrow_char_traits@DH@std@@SAPADQADQBDI@Z ; std::_Narrow_char_traits<char,int>::copy
  00059	83 c4 0c	 add	 esp, 12			; 0000000cH

; 2991 :             },

  0005c	83 c4 04	 add	 esp, 4
  0005f	3b ec		 cmp	 ebp, esp
  00061	e8 00 00 00 00	 call	 __RTC_CheckEsp
  00066	8b e5		 mov	 esp, ebp
  00068	5d		 pop	 ebp
  00069	c2 18 00	 ret	 24			; 00000018H
??R<lambda_4d79bb85f269e6e8002a4599002d832c>@@QBEXQADQBDII1I@Z ENDP ; <lambda_4d79bb85f269e6e8002a4599002d832c>::operator()
_TEXT	ENDS
; Function compile flags: /Odtp /RTCsu
; File C:\Program Files (x86)\Microsoft Visual Studio\2019\Community\VC\Tools\MSVC\14.23.28105\include\xmemory
;	COMDAT ??$_Get_size_of_n@$01@std@@YAII@Z
_TEXT	SEGMENT
__Max_possible$1 = -8					; size = 4
__Overflow_is_possible$ = -1				; size = 1
__Count$ = 8						; size = 4
??$_Get_size_of_n@$01@std@@YAII@Z PROC			; std::_Get_size_of_n<2>, COMDAT

; 24   : _NODISCARD constexpr size_t _Get_size_of_n(const size_t _Count) {

  00000	55		 push	 ebp
  00001	8b ec		 mov	 ebp, esp
  00003	83 ec 08	 sub	 esp, 8
  00006	c7 45 f8 cc cc
	cc cc		 mov	 DWORD PTR [ebp-8], -858993460 ; ccccccccH
  0000d	c7 45 fc cc cc
	cc cc		 mov	 DWORD PTR [ebp-4], -858993460 ; ccccccccH

; 25   :     constexpr bool _Overflow_is_possible = _Ty_size > 1;

  00014	c6 45 ff 01	 mov	 BYTE PTR __Overflow_is_possible$[ebp], 1

; 26   : 
; 27   :     if
; 28   :         _CONSTEXPR_IF(_Overflow_is_possible) {
; 29   :             constexpr size_t _Max_possible = static_cast<size_t>(-1) / _Ty_size;

  00018	c7 45 f8 ff ff
	ff 7f		 mov	 DWORD PTR __Max_possible$1[ebp], 2147483647 ; 7fffffffH

; 30   :             if (_Count > _Max_possible) {

  0001f	81 7d 08 ff ff
	ff 7f		 cmp	 DWORD PTR __Count$[ebp], 2147483647 ; 7fffffffH
  00026	76 05		 jbe	 SHORT $LN2@Get_size_o

; 31   :                 _Throw_bad_array_new_length(); // multiply overflow

  00028	e8 00 00 00 00	 call	 ?_Throw_bad_array_new_length@std@@YAXXZ ; std::_Throw_bad_array_new_length
$LN2@Get_size_o:

; 32   :             }
; 33   :         }
; 34   : 
; 35   :     return _Count * _Ty_size;

  0002d	8b 45 08	 mov	 eax, DWORD PTR __Count$[ebp]
  00030	d1 e0		 shl	 eax, 1
$LN3@Get_size_o:

; 36   : }

  00032	83 c4 08	 add	 esp, 8
  00035	3b ec		 cmp	 ebp, esp
  00037	e8 00 00 00 00	 call	 __RTC_CheckEsp
  0003c	8b e5		 mov	 esp, ebp
  0003e	5d		 pop	 ebp
  0003f	c3		 ret	 0
??$_Get_size_of_n@$01@std@@YAII@Z ENDP			; std::_Get_size_of_n<2>
_TEXT	ENDS
; Function compile flags: /Odtp /RTCsu
; File C:\Program Files (x86)\Microsoft Visual Studio\2019\Community\VC\Tools\MSVC\14.23.28105\include\xmemory
;	COMDAT ??$_Get_size_of_n@$03@std@@YAII@Z
_TEXT	SEGMENT
__Max_possible$1 = -8					; size = 4
__Overflow_is_possible$ = -1				; size = 1
__Count$ = 8						; size = 4
??$_Get_size_of_n@$03@std@@YAII@Z PROC			; std::_Get_size_of_n<4>, COMDAT

; 24   : _NODISCARD constexpr size_t _Get_size_of_n(const size_t _Count) {

  00000	55		 push	 ebp
  00001	8b ec		 mov	 ebp, esp
  00003	83 ec 08	 sub	 esp, 8
  00006	c7 45 f8 cc cc
	cc cc		 mov	 DWORD PTR [ebp-8], -858993460 ; ccccccccH
  0000d	c7 45 fc cc cc
	cc cc		 mov	 DWORD PTR [ebp-4], -858993460 ; ccccccccH

; 25   :     constexpr bool _Overflow_is_possible = _Ty_size > 1;

  00014	c6 45 ff 01	 mov	 BYTE PTR __Overflow_is_possible$[ebp], 1

; 26   : 
; 27   :     if
; 28   :         _CONSTEXPR_IF(_Overflow_is_possible) {
; 29   :             constexpr size_t _Max_possible = static_cast<size_t>(-1) / _Ty_size;

  00018	c7 45 f8 ff ff
	ff 3f		 mov	 DWORD PTR __Max_possible$1[ebp], 1073741823 ; 3fffffffH

; 30   :             if (_Count > _Max_possible) {

  0001f	81 7d 08 ff ff
	ff 3f		 cmp	 DWORD PTR __Count$[ebp], 1073741823 ; 3fffffffH
  00026	76 05		 jbe	 SHORT $LN2@Get_size_o

; 31   :                 _Throw_bad_array_new_length(); // multiply overflow

  00028	e8 00 00 00 00	 call	 ?_Throw_bad_array_new_length@std@@YAXXZ ; std::_Throw_bad_array_new_length
$LN2@Get_size_o:

; 32   :             }
; 33   :         }
; 34   : 
; 35   :     return _Count * _Ty_size;

  0002d	8b 45 08	 mov	 eax, DWORD PTR __Count$[ebp]
  00030	c1 e0 02	 shl	 eax, 2
$LN3@Get_size_o:

; 36   : }

  00033	83 c4 08	 add	 esp, 8
  00036	3b ec		 cmp	 ebp, esp
  00038	e8 00 00 00 00	 call	 __RTC_CheckEsp
  0003d	8b e5		 mov	 esp, ebp
  0003f	5d		 pop	 ebp
  00040	c3		 ret	 0
??$_Get_size_of_n@$03@std@@YAII@Z ENDP			; std::_Get_size_of_n<4>
_TEXT	ENDS
; Function compile flags: /Odtp /RTCsu
; File C:\Program Files (x86)\Microsoft Visual Studio\2019\Community\VC\Tools\MSVC\14.23.28105\include\xmemory
;	COMDAT ??$_Uninitialized_fill_n@V?$allocator@_W@std@@@std@@YAPA_WPA_WIAB_WAAV?$allocator@_W@0@@Z
_TEXT	SEGMENT
$T2 = -36						; size = 4
__Backout$3 = -28					; size = 12
__$EHRec$ = -12						; size = 12
__First$ = 8						; size = 4
__Count$ = 12						; size = 4
__Val$ = 16						; size = 4
__Al$ = 20						; size = 4
??$_Uninitialized_fill_n@V?$allocator@_W@std@@@std@@YAPA_WPA_WIAB_WAAV?$allocator@_W@0@@Z PROC ; std::_Uninitialized_fill_n<std::allocator<wchar_t> >, COMDAT

; 1795 :     _Alloc_ptr_t<_Alloc> _First, _Alloc_size_t<_Alloc> _Count, const typename _Alloc::value_type& _Val, _Alloc& _Al) {

  00000	55		 push	 ebp
  00001	8b ec		 mov	 ebp, esp
  00003	6a ff		 push	 -1
  00005	68 00 00 00 00	 push	 __ehhandler$??$_Uninitialized_fill_n@V?$allocator@_W@std@@@std@@YAPA_WPA_WIAB_WAAV?$allocator@_W@0@@Z
  0000a	64 a1 00 00 00
	00		 mov	 eax, DWORD PTR fs:0
  00010	50		 push	 eax
  00011	83 ec 18	 sub	 esp, 24			; 00000018H
  00014	b8 cc cc cc cc	 mov	 eax, -858993460		; ccccccccH
  00019	89 45 dc	 mov	 DWORD PTR [ebp-36], eax
  0001c	89 45 e0	 mov	 DWORD PTR [ebp-32], eax
  0001f	89 45 e4	 mov	 DWORD PTR [ebp-28], eax
  00022	89 45 e8	 mov	 DWORD PTR [ebp-24], eax
  00025	89 45 ec	 mov	 DWORD PTR [ebp-20], eax
  00028	89 45 f0	 mov	 DWORD PTR [ebp-16], eax
  0002b	a1 00 00 00 00	 mov	 eax, DWORD PTR ___security_cookie
  00030	33 c5		 xor	 eax, ebp
  00032	50		 push	 eax
  00033	8d 45 f4	 lea	 eax, DWORD PTR __$EHRec$[ebp]
  00036	64 a3 00 00 00
	00		 mov	 DWORD PTR fs:0, eax

; 1796 :     // copy _Count copies of _Val to raw _First, using _Al
; 1797 :     using _Ty = typename _Alloc::value_type;
; 1798 :     if constexpr (_Fill_memset_is_safe<_Ty*, _Ty> && _Uses_default_construct<_Alloc, _Ty*, _Ty>::value) {
; 1799 :         (void) _Al;
; 1800 :         _CSTD memset(_Unfancy(_First), static_cast<unsigned char>(_Val), static_cast<size_t>(_Count));
; 1801 :         return _First + _Count;
; 1802 :     } else {
; 1803 :         _Uninitialized_backout_al<_Alloc> _Backout{_First, _Al};

  0003c	8b 45 14	 mov	 eax, DWORD PTR __Al$[ebp]
  0003f	50		 push	 eax
  00040	8b 4d 08	 mov	 ecx, DWORD PTR __First$[ebp]
  00043	51		 push	 ecx
  00044	8d 4d e4	 lea	 ecx, DWORD PTR __Backout$3[ebp]
  00047	e8 00 00 00 00	 call	 ??0?$_Uninitialized_backout_al@V?$allocator@_W@std@@@std@@QAE@PA_WAAV?$allocator@_W@1@@Z ; std::_Uninitialized_backout_al<std::allocator<wchar_t> >::_Uninitialized_backout_al<std::allocator<wchar_t> >
  0004c	c7 45 fc 00 00
	00 00		 mov	 DWORD PTR __$EHRec$[ebp+8], 0

; 1804 :         for (; 0 < _Count; --_Count) {

  00053	eb 09		 jmp	 SHORT $LN4@Uninitiali
$LN2@Uninitiali:
  00055	8b 55 0c	 mov	 edx, DWORD PTR __Count$[ebp]
  00058	83 ea 01	 sub	 edx, 1
  0005b	89 55 0c	 mov	 DWORD PTR __Count$[ebp], edx
$LN4@Uninitiali:
  0005e	83 7d 0c 00	 cmp	 DWORD PTR __Count$[ebp], 0
  00062	76 0e		 jbe	 SHORT $LN3@Uninitiali

; 1805 :             _Backout._Emplace_back(_Val);

  00064	8b 45 10	 mov	 eax, DWORD PTR __Val$[ebp]
  00067	50		 push	 eax
  00068	8d 4d e4	 lea	 ecx, DWORD PTR __Backout$3[ebp]
  0006b	e8 00 00 00 00	 call	 ??$_Emplace_back@AB_W@?$_Uninitialized_backout_al@V?$allocator@_W@std@@@std@@QAEXAB_W@Z ; std::_Uninitialized_backout_al<std::allocator<wchar_t> >::_Emplace_back<wchar_t const &>

; 1806 :         }

  00070	eb e3		 jmp	 SHORT $LN2@Uninitiali
$LN3@Uninitiali:

; 1807 : 
; 1808 :         return _Backout._Release();

  00072	8d 4d e4	 lea	 ecx, DWORD PTR __Backout$3[ebp]
  00075	e8 00 00 00 00	 call	 ?_Release@?$_Uninitialized_backout_al@V?$allocator@_W@std@@@std@@QAEPA_WXZ ; std::_Uninitialized_backout_al<std::allocator<wchar_t> >::_Release
  0007a	89 45 dc	 mov	 DWORD PTR $T2[ebp], eax
  0007d	c7 45 fc ff ff
	ff ff		 mov	 DWORD PTR __$EHRec$[ebp+8], -1
  00084	8d 4d e4	 lea	 ecx, DWORD PTR __Backout$3[ebp]
  00087	e8 00 00 00 00	 call	 ??1?$_Uninitialized_backout_al@V?$allocator@_W@std@@@std@@QAE@XZ ; std::_Uninitialized_backout_al<std::allocator<wchar_t> >::~_Uninitialized_backout_al<std::allocator<wchar_t> >
  0008c	8b 45 dc	 mov	 eax, DWORD PTR $T2[ebp]

; 1809 :     }
; 1810 : }

  0008f	52		 push	 edx
  00090	8b cd		 mov	 ecx, ebp
  00092	50		 push	 eax
  00093	8d 15 00 00 00
	00		 lea	 edx, DWORD PTR $LN10@Uninitiali
  00099	e8 00 00 00 00	 call	 @_RTC_CheckStackVars@8
  0009e	58		 pop	 eax
  0009f	5a		 pop	 edx
  000a0	8b 4d f4	 mov	 ecx, DWORD PTR __$EHRec$[ebp]
  000a3	64 89 0d 00 00
	00 00		 mov	 DWORD PTR fs:0, ecx
  000aa	59		 pop	 ecx
  000ab	83 c4 24	 add	 esp, 36			; 00000024H
  000ae	3b ec		 cmp	 ebp, esp
  000b0	e8 00 00 00 00	 call	 __RTC_CheckEsp
  000b5	8b e5		 mov	 esp, ebp
  000b7	5d		 pop	 ebp
  000b8	c3		 ret	 0
  000b9	0f 1f 00	 npad	 3
$LN10@Uninitiali:
  000bc	01 00 00 00	 DD	 1
  000c0	00 00 00 00	 DD	 $LN9@Uninitiali
$LN9@Uninitiali:
  000c4	e4 ff ff ff	 DD	 -28			; ffffffe4H
  000c8	0c 00 00 00	 DD	 12			; 0000000cH
  000cc	00 00 00 00	 DD	 $LN7@Uninitiali
$LN7@Uninitiali:
  000d0	5f		 DB	 95			; 0000005fH
  000d1	42		 DB	 66			; 00000042H
  000d2	61		 DB	 97			; 00000061H
  000d3	63		 DB	 99			; 00000063H
  000d4	6b		 DB	 107			; 0000006bH
  000d5	6f		 DB	 111			; 0000006fH
  000d6	75		 DB	 117			; 00000075H
  000d7	74		 DB	 116			; 00000074H
  000d8	00		 DB	 0
_TEXT	ENDS
;	COMDAT text$x
text$x	SEGMENT
__unwindfunclet$??$_Uninitialized_fill_n@V?$allocator@_W@std@@@std@@YAPA_WPA_WIAB_WAAV?$allocator@_W@0@@Z$0:
  00000	8d 4d e4	 lea	 ecx, DWORD PTR __Backout$3[ebp]
  00003	e9 00 00 00 00	 jmp	 ??1?$_Uninitialized_backout_al@V?$allocator@_W@std@@@std@@QAE@XZ ; std::_Uninitialized_backout_al<std::allocator<wchar_t> >::~_Uninitialized_backout_al<std::allocator<wchar_t> >
__ehhandler$??$_Uninitialized_fill_n@V?$allocator@_W@std@@@std@@YAPA_WPA_WIAB_WAAV?$allocator@_W@0@@Z:
  00008	8b 54 24 08	 mov	 edx, DWORD PTR [esp+8]
  0000c	8d 42 0c	 lea	 eax, DWORD PTR [edx+12]
  0000f	8b 4a e4	 mov	 ecx, DWORD PTR [edx-28]
  00012	33 c8		 xor	 ecx, eax
  00014	e8 00 00 00 00	 call	 @__security_check_cookie@4
  00019	b8 00 00 00 00	 mov	 eax, OFFSET __ehfuncinfo$??$_Uninitialized_fill_n@V?$allocator@_W@std@@@std@@YAPA_WPA_WIAB_WAAV?$allocator@_W@0@@Z
  0001e	e9 00 00 00 00	 jmp	 ___CxxFrameHandler3
text$x	ENDS
??$_Uninitialized_fill_n@V?$allocator@_W@std@@@std@@YAPA_WPA_WIAB_WAAV?$allocator@_W@0@@Z ENDP ; std::_Uninitialized_fill_n<std::allocator<wchar_t> >
; Function compile flags: /Odtp /RTCsu
; File C:\Program Files (x86)\Microsoft Visual Studio\2019\Community\VC\Tools\MSVC\14.23.28105\include\xmemory
;	COMDAT ??$_Uninitialized_fill_n@V?$allocator@D@std@@@std@@YAPADPADIABDAAV?$allocator@D@0@@Z
_TEXT	SEGMENT
__First$ = 8						; size = 4
__Count$ = 12						; size = 4
__Val$ = 16						; size = 4
__Al$ = 20						; size = 4
??$_Uninitialized_fill_n@V?$allocator@D@std@@@std@@YAPADPADIABDAAV?$allocator@D@0@@Z PROC ; std::_Uninitialized_fill_n<std::allocator<char> >, COMDAT

; 1795 :     _Alloc_ptr_t<_Alloc> _First, _Alloc_size_t<_Alloc> _Count, const typename _Alloc::value_type& _Val, _Alloc& _Al) {

  00000	55		 push	 ebp
  00001	8b ec		 mov	 ebp, esp

; 1796 :     // copy _Count copies of _Val to raw _First, using _Al
; 1797 :     using _Ty = typename _Alloc::value_type;
; 1798 :     if constexpr (_Fill_memset_is_safe<_Ty*, _Ty> && _Uses_default_construct<_Alloc, _Ty*, _Ty>::value) {
; 1799 :         (void) _Al;
; 1800 :         _CSTD memset(_Unfancy(_First), static_cast<unsigned char>(_Val), static_cast<size_t>(_Count));

  00003	8b 45 0c	 mov	 eax, DWORD PTR __Count$[ebp]
  00006	50		 push	 eax
  00007	8b 4d 10	 mov	 ecx, DWORD PTR __Val$[ebp]
  0000a	0f b6 11	 movzx	 edx, BYTE PTR [ecx]
  0000d	52		 push	 edx
  0000e	8b 45 08	 mov	 eax, DWORD PTR __First$[ebp]
  00011	50		 push	 eax
  00012	e8 00 00 00 00	 call	 ??$_Unfancy@D@std@@YAPADPAD@Z ; std::_Unfancy<char>
  00017	83 c4 04	 add	 esp, 4
  0001a	50		 push	 eax
  0001b	e8 00 00 00 00	 call	 _memset
  00020	83 c4 0c	 add	 esp, 12			; 0000000cH

; 1801 :         return _First + _Count;

  00023	8b 45 08	 mov	 eax, DWORD PTR __First$[ebp]
  00026	03 45 0c	 add	 eax, DWORD PTR __Count$[ebp]

; 1802 :     } else {
; 1803 :         _Uninitialized_backout_al<_Alloc> _Backout{_First, _Al};
; 1804 :         for (; 0 < _Count; --_Count) {
; 1805 :             _Backout._Emplace_back(_Val);
; 1806 :         }
; 1807 : 
; 1808 :         return _Backout._Release();
; 1809 :     }
; 1810 : }

  00029	3b ec		 cmp	 ebp, esp
  0002b	e8 00 00 00 00	 call	 __RTC_CheckEsp
  00030	5d		 pop	 ebp
  00031	c3		 ret	 0
??$_Uninitialized_fill_n@V?$allocator@D@std@@@std@@YAPADPADIABDAAV?$allocator@D@0@@Z ENDP ; std::_Uninitialized_fill_n<std::allocator<char> >
_TEXT	ENDS
; Function compile flags: /Odtp /RTCsu
; File C:\Program Files (x86)\Microsoft Visual Studio\2019\Community\VC\Tools\MSVC\14.23.28105\include\xmemory
;	COMDAT ??$destroy@V?$basic_string@DU?$char_traits@D@std@@V?$allocator@D@2@@std@@@?$_Default_allocator_traits@V?$allocator@V?$basic_string@DU?$char_traits@D@std@@V?$allocator@D@2@@std@@@std@@@std@@SAXAAV?$allocator@V?$basic_string@DU?$char_traits@D@std@@V?$allocator@D@2@@std@@@1@QAV?$basic_string@DU?$char_traits@D@std@@V?$allocator@D@2@@1@@Z
_TEXT	SEGMENT
___formal$ = 8						; size = 4
__Ptr$ = 12						; size = 4
??$destroy@V?$basic_string@DU?$char_traits@D@std@@V?$allocator@D@2@@std@@@?$_Default_allocator_traits@V?$allocator@V?$basic_string@DU?$char_traits@D@std@@V?$allocator@D@2@@std@@@std@@@std@@SAXAAV?$allocator@V?$basic_string@DU?$char_traits@D@std@@V?$allocator@D@2@@std@@@1@QAV?$basic_string@DU?$char_traits@D@std@@V?$allocator@D@2@@1@@Z PROC ; std::_Default_allocator_traits<std::allocator<std::basic_string<char,std::char_traits<char>,std::allocator<char> > > >::destroy<std::basic_string<char,std::char_traits<char>,std::allocator<char> > >, COMDAT

; 762  :     static void destroy(_Alloc&, _Uty* const _Ptr) {

  00000	55		 push	 ebp
  00001	8b ec		 mov	 ebp, esp

; 763  :         _Ptr->~_Uty();

  00003	6a 00		 push	 0
  00005	8b 4d 0c	 mov	 ecx, DWORD PTR __Ptr$[ebp]
  00008	e8 00 00 00 00	 call	 ??_G?$basic_string@DU?$char_traits@D@std@@V?$allocator@D@2@@std@@QAEPAXI@Z

; 764  :     }

  0000d	3b ec		 cmp	 ebp, esp
  0000f	e8 00 00 00 00	 call	 __RTC_CheckEsp
  00014	5d		 pop	 ebp
  00015	c3		 ret	 0
??$destroy@V?$basic_string@DU?$char_traits@D@std@@V?$allocator@D@2@@std@@@?$_Default_allocator_traits@V?$allocator@V?$basic_string@DU?$char_traits@D@std@@V?$allocator@D@2@@std@@@std@@@std@@SAXAAV?$allocator@V?$basic_string@DU?$char_traits@D@std@@V?$allocator@D@2@@std@@@1@QAV?$basic_string@DU?$char_traits@D@std@@V?$allocator@D@2@@1@@Z ENDP ; std::_Default_allocator_traits<std::allocator<std::basic_string<char,std::char_traits<char>,std::allocator<char> > > >::destroy<std::basic_string<char,std::char_traits<char>,std::allocator<char> > >
_TEXT	ENDS
; Function compile flags: /Odtp /RTCsu
; File C:\Program Files (x86)\Microsoft Visual Studio\2019\Community\VC\Tools\MSVC\14.23.28105\include\xstddef
;	COMDAT ??$_Unfancy@V?$basic_string@DU?$char_traits@D@std@@V?$allocator@D@2@@std@@@std@@YAPAV?$basic_string@DU?$char_traits@D@std@@V?$allocator@D@2@@0@PAV10@@Z
_TEXT	SEGMENT
__Ptr$ = 8						; size = 4
??$_Unfancy@V?$basic_string@DU?$char_traits@D@std@@V?$allocator@D@2@@std@@@std@@YAPAV?$basic_string@DU?$char_traits@D@std@@V?$allocator@D@2@@0@PAV10@@Z PROC ; std::_Unfancy<std::basic_string<char,std::char_traits<char>,std::allocator<char> > >, COMDAT

; 293  : _Ty* _Unfancy(_Ty* _Ptr) { // do nothing for plain pointers

  00000	55		 push	 ebp
  00001	8b ec		 mov	 ebp, esp

; 294  :     return _Ptr;

  00003	8b 45 08	 mov	 eax, DWORD PTR __Ptr$[ebp]

; 295  : }

  00006	5d		 pop	 ebp
  00007	c3		 ret	 0
??$_Unfancy@V?$basic_string@DU?$char_traits@D@std@@V?$allocator@D@2@@std@@@std@@YAPAV?$basic_string@DU?$char_traits@D@std@@V?$allocator@D@2@@0@PAV10@@Z ENDP ; std::_Unfancy<std::basic_string<char,std::char_traits<char>,std::allocator<char> > >
_TEXT	ENDS
; Function compile flags: /Odtp /RTCsu
; File C:\Program Files (x86)\Microsoft Visual Studio\2019\Community\VC\Tools\MSVC\14.23.28105\include\xmemory
;	COMDAT ??$_Allocate_manually_vector_aligned@U_Default_allocate_traits@std@@@std@@YAPAXI@Z
_TEXT	SEGMENT
__Ptr$ = -12						; size = 4
__Ptr_container$ = -8					; size = 4
__Block_size$ = -4					; size = 4
__Bytes$ = 8						; size = 4
??$_Allocate_manually_vector_aligned@U_Default_allocate_traits@std@@@std@@YAPAXI@Z PROC ; std::_Allocate_manually_vector_aligned<std::_Default_allocate_traits>, COMDAT

; 83   : _DECLSPEC_ALLOCATOR void* _Allocate_manually_vector_aligned(const size_t _Bytes) {

  00000	55		 push	 ebp
  00001	8b ec		 mov	 ebp, esp
  00003	83 ec 0c	 sub	 esp, 12			; 0000000cH
  00006	56		 push	 esi
  00007	c7 45 f4 cc cc
	cc cc		 mov	 DWORD PTR [ebp-12], -858993460 ; ccccccccH
  0000e	c7 45 f8 cc cc
	cc cc		 mov	 DWORD PTR [ebp-8], -858993460 ; ccccccccH
  00015	c7 45 fc cc cc
	cc cc		 mov	 DWORD PTR [ebp-4], -858993460 ; ccccccccH

; 84   :     // allocate _Bytes manually aligned to at least _Big_allocation_alignment
; 85   :     const size_t _Block_size = _Non_user_size + _Bytes;

  0001c	8b 45 08	 mov	 eax, DWORD PTR __Bytes$[ebp]
  0001f	83 c0 27	 add	 eax, 39			; 00000027H
  00022	89 45 fc	 mov	 DWORD PTR __Block_size$[ebp], eax

; 86   :     if (_Block_size <= _Bytes) {

  00025	8b 4d fc	 mov	 ecx, DWORD PTR __Block_size$[ebp]
  00028	3b 4d 08	 cmp	 ecx, DWORD PTR __Bytes$[ebp]
  0002b	77 05		 ja	 SHORT $LN8@Allocate_m

; 87   :         _Throw_bad_array_new_length(); // add overflow

  0002d	e8 00 00 00 00	 call	 ?_Throw_bad_array_new_length@std@@YAXXZ ; std::_Throw_bad_array_new_length
$LN8@Allocate_m:

; 88   :     }
; 89   : 
; 90   :     const uintptr_t _Ptr_container = reinterpret_cast<uintptr_t>(_Traits::_Allocate(_Block_size));

  00032	8b 55 fc	 mov	 edx, DWORD PTR __Block_size$[ebp]
  00035	52		 push	 edx
  00036	e8 00 00 00 00	 call	 ?_Allocate@_Default_allocate_traits@std@@SAPAXI@Z ; std::_Default_allocate_traits::_Allocate
  0003b	83 c4 04	 add	 esp, 4
  0003e	89 45 f8	 mov	 DWORD PTR __Ptr_container$[ebp], eax
$LN4@Allocate_m:

; 91   :     _STL_VERIFY(_Ptr_container != 0, "invalid argument"); // validate even in release since we're doing p[-1]

  00041	83 7d f8 00	 cmp	 DWORD PTR __Ptr_container$[ebp], 0
  00045	74 02		 je	 SHORT $LN7@Allocate_m
  00047	eb 56		 jmp	 SHORT $LN2@Allocate_m
$LN7@Allocate_m:
  00049	8b f4		 mov	 esi, esp
  0004b	68 00 00 00 00	 push	 OFFSET $SG128331
  00050	68 00 00 00 00	 push	 OFFSET $SG128332
  00055	6a 00		 push	 0
  00057	6a 5b		 push	 91			; 0000005bH
  00059	68 00 00 00 00	 push	 OFFSET $SG128333
  0005e	6a 02		 push	 2
  00060	ff 15 00 00 00
	00		 call	 DWORD PTR __imp___CrtDbgReport
  00066	83 c4 18	 add	 esp, 24			; 00000018H
  00069	3b f4		 cmp	 esi, esp
  0006b	e8 00 00 00 00	 call	 __RTC_CheckEsp
  00070	83 f8 01	 cmp	 eax, 1
  00073	75 01		 jne	 SHORT $LN12@Allocate_m
  00075	cc		 int	 3
$LN12@Allocate_m:
  00076	8b f4		 mov	 esi, esp
  00078	6a 00		 push	 0
  0007a	6a 5b		 push	 91			; 0000005bH
  0007c	68 00 00 00 00	 push	 OFFSET $SG128334
  00081	68 00 00 00 00	 push	 OFFSET $SG128335
  00086	68 00 00 00 00	 push	 OFFSET $SG128336
  0008b	ff 15 00 00 00
	00		 call	 DWORD PTR __imp___invalid_parameter
  00091	83 c4 14	 add	 esp, 20			; 00000014H
  00094	3b f4		 cmp	 esi, esp
  00096	e8 00 00 00 00	 call	 __RTC_CheckEsp
  0009b	33 c9		 xor	 ecx, ecx
  0009d	75 aa		 jne	 SHORT $LN7@Allocate_m
$LN2@Allocate_m:
  0009f	33 d2		 xor	 edx, edx
  000a1	75 9e		 jne	 SHORT $LN4@Allocate_m

; 92   :     void* const _Ptr = reinterpret_cast<void*>((_Ptr_container + _Non_user_size) & ~(_Big_allocation_alignment - 1));

  000a3	8b 45 f8	 mov	 eax, DWORD PTR __Ptr_container$[ebp]
  000a6	83 c0 27	 add	 eax, 39			; 00000027H
  000a9	83 e0 e0	 and	 eax, -32		; ffffffe0H
  000ac	89 45 f4	 mov	 DWORD PTR __Ptr$[ebp], eax

; 93   :     static_cast<uintptr_t*>(_Ptr)[-1] = _Ptr_container;

  000af	b9 04 00 00 00	 mov	 ecx, 4
  000b4	6b d1 ff	 imul	 edx, ecx, -1
  000b7	8b 45 f4	 mov	 eax, DWORD PTR __Ptr$[ebp]
  000ba	8b 4d f8	 mov	 ecx, DWORD PTR __Ptr_container$[ebp]
  000bd	89 0c 10	 mov	 DWORD PTR [eax+edx], ecx

; 94   : 
; 95   : #ifdef _DEBUG
; 96   :     static_cast<uintptr_t*>(_Ptr)[-2] = _Big_allocation_sentinel;

  000c0	ba 04 00 00 00	 mov	 edx, 4
  000c5	6b c2 fe	 imul	 eax, edx, -2
  000c8	8b 4d f4	 mov	 ecx, DWORD PTR __Ptr$[ebp]
  000cb	c7 04 01 fa fa
	fa fa		 mov	 DWORD PTR [ecx+eax], -84215046 ; fafafafaH

; 97   : #endif // _DEBUG
; 98   :     return _Ptr;

  000d2	8b 45 f4	 mov	 eax, DWORD PTR __Ptr$[ebp]
$LN11@Allocate_m:

; 99   : }

  000d5	5e		 pop	 esi
  000d6	83 c4 0c	 add	 esp, 12			; 0000000cH
  000d9	3b ec		 cmp	 ebp, esp
  000db	e8 00 00 00 00	 call	 __RTC_CheckEsp
  000e0	8b e5		 mov	 esp, ebp
  000e2	5d		 pop	 ebp
  000e3	c3		 ret	 0
??$_Allocate_manually_vector_aligned@U_Default_allocate_traits@std@@@std@@YAPAXI@Z ENDP ; std::_Allocate_manually_vector_aligned<std::_Default_allocate_traits>
_TEXT	ENDS
; Function compile flags: /Odtp /RTCsu
; File C:\Program Files (x86)\Microsoft Visual Studio\2019\Community\VC\Tools\MSVC\14.23.28105\include\type_traits
;	COMDAT ??$forward@ABQAD@std@@YAABQADABQAD@Z
_TEXT	SEGMENT
__Arg$ = 8						; size = 4
??$forward@ABQAD@std@@YAABQADABQAD@Z PROC		; std::forward<char * const &>, COMDAT

; 1420 :     remove_reference_t<_Ty>& _Arg) noexcept { // forward an lvalue as either an lvalue or an rvalue

  00000	55		 push	 ebp
  00001	8b ec		 mov	 ebp, esp

; 1421 :     return static_cast<_Ty&&>(_Arg);

  00003	8b 45 08	 mov	 eax, DWORD PTR __Arg$[ebp]

; 1422 : }

  00006	5d		 pop	 ebp
  00007	c3		 ret	 0
??$forward@ABQAD@std@@YAABQADABQAD@Z ENDP		; std::forward<char * const &>
_TEXT	ENDS
; Function compile flags: /Odtp /RTCsu
; File C:\Program Files (x86)\Microsoft Visual Studio\2019\Community\VC\Tools\MSVC\14.23.28105\include\xstddef
;	COMDAT ??$addressof@PAD@std@@YAPAPADAAPAD@Z
_TEXT	SEGMENT
__Val$ = 8						; size = 4
??$addressof@PAD@std@@YAPAPADAAPAD@Z PROC		; std::addressof<char *>, COMDAT

; 279  : _NODISCARD constexpr _Ty* addressof(_Ty& _Val) noexcept { // return address of _Val

  00000	55		 push	 ebp
  00001	8b ec		 mov	 ebp, esp

; 280  :     return __builtin_addressof(_Val);

  00003	8b 45 08	 mov	 eax, DWORD PTR __Val$[ebp]

; 281  : }

  00006	5d		 pop	 ebp
  00007	c3		 ret	 0
??$addressof@PAD@std@@YAPAPADAAPAD@Z ENDP		; std::addressof<char *>
_TEXT	ENDS
; Function compile flags: /Odtp /RTCsu
; File C:\Program Files (x86)\Microsoft Visual Studio\2019\Community\VC\Tools\MSVC\14.23.28105\include\xmemory
;	COMDAT ??$_Construct_in_place@PA_WABQA_W@std@@YAXAAPA_WABQA_W@Z
_TEXT	SEGMENT
$T1 = -4						; size = 4
__Obj$ = 8						; size = 4
_<_Args_0>$ = 12					; size = 4
??$_Construct_in_place@PA_WABQA_W@std@@YAXAAPA_WABQA_W@Z PROC ; std::_Construct_in_place<wchar_t *,wchar_t * const &>, COMDAT

; 198  : void _Construct_in_place(_Ty& _Obj, _Types&&... _Args) _NOEXCEPT_COND(is_nothrow_constructible_v<_Ty, _Types...>) {

  00000	55		 push	 ebp
  00001	8b ec		 mov	 ebp, esp
  00003	51		 push	 ecx
  00004	c7 45 fc cc cc
	cc cc		 mov	 DWORD PTR [ebp-4], -858993460 ; ccccccccH

; 199  :     ::new (const_cast<void*>(static_cast<const volatile void*>(_STD addressof(_Obj))))

  0000b	8b 45 08	 mov	 eax, DWORD PTR __Obj$[ebp]
  0000e	50		 push	 eax
  0000f	e8 00 00 00 00	 call	 ??$addressof@PA_W@std@@YAPAPA_WAAPA_W@Z ; std::addressof<wchar_t *>
  00014	83 c4 04	 add	 esp, 4
  00017	50		 push	 eax
  00018	6a 04		 push	 4
  0001a	e8 00 00 00 00	 call	 ??2@YAPAXIPAX@Z		; operator new
  0001f	83 c4 08	 add	 esp, 8
  00022	89 45 fc	 mov	 DWORD PTR $T1[ebp], eax
  00025	8b 4d 0c	 mov	 ecx, DWORD PTR _<_Args_0>$[ebp]
  00028	51		 push	 ecx
  00029	e8 00 00 00 00	 call	 ??$forward@ABQA_W@std@@YAABQA_WABQA_W@Z ; std::forward<wchar_t * const &>
  0002e	83 c4 04	 add	 esp, 4
  00031	8b 55 fc	 mov	 edx, DWORD PTR $T1[ebp]
  00034	8b 00		 mov	 eax, DWORD PTR [eax]
  00036	89 02		 mov	 DWORD PTR [edx], eax

; 200  :         _Ty(_STD forward<_Types>(_Args)...);
; 201  : }

  00038	83 c4 04	 add	 esp, 4
  0003b	3b ec		 cmp	 ebp, esp
  0003d	e8 00 00 00 00	 call	 __RTC_CheckEsp
  00042	8b e5		 mov	 esp, ebp
  00044	5d		 pop	 ebp
  00045	c3		 ret	 0
??$_Construct_in_place@PA_WABQA_W@std@@YAXAAPA_WABQA_W@Z ENDP ; std::_Construct_in_place<wchar_t *,wchar_t * const &>
_TEXT	ENDS
; Function compile flags: /Odtp /RTCsu
; File C:\Program Files (x86)\Microsoft Visual Studio\2019\Community\VC\Tools\MSVC\14.23.28105\include\type_traits
;	COMDAT ??$forward@PAU_Container_base12@std@@@std@@YA$$QAPAU_Container_base12@0@AAPAU10@@Z
_TEXT	SEGMENT
__Arg$ = 8						; size = 4
??$forward@PAU_Container_base12@std@@@std@@YA$$QAPAU_Container_base12@0@AAPAU10@@Z PROC ; std::forward<std::_Container_base12 *>, COMDAT

; 1420 :     remove_reference_t<_Ty>& _Arg) noexcept { // forward an lvalue as either an lvalue or an rvalue

  00000	55		 push	 ebp
  00001	8b ec		 mov	 ebp, esp

; 1421 :     return static_cast<_Ty&&>(_Arg);

  00003	8b 45 08	 mov	 eax, DWORD PTR __Arg$[ebp]

; 1422 : }

  00006	5d		 pop	 ebp
  00007	c3		 ret	 0
??$forward@PAU_Container_base12@std@@@std@@YA$$QAPAU_Container_base12@0@AAPAU10@@Z ENDP ; std::forward<std::_Container_base12 *>
_TEXT	ENDS
; Function compile flags: /Odtp /RTCsu
; File C:\Program Files (x86)\Microsoft Visual Studio\2019\Community\VC\Tools\MSVC\14.23.28105\include\xstddef
;	COMDAT ??$addressof@U_Container_proxy@std@@@std@@YAPAU_Container_proxy@0@AAU10@@Z
_TEXT	SEGMENT
__Val$ = 8						; size = 4
??$addressof@U_Container_proxy@std@@@std@@YAPAU_Container_proxy@0@AAU10@@Z PROC ; std::addressof<std::_Container_proxy>, COMDAT

; 279  : _NODISCARD constexpr _Ty* addressof(_Ty& _Val) noexcept { // return address of _Val

  00000	55		 push	 ebp
  00001	8b ec		 mov	 ebp, esp

; 280  :     return __builtin_addressof(_Val);

  00003	8b 45 08	 mov	 eax, DWORD PTR __Val$[ebp]

; 281  : }

  00006	5d		 pop	 ebp
  00007	c3		 ret	 0
??$addressof@U_Container_proxy@std@@@std@@YAPAU_Container_proxy@0@AAU10@@Z ENDP ; std::addressof<std::_Container_proxy>
_TEXT	ENDS
; Function compile flags: /Odtp /RTCsu
; File C:\Program Files (x86)\Microsoft Visual Studio\2019\Community\VC\Tools\MSVC\14.23.28105\include\type_traits
;	COMDAT ??$forward@V?$allocator@D@std@@@std@@YA$$QAV?$allocator@D@0@AAV10@@Z
_TEXT	SEGMENT
__Arg$ = 8						; size = 4
??$forward@V?$allocator@D@std@@@std@@YA$$QAV?$allocator@D@0@AAV10@@Z PROC ; std::forward<std::allocator<char> >, COMDAT

; 1420 :     remove_reference_t<_Ty>& _Arg) noexcept { // forward an lvalue as either an lvalue or an rvalue

  00000	55		 push	 ebp
  00001	8b ec		 mov	 ebp, esp

; 1421 :     return static_cast<_Ty&&>(_Arg);

  00003	8b 45 08	 mov	 eax, DWORD PTR __Arg$[ebp]

; 1422 : }

  00006	5d		 pop	 ebp
  00007	c3		 ret	 0
??$forward@V?$allocator@D@std@@@std@@YA$$QAV?$allocator@D@0@AAV10@@Z ENDP ; std::forward<std::allocator<char> >
_TEXT	ENDS
; Function compile flags: /Odtp /RTCsu
; File C:\Program Files (x86)\Microsoft Visual Studio\2019\Community\VC\Tools\MSVC\14.23.28105\include\vector
;	COMDAT ??$_Ucopy@PBQBD@?$vector@PBDV?$allocator@PBD@std@@@std@@AAEPAPBDPBQBD0PAPBD@Z
_TEXT	SEGMENT
_this$ = -4						; size = 4
__First$ = 8						; size = 4
__Last$ = 12						; size = 4
__Dest$ = 16						; size = 4
??$_Ucopy@PBQBD@?$vector@PBDV?$allocator@PBD@std@@@std@@AAEPAPBDPBQBD0PAPBD@Z PROC ; std::vector<char const *,std::allocator<char const *> >::_Ucopy<char const * const *>, COMDAT
; _this$ = ecx

; 1543 :     pointer _Ucopy(_Iter _First, _Iter _Last, pointer _Dest) { // copy [_First, _Last) to raw _Dest, using allocator

  00000	55		 push	 ebp
  00001	8b ec		 mov	 ebp, esp
  00003	51		 push	 ecx
  00004	c7 45 fc cc cc
	cc cc		 mov	 DWORD PTR [ebp-4], -858993460 ; ccccccccH
  0000b	89 4d fc	 mov	 DWORD PTR _this$[ebp], ecx

; 1544 :         return _Uninitialized_copy(_First, _Last, _Dest, _Getal());

  0000e	8b 4d fc	 mov	 ecx, DWORD PTR _this$[ebp]
  00011	e8 00 00 00 00	 call	 ?_Getal@?$vector@PBDV?$allocator@PBD@std@@@std@@AAEAAV?$allocator@PBD@2@XZ ; std::vector<char const *,std::allocator<char const *> >::_Getal
  00016	50		 push	 eax
  00017	8b 45 10	 mov	 eax, DWORD PTR __Dest$[ebp]
  0001a	50		 push	 eax
  0001b	8b 4d 0c	 mov	 ecx, DWORD PTR __Last$[ebp]
  0001e	51		 push	 ecx
  0001f	8b 55 08	 mov	 edx, DWORD PTR __First$[ebp]
  00022	52		 push	 edx
  00023	e8 00 00 00 00	 call	 ??$_Uninitialized_copy@PBQBDV?$allocator@PBD@std@@@std@@YAPAPBDQBQBD0PAPBDAAV?$allocator@PBD@0@@Z ; std::_Uninitialized_copy<char const * const *,std::allocator<char const *> >
  00028	83 c4 10	 add	 esp, 16			; 00000010H

; 1545 :     }

  0002b	83 c4 04	 add	 esp, 4
  0002e	3b ec		 cmp	 ebp, esp
  00030	e8 00 00 00 00	 call	 __RTC_CheckEsp
  00035	8b e5		 mov	 esp, ebp
  00037	5d		 pop	 ebp
  00038	c2 0c 00	 ret	 12			; 0000000cH
??$_Ucopy@PBQBD@?$vector@PBDV?$allocator@PBD@std@@@std@@AAEPAPBDPBQBD0PAPBD@Z ENDP ; std::vector<char const *,std::allocator<char const *> >::_Ucopy<char const * const *>
_TEXT	ENDS
; Function compile flags: /Odtp /RTCsu
; File C:\Program Files (x86)\Microsoft Visual Studio\2019\Community\VC\Tools\MSVC\14.23.28105\include\xutility
;	COMDAT ??1?$_Tidy_guard@V?$vector@PBDV?$allocator@PBD@std@@@std@@@std@@QAE@XZ
_TEXT	SEGMENT
_this$ = -4						; size = 4
??1?$_Tidy_guard@V?$vector@PBDV?$allocator@PBD@std@@@std@@@std@@QAE@XZ PROC ; std::_Tidy_guard<std::vector<char const *,std::allocator<char const *> > >::~_Tidy_guard<std::vector<char const *,std::allocator<char const *> > >, COMDAT
; _this$ = ecx

; 3526 :     ~_Tidy_guard() {

  00000	55		 push	 ebp
  00001	8b ec		 mov	 ebp, esp
  00003	51		 push	 ecx
  00004	c7 45 fc cc cc
	cc cc		 mov	 DWORD PTR [ebp-4], -858993460 ; ccccccccH
  0000b	89 4d fc	 mov	 DWORD PTR _this$[ebp], ecx

; 3527 :         if (_Target) {

  0000e	8b 45 fc	 mov	 eax, DWORD PTR _this$[ebp]
  00011	83 38 00	 cmp	 DWORD PTR [eax], 0
  00014	74 0a		 je	 SHORT $LN1@Tidy_guard

; 3528 :             _Target->_Tidy();

  00016	8b 4d fc	 mov	 ecx, DWORD PTR _this$[ebp]
  00019	8b 09		 mov	 ecx, DWORD PTR [ecx]
  0001b	e8 00 00 00 00	 call	 ?_Tidy@?$vector@PBDV?$allocator@PBD@std@@@std@@AAEXXZ ; std::vector<char const *,std::allocator<char const *> >::_Tidy
$LN1@Tidy_guard:

; 3529 :         }
; 3530 :     }

  00020	83 c4 04	 add	 esp, 4
  00023	3b ec		 cmp	 ebp, esp
  00025	e8 00 00 00 00	 call	 __RTC_CheckEsp
  0002a	8b e5		 mov	 esp, ebp
  0002c	5d		 pop	 ebp
  0002d	c3		 ret	 0
??1?$_Tidy_guard@V?$vector@PBDV?$allocator@PBD@std@@@std@@@std@@QAE@XZ ENDP ; std::_Tidy_guard<std::vector<char const *,std::allocator<char const *> > >::~_Tidy_guard<std::vector<char const *,std::allocator<char const *> > >
_TEXT	ENDS
; Function compile flags: /Odtp /RTCsu
; File C:\Program Files (x86)\Microsoft Visual Studio\2019\Community\VC\Tools\MSVC\14.23.28105\include\xutility
;	COMDAT ??$distance@PBQBD@std@@YAHPBQBD0@Z
_TEXT	SEGMENT
__First$ = 8						; size = 4
__Last$ = 12						; size = 4
??$distance@PBQBD@std@@YAHPBQBD0@Z PROC			; std::distance<char const * const *>, COMDAT

; 781  : _NODISCARD _CONSTEXPR17 _Iter_diff_t<_InIt> distance(_InIt _First, _InIt _Last) { // return distance between iterators

  00000	55		 push	 ebp
  00001	8b ec		 mov	 ebp, esp

; 782  :     if constexpr (_Is_random_iter_v<_InIt>) {
; 783  :         return _Last - _First; // assume the iterator will do debug checking

  00003	8b 45 0c	 mov	 eax, DWORD PTR __Last$[ebp]
  00006	2b 45 08	 sub	 eax, DWORD PTR __First$[ebp]
  00009	c1 f8 02	 sar	 eax, 2

; 784  :     } else {
; 785  :         _Adl_verify_range(_First, _Last);
; 786  :         auto _UFirst             = _Get_unwrapped(_First);
; 787  :         const auto _ULast        = _Get_unwrapped(_Last);
; 788  :         _Iter_diff_t<_InIt> _Off = 0;
; 789  :         for (; _UFirst != _ULast; ++_UFirst) {
; 790  :             ++_Off;
; 791  :         }
; 792  : 
; 793  :         return _Off;
; 794  :     }
; 795  : }

  0000c	5d		 pop	 ebp
  0000d	c3		 ret	 0
??$distance@PBQBD@std@@YAHPBQBD0@Z ENDP			; std::distance<char const * const *>
_TEXT	ENDS
; Function compile flags: /Odtp /RTCsu
; File C:\Program Files (x86)\Microsoft Visual Studio\2019\Community\VC\Tools\MSVC\14.23.28105\include\type_traits
;	COMDAT ??$forward@ABV?$allocator@PBD@std@@@std@@YAABV?$allocator@PBD@0@ABV10@@Z
_TEXT	SEGMENT
__Arg$ = 8						; size = 4
??$forward@ABV?$allocator@PBD@std@@@std@@YAABV?$allocator@PBD@0@ABV10@@Z PROC ; std::forward<std::allocator<char const *> const &>, COMDAT

; 1420 :     remove_reference_t<_Ty>& _Arg) noexcept { // forward an lvalue as either an lvalue or an rvalue

  00000	55		 push	 ebp
  00001	8b ec		 mov	 ebp, esp

; 1421 :     return static_cast<_Ty&&>(_Arg);

  00003	8b 45 08	 mov	 eax, DWORD PTR __Arg$[ebp]

; 1422 : }

  00006	5d		 pop	 ebp
  00007	c3		 ret	 0
??$forward@ABV?$allocator@PBD@std@@@std@@YAABV?$allocator@PBD@0@ABV10@@Z ENDP ; std::forward<std::allocator<char const *> const &>
_TEXT	ENDS
; Function compile flags: /Odtp /RTCsu
; File C:\Program Files (x86)\Microsoft Visual Studio\2019\Community\VC\Tools\MSVC\14.23.28105\include\xutility
;	COMDAT ??1?$_Tidy_guard@V?$vector@_WV?$allocator@_W@std@@@std@@@std@@QAE@XZ
_TEXT	SEGMENT
_this$ = -4						; size = 4
??1?$_Tidy_guard@V?$vector@_WV?$allocator@_W@std@@@std@@@std@@QAE@XZ PROC ; std::_Tidy_guard<std::vector<wchar_t,std::allocator<wchar_t> > >::~_Tidy_guard<std::vector<wchar_t,std::allocator<wchar_t> > >, COMDAT
; _this$ = ecx

; 3526 :     ~_Tidy_guard() {

  00000	55		 push	 ebp
  00001	8b ec		 mov	 ebp, esp
  00003	51		 push	 ecx
  00004	c7 45 fc cc cc
	cc cc		 mov	 DWORD PTR [ebp-4], -858993460 ; ccccccccH
  0000b	89 4d fc	 mov	 DWORD PTR _this$[ebp], ecx

; 3527 :         if (_Target) {

  0000e	8b 45 fc	 mov	 eax, DWORD PTR _this$[ebp]
  00011	83 38 00	 cmp	 DWORD PTR [eax], 0
  00014	74 0a		 je	 SHORT $LN1@Tidy_guard

; 3528 :             _Target->_Tidy();

  00016	8b 4d fc	 mov	 ecx, DWORD PTR _this$[ebp]
  00019	8b 09		 mov	 ecx, DWORD PTR [ecx]
  0001b	e8 00 00 00 00	 call	 ?_Tidy@?$vector@_WV?$allocator@_W@std@@@std@@AAEXXZ ; std::vector<wchar_t,std::allocator<wchar_t> >::_Tidy
$LN1@Tidy_guard:

; 3529 :         }
; 3530 :     }

  00020	83 c4 04	 add	 esp, 4
  00023	3b ec		 cmp	 ebp, esp
  00025	e8 00 00 00 00	 call	 __RTC_CheckEsp
  0002a	8b e5		 mov	 esp, ebp
  0002c	5d		 pop	 ebp
  0002d	c3		 ret	 0
??1?$_Tidy_guard@V?$vector@_WV?$allocator@_W@std@@@std@@@std@@QAE@XZ ENDP ; std::_Tidy_guard<std::vector<wchar_t,std::allocator<wchar_t> > >::~_Tidy_guard<std::vector<wchar_t,std::allocator<wchar_t> > >
_TEXT	ENDS
; Function compile flags: /Odtp /RTCsu
; File C:\Program Files (x86)\Microsoft Visual Studio\2019\Community\VC\Tools\MSVC\14.23.28105\include\type_traits
;	COMDAT ??$forward@ABV?$allocator@_W@std@@@std@@YAABV?$allocator@_W@0@ABV10@@Z
_TEXT	SEGMENT
__Arg$ = 8						; size = 4
??$forward@ABV?$allocator@_W@std@@@std@@YAABV?$allocator@_W@0@ABV10@@Z PROC ; std::forward<std::allocator<wchar_t> const &>, COMDAT

; 1420 :     remove_reference_t<_Ty>& _Arg) noexcept { // forward an lvalue as either an lvalue or an rvalue

  00000	55		 push	 ebp
  00001	8b ec		 mov	 ebp, esp

; 1421 :     return static_cast<_Ty&&>(_Arg);

  00003	8b 45 08	 mov	 eax, DWORD PTR __Arg$[ebp]

; 1422 : }

  00006	5d		 pop	 ebp
  00007	c3		 ret	 0
??$forward@ABV?$allocator@_W@std@@@std@@YAABV?$allocator@_W@0@ABV10@@Z ENDP ; std::forward<std::allocator<wchar_t> const &>
_TEXT	ENDS
; Function compile flags: /Odtp /RTCsu
; File C:\Program Files (x86)\Microsoft Visual Studio\2019\Community\VC\Tools\MSVC\14.23.28105\include\xutility
;	COMDAT ??1?$_Tidy_guard@V?$vector@DV?$allocator@D@std@@@std@@@std@@QAE@XZ
_TEXT	SEGMENT
_this$ = -4						; size = 4
??1?$_Tidy_guard@V?$vector@DV?$allocator@D@std@@@std@@@std@@QAE@XZ PROC ; std::_Tidy_guard<std::vector<char,std::allocator<char> > >::~_Tidy_guard<std::vector<char,std::allocator<char> > >, COMDAT
; _this$ = ecx

; 3526 :     ~_Tidy_guard() {

  00000	55		 push	 ebp
  00001	8b ec		 mov	 ebp, esp
  00003	51		 push	 ecx
  00004	c7 45 fc cc cc
	cc cc		 mov	 DWORD PTR [ebp-4], -858993460 ; ccccccccH
  0000b	89 4d fc	 mov	 DWORD PTR _this$[ebp], ecx

; 3527 :         if (_Target) {

  0000e	8b 45 fc	 mov	 eax, DWORD PTR _this$[ebp]
  00011	83 38 00	 cmp	 DWORD PTR [eax], 0
  00014	74 0a		 je	 SHORT $LN1@Tidy_guard

; 3528 :             _Target->_Tidy();

  00016	8b 4d fc	 mov	 ecx, DWORD PTR _this$[ebp]
  00019	8b 09		 mov	 ecx, DWORD PTR [ecx]
  0001b	e8 00 00 00 00	 call	 ?_Tidy@?$vector@DV?$allocator@D@std@@@std@@AAEXXZ ; std::vector<char,std::allocator<char> >::_Tidy
$LN1@Tidy_guard:

; 3529 :         }
; 3530 :     }

  00020	83 c4 04	 add	 esp, 4
  00023	3b ec		 cmp	 ebp, esp
  00025	e8 00 00 00 00	 call	 __RTC_CheckEsp
  0002a	8b e5		 mov	 esp, ebp
  0002c	5d		 pop	 ebp
  0002d	c3		 ret	 0
??1?$_Tidy_guard@V?$vector@DV?$allocator@D@std@@@std@@@std@@QAE@XZ ENDP ; std::_Tidy_guard<std::vector<char,std::allocator<char> > >::~_Tidy_guard<std::vector<char,std::allocator<char> > >
_TEXT	ENDS
; Function compile flags: /Odtp /RTCsu
; File C:\Program Files (x86)\Microsoft Visual Studio\2019\Community\VC\Tools\MSVC\14.23.28105\include\type_traits
;	COMDAT ??$forward@ABV?$allocator@D@std@@@std@@YAABV?$allocator@D@0@ABV10@@Z
_TEXT	SEGMENT
__Arg$ = 8						; size = 4
??$forward@ABV?$allocator@D@std@@@std@@YAABV?$allocator@D@0@ABV10@@Z PROC ; std::forward<std::allocator<char> const &>, COMDAT

; 1420 :     remove_reference_t<_Ty>& _Arg) noexcept { // forward an lvalue as either an lvalue or an rvalue

  00000	55		 push	 ebp
  00001	8b ec		 mov	 ebp, esp

; 1421 :     return static_cast<_Ty&&>(_Arg);

  00003	8b 45 08	 mov	 eax, DWORD PTR __Arg$[ebp]

; 1422 : }

  00006	5d		 pop	 ebp
  00007	c3		 ret	 0
??$forward@ABV?$allocator@D@std@@@std@@YAABV?$allocator@D@0@ABV10@@Z ENDP ; std::forward<std::allocator<char> const &>
_TEXT	ENDS
; Function compile flags: /Odtp /RTCsu
; File C:\Program Files (x86)\Microsoft Visual Studio\2019\Community\VC\Tools\MSVC\14.23.28105\include\xmemory
;	COMDAT ??$_Deallocate_plain@V?$allocator@U_Container_proxy@std@@@std@@@std@@YAXAAV?$allocator@U_Container_proxy@std@@@0@QAU_Container_proxy@0@@Z
_TEXT	SEGMENT
__$EHRec$ = -12						; size = 12
__Al$ = 8						; size = 4
__Ptr$ = 12						; size = 4
??$_Deallocate_plain@V?$allocator@U_Container_proxy@std@@@std@@@std@@YAXAAV?$allocator@U_Container_proxy@std@@@0@QAU_Container_proxy@0@@Z PROC ; std::_Deallocate_plain<std::allocator<std::_Container_proxy> >, COMDAT

; 1081 : void _Deallocate_plain(_Alloc& _Al, typename _Alloc::value_type* const _Ptr) noexcept {

  00000	55		 push	 ebp
  00001	8b ec		 mov	 ebp, esp
  00003	6a ff		 push	 -1
  00005	68 00 00 00 00	 push	 __ehhandler$??$_Deallocate_plain@V?$allocator@U_Container_proxy@std@@@std@@@std@@YAXAAV?$allocator@U_Container_proxy@std@@@0@QAU_Container_proxy@0@@Z
  0000a	64 a1 00 00 00
	00		 mov	 eax, DWORD PTR fs:0
  00010	50		 push	 eax
  00011	a1 00 00 00 00	 mov	 eax, DWORD PTR ___security_cookie
  00016	33 c5		 xor	 eax, ebp
  00018	50		 push	 eax
  00019	8d 45 f4	 lea	 eax, DWORD PTR __$EHRec$[ebp]
  0001c	64 a3 00 00 00
	00		 mov	 DWORD PTR fs:0, eax

; 1082 :     // deallocate a plain pointer using an allocator
; 1083 :     using _Alloc_traits = allocator_traits<_Alloc>;
; 1084 :     if constexpr (is_same_v<_Alloc_ptr_t<_Alloc>, typename _Alloc::value_type*>) {
; 1085 :         _Alloc_traits::deallocate(_Al, _Ptr, 1);

  00022	6a 01		 push	 1
  00024	8b 45 0c	 mov	 eax, DWORD PTR __Ptr$[ebp]
  00027	50		 push	 eax
  00028	8b 4d 08	 mov	 ecx, DWORD PTR __Al$[ebp]
  0002b	51		 push	 ecx
  0002c	e8 00 00 00 00	 call	 ?deallocate@?$_Default_allocator_traits@V?$allocator@U_Container_proxy@std@@@std@@@std@@SAXAAV?$allocator@U_Container_proxy@std@@@2@QAU_Container_proxy@2@I@Z ; std::_Default_allocator_traits<std::allocator<std::_Container_proxy> >::deallocate
  00031	83 c4 0c	 add	 esp, 12			; 0000000cH

; 1086 :     } else {
; 1087 :         using _Ptr_traits = pointer_traits<_Alloc_ptr_t<_Alloc>>;
; 1088 :         _Alloc_traits::deallocate(_Al, _Ptr_traits::pointer_to(*_Ptr), 1);
; 1089 :     }
; 1090 : }

  00034	8b 4d f4	 mov	 ecx, DWORD PTR __$EHRec$[ebp]
  00037	64 89 0d 00 00
	00 00		 mov	 DWORD PTR fs:0, ecx
  0003e	59		 pop	 ecx
  0003f	83 c4 0c	 add	 esp, 12			; 0000000cH
  00042	3b ec		 cmp	 ebp, esp
  00044	e8 00 00 00 00	 call	 __RTC_CheckEsp
  00049	8b e5		 mov	 esp, ebp
  0004b	5d		 pop	 ebp
  0004c	c3		 ret	 0
_TEXT	ENDS
;	COMDAT text$x
text$x	SEGMENT
__ehhandler$??$_Deallocate_plain@V?$allocator@U_Container_proxy@std@@@std@@@std@@YAXAAV?$allocator@U_Container_proxy@std@@@0@QAU_Container_proxy@0@@Z:
  00000	8b 54 24 08	 mov	 edx, DWORD PTR [esp+8]
  00004	8d 42 0c	 lea	 eax, DWORD PTR [edx+12]
  00007	8b 4a fc	 mov	 ecx, DWORD PTR [edx-4]
  0000a	33 c8		 xor	 ecx, eax
  0000c	e8 00 00 00 00	 call	 @__security_check_cookie@4
  00011	b8 00 00 00 00	 mov	 eax, OFFSET __ehfuncinfo$??$_Deallocate_plain@V?$allocator@U_Container_proxy@std@@@std@@@std@@YAXAAV?$allocator@U_Container_proxy@std@@@0@QAU_Container_proxy@0@@Z
  00016	e9 00 00 00 00	 jmp	 ___CxxFrameHandler3
text$x	ENDS
??$_Deallocate_plain@V?$allocator@U_Container_proxy@std@@@std@@@std@@YAXAAV?$allocator@U_Container_proxy@std@@@0@QAU_Container_proxy@0@@Z ENDP ; std::_Deallocate_plain<std::allocator<std::_Container_proxy> >
; Function compile flags: /Odtp /RTCsu
; File C:\Program Files (x86)\Microsoft Visual Studio\2019\Community\VC\Tools\MSVC\14.23.28105\include\algorithm
;	COMDAT ??$transform@PADV?$_Array_iterator@D$0EAA@@std@@V<lambda_64bcc786594892c1b51529e4ef33a475>@@@std@@YA?AV?$_Array_iterator@D$0EAA@@0@QAD0V10@V<lambda_64bcc786594892c1b51529e4ef33a475>@@@Z
_TEXT	SEGMENT
__UDest$ = -32						; size = 4
__ULast$ = -20						; size = 4
__UFirst$ = -8						; size = 4
___$ReturnUdt$ = 8					; size = 4
__First$ = 12						; size = 4
__Last$ = 16						; size = 4
__Dest$ = 20						; size = 16
__Func$ = 36						; size = 1
??$transform@PADV?$_Array_iterator@D$0EAA@@std@@V<lambda_64bcc786594892c1b51529e4ef33a475>@@@std@@YA?AV?$_Array_iterator@D$0EAA@@0@QAD0V10@V<lambda_64bcc786594892c1b51529e4ef33a475>@@@Z PROC ; std::transform<char *,std::_Array_iterator<char,1024>,<lambda_64bcc786594892c1b51529e4ef33a475> >, COMDAT

; 1305 : _OutIt transform(const _InIt _First, const _InIt _Last, _OutIt _Dest, _Fn _Func) {

  00000	55		 push	 ebp
  00001	8b ec		 mov	 ebp, esp
  00003	83 ec 24	 sub	 esp, 36			; 00000024H
  00006	b8 cc cc cc cc	 mov	 eax, -858993460		; ccccccccH
  0000b	89 45 dc	 mov	 DWORD PTR [ebp-36], eax
  0000e	89 45 e0	 mov	 DWORD PTR [ebp-32], eax
  00011	89 45 e4	 mov	 DWORD PTR [ebp-28], eax
  00014	89 45 e8	 mov	 DWORD PTR [ebp-24], eax
  00017	89 45 ec	 mov	 DWORD PTR [ebp-20], eax
  0001a	89 45 f0	 mov	 DWORD PTR [ebp-16], eax
  0001d	89 45 f4	 mov	 DWORD PTR [ebp-12], eax
  00020	89 45 f8	 mov	 DWORD PTR [ebp-8], eax
  00023	89 45 fc	 mov	 DWORD PTR [ebp-4], eax

; 1306 :     // transform [_First, _Last) with _Func
; 1307 :     _Adl_verify_range(_First, _Last);

  00026	8d 45 10	 lea	 eax, DWORD PTR __Last$[ebp]
  00029	50		 push	 eax
  0002a	8d 4d 0c	 lea	 ecx, DWORD PTR __First$[ebp]
  0002d	51		 push	 ecx
  0002e	e8 00 00 00 00	 call	 ??$_Adl_verify_range@PADPAD@std@@YAXABQAD0@Z ; std::_Adl_verify_range<char *,char *>
  00033	83 c4 08	 add	 esp, 8

; 1308 :     auto _UFirst      = _Get_unwrapped(_First);

  00036	8b 55 0c	 mov	 edx, DWORD PTR __First$[ebp]
  00039	52		 push	 edx
  0003a	e8 00 00 00 00	 call	 ??$_Get_unwrapped@D@std@@YAPADQAD@Z ; std::_Get_unwrapped<char>
  0003f	83 c4 04	 add	 esp, 4
  00042	89 45 f8	 mov	 DWORD PTR __UFirst$[ebp], eax

; 1309 :     const auto _ULast = _Get_unwrapped(_Last);

  00045	8b 45 10	 mov	 eax, DWORD PTR __Last$[ebp]
  00048	50		 push	 eax
  00049	e8 00 00 00 00	 call	 ??$_Get_unwrapped@D@std@@YAPADQAD@Z ; std::_Get_unwrapped<char>
  0004e	83 c4 04	 add	 esp, 4
  00051	89 45 ec	 mov	 DWORD PTR __ULast$[ebp], eax

; 1310 :     auto _UDest       = _Get_unwrapped_n(_Dest, _Idl_distance<_InIt>(_UFirst, _ULast));

  00054	8d 4d ec	 lea	 ecx, DWORD PTR __ULast$[ebp]
  00057	51		 push	 ecx
  00058	8d 55 f8	 lea	 edx, DWORD PTR __UFirst$[ebp]
  0005b	52		 push	 edx
  0005c	e8 00 00 00 00	 call	 ??$_Idl_distance@PADPAD@std@@YAHABQAD0@Z ; std::_Idl_distance<char *,char *>
  00061	83 c4 08	 add	 esp, 8
  00064	50		 push	 eax
  00065	8d 45 14	 lea	 eax, DWORD PTR __Dest$[ebp]
  00068	50		 push	 eax
  00069	e8 00 00 00 00	 call	 ??$_Get_unwrapped_n@V?$_Array_iterator@D$0EAA@@std@@H$0A@@std@@YAPADABV?$_Array_iterator@D$0EAA@@0@H@Z ; std::_Get_unwrapped_n<std::_Array_iterator<char,1024>,int,0>
  0006e	83 c4 08	 add	 esp, 8
  00071	89 45 e0	 mov	 DWORD PTR __UDest$[ebp], eax

; 1311 :     for (; _UFirst != _ULast; ++_UFirst, (void) ++_UDest) {

  00074	eb 12		 jmp	 SHORT $LN4@transform
$LN2@transform:
  00076	8b 4d f8	 mov	 ecx, DWORD PTR __UFirst$[ebp]
  00079	83 c1 01	 add	 ecx, 1
  0007c	89 4d f8	 mov	 DWORD PTR __UFirst$[ebp], ecx
  0007f	8b 55 e0	 mov	 edx, DWORD PTR __UDest$[ebp]
  00082	83 c2 01	 add	 edx, 1
  00085	89 55 e0	 mov	 DWORD PTR __UDest$[ebp], edx
$LN4@transform:
  00088	8b 45 f8	 mov	 eax, DWORD PTR __UFirst$[ebp]
  0008b	3b 45 ec	 cmp	 eax, DWORD PTR __ULast$[ebp]
  0008e	74 16		 je	 SHORT $LN3@transform

; 1312 :         *_UDest = _Func(*_UFirst);

  00090	8b 4d f8	 mov	 ecx, DWORD PTR __UFirst$[ebp]
  00093	0f b6 11	 movzx	 edx, BYTE PTR [ecx]
  00096	52		 push	 edx
  00097	8d 4d 24	 lea	 ecx, DWORD PTR __Func$[ebp]
  0009a	e8 00 00 00 00	 call	 ??R<lambda_64bcc786594892c1b51529e4ef33a475>@@QBEDD@Z ; <lambda_64bcc786594892c1b51529e4ef33a475>::operator()
  0009f	8b 4d e0	 mov	 ecx, DWORD PTR __UDest$[ebp]
  000a2	88 01		 mov	 BYTE PTR [ecx], al

; 1313 :     }

  000a4	eb d0		 jmp	 SHORT $LN2@transform
$LN3@transform:

; 1314 : 
; 1315 :     _Seek_wrapped(_Dest, _UDest);

  000a6	8d 55 e0	 lea	 edx, DWORD PTR __UDest$[ebp]
  000a9	52		 push	 edx
  000aa	8d 45 14	 lea	 eax, DWORD PTR __Dest$[ebp]
  000ad	50		 push	 eax
  000ae	e8 00 00 00 00	 call	 ??$_Seek_wrapped@V?$_Array_iterator@D$0EAA@@std@@PAD@std@@YAXAAV?$_Array_iterator@D$0EAA@@0@ABQAD@Z ; std::_Seek_wrapped<std::_Array_iterator<char,1024>,char *>
  000b3	83 c4 08	 add	 esp, 8

; 1316 :     return _Dest;

  000b6	8b 4d 08	 mov	 ecx, DWORD PTR ___$ReturnUdt$[ebp]
  000b9	8b 55 14	 mov	 edx, DWORD PTR __Dest$[ebp]
  000bc	89 11		 mov	 DWORD PTR [ecx], edx
  000be	8b 45 18	 mov	 eax, DWORD PTR __Dest$[ebp+4]
  000c1	89 41 04	 mov	 DWORD PTR [ecx+4], eax
  000c4	8b 55 1c	 mov	 edx, DWORD PTR __Dest$[ebp+8]
  000c7	89 51 08	 mov	 DWORD PTR [ecx+8], edx
  000ca	8b 45 20	 mov	 eax, DWORD PTR __Dest$[ebp+12]
  000cd	89 41 0c	 mov	 DWORD PTR [ecx+12], eax
  000d0	8b 45 08	 mov	 eax, DWORD PTR ___$ReturnUdt$[ebp]

; 1317 : }

  000d3	52		 push	 edx
  000d4	8b cd		 mov	 ecx, ebp
  000d6	50		 push	 eax
  000d7	8d 15 00 00 00
	00		 lea	 edx, DWORD PTR $LN10@transform
  000dd	e8 00 00 00 00	 call	 @_RTC_CheckStackVars@8
  000e2	58		 pop	 eax
  000e3	5a		 pop	 edx
  000e4	83 c4 24	 add	 esp, 36			; 00000024H
  000e7	3b ec		 cmp	 ebp, esp
  000e9	e8 00 00 00 00	 call	 __RTC_CheckEsp
  000ee	8b e5		 mov	 esp, ebp
  000f0	5d		 pop	 ebp
  000f1	c3		 ret	 0
  000f2	66 90		 npad	 2
$LN10@transform:
  000f4	03 00 00 00	 DD	 3
  000f8	00 00 00 00	 DD	 $LN9@transform
$LN9@transform:
  000fc	f8 ff ff ff	 DD	 -8			; fffffff8H
  00100	04 00 00 00	 DD	 4
  00104	00 00 00 00	 DD	 $LN6@transform
  00108	ec ff ff ff	 DD	 -20			; ffffffecH
  0010c	04 00 00 00	 DD	 4
  00110	00 00 00 00	 DD	 $LN7@transform
  00114	e0 ff ff ff	 DD	 -32			; ffffffe0H
  00118	04 00 00 00	 DD	 4
  0011c	00 00 00 00	 DD	 $LN8@transform
$LN8@transform:
  00120	5f		 DB	 95			; 0000005fH
  00121	55		 DB	 85			; 00000055H
  00122	44		 DB	 68			; 00000044H
  00123	65		 DB	 101			; 00000065H
  00124	73		 DB	 115			; 00000073H
  00125	74		 DB	 116			; 00000074H
  00126	00		 DB	 0
$LN7@transform:
  00127	5f		 DB	 95			; 0000005fH
  00128	55		 DB	 85			; 00000055H
  00129	4c		 DB	 76			; 0000004cH
  0012a	61		 DB	 97			; 00000061H
  0012b	73		 DB	 115			; 00000073H
  0012c	74		 DB	 116			; 00000074H
  0012d	00		 DB	 0
$LN6@transform:
  0012e	5f		 DB	 95			; 0000005fH
  0012f	55		 DB	 85			; 00000055H
  00130	46		 DB	 70			; 00000046H
  00131	69		 DB	 105			; 00000069H
  00132	72		 DB	 114			; 00000072H
  00133	73		 DB	 115			; 00000073H
  00134	74		 DB	 116			; 00000074H
  00135	00		 DB	 0
??$transform@PADV?$_Array_iterator@D$0EAA@@std@@V<lambda_64bcc786594892c1b51529e4ef33a475>@@@std@@YA?AV?$_Array_iterator@D$0EAA@@0@QAD0V10@V<lambda_64bcc786594892c1b51529e4ef33a475>@@@Z ENDP ; std::transform<char *,std::_Array_iterator<char,1024>,<lambda_64bcc786594892c1b51529e4ef33a475> >
_TEXT	ENDS
; Function compile flags: /Odtp /RTCsu
; File C:\Program Files (x86)\Microsoft Visual Studio\2019\Community\VC\Tools\MSVC\14.23.28105\include\xutility
;	COMDAT ??$_Pass_fn@V<lambda_64bcc786594892c1b51529e4ef33a475>@@$0A@@std@@YA?AV<lambda_64bcc786594892c1b51529e4ef33a475>@@V1@@Z
_TEXT	SEGMENT
___$ReturnUdt$ = 8					; size = 4
__Val$ = 12						; size = 1
??$_Pass_fn@V<lambda_64bcc786594892c1b51529e4ef33a475>@@$0A@@std@@YA?AV<lambda_64bcc786594892c1b51529e4ef33a475>@@V1@@Z PROC ; std::_Pass_fn<<lambda_64bcc786594892c1b51529e4ef33a475>,0>, COMDAT

; 55   : constexpr _Fn _Pass_fn(_Fn _Val) { // pass functor by value

  00000	55		 push	 ebp
  00001	8b ec		 mov	 ebp, esp

; 56   :     return _Val;

  00003	8b 45 08	 mov	 eax, DWORD PTR ___$ReturnUdt$[ebp]

; 57   : }

  00006	5d		 pop	 ebp
  00007	c3		 ret	 0
??$_Pass_fn@V<lambda_64bcc786594892c1b51529e4ef33a475>@@$0A@@std@@YA?AV<lambda_64bcc786594892c1b51529e4ef33a475>@@V1@@Z ENDP ; std::_Pass_fn<<lambda_64bcc786594892c1b51529e4ef33a475>,0>
_TEXT	ENDS
; Function compile flags: /Odtp /RTCsu
; File C:\Program Files (x86)\Microsoft Visual Studio\2019\Community\VC\Tools\MSVC\14.23.28105\include\xutility
;	COMDAT ?_Unwrapped@?$_Array_iterator@D$0EAA@@std@@QBEPADXZ
_TEXT	SEGMENT
_this$ = -4						; size = 4
?_Unwrapped@?$_Array_iterator@D$0EAA@@std@@QBEPADXZ PROC ; std::_Array_iterator<char,1024>::_Unwrapped, COMDAT
; _this$ = ecx

; 1551 :     _NODISCARD constexpr pointer _Unwrapped() const {

  00000	55		 push	 ebp
  00001	8b ec		 mov	 ebp, esp
  00003	51		 push	 ecx
  00004	c7 45 fc cc cc
	cc cc		 mov	 DWORD PTR [ebp-4], -858993460 ; ccccccccH
  0000b	89 4d fc	 mov	 DWORD PTR _this$[ebp], ecx

; 1552 :         return const_cast<pointer>(_Mybase::_Unwrapped());

  0000e	8b 4d fc	 mov	 ecx, DWORD PTR _this$[ebp]
  00011	e8 00 00 00 00	 call	 ?_Unwrapped@?$_Array_const_iterator@D$0EAA@@std@@QBEPBDXZ ; std::_Array_const_iterator<char,1024>::_Unwrapped

; 1553 :     }

  00016	83 c4 04	 add	 esp, 4
  00019	3b ec		 cmp	 ebp, esp
  0001b	e8 00 00 00 00	 call	 __RTC_CheckEsp
  00020	8b e5		 mov	 esp, ebp
  00022	5d		 pop	 ebp
  00023	c3		 ret	 0
?_Unwrapped@?$_Array_iterator@D$0EAA@@std@@QBEPADXZ ENDP ; std::_Array_iterator<char,1024>::_Unwrapped
_TEXT	ENDS
; Function compile flags: /Odtp /RTCsu
; File C:\Program Files (x86)\Microsoft Visual Studio\2019\Community\VC\Tools\MSVC\14.23.28105\include\xutility
;	COMDAT ??0?$_Array_iterator@D$0EAA@@std@@QAE@PADI@Z
_TEXT	SEGMENT
_this$ = -4						; size = 4
__Parg$ = 8						; size = 4
__Off$ = 12						; size = 4
??0?$_Array_iterator@D$0EAA@@std@@QAE@PADI@Z PROC	; std::_Array_iterator<char,1024>::_Array_iterator<char,1024>, COMDAT
; _this$ = ecx

; 1489 :     _CONSTEXPR17 explicit _Array_iterator(pointer _Parg, size_t _Off = 0) : _Mybase(_Parg, _Off) {}

  00000	55		 push	 ebp
  00001	8b ec		 mov	 ebp, esp
  00003	51		 push	 ecx
  00004	c7 45 fc cc cc
	cc cc		 mov	 DWORD PTR [ebp-4], -858993460 ; ccccccccH
  0000b	89 4d fc	 mov	 DWORD PTR _this$[ebp], ecx
  0000e	8b 45 0c	 mov	 eax, DWORD PTR __Off$[ebp]
  00011	50		 push	 eax
  00012	8b 4d 08	 mov	 ecx, DWORD PTR __Parg$[ebp]
  00015	51		 push	 ecx
  00016	8b 4d fc	 mov	 ecx, DWORD PTR _this$[ebp]
  00019	e8 00 00 00 00	 call	 ??0?$_Array_const_iterator@D$0EAA@@std@@QAE@PBDI@Z ; std::_Array_const_iterator<char,1024>::_Array_const_iterator<char,1024>
  0001e	8b 45 fc	 mov	 eax, DWORD PTR _this$[ebp]
  00021	83 c4 04	 add	 esp, 4
  00024	3b ec		 cmp	 ebp, esp
  00026	e8 00 00 00 00	 call	 __RTC_CheckEsp
  0002b	8b e5		 mov	 esp, ebp
  0002d	5d		 pop	 ebp
  0002e	c2 08 00	 ret	 8
??0?$_Array_iterator@D$0EAA@@std@@QAE@PADI@Z ENDP	; std::_Array_iterator<char,1024>::_Array_iterator<char,1024>
_TEXT	ENDS
; Function compile flags: /Odtp /RTCsu
; File C:\Program Files (x86)\Microsoft Visual Studio\2019\Community\VC\Tools\MSVC\14.23.28105\include\xutility
;	COMDAT ?_Seek_to@?$_Array_const_iterator@D$0EAA@@std@@QAEXPBD@Z
_TEXT	SEGMENT
_this$ = -4						; size = 4
__It$ = 8						; size = 4
?_Seek_to@?$_Array_const_iterator@D$0EAA@@std@@QAEXPBD@Z PROC ; std::_Array_const_iterator<char,1024>::_Seek_to, COMDAT
; _this$ = ecx

; 1449 :     constexpr void _Seek_to(pointer _It) {

  00000	55		 push	 ebp
  00001	8b ec		 mov	 ebp, esp
  00003	51		 push	 ecx
  00004	c7 45 fc cc cc
	cc cc		 mov	 DWORD PTR [ebp-4], -858993460 ; ccccccccH
  0000b	89 4d fc	 mov	 DWORD PTR _this$[ebp], ecx

; 1450 :         _Idx = static_cast<size_t>(_It - _Ptr);

  0000e	8b 45 fc	 mov	 eax, DWORD PTR _this$[ebp]
  00011	8b 4d 08	 mov	 ecx, DWORD PTR __It$[ebp]
  00014	2b 48 08	 sub	 ecx, DWORD PTR [eax+8]
  00017	8b 55 fc	 mov	 edx, DWORD PTR _this$[ebp]
  0001a	89 4a 0c	 mov	 DWORD PTR [edx+12], ecx

; 1451 :     }

  0001d	8b e5		 mov	 esp, ebp
  0001f	5d		 pop	 ebp
  00020	c2 04 00	 ret	 4
?_Seek_to@?$_Array_const_iterator@D$0EAA@@std@@QAEXPBD@Z ENDP ; std::_Array_const_iterator<char,1024>::_Seek_to
_TEXT	ENDS
; Function compile flags: /Odtp /RTCsu
; File C:\Program Files (x86)\Microsoft Visual Studio\2019\Community\VC\Tools\MSVC\14.23.28105\include\xutility
;	COMDAT ?_Unwrapped@?$_Array_const_iterator@D$0EAA@@std@@QBEPBDXZ
_TEXT	SEGMENT
_this$ = -4						; size = 4
?_Unwrapped@?$_Array_const_iterator@D$0EAA@@std@@QBEPBDXZ PROC ; std::_Array_const_iterator<char,1024>::_Unwrapped, COMDAT
; _this$ = ecx

; 1440 :     _NODISCARD constexpr pointer _Unwrapped() const {

  00000	55		 push	 ebp
  00001	8b ec		 mov	 ebp, esp
  00003	51		 push	 ecx
  00004	c7 45 fc cc cc
	cc cc		 mov	 DWORD PTR [ebp-4], -858993460 ; ccccccccH
  0000b	89 4d fc	 mov	 DWORD PTR _this$[ebp], ecx

; 1441 :         return _Ptr + _Idx;

  0000e	8b 45 fc	 mov	 eax, DWORD PTR _this$[ebp]
  00011	8b 40 08	 mov	 eax, DWORD PTR [eax+8]
  00014	8b 4d fc	 mov	 ecx, DWORD PTR _this$[ebp]
  00017	03 41 0c	 add	 eax, DWORD PTR [ecx+12]

; 1442 :     }

  0001a	8b e5		 mov	 esp, ebp
  0001c	5d		 pop	 ebp
  0001d	c3		 ret	 0
?_Unwrapped@?$_Array_const_iterator@D$0EAA@@std@@QBEPBDXZ ENDP ; std::_Array_const_iterator<char,1024>::_Unwrapped
_TEXT	ENDS
; Function compile flags: /Odtp /RTCsu
; File C:\Program Files (x86)\Microsoft Visual Studio\2019\Community\VC\Tools\MSVC\14.23.28105\include\xutility
;	COMDAT ?_Verify_offset@?$_Array_const_iterator@D$0EAA@@std@@QBEXH@Z
_TEXT	SEGMENT
_this$ = -16						; size = 4
__$EHRec$ = -12						; size = 12
__Off$ = 8						; size = 4
?_Verify_offset@?$_Array_const_iterator@D$0EAA@@std@@QBEXH@Z PROC ; std::_Array_const_iterator<char,1024>::_Verify_offset, COMDAT
; _this$ = ecx

; 1364 :     constexpr void _Verify_offset(const ptrdiff_t _Off) const noexcept {

  00000	55		 push	 ebp
  00001	8b ec		 mov	 ebp, esp
  00003	6a ff		 push	 -1
  00005	68 00 00 00 00	 push	 __ehhandler$?_Verify_offset@?$_Array_const_iterator@D$0EAA@@std@@QBEXH@Z
  0000a	64 a1 00 00 00
	00		 mov	 eax, DWORD PTR fs:0
  00010	50		 push	 eax
  00011	51		 push	 ecx
  00012	56		 push	 esi
  00013	c7 45 f0 cc cc
	cc cc		 mov	 DWORD PTR [ebp-16], -858993460 ; ccccccccH
  0001a	a1 00 00 00 00	 mov	 eax, DWORD PTR ___security_cookie
  0001f	33 c5		 xor	 eax, ebp
  00021	50		 push	 eax
  00022	8d 45 f4	 lea	 eax, DWORD PTR __$EHRec$[ebp]
  00025	64 a3 00 00 00
	00		 mov	 DWORD PTR fs:0, eax
  0002b	89 4d f0	 mov	 DWORD PTR _this$[ebp], ecx

; 1365 :         if (_Off != 0) {

  0002e	83 7d 08 00	 cmp	 DWORD PTR __Off$[ebp], 0
  00032	74 6b		 je	 SHORT $LN20@Verify_off
$LN4@Verify_off:

; 1366 :             _STL_VERIFY(_Ptr, "cannot seek value-initialized array iterator");

  00034	8b 45 f0	 mov	 eax, DWORD PTR _this$[ebp]
  00037	83 78 08 00	 cmp	 DWORD PTR [eax+8], 0
  0003b	74 02		 je	 SHORT $LN7@Verify_off
  0003d	eb 5c		 jmp	 SHORT $LN2@Verify_off
$LN7@Verify_off:
  0003f	8b f4		 mov	 esi, esp
  00041	68 00 00 00 00	 push	 OFFSET ??_C@_0CN@MJBFFPFE@cannot?5seek?5value?9initialized?5a@
  00046	68 00 00 00 00	 push	 OFFSET ??_C@_02DKCKIIND@?$CFs@
  0004b	6a 00		 push	 0
  0004d	68 56 05 00 00	 push	 1366			; 00000556H
  00052	68 00 00 00 00	 push	 OFFSET ??_C@_0GJ@GDKIGMBO@C?3?2Program?5Files?5?$CIx86?$CJ?2Microsof@
  00057	6a 02		 push	 2
  00059	ff 15 00 00 00
	00		 call	 DWORD PTR __imp___CrtDbgReport
  0005f	83 c4 18	 add	 esp, 24			; 00000018H
  00062	3b f4		 cmp	 esi, esp
  00064	e8 00 00 00 00	 call	 __RTC_CheckEsp
  00069	83 f8 01	 cmp	 eax, 1
  0006c	75 01		 jne	 SHORT $LN30@Verify_off
  0006e	cc		 int	 3
$LN30@Verify_off:
  0006f	8b f4		 mov	 esi, esp
  00071	6a 00		 push	 0
  00073	68 56 05 00 00	 push	 1366			; 00000556H
  00078	68 00 00 00 00	 push	 OFFSET ??_C@_1NC@OIIHGCJJ@?$AAC?$AA?3?$AA?2?$AAP?$AAr?$AAo?$AAg?$AAr?$AAa?$AAm?$AA?5?$AAF?$AAi?$AAl?$AAe@
  0007d	68 00 00 00 00	 push	 OFFSET ??_C@_1GM@LFGLLPDM@?$AAs?$AAt?$AAd?$AA?3?$AA?3?$AA_?$AAA?$AAr?$AAr?$AAa?$AAy?$AA_?$AAc?$AAo?$AAn@
  00082	68 00 00 00 00	 push	 OFFSET ??_C@_1FO@OCIBMCIE@?$AA?$CC?$AAc?$AAa?$AAn?$AAn?$AAo?$AAt?$AA?5?$AAs?$AAe?$AAe?$AAk?$AA?5?$AAv?$AAa@
  00087	ff 15 00 00 00
	00		 call	 DWORD PTR __imp___invalid_parameter
  0008d	83 c4 14	 add	 esp, 20			; 00000014H
  00090	3b f4		 cmp	 esi, esp
  00092	e8 00 00 00 00	 call	 __RTC_CheckEsp
  00097	33 d2		 xor	 edx, edx
  00099	75 a4		 jne	 SHORT $LN7@Verify_off
$LN2@Verify_off:
  0009b	33 c0		 xor	 eax, eax
  0009d	75 95		 jne	 SHORT $LN4@Verify_off
$LN20@Verify_off:

; 1367 :         }
; 1368 : 
; 1369 :         if (_Off < 0) {

  0009f	83 7d 08 00	 cmp	 DWORD PTR __Off$[ebp], 0
  000a3	7d 6f		 jge	 SHORT $LN23@Verify_off
$LN10@Verify_off:

; 1370 : #pragma warning(suppress : 4146) // unary minus operator applied to unsigned type, result still unsigned
; 1371 :             _STL_VERIFY(_Idx >= -static_cast<size_t>(_Off), "cannot seek array iterator before begin");

  000a5	8b 4d 08	 mov	 ecx, DWORD PTR __Off$[ebp]
  000a8	f7 d9		 neg	 ecx
  000aa	8b 55 f0	 mov	 edx, DWORD PTR _this$[ebp]
  000ad	39 4a 0c	 cmp	 DWORD PTR [edx+12], ecx
  000b0	72 02		 jb	 SHORT $LN13@Verify_off
  000b2	eb 5c		 jmp	 SHORT $LN8@Verify_off
$LN13@Verify_off:
  000b4	8b f4		 mov	 esi, esp
  000b6	68 00 00 00 00	 push	 OFFSET ??_C@_0CI@IAJIKPDP@cannot?5seek?5array?5iterator?5befo@
  000bb	68 00 00 00 00	 push	 OFFSET ??_C@_02DKCKIIND@?$CFs@
  000c0	6a 00		 push	 0
  000c2	68 5b 05 00 00	 push	 1371			; 0000055bH
  000c7	68 00 00 00 00	 push	 OFFSET ??_C@_0GJ@GDKIGMBO@C?3?2Program?5Files?5?$CIx86?$CJ?2Microsof@
  000cc	6a 02		 push	 2
  000ce	ff 15 00 00 00
	00		 call	 DWORD PTR __imp___CrtDbgReport
  000d4	83 c4 18	 add	 esp, 24			; 00000018H
  000d7	3b f4		 cmp	 esi, esp
  000d9	e8 00 00 00 00	 call	 __RTC_CheckEsp
  000de	83 f8 01	 cmp	 eax, 1
  000e1	75 01		 jne	 SHORT $LN31@Verify_off
  000e3	cc		 int	 3
$LN31@Verify_off:
  000e4	8b f4		 mov	 esi, esp
  000e6	6a 00		 push	 0
  000e8	68 5b 05 00 00	 push	 1371			; 0000055bH
  000ed	68 00 00 00 00	 push	 OFFSET ??_C@_1NC@OIIHGCJJ@?$AAC?$AA?3?$AA?2?$AAP?$AAr?$AAo?$AAg?$AAr?$AAa?$AAm?$AA?5?$AAF?$AAi?$AAl?$AAe@
  000f2	68 00 00 00 00	 push	 OFFSET ??_C@_1GM@LFGLLPDM@?$AAs?$AAt?$AAd?$AA?3?$AA?3?$AA_?$AAA?$AAr?$AAr?$AAa?$AAy?$AA_?$AAc?$AAo?$AAn@
  000f7	68 00 00 00 00	 push	 OFFSET ??_C@_1FE@BIMEFIOA@?$AA?$CC?$AAc?$AAa?$AAn?$AAn?$AAo?$AAt?$AA?5?$AAs?$AAe?$AAe?$AAk?$AA?5?$AAa?$AAr@
  000fc	ff 15 00 00 00
	00		 call	 DWORD PTR __imp___invalid_parameter
  00102	83 c4 14	 add	 esp, 20			; 00000014H
  00105	3b f4		 cmp	 esi, esp
  00107	e8 00 00 00 00	 call	 __RTC_CheckEsp
  0010c	33 c9		 xor	 ecx, ecx
  0010e	75 a4		 jne	 SHORT $LN13@Verify_off
$LN8@Verify_off:
  00110	33 d2		 xor	 edx, edx
  00112	75 91		 jne	 SHORT $LN10@Verify_off
$LN23@Verify_off:

; 1372 :         }
; 1373 : 
; 1374 :         if (_Off > 0) {

  00114	83 7d 08 00	 cmp	 DWORD PTR __Off$[ebp], 0
  00118	7e 72		 jle	 SHORT $LN1@Verify_off
$LN16@Verify_off:

; 1375 :             _STL_VERIFY(_Size - _Idx >= static_cast<size_t>(_Off), "cannot seek array iterator after end");

  0011a	8b 45 f0	 mov	 eax, DWORD PTR _this$[ebp]
  0011d	b9 00 04 00 00	 mov	 ecx, 1024		; 00000400H
  00122	2b 48 0c	 sub	 ecx, DWORD PTR [eax+12]
  00125	3b 4d 08	 cmp	 ecx, DWORD PTR __Off$[ebp]
  00128	72 02		 jb	 SHORT $LN19@Verify_off
  0012a	eb 5c		 jmp	 SHORT $LN14@Verify_off
$LN19@Verify_off:
  0012c	8b f4		 mov	 esi, esp
  0012e	68 00 00 00 00	 push	 OFFSET ??_C@_0CF@LAPJIGDB@cannot?5seek?5array?5iterator?5afte@
  00133	68 00 00 00 00	 push	 OFFSET ??_C@_02DKCKIIND@?$CFs@
  00138	6a 00		 push	 0
  0013a	68 5f 05 00 00	 push	 1375			; 0000055fH
  0013f	68 00 00 00 00	 push	 OFFSET ??_C@_0GJ@GDKIGMBO@C?3?2Program?5Files?5?$CIx86?$CJ?2Microsof@
  00144	6a 02		 push	 2
  00146	ff 15 00 00 00
	00		 call	 DWORD PTR __imp___CrtDbgReport
  0014c	83 c4 18	 add	 esp, 24			; 00000018H
  0014f	3b f4		 cmp	 esi, esp
  00151	e8 00 00 00 00	 call	 __RTC_CheckEsp
  00156	83 f8 01	 cmp	 eax, 1
  00159	75 01		 jne	 SHORT $LN32@Verify_off
  0015b	cc		 int	 3
$LN32@Verify_off:
  0015c	8b f4		 mov	 esi, esp
  0015e	6a 00		 push	 0
  00160	68 5f 05 00 00	 push	 1375			; 0000055fH
  00165	68 00 00 00 00	 push	 OFFSET ??_C@_1NC@OIIHGCJJ@?$AAC?$AA?3?$AA?2?$AAP?$AAr?$AAo?$AAg?$AAr?$AAa?$AAm?$AA?5?$AAF?$AAi?$AAl?$AAe@
  0016a	68 00 00 00 00	 push	 OFFSET ??_C@_1GM@LFGLLPDM@?$AAs?$AAt?$AAd?$AA?3?$AA?3?$AA_?$AAA?$AAr?$AAr?$AAa?$AAy?$AA_?$AAc?$AAo?$AAn@
  0016f	68 00 00 00 00	 push	 OFFSET ??_C@_1EO@EJLAFFGM@?$AA?$CC?$AAc?$AAa?$AAn?$AAn?$AAo?$AAt?$AA?5?$AAs?$AAe?$AAe?$AAk?$AA?5?$AAa?$AAr@
  00174	ff 15 00 00 00
	00		 call	 DWORD PTR __imp___invalid_parameter
  0017a	83 c4 14	 add	 esp, 20			; 00000014H
  0017d	3b f4		 cmp	 esi, esp
  0017f	e8 00 00 00 00	 call	 __RTC_CheckEsp
  00184	33 c0		 xor	 eax, eax
  00186	75 a4		 jne	 SHORT $LN19@Verify_off
$LN14@Verify_off:
  00188	33 c9		 xor	 ecx, ecx
  0018a	75 8e		 jne	 SHORT $LN16@Verify_off
$LN1@Verify_off:

; 1376 :         }
; 1377 :     }

  0018c	8b 4d f4	 mov	 ecx, DWORD PTR __$EHRec$[ebp]
  0018f	64 89 0d 00 00
	00 00		 mov	 DWORD PTR fs:0, ecx
  00196	59		 pop	 ecx
  00197	5e		 pop	 esi
  00198	83 c4 10	 add	 esp, 16			; 00000010H
  0019b	3b ec		 cmp	 ebp, esp
  0019d	e8 00 00 00 00	 call	 __RTC_CheckEsp
  001a2	8b e5		 mov	 esp, ebp
  001a4	5d		 pop	 ebp
  001a5	c2 04 00	 ret	 4
_TEXT	ENDS
;	COMDAT text$x
text$x	SEGMENT
__ehhandler$?_Verify_offset@?$_Array_const_iterator@D$0EAA@@std@@QBEXH@Z:
  00000	8b 54 24 08	 mov	 edx, DWORD PTR [esp+8]
  00004	8d 42 0c	 lea	 eax, DWORD PTR [edx+12]
  00007	8b 4a f4	 mov	 ecx, DWORD PTR [edx-12]
  0000a	33 c8		 xor	 ecx, eax
  0000c	e8 00 00 00 00	 call	 @__security_check_cookie@4
  00011	b8 00 00 00 00	 mov	 eax, OFFSET __ehfuncinfo$?_Verify_offset@?$_Array_const_iterator@D$0EAA@@std@@QBEXH@Z
  00016	e9 00 00 00 00	 jmp	 ___CxxFrameHandler3
text$x	ENDS
?_Verify_offset@?$_Array_const_iterator@D$0EAA@@std@@QBEXH@Z ENDP ; std::_Array_const_iterator<char,1024>::_Verify_offset
; Function compile flags: /Odtp /RTCsu
; File C:\Program Files (x86)\Microsoft Visual Studio\2019\Community\VC\Tools\MSVC\14.23.28105\include\xutility
;	COMDAT ??0?$_Array_const_iterator@D$0EAA@@std@@QAE@PBDI@Z
_TEXT	SEGMENT
_this$ = -4						; size = 4
__Parg$ = 8						; size = 4
__Off$ = 12						; size = 4
??0?$_Array_const_iterator@D$0EAA@@std@@QAE@PBDI@Z PROC	; std::_Array_const_iterator<char,1024>::_Array_const_iterator<char,1024>, COMDAT
; _this$ = ecx

; 1326 :     _CONSTEXPR17 explicit _Array_const_iterator(pointer _Parg, size_t _Off = 0) : _Ptr(_Parg), _Idx(_Off) {}

  00000	55		 push	 ebp
  00001	8b ec		 mov	 ebp, esp
  00003	51		 push	 ecx
  00004	c7 45 fc cc cc
	cc cc		 mov	 DWORD PTR [ebp-4], -858993460 ; ccccccccH
  0000b	89 4d fc	 mov	 DWORD PTR _this$[ebp], ecx
  0000e	8b 4d fc	 mov	 ecx, DWORD PTR _this$[ebp]
  00011	e8 00 00 00 00	 call	 ??0_Iterator_base12_compatible@std@@QAE@XZ
  00016	8b 45 fc	 mov	 eax, DWORD PTR _this$[ebp]
  00019	8b 4d 08	 mov	 ecx, DWORD PTR __Parg$[ebp]
  0001c	89 48 08	 mov	 DWORD PTR [eax+8], ecx
  0001f	8b 55 fc	 mov	 edx, DWORD PTR _this$[ebp]
  00022	8b 45 0c	 mov	 eax, DWORD PTR __Off$[ebp]
  00025	89 42 0c	 mov	 DWORD PTR [edx+12], eax
  00028	8b 45 fc	 mov	 eax, DWORD PTR _this$[ebp]
  0002b	83 c4 04	 add	 esp, 4
  0002e	3b ec		 cmp	 ebp, esp
  00030	e8 00 00 00 00	 call	 __RTC_CheckEsp
  00035	8b e5		 mov	 esp, ebp
  00037	5d		 pop	 ebp
  00038	c2 08 00	 ret	 8
??0?$_Array_const_iterator@D$0EAA@@std@@QAE@PBDI@Z ENDP	; std::_Array_const_iterator<char,1024>::_Array_const_iterator<char,1024>
_TEXT	ENDS
; Function compile flags: /Odtp /RTCsu
; File C:\Program Files (x86)\Microsoft Visual Studio\2019\Community\VC\Tools\MSVC\14.23.28105\include\xmemory
;	COMDAT ??$?0$$V@?$_Compressed_pair@U?$default_delete@Vmutex@std@@@std@@PAVmutex@2@$00@std@@QAE@U_Zero_then_variadic_args_t@1@@Z
_TEXT	SEGMENT
_this$ = -4						; size = 4
___formal$ = 8						; size = 1
??$?0$$V@?$_Compressed_pair@U?$default_delete@Vmutex@std@@@std@@PAVmutex@2@$00@std@@QAE@U_Zero_then_variadic_args_t@1@@Z PROC ; std::_Compressed_pair<std::default_delete<std::mutex>,std::mutex *,1>::_Compressed_pair<std::default_delete<std::mutex>,std::mutex *,1><>, COMDAT
; _this$ = ecx

; 1414 :         : _Ty1(), _Myval2(_STD forward<_Other2>(_Val2)...) {}

  00000	55		 push	 ebp
  00001	8b ec		 mov	 ebp, esp
  00003	51		 push	 ecx
  00004	c7 45 fc cc cc
	cc cc		 mov	 DWORD PTR [ebp-4], -858993460 ; ccccccccH
  0000b	89 4d fc	 mov	 DWORD PTR _this$[ebp], ecx
  0000e	8b 45 fc	 mov	 eax, DWORD PTR _this$[ebp]
  00011	c7 00 00 00 00
	00		 mov	 DWORD PTR [eax], 0
  00017	8b 45 fc	 mov	 eax, DWORD PTR _this$[ebp]
  0001a	8b e5		 mov	 esp, ebp
  0001c	5d		 pop	 ebp
  0001d	c2 04 00	 ret	 4
??$?0$$V@?$_Compressed_pair@U?$default_delete@Vmutex@std@@@std@@PAVmutex@2@$00@std@@QAE@U_Zero_then_variadic_args_t@1@@Z ENDP ; std::_Compressed_pair<std::default_delete<std::mutex>,std::mutex *,1>::_Compressed_pair<std::default_delete<std::mutex>,std::mutex *,1><>
_TEXT	ENDS
; Function compile flags: /Odtp /RTCsu
; File C:\Program Files (x86)\Microsoft Visual Studio\2019\Community\VC\Tools\MSVC\14.23.28105\include\xutility
;	COMDAT ??$_Verify_range@D@std@@YAXQBD0@Z
_TEXT	SEGMENT
__$EHRec$ = -12						; size = 12
__First$ = 8						; size = 4
__Last$ = 12						; size = 4
??$_Verify_range@D@std@@YAXQBD0@Z PROC			; std::_Verify_range<char>, COMDAT

; 191  :     const _Ty* const _First, const _Ty* const _Last) noexcept { // special case range verification for pointers

  00000	55		 push	 ebp
  00001	8b ec		 mov	 ebp, esp
  00003	6a ff		 push	 -1
  00005	68 00 00 00 00	 push	 __ehhandler$??$_Verify_range@D@std@@YAXQBD0@Z
  0000a	64 a1 00 00 00
	00		 mov	 eax, DWORD PTR fs:0
  00010	50		 push	 eax
  00011	56		 push	 esi
  00012	a1 00 00 00 00	 mov	 eax, DWORD PTR ___security_cookie
  00017	33 c5		 xor	 eax, ebp
  00019	50		 push	 eax
  0001a	8d 45 f4	 lea	 eax, DWORD PTR __$EHRec$[ebp]
  0001d	64 a3 00 00 00
	00		 mov	 DWORD PTR fs:0, eax
$LN4@Verify_ran:

; 192  :     _STL_VERIFY(_First <= _Last, "transposed pointer range");

  00023	8b 45 08	 mov	 eax, DWORD PTR __First$[ebp]
  00026	3b 45 0c	 cmp	 eax, DWORD PTR __Last$[ebp]
  00029	77 02		 ja	 SHORT $LN7@Verify_ran
  0002b	eb 5c		 jmp	 SHORT $LN2@Verify_ran
$LN7@Verify_ran:
  0002d	8b f4		 mov	 esi, esp
  0002f	68 00 00 00 00	 push	 OFFSET ??_C@_0BJ@HAJGEHKO@transposed?5pointer?5range@
  00034	68 00 00 00 00	 push	 OFFSET ??_C@_02DKCKIIND@?$CFs@
  00039	6a 00		 push	 0
  0003b	68 c0 00 00 00	 push	 192			; 000000c0H
  00040	68 00 00 00 00	 push	 OFFSET ??_C@_0GJ@GDKIGMBO@C?3?2Program?5Files?5?$CIx86?$CJ?2Microsof@
  00045	6a 02		 push	 2
  00047	ff 15 00 00 00
	00		 call	 DWORD PTR __imp___CrtDbgReport
  0004d	83 c4 18	 add	 esp, 24			; 00000018H
  00050	3b f4		 cmp	 esi, esp
  00052	e8 00 00 00 00	 call	 __RTC_CheckEsp
  00057	83 f8 01	 cmp	 eax, 1
  0005a	75 01		 jne	 SHORT $LN11@Verify_ran
  0005c	cc		 int	 3
$LN11@Verify_ran:
  0005d	8b f4		 mov	 esi, esp
  0005f	6a 00		 push	 0
  00061	68 c0 00 00 00	 push	 192			; 000000c0H
  00066	68 00 00 00 00	 push	 OFFSET ??_C@_1NC@OIIHGCJJ@?$AAC?$AA?3?$AA?2?$AAP?$AAr?$AAo?$AAg?$AAr?$AAa?$AAm?$AA?5?$AAF?$AAi?$AAl?$AAe@
  0006b	68 00 00 00 00	 push	 OFFSET ??_C@_1CG@LJCPDKEJ@?$AAs?$AAt?$AAd?$AA?3?$AA?3?$AA_?$AAV?$AAe?$AAr?$AAi?$AAf?$AAy?$AA_?$AAr?$AAa@
  00070	68 00 00 00 00	 push	 OFFSET ??_C@_1DG@FJIKMGFD@?$AA?$CC?$AAt?$AAr?$AAa?$AAn?$AAs?$AAp?$AAo?$AAs?$AAe?$AAd?$AA?5?$AAp?$AAo?$AAi@
  00075	ff 15 00 00 00
	00		 call	 DWORD PTR __imp___invalid_parameter
  0007b	83 c4 14	 add	 esp, 20			; 00000014H
  0007e	3b f4		 cmp	 esi, esp
  00080	e8 00 00 00 00	 call	 __RTC_CheckEsp
  00085	33 d2		 xor	 edx, edx
  00087	75 a4		 jne	 SHORT $LN7@Verify_ran
$LN2@Verify_ran:
  00089	33 c0		 xor	 eax, eax
  0008b	75 96		 jne	 SHORT $LN4@Verify_ran

; 193  : }

  0008d	8b 4d f4	 mov	 ecx, DWORD PTR __$EHRec$[ebp]
  00090	64 89 0d 00 00
	00 00		 mov	 DWORD PTR fs:0, ecx
  00097	59		 pop	 ecx
  00098	5e		 pop	 esi
  00099	83 c4 0c	 add	 esp, 12			; 0000000cH
  0009c	3b ec		 cmp	 ebp, esp
  0009e	e8 00 00 00 00	 call	 __RTC_CheckEsp
  000a3	8b e5		 mov	 esp, ebp
  000a5	5d		 pop	 ebp
  000a6	c3		 ret	 0
_TEXT	ENDS
;	COMDAT text$x
text$x	SEGMENT
__ehhandler$??$_Verify_range@D@std@@YAXQBD0@Z:
  00000	8b 54 24 08	 mov	 edx, DWORD PTR [esp+8]
  00004	8d 42 0c	 lea	 eax, DWORD PTR [edx+12]
  00007	8b 4a f8	 mov	 ecx, DWORD PTR [edx-8]
  0000a	33 c8		 xor	 ecx, eax
  0000c	e8 00 00 00 00	 call	 @__security_check_cookie@4
  00011	b8 00 00 00 00	 mov	 eax, OFFSET __ehfuncinfo$??$_Verify_range@D@std@@YAXQBD0@Z
  00016	e9 00 00 00 00	 jmp	 ___CxxFrameHandler3
text$x	ENDS
??$_Verify_range@D@std@@YAXQBD0@Z ENDP			; std::_Verify_range<char>
