; Listing generated by Microsoft (R) Optimizing Compiler Version 19.23.28106.4 

	TITLE	D:\work\intel\intel_codec\QSVPipeline\rgy_perf_monitor.cpp
	.686P
	.XMM
	include listing.inc
	.model	flat

INCLUDELIB MSVCRTD
INCLUDELIB OLDNAMES

CONST	SEGMENT
$SG114761 DB	'trace', 00H
	ORG $+2
$SG114762 DB	'debug', 00H
	ORG $+2
$SG114763 DB	'more', 00H
	ORG $+3
$SG114764 DB	'info', 00H
	ORG $+3
$SG114765 DB	'warn', 00H
	ORG $+3
$SG114766 DB	'error', 00H
	ORG $+2
$SG114768 DB	'cfr', 00H
$SG114769 DB	'vfr', 00H
$SG114770 DB	'forcecfr', 00H
	ORG $+3
$SG114772 DB	'swr', 00H
$SG114773 DB	'soxr', 00H
	ORG $+3
?list_pref_monitor@@3QBUCX_DESC@@B DD FLAT:$SG115466	; list_pref_monitor
	DD	0ffffffffH
	DD	FLAT:$SG115467
	DD	0cc03H
	DD	FLAT:$SG115468
	DD	01H
	DD	FLAT:$SG115469
	DD	02H
	DD	FLAT:$SG115470
	DD	0400H
	DD	FLAT:$SG115471
	DD	0800H
	DD	FLAT:$SG115472
	DD	08000H
	DD	FLAT:$SG115473
	DD	03000H
	DD	FLAT:$SG115474
	DD	01000H
	DD	FLAT:$SG115475
	DD	02000H
	DD	FLAT:$SG115476
	DD	04000H
	DD	FLAT:$SG115477
	DD	0cH
	DD	FLAT:$SG115478
	DD	04H
	DD	FLAT:$SG115479
	DD	08H
	DD	FLAT:$SG115480
	DD	0300H
	DD	FLAT:$SG115481
	DD	0100H
	DD	FLAT:$SG115482
	DD	0200H
	DD	FLAT:$SG115483
	DD	010H
	DD	FLAT:$SG115484
	DD	020H
	DD	FLAT:$SG115485
	DD	040H
	DD	FLAT:$SG115486
	DD	080H
	DD	FLAT:$SG115487
	DD	020000H
	DD	FLAT:$SG115488
	DD	01e0c0000H
	DD	FLAT:$SG115489
	DD	040000H
	DD	FLAT:$SG115490
	DD	080000H
	DD	FLAT:$SG115491
	DD	04000000H
	DD	FLAT:$SG115492
	DD	04000000H
	DD	FLAT:$SG115493
	DD	010000000H
	DD	FLAT:$SG115494
	DD	02000000H
	DD	FLAT:$SG115495
	DD	0f00000H
	DD	00H
	DD	00H
$SG115466 DB	'all', 00H
$SG115467 DB	'cpu', 00H
$SG115468 DB	'cpu_total', 00H
	ORG $+2
$SG115469 DB	'cpu_kernel', 00H
	ORG $+1
$SG115470 DB	'cpu_main', 00H
	ORG $+3
$SG115471 DB	'cpu_enc', 00H
$SG115472 DB	'cpu_in', 00H
	ORG $+1
$SG115473 DB	'cpu_aud', 00H
$SG115474 DB	'cpu_aud_proc', 00H
	ORG $+3
$SG115475 DB	'cpu_aud_enc', 00H
$SG115476 DB	'cpu_out', 00H
$SG115477 DB	'mem', 00H
$SG115478 DB	'mem_private', 00H
$SG115479 DB	'mem_virtual', 00H
$SG115480 DB	'io', 00H
	ORG $+1
$SG115481 DB	'io_read', 00H
$SG115482 DB	'io_write', 00H
	ORG $+3
$SG115483 DB	'fps', 00H
$SG115484 DB	'fps_avg', 00H
$SG115485 DB	'bitrate', 00H
$SG115486 DB	'bitrate_avg', 00H
$SG115487 DB	'frame_out', 00H
	ORG $+2
$SG115488 DB	'gpu', 00H
$SG115489 DB	'gpu_load', 00H
	ORG $+3
$SG115490 DB	'gpu_clock', 00H
	ORG $+2
$SG115491 DB	'vee_load', 00H
	ORG $+3
$SG115492 DB	'ved_load', 00H
	ORG $+3
$SG115493 DB	'pcie_load', 00H
	ORG $+2
$SG115494 DB	've_clock', 00H
	ORG $+3
$SG115495 DB	'queue', 00H
	ORG $+2
$SG131906 DB	'invalid argument', 00H
	ORG $+3
$SG131907 DB	'%s', 00H
	ORG $+1
$SG118039 DB	',', 00H
	ORG $+2
$SG131908 DB	'C:\Program Files (x86)\Microsoft Visual Studio\2019\Comm'
	DB	'unity\VC\Tools\MSVC\14.23.28105\include\xmemory', 00H
$SG131909 DB	'C', 00H, ':', 00H, '\', 00H, 'P', 00H, 'r', 00H, 'o', 00H
	DB	'g', 00H, 'r', 00H, 'a', 00H, 'm', 00H, ' ', 00H, 'F', 00H, 'i'
	DB	00H, 'l', 00H, 'e', 00H, 's', 00H, ' ', 00H, '(', 00H, 'x', 00H
	DB	'8', 00H, '6', 00H, ')', 00H, '\', 00H, 'M', 00H, 'i', 00H, 'c'
	DB	00H, 'r', 00H, 'o', 00H, 's', 00H, 'o', 00H, 'f', 00H, 't', 00H
	DB	' ', 00H, 'V', 00H, 'i', 00H, 's', 00H, 'u', 00H, 'a', 00H, 'l'
	DB	00H, ' ', 00H, 'S', 00H, 't', 00H, 'u', 00H, 'd', 00H, 'i', 00H
	DB	'o', 00H, '\', 00H, '2', 00H, '0', 00H, '1', 00H, '9', 00H, '\'
	DB	00H, 'C', 00H, 'o', 00H, 'm', 00H, 'm', 00H, 'u', 00H, 'n', 00H
	DB	'i', 00H, 't', 00H, 'y', 00H, '\', 00H, 'V', 00H, 'C', 00H, '\'
	DB	00H, 'T', 00H, 'o', 00H, 'o', 00H, 'l', 00H, 's', 00H, '\', 00H
	DB	'M', 00H, 'S', 00H, 'V', 00H, 'C', 00H, '\', 00H, '1', 00H, '4'
	DB	00H, '.', 00H, '2', 00H, '3', 00H, '.', 00H, '2', 00H, '8', 00H
	DB	'1', 00H, '0', 00H, '5', 00H, '\', 00H, 'i', 00H, 'n', 00H, 'c'
	DB	00H, 'l', 00H, 'u', 00H, 'd', 00H, 'e', 00H, '\', 00H, 'x', 00H
	DB	'm', 00H, 'e', 00H, 'm', 00H, 'o', 00H, 'r', 00H, 'y', 00H, 00H
	DB	00H
$SG131910 DB	's', 00H, 't', 00H, 'd', 00H, ':', 00H, ':', 00H, '_', 00H
	DB	'A', 00H, 'l', 00H, 'l', 00H, 'o', 00H, 'c', 00H, 'a', 00H, 't'
	DB	00H, 'e', 00H, '_', 00H, 'm', 00H, 'a', 00H, 'n', 00H, 'u', 00H
	DB	'a', 00H, 'l', 00H, 'l', 00H, 'y', 00H, '_', 00H, 'v', 00H, 'e'
	DB	00H, 'c', 00H, 't', 00H, 'o', 00H, 'r', 00H, '_', 00H, 'a', 00H
	DB	'l', 00H, 'i', 00H, 'g', 00H, 'n', 00H, 'e', 00H, 'd', 00H, 00H
	DB	00H
	ORG $+2
$SG131911 DB	'"', 00H, 'i', 00H, 'n', 00H, 'v', 00H, 'a', 00H, 'l', 00H
	DB	'i', 00H, 'd', 00H, ' ', 00H, 'a', 00H, 'r', 00H, 'g', 00H, 'u'
	DB	00H, 'm', 00H, 'e', 00H, 'n', 00H, 't', 00H, '"', 00H, 00H, 00H
	ORG $+2
$SG132058 DB	'C:\Program Files (x86)\Microsoft Visual Studio\2019\Comm'
	DB	'unity\VC\Tools\MSVC\14.23.28105\include\xlocale', 00H
$SG118036 DB	'none', 00H
	ORG $+3
$SG118157 DB	0aH, 0aH, 00H
	ORG $+1
$SG118171 DB	'QSVEnc.auo', 00H
	ORG $+1
$SG118175 DB	'PERF_MONITOR_SRC', 00H
	ORG $+3
$SG118176 DB	'PERF_MONITOR_PYW', 00H
	ORG $+3
$SG118180 DB	'wb', 00H
	ORG $+1
$SG118192 DB	',cpu (%)', 00H
	ORG $+3
$SG118194 DB	',cpu kernel (%)', 00H
$SG118196 DB	',cpu main thread (%)', 00H
	ORG $+3
$SG118198 DB	',cpu enc thread (%)', 00H
$SG118200 DB	',cpu aud proc thread (%)', 00H
	ORG $+3
$SG118202 DB	',cpu aud enc thread (%)', 00H
$SG118204 DB	',cpu in thread (%)', 00H
	ORG $+1
$SG118206 DB	',cpu out thread (%)', 00H
$SG118208 DB	',gpu load (%)', 00H
	ORG $+2
$SG118210 DB	',gpu clock (MHz)', 00H
	ORG $+3
$SG118212 DB	',mfx load (%)', 00H
	ORG $+2
$SG118214 DB	',video encoder load (%)', 00H
$SG118216 DB	',video decoder load (%)', 00H
$SG118218 DB	',video engine clock (MHz)', 00H
	ORG $+2
$SG118220 DB	',pcie link,pcie tx, pci rx', 00H
	ORG $+1
$SG118222 DB	',queue vid in', 00H
	ORG $+2
$SG118224 DB	',queue aud in', 00H
	ORG $+2
$SG118226 DB	',queue vid out', 00H
	ORG $+1
$SG118228 DB	',queue aud out', 00H
	ORG $+1
$SG118230 DB	',mem private (MB)', 00H
	ORG $+2
$SG118232 DB	',mem virtual (MB)', 00H
	ORG $+2
$SG118234 DB	',frame in', 00H
	ORG $+2
$SG118236 DB	',frame out', 00H
	ORG $+1
$SG118238 DB	',enc speed (fps)', 00H
	ORG $+3
$SG118240 DB	',enc speed avg (fps)', 00H
	ORG $+3
$SG118242 DB	',bitrate (kbps)', 00H
$SG118244 DB	',bitrate avg (kbps)', 00H
$SG118246 DB	',read (MB/s)', 00H
	ORG $+3
$SG118248 DB	',write (MB/s)', 00H
	ORG $+2
$SG118249 DB	0aH, 00H
	ORG $+2
$SG118976 DB	'a', 00H
	ORG $+2
$SG118978 DB	'Failed to open performance monitor log file: %s', 0aH, 00H
	ORG $+3
$SG118979 DB	'performance monitoring disabled.', 0aH, 00H
	ORG $+2
$SG118983 DB	'qsvencc_perf_monitor_%d.pyw', 00H
$SG118984 DB	'python', 00H
	ORG $+1
$SG118985 DB	'"', 00H
	ORG $+2
$SG118986 DB	'"', 00H
	ORG $+2
$SG118987 DB	'"', 00H
	ORG $+2
$SG118988 DB	'"', 00H
	ORG $+2
$SG118991 DB	'Failed to create file qsvencc_perf_monitor.pyw for perfo'
	DB	'rmance monitor plot.', 0aH, 00H
	ORG $+2
$SG118992 DB	'performance monitor plot disabled.', 0aH, 00H
$SG118993 DB	'%d', 00H
	ORG $+1
$SG118994 DB	'-i', 00H
	ORG $+1
$SG118997 DB	'Failed to run performance monitor plot.', 0aH, 00H
	ORG $+3
$SG118998 DB	'performance monitor plot disabled.', 0aH, 00H
$SG118999 DB	'Performace Monitor: %s', 0aH, 00H
$SG119000 DB	'Performace Plot   : %s', 0aH, 00H
$SG119208 DB	'%lf', 00H
$SG119210 DB	',%lf', 00H
	ORG $+3
$SG119212 DB	',%lf', 00H
	ORG $+3
$SG119214 DB	',%lf', 00H
	ORG $+3
$SG119216 DB	',%lf', 00H
	ORG $+3
$SG119218 DB	',%lf', 00H
	ORG $+3
$SG119220 DB	',%lf', 00H
	ORG $+3
$SG119222 DB	',%lf', 00H
	ORG $+3
$SG119224 DB	',%lf', 00H
	ORG $+3
$SG119226 DB	',%lf', 00H
	ORG $+3
$SG119228 DB	',%lf', 00H
	ORG $+3
$SG119230 DB	',%lf', 00H
	ORG $+3
$SG119232 DB	',%lf', 00H
	ORG $+3
$SG119234 DB	',%lf', 00H
	ORG $+3
$SG119236 DB	',%lf', 00H
	ORG $+3
$SG119238 DB	',PCIe %dx%d', 00H
$SG119239 DB	',%lf', 00H
	ORG $+3
$SG119240 DB	',%lf', 00H
	ORG $+3
$SG119242 DB	',%d', 00H
$SG119244 DB	',%d', 00H
$SG119246 DB	',%d', 00H
$SG119248 DB	',%d', 00H
$SG119250 DB	',%.2lf', 00H
	ORG $+1
$SG119252 DB	',%.2lf', 00H
	ORG $+1
$SG119254 DB	',%d', 00H
$SG119256 DB	',%d', 00H
$SG119258 DB	',%lf', 00H
	ORG $+3
$SG119260 DB	',%lf', 00H
	ORG $+3
$SG119262 DB	',%lf', 00H
	ORG $+3
$SG119264 DB	',%lf', 00H
	ORG $+3
$SG119266 DB	',%lf', 00H
	ORG $+3
$SG119268 DB	',%lf', 00H
	ORG $+3
$SG119269 DB	0aH, 00H
	ORG $+2
$SG119290 DB	'Error occured running python for perf-monitor-plot.', 0aH
	DB	00H
	ORG $+3
$SG111756 DB	'Invalid', 00H
$SG111757 DB	'nv12', 00H
	ORG $+3
$SG111758 DB	'yv12', 00H
	ORG $+3
$SG111759 DB	'yuy2', 00H
	ORG $+3
$SG111760 DB	'yuv422', 00H
	ORG $+1
$SG111761 DB	'nv16', 00H
	ORG $+3
$SG111762 DB	'yuv444', 00H
	ORG $+1
$SG111763 DB	'yv12(9bit)', 00H
	ORG $+1
$SG111764 DB	'yv12(10bit)', 00H
$SG111765 DB	'yv12(12bit)', 00H
$SG111766 DB	'yv12(14bit)', 00H
$SG111767 DB	'yv12(16bit)', 00H
$SG111768 DB	'p010', 00H
	ORG $+3
$SG111769 DB	'yuv422(9bit)', 00H
	ORG $+3
$SG111770 DB	'yuv422(10bit)', 00H
	ORG $+2
$SG111771 DB	'yuv422(12bit)', 00H
	ORG $+2
$SG111772 DB	'yuv422(14bit)', 00H
	ORG $+2
$SG111773 DB	'yuv422(16bit)', 00H
	ORG $+2
$SG111774 DB	'p210', 00H
	ORG $+3
$SG111775 DB	'yuv444(9bit)', 00H
	ORG $+3
$SG111776 DB	'yuv444(10bit)', 00H
	ORG $+2
$SG111777 DB	'yuv444(12bit)', 00H
	ORG $+2
$SG111778 DB	'yuv444(14bit)', 00H
	ORG $+2
$SG111779 DB	'yuv444(16bit)', 00H
	ORG $+2
$SG111780 DB	'yuva444', 00H
$SG111781 DB	'yuva444(16bit)', 00H
	ORG $+1
$SG111782 DB	'rgb24r', 00H
	ORG $+1
$SG111783 DB	'rgb32r', 00H
	ORG $+1
$SG111784 DB	'rgb24', 00H
	ORG $+2
$SG111785 DB	'rgb32', 00H
	ORG $+2
$SG111786 DB	'bgr24', 00H
	ORG $+2
$SG111787 DB	'bgr32', 00H
	ORG $+2
$SG111788 DB	'rgb', 00H
$SG111789 DB	'rgba', 00H
	ORG $+3
$SG111790 DB	'gbr', 00H
$SG111791 DB	'gbra', 00H
	ORG $+3
$SG111792 DB	'yc48', 00H
	ORG $+3
$SG111793 DB	'y8', 00H
	ORG $+1
$SG111794 DB	'yc16', 00H
	ORG $+3
$SG112726 DB	'H.264/AVC', 00H
	ORG $+2
$SG112728 DB	'H.265/HEVC', 00H
	ORG $+1
$SG112730 DB	'MPEG2', 00H
	ORG $+2
$SG112732 DB	'MPEG1', 00H
	ORG $+2
$SG112734 DB	'VC-1', 00H
	ORG $+3
$SG112736 DB	'MPEG4', 00H
	ORG $+2
$SG112738 DB	'VP8', 00H
$SG112740 DB	'VP9', 00H
$SG112742 DB	'unknown', 00H
$SG112849 DB	'unknown', 00H
?list_colormatrix@@3QBUCX_DESC@@B DD FLAT:$SG113344	; list_colormatrix
	DD	02H
	DD	FLAT:$SG113345
	DD	07fffffffH
	DD	FLAT:$SG113346
	DD	01H
	DD	FLAT:$SG113347
	DD	06H
	DD	FLAT:$SG113348
	DD	05H
	DD	FLAT:$SG113349
	DD	07H
	DD	FLAT:$SG113350
	DD	08H
	DD	FLAT:$SG113351
	DD	04H
	DD	FLAT:$SG113352
	DD	00H
	DD	FLAT:$SG113353
	DD	09H
	DD	FLAT:$SG113354
	DD	0aH
	DD	FLAT:$SG113355
	DD	0cH
	DD	FLAT:$SG113356
	DD	0dH
	DD	FLAT:$SG113357
	DD	0eH
	DD	FLAT:$SG113358
	DD	0fH
	DD	00H
	DD	00H
$SG113344 DB	'undef', 00H
	ORG $+2
$SG113345 DB	'auto', 00H
	ORG $+3
$SG113346 DB	'bt709', 00H
	ORG $+2
$SG113347 DB	'smpte170m', 00H
	ORG $+2
$SG113348 DB	'bt470bg', 00H
$SG113349 DB	'smpte240m', 00H
	ORG $+2
$SG113350 DB	'YCgCo', 00H
	ORG $+2
$SG113351 DB	'fcc', 00H
$SG113352 DB	'GBR', 00H
$SG113353 DB	'bt2020nc', 00H
	ORG $+3
$SG113354 DB	'bt2020c', 00H
$SG113355 DB	'derived-ncl', 00H
$SG113356 DB	'derived-cl', 00H
	ORG $+1
$SG113357 DB	'ictco', 00H
	ORG $+2
$SG113358 DB	'2100-lms', 00H
	ORG $+3
?list_transfer@@3QBUCX_DESC@@B DD FLAT:$SG113499	; list_transfer
	DD	02H
	DD	FLAT:$SG113500
	DD	07fffffffH
	DD	FLAT:$SG113501
	DD	01H
	DD	FLAT:$SG113502
	DD	06H
	DD	FLAT:$SG113503
	DD	04H
	DD	FLAT:$SG113504
	DD	05H
	DD	FLAT:$SG113505
	DD	07H
	DD	FLAT:$SG113506
	DD	08H
	DD	FLAT:$SG113507
	DD	09H
	DD	FLAT:$SG113508
	DD	0aH
	DD	FLAT:$SG113509
	DD	0bH
	DD	FLAT:$SG113510
	DD	0cH
	DD	FLAT:$SG113511
	DD	0dH
	DD	FLAT:$SG113512
	DD	0eH
	DD	FLAT:$SG113513
	DD	0fH
	DD	FLAT:$SG113514
	DD	010H
	DD	FLAT:$SG113515
	DD	011H
	DD	FLAT:$SG113516
	DD	012H
	DD	00H
	DD	00H
$SG113499 DB	'undef', 00H
	ORG $+2
$SG113500 DB	'auto', 00H
	ORG $+3
$SG113501 DB	'bt709', 00H
	ORG $+2
$SG113502 DB	'smpte170m', 00H
	ORG $+2
$SG113503 DB	'bt470m', 00H
	ORG $+1
$SG113504 DB	'bt470bg', 00H
$SG113505 DB	'smpte240m', 00H
	ORG $+2
$SG113506 DB	'linear', 00H
	ORG $+1
$SG113507 DB	'log100', 00H
	ORG $+1
$SG113508 DB	'log316', 00H
	ORG $+1
$SG113509 DB	'iec61966-2-4', 00H
	ORG $+3
$SG113510 DB	'bt1361e', 00H
$SG113511 DB	'iec61966-2-1', 00H
	ORG $+3
$SG113512 DB	'bt2020-10', 00H
	ORG $+2
$SG113513 DB	'bt2020-12', 00H
	ORG $+2
$SG113514 DB	'smpte2084', 00H
	ORG $+2
$SG113515 DB	'smpte428', 00H
	ORG $+3
$SG113516 DB	'arib-srd-b67', 00H
	ORG $+3
?list_colorprim@@3QBUCX_DESC@@B DD FLAT:$SG113648	; list_colorprim
	DD	02H
	DD	FLAT:$SG113649
	DD	07fffffffH
	DD	FLAT:$SG113650
	DD	01H
	DD	FLAT:$SG113651
	DD	06H
	DD	FLAT:$SG113652
	DD	04H
	DD	FLAT:$SG113653
	DD	05H
	DD	FLAT:$SG113654
	DD	07H
	DD	FLAT:$SG113655
	DD	08H
	DD	FLAT:$SG113656
	DD	09H
	DD	FLAT:$SG113657
	DD	0aH
	DD	FLAT:$SG113658
	DD	0bH
	DD	FLAT:$SG113659
	DD	0cH
	DD	FLAT:$SG113660
	DD	0dH
	DD	00H
	DD	00H
$SG113648 DB	'undef', 00H
	ORG $+2
$SG113649 DB	'auto', 00H
	ORG $+3
$SG113650 DB	'bt709', 00H
	ORG $+2
$SG113651 DB	'smpte170m', 00H
	ORG $+2
$SG113652 DB	'bt470m', 00H
	ORG $+1
$SG113653 DB	'bt470bg', 00H
$SG113654 DB	'smpte240m', 00H
	ORG $+2
$SG113655 DB	'film', 00H
	ORG $+3
$SG113656 DB	'bt2020', 00H
	ORG $+1
$SG113657 DB	'st428', 00H
	ORG $+2
$SG113658 DB	'st431-2', 00H
$SG113659 DB	'st432-1', 00H
$SG113660 DB	'ebu3213-e', 00H
	ORG $+2
?list_videoformat@@3QBUCX_DESC@@B DD FLAT:$SG113662	; list_videoformat
	DD	05H
	DD	FLAT:$SG113663
	DD	02H
	DD	FLAT:$SG113664
	DD	00H
	DD	FLAT:$SG113665
	DD	01H
	DD	FLAT:$SG113666
	DD	03H
	DD	FLAT:$SG113667
	DD	04H
	DD	00H
	DD	00H
$SG113662 DB	'undef', 00H
	ORG $+2
$SG113663 DB	'ntsc', 00H
	ORG $+3
$SG113664 DB	'component', 00H
	ORG $+2
$SG113665 DB	'pal', 00H
$SG113666 DB	'secam', 00H
	ORG $+2
$SG113667 DB	'mac', 00H
$SG113669 DB	'0', 00H
	ORG $+2
$SG113670 DB	'1', 00H
	ORG $+2
$SG113671 DB	'2', 00H
	ORG $+2
$SG113672 DB	'3', 00H
	ORG $+2
$SG113673 DB	'4', 00H
	ORG $+2
$SG113674 DB	'5', 00H
	ORG $+2
$SG113676 DB	'limited', 00H
$SG113677 DB	'full', 00H
	ORG $+3
$SG113678 DB	'tv', 00H
	ORG $+1
$SG113679 DB	'pc', 00H
CONST	ENDS
PUBLIC	?__empty_global_delete@@YAXPAX@Z		; __empty_global_delete
PUBLIC	?__empty_global_delete@@YAXPAXI@Z		; __empty_global_delete
PUBLIC	___local_stdio_printf_options
PUBLIC	__vfprintf_l
PUBLIC	_fprintf
PUBLIC	?max@?$numeric_limits@H@std@@SAHXZ		; std::numeric_limits<int>::max
PUBLIC	??2@YAPAXIPAX@Z					; operator new
PUBLIC	?now@system_clock@chrono@std@@SA?AV?$time_point@Usystem_clock@chrono@std@@V?$duration@_JU?$ratio@$00$0JIJGIA@@std@@@23@@23@XZ ; std::chrono::system_clock::now
PUBLIC	?count@?$duration@_JU?$ratio@$00$0JIJGIA@@std@@@chrono@std@@QBE_JXZ ; std::chrono::duration<__int64,std::ratio<1,10000000> >::count
PUBLIC	??0?$time_point@Usystem_clock@chrono@std@@V?$duration@_JU?$ratio@$00$0JIJGIA@@std@@@23@@chrono@std@@QAE@ABV?$duration@_JU?$ratio@$00$0JIJGIA@@std@@@12@@Z ; std::chrono::time_point<std::chrono::system_clock,std::chrono::duration<__int64,std::ratio<1,10000000> > >::time_point<std::chrono::system_clock,std::chrono::duration<__int64,std::ratio<1,10000000> > >
PUBLIC	?time_since_epoch@?$time_point@Usystem_clock@chrono@std@@V?$duration@_JU?$ratio@$00$0JIJGIA@@std@@@23@@chrono@std@@QBE?AV?$duration@_JU?$ratio@$00$0JIJGIA@@std@@@23@XZ ; std::chrono::time_point<std::chrono::system_clock,std::chrono::duration<__int64,std::ratio<1,10000000> > >::time_since_epoch
PUBLIC	??$?0_JX@?$duration@_JU?$ratio@$00$0JIJGIA@@std@@@chrono@std@@QAE@AB_J@Z ; std::chrono::duration<__int64,std::ratio<1,10000000> >::duration<__int64,std::ratio<1,10000000> ><__int64,void>
PUBLIC	?now@steady_clock@chrono@std@@SA?AV?$time_point@Usteady_clock@chrono@std@@V?$duration@_JU?$ratio@$00$0DLJKMKAA@@std@@@23@@23@XZ ; std::chrono::steady_clock::now
PUBLIC	?count@?$duration@_JU?$ratio@$00$0DLJKMKAA@@std@@@chrono@std@@QBE_JXZ ; std::chrono::duration<__int64,std::ratio<1,1000000000> >::count
PUBLIC	??Y?$duration@_JU?$ratio@$00$0DLJKMKAA@@std@@@chrono@std@@QAEAAV012@ABV012@@Z ; std::chrono::duration<__int64,std::ratio<1,1000000000> >::operator+=
PUBLIC	??Z?$duration@_JU?$ratio@$00$0DLJKMKAA@@std@@@chrono@std@@QAEAAV012@ABV012@@Z ; std::chrono::duration<__int64,std::ratio<1,1000000000> >::operator-=
PUBLIC	??0?$time_point@Usteady_clock@chrono@std@@V?$duration@_JU?$ratio@$00$0DLJKMKAA@@std@@@23@@chrono@std@@QAE@ABV?$duration@_JU?$ratio@$00$0DLJKMKAA@@std@@@12@@Z ; std::chrono::time_point<std::chrono::steady_clock,std::chrono::duration<__int64,std::ratio<1,1000000000> > >::time_point<std::chrono::steady_clock,std::chrono::duration<__int64,std::ratio<1,1000000000> > >
PUBLIC	?time_since_epoch@?$time_point@Usteady_clock@chrono@std@@V?$duration@_JU?$ratio@$00$0DLJKMKAA@@std@@@23@@chrono@std@@QBE?AV?$duration@_JU?$ratio@$00$0DLJKMKAA@@std@@@23@XZ ; std::chrono::time_point<std::chrono::steady_clock,std::chrono::duration<__int64,std::ratio<1,1000000000> > >::time_since_epoch
PUBLIC	??$?0_JX@?$duration@_JU?$ratio@$00$0DLJKMKAA@@std@@@chrono@std@@QAE@AB_J@Z ; std::chrono::duration<__int64,std::ratio<1,1000000000> >::duration<__int64,std::ratio<1,1000000000> ><__int64,void>
PUBLIC	?count@?$duration@_JU?$ratio@$00$00@std@@@chrono@std@@QBE_JXZ ; std::chrono::duration<__int64,std::ratio<1,1> >::count
PUBLIC	?count@?$duration@NU?$ratio@$00$00@std@@@chrono@std@@QBENXZ ; std::chrono::duration<double,std::ratio<1,1> >::count
PUBLIC	?count@?$duration@_JU?$ratio@$00$0DOI@@std@@@chrono@std@@QBE_JXZ ; std::chrono::duration<__int64,std::ratio<1,1000> >::count
PUBLIC	?count@?$duration@NU?$ratio@$00$0DLJKMKAA@@std@@@chrono@std@@QBENXZ ; std::chrono::duration<double,std::ratio<1,1000000000> >::count
PUBLIC	??0exception@std@@QAE@QBDH@Z			; std::exception::exception
PUBLIC	??0exception@std@@QAE@ABV01@@Z			; std::exception::exception
PUBLIC	??1exception@std@@UAE@XZ			; std::exception::~exception
PUBLIC	?what@exception@std@@UBEPBDXZ			; std::exception::what
PUBLIC	??_Gexception@std@@UAEPAXI@Z			; std::exception::`scalar deleting destructor'
PUBLIC	??0bad_alloc@std@@AAE@QBD@Z			; std::bad_alloc::bad_alloc
PUBLIC	??1bad_alloc@std@@UAE@XZ			; std::bad_alloc::~bad_alloc
PUBLIC	??0bad_alloc@std@@QAE@ABV01@@Z			; std::bad_alloc::bad_alloc
PUBLIC	??_Gbad_alloc@std@@UAEPAXI@Z			; std::bad_alloc::`scalar deleting destructor'
PUBLIC	??0bad_array_new_length@std@@QAE@XZ		; std::bad_array_new_length::bad_array_new_length
PUBLIC	??1bad_array_new_length@std@@UAE@XZ		; std::bad_array_new_length::~bad_array_new_length
PUBLIC	??0bad_array_new_length@std@@QAE@ABV01@@Z	; std::bad_array_new_length::bad_array_new_length
PUBLIC	??_Gbad_array_new_length@std@@UAEPAXI@Z		; std::bad_array_new_length::`scalar deleting destructor'
PUBLIC	?_Throw_bad_array_new_length@std@@YAXXZ		; std::_Throw_bad_array_new_length
PUBLIC	?_Allocate@_Default_allocate_traits@std@@SAPAXI@Z ; std::_Default_allocate_traits::_Allocate
PUBLIC	?_Adjust_manually_vector_aligned@std@@YAXAAPAXAAI@Z ; std::_Adjust_manually_vector_aligned
PUBLIC	??$_Convert_size@I@std@@YAII@Z			; std::_Convert_size<unsigned int>
PUBLIC	??0_Container_proxy@std@@QAE@PAU_Container_base12@1@@Z ; std::_Container_proxy::_Container_proxy
PUBLIC	??0_Container_base12@std@@QAE@XZ		; std::_Container_base12::_Container_base12
PUBLIC	?_Orphan_all@_Container_base12@std@@QAEXXZ	; std::_Container_base12::_Orphan_all
PUBLIC	?_Swap_proxy_and_iterators@_Container_base12@std@@QAEXAAU12@@Z ; std::_Container_base12::_Swap_proxy_and_iterators
PUBLIC	?_Release@_Basic_container_proxy_ptr12@std@@QAEXXZ ; std::_Basic_container_proxy_ptr12::_Release
PUBLIC	?_Incref@_Ref_count_base@std@@QAEXXZ		; std::_Ref_count_base::_Incref
PUBLIC	?_Decref@_Ref_count_base@std@@QAEXXZ		; std::_Ref_count_base::_Decref
PUBLIC	?_Decwref@_Ref_count_base@std@@QAEXXZ		; std::_Ref_count_base::_Decwref
PUBLIC	??0thread@std@@QAE@XZ				; std::thread::thread
PUBLIC	??1thread@std@@QAE@XZ				; std::thread::~thread
PUBLIC	??4thread@std@@QAEAAV01@$$QAV01@@Z		; std::thread::operator=
PUBLIC	?joinable@thread@std@@QBE_NXZ			; std::thread::joinable
PUBLIC	?join@thread@std@@QAEXXZ			; std::thread::join
PUBLIC	??$exchange@U_Thrd_imp_t@@U1@@std@@YA?AU_Thrd_imp_t@@AAU1@$$QAU1@@Z ; std::exchange<_Thrd_imp_t,_Thrd_imp_t>
PUBLIC	?length@?$_Narrow_char_traits@DH@std@@SAIQBD@Z	; std::_Narrow_char_traits<char,int>::length
PUBLIC	?copy@?$_Narrow_char_traits@DH@std@@SAPADQADQBDI@Z ; std::_Narrow_char_traits<char,int>::copy
PUBLIC	?move@?$_Narrow_char_traits@DH@std@@SAPADQADQBDI@Z ; std::_Narrow_char_traits<char,int>::move
PUBLIC	?assign@?$_Narrow_char_traits@DH@std@@SAXAADABD@Z ; std::_Narrow_char_traits<char,int>::assign
PUBLIC	??0?$allocator@D@std@@QAE@XZ			; std::allocator<char>::allocator<char>
PUBLIC	?deallocate@?$allocator@D@std@@QAEXQADI@Z	; std::allocator<char>::deallocate
PUBLIC	?allocate@?$allocator@D@std@@QAEPADI@Z		; std::allocator<char>::allocate
PUBLIC	?max_size@?$_Default_allocator_traits@V?$allocator@D@std@@@std@@SAIABV?$allocator@D@2@@Z ; std::_Default_allocator_traits<std::allocator<char> >::max_size
PUBLIC	??0?$_String_val@U?$_Simple_types@D@std@@@std@@QAE@XZ ; std::_String_val<std::_Simple_types<char> >::_String_val<std::_Simple_types<char> >
PUBLIC	?_Myptr@?$_String_val@U?$_Simple_types@D@std@@@std@@QAEPADXZ ; std::_String_val<std::_Simple_types<char> >::_Myptr
PUBLIC	?_Myptr@?$_String_val@U?$_Simple_types@D@std@@@std@@QBEPBDXZ ; std::_String_val<std::_Simple_types<char> >::_Myptr
PUBLIC	?_Large_string_engaged@?$_String_val@U?$_Simple_types@D@std@@@std@@QBE_NXZ ; std::_String_val<std::_Simple_types<char> >::_Large_string_engaged
PUBLIC	?_Check_offset@?$_String_val@U?$_Simple_types@D@std@@@std@@QBEXI@Z ; std::_String_val<std::_Simple_types<char> >::_Check_offset
PUBLIC	?_Xran@?$_String_val@U?$_Simple_types@D@std@@@std@@SAXXZ ; std::_String_val<std::_Simple_types<char> >::_Xran
PUBLIC	??0_Bxty@?$_String_val@U?$_Simple_types@D@std@@@std@@QAE@XZ ; std::_String_val<std::_Simple_types<char> >::_Bxty::_Bxty
PUBLIC	??1_Bxty@?$_String_val@U?$_Simple_types@D@std@@@std@@QAE@XZ ; std::_String_val<std::_Simple_types<char> >::_Bxty::~_Bxty
PUBLIC	??1?$_String_val@U?$_Simple_types@D@std@@@std@@QAE@XZ ; std::_String_val<std::_Simple_types<char> >::~_String_val<std::_Simple_types<char> >
PUBLIC	??0?$basic_string@DU?$char_traits@D@std@@V?$allocator@D@2@@std@@QAE@XZ ; std::basic_string<char,std::char_traits<char>,std::allocator<char> >::basic_string<char,std::char_traits<char>,std::allocator<char> >
PUBLIC	??0?$basic_string@DU?$char_traits@D@std@@V?$allocator@D@2@@std@@QAE@QBD@Z ; std::basic_string<char,std::char_traits<char>,std::allocator<char> >::basic_string<char,std::char_traits<char>,std::allocator<char> >
PUBLIC	??0?$basic_string@DU?$char_traits@D@std@@V?$allocator@D@2@@std@@QAE@$$QAV01@@Z ; std::basic_string<char,std::char_traits<char>,std::allocator<char> >::basic_string<char,std::char_traits<char>,std::allocator<char> >
PUBLIC	?_Move_assign@?$basic_string@DU?$char_traits@D@std@@V?$allocator@D@2@@std@@AAEXAAV12@U_Equal_allocators@2@@Z ; std::basic_string<char,std::char_traits<char>,std::allocator<char> >::_Move_assign
PUBLIC	??4?$basic_string@DU?$char_traits@D@std@@V?$allocator@D@2@@std@@QAEAAV01@$$QAV01@@Z ; std::basic_string<char,std::char_traits<char>,std::allocator<char> >::operator=
PUBLIC	?_Memcpy_val_from@?$basic_string@DU?$char_traits@D@std@@V?$allocator@D@2@@std@@AAEXABV12@@Z ; std::basic_string<char,std::char_traits<char>,std::allocator<char> >::_Memcpy_val_from
PUBLIC	?_Take_contents@?$basic_string@DU?$char_traits@D@std@@V?$allocator@D@2@@std@@AAEXAAV12@U?$integral_constant@_N$00@2@@Z ; std::basic_string<char,std::char_traits<char>,std::allocator<char> >::_Take_contents
PUBLIC	??1?$basic_string@DU?$char_traits@D@std@@V?$allocator@D@2@@std@@QAE@XZ ; std::basic_string<char,std::char_traits<char>,std::allocator<char> >::~basic_string<char,std::char_traits<char>,std::allocator<char> >
PUBLIC	?_Copy_assign@?$basic_string@DU?$char_traits@D@std@@V?$allocator@D@2@@std@@AAEXABV12@U?$integral_constant@_N$0A@@2@@Z ; std::basic_string<char,std::char_traits<char>,std::allocator<char> >::_Copy_assign
PUBLIC	??4?$basic_string@DU?$char_traits@D@std@@V?$allocator@D@2@@std@@QAEAAV01@ABV01@@Z ; std::basic_string<char,std::char_traits<char>,std::allocator<char> >::operator=
PUBLIC	??4?$basic_string@DU?$char_traits@D@std@@V?$allocator@D@2@@std@@QAEAAV01@QBD@Z ; std::basic_string<char,std::char_traits<char>,std::allocator<char> >::operator=
PUBLIC	??Y?$basic_string@DU?$char_traits@D@std@@V?$allocator@D@2@@std@@QAEAAV01@ABV01@@Z ; std::basic_string<char,std::char_traits<char>,std::allocator<char> >::operator+=
PUBLIC	??Y?$basic_string@DU?$char_traits@D@std@@V?$allocator@D@2@@std@@QAEAAV01@QBD@Z ; std::basic_string<char,std::char_traits<char>,std::allocator<char> >::operator+=
PUBLIC	?append@?$basic_string@DU?$char_traits@D@std@@V?$allocator@D@2@@std@@QAEAAV12@ABV12@@Z ; std::basic_string<char,std::char_traits<char>,std::allocator<char> >::append
PUBLIC	?append@?$basic_string@DU?$char_traits@D@std@@V?$allocator@D@2@@std@@QAEAAV12@QBDI@Z ; std::basic_string<char,std::char_traits<char>,std::allocator<char> >::append
PUBLIC	?append@?$basic_string@DU?$char_traits@D@std@@V?$allocator@D@2@@std@@QAEAAV12@QBD@Z ; std::basic_string<char,std::char_traits<char>,std::allocator<char> >::append
PUBLIC	?assign@?$basic_string@DU?$char_traits@D@std@@V?$allocator@D@2@@std@@QAEAAV12@QBDI@Z ; std::basic_string<char,std::char_traits<char>,std::allocator<char> >::assign
PUBLIC	?assign@?$basic_string@DU?$char_traits@D@std@@V?$allocator@D@2@@std@@QAEAAV12@QBD@Z ; std::basic_string<char,std::char_traits<char>,std::allocator<char> >::assign
PUBLIC	?insert@?$basic_string@DU?$char_traits@D@std@@V?$allocator@D@2@@std@@QAEAAV12@IABV12@@Z ; std::basic_string<char,std::char_traits<char>,std::allocator<char> >::insert
PUBLIC	?insert@?$basic_string@DU?$char_traits@D@std@@V?$allocator@D@2@@std@@QAEAAV12@IQBDI@Z ; std::basic_string<char,std::char_traits<char>,std::allocator<char> >::insert
PUBLIC	?c_str@?$basic_string@DU?$char_traits@D@std@@V?$allocator@D@2@@std@@QBEPBDXZ ; std::basic_string<char,std::char_traits<char>,std::allocator<char> >::c_str
PUBLIC	?length@?$basic_string@DU?$char_traits@D@std@@V?$allocator@D@2@@std@@QBEIXZ ; std::basic_string<char,std::char_traits<char>,std::allocator<char> >::length
PUBLIC	?size@?$basic_string@DU?$char_traits@D@std@@V?$allocator@D@2@@std@@QBEIXZ ; std::basic_string<char,std::char_traits<char>,std::allocator<char> >::size
PUBLIC	?max_size@?$basic_string@DU?$char_traits@D@std@@V?$allocator@D@2@@std@@QBEIXZ ; std::basic_string<char,std::char_traits<char>,std::allocator<char> >::max_size
PUBLIC	?capacity@?$basic_string@DU?$char_traits@D@std@@V?$allocator@D@2@@std@@QBEIXZ ; std::basic_string<char,std::char_traits<char>,std::allocator<char> >::capacity
PUBLIC	?_Calculate_growth@?$basic_string@DU?$char_traits@D@std@@V?$allocator@D@2@@std@@CAIIII@Z ; std::basic_string<char,std::char_traits<char>,std::allocator<char> >::_Calculate_growth
PUBLIC	?_Calculate_growth@?$basic_string@DU?$char_traits@D@std@@V?$allocator@D@2@@std@@ABEII@Z ; std::basic_string<char,std::char_traits<char>,std::allocator<char> >::_Calculate_growth
PUBLIC	?_Tidy_init@?$basic_string@DU?$char_traits@D@std@@V?$allocator@D@2@@std@@AAEXXZ ; std::basic_string<char,std::char_traits<char>,std::allocator<char> >::_Tidy_init
PUBLIC	?_Tidy_deallocate@?$basic_string@DU?$char_traits@D@std@@V?$allocator@D@2@@std@@AAEXXZ ; std::basic_string<char,std::char_traits<char>,std::allocator<char> >::_Tidy_deallocate
PUBLIC	?_Xlen@?$basic_string@DU?$char_traits@D@std@@V?$allocator@D@2@@std@@CAXXZ ; std::basic_string<char,std::char_traits<char>,std::allocator<char> >::_Xlen
PUBLIC	?_Swap_proxy_and_iterators@?$basic_string@DU?$char_traits@D@std@@V?$allocator@D@2@@std@@AAEXAAV12@@Z ; std::basic_string<char,std::char_traits<char>,std::allocator<char> >::_Swap_proxy_and_iterators
PUBLIC	?_Getal@?$basic_string@DU?$char_traits@D@std@@V?$allocator@D@2@@std@@AAEAAV?$allocator@D@2@XZ ; std::basic_string<char,std::char_traits<char>,std::allocator<char> >::_Getal
PUBLIC	?_Getal@?$basic_string@DU?$char_traits@D@std@@V?$allocator@D@2@@std@@ABEABV?$allocator@D@2@XZ ; std::basic_string<char,std::char_traits<char>,std::allocator<char> >::_Getal
PUBLIC	?_Get_first@?$_Compressed_pair@V?$allocator@D@std@@V?$_String_val@U?$_Simple_types@D@std@@@2@$00@std@@QAEAAV?$allocator@D@2@XZ ; std::_Compressed_pair<std::allocator<char>,std::_String_val<std::_Simple_types<char> >,1>::_Get_first
PUBLIC	?_Get_first@?$_Compressed_pair@V?$allocator@D@std@@V?$_String_val@U?$_Simple_types@D@std@@@2@$00@std@@QBEABV?$allocator@D@2@XZ ; std::_Compressed_pair<std::allocator<char>,std::_String_val<std::_Simple_types<char> >,1>::_Get_first
PUBLIC	??1?$_Compressed_pair@V?$allocator@D@std@@V?$_String_val@U?$_Simple_types@D@std@@@2@$00@std@@QAE@XZ ; std::_Compressed_pair<std::allocator<char>,std::_String_val<std::_Simple_types<char> >,1>::~_Compressed_pair<std::allocator<char>,std::_String_val<std::_Simple_types<char> >,1>
PUBLIC	??Rfp_deleter@@QBEXPAU_iobuf@@@Z		; fp_deleter::operator()
PUBLIC	??Rhandle_deleter@@QBEXPAX@Z			; handle_deleter::operator()
PUBLIC	??$make_array@W4CspMatrix@@W41@W41@W41@W41@W41@W41@W41@W41@W41@W41@W41@W41@W41@W41@@@YA?AV?$array@W4CspMatrix@@$0O@@std@@$$QAW4CspMatrix@@0000000000000@Z ; make_array<enum CspMatrix,enum CspMatrix,enum CspMatrix,enum CspMatrix,enum CspMatrix,enum CspMatrix,enum CspMatrix,enum CspMatrix,enum CspMatrix,enum CspMatrix,enum CspMatrix,enum CspMatrix,enum CspMatrix,enum CspMatrix,enum CspMatrix>
PUBLIC	??$make_array@W4CspTransfer@@W41@W41@W41@W41@W41@W41@W41@W41@W41@W41@W41@W41@W41@W41@W41@@@YA?AV?$array@W4CspTransfer@@$0P@@std@@$$QAW4CspTransfer@@00000000000000@Z ; make_array<enum CspTransfer,enum CspTransfer,enum CspTransfer,enum CspTransfer,enum CspTransfer,enum CspTransfer,enum CspTransfer,enum CspTransfer,enum CspTransfer,enum CspTransfer,enum CspTransfer,enum CspTransfer,enum CspTransfer,enum CspTransfer,enum CspTransfer,enum CspTransfer>
PUBLIC	??$make_array@W4CspColorprim@@W41@W41@W41@W41@W41@W41@W41@W41@W41@W41@W41@W41@@@YA?AV?$array@W4CspColorprim@@$0M@@std@@$$QAW4CspColorprim@@00000000000@Z ; make_array<enum CspColorprim,enum CspColorprim,enum CspColorprim,enum CspColorprim,enum CspColorprim,enum CspColorprim,enum CspColorprim,enum CspColorprim,enum CspColorprim,enum CspColorprim,enum CspColorprim,enum CspColorprim,enum CspColorprim>
PUBLIC	??$?HDU?$char_traits@D@std@@V?$allocator@D@1@@std@@YA?AV?$basic_string@DU?$char_traits@D@std@@V?$allocator@D@2@@0@$$QAV10@ABV10@@Z ; std::operator+<char,std::char_traits<char>,std::allocator<char> >
PUBLIC	??$?HDU?$char_traits@D@std@@V?$allocator@D@1@@std@@YA?AV?$basic_string@DU?$char_traits@D@std@@V?$allocator@D@2@@0@$$QAV10@0@Z ; std::operator+<char,std::char_traits<char>,std::allocator<char> >
PUBLIC	??0CPerfMonitor@@QAE@XZ				; CPerfMonitor::CPerfMonitor
PUBLIC	?init@CPerfMonitor@@QAEHV?$basic_string@DU?$char_traits@D@std@@V?$allocator@D@2@@std@@PBDHHHV?$unique_ptr@XUhandle_deleter@@@3@V?$shared_ptr@VRGYLog@@@3@PAUCPerfMonitorPrm@@@Z ; CPerfMonitor::init
PUBLIC	??1CPerfMonitor@@QAE@XZ				; CPerfMonitor::~CPerfMonitor
PUBLIC	?SetEncStatus@CPerfMonitor@@QAEXV?$shared_ptr@VEncodeStatus@@@std@@@Z ; CPerfMonitor::SetEncStatus
PUBLIC	?SetThreadHandles@CPerfMonitor@@QAEXPAX0000@Z	; CPerfMonitor::SetThreadHandles
PUBLIC	?clear@CPerfMonitor@@QAEXXZ			; CPerfMonitor::clear
PUBLIC	?createPerfMpnitorPyw@CPerfMonitor@@IAEHPBD@Z	; CPerfMonitor::createPerfMpnitorPyw
PUBLIC	?check@CPerfMonitor@@IAEXXZ			; CPerfMonitor::check
PUBLIC	?run@CPerfMonitor@@IAEXXZ			; CPerfMonitor::run
PUBLIC	?write_header@CPerfMonitor@@IAEXPAU_iobuf@@H@Z	; CPerfMonitor::write_header
PUBLIC	?write@CPerfMonitor@@IAEXPAU_iobuf@@H@Z		; CPerfMonitor::write
PUBLIC	?loader@CPerfMonitor@@KAXPAX@Z			; CPerfMonitor::loader
PUBLIC	?SelectedCounters@CPerfMonitor@@IAE?AV?$basic_string@DU?$char_traits@D@std@@V?$allocator@D@2@@std@@H@Z ; CPerfMonitor::SelectedCounters
PUBLIC	??4?$unique_ptr@XUhandle_deleter@@@std@@QAEAAV01@$$QAV01@@Z ; std::unique_ptr<void,handle_deleter>::operator=
PUBLIC	??1?$unique_ptr@XUhandle_deleter@@@std@@QAE@XZ	; std::unique_ptr<void,handle_deleter>::~unique_ptr<void,handle_deleter>
PUBLIC	?get@?$unique_ptr@XUhandle_deleter@@@std@@QBEPAXXZ ; std::unique_ptr<void,handle_deleter>::get
PUBLIC	??B?$unique_ptr@XUhandle_deleter@@@std@@QBE_NXZ	; std::unique_ptr<void,handle_deleter>::operator bool
PUBLIC	?release@?$unique_ptr@XUhandle_deleter@@@std@@QAEPAXXZ ; std::unique_ptr<void,handle_deleter>::release
PUBLIC	?reset@?$unique_ptr@XUhandle_deleter@@@std@@QAEXPAX@Z ; std::unique_ptr<void,handle_deleter>::reset
PUBLIC	?_Get_first@?$_Compressed_pair@Uhandle_deleter@@PAX$00@std@@QAEAAUhandle_deleter@@XZ ; std::_Compressed_pair<handle_deleter,void *,1>::_Get_first
PUBLIC	??R?$default_delete@VRGYPipeProcess@@@std@@QBEXPAVRGYPipeProcess@@@Z ; std::default_delete<RGYPipeProcess>::operator()
PUBLIC	??4?$unique_ptr@VRGYPipeProcess@@U?$default_delete@VRGYPipeProcess@@@std@@@std@@QAEAAV01@$$QAV01@@Z ; std::unique_ptr<RGYPipeProcess,std::default_delete<RGYPipeProcess> >::operator=
PUBLIC	??1?$unique_ptr@VRGYPipeProcess@@U?$default_delete@VRGYPipeProcess@@@std@@@std@@QAE@XZ ; std::unique_ptr<RGYPipeProcess,std::default_delete<RGYPipeProcess> >::~unique_ptr<RGYPipeProcess,std::default_delete<RGYPipeProcess> >
PUBLIC	??C?$unique_ptr@VRGYPipeProcess@@U?$default_delete@VRGYPipeProcess@@@std@@@std@@QBEPAVRGYPipeProcess@@XZ ; std::unique_ptr<RGYPipeProcess,std::default_delete<RGYPipeProcess> >::operator->
PUBLIC	?get@?$unique_ptr@VRGYPipeProcess@@U?$default_delete@VRGYPipeProcess@@@std@@@std@@QBEPAVRGYPipeProcess@@XZ ; std::unique_ptr<RGYPipeProcess,std::default_delete<RGYPipeProcess> >::get
PUBLIC	??B?$unique_ptr@VRGYPipeProcess@@U?$default_delete@VRGYPipeProcess@@@std@@@std@@QBE_NXZ ; std::unique_ptr<RGYPipeProcess,std::default_delete<RGYPipeProcess> >::operator bool
PUBLIC	?release@?$unique_ptr@VRGYPipeProcess@@U?$default_delete@VRGYPipeProcess@@@std@@@std@@QAEPAVRGYPipeProcess@@XZ ; std::unique_ptr<RGYPipeProcess,std::default_delete<RGYPipeProcess> >::release
PUBLIC	?reset@?$unique_ptr@VRGYPipeProcess@@U?$default_delete@VRGYPipeProcess@@@std@@@std@@QAEXPAVRGYPipeProcess@@@Z ; std::unique_ptr<RGYPipeProcess,std::default_delete<RGYPipeProcess> >::reset
PUBLIC	?_Get_first@?$_Compressed_pair@U?$default_delete@VRGYPipeProcess@@@std@@PAVRGYPipeProcess@@$00@std@@QAEAAU?$default_delete@VRGYPipeProcess@@@2@XZ ; std::_Compressed_pair<std::default_delete<RGYPipeProcess>,RGYPipeProcess *,1>::_Get_first
PUBLIC	?get@?$_Ptr_base@VEncodeStatus@@@std@@IBEPAVEncodeStatus@@XZ ; std::_Ptr_base<EncodeStatus>::get
PUBLIC	??0?$_Ptr_base@VEncodeStatus@@@std@@IAE@XZ	; std::_Ptr_base<EncodeStatus>::_Ptr_base<EncodeStatus>
PUBLIC	?_Decref@?$_Ptr_base@VEncodeStatus@@@std@@IAEXXZ ; std::_Ptr_base<EncodeStatus>::_Decref
PUBLIC	?_Swap@?$_Ptr_base@VEncodeStatus@@@std@@IAEXAAV12@@Z ; std::_Ptr_base<EncodeStatus>::_Swap
PUBLIC	??0?$shared_ptr@VEncodeStatus@@@std@@QAE@XZ	; std::shared_ptr<EncodeStatus>::shared_ptr<EncodeStatus>
PUBLIC	??0?$shared_ptr@VEncodeStatus@@@std@@QAE@ABV01@@Z ; std::shared_ptr<EncodeStatus>::shared_ptr<EncodeStatus>
PUBLIC	??1?$shared_ptr@VEncodeStatus@@@std@@QAE@XZ	; std::shared_ptr<EncodeStatus>::~shared_ptr<EncodeStatus>
PUBLIC	??4?$shared_ptr@VEncodeStatus@@@std@@QAEAAV01@ABV01@@Z ; std::shared_ptr<EncodeStatus>::operator=
PUBLIC	?swap@?$shared_ptr@VEncodeStatus@@@std@@QAEXAAV12@@Z ; std::shared_ptr<EncodeStatus>::swap
PUBLIC	??B?$shared_ptr@VEncodeStatus@@@std@@QBE_NXZ	; std::shared_ptr<EncodeStatus>::operator bool
PUBLIC	??4?$unique_ptr@U_iobuf@@Ufp_deleter@@@std@@QAEAAV01@$$QAV01@@Z ; std::unique_ptr<_iobuf,fp_deleter>::operator=
PUBLIC	??1?$unique_ptr@U_iobuf@@Ufp_deleter@@@std@@QAE@XZ ; std::unique_ptr<_iobuf,fp_deleter>::~unique_ptr<_iobuf,fp_deleter>
PUBLIC	?get@?$unique_ptr@U_iobuf@@Ufp_deleter@@@std@@QBEPAU_iobuf@@XZ ; std::unique_ptr<_iobuf,fp_deleter>::get
PUBLIC	??B?$unique_ptr@U_iobuf@@Ufp_deleter@@@std@@QBE_NXZ ; std::unique_ptr<_iobuf,fp_deleter>::operator bool
PUBLIC	?release@?$unique_ptr@U_iobuf@@Ufp_deleter@@@std@@QAEPAU_iobuf@@XZ ; std::unique_ptr<_iobuf,fp_deleter>::release
PUBLIC	?reset@?$unique_ptr@U_iobuf@@Ufp_deleter@@@std@@QAEXPAU_iobuf@@@Z ; std::unique_ptr<_iobuf,fp_deleter>::reset
PUBLIC	?_Get_first@?$_Compressed_pair@Ufp_deleter@@PAU_iobuf@@$00@std@@QAEAAUfp_deleter@@XZ ; std::_Compressed_pair<fp_deleter,_iobuf *,1>::_Get_first
PUBLIC	?get@?$_Ptr_base@VRGYLog@@@std@@IBEPAVRGYLog@@XZ ; std::_Ptr_base<RGYLog>::get
PUBLIC	??0?$_Ptr_base@VRGYLog@@@std@@IAE@XZ		; std::_Ptr_base<RGYLog>::_Ptr_base<RGYLog>
PUBLIC	?_Decref@?$_Ptr_base@VRGYLog@@@std@@IAEXXZ	; std::_Ptr_base<RGYLog>::_Decref
PUBLIC	?_Swap@?$_Ptr_base@VRGYLog@@@std@@IAEXAAV12@@Z	; std::_Ptr_base<RGYLog>::_Swap
PUBLIC	??0?$shared_ptr@VRGYLog@@@std@@QAE@XZ		; std::shared_ptr<RGYLog>::shared_ptr<RGYLog>
PUBLIC	??0?$shared_ptr@VRGYLog@@@std@@QAE@ABV01@@Z	; std::shared_ptr<RGYLog>::shared_ptr<RGYLog>
PUBLIC	??1?$shared_ptr@VRGYLog@@@std@@QAE@XZ		; std::shared_ptr<RGYLog>::~shared_ptr<RGYLog>
PUBLIC	??4?$shared_ptr@VRGYLog@@@std@@QAEAAV01@ABV01@@Z ; std::shared_ptr<RGYLog>::operator=
PUBLIC	?swap@?$shared_ptr@VRGYLog@@@std@@QAEXAAV12@@Z	; std::shared_ptr<RGYLog>::swap
PUBLIC	?reset@?$shared_ptr@VRGYLog@@@std@@QAEXXZ	; std::shared_ptr<RGYLog>::reset
PUBLIC	?getStartTimeMicroSec@EncodeStatus@@QAE_JXZ	; EncodeStatus::getStartTimeMicroSec
PUBLIC	?getEncStarted@EncodeStatus@@QAE_NXZ		; EncodeStatus::getEncStarted
PUBLIC	?GetEncodeData@EncodeStatus@@QAE?AUEncodeStatusData@@XZ ; EncodeStatus::GetEncodeData
PUBLIC	??$?CVRGYLog@@$0A@@?$shared_ptr@VRGYLog@@@std@@QBEPAVRGYLog@@XZ ; std::shared_ptr<RGYLog>::operator-><RGYLog,0>
PUBLIC	??$?GUsteady_clock@chrono@std@@V?$duration@_JU?$ratio@$00$0DLJKMKAA@@std@@@12@V312@@chrono@std@@YA?AV?$duration@_JU?$ratio@$00$0DLJKMKAA@@std@@@01@ABV?$time_point@Usteady_clock@chrono@std@@V?$duration@_JU?$ratio@$00$0DLJKMKAA@@std@@@23@@01@0@Z ; std::chrono::operator-<std::chrono::steady_clock,std::chrono::duration<__int64,std::ratio<1,1000000000> >,std::chrono::duration<__int64,std::ratio<1,1000000000> > >
PUBLIC	??$?0HX@?$duration@_JU?$ratio@$00$0DOI@@std@@@chrono@std@@QAE@ABH@Z ; std::chrono::duration<__int64,std::ratio<1,1000> >::duration<__int64,std::ratio<1,1000> ><int,void>
PUBLIC	??$?0Uhandle_deleter@@$0A@@?$unique_ptr@XUhandle_deleter@@@std@@QAE@XZ ; std::unique_ptr<void,handle_deleter>::unique_ptr<void,handle_deleter><handle_deleter,0>
PUBLIC	??$?0U?$default_delete@VRGYPipeProcess@@@std@@$0A@@?$unique_ptr@VRGYPipeProcess@@U?$default_delete@VRGYPipeProcess@@@std@@@std@@QAE@XZ ; std::unique_ptr<RGYPipeProcess,std::default_delete<RGYPipeProcess> >::unique_ptr<RGYPipeProcess,std::default_delete<RGYPipeProcess> ><std::default_delete<RGYPipeProcess>,0>
PUBLIC	??$?0Ufp_deleter@@$0A@@?$unique_ptr@U_iobuf@@Ufp_deleter@@@std@@QAE@XZ ; std::unique_ptr<_iobuf,fp_deleter>::unique_ptr<_iobuf,fp_deleter><fp_deleter,0>
PUBLIC	??$move@AAV?$unique_ptr@XUhandle_deleter@@@std@@@std@@YA$$QAV?$unique_ptr@XUhandle_deleter@@@0@AAV10@@Z ; std::move<std::unique_ptr<void,handle_deleter> &>
PUBLIC	??$?0Ufp_deleter@@$0A@@?$unique_ptr@U_iobuf@@Ufp_deleter@@@std@@QAE@PAU_iobuf@@@Z ; std::unique_ptr<_iobuf,fp_deleter>::unique_ptr<_iobuf,fp_deleter><fp_deleter,0>
PUBLIC	??$?0U?$default_delete@VRGYPipeProcess@@@std@@$0A@@?$unique_ptr@VRGYPipeProcess@@U?$default_delete@VRGYPipeProcess@@@std@@@std@@QAE@PAVRGYPipeProcess@@@Z ; std::unique_ptr<RGYPipeProcess,std::default_delete<RGYPipeProcess> >::unique_ptr<RGYPipeProcess,std::default_delete<RGYPipeProcess> ><std::default_delete<RGYPipeProcess>,0>
PUBLIC	??0?$allocator@PBD@std@@QAE@XZ			; std::allocator<char const *>::allocator<char const *>
PUBLIC	?deallocate@?$allocator@PBD@std@@QAEXQAPBDI@Z	; std::allocator<char const *>::deallocate
PUBLIC	?allocate@?$allocator@PBD@std@@QAEPAPBDI@Z	; std::allocator<char const *>::allocate
PUBLIC	?max_size@?$_Default_allocator_traits@V?$allocator@PBD@std@@@std@@SAIABV?$allocator@PBD@2@@Z ; std::_Default_allocator_traits<std::allocator<char const *> >::max_size
PUBLIC	??0?$vector@PBDV?$allocator@PBD@std@@@std@@QAE@XZ ; std::vector<char const *,std::allocator<char const *> >::vector<char const *,std::allocator<char const *> >
PUBLIC	??1?$vector@PBDV?$allocator@PBD@std@@@std@@QAE@XZ ; std::vector<char const *,std::allocator<char const *> >::~vector<char const *,std::allocator<char const *> >
PUBLIC	?push_back@?$vector@PBDV?$allocator@PBD@std@@@std@@QAEXABQBD@Z ; std::vector<char const *,std::allocator<char const *> >::push_back
PUBLIC	?push_back@?$vector@PBDV?$allocator@PBD@std@@@std@@QAEX$$QAPBD@Z ; std::vector<char const *,std::allocator<char const *> >::push_back
PUBLIC	?max_size@?$vector@PBDV?$allocator@PBD@std@@@std@@QBEIXZ ; std::vector<char const *,std::allocator<char const *> >::max_size
PUBLIC	?capacity@?$vector@PBDV?$allocator@PBD@std@@@std@@QBEIXZ ; std::vector<char const *,std::allocator<char const *> >::capacity
PUBLIC	?_Umove@?$vector@PBDV?$allocator@PBD@std@@@std@@AAEPAPBDPAPBD00@Z ; std::vector<char const *,std::allocator<char const *> >::_Umove
PUBLIC	?_Umove_if_noexcept1@?$vector@PBDV?$allocator@PBD@std@@@std@@AAEXPAPBD00U?$integral_constant@_N$00@2@@Z ; std::vector<char const *,std::allocator<char const *> >::_Umove_if_noexcept1
PUBLIC	?_Umove_if_noexcept@?$vector@PBDV?$allocator@PBD@std@@@std@@AAEXPAPBD00@Z ; std::vector<char const *,std::allocator<char const *> >::_Umove_if_noexcept
PUBLIC	?_Destroy@?$vector@PBDV?$allocator@PBD@std@@@std@@AAEXPAPBD0@Z ; std::vector<char const *,std::allocator<char const *> >::_Destroy
PUBLIC	?_Calculate_growth@?$vector@PBDV?$allocator@PBD@std@@@std@@ABEII@Z ; std::vector<char const *,std::allocator<char const *> >::_Calculate_growth
PUBLIC	?_Change_array@?$vector@PBDV?$allocator@PBD@std@@@std@@AAEXQAPBDII@Z ; std::vector<char const *,std::allocator<char const *> >::_Change_array
PUBLIC	?_Tidy@?$vector@PBDV?$allocator@PBD@std@@@std@@AAEXXZ ; std::vector<char const *,std::allocator<char const *> >::_Tidy
PUBLIC	?_Xlength@?$vector@PBDV?$allocator@PBD@std@@@std@@CAXXZ ; std::vector<char const *,std::allocator<char const *> >::_Xlength
PUBLIC	?_Orphan_range@?$vector@PBDV?$allocator@PBD@std@@@std@@ABEXPAPBD0@Z ; std::vector<char const *,std::allocator<char const *> >::_Orphan_range
PUBLIC	?_Getal@?$vector@PBDV?$allocator@PBD@std@@@std@@AAEAAV?$allocator@PBD@2@XZ ; std::vector<char const *,std::allocator<char const *> >::_Getal
PUBLIC	?_Getal@?$vector@PBDV?$allocator@PBD@std@@@std@@ABEABV?$allocator@PBD@2@XZ ; std::vector<char const *,std::allocator<char const *> >::_Getal
PUBLIC	??0?$_Vector_val@U?$_Simple_types@PBD@std@@@std@@QAE@XZ ; std::_Vector_val<std::_Simple_types<char const *> >::_Vector_val<std::_Simple_types<char const *> >
PUBLIC	?_Get_first@?$_Compressed_pair@V?$allocator@PBD@std@@V?$_Vector_val@U?$_Simple_types@PBD@std@@@2@$00@std@@QAEAAV?$allocator@PBD@2@XZ ; std::_Compressed_pair<std::allocator<char const *>,std::_Vector_val<std::_Simple_types<char const *> >,1>::_Get_first
PUBLIC	?_Get_first@?$_Compressed_pair@V?$allocator@PBD@std@@V?$_Vector_val@U?$_Simple_types@PBD@std@@@2@$00@std@@QBEABV?$allocator@PBD@2@XZ ; std::_Compressed_pair<std::allocator<char const *>,std::_Vector_val<std::_Simple_types<char const *> >,1>::_Get_first
PUBLIC	??$?0A6AXPAX@ZPAVCPerfMonitor@@X@thread@std@@QAE@A6AXPAX@Z$$QAPAVCPerfMonitor@@@Z ; std::thread::thread<void (__cdecl&)(void *),CPerfMonitor *,void>
PUBLIC	??$?CVEncodeStatus@@$0A@@?$shared_ptr@VEncodeStatus@@@std@@QBEPAVEncodeStatus@@XZ ; std::shared_ptr<EncodeStatus>::operator-><EncodeStatus,0>
PUBLIC	??$sleep_for@_JU?$ratio@$00$0DOI@@std@@@this_thread@std@@YAXABV?$duration@_JU?$ratio@$00$0DOI@@std@@@chrono@1@@Z ; std::this_thread::sleep_for<__int64,std::ratio<1,1000> >
PUBLIC	??$move@AAPBD@std@@YA$$QAPBDAAPBD@Z		; std::move<char const * &>
PUBLIC	??$emplace_back@PBD@?$vector@PBDV?$allocator@PBD@std@@@std@@QAEX$$QAPBD@Z ; std::vector<char const *,std::allocator<char const *> >::emplace_back<char const *>
PUBLIC	??$forward@PBD@std@@YA$$QAPBDAAPBD@Z		; std::forward<char const *>
PUBLIC	??$_Emplace_back_with_unused_capacity@PBD@?$vector@PBDV?$allocator@PBD@std@@@std@@AAEX$$QAPBD@Z ; std::vector<char const *,std::allocator<char const *> >::_Emplace_back_with_unused_capacity<char const *>
PUBLIC	??$_Unfancy@PBD@std@@YAPAPBDPAPBD@Z		; std::_Unfancy<char const *>
PUBLIC	??$construct@PBDPBD@?$_Default_allocator_traits@V?$allocator@PBD@std@@@std@@SAXAAV?$allocator@PBD@1@QAPBD$$QAPBD@Z ; std::_Default_allocator_traits<std::allocator<char const *> >::construct<char const *,char const *>
PUBLIC	??$_Emplace_reallocate@PBD@?$vector@PBDV?$allocator@PBD@std@@@std@@QAEPAPBDQAPBD$$QAPBD@Z ; std::vector<char const *,std::allocator<char const *> >::_Emplace_reallocate<char const *>
PUBLIC	??$emplace_back@ABQBD@?$vector@PBDV?$allocator@PBD@std@@@std@@QAEXABQBD@Z ; std::vector<char const *,std::allocator<char const *> >::emplace_back<char const * const &>
PUBLIC	??$forward@ABQBD@std@@YAABQBDABQBD@Z		; std::forward<char const * const &>
PUBLIC	??$_Emplace_back_with_unused_capacity@ABQBD@?$vector@PBDV?$allocator@PBD@std@@@std@@AAEXABQBD@Z ; std::vector<char const *,std::allocator<char const *> >::_Emplace_back_with_unused_capacity<char const * const &>
PUBLIC	??$construct@PBDABQBD@?$_Default_allocator_traits@V?$allocator@PBD@std@@@std@@SAXAAV?$allocator@PBD@1@QAPBDABQBD@Z ; std::_Default_allocator_traits<std::allocator<char const *> >::construct<char const *,char const * const &>
PUBLIC	??$_Emplace_reallocate@ABQBD@?$vector@PBDV?$allocator@PBD@std@@@std@@QAEPAPBDQAPBDABQBD@Z ; std::vector<char const *,std::allocator<char const *> >::_Emplace_reallocate<char const * const &>
PUBLIC	?allocate@?$allocator@U_Container_proxy@std@@@std@@QAEPAU_Container_proxy@2@I@Z ; std::allocator<std::_Container_proxy>::allocate
PUBLIC	??$?0PBD@?$allocator@U_Container_proxy@std@@@std@@QAE@ABV?$allocator@PBD@1@@Z ; std::allocator<std::_Container_proxy>::allocator<std::_Container_proxy><char const *>
PUBLIC	??$exchange@PAU_Container_proxy@std@@$$T@std@@YAPAU_Container_proxy@0@AAPAU10@$$QA$$T@Z ; std::exchange<std::_Container_proxy *,std::nullptr_t>
PUBLIC	??$_Delete_plain_internal@V?$allocator@U_Container_proxy@std@@@std@@@std@@YAXAAV?$allocator@U_Container_proxy@std@@@0@QAU_Container_proxy@0@@Z ; std::_Delete_plain_internal<std::allocator<std::_Container_proxy> >
PUBLIC	??$?0$$V@?$_Compressed_pair@V?$allocator@PBD@std@@V?$_Vector_val@U?$_Simple_types@PBD@std@@@2@$00@std@@QAE@U_Zero_then_variadic_args_t@1@@Z ; std::_Compressed_pair<std::allocator<char const *>,std::_Vector_val<std::_Simple_types<char const *> >,1>::_Compressed_pair<std::allocator<char const *>,std::_Vector_val<std::_Simple_types<char const *> >,1><>
PUBLIC	??$_Alloc_proxy@V?$allocator@U_Container_proxy@std@@@std@@@_Container_base12@std@@QAEX$$QAV?$allocator@U_Container_proxy@std@@@1@@Z ; std::_Container_base12::_Alloc_proxy<std::allocator<std::_Container_proxy> >
PUBLIC	??$exchange@PAU_iobuf@@AAPAU1@@std@@YAPAU_iobuf@@AAPAU1@0@Z ; std::exchange<_iobuf *,_iobuf * &>
PUBLIC	??$addressof@V?$unique_ptr@U_iobuf@@Ufp_deleter@@@std@@@std@@YAPAV?$unique_ptr@U_iobuf@@Ufp_deleter@@@0@AAV10@@Z ; std::addressof<std::unique_ptr<_iobuf,fp_deleter> >
PUBLIC	??$forward@Ufp_deleter@@@std@@YA$$QAUfp_deleter@@AAU1@@Z ; std::forward<fp_deleter>
PUBLIC	??$exchange@PAVRGYPipeProcess@@AAPAV1@@std@@YAPAVRGYPipeProcess@@AAPAV1@0@Z ; std::exchange<RGYPipeProcess *,RGYPipeProcess * &>
PUBLIC	??$addressof@V?$unique_ptr@VRGYPipeProcess@@U?$default_delete@VRGYPipeProcess@@@std@@@std@@@std@@YAPAV?$unique_ptr@VRGYPipeProcess@@U?$default_delete@VRGYPipeProcess@@@std@@@0@AAV10@@Z ; std::addressof<std::unique_ptr<RGYPipeProcess,std::default_delete<RGYPipeProcess> > >
PUBLIC	??$forward@U?$default_delete@VRGYPipeProcess@@@std@@@std@@YA$$QAU?$default_delete@VRGYPipeProcess@@@0@AAU10@@Z ; std::forward<std::default_delete<RGYPipeProcess> >
PUBLIC	??$exchange@PAXAAPAX@std@@YAPAXAAPAX0@Z		; std::exchange<void *,void * &>
PUBLIC	??$addressof@V?$unique_ptr@XUhandle_deleter@@@std@@@std@@YAPAV?$unique_ptr@XUhandle_deleter@@@0@AAV10@@Z ; std::addressof<std::unique_ptr<void,handle_deleter> >
PUBLIC	??$forward@Uhandle_deleter@@@std@@YA$$QAUhandle_deleter@@AAU1@@Z ; std::forward<handle_deleter>
PUBLIC	??$move@AAV?$basic_string@DU?$char_traits@D@std@@V?$allocator@D@2@@std@@@std@@YA$$QAV?$basic_string@DU?$char_traits@D@std@@V?$allocator@D@2@@0@AAV10@@Z ; std::move<std::basic_string<char,std::char_traits<char>,std::allocator<char> > &>
PUBLIC	??$_Min_value@I@std@@YAABIABI0@Z		; std::_Min_value<unsigned int>
PUBLIC	??0?$_Container_proxy_ptr12@V?$allocator@U_Container_proxy@std@@@std@@@std@@QAE@AAV?$allocator@U_Container_proxy@std@@@1@AAU_Container_base12@1@@Z ; std::_Container_proxy_ptr12<std::allocator<std::_Container_proxy> >::_Container_proxy_ptr12<std::allocator<std::_Container_proxy> >
PUBLIC	??1?$_Container_proxy_ptr12@V?$allocator@U_Container_proxy@std@@@std@@@std@@QAE@XZ ; std::_Container_proxy_ptr12<std::allocator<std::_Container_proxy> >::~_Container_proxy_ptr12<std::allocator<std::_Container_proxy> >
PUBLIC	??$_Unfancy@D@std@@YAPADPAD@Z			; std::_Unfancy<char>
PUBLIC	??$addressof@V?$_String_val@U?$_Simple_types@D@std@@@std@@@std@@YAPAV?$_String_val@U?$_Simple_types@D@std@@@0@AAV10@@Z ; std::addressof<std::_String_val<std::_Simple_types<char> > >
PUBLIC	??$addressof@$$CBV?$basic_string@DU?$char_traits@D@std@@V?$allocator@D@2@@std@@@std@@YAPBV?$basic_string@DU?$char_traits@D@std@@V?$allocator@D@2@@0@ABV10@@Z ; std::addressof<std::basic_string<char,std::char_traits<char>,std::allocator<char> > const >
PUBLIC	??$?0D@?$allocator@U_Container_proxy@std@@@std@@QAE@ABV?$allocator@D@1@@Z ; std::allocator<std::_Container_proxy>::allocator<std::_Container_proxy><char>
PUBLIC	??$addressof@V?$basic_string@DU?$char_traits@D@std@@V?$allocator@D@2@@std@@@std@@YAPAV?$basic_string@DU?$char_traits@D@std@@V?$allocator@D@2@@0@AAV10@@Z ; std::addressof<std::basic_string<char,std::char_traits<char>,std::allocator<char> > >
PUBLIC	??$move@AAV?$allocator@D@std@@@std@@YA$$QAV?$allocator@D@0@AAV10@@Z ; std::move<std::allocator<char> &>
PUBLIC	??$?0V?$allocator@D@std@@$$V@?$_Compressed_pair@V?$allocator@D@std@@V?$_String_val@U?$_Simple_types@D@std@@@2@$00@std@@QAE@U_One_then_variadic_args_t@1@$$QAV?$allocator@D@1@@Z ; std::_Compressed_pair<std::allocator<char>,std::_String_val<std::_Simple_types<char> >,1>::_Compressed_pair<std::allocator<char>,std::_String_val<std::_Simple_types<char> >,1><std::allocator<char> >
PUBLIC	??$?0$$V@?$_Compressed_pair@V?$allocator@D@std@@V?$_String_val@U?$_Simple_types@D@std@@@2@$00@std@@QAE@U_Zero_then_variadic_args_t@1@@Z ; std::_Compressed_pair<std::allocator<char>,std::_String_val<std::_Simple_types<char> >,1>::_Compressed_pair<std::allocator<char>,std::_String_val<std::_Simple_types<char> >,1><>
PUBLIC	??$_Unfancy@U_Container_proxy@std@@@std@@YAPAU_Container_proxy@0@PAU10@@Z ; std::_Unfancy<std::_Container_proxy>
PUBLIC	??$addressof@U_Container_base12@std@@@std@@YAPAU_Container_base12@0@AAU10@@Z ; std::addressof<std::_Container_base12>
PUBLIC	??$_Construct_in_place@U_Container_proxy@std@@PAU_Container_base12@2@@std@@YAXAAU_Container_proxy@0@$$QAPAU_Container_base12@0@@Z ; std::_Construct_in_place<std::_Container_proxy,std::_Container_base12 *>
PUBLIC	??$_Copy_construct_from@VRGYLog@@@?$_Ptr_base@VRGYLog@@@std@@IAEXABV?$shared_ptr@VRGYLog@@@1@@Z ; std::_Ptr_base<RGYLog>::_Copy_construct_from<RGYLog>
PUBLIC	??$exchange@PAU_iobuf@@PAU1@@std@@YAPAU_iobuf@@AAPAU1@$$QAPAU1@@Z ; std::exchange<_iobuf *,_iobuf *>
PUBLIC	??$_Copy_construct_from@VEncodeStatus@@@?$_Ptr_base@VEncodeStatus@@@std@@IAEXABV?$shared_ptr@VEncodeStatus@@@1@@Z ; std::_Ptr_base<EncodeStatus>::_Copy_construct_from<EncodeStatus>
PUBLIC	??$exchange@PAVRGYPipeProcess@@PAV1@@std@@YAPAVRGYPipeProcess@@AAPAV1@$$QAPAV1@@Z ; std::exchange<RGYPipeProcess *,RGYPipeProcess *>
PUBLIC	??$exchange@PAXPAX@std@@YAPAXAAPAX$$QAPAX@Z	; std::exchange<void *,void *>
PUBLIC	??$_Destroy_in_place@PAD@std@@YAXAAPAD@Z	; std::_Destroy_in_place<char *>
PUBLIC	??$_Max_value@I@std@@YAABIABI0@Z		; std::_Max_value<unsigned int>
PUBLIC	??$addressof@$$CBV?$_String_val@U?$_Simple_types@D@std@@@std@@@std@@YAPBV?$_String_val@U?$_Simple_types@D@std@@@0@ABV10@@Z ; std::addressof<std::_String_val<std::_Simple_types<char> > const >
PUBLIC	??R<lambda_9366063389c5f42a00a5088cf24e69de>@@QBEXQADIQBD@Z ; <lambda_9366063389c5f42a00a5088cf24e69de>::operator()
PUBLIC	??$_Reallocate_for@V<lambda_9366063389c5f42a00a5088cf24e69de>@@PBD@?$basic_string@DU?$char_traits@D@std@@V?$allocator@D@2@@std@@AAEAAV01@IV<lambda_9366063389c5f42a00a5088cf24e69de>@@PBD@Z ; std::basic_string<char,std::char_traits<char>,std::allocator<char> >::_Reallocate_for<<lambda_9366063389c5f42a00a5088cf24e69de>,char const *>
PUBLIC	??R<lambda_ab246b20b9526e2ef7792587e4298a77>@@QBEXQADQBDI1I@Z ; <lambda_ab246b20b9526e2ef7792587e4298a77>::operator()
PUBLIC	??$_Reallocate_grow_by@V<lambda_ab246b20b9526e2ef7792587e4298a77>@@PBDI@?$basic_string@DU?$char_traits@D@std@@V?$allocator@D@2@@std@@AAEAAV01@IV<lambda_ab246b20b9526e2ef7792587e4298a77>@@PBDI@Z ; std::basic_string<char,std::char_traits<char>,std::allocator<char> >::_Reallocate_grow_by<<lambda_ab246b20b9526e2ef7792587e4298a77>,char const *,unsigned int>
PUBLIC	??$_Pocca@V?$allocator@D@std@@@std@@YAXAAV?$allocator@D@0@ABV10@@Z ; std::_Pocca<std::allocator<char> >
PUBLIC	??$_Construct_in_place@PADABQAD@std@@YAXAAPADABQAD@Z ; std::_Construct_in_place<char *,char * const &>
PUBLIC	??$_Pocma@V?$allocator@D@std@@@std@@YAXAAV?$allocator@D@0@0@Z ; std::_Pocma<std::allocator<char> >
PUBLIC	??$_Get_size_of_n@$00@std@@YAII@Z		; std::_Get_size_of_n<1>
PUBLIC	??$_Allocate@$07U_Default_allocate_traits@std@@$0A@@std@@YAPAXI@Z ; std::_Allocate<8,std::_Default_allocate_traits,0>
PUBLIC	??$_Deallocate@$07$0A@@std@@YAXPAXI@Z		; std::_Deallocate<8,0>
PUBLIC	??$_Get_size_of_n@$07@std@@YAII@Z		; std::_Get_size_of_n<8>
PUBLIC	??$_Destroy_range@V?$allocator@PBD@std@@@std@@YAXPAPBDQAPBDAAV?$allocator@PBD@0@@Z ; std::_Destroy_range<std::allocator<char const *> >
PUBLIC	??$swap@PAV_Ref_count_base@std@@X@std@@YAXAAPAV_Ref_count_base@0@0@Z ; std::swap<std::_Ref_count_base *,void>
PUBLIC	??$swap@PAVRGYLog@@X@std@@YAXAAPAVRGYLog@@0@Z	; std::swap<RGYLog *,void>
PUBLIC	??$swap@PAVEncodeStatus@@X@std@@YAXAAPAVEncodeStatus@@0@Z ; std::swap<EncodeStatus *,void>
PUBLIC	??$?G_JU?$ratio@$00$0DLJKMKAA@@std@@_JU01@@chrono@std@@YA?AV?$duration@_JU?$ratio@$00$0DLJKMKAA@@std@@@01@ABV201@0@Z ; std::chrono::operator-<__int64,std::ratio<1,1000000000>,__int64,std::ratio<1,1000000000> >
PUBLIC	??$sleep_until@Usteady_clock@chrono@std@@V?$duration@_JU?$ratio@$00$0DLJKMKAA@@std@@@23@@this_thread@std@@YAXABV?$time_point@Usteady_clock@chrono@std@@V?$duration@_JU?$ratio@$00$0DLJKMKAA@@std@@@23@@chrono@1@@Z ; std::this_thread::sleep_until<std::chrono::steady_clock,std::chrono::duration<__int64,std::ratio<1,1000000000> > >
PUBLIC	??$?0$$V@?$_Compressed_pair@Uhandle_deleter@@PAX$00@std@@QAE@U_Zero_then_variadic_args_t@1@@Z ; std::_Compressed_pair<handle_deleter,void *,1>::_Compressed_pair<handle_deleter,void *,1><>
PUBLIC	??$?0$$V@?$_Compressed_pair@U?$default_delete@VRGYPipeProcess@@@std@@PAVRGYPipeProcess@@$00@std@@QAE@U_Zero_then_variadic_args_t@1@@Z ; std::_Compressed_pair<std::default_delete<RGYPipeProcess>,RGYPipeProcess *,1>::_Compressed_pair<std::default_delete<RGYPipeProcess>,RGYPipeProcess *,1><>
PUBLIC	??$?0$$V@?$_Compressed_pair@Ufp_deleter@@PAU_iobuf@@$00@std@@QAE@U_Zero_then_variadic_args_t@1@@Z ; std::_Compressed_pair<fp_deleter,_iobuf *,1>::_Compressed_pair<fp_deleter,_iobuf *,1><>
PUBLIC	??$?0AAPAU_iobuf@@@?$_Compressed_pair@Ufp_deleter@@PAU_iobuf@@$00@std@@QAE@U_Zero_then_variadic_args_t@1@AAPAU_iobuf@@@Z ; std::_Compressed_pair<fp_deleter,_iobuf *,1>::_Compressed_pair<fp_deleter,_iobuf *,1><_iobuf * &>
PUBLIC	??$?0AAPAVRGYPipeProcess@@@?$_Compressed_pair@U?$default_delete@VRGYPipeProcess@@@std@@PAVRGYPipeProcess@@$00@std@@QAE@U_Zero_then_variadic_args_t@1@AAPAVRGYPipeProcess@@@Z ; std::_Compressed_pair<std::default_delete<RGYPipeProcess>,RGYPipeProcess *,1>::_Compressed_pair<std::default_delete<RGYPipeProcess>,RGYPipeProcess *,1><RGYPipeProcess * &>
PUBLIC	??$forward@A6AXPAX@Z@std@@YAA6AXPAX@ZA6AX0@Z@Z	; std::forward<void (__cdecl&)(void *)>
PUBLIC	??$forward@PAVCPerfMonitor@@@std@@YA$$QAPAVCPerfMonitor@@AAPAV1@@Z ; std::forward<CPerfMonitor *>
PUBLIC	??$make_unique@V?$tuple@P6AXPAX@ZPAVCPerfMonitor@@@std@@A6AXPAX@ZPAVCPerfMonitor@@$0A@@std@@YA?AV?$unique_ptr@V?$tuple@P6AXPAX@ZPAVCPerfMonitor@@@std@@U?$default_delete@V?$tuple@P6AXPAX@ZPAVCPerfMonitor@@@std@@@2@@0@A6AXPAX@Z$$QAPAVCPerfMonitor@@@Z ; std::make_unique<std::tuple<void (__cdecl*)(void *),CPerfMonitor *>,void (__cdecl&)(void *),CPerfMonitor *,0>
PUBLIC	??R?$default_delete@V?$tuple@P6AXPAX@ZPAVCPerfMonitor@@@std@@@std@@QBEXPAV?$tuple@P6AXPAX@ZPAVCPerfMonitor@@@1@@Z ; std::default_delete<std::tuple<void (__cdecl*)(void *),CPerfMonitor *> >::operator()
PUBLIC	??1?$unique_ptr@V?$tuple@P6AXPAX@ZPAVCPerfMonitor@@@std@@U?$default_delete@V?$tuple@P6AXPAX@ZPAVCPerfMonitor@@@std@@@2@@std@@QAE@XZ ; std::unique_ptr<std::tuple<void (__cdecl*)(void *),CPerfMonitor *>,std::default_delete<std::tuple<void (__cdecl*)(void *),CPerfMonitor *> > >::~unique_ptr<std::tuple<void (__cdecl*)(void *),CPerfMonitor *>,std::default_delete<std::tuple<void (__cdecl*)(void *),CPerfMonitor *> > >
PUBLIC	??D?$unique_ptr@V?$tuple@P6AXPAX@ZPAVCPerfMonitor@@@std@@U?$default_delete@V?$tuple@P6AXPAX@ZPAVCPerfMonitor@@@std@@@2@@std@@QBEAAV?$tuple@P6AXPAX@ZPAVCPerfMonitor@@@1@XZ ; std::unique_ptr<std::tuple<void (__cdecl*)(void *),CPerfMonitor *>,std::default_delete<std::tuple<void (__cdecl*)(void *),CPerfMonitor *> > >::operator*
PUBLIC	?get@?$unique_ptr@V?$tuple@P6AXPAX@ZPAVCPerfMonitor@@@std@@U?$default_delete@V?$tuple@P6AXPAX@ZPAVCPerfMonitor@@@std@@@2@@std@@QBEPAV?$tuple@P6AXPAX@ZPAVCPerfMonitor@@@2@XZ ; std::unique_ptr<std::tuple<void (__cdecl*)(void *),CPerfMonitor *>,std::default_delete<std::tuple<void (__cdecl*)(void *),CPerfMonitor *> > >::get
PUBLIC	?release@?$unique_ptr@V?$tuple@P6AXPAX@ZPAVCPerfMonitor@@@std@@U?$default_delete@V?$tuple@P6AXPAX@ZPAVCPerfMonitor@@@std@@@2@@std@@QAEPAV?$tuple@P6AXPAX@ZPAVCPerfMonitor@@@2@XZ ; std::unique_ptr<std::tuple<void (__cdecl*)(void *),CPerfMonitor *>,std::default_delete<std::tuple<void (__cdecl*)(void *),CPerfMonitor *> > >::release
PUBLIC	?_Get_first@?$_Compressed_pair@U?$default_delete@V?$tuple@P6AXPAX@ZPAVCPerfMonitor@@@std@@@std@@PAV?$tuple@P6AXPAX@ZPAVCPerfMonitor@@@2@$00@std@@QAEAAU?$default_delete@V?$tuple@P6AXPAX@ZPAVCPerfMonitor@@@std@@@2@XZ ; std::_Compressed_pair<std::default_delete<std::tuple<void (__cdecl*)(void *),CPerfMonitor *> >,std::tuple<void (__cdecl*)(void *),CPerfMonitor *> *,1>::_Get_first
PUBLIC	??$_Invoke@V?$tuple@P6AXPAX@ZPAVCPerfMonitor@@@std@@$0A@$00@thread@std@@CGIPAX@Z ; std::thread::_Invoke<std::tuple<void (__cdecl*)(void *),CPerfMonitor *>,0,1>
PUBLIC	??$?HUsteady_clock@chrono@std@@V?$duration@_JU?$ratio@$00$0DLJKMKAA@@std@@@12@_JU?$ratio@$00$0DOI@@2@@chrono@std@@YA?AV?$time_point@Usteady_clock@chrono@std@@V?$duration@_JU?$ratio@$00$0DLJKMKAA@@std@@@23@@01@ABV201@ABV?$duration@_JU?$ratio@$00$0DOI@@std@@@01@@Z ; std::chrono::operator+<std::chrono::steady_clock,std::chrono::duration<__int64,std::ratio<1,1000000000> >,__int64,std::ratio<1,1000> >
PUBLIC	??$_Deallocate_plain@V?$allocator@U_Container_proxy@std@@@std@@@std@@YAXAAV?$allocator@U_Container_proxy@std@@@0@QAU_Container_proxy@0@@Z ; std::_Deallocate_plain<std::allocator<std::_Container_proxy> >
PUBLIC	??$forward@V?$allocator@D@std@@@std@@YA$$QAV?$allocator@D@0@AAV10@@Z ; std::forward<std::allocator<char> >
PUBLIC	??$addressof@U_Container_proxy@std@@@std@@YAPAU_Container_proxy@0@AAU10@@Z ; std::addressof<std::_Container_proxy>
PUBLIC	??$forward@PAU_Container_base12@std@@@std@@YA$$QAPAU_Container_base12@0@AAPAU10@@Z ; std::forward<std::_Container_base12 *>
PUBLIC	??$addressof@PAD@std@@YAPAPADAAPAD@Z		; std::addressof<char *>
PUBLIC	??$forward@ABQAD@std@@YAABQADABQAD@Z		; std::forward<char * const &>
PUBLIC	??$_Allocate_manually_vector_aligned@U_Default_allocate_traits@std@@@std@@YAPAXI@Z ; std::_Allocate_manually_vector_aligned<std::_Default_allocate_traits>
PUBLIC	??$move@AAPAVCPerfMonitor@@@std@@YA$$QAPAVCPerfMonitor@@AAPAV1@@Z ; std::move<CPerfMonitor * &>
PUBLIC	??$move@AAPAV_Ref_count_base@std@@@std@@YA$$QAPAV_Ref_count_base@0@AAPAV10@@Z ; std::move<std::_Ref_count_base * &>
PUBLIC	??$move@AAPAVRGYLog@@@std@@YA$$QAPAVRGYLog@@AAPAV1@@Z ; std::move<RGYLog * &>
PUBLIC	??$move@AAPAVEncodeStatus@@@std@@YA$$QAPAVEncodeStatus@@AAPAV1@@Z ; std::move<EncodeStatus * &>
PUBLIC	??$exchange@PAV?$tuple@P6AXPAX@ZPAVCPerfMonitor@@@std@@PAV12@@std@@YAPAV?$tuple@P6AXPAX@ZPAVCPerfMonitor@@@0@AAPAV10@$$QAPAV10@@Z ; std::exchange<std::tuple<void (__cdecl*)(void *),CPerfMonitor *> *,std::tuple<void (__cdecl*)(void *),CPerfMonitor *> *>
PUBLIC	??$_Uninitialized_move@PAPBDV?$allocator@PBD@std@@@std@@YAPAPBDQAPBD0PAPBDAAV?$allocator@PBD@0@@Z ; std::_Uninitialized_move<char const * *,std::allocator<char const *> >
PUBLIC	??$_Get_size_of_n@$03@std@@YAII@Z		; std::_Get_size_of_n<4>
PUBLIC	??R<lambda_4d79bb85f269e6e8002a4599002d832c>@@QBEXQADQBDII1I@Z ; <lambda_4d79bb85f269e6e8002a4599002d832c>::operator()
PUBLIC	??$_Reallocate_grow_by@V<lambda_4d79bb85f269e6e8002a4599002d832c>@@IPBDI@?$basic_string@DU?$char_traits@D@std@@V?$allocator@D@2@@std@@AAEAAV01@IV<lambda_4d79bb85f269e6e8002a4599002d832c>@@IPBDI@Z ; std::basic_string<char,std::char_traits<char>,std::allocator<char> >::_Reallocate_grow_by<<lambda_4d79bb85f269e6e8002a4599002d832c>,unsigned int,char const *,unsigned int>
PUBLIC	??$?0_JU?$ratio@$00$0DOI@@std@@X@?$duration@_JU?$ratio@$00$0DLJKMKAA@@std@@@chrono@std@@QAE@ABV?$duration@_JU?$ratio@$00$0DOI@@std@@@12@@Z ; std::chrono::duration<__int64,std::ratio<1,1000000000> >::duration<__int64,std::ratio<1,1000000000> ><__int64,std::ratio<1,1000>,void>
PUBLIC	??$?NUsteady_clock@chrono@std@@V?$duration@_JU?$ratio@$00$0DLJKMKAA@@std@@@12@V312@@chrono@std@@YA_NABV?$time_point@Usteady_clock@chrono@std@@V?$duration@_JU?$ratio@$00$0DLJKMKAA@@std@@@23@@01@0@Z ; std::chrono::operator<=<std::chrono::steady_clock,std::chrono::duration<__int64,std::ratio<1,1000000000> >,std::chrono::duration<__int64,std::ratio<1,1000000000> > >
PUBLIC	??$_To_xtime_10_day_clamped@_JU?$ratio@$00$0DLJKMKAA@@std@@@std@@YA_NAAUxtime@@ABV?$duration@_JU?$ratio@$00$0DLJKMKAA@@std@@@chrono@0@@Z ; std::_To_xtime_10_day_clamped<__int64,std::ratio<1,1000000000> >
PUBLIC	??$forward@AAPAU_iobuf@@@std@@YAAAPAU_iobuf@@AAPAU1@@Z ; std::forward<_iobuf * &>
PUBLIC	??$forward@AAPAVRGYPipeProcess@@@std@@YAAAPAVRGYPipeProcess@@AAPAV1@@Z ; std::forward<RGYPipeProcess * &>
PUBLIC	??$?0A6AXPAX@ZPAVCPerfMonitor@@$0A@@?$tuple@P6AXPAX@ZPAVCPerfMonitor@@@std@@QAE@A6AXPAX@Z$$QAPAVCPerfMonitor@@@Z ; std::tuple<void (__cdecl*)(void *),CPerfMonitor *>::tuple<void (__cdecl*)(void *),CPerfMonitor *><void (__cdecl&)(void *),CPerfMonitor *,0>
PUBLIC	??$?0U?$default_delete@V?$tuple@P6AXPAX@ZPAVCPerfMonitor@@@std@@@std@@$0A@@?$unique_ptr@V?$tuple@P6AXPAX@ZPAVCPerfMonitor@@@std@@U?$default_delete@V?$tuple@P6AXPAX@ZPAVCPerfMonitor@@@std@@@2@@std@@QAE@PAV?$tuple@P6AXPAX@ZPAVCPerfMonitor@@@1@@Z ; std::unique_ptr<std::tuple<void (__cdecl*)(void *),CPerfMonitor *>,std::default_delete<std::tuple<void (__cdecl*)(void *),CPerfMonitor *> > >::unique_ptr<std::tuple<void (__cdecl*)(void *),CPerfMonitor *>,std::default_delete<std::tuple<void (__cdecl*)(void *),CPerfMonitor *> > ><std::default_delete<std::tuple<void (__cdecl*)(void *),CPerfMonitor *> >,0>
PUBLIC	??$get@$0A@P6AXPAX@ZPAVCPerfMonitor@@@std@@YAAAP6AXPAX@ZAAV?$tuple@P6AXPAX@ZPAVCPerfMonitor@@@0@@Z ; std::get<0,void (__cdecl*)(void *),CPerfMonitor *>
PUBLIC	??$move@AAP6AXPAX@Z@std@@YA$$QAP6AXPAX@ZAAP6AX0@Z@Z ; std::move<void (__cdecl*&)(void *)>
PUBLIC	??$get@$00P6AXPAX@ZPAVCPerfMonitor@@@std@@YAAAPAVCPerfMonitor@@AAV?$tuple@P6AXPAX@ZPAVCPerfMonitor@@@0@@Z ; std::get<1,void (__cdecl*)(void *),CPerfMonitor *>
PUBLIC	??$forward@P6AXPAX@Z@std@@YA$$QAP6AXPAX@ZAAP6AX0@Z@Z ; std::forward<void (__cdecl*)(void *)>
PUBLIC	??$_Call@P6AXPAX@ZPAVCPerfMonitor@@@_Invoker_functor@std@@SAX$$QAP6AXPAX@Z$$QAPAVCPerfMonitor@@@Z ; std::_Invoker_functor::_Call<void (__cdecl*)(void *),CPerfMonitor *>
PUBLIC	??$invoke@P6AXPAX@ZPAVCPerfMonitor@@@std@@YAX$$QAP6AXPAX@Z$$QAPAVCPerfMonitor@@@Z ; std::invoke<void (__cdecl*)(void *),CPerfMonitor *>
PUBLIC	??$?H_JU?$ratio@$00$0DLJKMKAA@@std@@_JU?$ratio@$00$0DOI@@1@@chrono@std@@YA?AV?$duration@_JU?$ratio@$00$0DLJKMKAA@@std@@@01@ABV201@ABV?$duration@_JU?$ratio@$00$0DOI@@std@@@01@@Z ; std::chrono::operator+<__int64,std::ratio<1,1000000000>,__int64,std::ratio<1,1000> >
PUBLIC	?deallocate@?$_Default_allocator_traits@V?$allocator@U_Container_proxy@std@@@std@@@std@@SAXAAV?$allocator@U_Container_proxy@std@@@2@QAU_Container_proxy@2@I@Z ; std::_Default_allocator_traits<std::allocator<std::_Container_proxy> >::deallocate
PUBLIC	??$_Get_unwrapped@PBD@std@@YAPAPBDQAPBD@Z	; std::_Get_unwrapped<char const *>
PUBLIC	??$_Copy_memmove@PAPBDPAPBD@std@@YAPAPBDPAPBD00@Z ; std::_Copy_memmove<char const * *,char const * *>
PUBLIC	??$duration_cast@V?$duration@_JU?$ratio@$00$0DLJKMKAA@@std@@@chrono@std@@_JU?$ratio@$00$0DOI@@3@X@chrono@std@@YA?AV?$duration@_JU?$ratio@$00$0DLJKMKAA@@std@@@01@ABV?$duration@_JU?$ratio@$00$0DOI@@std@@@01@@Z ; std::chrono::duration_cast<std::chrono::duration<__int64,std::ratio<1,1000000000> >,__int64,std::ratio<1,1000>,void>
PUBLIC	??$?MUsteady_clock@chrono@std@@V?$duration@_JU?$ratio@$00$0DLJKMKAA@@std@@@12@V312@@chrono@std@@YA_NABV?$time_point@Usteady_clock@chrono@std@@V?$duration@_JU?$ratio@$00$0DLJKMKAA@@std@@@23@@01@0@Z ; std::chrono::operator<<std::chrono::steady_clock,std::chrono::duration<__int64,std::ratio<1,1000000000> >,std::chrono::duration<__int64,std::ratio<1,1000000000> > >
PUBLIC	??$?0_JU?$ratio@$00$0JIJGIA@@std@@X@?$duration@_JU?$ratio@$00$0DLJKMKAA@@std@@@chrono@std@@QAE@ABV?$duration@_JU?$ratio@$00$0JIJGIA@@std@@@12@@Z ; std::chrono::duration<__int64,std::ratio<1,1000000000> >::duration<__int64,std::ratio<1,1000000000> ><__int64,std::ratio<1,10000000>,void>
PUBLIC	??$?MNU?$ratio@$00$00@std@@_JU?$ratio@$00$0DLJKMKAA@@1@@chrono@std@@YA_NABV?$duration@NU?$ratio@$00$00@std@@@01@ABV?$duration@_JU?$ratio@$00$0DLJKMKAA@@std@@@01@@Z ; std::chrono::operator<<double,std::ratio<1,1>,__int64,std::ratio<1,1000000000> >
PUBLIC	??$duration_cast@V?$duration@_JU?$ratio@$00$0DLJKMKAA@@std@@@chrono@std@@_JU?$ratio@$00$0DLJKMKAA@@3@X@chrono@std@@YA?AV?$duration@_JU?$ratio@$00$0DLJKMKAA@@std@@@01@ABV201@@Z ; std::chrono::duration_cast<std::chrono::duration<__int64,std::ratio<1,1000000000> >,__int64,std::ratio<1,1000000000>,void>
PUBLIC	??$duration_cast@V?$duration@_JU?$ratio@$00$00@std@@@chrono@std@@_JU?$ratio@$00$0DLJKMKAA@@3@X@chrono@std@@YA?AV?$duration@_JU?$ratio@$00$00@std@@@01@ABV?$duration@_JU?$ratio@$00$0DLJKMKAA@@std@@@01@@Z ; std::chrono::duration_cast<std::chrono::duration<__int64,std::ratio<1,1> >,__int64,std::ratio<1,1000000000>,void>
PUBLIC	??$?0_JU?$ratio@$00$00@std@@X@?$duration@_JU?$ratio@$00$0DLJKMKAA@@std@@@chrono@std@@QAE@ABV?$duration@_JU?$ratio@$00$00@std@@@12@@Z ; std::chrono::duration<__int64,std::ratio<1,1000000000> >::duration<__int64,std::ratio<1,1000000000> ><__int64,std::ratio<1,1>,void>
PUBLIC	??$?0U_Exact_args_t@std@@A6AXPAX@ZPAVCPerfMonitor@@$0A@@?$tuple@P6AXPAX@ZPAVCPerfMonitor@@@std@@QAE@U_Exact_args_t@1@A6AXPAX@Z$$QAPAVCPerfMonitor@@@Z ; std::tuple<void (__cdecl*)(void *),CPerfMonitor *>::tuple<void (__cdecl*)(void *),CPerfMonitor *><std::_Exact_args_t,void (__cdecl&)(void *),CPerfMonitor *,0>
PUBLIC	??$?0AAPAV?$tuple@P6AXPAX@ZPAVCPerfMonitor@@@std@@@?$_Compressed_pair@U?$default_delete@V?$tuple@P6AXPAX@ZPAVCPerfMonitor@@@std@@@std@@PAV?$tuple@P6AXPAX@ZPAVCPerfMonitor@@@2@$00@std@@QAE@U_Zero_then_variadic_args_t@1@AAPAV?$tuple@P6AXPAX@ZPAVCPerfMonitor@@@1@@Z ; std::_Compressed_pair<std::default_delete<std::tuple<void (__cdecl*)(void *),CPerfMonitor *> >,std::tuple<void (__cdecl*)(void *),CPerfMonitor *> *,1>::_Compressed_pair<std::default_delete<std::tuple<void (__cdecl*)(void *),CPerfMonitor *> >,std::tuple<void (__cdecl*)(void *),CPerfMonitor *> *,1><std::tuple<void (__cdecl*)(void *),CPerfMonitor *> * &>
PUBLIC	??$?M_JU?$ratio@$00$0DLJKMKAA@@std@@_JU01@@chrono@std@@YA_NABV?$duration@_JU?$ratio@$00$0DLJKMKAA@@std@@@01@0@Z ; std::chrono::operator<<__int64,std::ratio<1,1000000000>,__int64,std::ratio<1,1000000000> >
PUBLIC	??$duration_cast@V?$duration@_JU?$ratio@$00$0DLJKMKAA@@std@@@chrono@std@@_JU?$ratio@$00$0JIJGIA@@3@X@chrono@std@@YA?AV?$duration@_JU?$ratio@$00$0DLJKMKAA@@std@@@01@ABV?$duration@_JU?$ratio@$00$0JIJGIA@@std@@@01@@Z ; std::chrono::duration_cast<std::chrono::duration<__int64,std::ratio<1,1000000000> >,__int64,std::ratio<1,10000000>,void>
PUBLIC	??$?0NU?$ratio@$00$00@std@@X@?$duration@NU?$ratio@$00$0DLJKMKAA@@std@@@chrono@std@@QAE@ABV?$duration@NU?$ratio@$00$00@std@@@12@@Z ; std::chrono::duration<double,std::ratio<1,1000000000> >::duration<double,std::ratio<1,1000000000> ><double,std::ratio<1,1>,void>
PUBLIC	??$?0_JU?$ratio@$00$0DLJKMKAA@@std@@X@?$duration@NU?$ratio@$00$0DLJKMKAA@@std@@@chrono@std@@QAE@ABV?$duration@_JU?$ratio@$00$0DLJKMKAA@@std@@@12@@Z ; std::chrono::duration<double,std::ratio<1,1000000000> >::duration<double,std::ratio<1,1000000000> ><__int64,std::ratio<1,1000000000>,void>
PUBLIC	??$?0_JX@?$duration@_JU?$ratio@$00$00@std@@@chrono@std@@QAE@AB_J@Z ; std::chrono::duration<__int64,std::ratio<1,1> >::duration<__int64,std::ratio<1,1> ><__int64,void>
PUBLIC	??$duration_cast@V?$duration@_JU?$ratio@$00$0DLJKMKAA@@std@@@chrono@std@@_JU?$ratio@$00$00@3@X@chrono@std@@YA?AV?$duration@_JU?$ratio@$00$0DLJKMKAA@@std@@@01@ABV?$duration@_JU?$ratio@$00$00@std@@@01@@Z ; std::chrono::duration_cast<std::chrono::duration<__int64,std::ratio<1,1000000000> >,__int64,std::ratio<1,1>,void>
PUBLIC	??$?0U_Exact_args_t@std@@PAVCPerfMonitor@@$$V$0A@@?$tuple@PAVCPerfMonitor@@@std@@QAE@U_Exact_args_t@1@$$QAPAVCPerfMonitor@@@Z ; std::tuple<CPerfMonitor *>::tuple<CPerfMonitor *><std::_Exact_args_t,CPerfMonitor *,0>
PUBLIC	??$?0A6AXPAX@Z@?$_Tuple_val@P6AXPAX@Z@std@@QAE@A6AXPAX@Z@Z ; std::_Tuple_val<void (__cdecl*)(void *)>::_Tuple_val<void (__cdecl*)(void *)><void (__cdecl&)(void *)>
PUBLIC	??$forward@AAPAV?$tuple@P6AXPAX@ZPAVCPerfMonitor@@@std@@@std@@YAAAPAV?$tuple@P6AXPAX@ZPAVCPerfMonitor@@@0@AAPAV10@@Z ; std::forward<std::tuple<void (__cdecl*)(void *),CPerfMonitor *> * &>
PUBLIC	??$duration_cast@V?$duration@NU?$ratio@$00$0DLJKMKAA@@std@@@chrono@std@@NU?$ratio@$00$00@3@X@chrono@std@@YA?AV?$duration@NU?$ratio@$00$0DLJKMKAA@@std@@@01@ABV?$duration@NU?$ratio@$00$00@std@@@01@@Z ; std::chrono::duration_cast<std::chrono::duration<double,std::ratio<1,1000000000> >,double,std::ratio<1,1>,void>
PUBLIC	??$duration_cast@V?$duration@NU?$ratio@$00$0DLJKMKAA@@std@@@chrono@std@@_JU?$ratio@$00$0DLJKMKAA@@3@X@chrono@std@@YA?AV?$duration@NU?$ratio@$00$0DLJKMKAA@@std@@@01@ABV?$duration@_JU?$ratio@$00$0DLJKMKAA@@std@@@01@@Z ; std::chrono::duration_cast<std::chrono::duration<double,std::ratio<1,1000000000> >,__int64,std::ratio<1,1000000000>,void>
PUBLIC	??$?0U_Exact_args_t@std@@$0A@@?$tuple@$$V@std@@QAE@U_Exact_args_t@1@@Z ; std::tuple<>::tuple<><std::_Exact_args_t,0>
PUBLIC	??$?0PAVCPerfMonitor@@@?$_Tuple_val@PAVCPerfMonitor@@@std@@QAE@$$QAPAVCPerfMonitor@@@Z ; std::_Tuple_val<CPerfMonitor *>::_Tuple_val<CPerfMonitor *><CPerfMonitor *>
PUBLIC	??$?0NX@?$duration@NU?$ratio@$00$0DLJKMKAA@@std@@@chrono@std@@QAE@ABN@Z ; std::chrono::duration<double,std::ratio<1,1000000000> >::duration<double,std::ratio<1,1000000000> ><double,void>
PUBLIC	?_OptionsStorage@?1??__local_stdio_printf_options@@9@4_KA ; `__local_stdio_printf_options'::`2'::_OptionsStorage
PUBLIC	??_7exception@std@@6B@				; std::exception::`vftable'
PUBLIC	??_C@_0BC@EOODALEL@Unknown?5exception@		; `string'
PUBLIC	??_7bad_alloc@std@@6B@				; std::bad_alloc::`vftable'
PUBLIC	??_7bad_array_new_length@std@@6B@		; std::bad_array_new_length::`vftable'
PUBLIC	??_C@_0BF@KINCDENJ@bad?5array?5new?5length@	; `string'
PUBLIC	__TI3?AVbad_array_new_length@std@@
PUBLIC	__CTA3?AVbad_array_new_length@std@@
PUBLIC	??_R0?AVbad_array_new_length@std@@@8		; std::bad_array_new_length `RTTI Type Descriptor'
PUBLIC	__CT??_R0?AVbad_array_new_length@std@@@8??0bad_array_new_length@std@@QAE@ABV01@@Z12
PUBLIC	??_R0?AVbad_alloc@std@@@8			; std::bad_alloc `RTTI Type Descriptor'
PUBLIC	__CT??_R0?AVbad_alloc@std@@@8??0bad_alloc@std@@QAE@ABV01@@Z12
PUBLIC	??_R0?AVexception@std@@@8			; std::exception `RTTI Type Descriptor'
PUBLIC	__CT??_R0?AVexception@std@@@8??0exception@std@@QAE@ABV01@@Z12
PUBLIC	??_C@_0BB@FCMFBGOM@invalid?5argument@		; `string'
PUBLIC	??_C@_02DKCKIIND@?$CFs@				; `string'
PUBLIC	??_C@_0GI@FJIKDGOA@C?3?2Program?5Files?5?$CIx86?$CJ?2Microsof@ ; `string'
PUBLIC	??_C@_1NA@CDBIFGMM@?$AAC?$AA?3?$AA?2?$AAP?$AAr?$AAo?$AAg?$AAr?$AAa?$AAm?$AA?5?$AAF?$AAi?$AAl?$AAe@ ; `string'
PUBLIC	??_C@_1EK@NIFDJFDG@?$AAs?$AAt?$AAd?$AA?3?$AA?3?$AA_?$AAA?$AAd?$AAj?$AAu?$AAs?$AAt?$AA_?$AAm?$AAa@ ; `string'
PUBLIC	??_C@_1CG@JNLFBNGN@?$AA?$CC?$AAi?$AAn?$AAv?$AAa?$AAl?$AAi?$AAd?$AA?5?$AAa?$AAr?$AAg?$AAu?$AAm?$AAe@ ; `string'
PUBLIC	??_R0?AVRGYPipeProcess@@@8			; RGYPipeProcess `RTTI Type Descriptor'
PUBLIC	??_R0?AVRGYPipeProcessWin@@@8			; RGYPipeProcessWin `RTTI Type Descriptor'
PUBLIC	??_C@_0BI@CFPLBAOH@invalid?5string?5position@	; `string'
PUBLIC	??_C@_0BD@OLBABOEK@vector?$DMT?$DO?5too?5long@	; `string'
PUBLIC	??_C@_0BA@JFNIOLAK@string?5too?5long@		; `string'
PUBLIC	??_R4exception@std@@6B@				; std::exception::`RTTI Complete Object Locator'
PUBLIC	??_R3exception@std@@8				; std::exception::`RTTI Class Hierarchy Descriptor'
PUBLIC	??_R2exception@std@@8				; std::exception::`RTTI Base Class Array'
PUBLIC	??_R1A@?0A@EA@exception@std@@8			; std::exception::`RTTI Base Class Descriptor at (0,-1,0,64)'
PUBLIC	??_R4bad_alloc@std@@6B@				; std::bad_alloc::`RTTI Complete Object Locator'
PUBLIC	??_R3bad_alloc@std@@8				; std::bad_alloc::`RTTI Class Hierarchy Descriptor'
PUBLIC	??_R2bad_alloc@std@@8				; std::bad_alloc::`RTTI Base Class Array'
PUBLIC	??_R1A@?0A@EA@bad_alloc@std@@8			; std::bad_alloc::`RTTI Base Class Descriptor at (0,-1,0,64)'
PUBLIC	??_R4bad_array_new_length@std@@6B@		; std::bad_array_new_length::`RTTI Complete Object Locator'
PUBLIC	??_R3bad_array_new_length@std@@8		; std::bad_array_new_length::`RTTI Class Hierarchy Descriptor'
PUBLIC	??_R2bad_array_new_length@std@@8		; std::bad_array_new_length::`RTTI Base Class Array'
PUBLIC	??_R1A@?0A@EA@bad_array_new_length@std@@8	; std::bad_array_new_length::`RTTI Base Class Descriptor at (0,-1,0,64)'
PUBLIC	__real@3eb0c6f7a0b5ed8d
PUBLIC	__real@3f50624dd2f1a9fc
PUBLIC	__real@3fe0000000000000
PUBLIC	__real@3ff0000000000000
PUBLIC	__real@4020000000000000
PUBLIC	__real@4059000000000000
PUBLIC	__real@40c3880000000000
PUBLIC	__real@412a5e0000000000
PUBLIC	__real@412e848000000000
PUBLIC	__real@4130000000000000
PUBLIC	__real@41cdcd6500000000
EXTRN	??2@YAPAXI@Z:PROC				; operator new
EXTRN	??3@YAXPAXI@Z:PROC				; operator delete
EXTRN	__imp___invalid_parameter:PROC
EXTRN	__imp__fopen_s:PROC
EXTRN	__imp__fclose:PROC
EXTRN	__imp__fflush:PROC
EXTRN	__imp__fopen:PROC
EXTRN	__imp__fwrite:PROC
EXTRN	__imp____stdio_common_vfprintf:PROC
EXTRN	_memcpy:PROC
EXTRN	_memmove:PROC
EXTRN	_memset:PROC
EXTRN	__imp___CrtDbgReport:PROC
EXTRN	__imp_??0_Lockit@std@@QAE@H@Z:PROC
EXTRN	__imp_??1_Lockit@std@@QAE@XZ:PROC
EXTRN	__imp__clock:PROC
EXTRN	__Xtime_get_ticks:PROC
EXTRN	__Query_perf_counter:PROC
EXTRN	__Query_perf_frequency:PROC
EXTRN	__imp__terminate:PROC
EXTRN	___std_exception_copy:PROC
EXTRN	___std_exception_destroy:PROC
EXTRN	??_Eexception@std@@UAEPAXI@Z:PROC		; std::exception::`vector deleting destructor'
EXTRN	??_Ebad_alloc@std@@UAEPAXI@Z:PROC		; std::bad_alloc::`vector deleting destructor'
EXTRN	??_Ebad_array_new_length@std@@UAEPAXI@Z:PROC	; std::bad_array_new_length::`vector deleting destructor'
EXTRN	_strlen:PROC
EXTRN	?_Xlength_error@std@@YAXPBD@Z:PROC		; std::_Xlength_error
EXTRN	?_Xout_of_range@std@@YAXPBD@Z:PROC		; std::_Xout_of_range
EXTRN	__imp___beginthreadex:PROC
EXTRN	__Thrd_join:PROC
EXTRN	__Thrd_sleep:PROC
EXTRN	__Thrd_id:PROC
EXTRN	__Cnd_do_broadcast_at_thread_exit:PROC
EXTRN	?_Throw_Cpp_error@std@@YAXH@Z:PROC		; std::_Throw_Cpp_error
EXTRN	__imp__CloseHandle@4:PROC
EXTRN	__imp__GetProcessTimes@20:PROC
EXTRN	__imp__GetCurrentProcess@0:PROC
EXTRN	__imp__GetExitCodeThread@8:PROC
EXTRN	__imp__GetProcessId@4:PROC
EXTRN	__imp__GetThreadTimes@20:PROC
EXTRN	__imp__GetSystemTime@4:PROC
EXTRN	__imp__GetModuleFileNameA@12:PROC
EXTRN	__imp__GetModuleHandleA@4:PROC
EXTRN	__imp__LoadResource@8:PROC
EXTRN	__imp__LockResource@4:PROC
EXTRN	__imp__SizeofResource@8:PROC
EXTRN	__imp__GetProcessIoCounters@8:PROC
EXTRN	__imp__FindResourceA@12:PROC
EXTRN	__imp__SystemTimeToFileTime@8:PROC
EXTRN	__imp__WaitForInputIdle@8:PROC
EXTRN	__imp__PathCombineA@12:PROC
EXTRN	__imp__PathRemoveFileSpecA@4:PROC
EXTRN	?get_cpu_info@@YA_NPAUcpu_info_t@@@Z:PROC	; get_cpu_info
EXTRN	?strsprintf@@YA?AV?$basic_string@DU?$char_traits@D@std@@V?$allocator@D@2@@std@@PBDZZ:PROC ; strsprintf
EXTRN	??0RGYPipeProcessWin@@QAE@XZ:PROC		; RGYPipeProcessWin::RGYPipeProcessWin
EXTRN	?getProcessInfo@RGYPipeProcessWin@@QAEABU_PROCESS_INFORMATION@@XZ:PROC ; RGYPipeProcessWin::getProcessInfo
EXTRN	?get_gpuz_info@@YAHPAUGPUZ_SH_MEM@@@Z:PROC	; get_gpuz_info
EXTRN	?gpu_core_clock@@YANPAUGPUZ_SH_MEM@@@Z:PROC	; gpu_core_clock
EXTRN	?gpu_load@@YANPAUGPUZ_SH_MEM@@@Z:PROC		; gpu_load
EXTRN	?video_engine_load@@YANPAUGPUZ_SH_MEM@@PA_N@Z:PROC ; video_engine_load
EXTRN	_K32GetProcessMemoryInfo@12:PROC
EXTRN	@_RTC_CheckStackVars@8:PROC
EXTRN	@__security_check_cookie@4:PROC
EXTRN	__CxxThrowException@8:PROC
EXTRN	__RTC_CheckEsp:PROC
EXTRN	__RTC_InitBase:PROC
EXTRN	__RTC_Shutdown:PROC
EXTRN	___CxxFrameHandler3:PROC
EXTRN	___RTDynamicCast:PROC
EXTRN	__alldiv:PROC
EXTRN	__allmul:PROC
EXTRN	__allrem:PROC
EXTRN	__aulldiv:PROC
EXTRN	__dtol3:PROC
EXTRN	__ltod3:PROC
EXTRN	__ultod3:PROC
EXTRN	_memset:PROC
EXTRN	??_7type_info@@6B@:QWORD			; type_info::`vftable'
EXTRN	___security_cookie:DWORD
EXTRN	__fltused:DWORD
;	COMDAT ?_OptionsStorage@?1??__local_stdio_printf_options@@9@4_KA
_BSS	SEGMENT
?_OptionsStorage@?1??__local_stdio_printf_options@@9@4_KA DQ 01H DUP (?) ; `__local_stdio_printf_options'::`2'::_OptionsStorage
_BSS	ENDS
_BSS	SEGMENT
?CspMatrixList@@3V?$array@W4CspMatrix@@$0O@@std@@B DB 038H DUP (?) ; CspMatrixList
?CspTransferList@@3V?$array@W4CspTransfer@@$0P@@std@@B DB 03cH DUP (?) ; CspTransferList
?CspColorprimList@@3V?$array@W4CspColorprim@@$0M@@std@@B DB 030H DUP (?) ; CspColorprimList
_BSS	ENDS
CRT$XCU	SEGMENT
?CspMatrixList$initializer$@@3P6AXXZA DD FLAT:??__ECspMatrixList@@YAXXZ ; CspMatrixList$initializer$
CRT$XCU	ENDS
;	COMDAT __real@41cdcd6500000000
CONST	SEGMENT
__real@41cdcd6500000000 DQ 041cdcd6500000000r	; 1e+09
CONST	ENDS
;	COMDAT __real@4130000000000000
CONST	SEGMENT
__real@4130000000000000 DQ 04130000000000000r	; 1.04858e+06
CONST	ENDS
;	COMDAT __real@412e848000000000
CONST	SEGMENT
__real@412e848000000000 DQ 0412e848000000000r	; 1e+06
CONST	ENDS
;	COMDAT __real@412a5e0000000000
CONST	SEGMENT
__real@412a5e0000000000 DQ 0412a5e0000000000r	; 864000
CONST	ENDS
;	COMDAT __real@40c3880000000000
CONST	SEGMENT
__real@40c3880000000000 DQ 040c3880000000000r	; 10000
CONST	ENDS
;	COMDAT __real@4059000000000000
CONST	SEGMENT
__real@4059000000000000 DQ 04059000000000000r	; 100
CONST	ENDS
;	COMDAT __real@4020000000000000
CONST	SEGMENT
__real@4020000000000000 DQ 04020000000000000r	; 8
CONST	ENDS
;	COMDAT __real@3ff0000000000000
CONST	SEGMENT
__real@3ff0000000000000 DQ 03ff0000000000000r	; 1
CONST	ENDS
;	COMDAT __real@3fe0000000000000
CONST	SEGMENT
__real@3fe0000000000000 DQ 03fe0000000000000r	; 0.5
CONST	ENDS
;	COMDAT __real@3f50624dd2f1a9fc
CONST	SEGMENT
__real@3f50624dd2f1a9fc DQ 03f50624dd2f1a9fcr	; 0.001
CONST	ENDS
;	COMDAT __real@3eb0c6f7a0b5ed8d
CONST	SEGMENT
__real@3eb0c6f7a0b5ed8d DQ 03eb0c6f7a0b5ed8dr	; 1e-06
CONST	ENDS
;	COMDAT rtc$TMZ
rtc$TMZ	SEGMENT
__RTC_Shutdown.rtc$TMZ DD FLAT:__RTC_Shutdown
rtc$TMZ	ENDS
;	COMDAT rtc$IMZ
rtc$IMZ	SEGMENT
__RTC_InitBase.rtc$IMZ DD FLAT:__RTC_InitBase
rtc$IMZ	ENDS
;	COMDAT ??_R1A@?0A@EA@bad_array_new_length@std@@8
rdata$r	SEGMENT
??_R1A@?0A@EA@bad_array_new_length@std@@8 DD FLAT:??_R0?AVbad_array_new_length@std@@@8 ; std::bad_array_new_length::`RTTI Base Class Descriptor at (0,-1,0,64)'
	DD	02H
	DD	00H
	DD	0ffffffffH
	DD	00H
	DD	040H
	DD	FLAT:??_R3bad_array_new_length@std@@8
rdata$r	ENDS
;	COMDAT ??_R2bad_array_new_length@std@@8
rdata$r	SEGMENT
??_R2bad_array_new_length@std@@8 DD FLAT:??_R1A@?0A@EA@bad_array_new_length@std@@8 ; std::bad_array_new_length::`RTTI Base Class Array'
	DD	FLAT:??_R1A@?0A@EA@bad_alloc@std@@8
	DD	FLAT:??_R1A@?0A@EA@exception@std@@8
rdata$r	ENDS
;	COMDAT ??_R3bad_array_new_length@std@@8
rdata$r	SEGMENT
??_R3bad_array_new_length@std@@8 DD 00H			; std::bad_array_new_length::`RTTI Class Hierarchy Descriptor'
	DD	00H
	DD	03H
	DD	FLAT:??_R2bad_array_new_length@std@@8
rdata$r	ENDS
;	COMDAT ??_R4bad_array_new_length@std@@6B@
rdata$r	SEGMENT
??_R4bad_array_new_length@std@@6B@ DD 00H		; std::bad_array_new_length::`RTTI Complete Object Locator'
	DD	00H
	DD	00H
	DD	FLAT:??_R0?AVbad_array_new_length@std@@@8
	DD	FLAT:??_R3bad_array_new_length@std@@8
rdata$r	ENDS
;	COMDAT ??_R1A@?0A@EA@bad_alloc@std@@8
rdata$r	SEGMENT
??_R1A@?0A@EA@bad_alloc@std@@8 DD FLAT:??_R0?AVbad_alloc@std@@@8 ; std::bad_alloc::`RTTI Base Class Descriptor at (0,-1,0,64)'
	DD	01H
	DD	00H
	DD	0ffffffffH
	DD	00H
	DD	040H
	DD	FLAT:??_R3bad_alloc@std@@8
rdata$r	ENDS
;	COMDAT ??_R2bad_alloc@std@@8
rdata$r	SEGMENT
??_R2bad_alloc@std@@8 DD FLAT:??_R1A@?0A@EA@bad_alloc@std@@8 ; std::bad_alloc::`RTTI Base Class Array'
	DD	FLAT:??_R1A@?0A@EA@exception@std@@8
rdata$r	ENDS
;	COMDAT ??_R3bad_alloc@std@@8
rdata$r	SEGMENT
??_R3bad_alloc@std@@8 DD 00H				; std::bad_alloc::`RTTI Class Hierarchy Descriptor'
	DD	00H
	DD	02H
	DD	FLAT:??_R2bad_alloc@std@@8
rdata$r	ENDS
;	COMDAT ??_R4bad_alloc@std@@6B@
rdata$r	SEGMENT
??_R4bad_alloc@std@@6B@ DD 00H				; std::bad_alloc::`RTTI Complete Object Locator'
	DD	00H
	DD	00H
	DD	FLAT:??_R0?AVbad_alloc@std@@@8
	DD	FLAT:??_R3bad_alloc@std@@8
rdata$r	ENDS
;	COMDAT ??_R1A@?0A@EA@exception@std@@8
rdata$r	SEGMENT
??_R1A@?0A@EA@exception@std@@8 DD FLAT:??_R0?AVexception@std@@@8 ; std::exception::`RTTI Base Class Descriptor at (0,-1,0,64)'
	DD	00H
	DD	00H
	DD	0ffffffffH
	DD	00H
	DD	040H
	DD	FLAT:??_R3exception@std@@8
rdata$r	ENDS
;	COMDAT ??_R2exception@std@@8
rdata$r	SEGMENT
??_R2exception@std@@8 DD FLAT:??_R1A@?0A@EA@exception@std@@8 ; std::exception::`RTTI Base Class Array'
rdata$r	ENDS
;	COMDAT ??_R3exception@std@@8
rdata$r	SEGMENT
??_R3exception@std@@8 DD 00H				; std::exception::`RTTI Class Hierarchy Descriptor'
	DD	00H
	DD	01H
	DD	FLAT:??_R2exception@std@@8
rdata$r	ENDS
;	COMDAT ??_R4exception@std@@6B@
rdata$r	SEGMENT
??_R4exception@std@@6B@ DD 00H				; std::exception::`RTTI Complete Object Locator'
	DD	00H
	DD	00H
	DD	FLAT:??_R0?AVexception@std@@@8
	DD	FLAT:??_R3exception@std@@8
rdata$r	ENDS
;	COMDAT ??_C@_0BA@JFNIOLAK@string?5too?5long@
CONST	SEGMENT
??_C@_0BA@JFNIOLAK@string?5too?5long@ DB 'string too long', 00H ; `string'
CONST	ENDS
;	COMDAT ??_C@_0BD@OLBABOEK@vector?$DMT?$DO?5too?5long@
CONST	SEGMENT
??_C@_0BD@OLBABOEK@vector?$DMT?$DO?5too?5long@ DB 'vector<T> too long', 00H ; `string'
CONST	ENDS
;	COMDAT ??_C@_0BI@CFPLBAOH@invalid?5string?5position@
CONST	SEGMENT
??_C@_0BI@CFPLBAOH@invalid?5string?5position@ DB 'invalid string position'
	DB	00H						; `string'
CONST	ENDS
;	COMDAT ??_R0?AVRGYPipeProcessWin@@@8
data$r	SEGMENT
??_R0?AVRGYPipeProcessWin@@@8 DD FLAT:??_7type_info@@6B@ ; RGYPipeProcessWin `RTTI Type Descriptor'
	DD	00H
	DB	'.?AVRGYPipeProcessWin@@', 00H
data$r	ENDS
;	COMDAT ??_R0?AVRGYPipeProcess@@@8
data$r	SEGMENT
??_R0?AVRGYPipeProcess@@@8 DD FLAT:??_7type_info@@6B@	; RGYPipeProcess `RTTI Type Descriptor'
	DD	00H
	DB	'.?AVRGYPipeProcess@@', 00H
data$r	ENDS
;	COMDAT ??_C@_1CG@JNLFBNGN@?$AA?$CC?$AAi?$AAn?$AAv?$AAa?$AAl?$AAi?$AAd?$AA?5?$AAa?$AAr?$AAg?$AAu?$AAm?$AAe@
CONST	SEGMENT
??_C@_1CG@JNLFBNGN@?$AA?$CC?$AAi?$AAn?$AAv?$AAa?$AAl?$AAi?$AAd?$AA?5?$AAa?$AAr?$AAg?$AAu?$AAm?$AAe@ DB '"'
	DB	00H, 'i', 00H, 'n', 00H, 'v', 00H, 'a', 00H, 'l', 00H, 'i', 00H
	DB	'd', 00H, ' ', 00H, 'a', 00H, 'r', 00H, 'g', 00H, 'u', 00H, 'm'
	DB	00H, 'e', 00H, 'n', 00H, 't', 00H, '"', 00H, 00H, 00H ; `string'
CONST	ENDS
;	COMDAT ??_C@_1EK@NIFDJFDG@?$AAs?$AAt?$AAd?$AA?3?$AA?3?$AA_?$AAA?$AAd?$AAj?$AAu?$AAs?$AAt?$AA_?$AAm?$AAa@
CONST	SEGMENT
??_C@_1EK@NIFDJFDG@?$AAs?$AAt?$AAd?$AA?3?$AA?3?$AA_?$AAA?$AAd?$AAj?$AAu?$AAs?$AAt?$AA_?$AAm?$AAa@ DB 's'
	DB	00H, 't', 00H, 'd', 00H, ':', 00H, ':', 00H, '_', 00H, 'A', 00H
	DB	'd', 00H, 'j', 00H, 'u', 00H, 's', 00H, 't', 00H, '_', 00H, 'm'
	DB	00H, 'a', 00H, 'n', 00H, 'u', 00H, 'a', 00H, 'l', 00H, 'l', 00H
	DB	'y', 00H, '_', 00H, 'v', 00H, 'e', 00H, 'c', 00H, 't', 00H, 'o'
	DB	00H, 'r', 00H, '_', 00H, 'a', 00H, 'l', 00H, 'i', 00H, 'g', 00H
	DB	'n', 00H, 'e', 00H, 'd', 00H, 00H, 00H	; `string'
CONST	ENDS
;	COMDAT ??_C@_1NA@CDBIFGMM@?$AAC?$AA?3?$AA?2?$AAP?$AAr?$AAo?$AAg?$AAr?$AAa?$AAm?$AA?5?$AAF?$AAi?$AAl?$AAe@
CONST	SEGMENT
??_C@_1NA@CDBIFGMM@?$AAC?$AA?3?$AA?2?$AAP?$AAr?$AAo?$AAg?$AAr?$AAa?$AAm?$AA?5?$AAF?$AAi?$AAl?$AAe@ DB 'C'
	DB	00H, ':', 00H, '\', 00H, 'P', 00H, 'r', 00H, 'o', 00H, 'g', 00H
	DB	'r', 00H, 'a', 00H, 'm', 00H, ' ', 00H, 'F', 00H, 'i', 00H, 'l'
	DB	00H, 'e', 00H, 's', 00H, ' ', 00H, '(', 00H, 'x', 00H, '8', 00H
	DB	'6', 00H, ')', 00H, '\', 00H, 'M', 00H, 'i', 00H, 'c', 00H, 'r'
	DB	00H, 'o', 00H, 's', 00H, 'o', 00H, 'f', 00H, 't', 00H, ' ', 00H
	DB	'V', 00H, 'i', 00H, 's', 00H, 'u', 00H, 'a', 00H, 'l', 00H, ' '
	DB	00H, 'S', 00H, 't', 00H, 'u', 00H, 'd', 00H, 'i', 00H, 'o', 00H
	DB	'\', 00H, '2', 00H, '0', 00H, '1', 00H, '9', 00H, '\', 00H, 'C'
	DB	00H, 'o', 00H, 'm', 00H, 'm', 00H, 'u', 00H, 'n', 00H, 'i', 00H
	DB	't', 00H, 'y', 00H, '\', 00H, 'V', 00H, 'C', 00H, '\', 00H, 'T'
	DB	00H, 'o', 00H, 'o', 00H, 'l', 00H, 's', 00H, '\', 00H, 'M', 00H
	DB	'S', 00H, 'V', 00H, 'C', 00H, '\', 00H, '1', 00H, '4', 00H, '.'
	DB	00H, '2', 00H, '3', 00H, '.', 00H, '2', 00H, '8', 00H, '1', 00H
	DB	'0', 00H, '5', 00H, '\', 00H, 'i', 00H, 'n', 00H, 'c', 00H, 'l'
	DB	00H, 'u', 00H, 'd', 00H, 'e', 00H, '\', 00H, 'x', 00H, 'm', 00H
	DB	'e', 00H, 'm', 00H, 'o', 00H, 'r', 00H, 'y', 00H, 00H, 00H ; `string'
CONST	ENDS
;	COMDAT ??_C@_0GI@FJIKDGOA@C?3?2Program?5Files?5?$CIx86?$CJ?2Microsof@
CONST	SEGMENT
??_C@_0GI@FJIKDGOA@C?3?2Program?5Files?5?$CIx86?$CJ?2Microsof@ DB 'C:\Pro'
	DB	'gram Files (x86)\Microsoft Visual Studio\2019\Community\VC\To'
	DB	'ols\MSVC\14.23.28105\include\xmemory', 00H	; `string'
CONST	ENDS
;	COMDAT ??_C@_02DKCKIIND@?$CFs@
CONST	SEGMENT
??_C@_02DKCKIIND@?$CFs@ DB '%s', 00H			; `string'
CONST	ENDS
;	COMDAT ??_C@_0BB@FCMFBGOM@invalid?5argument@
CONST	SEGMENT
??_C@_0BB@FCMFBGOM@invalid?5argument@ DB 'invalid argument', 00H ; `string'
CONST	ENDS
;	COMDAT __CT??_R0?AVexception@std@@@8??0exception@std@@QAE@ABV01@@Z12
xdata$x	SEGMENT
__CT??_R0?AVexception@std@@@8??0exception@std@@QAE@ABV01@@Z12 DD 00H
	DD	FLAT:??_R0?AVexception@std@@@8
	DD	00H
	DD	0ffffffffH
	ORG $+4
	DD	0cH
	DD	FLAT:??0exception@std@@QAE@ABV01@@Z
xdata$x	ENDS
;	COMDAT ??_R0?AVexception@std@@@8
data$r	SEGMENT
??_R0?AVexception@std@@@8 DD FLAT:??_7type_info@@6B@	; std::exception `RTTI Type Descriptor'
	DD	00H
	DB	'.?AVexception@std@@', 00H
data$r	ENDS
;	COMDAT __CT??_R0?AVbad_alloc@std@@@8??0bad_alloc@std@@QAE@ABV01@@Z12
xdata$x	SEGMENT
__CT??_R0?AVbad_alloc@std@@@8??0bad_alloc@std@@QAE@ABV01@@Z12 DD 010H
	DD	FLAT:??_R0?AVbad_alloc@std@@@8
	DD	00H
	DD	0ffffffffH
	ORG $+4
	DD	0cH
	DD	FLAT:??0bad_alloc@std@@QAE@ABV01@@Z
xdata$x	ENDS
;	COMDAT ??_R0?AVbad_alloc@std@@@8
data$r	SEGMENT
??_R0?AVbad_alloc@std@@@8 DD FLAT:??_7type_info@@6B@	; std::bad_alloc `RTTI Type Descriptor'
	DD	00H
	DB	'.?AVbad_alloc@std@@', 00H
data$r	ENDS
;	COMDAT __CT??_R0?AVbad_array_new_length@std@@@8??0bad_array_new_length@std@@QAE@ABV01@@Z12
xdata$x	SEGMENT
__CT??_R0?AVbad_array_new_length@std@@@8??0bad_array_new_length@std@@QAE@ABV01@@Z12 DD 00H
	DD	FLAT:??_R0?AVbad_array_new_length@std@@@8
	DD	00H
	DD	0ffffffffH
	ORG $+4
	DD	0cH
	DD	FLAT:??0bad_array_new_length@std@@QAE@ABV01@@Z
xdata$x	ENDS
;	COMDAT ??_R0?AVbad_array_new_length@std@@@8
data$r	SEGMENT
??_R0?AVbad_array_new_length@std@@@8 DD FLAT:??_7type_info@@6B@ ; std::bad_array_new_length `RTTI Type Descriptor'
	DD	00H
	DB	'.?AVbad_array_new_length@std@@', 00H
data$r	ENDS
;	COMDAT __CTA3?AVbad_array_new_length@std@@
xdata$x	SEGMENT
__CTA3?AVbad_array_new_length@std@@ DD 03H
	DD	FLAT:__CT??_R0?AVbad_array_new_length@std@@@8??0bad_array_new_length@std@@QAE@ABV01@@Z12
	DD	FLAT:__CT??_R0?AVbad_alloc@std@@@8??0bad_alloc@std@@QAE@ABV01@@Z12
	DD	FLAT:__CT??_R0?AVexception@std@@@8??0exception@std@@QAE@ABV01@@Z12
xdata$x	ENDS
;	COMDAT __TI3?AVbad_array_new_length@std@@
xdata$x	SEGMENT
__TI3?AVbad_array_new_length@std@@ DD 00H
	DD	FLAT:??1bad_array_new_length@std@@UAE@XZ
	DD	00H
	DD	FLAT:__CTA3?AVbad_array_new_length@std@@
xdata$x	ENDS
;	COMDAT ??_C@_0BF@KINCDENJ@bad?5array?5new?5length@
CONST	SEGMENT
??_C@_0BF@KINCDENJ@bad?5array?5new?5length@ DB 'bad array new length', 00H ; `string'
CONST	ENDS
;	COMDAT ??_7bad_array_new_length@std@@6B@
CONST	SEGMENT
??_7bad_array_new_length@std@@6B@ DD FLAT:??_R4bad_array_new_length@std@@6B@ ; std::bad_array_new_length::`vftable'
	DD	FLAT:??_Ebad_array_new_length@std@@UAEPAXI@Z
	DD	FLAT:?what@exception@std@@UBEPBDXZ
CONST	ENDS
;	COMDAT ??_7bad_alloc@std@@6B@
CONST	SEGMENT
??_7bad_alloc@std@@6B@ DD FLAT:??_R4bad_alloc@std@@6B@	; std::bad_alloc::`vftable'
	DD	FLAT:??_Ebad_alloc@std@@UAEPAXI@Z
	DD	FLAT:?what@exception@std@@UBEPBDXZ
CONST	ENDS
;	COMDAT ??_C@_0BC@EOODALEL@Unknown?5exception@
CONST	SEGMENT
??_C@_0BC@EOODALEL@Unknown?5exception@ DB 'Unknown exception', 00H ; `string'
CONST	ENDS
;	COMDAT ??_7exception@std@@6B@
CONST	SEGMENT
??_7exception@std@@6B@ DD FLAT:??_R4exception@std@@6B@	; std::exception::`vftable'
	DD	FLAT:??_Eexception@std@@UAEPAXI@Z
	DD	FLAT:?what@exception@std@@UBEPBDXZ
CONST	ENDS
;	COMDAT xdata$x
xdata$x	SEGMENT
__ehfuncinfo$??$?0U?$default_delete@V?$tuple@P6AXPAX@ZPAVCPerfMonitor@@@std@@@std@@$0A@@?$unique_ptr@V?$tuple@P6AXPAX@ZPAVCPerfMonitor@@@std@@U?$default_delete@V?$tuple@P6AXPAX@ZPAVCPerfMonitor@@@std@@@2@@std@@QAE@PAV?$tuple@P6AXPAX@ZPAVCPerfMonitor@@@1@@Z DD 019930522H
	DD	00H
	DD	00H
	DD	2 DUP(00H)
	DD	2 DUP(00H)
	DD	00H
	DD	04H
xdata$x	ENDS
;	COMDAT xdata$x
xdata$x	SEGMENT
__ehfuncinfo$??$?0A6AXPAX@ZPAVCPerfMonitor@@$0A@@?$tuple@P6AXPAX@ZPAVCPerfMonitor@@@std@@QAE@A6AXPAX@Z$$QAPAVCPerfMonitor@@@Z DD 019930522H
	DD	00H
	DD	00H
	DD	2 DUP(00H)
	DD	2 DUP(00H)
	DD	00H
	DD	04H
xdata$x	ENDS
;	COMDAT xdata$x
xdata$x	SEGMENT
__ehfuncinfo$??$_Deallocate_plain@V?$allocator@U_Container_proxy@std@@@std@@@std@@YAXAAV?$allocator@U_Container_proxy@std@@@0@QAU_Container_proxy@0@@Z DD 019930522H
	DD	00H
	DD	00H
	DD	2 DUP(00H)
	DD	2 DUP(00H)
	DD	00H
	DD	04H
xdata$x	ENDS
;	COMDAT xdata$x
xdata$x	SEGMENT
__unwindtable$??$_Invoke@V?$tuple@P6AXPAX@ZPAVCPerfMonitor@@@std@@$0A@$00@thread@std@@CGIPAX@Z DD 0ffffffffH
	DD	FLAT:__unwindfunclet$??$_Invoke@V?$tuple@P6AXPAX@ZPAVCPerfMonitor@@@std@@$0A@$00@thread@std@@CGIPAX@Z$0
__ehfuncinfo$??$_Invoke@V?$tuple@P6AXPAX@ZPAVCPerfMonitor@@@std@@$0A@$00@thread@std@@CGIPAX@Z DD 019930522H
	DD	01H
	DD	FLAT:__unwindtable$??$_Invoke@V?$tuple@P6AXPAX@ZPAVCPerfMonitor@@@std@@$0A@$00@thread@std@@CGIPAX@Z
	DD	2 DUP(00H)
	DD	2 DUP(00H)
	DD	00H
	DD	04H
xdata$x	ENDS
;	COMDAT xdata$x
xdata$x	SEGMENT
__ehfuncinfo$?release@?$unique_ptr@V?$tuple@P6AXPAX@ZPAVCPerfMonitor@@@std@@U?$default_delete@V?$tuple@P6AXPAX@ZPAVCPerfMonitor@@@std@@@2@@std@@QAEPAV?$tuple@P6AXPAX@ZPAVCPerfMonitor@@@2@XZ DD 019930522H
	DD	00H
	DD	00H
	DD	2 DUP(00H)
	DD	2 DUP(00H)
	DD	00H
	DD	04H
xdata$x	ENDS
;	COMDAT xdata$x
xdata$x	SEGMENT
__unwindtable$??$make_unique@V?$tuple@P6AXPAX@ZPAVCPerfMonitor@@@std@@A6AXPAX@ZPAVCPerfMonitor@@$0A@@std@@YA?AV?$unique_ptr@V?$tuple@P6AXPAX@ZPAVCPerfMonitor@@@std@@U?$default_delete@V?$tuple@P6AXPAX@ZPAVCPerfMonitor@@@std@@@2@@0@A6AXPAX@Z$$QAPAVCPerfMonitor@@@Z DD 0ffffffffH
	DD	FLAT:__unwindfunclet$??$make_unique@V?$tuple@P6AXPAX@ZPAVCPerfMonitor@@@std@@A6AXPAX@ZPAVCPerfMonitor@@$0A@@std@@YA?AV?$unique_ptr@V?$tuple@P6AXPAX@ZPAVCPerfMonitor@@@std@@U?$default_delete@V?$tuple@P6AXPAX@ZPAVCPerfMonitor@@@std@@@2@@0@A6AXPAX@Z$$QAPAVCPerfMonitor@@@Z$0
__ehfuncinfo$??$make_unique@V?$tuple@P6AXPAX@ZPAVCPerfMonitor@@@std@@A6AXPAX@ZPAVCPerfMonitor@@$0A@@std@@YA?AV?$unique_ptr@V?$tuple@P6AXPAX@ZPAVCPerfMonitor@@@std@@U?$default_delete@V?$tuple@P6AXPAX@ZPAVCPerfMonitor@@@std@@@2@@0@A6AXPAX@Z$$QAPAVCPerfMonitor@@@Z DD 019930522H
	DD	01H
	DD	FLAT:__unwindtable$??$make_unique@V?$tuple@P6AXPAX@ZPAVCPerfMonitor@@@std@@A6AXPAX@ZPAVCPerfMonitor@@$0A@@std@@YA?AV?$unique_ptr@V?$tuple@P6AXPAX@ZPAVCPerfMonitor@@@std@@U?$default_delete@V?$tuple@P6AXPAX@ZPAVCPerfMonitor@@@std@@@2@@0@A6AXPAX@Z$$QAPAVCPerfMonitor@@@Z
	DD	2 DUP(00H)
	DD	2 DUP(00H)
	DD	00H
	DD	00H
xdata$x	ENDS
;	COMDAT xdata$x
xdata$x	SEGMENT
__ehfuncinfo$??$_Deallocate@$07$0A@@std@@YAXPAXI@Z DD 019930522H
	DD	00H
	DD	00H
	DD	2 DUP(00H)
	DD	2 DUP(00H)
	DD	00H
	DD	04H
xdata$x	ENDS
;	COMDAT xdata$x
xdata$x	SEGMENT
__unwindtable$??$?0$$V@?$_Compressed_pair@V?$allocator@D@std@@V?$_String_val@U?$_Simple_types@D@std@@@2@$00@std@@QAE@U_Zero_then_variadic_args_t@1@@Z DD 0ffffffffH
	DD	FLAT:__unwindfunclet$??$?0$$V@?$_Compressed_pair@V?$allocator@D@std@@V?$_String_val@U?$_Simple_types@D@std@@@2@$00@std@@QAE@U_Zero_then_variadic_args_t@1@@Z$0
__ehfuncinfo$??$?0$$V@?$_Compressed_pair@V?$allocator@D@std@@V?$_String_val@U?$_Simple_types@D@std@@@2@$00@std@@QAE@U_Zero_then_variadic_args_t@1@@Z DD 019930522H
	DD	01H
	DD	FLAT:__unwindtable$??$?0$$V@?$_Compressed_pair@V?$allocator@D@std@@V?$_String_val@U?$_Simple_types@D@std@@@2@$00@std@@QAE@U_Zero_then_variadic_args_t@1@@Z
	DD	2 DUP(00H)
	DD	2 DUP(00H)
	DD	00H
	DD	00H
xdata$x	ENDS
;	COMDAT xdata$x
xdata$x	SEGMENT
__unwindtable$??$?0V?$allocator@D@std@@$$V@?$_Compressed_pair@V?$allocator@D@std@@V?$_String_val@U?$_Simple_types@D@std@@@2@$00@std@@QAE@U_One_then_variadic_args_t@1@$$QAV?$allocator@D@1@@Z DD 0ffffffffH
	DD	FLAT:__unwindfunclet$??$?0V?$allocator@D@std@@$$V@?$_Compressed_pair@V?$allocator@D@std@@V?$_String_val@U?$_Simple_types@D@std@@@2@$00@std@@QAE@U_One_then_variadic_args_t@1@$$QAV?$allocator@D@1@@Z$0
__ehfuncinfo$??$?0V?$allocator@D@std@@$$V@?$_Compressed_pair@V?$allocator@D@std@@V?$_String_val@U?$_Simple_types@D@std@@@2@$00@std@@QAE@U_One_then_variadic_args_t@1@$$QAV?$allocator@D@1@@Z DD 019930522H
	DD	01H
	DD	FLAT:__unwindtable$??$?0V?$allocator@D@std@@$$V@?$_Compressed_pair@V?$allocator@D@std@@V?$_String_val@U?$_Simple_types@D@std@@@2@$00@std@@QAE@U_One_then_variadic_args_t@1@$$QAV?$allocator@D@1@@Z
	DD	2 DUP(00H)
	DD	2 DUP(00H)
	DD	00H
	DD	00H
xdata$x	ENDS
;	COMDAT xdata$x
xdata$x	SEGMENT
__catchsym$??$_Emplace_reallocate@ABQBD@?$vector@PBDV?$allocator@PBD@std@@@std@@QAEPAPBDQAPBDABQBD@Z$2 DD 00H
	DD	00H
	DD	00H
	DD	FLAT:__catch$??$_Emplace_reallocate@ABQBD@?$vector@PBDV?$allocator@PBD@std@@@std@@QAEPAPBDQAPBDABQBD@Z$0
__unwindtable$??$_Emplace_reallocate@ABQBD@?$vector@PBDV?$allocator@PBD@std@@@std@@QAEPAPBDQAPBDABQBD@Z DD 0ffffffffH
	DD	00H
	DD	0ffffffffH
	DD	00H
__tryblocktable$??$_Emplace_reallocate@ABQBD@?$vector@PBDV?$allocator@PBD@std@@@std@@QAEPAPBDQAPBDABQBD@Z DD 00H
	DD	00H
	DD	01H
	DD	01H
	DD	FLAT:__catchsym$??$_Emplace_reallocate@ABQBD@?$vector@PBDV?$allocator@PBD@std@@@std@@QAEPAPBDQAPBDABQBD@Z$2
__ehfuncinfo$??$_Emplace_reallocate@ABQBD@?$vector@PBDV?$allocator@PBD@std@@@std@@QAEPAPBDQAPBDABQBD@Z DD 019930522H
	DD	02H
	DD	FLAT:__unwindtable$??$_Emplace_reallocate@ABQBD@?$vector@PBDV?$allocator@PBD@std@@@std@@QAEPAPBDQAPBDABQBD@Z
	DD	01H
	DD	FLAT:__tryblocktable$??$_Emplace_reallocate@ABQBD@?$vector@PBDV?$allocator@PBD@std@@@std@@QAEPAPBDQAPBDABQBD@Z
	DD	2 DUP(00H)
	DD	00H
	DD	00H
xdata$x	ENDS
;	COMDAT xdata$x
xdata$x	SEGMENT
__catchsym$??$_Emplace_reallocate@PBD@?$vector@PBDV?$allocator@PBD@std@@@std@@QAEPAPBDQAPBD$$QAPBD@Z$2 DD 00H
	DD	00H
	DD	00H
	DD	FLAT:__catch$??$_Emplace_reallocate@PBD@?$vector@PBDV?$allocator@PBD@std@@@std@@QAEPAPBDQAPBD$$QAPBD@Z$0
__unwindtable$??$_Emplace_reallocate@PBD@?$vector@PBDV?$allocator@PBD@std@@@std@@QAEPAPBDQAPBD$$QAPBD@Z DD 0ffffffffH
	DD	00H
	DD	0ffffffffH
	DD	00H
__tryblocktable$??$_Emplace_reallocate@PBD@?$vector@PBDV?$allocator@PBD@std@@@std@@QAEPAPBDQAPBD$$QAPBD@Z DD 00H
	DD	00H
	DD	01H
	DD	01H
	DD	FLAT:__catchsym$??$_Emplace_reallocate@PBD@?$vector@PBDV?$allocator@PBD@std@@@std@@QAEPAPBDQAPBD$$QAPBD@Z$2
__ehfuncinfo$??$_Emplace_reallocate@PBD@?$vector@PBDV?$allocator@PBD@std@@@std@@QAEPAPBDQAPBD$$QAPBD@Z DD 019930522H
	DD	02H
	DD	FLAT:__unwindtable$??$_Emplace_reallocate@PBD@?$vector@PBDV?$allocator@PBD@std@@@std@@QAEPAPBDQAPBD$$QAPBD@Z
	DD	01H
	DD	FLAT:__tryblocktable$??$_Emplace_reallocate@PBD@?$vector@PBDV?$allocator@PBD@std@@@std@@QAEPAPBDQAPBD$$QAPBD@Z
	DD	2 DUP(00H)
	DD	00H
	DD	00H
xdata$x	ENDS
;	COMDAT xdata$x
xdata$x	SEGMENT
__unwindtable$??$?0A6AXPAX@ZPAVCPerfMonitor@@X@thread@std@@QAE@A6AXPAX@Z$$QAPAVCPerfMonitor@@@Z DD 0ffffffffH
	DD	FLAT:__unwindfunclet$??$?0A6AXPAX@ZPAVCPerfMonitor@@X@thread@std@@QAE@A6AXPAX@Z$$QAPAVCPerfMonitor@@@Z$0
__ehfuncinfo$??$?0A6AXPAX@ZPAVCPerfMonitor@@X@thread@std@@QAE@A6AXPAX@Z$$QAPAVCPerfMonitor@@@Z DD 019930522H
	DD	01H
	DD	FLAT:__unwindtable$??$?0A6AXPAX@ZPAVCPerfMonitor@@X@thread@std@@QAE@A6AXPAX@Z$$QAPAVCPerfMonitor@@@Z
	DD	2 DUP(00H)
	DD	2 DUP(00H)
	DD	00H
	DD	00H
xdata$x	ENDS
;	COMDAT xdata$x
xdata$x	SEGMENT
__unwindtable$?_Orphan_range@?$vector@PBDV?$allocator@PBD@std@@@std@@ABEXPAPBD0@Z DD 0ffffffffH
	DD	FLAT:__unwindfunclet$?_Orphan_range@?$vector@PBDV?$allocator@PBD@std@@@std@@ABEXPAPBD0@Z$0
__ehfuncinfo$?_Orphan_range@?$vector@PBDV?$allocator@PBD@std@@@std@@ABEXPAPBD0@Z DD 019930522H
	DD	01H
	DD	FLAT:__unwindtable$?_Orphan_range@?$vector@PBDV?$allocator@PBD@std@@@std@@ABEXPAPBD0@Z
	DD	2 DUP(00H)
	DD	2 DUP(00H)
	DD	00H
	DD	00H
xdata$x	ENDS
;	COMDAT xdata$x
xdata$x	SEGMENT
__ehfuncinfo$?_Tidy@?$vector@PBDV?$allocator@PBD@std@@@std@@AAEXXZ DD 019930522H
	DD	00H
	DD	00H
	DD	2 DUP(00H)
	DD	2 DUP(00H)
	DD	00H
	DD	04H
xdata$x	ENDS
;	COMDAT xdata$x
xdata$x	SEGMENT
__ehfuncinfo$??1?$vector@PBDV?$allocator@PBD@std@@@std@@QAE@XZ DD 019930522H
	DD	00H
	DD	00H
	DD	2 DUP(00H)
	DD	2 DUP(00H)
	DD	00H
	DD	04H
xdata$x	ENDS
;	COMDAT xdata$x
xdata$x	SEGMENT
__ehfuncinfo$??0?$vector@PBDV?$allocator@PBD@std@@@std@@QAE@XZ DD 019930522H
	DD	00H
	DD	00H
	DD	2 DUP(00H)
	DD	2 DUP(00H)
	DD	00H
	DD	04H
xdata$x	ENDS
;	COMDAT xdata$x
xdata$x	SEGMENT
__ehfuncinfo$??$?0U?$default_delete@VRGYPipeProcess@@@std@@$0A@@?$unique_ptr@VRGYPipeProcess@@U?$default_delete@VRGYPipeProcess@@@std@@@std@@QAE@PAVRGYPipeProcess@@@Z DD 019930522H
	DD	00H
	DD	00H
	DD	2 DUP(00H)
	DD	2 DUP(00H)
	DD	00H
	DD	04H
xdata$x	ENDS
;	COMDAT xdata$x
xdata$x	SEGMENT
__ehfuncinfo$??$?0Ufp_deleter@@$0A@@?$unique_ptr@U_iobuf@@Ufp_deleter@@@std@@QAE@PAU_iobuf@@@Z DD 019930522H
	DD	00H
	DD	00H
	DD	2 DUP(00H)
	DD	2 DUP(00H)
	DD	00H
	DD	04H
xdata$x	ENDS
;	COMDAT xdata$x
xdata$x	SEGMENT
__ehfuncinfo$??$?0Ufp_deleter@@$0A@@?$unique_ptr@U_iobuf@@Ufp_deleter@@@std@@QAE@XZ DD 019930522H
	DD	00H
	DD	00H
	DD	2 DUP(00H)
	DD	2 DUP(00H)
	DD	00H
	DD	04H
xdata$x	ENDS
;	COMDAT xdata$x
xdata$x	SEGMENT
__ehfuncinfo$??$?0U?$default_delete@VRGYPipeProcess@@@std@@$0A@@?$unique_ptr@VRGYPipeProcess@@U?$default_delete@VRGYPipeProcess@@@std@@@std@@QAE@XZ DD 019930522H
	DD	00H
	DD	00H
	DD	2 DUP(00H)
	DD	2 DUP(00H)
	DD	00H
	DD	04H
xdata$x	ENDS
;	COMDAT xdata$x
xdata$x	SEGMENT
__ehfuncinfo$??$?0Uhandle_deleter@@$0A@@?$unique_ptr@XUhandle_deleter@@@std@@QAE@XZ DD 019930522H
	DD	00H
	DD	00H
	DD	2 DUP(00H)
	DD	2 DUP(00H)
	DD	00H
	DD	04H
xdata$x	ENDS
;	COMDAT xdata$x
xdata$x	SEGMENT
__unwindtable$?reset@?$shared_ptr@VRGYLog@@@std@@QAEXXZ DD 0ffffffffH
	DD	FLAT:__unwindfunclet$?reset@?$shared_ptr@VRGYLog@@@std@@QAEXXZ$0
__ehfuncinfo$?reset@?$shared_ptr@VRGYLog@@@std@@QAEXXZ DD 019930522H
	DD	01H
	DD	FLAT:__unwindtable$?reset@?$shared_ptr@VRGYLog@@@std@@QAEXXZ
	DD	2 DUP(00H)
	DD	2 DUP(00H)
	DD	00H
	DD	04H
xdata$x	ENDS
;	COMDAT xdata$x
xdata$x	SEGMENT
__unwindtable$??4?$shared_ptr@VRGYLog@@@std@@QAEAAV01@ABV01@@Z DD 0ffffffffH
	DD	FLAT:__unwindfunclet$??4?$shared_ptr@VRGYLog@@@std@@QAEAAV01@ABV01@@Z$0
__ehfuncinfo$??4?$shared_ptr@VRGYLog@@@std@@QAEAAV01@ABV01@@Z DD 019930522H
	DD	01H
	DD	FLAT:__unwindtable$??4?$shared_ptr@VRGYLog@@@std@@QAEAAV01@ABV01@@Z
	DD	2 DUP(00H)
	DD	2 DUP(00H)
	DD	00H
	DD	04H
xdata$x	ENDS
;	COMDAT xdata$x
xdata$x	SEGMENT
__ehfuncinfo$?reset@?$unique_ptr@U_iobuf@@Ufp_deleter@@@std@@QAEXPAU_iobuf@@@Z DD 019930522H
	DD	00H
	DD	00H
	DD	2 DUP(00H)
	DD	2 DUP(00H)
	DD	00H
	DD	04H
xdata$x	ENDS
;	COMDAT xdata$x
xdata$x	SEGMENT
__ehfuncinfo$?release@?$unique_ptr@U_iobuf@@Ufp_deleter@@@std@@QAEPAU_iobuf@@XZ DD 019930522H
	DD	00H
	DD	00H
	DD	2 DUP(00H)
	DD	2 DUP(00H)
	DD	00H
	DD	04H
xdata$x	ENDS
;	COMDAT xdata$x
xdata$x	SEGMENT
__ehfuncinfo$??1?$unique_ptr@U_iobuf@@Ufp_deleter@@@std@@QAE@XZ DD 019930522H
	DD	00H
	DD	00H
	DD	2 DUP(00H)
	DD	2 DUP(00H)
	DD	00H
	DD	04H
xdata$x	ENDS
;	COMDAT xdata$x
xdata$x	SEGMENT
__unwindtable$??4?$shared_ptr@VEncodeStatus@@@std@@QAEAAV01@ABV01@@Z DD 0ffffffffH
	DD	FLAT:__unwindfunclet$??4?$shared_ptr@VEncodeStatus@@@std@@QAEAAV01@ABV01@@Z$0
__ehfuncinfo$??4?$shared_ptr@VEncodeStatus@@@std@@QAEAAV01@ABV01@@Z DD 019930522H
	DD	01H
	DD	FLAT:__unwindtable$??4?$shared_ptr@VEncodeStatus@@@std@@QAEAAV01@ABV01@@Z
	DD	2 DUP(00H)
	DD	2 DUP(00H)
	DD	00H
	DD	04H
xdata$x	ENDS
;	COMDAT xdata$x
xdata$x	SEGMENT
__ehfuncinfo$?reset@?$unique_ptr@VRGYPipeProcess@@U?$default_delete@VRGYPipeProcess@@@std@@@std@@QAEXPAVRGYPipeProcess@@@Z DD 019930522H
	DD	00H
	DD	00H
	DD	2 DUP(00H)
	DD	2 DUP(00H)
	DD	00H
	DD	04H
xdata$x	ENDS
;	COMDAT xdata$x
xdata$x	SEGMENT
__ehfuncinfo$?release@?$unique_ptr@VRGYPipeProcess@@U?$default_delete@VRGYPipeProcess@@@std@@@std@@QAEPAVRGYPipeProcess@@XZ DD 019930522H
	DD	00H
	DD	00H
	DD	2 DUP(00H)
	DD	2 DUP(00H)
	DD	00H
	DD	04H
xdata$x	ENDS
;	COMDAT xdata$x
xdata$x	SEGMENT
__ehfuncinfo$?reset@?$unique_ptr@XUhandle_deleter@@@std@@QAEXPAX@Z DD 019930522H
	DD	00H
	DD	00H
	DD	2 DUP(00H)
	DD	2 DUP(00H)
	DD	00H
	DD	04H
xdata$x	ENDS
;	COMDAT xdata$x
xdata$x	SEGMENT
__ehfuncinfo$?release@?$unique_ptr@XUhandle_deleter@@@std@@QAEPAXXZ DD 019930522H
	DD	00H
	DD	00H
	DD	2 DUP(00H)
	DD	2 DUP(00H)
	DD	00H
	DD	04H
xdata$x	ENDS
;	COMDAT xdata$x
xdata$x	SEGMENT
__ehfuncinfo$??1?$unique_ptr@XUhandle_deleter@@@std@@QAE@XZ DD 019930522H
	DD	00H
	DD	00H
	DD	2 DUP(00H)
	DD	2 DUP(00H)
	DD	00H
	DD	04H
xdata$x	ENDS
xdata$x	SEGMENT
__unwindtable$?write_header@CPerfMonitor@@IAEXPAU_iobuf@@H@Z DD 0ffffffffH
	DD	FLAT:__unwindfunclet$?write_header@CPerfMonitor@@IAEXPAU_iobuf@@H@Z$0
__unwindtable$?SetEncStatus@CPerfMonitor@@QAEXV?$shared_ptr@VEncodeStatus@@@std@@@Z DD 0ffffffffH
	DD	FLAT:__unwindfunclet$?SetEncStatus@CPerfMonitor@@QAEXV?$shared_ptr@VEncodeStatus@@@std@@@Z$0
__unwindtable$?SelectedCounters@CPerfMonitor@@IAE?AV?$basic_string@DU?$char_traits@D@std@@V?$allocator@D@2@@std@@H@Z DD 0ffffffffH
	DD	FLAT:__unwindfunclet$?SelectedCounters@CPerfMonitor@@IAE?AV?$basic_string@DU?$char_traits@D@std@@V?$allocator@D@2@@std@@H@Z$0
	DD	00H
	DD	FLAT:__unwindfunclet$?SelectedCounters@CPerfMonitor@@IAE?AV?$basic_string@DU?$char_traits@D@std@@V?$allocator@D@2@@std@@H@Z$1
__ehfuncinfo$?SelectedCounters@CPerfMonitor@@IAE?AV?$basic_string@DU?$char_traits@D@std@@V?$allocator@D@2@@std@@H@Z DD 019930522H
	DD	02H
	DD	FLAT:__unwindtable$?SelectedCounters@CPerfMonitor@@IAE?AV?$basic_string@DU?$char_traits@D@std@@V?$allocator@D@2@@std@@H@Z
	DD	2 DUP(00H)
	DD	2 DUP(00H)
	DD	00H
	DD	00H
__ehfuncinfo$?write@CPerfMonitor@@IAEXPAU_iobuf@@H@Z DD 019930522H
	DD	020H
	DD	FLAT:__unwindtable$?write@CPerfMonitor@@IAEXPAU_iobuf@@H@Z
	DD	2 DUP(00H)
	DD	2 DUP(00H)
	DD	00H
	DD	00H
__ehfuncinfo$?write_header@CPerfMonitor@@IAEXPAU_iobuf@@H@Z DD 019930522H
	DD	01H
	DD	FLAT:__unwindtable$?write_header@CPerfMonitor@@IAEXPAU_iobuf@@H@Z
	DD	2 DUP(00H)
	DD	2 DUP(00H)
	DD	00H
	DD	00H
__ehfuncinfo$?SetEncStatus@CPerfMonitor@@QAEXV?$shared_ptr@VEncodeStatus@@@std@@@Z DD 019930522H
	DD	01H
	DD	FLAT:__unwindtable$?SetEncStatus@CPerfMonitor@@QAEXV?$shared_ptr@VEncodeStatus@@@std@@@Z
	DD	2 DUP(00H)
	DD	2 DUP(00H)
	DD	00H
	DD	00H
__ehfuncinfo$??1CPerfMonitor@@QAE@XZ DD 019930522H
	DD	08H
	DD	FLAT:__unwindtable$??1CPerfMonitor@@QAE@XZ
	DD	2 DUP(00H)
	DD	2 DUP(00H)
	DD	00H
	DD	04H
__ehfuncinfo$?init@CPerfMonitor@@QAEHV?$basic_string@DU?$char_traits@D@std@@V?$allocator@D@2@@std@@PBDHHHV?$unique_ptr@XUhandle_deleter@@@3@V?$shared_ptr@VRGYLog@@@3@PAUCPerfMonitorPrm@@@Z DD 019930522H
	DD	015H
	DD	FLAT:__unwindtable$?init@CPerfMonitor@@QAEHV?$basic_string@DU?$char_traits@D@std@@V?$allocator@D@2@@std@@PBDHHHV?$unique_ptr@XUhandle_deleter@@@3@V?$shared_ptr@VRGYLog@@@3@PAUCPerfMonitorPrm@@@Z
	DD	2 DUP(00H)
	DD	2 DUP(00H)
	DD	00H
	DD	00H
__ehfuncinfo$??0CPerfMonitor@@QAE@XZ DD 019930522H
	DD	08H
	DD	FLAT:__unwindtable$??0CPerfMonitor@@QAE@XZ
	DD	2 DUP(00H)
	DD	2 DUP(00H)
	DD	00H
	DD	00H
__unwindtable$??1CPerfMonitor@@QAE@XZ DD 0ffffffffH
	DD	FLAT:__unwindfunclet$??1CPerfMonitor@@QAE@XZ$0
	DD	00H
	DD	FLAT:__unwindfunclet$??1CPerfMonitor@@QAE@XZ$1
	DD	01H
	DD	FLAT:__unwindfunclet$??1CPerfMonitor@@QAE@XZ$2
	DD	02H
	DD	FLAT:__unwindfunclet$??1CPerfMonitor@@QAE@XZ$3
	DD	03H
	DD	FLAT:__unwindfunclet$??1CPerfMonitor@@QAE@XZ$4
	DD	04H
	DD	FLAT:__unwindfunclet$??1CPerfMonitor@@QAE@XZ$5
	DD	05H
	DD	FLAT:__unwindfunclet$??1CPerfMonitor@@QAE@XZ$6
	DD	06H
	DD	FLAT:__unwindfunclet$??1CPerfMonitor@@QAE@XZ$7
__unwindtable$??0CPerfMonitor@@QAE@XZ DD 0ffffffffH
	DD	FLAT:__unwindfunclet$??0CPerfMonitor@@QAE@XZ$0
	DD	00H
	DD	FLAT:__unwindfunclet$??0CPerfMonitor@@QAE@XZ$1
	DD	01H
	DD	FLAT:__unwindfunclet$??0CPerfMonitor@@QAE@XZ$2
	DD	02H
	DD	FLAT:__unwindfunclet$??0CPerfMonitor@@QAE@XZ$3
	DD	03H
	DD	FLAT:__unwindfunclet$??0CPerfMonitor@@QAE@XZ$4
	DD	04H
	DD	FLAT:__unwindfunclet$??0CPerfMonitor@@QAE@XZ$5
	DD	05H
	DD	FLAT:__unwindfunclet$??0CPerfMonitor@@QAE@XZ$6
	DD	06H
	DD	FLAT:__unwindfunclet$??0CPerfMonitor@@QAE@XZ$7
__unwindtable$?init@CPerfMonitor@@QAEHV?$basic_string@DU?$char_traits@D@std@@V?$allocator@D@2@@std@@PBDHHHV?$unique_ptr@XUhandle_deleter@@@3@V?$shared_ptr@VRGYLog@@@3@PAUCPerfMonitorPrm@@@Z DD 0ffffffffH
	DD	FLAT:__unwindfunclet$?init@CPerfMonitor@@QAEHV?$basic_string@DU?$char_traits@D@std@@V?$allocator@D@2@@std@@PBDHHHV?$unique_ptr@XUhandle_deleter@@@3@V?$shared_ptr@VRGYLog@@@3@PAUCPerfMonitorPrm@@@Z$0
	DD	00H
	DD	FLAT:__unwindfunclet$?init@CPerfMonitor@@QAEHV?$basic_string@DU?$char_traits@D@std@@V?$allocator@D@2@@std@@PBDHHHV?$unique_ptr@XUhandle_deleter@@@3@V?$shared_ptr@VRGYLog@@@3@PAUCPerfMonitorPrm@@@Z$1
	DD	01H
	DD	FLAT:__unwindfunclet$?init@CPerfMonitor@@QAEHV?$basic_string@DU?$char_traits@D@std@@V?$allocator@D@2@@std@@PBDHHHV?$unique_ptr@XUhandle_deleter@@@3@V?$shared_ptr@VRGYLog@@@3@PAUCPerfMonitorPrm@@@Z$2
	DD	02H
	DD	FLAT:__unwindfunclet$?init@CPerfMonitor@@QAEHV?$basic_string@DU?$char_traits@D@std@@V?$allocator@D@2@@std@@PBDHHHV?$unique_ptr@XUhandle_deleter@@@3@V?$shared_ptr@VRGYLog@@@3@PAUCPerfMonitorPrm@@@Z$3
	DD	02H
	DD	FLAT:__unwindfunclet$?init@CPerfMonitor@@QAEHV?$basic_string@DU?$char_traits@D@std@@V?$allocator@D@2@@std@@PBDHHHV?$unique_ptr@XUhandle_deleter@@@3@V?$shared_ptr@VRGYLog@@@3@PAUCPerfMonitorPrm@@@Z$4
	DD	02H
	DD	FLAT:__unwindfunclet$?init@CPerfMonitor@@QAEHV?$basic_string@DU?$char_traits@D@std@@V?$allocator@D@2@@std@@PBDHHHV?$unique_ptr@XUhandle_deleter@@@3@V?$shared_ptr@VRGYLog@@@3@PAUCPerfMonitorPrm@@@Z$5
	DD	02H
	DD	FLAT:__unwindfunclet$?init@CPerfMonitor@@QAEHV?$basic_string@DU?$char_traits@D@std@@V?$allocator@D@2@@std@@PBDHHHV?$unique_ptr@XUhandle_deleter@@@3@V?$shared_ptr@VRGYLog@@@3@PAUCPerfMonitorPrm@@@Z$6
	DD	02H
	DD	FLAT:__unwindfunclet$?init@CPerfMonitor@@QAEHV?$basic_string@DU?$char_traits@D@std@@V?$allocator@D@2@@std@@PBDHHHV?$unique_ptr@XUhandle_deleter@@@3@V?$shared_ptr@VRGYLog@@@3@PAUCPerfMonitorPrm@@@Z$7
	DD	07H
	DD	FLAT:__unwindfunclet$?init@CPerfMonitor@@QAEHV?$basic_string@DU?$char_traits@D@std@@V?$allocator@D@2@@std@@PBDHHHV?$unique_ptr@XUhandle_deleter@@@3@V?$shared_ptr@VRGYLog@@@3@PAUCPerfMonitorPrm@@@Z$8
	DD	08H
	DD	FLAT:__unwindfunclet$?init@CPerfMonitor@@QAEHV?$basic_string@DU?$char_traits@D@std@@V?$allocator@D@2@@std@@PBDHHHV?$unique_ptr@XUhandle_deleter@@@3@V?$shared_ptr@VRGYLog@@@3@PAUCPerfMonitorPrm@@@Z$9
	DD	09H
	DD	FLAT:__unwindfunclet$?init@CPerfMonitor@@QAEHV?$basic_string@DU?$char_traits@D@std@@V?$allocator@D@2@@std@@PBDHHHV?$unique_ptr@XUhandle_deleter@@@3@V?$shared_ptr@VRGYLog@@@3@PAUCPerfMonitorPrm@@@Z$10
	DD	0aH
	DD	FLAT:__unwindfunclet$?init@CPerfMonitor@@QAEHV?$basic_string@DU?$char_traits@D@std@@V?$allocator@D@2@@std@@PBDHHHV?$unique_ptr@XUhandle_deleter@@@3@V?$shared_ptr@VRGYLog@@@3@PAUCPerfMonitorPrm@@@Z$11
	DD	07H
	DD	FLAT:__unwindfunclet$?init@CPerfMonitor@@QAEHV?$basic_string@DU?$char_traits@D@std@@V?$allocator@D@2@@std@@PBDHHHV?$unique_ptr@XUhandle_deleter@@@3@V?$shared_ptr@VRGYLog@@@3@PAUCPerfMonitorPrm@@@Z$12
	DD	0cH
	DD	FLAT:__unwindfunclet$?init@CPerfMonitor@@QAEHV?$basic_string@DU?$char_traits@D@std@@V?$allocator@D@2@@std@@PBDHHHV?$unique_ptr@XUhandle_deleter@@@3@V?$shared_ptr@VRGYLog@@@3@PAUCPerfMonitorPrm@@@Z$13
	DD	0dH
	DD	FLAT:__unwindfunclet$?init@CPerfMonitor@@QAEHV?$basic_string@DU?$char_traits@D@std@@V?$allocator@D@2@@std@@PBDHHHV?$unique_ptr@XUhandle_deleter@@@3@V?$shared_ptr@VRGYLog@@@3@PAUCPerfMonitorPrm@@@Z$14
	DD	0eH
	DD	FLAT:__unwindfunclet$?init@CPerfMonitor@@QAEHV?$basic_string@DU?$char_traits@D@std@@V?$allocator@D@2@@std@@PBDHHHV?$unique_ptr@XUhandle_deleter@@@3@V?$shared_ptr@VRGYLog@@@3@PAUCPerfMonitorPrm@@@Z$15
	DD	07H
	DD	FLAT:__unwindfunclet$?init@CPerfMonitor@@QAEHV?$basic_string@DU?$char_traits@D@std@@V?$allocator@D@2@@std@@PBDHHHV?$unique_ptr@XUhandle_deleter@@@3@V?$shared_ptr@VRGYLog@@@3@PAUCPerfMonitorPrm@@@Z$16
	DD	010H
	DD	FLAT:__unwindfunclet$?init@CPerfMonitor@@QAEHV?$basic_string@DU?$char_traits@D@std@@V?$allocator@D@2@@std@@PBDHHHV?$unique_ptr@XUhandle_deleter@@@3@V?$shared_ptr@VRGYLog@@@3@PAUCPerfMonitorPrm@@@Z$17
	DD	02H
	DD	FLAT:__unwindfunclet$?init@CPerfMonitor@@QAEHV?$basic_string@DU?$char_traits@D@std@@V?$allocator@D@2@@std@@PBDHHHV?$unique_ptr@XUhandle_deleter@@@3@V?$shared_ptr@VRGYLog@@@3@PAUCPerfMonitorPrm@@@Z$18
	DD	02H
	DD	FLAT:__unwindfunclet$?init@CPerfMonitor@@QAEHV?$basic_string@DU?$char_traits@D@std@@V?$allocator@D@2@@std@@PBDHHHV?$unique_ptr@XUhandle_deleter@@@3@V?$shared_ptr@VRGYLog@@@3@PAUCPerfMonitorPrm@@@Z$19
	DD	02H
	DD	FLAT:__unwindfunclet$?init@CPerfMonitor@@QAEHV?$basic_string@DU?$char_traits@D@std@@V?$allocator@D@2@@std@@PBDHHHV?$unique_ptr@XUhandle_deleter@@@3@V?$shared_ptr@VRGYLog@@@3@PAUCPerfMonitorPrm@@@Z$20
__unwindtable$?write@CPerfMonitor@@IAEXPAU_iobuf@@H@Z DD 0ffffffffH
	DD	FLAT:__unwindfunclet$?write@CPerfMonitor@@IAEXPAU_iobuf@@H@Z$0
	DD	00H
	DD	FLAT:__unwindfunclet$?write@CPerfMonitor@@IAEXPAU_iobuf@@H@Z$1
	DD	00H
	DD	FLAT:__unwindfunclet$?write@CPerfMonitor@@IAEXPAU_iobuf@@H@Z$2
	DD	00H
	DD	FLAT:__unwindfunclet$?write@CPerfMonitor@@IAEXPAU_iobuf@@H@Z$3
	DD	00H
	DD	FLAT:__unwindfunclet$?write@CPerfMonitor@@IAEXPAU_iobuf@@H@Z$4
	DD	00H
	DD	FLAT:__unwindfunclet$?write@CPerfMonitor@@IAEXPAU_iobuf@@H@Z$5
	DD	00H
	DD	FLAT:__unwindfunclet$?write@CPerfMonitor@@IAEXPAU_iobuf@@H@Z$6
	DD	00H
	DD	FLAT:__unwindfunclet$?write@CPerfMonitor@@IAEXPAU_iobuf@@H@Z$7
	DD	00H
	DD	FLAT:__unwindfunclet$?write@CPerfMonitor@@IAEXPAU_iobuf@@H@Z$8
	DD	00H
	DD	FLAT:__unwindfunclet$?write@CPerfMonitor@@IAEXPAU_iobuf@@H@Z$9
	DD	00H
	DD	FLAT:__unwindfunclet$?write@CPerfMonitor@@IAEXPAU_iobuf@@H@Z$10
	DD	00H
	DD	FLAT:__unwindfunclet$?write@CPerfMonitor@@IAEXPAU_iobuf@@H@Z$11
	DD	00H
	DD	FLAT:__unwindfunclet$?write@CPerfMonitor@@IAEXPAU_iobuf@@H@Z$12
	DD	00H
	DD	FLAT:__unwindfunclet$?write@CPerfMonitor@@IAEXPAU_iobuf@@H@Z$13
	DD	00H
	DD	FLAT:__unwindfunclet$?write@CPerfMonitor@@IAEXPAU_iobuf@@H@Z$14
	DD	00H
	DD	FLAT:__unwindfunclet$?write@CPerfMonitor@@IAEXPAU_iobuf@@H@Z$15
	DD	00H
	DD	FLAT:__unwindfunclet$?write@CPerfMonitor@@IAEXPAU_iobuf@@H@Z$16
	DD	00H
	DD	FLAT:__unwindfunclet$?write@CPerfMonitor@@IAEXPAU_iobuf@@H@Z$17
	DD	00H
	DD	FLAT:__unwindfunclet$?write@CPerfMonitor@@IAEXPAU_iobuf@@H@Z$18
	DD	00H
	DD	FLAT:__unwindfunclet$?write@CPerfMonitor@@IAEXPAU_iobuf@@H@Z$19
	DD	00H
	DD	FLAT:__unwindfunclet$?write@CPerfMonitor@@IAEXPAU_iobuf@@H@Z$20
	DD	00H
	DD	FLAT:__unwindfunclet$?write@CPerfMonitor@@IAEXPAU_iobuf@@H@Z$21
	DD	00H
	DD	FLAT:__unwindfunclet$?write@CPerfMonitor@@IAEXPAU_iobuf@@H@Z$22
	DD	00H
	DD	FLAT:__unwindfunclet$?write@CPerfMonitor@@IAEXPAU_iobuf@@H@Z$23
	DD	00H
	DD	FLAT:__unwindfunclet$?write@CPerfMonitor@@IAEXPAU_iobuf@@H@Z$24
	DD	00H
	DD	FLAT:__unwindfunclet$?write@CPerfMonitor@@IAEXPAU_iobuf@@H@Z$25
	DD	00H
	DD	FLAT:__unwindfunclet$?write@CPerfMonitor@@IAEXPAU_iobuf@@H@Z$26
	DD	00H
	DD	FLAT:__unwindfunclet$?write@CPerfMonitor@@IAEXPAU_iobuf@@H@Z$27
	DD	00H
	DD	FLAT:__unwindfunclet$?write@CPerfMonitor@@IAEXPAU_iobuf@@H@Z$28
	DD	00H
	DD	FLAT:__unwindfunclet$?write@CPerfMonitor@@IAEXPAU_iobuf@@H@Z$29
	DD	00H
	DD	FLAT:__unwindfunclet$?write@CPerfMonitor@@IAEXPAU_iobuf@@H@Z$30
	DD	00H
	DD	FLAT:__unwindfunclet$?write@CPerfMonitor@@IAEXPAU_iobuf@@H@Z$31
xdata$x	ENDS
;	COMDAT xdata$x
xdata$x	SEGMENT
__unwindtable$??$?HDU?$char_traits@D@std@@V?$allocator@D@1@@std@@YA?AV?$basic_string@DU?$char_traits@D@std@@V?$allocator@D@2@@0@$$QAV10@0@Z DD 0ffffffffH
	DD	FLAT:__unwindfunclet$??$?HDU?$char_traits@D@std@@V?$allocator@D@1@@std@@YA?AV?$basic_string@DU?$char_traits@D@std@@V?$allocator@D@2@@0@$$QAV10@0@Z$0
__ehfuncinfo$??$?HDU?$char_traits@D@std@@V?$allocator@D@1@@std@@YA?AV?$basic_string@DU?$char_traits@D@std@@V?$allocator@D@2@@0@$$QAV10@0@Z DD 019930522H
	DD	01H
	DD	FLAT:__unwindtable$??$?HDU?$char_traits@D@std@@V?$allocator@D@1@@std@@YA?AV?$basic_string@DU?$char_traits@D@std@@V?$allocator@D@2@@0@$$QAV10@0@Z
	DD	2 DUP(00H)
	DD	2 DUP(00H)
	DD	00H
	DD	00H
xdata$x	ENDS
;	COMDAT xdata$x
xdata$x	SEGMENT
__unwindtable$??$?HDU?$char_traits@D@std@@V?$allocator@D@1@@std@@YA?AV?$basic_string@DU?$char_traits@D@std@@V?$allocator@D@2@@0@$$QAV10@ABV10@@Z DD 0ffffffffH
	DD	FLAT:__unwindfunclet$??$?HDU?$char_traits@D@std@@V?$allocator@D@1@@std@@YA?AV?$basic_string@DU?$char_traits@D@std@@V?$allocator@D@2@@0@$$QAV10@ABV10@@Z$0
__ehfuncinfo$??$?HDU?$char_traits@D@std@@V?$allocator@D@1@@std@@YA?AV?$basic_string@DU?$char_traits@D@std@@V?$allocator@D@2@@0@$$QAV10@ABV10@@Z DD 019930522H
	DD	01H
	DD	FLAT:__unwindtable$??$?HDU?$char_traits@D@std@@V?$allocator@D@1@@std@@YA?AV?$basic_string@DU?$char_traits@D@std@@V?$allocator@D@2@@0@$$QAV10@ABV10@@Z
	DD	2 DUP(00H)
	DD	2 DUP(00H)
	DD	00H
	DD	00H
xdata$x	ENDS
;	COMDAT xdata$x
xdata$x	SEGMENT
__unwindtable$??1?$_Compressed_pair@V?$allocator@D@std@@V?$_String_val@U?$_Simple_types@D@std@@@2@$00@std@@QAE@XZ DD 0ffffffffH
	DD	FLAT:__unwindfunclet$??1?$_Compressed_pair@V?$allocator@D@std@@V?$_String_val@U?$_Simple_types@D@std@@@2@$00@std@@QAE@XZ$0
__ehfuncinfo$??1?$_Compressed_pair@V?$allocator@D@std@@V?$_String_val@U?$_Simple_types@D@std@@@2@$00@std@@QAE@XZ DD 019930522H
	DD	01H
	DD	FLAT:__unwindtable$??1?$_Compressed_pair@V?$allocator@D@std@@V?$_String_val@U?$_Simple_types@D@std@@@2@$00@std@@QAE@XZ
	DD	2 DUP(00H)
	DD	2 DUP(00H)
	DD	00H
	DD	04H
xdata$x	ENDS
;	COMDAT xdata$x
xdata$x	SEGMENT
__ehfuncinfo$?_Tidy_deallocate@?$basic_string@DU?$char_traits@D@std@@V?$allocator@D@2@@std@@AAEXXZ DD 019930522H
	DD	00H
	DD	00H
	DD	2 DUP(00H)
	DD	2 DUP(00H)
	DD	00H
	DD	04H
xdata$x	ENDS
;	COMDAT xdata$x
xdata$x	SEGMENT
__ehfuncinfo$?c_str@?$basic_string@DU?$char_traits@D@std@@V?$allocator@D@2@@std@@QBEPBDXZ DD 019930522H
	DD	00H
	DD	00H
	DD	2 DUP(00H)
	DD	2 DUP(00H)
	DD	00H
	DD	04H
xdata$x	ENDS
;	COMDAT xdata$x
xdata$x	SEGMENT
__unwindtable$??1?$basic_string@DU?$char_traits@D@std@@V?$allocator@D@2@@std@@QAE@XZ DD 0ffffffffH
	DD	FLAT:__unwindfunclet$??1?$basic_string@DU?$char_traits@D@std@@V?$allocator@D@2@@std@@QAE@XZ$0
__ehfuncinfo$??1?$basic_string@DU?$char_traits@D@std@@V?$allocator@D@2@@std@@QAE@XZ DD 019930522H
	DD	01H
	DD	FLAT:__unwindtable$??1?$basic_string@DU?$char_traits@D@std@@V?$allocator@D@2@@std@@QAE@XZ
	DD	2 DUP(00H)
	DD	2 DUP(00H)
	DD	00H
	DD	04H
xdata$x	ENDS
;	COMDAT xdata$x
xdata$x	SEGMENT
__ehfuncinfo$?_Take_contents@?$basic_string@DU?$char_traits@D@std@@V?$allocator@D@2@@std@@AAEXAAV12@U?$integral_constant@_N$00@2@@Z DD 019930522H
	DD	00H
	DD	00H
	DD	2 DUP(00H)
	DD	2 DUP(00H)
	DD	00H
	DD	04H
xdata$x	ENDS
;	COMDAT xdata$x
xdata$x	SEGMENT
__ehfuncinfo$?_Memcpy_val_from@?$basic_string@DU?$char_traits@D@std@@V?$allocator@D@2@@std@@AAEXABV12@@Z DD 019930522H
	DD	00H
	DD	00H
	DD	2 DUP(00H)
	DD	2 DUP(00H)
	DD	00H
	DD	04H
xdata$x	ENDS
;	COMDAT xdata$x
xdata$x	SEGMENT
__unwindtable$??0?$basic_string@DU?$char_traits@D@std@@V?$allocator@D@2@@std@@QAE@$$QAV01@@Z DD 0ffffffffH
	DD	FLAT:__unwindfunclet$??0?$basic_string@DU?$char_traits@D@std@@V?$allocator@D@2@@std@@QAE@$$QAV01@@Z$0
__ehfuncinfo$??0?$basic_string@DU?$char_traits@D@std@@V?$allocator@D@2@@std@@QAE@$$QAV01@@Z DD 019930522H
	DD	01H
	DD	FLAT:__unwindtable$??0?$basic_string@DU?$char_traits@D@std@@V?$allocator@D@2@@std@@QAE@$$QAV01@@Z
	DD	2 DUP(00H)
	DD	2 DUP(00H)
	DD	00H
	DD	04H
xdata$x	ENDS
;	COMDAT xdata$x
xdata$x	SEGMENT
__unwindtable$??0?$basic_string@DU?$char_traits@D@std@@V?$allocator@D@2@@std@@QAE@QBD@Z DD 0ffffffffH
	DD	FLAT:__unwindfunclet$??0?$basic_string@DU?$char_traits@D@std@@V?$allocator@D@2@@std@@QAE@QBD@Z$0
	DD	00H
	DD	FLAT:__unwindfunclet$??0?$basic_string@DU?$char_traits@D@std@@V?$allocator@D@2@@std@@QAE@QBD@Z$1
__ehfuncinfo$??0?$basic_string@DU?$char_traits@D@std@@V?$allocator@D@2@@std@@QAE@QBD@Z DD 019930522H
	DD	02H
	DD	FLAT:__unwindtable$??0?$basic_string@DU?$char_traits@D@std@@V?$allocator@D@2@@std@@QAE@QBD@Z
	DD	2 DUP(00H)
	DD	2 DUP(00H)
	DD	00H
	DD	00H
xdata$x	ENDS
;	COMDAT xdata$x
xdata$x	SEGMENT
__unwindtable$??0?$basic_string@DU?$char_traits@D@std@@V?$allocator@D@2@@std@@QAE@XZ DD 0ffffffffH
	DD	FLAT:__unwindfunclet$??0?$basic_string@DU?$char_traits@D@std@@V?$allocator@D@2@@std@@QAE@XZ$0
__ehfuncinfo$??0?$basic_string@DU?$char_traits@D@std@@V?$allocator@D@2@@std@@QAE@XZ DD 019930522H
	DD	01H
	DD	FLAT:__unwindtable$??0?$basic_string@DU?$char_traits@D@std@@V?$allocator@D@2@@std@@QAE@XZ
	DD	2 DUP(00H)
	DD	2 DUP(00H)
	DD	00H
	DD	04H
xdata$x	ENDS
;	COMDAT xdata$x
xdata$x	SEGMENT
__unwindtable$??1?$_String_val@U?$_Simple_types@D@std@@@std@@QAE@XZ DD 0ffffffffH
	DD	FLAT:__unwindfunclet$??1?$_String_val@U?$_Simple_types@D@std@@@std@@QAE@XZ$0
__ehfuncinfo$??1?$_String_val@U?$_Simple_types@D@std@@@std@@QAE@XZ DD 019930522H
	DD	01H
	DD	FLAT:__unwindtable$??1?$_String_val@U?$_Simple_types@D@std@@@std@@QAE@XZ
	DD	2 DUP(00H)
	DD	2 DUP(00H)
	DD	00H
	DD	04H
xdata$x	ENDS
;	COMDAT xdata$x
xdata$x	SEGMENT
__unwindtable$??0?$_String_val@U?$_Simple_types@D@std@@@std@@QAE@XZ DD 0ffffffffH
	DD	FLAT:__unwindfunclet$??0?$_String_val@U?$_Simple_types@D@std@@@std@@QAE@XZ$0
__ehfuncinfo$??0?$_String_val@U?$_Simple_types@D@std@@@std@@QAE@XZ DD 019930522H
	DD	01H
	DD	FLAT:__unwindtable$??0?$_String_val@U?$_Simple_types@D@std@@@std@@QAE@XZ
	DD	2 DUP(00H)
	DD	2 DUP(00H)
	DD	00H
	DD	00H
xdata$x	ENDS
;	COMDAT xdata$x
xdata$x	SEGMENT
__ehfuncinfo$?move@?$_Narrow_char_traits@DH@std@@SAPADQADQBDI@Z DD 019930522H
	DD	00H
	DD	00H
	DD	2 DUP(00H)
	DD	2 DUP(00H)
	DD	00H
	DD	04H
xdata$x	ENDS
;	COMDAT xdata$x
xdata$x	SEGMENT
__ehfuncinfo$?copy@?$_Narrow_char_traits@DH@std@@SAPADQADQBDI@Z DD 019930522H
	DD	00H
	DD	00H
	DD	2 DUP(00H)
	DD	2 DUP(00H)
	DD	00H
	DD	04H
xdata$x	ENDS
;	COMDAT xdata$x
xdata$x	SEGMENT
__ehfuncinfo$?length@?$_Narrow_char_traits@DH@std@@SAIQBD@Z DD 019930522H
	DD	00H
	DD	00H
	DD	2 DUP(00H)
	DD	2 DUP(00H)
	DD	00H
	DD	04H
xdata$x	ENDS
;	COMDAT xdata$x
xdata$x	SEGMENT
__ehfuncinfo$??4thread@std@@QAEAAV01@$$QAV01@@Z DD 019930522H
	DD	00H
	DD	00H
	DD	2 DUP(00H)
	DD	2 DUP(00H)
	DD	00H
	DD	04H
xdata$x	ENDS
;	COMDAT xdata$x
xdata$x	SEGMENT
__unwindtable$?_Swap_proxy_and_iterators@_Container_base12@std@@QAEXAAU12@@Z DD 0ffffffffH
	DD	FLAT:__unwindfunclet$?_Swap_proxy_and_iterators@_Container_base12@std@@QAEXAAU12@@Z$0
__ehfuncinfo$?_Swap_proxy_and_iterators@_Container_base12@std@@QAEXAAU12@@Z DD 019930522H
	DD	01H
	DD	FLAT:__unwindtable$?_Swap_proxy_and_iterators@_Container_base12@std@@QAEXAAU12@@Z
	DD	2 DUP(00H)
	DD	2 DUP(00H)
	DD	00H
	DD	04H
xdata$x	ENDS
;	COMDAT xdata$x
xdata$x	SEGMENT
__unwindtable$?_Orphan_all@_Container_base12@std@@QAEXXZ DD 0ffffffffH
	DD	FLAT:__unwindfunclet$?_Orphan_all@_Container_base12@std@@QAEXXZ$0
__ehfuncinfo$?_Orphan_all@_Container_base12@std@@QAEXXZ DD 019930522H
	DD	01H
	DD	FLAT:__unwindtable$?_Orphan_all@_Container_base12@std@@QAEXXZ
	DD	2 DUP(00H)
	DD	2 DUP(00H)
	DD	00H
	DD	04H
xdata$x	ENDS
;	COMDAT xdata$x
xdata$x	SEGMENT
__unwindtable$??0bad_array_new_length@std@@QAE@ABV01@@Z DD 0ffffffffH
	DD	FLAT:__unwindfunclet$??0bad_array_new_length@std@@QAE@ABV01@@Z$0
__ehfuncinfo$??0bad_array_new_length@std@@QAE@ABV01@@Z DD 019930522H
	DD	01H
	DD	FLAT:__unwindtable$??0bad_array_new_length@std@@QAE@ABV01@@Z
	DD	2 DUP(00H)
	DD	2 DUP(00H)
	DD	00H
	DD	04H
xdata$x	ENDS
;	COMDAT xdata$x
xdata$x	SEGMENT
__unwindtable$??1bad_array_new_length@std@@UAE@XZ DD 0ffffffffH
	DD	FLAT:__unwindfunclet$??1bad_array_new_length@std@@UAE@XZ$0
__ehfuncinfo$??1bad_array_new_length@std@@UAE@XZ DD 019930522H
	DD	01H
	DD	FLAT:__unwindtable$??1bad_array_new_length@std@@UAE@XZ
	DD	2 DUP(00H)
	DD	2 DUP(00H)
	DD	00H
	DD	04H
xdata$x	ENDS
;	COMDAT xdata$x
xdata$x	SEGMENT
__unwindtable$??0bad_array_new_length@std@@QAE@XZ DD 0ffffffffH
	DD	FLAT:__unwindfunclet$??0bad_array_new_length@std@@QAE@XZ$0
__ehfuncinfo$??0bad_array_new_length@std@@QAE@XZ DD 019930522H
	DD	01H
	DD	FLAT:__unwindtable$??0bad_array_new_length@std@@QAE@XZ
	DD	2 DUP(00H)
	DD	2 DUP(00H)
	DD	00H
	DD	04H
xdata$x	ENDS
;	COMDAT xdata$x
xdata$x	SEGMENT
__unwindtable$??0bad_alloc@std@@QAE@ABV01@@Z DD 0ffffffffH
	DD	FLAT:__unwindfunclet$??0bad_alloc@std@@QAE@ABV01@@Z$0
__ehfuncinfo$??0bad_alloc@std@@QAE@ABV01@@Z DD 019930522H
	DD	01H
	DD	FLAT:__unwindtable$??0bad_alloc@std@@QAE@ABV01@@Z
	DD	2 DUP(00H)
	DD	2 DUP(00H)
	DD	00H
	DD	04H
xdata$x	ENDS
;	COMDAT xdata$x
xdata$x	SEGMENT
__unwindtable$??1bad_alloc@std@@UAE@XZ DD 0ffffffffH
	DD	FLAT:__unwindfunclet$??1bad_alloc@std@@UAE@XZ$0
__ehfuncinfo$??1bad_alloc@std@@UAE@XZ DD 019930522H
	DD	01H
	DD	FLAT:__unwindtable$??1bad_alloc@std@@UAE@XZ
	DD	2 DUP(00H)
	DD	2 DUP(00H)
	DD	00H
	DD	04H
xdata$x	ENDS
;	COMDAT xdata$x
xdata$x	SEGMENT
__unwindtable$??0bad_alloc@std@@AAE@QBD@Z DD 0ffffffffH
	DD	FLAT:__unwindfunclet$??0bad_alloc@std@@AAE@QBD@Z$0
__ehfuncinfo$??0bad_alloc@std@@AAE@QBD@Z DD 019930522H
	DD	01H
	DD	FLAT:__unwindtable$??0bad_alloc@std@@AAE@QBD@Z
	DD	2 DUP(00H)
	DD	2 DUP(00H)
	DD	00H
	DD	04H
xdata$x	ENDS
;	COMDAT xdata$x
xdata$x	SEGMENT
__ehfuncinfo$??1exception@std@@UAE@XZ DD 019930522H
	DD	00H
	DD	00H
	DD	2 DUP(00H)
	DD	2 DUP(00H)
	DD	00H
	DD	04H
xdata$x	ENDS
;	COMDAT xdata$x
xdata$x	SEGMENT
__ehfuncinfo$??0exception@std@@QAE@ABV01@@Z DD 019930522H
	DD	00H
	DD	00H
	DD	2 DUP(00H)
	DD	2 DUP(00H)
	DD	00H
	DD	04H
xdata$x	ENDS
;	COMDAT xdata$x
xdata$x	SEGMENT
__ehfuncinfo$?now@steady_clock@chrono@std@@SA?AV?$time_point@Usteady_clock@chrono@std@@V?$duration@_JU?$ratio@$00$0DLJKMKAA@@std@@@23@@23@XZ DD 019930522H
	DD	00H
	DD	00H
	DD	2 DUP(00H)
	DD	2 DUP(00H)
	DD	00H
	DD	04H
xdata$x	ENDS
;	COMDAT xdata$x
xdata$x	SEGMENT
__ehfuncinfo$?now@system_clock@chrono@std@@SA?AV?$time_point@Usystem_clock@chrono@std@@V?$duration@_JU?$ratio@$00$0JIJGIA@@std@@@23@@23@XZ DD 019930522H
	DD	00H
	DD	00H
	DD	2 DUP(00H)
	DD	2 DUP(00H)
	DD	00H
	DD	04H
xdata$x	ENDS
CRT$XCU	SEGMENT
?CspTransferList$initializer$@@3P6AXXZA DD FLAT:??__ECspTransferList@@YAXXZ ; CspTransferList$initializer$
CRT$XCU	ENDS
CRT$XCU	SEGMENT
?CspColorprimList$initializer$@@3P6AXXZA DD FLAT:??__ECspColorprimList@@YAXXZ ; CspColorprimList$initializer$
CRT$XCU	ENDS
; Function compile flags: /Odtp /RTCsu
; File C:\Program Files (x86)\Microsoft Visual Studio\2019\Community\VC\Tools\MSVC\14.23.28105\include\chrono
;	COMDAT ??$?0NX@?$duration@NU?$ratio@$00$0DLJKMKAA@@std@@@chrono@std@@QAE@ABN@Z
_TEXT	SEGMENT
_this$ = -4						; size = 4
__Val$ = 8						; size = 4
??$?0NX@?$duration@NU?$ratio@$00$0DLJKMKAA@@std@@@chrono@std@@QAE@ABN@Z PROC ; std::chrono::duration<double,std::ratio<1,1000000000> >::duration<double,std::ratio<1,1000000000> ><double,void>, COMDAT
; _this$ = ecx

; 78   :             : _MyRep(static_cast<_Rep>(_Val)) {}

  00000	55		 push	 ebp
  00001	8b ec		 mov	 ebp, esp
  00003	51		 push	 ecx
  00004	c7 45 fc cc cc
	cc cc		 mov	 DWORD PTR [ebp-4], -858993460 ; ccccccccH
  0000b	89 4d fc	 mov	 DWORD PTR _this$[ebp], ecx
  0000e	8b 45 fc	 mov	 eax, DWORD PTR _this$[ebp]
  00011	8b 4d 08	 mov	 ecx, DWORD PTR __Val$[ebp]
  00014	f2 0f 10 01	 movsd	 xmm0, QWORD PTR [ecx]
  00018	f2 0f 11 00	 movsd	 QWORD PTR [eax], xmm0
  0001c	8b 45 fc	 mov	 eax, DWORD PTR _this$[ebp]
  0001f	8b e5		 mov	 esp, ebp
  00021	5d		 pop	 ebp
  00022	c2 04 00	 ret	 4
??$?0NX@?$duration@NU?$ratio@$00$0DLJKMKAA@@std@@@chrono@std@@QAE@ABN@Z ENDP ; std::chrono::duration<double,std::ratio<1,1000000000> >::duration<double,std::ratio<1,1000000000> ><double,void>
_TEXT	ENDS
; Function compile flags: /Odtp /RTCsu
; File C:\Program Files (x86)\Microsoft Visual Studio\2019\Community\VC\Tools\MSVC\14.23.28105\include\tuple
;	COMDAT ??$?0PAVCPerfMonitor@@@?$_Tuple_val@PAVCPerfMonitor@@@std@@QAE@$$QAPAVCPerfMonitor@@@Z
_TEXT	SEGMENT
_this$ = -4						; size = 4
__Arg$ = 8						; size = 4
??$?0PAVCPerfMonitor@@@?$_Tuple_val@PAVCPerfMonitor@@@std@@QAE@$$QAPAVCPerfMonitor@@@Z PROC ; std::_Tuple_val<CPerfMonitor *>::_Tuple_val<CPerfMonitor *><CPerfMonitor *>, COMDAT
; _this$ = ecx

; 155  :     constexpr _Tuple_val(_Other&& _Arg) : _Val(_STD forward<_Other>(_Arg)) { // construct with argument

  00000	55		 push	 ebp
  00001	8b ec		 mov	 ebp, esp
  00003	51		 push	 ecx
  00004	c7 45 fc cc cc
	cc cc		 mov	 DWORD PTR [ebp-4], -858993460 ; ccccccccH
  0000b	89 4d fc	 mov	 DWORD PTR _this$[ebp], ecx
  0000e	8b 45 08	 mov	 eax, DWORD PTR __Arg$[ebp]
  00011	50		 push	 eax
  00012	e8 00 00 00 00	 call	 ??$forward@PAVCPerfMonitor@@@std@@YA$$QAPAVCPerfMonitor@@AAPAV1@@Z ; std::forward<CPerfMonitor *>
  00017	83 c4 04	 add	 esp, 4
  0001a	8b 4d fc	 mov	 ecx, DWORD PTR _this$[ebp]
  0001d	8b 10		 mov	 edx, DWORD PTR [eax]
  0001f	89 11		 mov	 DWORD PTR [ecx], edx

; 156  :     }

  00021	8b 45 fc	 mov	 eax, DWORD PTR _this$[ebp]
  00024	83 c4 04	 add	 esp, 4
  00027	3b ec		 cmp	 ebp, esp
  00029	e8 00 00 00 00	 call	 __RTC_CheckEsp
  0002e	8b e5		 mov	 esp, ebp
  00030	5d		 pop	 ebp
  00031	c2 04 00	 ret	 4
??$?0PAVCPerfMonitor@@@?$_Tuple_val@PAVCPerfMonitor@@@std@@QAE@$$QAPAVCPerfMonitor@@@Z ENDP ; std::_Tuple_val<CPerfMonitor *>::_Tuple_val<CPerfMonitor *><CPerfMonitor *>
_TEXT	ENDS
; Function compile flags: /Odtp /RTCsu
; File C:\Program Files (x86)\Microsoft Visual Studio\2019\Community\VC\Tools\MSVC\14.23.28105\include\tuple
;	COMDAT ??$?0U_Exact_args_t@std@@$0A@@?$tuple@$$V@std@@QAE@U_Exact_args_t@1@@Z
_TEXT	SEGMENT
_this$ = -4						; size = 4
___formal$ = 8						; size = 1
??$?0U_Exact_args_t@std@@$0A@@?$tuple@$$V@std@@QAE@U_Exact_args_t@1@@Z PROC ; std::tuple<>::tuple<><std::_Exact_args_t,0>, COMDAT
; _this$ = ecx

; 214  :     constexpr tuple(_Tag) noexcept { // strengthened, construct from one arg per element

  00000	55		 push	 ebp
  00001	8b ec		 mov	 ebp, esp
  00003	51		 push	 ecx
  00004	c7 45 fc cc cc
	cc cc		 mov	 DWORD PTR [ebp-4], -858993460 ; ccccccccH
  0000b	89 4d fc	 mov	 DWORD PTR _this$[ebp], ecx

; 215  :     }

  0000e	8b 45 fc	 mov	 eax, DWORD PTR _this$[ebp]
  00011	8b e5		 mov	 esp, ebp
  00013	5d		 pop	 ebp
  00014	c2 04 00	 ret	 4
??$?0U_Exact_args_t@std@@$0A@@?$tuple@$$V@std@@QAE@U_Exact_args_t@1@@Z ENDP ; std::tuple<>::tuple<><std::_Exact_args_t,0>
_TEXT	ENDS
; Function compile flags: /Odtp /RTCsu
; File C:\Program Files (x86)\Microsoft Visual Studio\2019\Community\VC\Tools\MSVC\14.23.28105\include\chrono
;	COMDAT ??$duration_cast@V?$duration@NU?$ratio@$00$0DLJKMKAA@@std@@@chrono@std@@_JU?$ratio@$00$0DLJKMKAA@@3@X@chrono@std@@YA?AV?$duration@NU?$ratio@$00$0DLJKMKAA@@std@@@01@ABV?$duration@_JU?$ratio@$00$0DLJKMKAA@@std@@@01@@Z
_TEXT	SEGMENT
$T1 = -36						; size = 8
$T2 = -28						; size = 8
$T3 = -20						; size = 8
$T4 = -12						; size = 8
__Den_is_one$ = -2					; size = 1
__Num_is_one$ = -1					; size = 1
___$ReturnUdt$ = 8					; size = 4
__Dur$ = 12						; size = 4
??$duration_cast@V?$duration@NU?$ratio@$00$0DLJKMKAA@@std@@@chrono@std@@_JU?$ratio@$00$0DLJKMKAA@@3@X@chrono@std@@YA?AV?$duration@NU?$ratio@$00$0DLJKMKAA@@std@@@01@ABV?$duration@_JU?$ratio@$00$0DLJKMKAA@@std@@@01@@Z PROC ; std::chrono::duration_cast<std::chrono::duration<double,std::ratio<1,1000000000> >,__int64,std::ratio<1,1000000000>,void>, COMDAT

; 397  :         _NOEXCEPT_COND(is_arithmetic_v<_Rep>&& is_arithmetic_v<typename _To::rep>) { // strengthened

  00000	55		 push	 ebp
  00001	8b ec		 mov	 ebp, esp
  00003	83 ec 24	 sub	 esp, 36			; 00000024H
  00006	b8 cc cc cc cc	 mov	 eax, -858993460		; ccccccccH
  0000b	89 45 dc	 mov	 DWORD PTR [ebp-36], eax
  0000e	89 45 e0	 mov	 DWORD PTR [ebp-32], eax
  00011	89 45 e4	 mov	 DWORD PTR [ebp-28], eax
  00014	89 45 e8	 mov	 DWORD PTR [ebp-24], eax
  00017	89 45 ec	 mov	 DWORD PTR [ebp-20], eax
  0001a	89 45 f0	 mov	 DWORD PTR [ebp-16], eax
  0001d	89 45 f4	 mov	 DWORD PTR [ebp-12], eax
  00020	89 45 f8	 mov	 DWORD PTR [ebp-8], eax
  00023	89 45 fc	 mov	 DWORD PTR [ebp-4], eax

; 398  :         // convert duration to another duration; truncate
; 399  :         using _CF = ratio_divide<_Period, typename _To::period>;
; 400  : 
; 401  :         using _ToRep = typename _To::rep;
; 402  :         using _CR    = common_type_t<_ToRep, _Rep, intmax_t>;
; 403  : 
; 404  :         constexpr bool _Num_is_one = _CF::num == 1;

  00026	c6 45 ff 01	 mov	 BYTE PTR __Num_is_one$[ebp], 1

; 405  :         constexpr bool _Den_is_one = _CF::den == 1;

  0002a	c6 45 fe 01	 mov	 BYTE PTR __Den_is_one$[ebp], 1

; 406  : 
; 407  :         if (_Den_is_one) {

  0002e	b8 01 00 00 00	 mov	 eax, 1
  00033	85 c0		 test	 eax, eax
  00035	74 62		 je	 SHORT $LN2@duration_c

; 408  :             if (_Num_is_one) {

  00037	b9 01 00 00 00	 mov	 ecx, 1
  0003c	85 c9		 test	 ecx, ecx
  0003e	74 2a		 je	 SHORT $LN4@duration_c

; 409  :                 return static_cast<_To>(static_cast<_ToRep>(_Dur.count()));

  00040	8b 4d 0c	 mov	 ecx, DWORD PTR __Dur$[ebp]
  00043	e8 00 00 00 00	 call	 ?count@?$duration@_JU?$ratio@$00$0DLJKMKAA@@std@@@chrono@std@@QBE_JXZ ; std::chrono::duration<__int64,std::ratio<1,1000000000> >::count
  00048	8b c8		 mov	 ecx, eax
  0004a	e8 00 00 00 00	 call	 __ltod3
  0004f	f2 0f 11 45 f4	 movsd	 QWORD PTR $T4[ebp], xmm0
  00054	8d 55 f4	 lea	 edx, DWORD PTR $T4[ebp]
  00057	52		 push	 edx
  00058	8b 4d 08	 mov	 ecx, DWORD PTR ___$ReturnUdt$[ebp]
  0005b	e8 00 00 00 00	 call	 ??$?0NX@?$duration@NU?$ratio@$00$0DLJKMKAA@@std@@@chrono@std@@QAE@ABN@Z ; std::chrono::duration<double,std::ratio<1,1000000000> >::duration<double,std::ratio<1,1000000000> ><double,void>
  00060	8b 45 08	 mov	 eax, DWORD PTR ___$ReturnUdt$[ebp]
  00063	e9 9c 00 00 00	 jmp	 $LN7@duration_c

; 410  :             } else {

  00068	eb 2d		 jmp	 SHORT $LN5@duration_c
$LN4@duration_c:

; 411  :                 return static_cast<_To>(

  0006a	8b 4d 0c	 mov	 ecx, DWORD PTR __Dur$[ebp]
  0006d	e8 00 00 00 00	 call	 ?count@?$duration@_JU?$ratio@$00$0DLJKMKAA@@std@@@chrono@std@@QBE_JXZ ; std::chrono::duration<__int64,std::ratio<1,1000000000> >::count
  00072	8b c8		 mov	 ecx, eax
  00074	e8 00 00 00 00	 call	 __ltod3
  00079	f2 0f 59 05 00
	00 00 00	 mulsd	 xmm0, QWORD PTR __real@3ff0000000000000
  00081	f2 0f 11 45 ec	 movsd	 QWORD PTR $T3[ebp], xmm0
  00086	8d 45 ec	 lea	 eax, DWORD PTR $T3[ebp]
  00089	50		 push	 eax
  0008a	8b 4d 08	 mov	 ecx, DWORD PTR ___$ReturnUdt$[ebp]
  0008d	e8 00 00 00 00	 call	 ??$?0NX@?$duration@NU?$ratio@$00$0DLJKMKAA@@std@@@chrono@std@@QAE@ABN@Z ; std::chrono::duration<double,std::ratio<1,1000000000> >::duration<double,std::ratio<1,1000000000> ><double,void>
  00092	8b 45 08	 mov	 eax, DWORD PTR ___$ReturnUdt$[ebp]
  00095	eb 6d		 jmp	 SHORT $LN7@duration_c
$LN5@duration_c:

; 412  :                     static_cast<_ToRep>(static_cast<_CR>(_Dur.count()) * static_cast<_CR>(_CF::num)));
; 413  :             }
; 414  :         } else {

  00097	eb 6b		 jmp	 SHORT $LN7@duration_c
$LN2@duration_c:

; 415  :             if (_Num_is_one) {

  00099	b9 01 00 00 00	 mov	 ecx, 1
  0009e	85 c9		 test	 ecx, ecx
  000a0	74 2f		 je	 SHORT $LN6@duration_c

; 416  :                 return static_cast<_To>(

  000a2	8b 4d 0c	 mov	 ecx, DWORD PTR __Dur$[ebp]
  000a5	e8 00 00 00 00	 call	 ?count@?$duration@_JU?$ratio@$00$0DLJKMKAA@@std@@@chrono@std@@QBE_JXZ ; std::chrono::duration<__int64,std::ratio<1,1000000000> >::count
  000aa	8b c8		 mov	 ecx, eax
  000ac	e8 00 00 00 00	 call	 __ltod3
  000b1	f2 0f 5e 05 00
	00 00 00	 divsd	 xmm0, QWORD PTR __real@3ff0000000000000
  000b9	f2 0f 11 45 e4	 movsd	 QWORD PTR $T2[ebp], xmm0
  000be	8d 55 e4	 lea	 edx, DWORD PTR $T2[ebp]
  000c1	52		 push	 edx
  000c2	8b 4d 08	 mov	 ecx, DWORD PTR ___$ReturnUdt$[ebp]
  000c5	e8 00 00 00 00	 call	 ??$?0NX@?$duration@NU?$ratio@$00$0DLJKMKAA@@std@@@chrono@std@@QAE@ABN@Z ; std::chrono::duration<double,std::ratio<1,1000000000> >::duration<double,std::ratio<1,1000000000> ><double,void>
  000ca	8b 45 08	 mov	 eax, DWORD PTR ___$ReturnUdt$[ebp]
  000cd	eb 35		 jmp	 SHORT $LN7@duration_c

; 417  :                     static_cast<_ToRep>(static_cast<_CR>(_Dur.count()) / static_cast<_CR>(_CF::den)));
; 418  :             } else {

  000cf	eb 33		 jmp	 SHORT $LN7@duration_c
$LN6@duration_c:

; 419  :                 return static_cast<_To>(static_cast<_ToRep>(

  000d1	8b 4d 0c	 mov	 ecx, DWORD PTR __Dur$[ebp]
  000d4	e8 00 00 00 00	 call	 ?count@?$duration@_JU?$ratio@$00$0DLJKMKAA@@std@@@chrono@std@@QBE_JXZ ; std::chrono::duration<__int64,std::ratio<1,1000000000> >::count
  000d9	8b c8		 mov	 ecx, eax
  000db	e8 00 00 00 00	 call	 __ltod3
  000e0	f2 0f 59 05 00
	00 00 00	 mulsd	 xmm0, QWORD PTR __real@3ff0000000000000
  000e8	f2 0f 5e 05 00
	00 00 00	 divsd	 xmm0, QWORD PTR __real@3ff0000000000000
  000f0	f2 0f 11 45 dc	 movsd	 QWORD PTR $T1[ebp], xmm0
  000f5	8d 45 dc	 lea	 eax, DWORD PTR $T1[ebp]
  000f8	50		 push	 eax
  000f9	8b 4d 08	 mov	 ecx, DWORD PTR ___$ReturnUdt$[ebp]
  000fc	e8 00 00 00 00	 call	 ??$?0NX@?$duration@NU?$ratio@$00$0DLJKMKAA@@std@@@chrono@std@@QAE@ABN@Z ; std::chrono::duration<double,std::ratio<1,1000000000> >::duration<double,std::ratio<1,1000000000> ><double,void>
  00101	8b 45 08	 mov	 eax, DWORD PTR ___$ReturnUdt$[ebp]
$LN7@duration_c:

; 420  :                     static_cast<_CR>(_Dur.count()) * static_cast<_CR>(_CF::num) / static_cast<_CR>(_CF::den)));
; 421  :             }
; 422  :         }
; 423  :     }

  00104	83 c4 24	 add	 esp, 36			; 00000024H
  00107	3b ec		 cmp	 ebp, esp
  00109	e8 00 00 00 00	 call	 __RTC_CheckEsp
  0010e	8b e5		 mov	 esp, ebp
  00110	5d		 pop	 ebp
  00111	c3		 ret	 0
??$duration_cast@V?$duration@NU?$ratio@$00$0DLJKMKAA@@std@@@chrono@std@@_JU?$ratio@$00$0DLJKMKAA@@3@X@chrono@std@@YA?AV?$duration@NU?$ratio@$00$0DLJKMKAA@@std@@@01@ABV?$duration@_JU?$ratio@$00$0DLJKMKAA@@std@@@01@@Z ENDP ; std::chrono::duration_cast<std::chrono::duration<double,std::ratio<1,1000000000> >,__int64,std::ratio<1,1000000000>,void>
_TEXT	ENDS
; Function compile flags: /Odtp /RTCsu
; File C:\Program Files (x86)\Microsoft Visual Studio\2019\Community\VC\Tools\MSVC\14.23.28105\include\chrono
;	COMDAT ??$duration_cast@V?$duration@NU?$ratio@$00$0DLJKMKAA@@std@@@chrono@std@@NU?$ratio@$00$00@3@X@chrono@std@@YA?AV?$duration@NU?$ratio@$00$0DLJKMKAA@@std@@@01@ABV?$duration@NU?$ratio@$00$00@std@@@01@@Z
_TEXT	SEGMENT
tv143 = -60						; size = 8
tv137 = -52						; size = 8
tv130 = -44						; size = 8
$T1 = -36						; size = 8
$T2 = -28						; size = 8
$T3 = -20						; size = 8
$T4 = -12						; size = 8
__Den_is_one$ = -2					; size = 1
__Num_is_one$ = -1					; size = 1
___$ReturnUdt$ = 8					; size = 4
__Dur$ = 12						; size = 4
??$duration_cast@V?$duration@NU?$ratio@$00$0DLJKMKAA@@std@@@chrono@std@@NU?$ratio@$00$00@3@X@chrono@std@@YA?AV?$duration@NU?$ratio@$00$0DLJKMKAA@@std@@@01@ABV?$duration@NU?$ratio@$00$00@std@@@01@@Z PROC ; std::chrono::duration_cast<std::chrono::duration<double,std::ratio<1,1000000000> >,double,std::ratio<1,1>,void>, COMDAT

; 397  :         _NOEXCEPT_COND(is_arithmetic_v<_Rep>&& is_arithmetic_v<typename _To::rep>) { // strengthened

  00000	55		 push	 ebp
  00001	8b ec		 mov	 ebp, esp
  00003	83 ec 3c	 sub	 esp, 60			; 0000003cH
  00006	57		 push	 edi
  00007	8d 7d c4	 lea	 edi, DWORD PTR [ebp-60]
  0000a	b9 0f 00 00 00	 mov	 ecx, 15			; 0000000fH
  0000f	b8 cc cc cc cc	 mov	 eax, -858993460		; ccccccccH
  00014	f3 ab		 rep stosd

; 398  :         // convert duration to another duration; truncate
; 399  :         using _CF = ratio_divide<_Period, typename _To::period>;
; 400  : 
; 401  :         using _ToRep = typename _To::rep;
; 402  :         using _CR    = common_type_t<_ToRep, _Rep, intmax_t>;
; 403  : 
; 404  :         constexpr bool _Num_is_one = _CF::num == 1;

  00016	c6 45 ff 00	 mov	 BYTE PTR __Num_is_one$[ebp], 0

; 405  :         constexpr bool _Den_is_one = _CF::den == 1;

  0001a	c6 45 fe 01	 mov	 BYTE PTR __Den_is_one$[ebp], 1

; 406  : 
; 407  :         if (_Den_is_one) {

  0001e	b8 01 00 00 00	 mov	 eax, 1
  00023	85 c0		 test	 eax, eax
  00025	74 55		 je	 SHORT $LN2@duration_c

; 408  :             if (_Num_is_one) {

  00027	33 c9		 xor	 ecx, ecx
  00029	74 21		 je	 SHORT $LN4@duration_c

; 409  :                 return static_cast<_To>(static_cast<_ToRep>(_Dur.count()));

  0002b	8b 4d 0c	 mov	 ecx, DWORD PTR __Dur$[ebp]
  0002e	e8 00 00 00 00	 call	 ?count@?$duration@NU?$ratio@$00$00@std@@@chrono@std@@QBENXZ ; std::chrono::duration<double,std::ratio<1,1> >::count
  00033	dd 5d f4	 fstp	 QWORD PTR $T4[ebp]
  00036	8d 55 f4	 lea	 edx, DWORD PTR $T4[ebp]
  00039	52		 push	 edx
  0003a	8b 4d 08	 mov	 ecx, DWORD PTR ___$ReturnUdt$[ebp]
  0003d	e8 00 00 00 00	 call	 ??$?0NX@?$duration@NU?$ratio@$00$0DLJKMKAA@@std@@@chrono@std@@QAE@ABN@Z ; std::chrono::duration<double,std::ratio<1,1000000000> >::duration<double,std::ratio<1,1000000000> ><double,void>
  00042	8b 45 08	 mov	 eax, DWORD PTR ___$ReturnUdt$[ebp]
  00045	e9 9a 00 00 00	 jmp	 $LN7@duration_c

; 410  :             } else {

  0004a	eb 2e		 jmp	 SHORT $LN5@duration_c
$LN4@duration_c:

; 411  :                 return static_cast<_To>(

  0004c	8b 4d 0c	 mov	 ecx, DWORD PTR __Dur$[ebp]
  0004f	e8 00 00 00 00	 call	 ?count@?$duration@NU?$ratio@$00$00@std@@@chrono@std@@QBENXZ ; std::chrono::duration<double,std::ratio<1,1> >::count
  00054	dd 5d d4	 fstp	 QWORD PTR tv130[ebp]
  00057	f2 0f 10 45 d4	 movsd	 xmm0, QWORD PTR tv130[ebp]
  0005c	f2 0f 59 05 00
	00 00 00	 mulsd	 xmm0, QWORD PTR __real@41cdcd6500000000
  00064	f2 0f 11 45 ec	 movsd	 QWORD PTR $T3[ebp], xmm0
  00069	8d 45 ec	 lea	 eax, DWORD PTR $T3[ebp]
  0006c	50		 push	 eax
  0006d	8b 4d 08	 mov	 ecx, DWORD PTR ___$ReturnUdt$[ebp]
  00070	e8 00 00 00 00	 call	 ??$?0NX@?$duration@NU?$ratio@$00$0DLJKMKAA@@std@@@chrono@std@@QAE@ABN@Z ; std::chrono::duration<double,std::ratio<1,1000000000> >::duration<double,std::ratio<1,1000000000> ><double,void>
  00075	8b 45 08	 mov	 eax, DWORD PTR ___$ReturnUdt$[ebp]
  00078	eb 6a		 jmp	 SHORT $LN7@duration_c
$LN5@duration_c:

; 412  :                     static_cast<_ToRep>(static_cast<_CR>(_Dur.count()) * static_cast<_CR>(_CF::num)));
; 413  :             }
; 414  :         } else {

  0007a	eb 68		 jmp	 SHORT $LN7@duration_c
$LN2@duration_c:

; 415  :             if (_Num_is_one) {

  0007c	33 c9		 xor	 ecx, ecx
  0007e	74 30		 je	 SHORT $LN6@duration_c

; 416  :                 return static_cast<_To>(

  00080	8b 4d 0c	 mov	 ecx, DWORD PTR __Dur$[ebp]
  00083	e8 00 00 00 00	 call	 ?count@?$duration@NU?$ratio@$00$00@std@@@chrono@std@@QBENXZ ; std::chrono::duration<double,std::ratio<1,1> >::count
  00088	dd 5d cc	 fstp	 QWORD PTR tv137[ebp]
  0008b	f2 0f 10 45 cc	 movsd	 xmm0, QWORD PTR tv137[ebp]
  00090	f2 0f 5e 05 00
	00 00 00	 divsd	 xmm0, QWORD PTR __real@3ff0000000000000
  00098	f2 0f 11 45 e4	 movsd	 QWORD PTR $T2[ebp], xmm0
  0009d	8d 55 e4	 lea	 edx, DWORD PTR $T2[ebp]
  000a0	52		 push	 edx
  000a1	8b 4d 08	 mov	 ecx, DWORD PTR ___$ReturnUdt$[ebp]
  000a4	e8 00 00 00 00	 call	 ??$?0NX@?$duration@NU?$ratio@$00$0DLJKMKAA@@std@@@chrono@std@@QAE@ABN@Z ; std::chrono::duration<double,std::ratio<1,1000000000> >::duration<double,std::ratio<1,1000000000> ><double,void>
  000a9	8b 45 08	 mov	 eax, DWORD PTR ___$ReturnUdt$[ebp]
  000ac	eb 36		 jmp	 SHORT $LN7@duration_c

; 417  :                     static_cast<_ToRep>(static_cast<_CR>(_Dur.count()) / static_cast<_CR>(_CF::den)));
; 418  :             } else {

  000ae	eb 34		 jmp	 SHORT $LN7@duration_c
$LN6@duration_c:

; 419  :                 return static_cast<_To>(static_cast<_ToRep>(

  000b0	8b 4d 0c	 mov	 ecx, DWORD PTR __Dur$[ebp]
  000b3	e8 00 00 00 00	 call	 ?count@?$duration@NU?$ratio@$00$00@std@@@chrono@std@@QBENXZ ; std::chrono::duration<double,std::ratio<1,1> >::count
  000b8	dd 5d c4	 fstp	 QWORD PTR tv143[ebp]
  000bb	f2 0f 10 45 c4	 movsd	 xmm0, QWORD PTR tv143[ebp]
  000c0	f2 0f 59 05 00
	00 00 00	 mulsd	 xmm0, QWORD PTR __real@41cdcd6500000000
  000c8	f2 0f 5e 05 00
	00 00 00	 divsd	 xmm0, QWORD PTR __real@3ff0000000000000
  000d0	f2 0f 11 45 dc	 movsd	 QWORD PTR $T1[ebp], xmm0
  000d5	8d 45 dc	 lea	 eax, DWORD PTR $T1[ebp]
  000d8	50		 push	 eax
  000d9	8b 4d 08	 mov	 ecx, DWORD PTR ___$ReturnUdt$[ebp]
  000dc	e8 00 00 00 00	 call	 ??$?0NX@?$duration@NU?$ratio@$00$0DLJKMKAA@@std@@@chrono@std@@QAE@ABN@Z ; std::chrono::duration<double,std::ratio<1,1000000000> >::duration<double,std::ratio<1,1000000000> ><double,void>
  000e1	8b 45 08	 mov	 eax, DWORD PTR ___$ReturnUdt$[ebp]
$LN7@duration_c:

; 420  :                     static_cast<_CR>(_Dur.count()) * static_cast<_CR>(_CF::num) / static_cast<_CR>(_CF::den)));
; 421  :             }
; 422  :         }
; 423  :     }

  000e4	5f		 pop	 edi
  000e5	83 c4 3c	 add	 esp, 60			; 0000003cH
  000e8	3b ec		 cmp	 ebp, esp
  000ea	e8 00 00 00 00	 call	 __RTC_CheckEsp
  000ef	8b e5		 mov	 esp, ebp
  000f1	5d		 pop	 ebp
  000f2	c3		 ret	 0
??$duration_cast@V?$duration@NU?$ratio@$00$0DLJKMKAA@@std@@@chrono@std@@NU?$ratio@$00$00@3@X@chrono@std@@YA?AV?$duration@NU?$ratio@$00$0DLJKMKAA@@std@@@01@ABV?$duration@NU?$ratio@$00$00@std@@@01@@Z ENDP ; std::chrono::duration_cast<std::chrono::duration<double,std::ratio<1,1000000000> >,double,std::ratio<1,1>,void>
_TEXT	ENDS
; Function compile flags: /Odtp /RTCsu
; File C:\Program Files (x86)\Microsoft Visual Studio\2019\Community\VC\Tools\MSVC\14.23.28105\include\type_traits
;	COMDAT ??$forward@AAPAV?$tuple@P6AXPAX@ZPAVCPerfMonitor@@@std@@@std@@YAAAPAV?$tuple@P6AXPAX@ZPAVCPerfMonitor@@@0@AAPAV10@@Z
_TEXT	SEGMENT
__Arg$ = 8						; size = 4
??$forward@AAPAV?$tuple@P6AXPAX@ZPAVCPerfMonitor@@@std@@@std@@YAAAPAV?$tuple@P6AXPAX@ZPAVCPerfMonitor@@@0@AAPAV10@@Z PROC ; std::forward<std::tuple<void (__cdecl*)(void *),CPerfMonitor *> * &>, COMDAT

; 1420 :     remove_reference_t<_Ty>& _Arg) noexcept { // forward an lvalue as either an lvalue or an rvalue

  00000	55		 push	 ebp
  00001	8b ec		 mov	 ebp, esp

; 1421 :     return static_cast<_Ty&&>(_Arg);

  00003	8b 45 08	 mov	 eax, DWORD PTR __Arg$[ebp]

; 1422 : }

  00006	5d		 pop	 ebp
  00007	c3		 ret	 0
??$forward@AAPAV?$tuple@P6AXPAX@ZPAVCPerfMonitor@@@std@@@std@@YAAAPAV?$tuple@P6AXPAX@ZPAVCPerfMonitor@@@0@AAPAV10@@Z ENDP ; std::forward<std::tuple<void (__cdecl*)(void *),CPerfMonitor *> * &>
_TEXT	ENDS
; Function compile flags: /Odtp /RTCsu
; File C:\Program Files (x86)\Microsoft Visual Studio\2019\Community\VC\Tools\MSVC\14.23.28105\include\tuple
;	COMDAT ??$?0A6AXPAX@Z@?$_Tuple_val@P6AXPAX@Z@std@@QAE@A6AXPAX@Z@Z
_TEXT	SEGMENT
_this$ = -4						; size = 4
__Arg$ = 8						; size = 4
??$?0A6AXPAX@Z@?$_Tuple_val@P6AXPAX@Z@std@@QAE@A6AXPAX@Z@Z PROC ; std::_Tuple_val<void (__cdecl*)(void *)>::_Tuple_val<void (__cdecl*)(void *)><void (__cdecl&)(void *)>, COMDAT
; _this$ = ecx

; 155  :     constexpr _Tuple_val(_Other&& _Arg) : _Val(_STD forward<_Other>(_Arg)) { // construct with argument

  00000	55		 push	 ebp
  00001	8b ec		 mov	 ebp, esp
  00003	51		 push	 ecx
  00004	c7 45 fc cc cc
	cc cc		 mov	 DWORD PTR [ebp-4], -858993460 ; ccccccccH
  0000b	89 4d fc	 mov	 DWORD PTR _this$[ebp], ecx
  0000e	8b 45 08	 mov	 eax, DWORD PTR __Arg$[ebp]
  00011	50		 push	 eax
  00012	e8 00 00 00 00	 call	 ??$forward@A6AXPAX@Z@std@@YAA6AXPAX@ZA6AX0@Z@Z ; std::forward<void (__cdecl&)(void *)>
  00017	83 c4 04	 add	 esp, 4
  0001a	8b 4d fc	 mov	 ecx, DWORD PTR _this$[ebp]
  0001d	89 01		 mov	 DWORD PTR [ecx], eax

; 156  :     }

  0001f	8b 45 fc	 mov	 eax, DWORD PTR _this$[ebp]
  00022	83 c4 04	 add	 esp, 4
  00025	3b ec		 cmp	 ebp, esp
  00027	e8 00 00 00 00	 call	 __RTC_CheckEsp
  0002c	8b e5		 mov	 esp, ebp
  0002e	5d		 pop	 ebp
  0002f	c2 04 00	 ret	 4
??$?0A6AXPAX@Z@?$_Tuple_val@P6AXPAX@Z@std@@QAE@A6AXPAX@Z@Z ENDP ; std::_Tuple_val<void (__cdecl*)(void *)>::_Tuple_val<void (__cdecl*)(void *)><void (__cdecl&)(void *)>
_TEXT	ENDS
; Function compile flags: /Odtp /RTCsu
; File C:\Program Files (x86)\Microsoft Visual Studio\2019\Community\VC\Tools\MSVC\14.23.28105\include\tuple
;	COMDAT ??$?0U_Exact_args_t@std@@PAVCPerfMonitor@@$$V$0A@@?$tuple@PAVCPerfMonitor@@@std@@QAE@U_Exact_args_t@1@$$QAPAVCPerfMonitor@@@Z
_TEXT	SEGMENT
$T1 = -5						; size = 1
_this$ = -4						; size = 4
___formal$ = 8						; size = 1
__This_arg$ = 12					; size = 4
??$?0U_Exact_args_t@std@@PAVCPerfMonitor@@$$V$0A@@?$tuple@PAVCPerfMonitor@@@std@@QAE@U_Exact_args_t@1@$$QAPAVCPerfMonitor@@@Z PROC ; std::tuple<CPerfMonitor *>::tuple<CPerfMonitor *><std::_Exact_args_t,CPerfMonitor *,0>, COMDAT
; _this$ = ecx

; 242  :           _Myfirst(_STD forward<_This2>(_This_arg)) { // construct from one arg per element

  00000	55		 push	 ebp
  00001	8b ec		 mov	 ebp, esp
  00003	83 ec 08	 sub	 esp, 8
  00006	c7 45 f8 cc cc
	cc cc		 mov	 DWORD PTR [ebp-8], -858993460 ; ccccccccH
  0000d	c7 45 fc cc cc
	cc cc		 mov	 DWORD PTR [ebp-4], -858993460 ; ccccccccH
  00014	89 4d fc	 mov	 DWORD PTR _this$[ebp], ecx

; 241  :         : _Mybase(_Exact_args_t{}, _STD forward<_Rest2>(_Rest_arg)...),

  00017	33 c0		 xor	 eax, eax
  00019	88 45 fb	 mov	 BYTE PTR $T1[ebp], al
  0001c	0f b6 4d fb	 movzx	 ecx, BYTE PTR $T1[ebp]
  00020	51		 push	 ecx
  00021	8b 4d fc	 mov	 ecx, DWORD PTR _this$[ebp]
  00024	e8 00 00 00 00	 call	 ??$?0U_Exact_args_t@std@@$0A@@?$tuple@$$V@std@@QAE@U_Exact_args_t@1@@Z ; std::tuple<>::tuple<><std::_Exact_args_t,0>

; 242  :           _Myfirst(_STD forward<_This2>(_This_arg)) { // construct from one arg per element

  00029	8b 55 0c	 mov	 edx, DWORD PTR __This_arg$[ebp]
  0002c	52		 push	 edx
  0002d	e8 00 00 00 00	 call	 ??$forward@PAVCPerfMonitor@@@std@@YA$$QAPAVCPerfMonitor@@AAPAV1@@Z ; std::forward<CPerfMonitor *>
  00032	83 c4 04	 add	 esp, 4
  00035	50		 push	 eax
  00036	8b 4d fc	 mov	 ecx, DWORD PTR _this$[ebp]
  00039	e8 00 00 00 00	 call	 ??$?0PAVCPerfMonitor@@@?$_Tuple_val@PAVCPerfMonitor@@@std@@QAE@$$QAPAVCPerfMonitor@@@Z ; std::_Tuple_val<CPerfMonitor *>::_Tuple_val<CPerfMonitor *><CPerfMonitor *>

; 243  :     }

  0003e	8b 45 fc	 mov	 eax, DWORD PTR _this$[ebp]
  00041	83 c4 08	 add	 esp, 8
  00044	3b ec		 cmp	 ebp, esp
  00046	e8 00 00 00 00	 call	 __RTC_CheckEsp
  0004b	8b e5		 mov	 esp, ebp
  0004d	5d		 pop	 ebp
  0004e	c2 08 00	 ret	 8
??$?0U_Exact_args_t@std@@PAVCPerfMonitor@@$$V$0A@@?$tuple@PAVCPerfMonitor@@@std@@QAE@U_Exact_args_t@1@$$QAPAVCPerfMonitor@@@Z ENDP ; std::tuple<CPerfMonitor *>::tuple<CPerfMonitor *><std::_Exact_args_t,CPerfMonitor *,0>
_TEXT	ENDS
; Function compile flags: /Odtp /RTCsu
; File C:\Program Files (x86)\Microsoft Visual Studio\2019\Community\VC\Tools\MSVC\14.23.28105\include\chrono
;	COMDAT ??$duration_cast@V?$duration@_JU?$ratio@$00$0DLJKMKAA@@std@@@chrono@std@@_JU?$ratio@$00$00@3@X@chrono@std@@YA?AV?$duration@_JU?$ratio@$00$0DLJKMKAA@@std@@@01@ABV?$duration@_JU?$ratio@$00$00@std@@@01@@Z
_TEXT	SEGMENT
$T1 = -36						; size = 8
$T2 = -28						; size = 8
$T3 = -20						; size = 8
$T4 = -12						; size = 8
__Den_is_one$ = -2					; size = 1
__Num_is_one$ = -1					; size = 1
___$ReturnUdt$ = 8					; size = 4
__Dur$ = 12						; size = 4
??$duration_cast@V?$duration@_JU?$ratio@$00$0DLJKMKAA@@std@@@chrono@std@@_JU?$ratio@$00$00@3@X@chrono@std@@YA?AV?$duration@_JU?$ratio@$00$0DLJKMKAA@@std@@@01@ABV?$duration@_JU?$ratio@$00$00@std@@@01@@Z PROC ; std::chrono::duration_cast<std::chrono::duration<__int64,std::ratio<1,1000000000> >,__int64,std::ratio<1,1>,void>, COMDAT

; 397  :         _NOEXCEPT_COND(is_arithmetic_v<_Rep>&& is_arithmetic_v<typename _To::rep>) { // strengthened

  00000	55		 push	 ebp
  00001	8b ec		 mov	 ebp, esp
  00003	83 ec 24	 sub	 esp, 36			; 00000024H
  00006	b8 cc cc cc cc	 mov	 eax, -858993460		; ccccccccH
  0000b	89 45 dc	 mov	 DWORD PTR [ebp-36], eax
  0000e	89 45 e0	 mov	 DWORD PTR [ebp-32], eax
  00011	89 45 e4	 mov	 DWORD PTR [ebp-28], eax
  00014	89 45 e8	 mov	 DWORD PTR [ebp-24], eax
  00017	89 45 ec	 mov	 DWORD PTR [ebp-20], eax
  0001a	89 45 f0	 mov	 DWORD PTR [ebp-16], eax
  0001d	89 45 f4	 mov	 DWORD PTR [ebp-12], eax
  00020	89 45 f8	 mov	 DWORD PTR [ebp-8], eax
  00023	89 45 fc	 mov	 DWORD PTR [ebp-4], eax

; 398  :         // convert duration to another duration; truncate
; 399  :         using _CF = ratio_divide<_Period, typename _To::period>;
; 400  : 
; 401  :         using _ToRep = typename _To::rep;
; 402  :         using _CR    = common_type_t<_ToRep, _Rep, intmax_t>;
; 403  : 
; 404  :         constexpr bool _Num_is_one = _CF::num == 1;

  00026	c6 45 ff 00	 mov	 BYTE PTR __Num_is_one$[ebp], 0

; 405  :         constexpr bool _Den_is_one = _CF::den == 1;

  0002a	c6 45 fe 01	 mov	 BYTE PTR __Den_is_one$[ebp], 1

; 406  : 
; 407  :         if (_Den_is_one) {

  0002e	b8 01 00 00 00	 mov	 eax, 1
  00033	85 c0		 test	 eax, eax
  00035	74 57		 je	 SHORT $LN2@duration_c

; 408  :             if (_Num_is_one) {

  00037	33 c9		 xor	 ecx, ecx
  00039	74 24		 je	 SHORT $LN4@duration_c

; 409  :                 return static_cast<_To>(static_cast<_ToRep>(_Dur.count()));

  0003b	8b 4d 0c	 mov	 ecx, DWORD PTR __Dur$[ebp]
  0003e	e8 00 00 00 00	 call	 ?count@?$duration@_JU?$ratio@$00$00@std@@@chrono@std@@QBE_JXZ ; std::chrono::duration<__int64,std::ratio<1,1> >::count
  00043	89 45 f4	 mov	 DWORD PTR $T4[ebp], eax
  00046	89 55 f8	 mov	 DWORD PTR $T4[ebp+4], edx
  00049	8d 55 f4	 lea	 edx, DWORD PTR $T4[ebp]
  0004c	52		 push	 edx
  0004d	8b 4d 08	 mov	 ecx, DWORD PTR ___$ReturnUdt$[ebp]
  00050	e8 00 00 00 00	 call	 ??$?0_JX@?$duration@_JU?$ratio@$00$0DLJKMKAA@@std@@@chrono@std@@QAE@AB_J@Z ; std::chrono::duration<__int64,std::ratio<1,1000000000> >::duration<__int64,std::ratio<1,1000000000> ><__int64,void>
  00055	8b 45 08	 mov	 eax, DWORD PTR ___$ReturnUdt$[ebp]
  00058	e9 81 00 00 00	 jmp	 $LN1@duration_c

; 410  :             } else {

  0005d	eb 2d		 jmp	 SHORT $LN5@duration_c
$LN4@duration_c:

; 411  :                 return static_cast<_To>(

  0005f	8b 4d 0c	 mov	 ecx, DWORD PTR __Dur$[ebp]
  00062	e8 00 00 00 00	 call	 ?count@?$duration@_JU?$ratio@$00$00@std@@@chrono@std@@QBE_JXZ ; std::chrono::duration<__int64,std::ratio<1,1> >::count
  00067	6a 00		 push	 0
  00069	68 00 ca 9a 3b	 push	 1000000000		; 3b9aca00H
  0006e	52		 push	 edx
  0006f	50		 push	 eax
  00070	e8 00 00 00 00	 call	 __allmul
  00075	89 45 ec	 mov	 DWORD PTR $T3[ebp], eax
  00078	89 55 f0	 mov	 DWORD PTR $T3[ebp+4], edx
  0007b	8d 45 ec	 lea	 eax, DWORD PTR $T3[ebp]
  0007e	50		 push	 eax
  0007f	8b 4d 08	 mov	 ecx, DWORD PTR ___$ReturnUdt$[ebp]
  00082	e8 00 00 00 00	 call	 ??$?0_JX@?$duration@_JU?$ratio@$00$0DLJKMKAA@@std@@@chrono@std@@QAE@AB_J@Z ; std::chrono::duration<__int64,std::ratio<1,1000000000> >::duration<__int64,std::ratio<1,1000000000> ><__int64,void>
  00087	8b 45 08	 mov	 eax, DWORD PTR ___$ReturnUdt$[ebp]
  0008a	eb 52		 jmp	 SHORT $LN1@duration_c
$LN5@duration_c:

; 412  :                     static_cast<_ToRep>(static_cast<_CR>(_Dur.count()) * static_cast<_CR>(_CF::num)));
; 413  :             }
; 414  :         } else {

  0008c	eb 50		 jmp	 SHORT $LN1@duration_c
$LN2@duration_c:

; 415  :             if (_Num_is_one) {

  0008e	33 c9		 xor	 ecx, ecx
  00090	74 21		 je	 SHORT $LN6@duration_c

; 416  :                 return static_cast<_To>(

  00092	8b 4d 0c	 mov	 ecx, DWORD PTR __Dur$[ebp]
  00095	e8 00 00 00 00	 call	 ?count@?$duration@_JU?$ratio@$00$00@std@@@chrono@std@@QBE_JXZ ; std::chrono::duration<__int64,std::ratio<1,1> >::count
  0009a	89 45 e4	 mov	 DWORD PTR $T2[ebp], eax
  0009d	89 55 e8	 mov	 DWORD PTR $T2[ebp+4], edx
  000a0	8d 55 e4	 lea	 edx, DWORD PTR $T2[ebp]
  000a3	52		 push	 edx
  000a4	8b 4d 08	 mov	 ecx, DWORD PTR ___$ReturnUdt$[ebp]
  000a7	e8 00 00 00 00	 call	 ??$?0_JX@?$duration@_JU?$ratio@$00$0DLJKMKAA@@std@@@chrono@std@@QAE@AB_J@Z ; std::chrono::duration<__int64,std::ratio<1,1000000000> >::duration<__int64,std::ratio<1,1000000000> ><__int64,void>
  000ac	8b 45 08	 mov	 eax, DWORD PTR ___$ReturnUdt$[ebp]
  000af	eb 2d		 jmp	 SHORT $LN1@duration_c

; 417  :                     static_cast<_ToRep>(static_cast<_CR>(_Dur.count()) / static_cast<_CR>(_CF::den)));
; 418  :             } else {

  000b1	eb 2b		 jmp	 SHORT $LN1@duration_c
$LN6@duration_c:

; 419  :                 return static_cast<_To>(static_cast<_ToRep>(

  000b3	8b 4d 0c	 mov	 ecx, DWORD PTR __Dur$[ebp]
  000b6	e8 00 00 00 00	 call	 ?count@?$duration@_JU?$ratio@$00$00@std@@@chrono@std@@QBE_JXZ ; std::chrono::duration<__int64,std::ratio<1,1> >::count
  000bb	6a 00		 push	 0
  000bd	68 00 ca 9a 3b	 push	 1000000000		; 3b9aca00H
  000c2	52		 push	 edx
  000c3	50		 push	 eax
  000c4	e8 00 00 00 00	 call	 __allmul
  000c9	89 45 dc	 mov	 DWORD PTR $T1[ebp], eax
  000cc	89 55 e0	 mov	 DWORD PTR $T1[ebp+4], edx
  000cf	8d 45 dc	 lea	 eax, DWORD PTR $T1[ebp]
  000d2	50		 push	 eax
  000d3	8b 4d 08	 mov	 ecx, DWORD PTR ___$ReturnUdt$[ebp]
  000d6	e8 00 00 00 00	 call	 ??$?0_JX@?$duration@_JU?$ratio@$00$0DLJKMKAA@@std@@@chrono@std@@QAE@AB_J@Z ; std::chrono::duration<__int64,std::ratio<1,1000000000> >::duration<__int64,std::ratio<1,1000000000> ><__int64,void>
  000db	8b 45 08	 mov	 eax, DWORD PTR ___$ReturnUdt$[ebp]
$LN1@duration_c:

; 420  :                     static_cast<_CR>(_Dur.count()) * static_cast<_CR>(_CF::num) / static_cast<_CR>(_CF::den)));
; 421  :             }
; 422  :         }
; 423  :     }

  000de	83 c4 24	 add	 esp, 36			; 00000024H
  000e1	3b ec		 cmp	 ebp, esp
  000e3	e8 00 00 00 00	 call	 __RTC_CheckEsp
  000e8	8b e5		 mov	 esp, ebp
  000ea	5d		 pop	 ebp
  000eb	c3		 ret	 0
??$duration_cast@V?$duration@_JU?$ratio@$00$0DLJKMKAA@@std@@@chrono@std@@_JU?$ratio@$00$00@3@X@chrono@std@@YA?AV?$duration@_JU?$ratio@$00$0DLJKMKAA@@std@@@01@ABV?$duration@_JU?$ratio@$00$00@std@@@01@@Z ENDP ; std::chrono::duration_cast<std::chrono::duration<__int64,std::ratio<1,1000000000> >,__int64,std::ratio<1,1>,void>
_TEXT	ENDS
; Function compile flags: /Odtp /RTCsu
; File C:\Program Files (x86)\Microsoft Visual Studio\2019\Community\VC\Tools\MSVC\14.23.28105\include\chrono
;	COMDAT ??$?0_JX@?$duration@_JU?$ratio@$00$00@std@@@chrono@std@@QAE@AB_J@Z
_TEXT	SEGMENT
_this$ = -4						; size = 4
__Val$ = 8						; size = 4
??$?0_JX@?$duration@_JU?$ratio@$00$00@std@@@chrono@std@@QAE@AB_J@Z PROC ; std::chrono::duration<__int64,std::ratio<1,1> >::duration<__int64,std::ratio<1,1> ><__int64,void>, COMDAT
; _this$ = ecx

; 78   :             : _MyRep(static_cast<_Rep>(_Val)) {}

  00000	55		 push	 ebp
  00001	8b ec		 mov	 ebp, esp
  00003	51		 push	 ecx
  00004	c7 45 fc cc cc
	cc cc		 mov	 DWORD PTR [ebp-4], -858993460 ; ccccccccH
  0000b	89 4d fc	 mov	 DWORD PTR _this$[ebp], ecx
  0000e	8b 45 fc	 mov	 eax, DWORD PTR _this$[ebp]
  00011	8b 4d 08	 mov	 ecx, DWORD PTR __Val$[ebp]
  00014	8b 11		 mov	 edx, DWORD PTR [ecx]
  00016	89 10		 mov	 DWORD PTR [eax], edx
  00018	8b 49 04	 mov	 ecx, DWORD PTR [ecx+4]
  0001b	89 48 04	 mov	 DWORD PTR [eax+4], ecx
  0001e	8b 45 fc	 mov	 eax, DWORD PTR _this$[ebp]
  00021	8b e5		 mov	 esp, ebp
  00023	5d		 pop	 ebp
  00024	c2 04 00	 ret	 4
??$?0_JX@?$duration@_JU?$ratio@$00$00@std@@@chrono@std@@QAE@AB_J@Z ENDP ; std::chrono::duration<__int64,std::ratio<1,1> >::duration<__int64,std::ratio<1,1> ><__int64,void>
_TEXT	ENDS
; Function compile flags: /Odtp /RTCsu
; File C:\Program Files (x86)\Microsoft Visual Studio\2019\Community\VC\Tools\MSVC\14.23.28105\include\chrono
;	COMDAT ??$?0_JU?$ratio@$00$0DLJKMKAA@@std@@X@?$duration@NU?$ratio@$00$0DLJKMKAA@@std@@@chrono@std@@QAE@ABV?$duration@_JU?$ratio@$00$0DLJKMKAA@@std@@@12@@Z
_TEXT	SEGMENT
$T1 = -12						; size = 8
_this$ = -4						; size = 4
__Dur$ = 8						; size = 4
??$?0_JU?$ratio@$00$0DLJKMKAA@@std@@X@?$duration@NU?$ratio@$00$0DLJKMKAA@@std@@@chrono@std@@QAE@ABV?$duration@_JU?$ratio@$00$0DLJKMKAA@@std@@@12@@Z PROC ; std::chrono::duration<double,std::ratio<1,1000000000> >::duration<double,std::ratio<1,1000000000> ><__int64,std::ratio<1,1000000000>,void>, COMDAT
; _this$ = ecx

; 86   :             : _MyRep(chrono::duration_cast<duration>(_Dur).count()) {}

  00000	55		 push	 ebp
  00001	8b ec		 mov	 ebp, esp
  00003	83 ec 0c	 sub	 esp, 12			; 0000000cH
  00006	c7 45 f4 cc cc
	cc cc		 mov	 DWORD PTR [ebp-12], -858993460 ; ccccccccH
  0000d	c7 45 f8 cc cc
	cc cc		 mov	 DWORD PTR [ebp-8], -858993460 ; ccccccccH
  00014	c7 45 fc cc cc
	cc cc		 mov	 DWORD PTR [ebp-4], -858993460 ; ccccccccH
  0001b	89 4d fc	 mov	 DWORD PTR _this$[ebp], ecx
  0001e	8b 45 08	 mov	 eax, DWORD PTR __Dur$[ebp]
  00021	50		 push	 eax
  00022	8d 4d f4	 lea	 ecx, DWORD PTR $T1[ebp]
  00025	51		 push	 ecx
  00026	e8 00 00 00 00	 call	 ??$duration_cast@V?$duration@NU?$ratio@$00$0DLJKMKAA@@std@@@chrono@std@@_JU?$ratio@$00$0DLJKMKAA@@3@X@chrono@std@@YA?AV?$duration@NU?$ratio@$00$0DLJKMKAA@@std@@@01@ABV?$duration@_JU?$ratio@$00$0DLJKMKAA@@std@@@01@@Z ; std::chrono::duration_cast<std::chrono::duration<double,std::ratio<1,1000000000> >,__int64,std::ratio<1,1000000000>,void>
  0002b	83 c4 08	 add	 esp, 8
  0002e	8b c8		 mov	 ecx, eax
  00030	e8 00 00 00 00	 call	 ?count@?$duration@NU?$ratio@$00$0DLJKMKAA@@std@@@chrono@std@@QBENXZ ; std::chrono::duration<double,std::ratio<1,1000000000> >::count
  00035	8b 55 fc	 mov	 edx, DWORD PTR _this$[ebp]
  00038	dd 1a		 fstp	 QWORD PTR [edx]
  0003a	8b 45 fc	 mov	 eax, DWORD PTR _this$[ebp]
  0003d	83 c4 0c	 add	 esp, 12			; 0000000cH
  00040	3b ec		 cmp	 ebp, esp
  00042	e8 00 00 00 00	 call	 __RTC_CheckEsp
  00047	8b e5		 mov	 esp, ebp
  00049	5d		 pop	 ebp
  0004a	c2 04 00	 ret	 4
??$?0_JU?$ratio@$00$0DLJKMKAA@@std@@X@?$duration@NU?$ratio@$00$0DLJKMKAA@@std@@@chrono@std@@QAE@ABV?$duration@_JU?$ratio@$00$0DLJKMKAA@@std@@@12@@Z ENDP ; std::chrono::duration<double,std::ratio<1,1000000000> >::duration<double,std::ratio<1,1000000000> ><__int64,std::ratio<1,1000000000>,void>
_TEXT	ENDS
; Function compile flags: /Odtp /RTCsu
; File C:\Program Files (x86)\Microsoft Visual Studio\2019\Community\VC\Tools\MSVC\14.23.28105\include\chrono
;	COMDAT ??$?0NU?$ratio@$00$00@std@@X@?$duration@NU?$ratio@$00$0DLJKMKAA@@std@@@chrono@std@@QAE@ABV?$duration@NU?$ratio@$00$00@std@@@12@@Z
_TEXT	SEGMENT
$T1 = -12						; size = 8
_this$ = -4						; size = 4
__Dur$ = 8						; size = 4
??$?0NU?$ratio@$00$00@std@@X@?$duration@NU?$ratio@$00$0DLJKMKAA@@std@@@chrono@std@@QAE@ABV?$duration@NU?$ratio@$00$00@std@@@12@@Z PROC ; std::chrono::duration<double,std::ratio<1,1000000000> >::duration<double,std::ratio<1,1000000000> ><double,std::ratio<1,1>,void>, COMDAT
; _this$ = ecx

; 86   :             : _MyRep(chrono::duration_cast<duration>(_Dur).count()) {}

  00000	55		 push	 ebp
  00001	8b ec		 mov	 ebp, esp
  00003	83 ec 0c	 sub	 esp, 12			; 0000000cH
  00006	c7 45 f4 cc cc
	cc cc		 mov	 DWORD PTR [ebp-12], -858993460 ; ccccccccH
  0000d	c7 45 f8 cc cc
	cc cc		 mov	 DWORD PTR [ebp-8], -858993460 ; ccccccccH
  00014	c7 45 fc cc cc
	cc cc		 mov	 DWORD PTR [ebp-4], -858993460 ; ccccccccH
  0001b	89 4d fc	 mov	 DWORD PTR _this$[ebp], ecx
  0001e	8b 45 08	 mov	 eax, DWORD PTR __Dur$[ebp]
  00021	50		 push	 eax
  00022	8d 4d f4	 lea	 ecx, DWORD PTR $T1[ebp]
  00025	51		 push	 ecx
  00026	e8 00 00 00 00	 call	 ??$duration_cast@V?$duration@NU?$ratio@$00$0DLJKMKAA@@std@@@chrono@std@@NU?$ratio@$00$00@3@X@chrono@std@@YA?AV?$duration@NU?$ratio@$00$0DLJKMKAA@@std@@@01@ABV?$duration@NU?$ratio@$00$00@std@@@01@@Z ; std::chrono::duration_cast<std::chrono::duration<double,std::ratio<1,1000000000> >,double,std::ratio<1,1>,void>
  0002b	83 c4 08	 add	 esp, 8
  0002e	8b c8		 mov	 ecx, eax
  00030	e8 00 00 00 00	 call	 ?count@?$duration@NU?$ratio@$00$0DLJKMKAA@@std@@@chrono@std@@QBENXZ ; std::chrono::duration<double,std::ratio<1,1000000000> >::count
  00035	8b 55 fc	 mov	 edx, DWORD PTR _this$[ebp]
  00038	dd 1a		 fstp	 QWORD PTR [edx]
  0003a	8b 45 fc	 mov	 eax, DWORD PTR _this$[ebp]
  0003d	83 c4 0c	 add	 esp, 12			; 0000000cH
  00040	3b ec		 cmp	 ebp, esp
  00042	e8 00 00 00 00	 call	 __RTC_CheckEsp
  00047	8b e5		 mov	 esp, ebp
  00049	5d		 pop	 ebp
  0004a	c2 04 00	 ret	 4
??$?0NU?$ratio@$00$00@std@@X@?$duration@NU?$ratio@$00$0DLJKMKAA@@std@@@chrono@std@@QAE@ABV?$duration@NU?$ratio@$00$00@std@@@12@@Z ENDP ; std::chrono::duration<double,std::ratio<1,1000000000> >::duration<double,std::ratio<1,1000000000> ><double,std::ratio<1,1>,void>
_TEXT	ENDS
; Function compile flags: /Odtp /RTCsu
; File C:\Program Files (x86)\Microsoft Visual Studio\2019\Community\VC\Tools\MSVC\14.23.28105\include\chrono
;	COMDAT ??$duration_cast@V?$duration@_JU?$ratio@$00$0DLJKMKAA@@std@@@chrono@std@@_JU?$ratio@$00$0JIJGIA@@3@X@chrono@std@@YA?AV?$duration@_JU?$ratio@$00$0DLJKMKAA@@std@@@01@ABV?$duration@_JU?$ratio@$00$0JIJGIA@@std@@@01@@Z
_TEXT	SEGMENT
$T1 = -36						; size = 8
$T2 = -28						; size = 8
$T3 = -20						; size = 8
$T4 = -12						; size = 8
__Den_is_one$ = -2					; size = 1
__Num_is_one$ = -1					; size = 1
___$ReturnUdt$ = 8					; size = 4
__Dur$ = 12						; size = 4
??$duration_cast@V?$duration@_JU?$ratio@$00$0DLJKMKAA@@std@@@chrono@std@@_JU?$ratio@$00$0JIJGIA@@3@X@chrono@std@@YA?AV?$duration@_JU?$ratio@$00$0DLJKMKAA@@std@@@01@ABV?$duration@_JU?$ratio@$00$0JIJGIA@@std@@@01@@Z PROC ; std::chrono::duration_cast<std::chrono::duration<__int64,std::ratio<1,1000000000> >,__int64,std::ratio<1,10000000>,void>, COMDAT

; 397  :         _NOEXCEPT_COND(is_arithmetic_v<_Rep>&& is_arithmetic_v<typename _To::rep>) { // strengthened

  00000	55		 push	 ebp
  00001	8b ec		 mov	 ebp, esp
  00003	83 ec 24	 sub	 esp, 36			; 00000024H
  00006	b8 cc cc cc cc	 mov	 eax, -858993460		; ccccccccH
  0000b	89 45 dc	 mov	 DWORD PTR [ebp-36], eax
  0000e	89 45 e0	 mov	 DWORD PTR [ebp-32], eax
  00011	89 45 e4	 mov	 DWORD PTR [ebp-28], eax
  00014	89 45 e8	 mov	 DWORD PTR [ebp-24], eax
  00017	89 45 ec	 mov	 DWORD PTR [ebp-20], eax
  0001a	89 45 f0	 mov	 DWORD PTR [ebp-16], eax
  0001d	89 45 f4	 mov	 DWORD PTR [ebp-12], eax
  00020	89 45 f8	 mov	 DWORD PTR [ebp-8], eax
  00023	89 45 fc	 mov	 DWORD PTR [ebp-4], eax

; 398  :         // convert duration to another duration; truncate
; 399  :         using _CF = ratio_divide<_Period, typename _To::period>;
; 400  : 
; 401  :         using _ToRep = typename _To::rep;
; 402  :         using _CR    = common_type_t<_ToRep, _Rep, intmax_t>;
; 403  : 
; 404  :         constexpr bool _Num_is_one = _CF::num == 1;

  00026	c6 45 ff 00	 mov	 BYTE PTR __Num_is_one$[ebp], 0

; 405  :         constexpr bool _Den_is_one = _CF::den == 1;

  0002a	c6 45 fe 01	 mov	 BYTE PTR __Den_is_one$[ebp], 1

; 406  : 
; 407  :         if (_Den_is_one) {

  0002e	b8 01 00 00 00	 mov	 eax, 1
  00033	85 c0		 test	 eax, eax
  00035	74 51		 je	 SHORT $LN2@duration_c

; 408  :             if (_Num_is_one) {

  00037	33 c9		 xor	 ecx, ecx
  00039	74 21		 je	 SHORT $LN4@duration_c

; 409  :                 return static_cast<_To>(static_cast<_ToRep>(_Dur.count()));

  0003b	8b 4d 0c	 mov	 ecx, DWORD PTR __Dur$[ebp]
  0003e	e8 00 00 00 00	 call	 ?count@?$duration@_JU?$ratio@$00$0JIJGIA@@std@@@chrono@std@@QBE_JXZ ; std::chrono::duration<__int64,std::ratio<1,10000000> >::count
  00043	89 45 f4	 mov	 DWORD PTR $T4[ebp], eax
  00046	89 55 f8	 mov	 DWORD PTR $T4[ebp+4], edx
  00049	8d 55 f4	 lea	 edx, DWORD PTR $T4[ebp]
  0004c	52		 push	 edx
  0004d	8b 4d 08	 mov	 ecx, DWORD PTR ___$ReturnUdt$[ebp]
  00050	e8 00 00 00 00	 call	 ??$?0_JX@?$duration@_JU?$ratio@$00$0DLJKMKAA@@std@@@chrono@std@@QAE@AB_J@Z ; std::chrono::duration<__int64,std::ratio<1,1000000000> >::duration<__int64,std::ratio<1,1000000000> ><__int64,void>
  00055	8b 45 08	 mov	 eax, DWORD PTR ___$ReturnUdt$[ebp]
  00058	eb 7b		 jmp	 SHORT $LN1@duration_c

; 410  :             } else {

  0005a	eb 2a		 jmp	 SHORT $LN5@duration_c
$LN4@duration_c:

; 411  :                 return static_cast<_To>(

  0005c	8b 4d 0c	 mov	 ecx, DWORD PTR __Dur$[ebp]
  0005f	e8 00 00 00 00	 call	 ?count@?$duration@_JU?$ratio@$00$0JIJGIA@@std@@@chrono@std@@QBE_JXZ ; std::chrono::duration<__int64,std::ratio<1,10000000> >::count
  00064	6a 00		 push	 0
  00066	6a 64		 push	 100			; 00000064H
  00068	52		 push	 edx
  00069	50		 push	 eax
  0006a	e8 00 00 00 00	 call	 __allmul
  0006f	89 45 ec	 mov	 DWORD PTR $T3[ebp], eax
  00072	89 55 f0	 mov	 DWORD PTR $T3[ebp+4], edx
  00075	8d 45 ec	 lea	 eax, DWORD PTR $T3[ebp]
  00078	50		 push	 eax
  00079	8b 4d 08	 mov	 ecx, DWORD PTR ___$ReturnUdt$[ebp]
  0007c	e8 00 00 00 00	 call	 ??$?0_JX@?$duration@_JU?$ratio@$00$0DLJKMKAA@@std@@@chrono@std@@QAE@AB_J@Z ; std::chrono::duration<__int64,std::ratio<1,1000000000> >::duration<__int64,std::ratio<1,1000000000> ><__int64,void>
  00081	8b 45 08	 mov	 eax, DWORD PTR ___$ReturnUdt$[ebp]
  00084	eb 4f		 jmp	 SHORT $LN1@duration_c
$LN5@duration_c:

; 412  :                     static_cast<_ToRep>(static_cast<_CR>(_Dur.count()) * static_cast<_CR>(_CF::num)));
; 413  :             }
; 414  :         } else {

  00086	eb 4d		 jmp	 SHORT $LN1@duration_c
$LN2@duration_c:

; 415  :             if (_Num_is_one) {

  00088	33 c9		 xor	 ecx, ecx
  0008a	74 21		 je	 SHORT $LN6@duration_c

; 416  :                 return static_cast<_To>(

  0008c	8b 4d 0c	 mov	 ecx, DWORD PTR __Dur$[ebp]
  0008f	e8 00 00 00 00	 call	 ?count@?$duration@_JU?$ratio@$00$0JIJGIA@@std@@@chrono@std@@QBE_JXZ ; std::chrono::duration<__int64,std::ratio<1,10000000> >::count
  00094	89 45 e4	 mov	 DWORD PTR $T2[ebp], eax
  00097	89 55 e8	 mov	 DWORD PTR $T2[ebp+4], edx
  0009a	8d 55 e4	 lea	 edx, DWORD PTR $T2[ebp]
  0009d	52		 push	 edx
  0009e	8b 4d 08	 mov	 ecx, DWORD PTR ___$ReturnUdt$[ebp]
  000a1	e8 00 00 00 00	 call	 ??$?0_JX@?$duration@_JU?$ratio@$00$0DLJKMKAA@@std@@@chrono@std@@QAE@AB_J@Z ; std::chrono::duration<__int64,std::ratio<1,1000000000> >::duration<__int64,std::ratio<1,1000000000> ><__int64,void>
  000a6	8b 45 08	 mov	 eax, DWORD PTR ___$ReturnUdt$[ebp]
  000a9	eb 2a		 jmp	 SHORT $LN1@duration_c

; 417  :                     static_cast<_ToRep>(static_cast<_CR>(_Dur.count()) / static_cast<_CR>(_CF::den)));
; 418  :             } else {

  000ab	eb 28		 jmp	 SHORT $LN1@duration_c
$LN6@duration_c:

; 419  :                 return static_cast<_To>(static_cast<_ToRep>(

  000ad	8b 4d 0c	 mov	 ecx, DWORD PTR __Dur$[ebp]
  000b0	e8 00 00 00 00	 call	 ?count@?$duration@_JU?$ratio@$00$0JIJGIA@@std@@@chrono@std@@QBE_JXZ ; std::chrono::duration<__int64,std::ratio<1,10000000> >::count
  000b5	6a 00		 push	 0
  000b7	6a 64		 push	 100			; 00000064H
  000b9	52		 push	 edx
  000ba	50		 push	 eax
  000bb	e8 00 00 00 00	 call	 __allmul
  000c0	89 45 dc	 mov	 DWORD PTR $T1[ebp], eax
  000c3	89 55 e0	 mov	 DWORD PTR $T1[ebp+4], edx
  000c6	8d 45 dc	 lea	 eax, DWORD PTR $T1[ebp]
  000c9	50		 push	 eax
  000ca	8b 4d 08	 mov	 ecx, DWORD PTR ___$ReturnUdt$[ebp]
  000cd	e8 00 00 00 00	 call	 ??$?0_JX@?$duration@_JU?$ratio@$00$0DLJKMKAA@@std@@@chrono@std@@QAE@AB_J@Z ; std::chrono::duration<__int64,std::ratio<1,1000000000> >::duration<__int64,std::ratio<1,1000000000> ><__int64,void>
  000d2	8b 45 08	 mov	 eax, DWORD PTR ___$ReturnUdt$[ebp]
$LN1@duration_c:

; 420  :                     static_cast<_CR>(_Dur.count()) * static_cast<_CR>(_CF::num) / static_cast<_CR>(_CF::den)));
; 421  :             }
; 422  :         }
; 423  :     }

  000d5	83 c4 24	 add	 esp, 36			; 00000024H
  000d8	3b ec		 cmp	 ebp, esp
  000da	e8 00 00 00 00	 call	 __RTC_CheckEsp
  000df	8b e5		 mov	 esp, ebp
  000e1	5d		 pop	 ebp
  000e2	c3		 ret	 0
??$duration_cast@V?$duration@_JU?$ratio@$00$0DLJKMKAA@@std@@@chrono@std@@_JU?$ratio@$00$0JIJGIA@@3@X@chrono@std@@YA?AV?$duration@_JU?$ratio@$00$0DLJKMKAA@@std@@@01@ABV?$duration@_JU?$ratio@$00$0JIJGIA@@std@@@01@@Z ENDP ; std::chrono::duration_cast<std::chrono::duration<__int64,std::ratio<1,1000000000> >,__int64,std::ratio<1,10000000>,void>
_TEXT	ENDS
; Function compile flags: /Odtp /RTCsu
; File C:\Program Files (x86)\Microsoft Visual Studio\2019\Community\VC\Tools\MSVC\14.23.28105\include\chrono
;	COMDAT ??$?M_JU?$ratio@$00$0DLJKMKAA@@std@@_JU01@@chrono@std@@YA_NABV?$duration@_JU?$ratio@$00$0DLJKMKAA@@std@@@01@0@Z
_TEXT	SEGMENT
tv71 = -36						; size = 4
tv94 = -32						; size = 8
tv91 = -24						; size = 8
$T1 = -16						; size = 8
$T2 = -8						; size = 8
__Left$ = 8						; size = 4
__Right$ = 12						; size = 4
??$?M_JU?$ratio@$00$0DLJKMKAA@@std@@_JU01@@chrono@std@@YA_NABV?$duration@_JU?$ratio@$00$0DLJKMKAA@@std@@@01@0@Z PROC ; std::chrono::operator<<__int64,std::ratio<1,1000000000>,__int64,std::ratio<1,1000000000> >, COMDAT

; 365  :         _NOEXCEPT_COND(is_arithmetic_v<_Rep1>&& is_arithmetic_v<_Rep2>) { // strengthened

  00000	55		 push	 ebp
  00001	8b ec		 mov	 ebp, esp
  00003	83 ec 24	 sub	 esp, 36			; 00000024H
  00006	56		 push	 esi
  00007	57		 push	 edi
  00008	b8 cc cc cc cc	 mov	 eax, -858993460		; ccccccccH
  0000d	89 45 dc	 mov	 DWORD PTR [ebp-36], eax
  00010	89 45 e0	 mov	 DWORD PTR [ebp-32], eax
  00013	89 45 e4	 mov	 DWORD PTR [ebp-28], eax
  00016	89 45 e8	 mov	 DWORD PTR [ebp-24], eax
  00019	89 45 ec	 mov	 DWORD PTR [ebp-20], eax
  0001c	89 45 f0	 mov	 DWORD PTR [ebp-16], eax
  0001f	89 45 f4	 mov	 DWORD PTR [ebp-12], eax
  00022	89 45 f8	 mov	 DWORD PTR [ebp-8], eax
  00025	89 45 fc	 mov	 DWORD PTR [ebp-4], eax

; 366  :         // test if duration < duration
; 367  :         using _CT = common_type_t<duration<_Rep1, _Period1>, duration<_Rep2, _Period2>>;
; 368  :         return _CT(_Left).count() < _CT(_Right).count();

  00028	8b 45 08	 mov	 eax, DWORD PTR __Left$[ebp]
  0002b	8b 08		 mov	 ecx, DWORD PTR [eax]
  0002d	8b 50 04	 mov	 edx, DWORD PTR [eax+4]
  00030	89 4d f8	 mov	 DWORD PTR $T2[ebp], ecx
  00033	89 55 fc	 mov	 DWORD PTR $T2[ebp+4], edx
  00036	8b 45 0c	 mov	 eax, DWORD PTR __Right$[ebp]
  00039	8b 08		 mov	 ecx, DWORD PTR [eax]
  0003b	8b 50 04	 mov	 edx, DWORD PTR [eax+4]
  0003e	89 4d f0	 mov	 DWORD PTR $T1[ebp], ecx
  00041	89 55 f4	 mov	 DWORD PTR $T1[ebp+4], edx
  00044	8d 4d f8	 lea	 ecx, DWORD PTR $T2[ebp]
  00047	e8 00 00 00 00	 call	 ?count@?$duration@_JU?$ratio@$00$0DLJKMKAA@@std@@@chrono@std@@QBE_JXZ ; std::chrono::duration<__int64,std::ratio<1,1000000000> >::count
  0004c	8b f0		 mov	 esi, eax
  0004e	8b fa		 mov	 edi, edx
  00050	8d 4d f0	 lea	 ecx, DWORD PTR $T1[ebp]
  00053	e8 00 00 00 00	 call	 ?count@?$duration@_JU?$ratio@$00$0DLJKMKAA@@std@@@chrono@std@@QBE_JXZ ; std::chrono::duration<__int64,std::ratio<1,1000000000> >::count
  00058	89 75 e8	 mov	 DWORD PTR tv91[ebp], esi
  0005b	89 7d ec	 mov	 DWORD PTR tv91[ebp+4], edi
  0005e	89 45 e0	 mov	 DWORD PTR tv94[ebp], eax
  00061	89 55 e4	 mov	 DWORD PTR tv94[ebp+4], edx
  00064	8b 45 ec	 mov	 eax, DWORD PTR tv91[ebp+4]
  00067	3b 45 e4	 cmp	 eax, DWORD PTR tv94[ebp+4]
  0006a	7f 13		 jg	 SHORT $LN3@operator
  0006c	7c 08		 jl	 SHORT $LN5@operator
  0006e	8b 4d e8	 mov	 ecx, DWORD PTR tv91[ebp]
  00071	3b 4d e0	 cmp	 ecx, DWORD PTR tv94[ebp]
  00074	73 09		 jae	 SHORT $LN3@operator
$LN5@operator:
  00076	c7 45 dc 01 00
	00 00		 mov	 DWORD PTR tv71[ebp], 1
  0007d	eb 07		 jmp	 SHORT $LN4@operator
$LN3@operator:
  0007f	c7 45 dc 00 00
	00 00		 mov	 DWORD PTR tv71[ebp], 0
$LN4@operator:
  00086	8a 45 dc	 mov	 al, BYTE PTR tv71[ebp]

; 369  :     }

  00089	5f		 pop	 edi
  0008a	5e		 pop	 esi
  0008b	83 c4 24	 add	 esp, 36			; 00000024H
  0008e	3b ec		 cmp	 ebp, esp
  00090	e8 00 00 00 00	 call	 __RTC_CheckEsp
  00095	8b e5		 mov	 esp, ebp
  00097	5d		 pop	 ebp
  00098	c3		 ret	 0
??$?M_JU?$ratio@$00$0DLJKMKAA@@std@@_JU01@@chrono@std@@YA_NABV?$duration@_JU?$ratio@$00$0DLJKMKAA@@std@@@01@0@Z ENDP ; std::chrono::operator<<__int64,std::ratio<1,1000000000>,__int64,std::ratio<1,1000000000> >
_TEXT	ENDS
; Function compile flags: /Odtp /RTCsu
; File C:\Program Files (x86)\Microsoft Visual Studio\2019\Community\VC\Tools\MSVC\14.23.28105\include\xmemory
;	COMDAT ??$?0AAPAV?$tuple@P6AXPAX@ZPAVCPerfMonitor@@@std@@@?$_Compressed_pair@U?$default_delete@V?$tuple@P6AXPAX@ZPAVCPerfMonitor@@@std@@@std@@PAV?$tuple@P6AXPAX@ZPAVCPerfMonitor@@@2@$00@std@@QAE@U_Zero_then_variadic_args_t@1@AAPAV?$tuple@P6AXPAX@ZPAVCPerfMonitor@@@1@@Z
_TEXT	SEGMENT
_this$ = -4						; size = 4
___formal$ = 8						; size = 1
_<_Val2_0>$ = 12					; size = 4
??$?0AAPAV?$tuple@P6AXPAX@ZPAVCPerfMonitor@@@std@@@?$_Compressed_pair@U?$default_delete@V?$tuple@P6AXPAX@ZPAVCPerfMonitor@@@std@@@std@@PAV?$tuple@P6AXPAX@ZPAVCPerfMonitor@@@2@$00@std@@QAE@U_Zero_then_variadic_args_t@1@AAPAV?$tuple@P6AXPAX@ZPAVCPerfMonitor@@@1@@Z PROC ; std::_Compressed_pair<std::default_delete<std::tuple<void (__cdecl*)(void *),CPerfMonitor *> >,std::tuple<void (__cdecl*)(void *),CPerfMonitor *> *,1>::_Compressed_pair<std::default_delete<std::tuple<void (__cdecl*)(void *),CPerfMonitor *> >,std::tuple<void (__cdecl*)(void *),CPerfMonitor *> *,1><std::tuple<void (__cdecl*)(void *),CPerfMonitor *> * &>, COMDAT
; _this$ = ecx

; 1414 :         : _Ty1(), _Myval2(_STD forward<_Other2>(_Val2)...) {}

  00000	55		 push	 ebp
  00001	8b ec		 mov	 ebp, esp
  00003	51		 push	 ecx
  00004	c7 45 fc cc cc
	cc cc		 mov	 DWORD PTR [ebp-4], -858993460 ; ccccccccH
  0000b	89 4d fc	 mov	 DWORD PTR _this$[ebp], ecx
  0000e	8b 45 0c	 mov	 eax, DWORD PTR _<_Val2_0>$[ebp]
  00011	50		 push	 eax
  00012	e8 00 00 00 00	 call	 ??$forward@AAPAV?$tuple@P6AXPAX@ZPAVCPerfMonitor@@@std@@@std@@YAAAPAV?$tuple@P6AXPAX@ZPAVCPerfMonitor@@@0@AAPAV10@@Z ; std::forward<std::tuple<void (__cdecl*)(void *),CPerfMonitor *> * &>
  00017	83 c4 04	 add	 esp, 4
  0001a	8b 4d fc	 mov	 ecx, DWORD PTR _this$[ebp]
  0001d	8b 10		 mov	 edx, DWORD PTR [eax]
  0001f	89 11		 mov	 DWORD PTR [ecx], edx
  00021	8b 45 fc	 mov	 eax, DWORD PTR _this$[ebp]
  00024	83 c4 04	 add	 esp, 4
  00027	3b ec		 cmp	 ebp, esp
  00029	e8 00 00 00 00	 call	 __RTC_CheckEsp
  0002e	8b e5		 mov	 esp, ebp
  00030	5d		 pop	 ebp
  00031	c2 08 00	 ret	 8
??$?0AAPAV?$tuple@P6AXPAX@ZPAVCPerfMonitor@@@std@@@?$_Compressed_pair@U?$default_delete@V?$tuple@P6AXPAX@ZPAVCPerfMonitor@@@std@@@std@@PAV?$tuple@P6AXPAX@ZPAVCPerfMonitor@@@2@$00@std@@QAE@U_Zero_then_variadic_args_t@1@AAPAV?$tuple@P6AXPAX@ZPAVCPerfMonitor@@@1@@Z ENDP ; std::_Compressed_pair<std::default_delete<std::tuple<void (__cdecl*)(void *),CPerfMonitor *> >,std::tuple<void (__cdecl*)(void *),CPerfMonitor *> *,1>::_Compressed_pair<std::default_delete<std::tuple<void (__cdecl*)(void *),CPerfMonitor *> >,std::tuple<void (__cdecl*)(void *),CPerfMonitor *> *,1><std::tuple<void (__cdecl*)(void *),CPerfMonitor *> * &>
_TEXT	ENDS
; Function compile flags: /Odtp /RTCsu
; File C:\Program Files (x86)\Microsoft Visual Studio\2019\Community\VC\Tools\MSVC\14.23.28105\include\tuple
;	COMDAT ??$?0U_Exact_args_t@std@@A6AXPAX@ZPAVCPerfMonitor@@$0A@@?$tuple@P6AXPAX@ZPAVCPerfMonitor@@@std@@QAE@U_Exact_args_t@1@A6AXPAX@Z$$QAPAVCPerfMonitor@@@Z
_TEXT	SEGMENT
$T1 = -5						; size = 1
_this$ = -4						; size = 4
___formal$ = 8						; size = 1
__This_arg$ = 12					; size = 4
_<_Rest_arg_0>$ = 16					; size = 4
??$?0U_Exact_args_t@std@@A6AXPAX@ZPAVCPerfMonitor@@$0A@@?$tuple@P6AXPAX@ZPAVCPerfMonitor@@@std@@QAE@U_Exact_args_t@1@A6AXPAX@Z$$QAPAVCPerfMonitor@@@Z PROC ; std::tuple<void (__cdecl*)(void *),CPerfMonitor *>::tuple<void (__cdecl*)(void *),CPerfMonitor *><std::_Exact_args_t,void (__cdecl&)(void *),CPerfMonitor *,0>, COMDAT
; _this$ = ecx

; 242  :           _Myfirst(_STD forward<_This2>(_This_arg)) { // construct from one arg per element

  00000	55		 push	 ebp
  00001	8b ec		 mov	 ebp, esp
  00003	83 ec 08	 sub	 esp, 8
  00006	c7 45 f8 cc cc
	cc cc		 mov	 DWORD PTR [ebp-8], -858993460 ; ccccccccH
  0000d	c7 45 fc cc cc
	cc cc		 mov	 DWORD PTR [ebp-4], -858993460 ; ccccccccH
  00014	89 4d fc	 mov	 DWORD PTR _this$[ebp], ecx

; 241  :         : _Mybase(_Exact_args_t{}, _STD forward<_Rest2>(_Rest_arg)...),

  00017	33 c0		 xor	 eax, eax
  00019	88 45 fb	 mov	 BYTE PTR $T1[ebp], al
  0001c	8b 4d 10	 mov	 ecx, DWORD PTR _<_Rest_arg_0>$[ebp]
  0001f	51		 push	 ecx
  00020	e8 00 00 00 00	 call	 ??$forward@PAVCPerfMonitor@@@std@@YA$$QAPAVCPerfMonitor@@AAPAV1@@Z ; std::forward<CPerfMonitor *>
  00025	83 c4 04	 add	 esp, 4
  00028	50		 push	 eax
  00029	0f b6 55 fb	 movzx	 edx, BYTE PTR $T1[ebp]
  0002d	52		 push	 edx
  0002e	8b 4d fc	 mov	 ecx, DWORD PTR _this$[ebp]
  00031	e8 00 00 00 00	 call	 ??$?0U_Exact_args_t@std@@PAVCPerfMonitor@@$$V$0A@@?$tuple@PAVCPerfMonitor@@@std@@QAE@U_Exact_args_t@1@$$QAPAVCPerfMonitor@@@Z ; std::tuple<CPerfMonitor *>::tuple<CPerfMonitor *><std::_Exact_args_t,CPerfMonitor *,0>

; 242  :           _Myfirst(_STD forward<_This2>(_This_arg)) { // construct from one arg per element

  00036	8b 45 0c	 mov	 eax, DWORD PTR __This_arg$[ebp]
  00039	50		 push	 eax
  0003a	e8 00 00 00 00	 call	 ??$forward@A6AXPAX@Z@std@@YAA6AXPAX@ZA6AX0@Z@Z ; std::forward<void (__cdecl&)(void *)>
  0003f	83 c4 04	 add	 esp, 4
  00042	50		 push	 eax
  00043	8b 4d fc	 mov	 ecx, DWORD PTR _this$[ebp]
  00046	83 c1 04	 add	 ecx, 4
  00049	e8 00 00 00 00	 call	 ??$?0A6AXPAX@Z@?$_Tuple_val@P6AXPAX@Z@std@@QAE@A6AXPAX@Z@Z ; std::_Tuple_val<void (__cdecl*)(void *)>::_Tuple_val<void (__cdecl*)(void *)><void (__cdecl&)(void *)>

; 243  :     }

  0004e	8b 45 fc	 mov	 eax, DWORD PTR _this$[ebp]
  00051	83 c4 08	 add	 esp, 8
  00054	3b ec		 cmp	 ebp, esp
  00056	e8 00 00 00 00	 call	 __RTC_CheckEsp
  0005b	8b e5		 mov	 esp, ebp
  0005d	5d		 pop	 ebp
  0005e	c2 0c 00	 ret	 12			; 0000000cH
??$?0U_Exact_args_t@std@@A6AXPAX@ZPAVCPerfMonitor@@$0A@@?$tuple@P6AXPAX@ZPAVCPerfMonitor@@@std@@QAE@U_Exact_args_t@1@A6AXPAX@Z$$QAPAVCPerfMonitor@@@Z ENDP ; std::tuple<void (__cdecl*)(void *),CPerfMonitor *>::tuple<void (__cdecl*)(void *),CPerfMonitor *><std::_Exact_args_t,void (__cdecl&)(void *),CPerfMonitor *,0>
_TEXT	ENDS
; Function compile flags: /Odtp /RTCsu
; File C:\Program Files (x86)\Microsoft Visual Studio\2019\Community\VC\Tools\MSVC\14.23.28105\include\chrono
;	COMDAT ??$?0_JU?$ratio@$00$00@std@@X@?$duration@_JU?$ratio@$00$0DLJKMKAA@@std@@@chrono@std@@QAE@ABV?$duration@_JU?$ratio@$00$00@std@@@12@@Z
_TEXT	SEGMENT
$T1 = -12						; size = 8
_this$ = -4						; size = 4
__Dur$ = 8						; size = 4
??$?0_JU?$ratio@$00$00@std@@X@?$duration@_JU?$ratio@$00$0DLJKMKAA@@std@@@chrono@std@@QAE@ABV?$duration@_JU?$ratio@$00$00@std@@@12@@Z PROC ; std::chrono::duration<__int64,std::ratio<1,1000000000> >::duration<__int64,std::ratio<1,1000000000> ><__int64,std::ratio<1,1>,void>, COMDAT
; _this$ = ecx

; 86   :             : _MyRep(chrono::duration_cast<duration>(_Dur).count()) {}

  00000	55		 push	 ebp
  00001	8b ec		 mov	 ebp, esp
  00003	83 ec 0c	 sub	 esp, 12			; 0000000cH
  00006	c7 45 f4 cc cc
	cc cc		 mov	 DWORD PTR [ebp-12], -858993460 ; ccccccccH
  0000d	c7 45 f8 cc cc
	cc cc		 mov	 DWORD PTR [ebp-8], -858993460 ; ccccccccH
  00014	c7 45 fc cc cc
	cc cc		 mov	 DWORD PTR [ebp-4], -858993460 ; ccccccccH
  0001b	89 4d fc	 mov	 DWORD PTR _this$[ebp], ecx
  0001e	8b 45 08	 mov	 eax, DWORD PTR __Dur$[ebp]
  00021	50		 push	 eax
  00022	8d 4d f4	 lea	 ecx, DWORD PTR $T1[ebp]
  00025	51		 push	 ecx
  00026	e8 00 00 00 00	 call	 ??$duration_cast@V?$duration@_JU?$ratio@$00$0DLJKMKAA@@std@@@chrono@std@@_JU?$ratio@$00$00@3@X@chrono@std@@YA?AV?$duration@_JU?$ratio@$00$0DLJKMKAA@@std@@@01@ABV?$duration@_JU?$ratio@$00$00@std@@@01@@Z ; std::chrono::duration_cast<std::chrono::duration<__int64,std::ratio<1,1000000000> >,__int64,std::ratio<1,1>,void>
  0002b	83 c4 08	 add	 esp, 8
  0002e	8b c8		 mov	 ecx, eax
  00030	e8 00 00 00 00	 call	 ?count@?$duration@_JU?$ratio@$00$0DLJKMKAA@@std@@@chrono@std@@QBE_JXZ ; std::chrono::duration<__int64,std::ratio<1,1000000000> >::count
  00035	8b 4d fc	 mov	 ecx, DWORD PTR _this$[ebp]
  00038	89 01		 mov	 DWORD PTR [ecx], eax
  0003a	89 51 04	 mov	 DWORD PTR [ecx+4], edx
  0003d	8b 45 fc	 mov	 eax, DWORD PTR _this$[ebp]
  00040	83 c4 0c	 add	 esp, 12			; 0000000cH
  00043	3b ec		 cmp	 ebp, esp
  00045	e8 00 00 00 00	 call	 __RTC_CheckEsp
  0004a	8b e5		 mov	 esp, ebp
  0004c	5d		 pop	 ebp
  0004d	c2 04 00	 ret	 4
??$?0_JU?$ratio@$00$00@std@@X@?$duration@_JU?$ratio@$00$0DLJKMKAA@@std@@@chrono@std@@QAE@ABV?$duration@_JU?$ratio@$00$00@std@@@12@@Z ENDP ; std::chrono::duration<__int64,std::ratio<1,1000000000> >::duration<__int64,std::ratio<1,1000000000> ><__int64,std::ratio<1,1>,void>
_TEXT	ENDS
; Function compile flags: /Odtp /RTCsu
; File C:\Program Files (x86)\Microsoft Visual Studio\2019\Community\VC\Tools\MSVC\14.23.28105\include\chrono
;	COMDAT ??$duration_cast@V?$duration@_JU?$ratio@$00$00@std@@@chrono@std@@_JU?$ratio@$00$0DLJKMKAA@@3@X@chrono@std@@YA?AV?$duration@_JU?$ratio@$00$00@std@@@01@ABV?$duration@_JU?$ratio@$00$0DLJKMKAA@@std@@@01@@Z
_TEXT	SEGMENT
$T1 = -36						; size = 8
$T2 = -28						; size = 8
$T3 = -20						; size = 8
$T4 = -12						; size = 8
__Den_is_one$ = -2					; size = 1
__Num_is_one$ = -1					; size = 1
___$ReturnUdt$ = 8					; size = 4
__Dur$ = 12						; size = 4
??$duration_cast@V?$duration@_JU?$ratio@$00$00@std@@@chrono@std@@_JU?$ratio@$00$0DLJKMKAA@@3@X@chrono@std@@YA?AV?$duration@_JU?$ratio@$00$00@std@@@01@ABV?$duration@_JU?$ratio@$00$0DLJKMKAA@@std@@@01@@Z PROC ; std::chrono::duration_cast<std::chrono::duration<__int64,std::ratio<1,1> >,__int64,std::ratio<1,1000000000>,void>, COMDAT

; 397  :         _NOEXCEPT_COND(is_arithmetic_v<_Rep>&& is_arithmetic_v<typename _To::rep>) { // strengthened

  00000	55		 push	 ebp
  00001	8b ec		 mov	 ebp, esp
  00003	83 ec 24	 sub	 esp, 36			; 00000024H
  00006	b8 cc cc cc cc	 mov	 eax, -858993460		; ccccccccH
  0000b	89 45 dc	 mov	 DWORD PTR [ebp-36], eax
  0000e	89 45 e0	 mov	 DWORD PTR [ebp-32], eax
  00011	89 45 e4	 mov	 DWORD PTR [ebp-28], eax
  00014	89 45 e8	 mov	 DWORD PTR [ebp-24], eax
  00017	89 45 ec	 mov	 DWORD PTR [ebp-20], eax
  0001a	89 45 f0	 mov	 DWORD PTR [ebp-16], eax
  0001d	89 45 f4	 mov	 DWORD PTR [ebp-12], eax
  00020	89 45 f8	 mov	 DWORD PTR [ebp-8], eax
  00023	89 45 fc	 mov	 DWORD PTR [ebp-4], eax

; 398  :         // convert duration to another duration; truncate
; 399  :         using _CF = ratio_divide<_Period, typename _To::period>;
; 400  : 
; 401  :         using _ToRep = typename _To::rep;
; 402  :         using _CR    = common_type_t<_ToRep, _Rep, intmax_t>;
; 403  : 
; 404  :         constexpr bool _Num_is_one = _CF::num == 1;

  00026	c6 45 ff 01	 mov	 BYTE PTR __Num_is_one$[ebp], 1

; 405  :         constexpr bool _Den_is_one = _CF::den == 1;

  0002a	c6 45 fe 00	 mov	 BYTE PTR __Den_is_one$[ebp], 0

; 406  : 
; 407  :         if (_Den_is_one) {

  0002e	33 c0		 xor	 eax, eax
  00030	74 4e		 je	 SHORT $LN2@duration_c

; 408  :             if (_Num_is_one) {

  00032	b9 01 00 00 00	 mov	 ecx, 1
  00037	85 c9		 test	 ecx, ecx
  00039	74 24		 je	 SHORT $LN4@duration_c

; 409  :                 return static_cast<_To>(static_cast<_ToRep>(_Dur.count()));

  0003b	8b 4d 0c	 mov	 ecx, DWORD PTR __Dur$[ebp]
  0003e	e8 00 00 00 00	 call	 ?count@?$duration@_JU?$ratio@$00$0DLJKMKAA@@std@@@chrono@std@@QBE_JXZ ; std::chrono::duration<__int64,std::ratio<1,1000000000> >::count
  00043	89 45 f4	 mov	 DWORD PTR $T4[ebp], eax
  00046	89 55 f8	 mov	 DWORD PTR $T4[ebp+4], edx
  00049	8d 55 f4	 lea	 edx, DWORD PTR $T4[ebp]
  0004c	52		 push	 edx
  0004d	8b 4d 08	 mov	 ecx, DWORD PTR ___$ReturnUdt$[ebp]
  00050	e8 00 00 00 00	 call	 ??$?0_JX@?$duration@_JU?$ratio@$00$00@std@@@chrono@std@@QAE@AB_J@Z ; std::chrono::duration<__int64,std::ratio<1,1> >::duration<__int64,std::ratio<1,1> ><__int64,void>
  00055	8b 45 08	 mov	 eax, DWORD PTR ___$ReturnUdt$[ebp]
  00058	e9 86 00 00 00	 jmp	 $LN1@duration_c

; 410  :             } else {

  0005d	eb 1f		 jmp	 SHORT $LN5@duration_c
$LN4@duration_c:

; 411  :                 return static_cast<_To>(

  0005f	8b 4d 0c	 mov	 ecx, DWORD PTR __Dur$[ebp]
  00062	e8 00 00 00 00	 call	 ?count@?$duration@_JU?$ratio@$00$0DLJKMKAA@@std@@@chrono@std@@QBE_JXZ ; std::chrono::duration<__int64,std::ratio<1,1000000000> >::count
  00067	89 45 ec	 mov	 DWORD PTR $T3[ebp], eax
  0006a	89 55 f0	 mov	 DWORD PTR $T3[ebp+4], edx
  0006d	8d 45 ec	 lea	 eax, DWORD PTR $T3[ebp]
  00070	50		 push	 eax
  00071	8b 4d 08	 mov	 ecx, DWORD PTR ___$ReturnUdt$[ebp]
  00074	e8 00 00 00 00	 call	 ??$?0_JX@?$duration@_JU?$ratio@$00$00@std@@@chrono@std@@QAE@AB_J@Z ; std::chrono::duration<__int64,std::ratio<1,1> >::duration<__int64,std::ratio<1,1> ><__int64,void>
  00079	8b 45 08	 mov	 eax, DWORD PTR ___$ReturnUdt$[ebp]
  0007c	eb 65		 jmp	 SHORT $LN1@duration_c
$LN5@duration_c:

; 412  :                     static_cast<_ToRep>(static_cast<_CR>(_Dur.count()) * static_cast<_CR>(_CF::num)));
; 413  :             }
; 414  :         } else {

  0007e	eb 63		 jmp	 SHORT $LN1@duration_c
$LN2@duration_c:

; 415  :             if (_Num_is_one) {

  00080	b9 01 00 00 00	 mov	 ecx, 1
  00085	85 c9		 test	 ecx, ecx
  00087	74 2f		 je	 SHORT $LN6@duration_c

; 416  :                 return static_cast<_To>(

  00089	8b 4d 0c	 mov	 ecx, DWORD PTR __Dur$[ebp]
  0008c	e8 00 00 00 00	 call	 ?count@?$duration@_JU?$ratio@$00$0DLJKMKAA@@std@@@chrono@std@@QBE_JXZ ; std::chrono::duration<__int64,std::ratio<1,1000000000> >::count
  00091	6a 00		 push	 0
  00093	68 00 ca 9a 3b	 push	 1000000000		; 3b9aca00H
  00098	52		 push	 edx
  00099	50		 push	 eax
  0009a	e8 00 00 00 00	 call	 __alldiv
  0009f	89 45 e4	 mov	 DWORD PTR $T2[ebp], eax
  000a2	89 55 e8	 mov	 DWORD PTR $T2[ebp+4], edx
  000a5	8d 55 e4	 lea	 edx, DWORD PTR $T2[ebp]
  000a8	52		 push	 edx
  000a9	8b 4d 08	 mov	 ecx, DWORD PTR ___$ReturnUdt$[ebp]
  000ac	e8 00 00 00 00	 call	 ??$?0_JX@?$duration@_JU?$ratio@$00$00@std@@@chrono@std@@QAE@AB_J@Z ; std::chrono::duration<__int64,std::ratio<1,1> >::duration<__int64,std::ratio<1,1> ><__int64,void>
  000b1	8b 45 08	 mov	 eax, DWORD PTR ___$ReturnUdt$[ebp]
  000b4	eb 2d		 jmp	 SHORT $LN1@duration_c

; 417  :                     static_cast<_ToRep>(static_cast<_CR>(_Dur.count()) / static_cast<_CR>(_CF::den)));
; 418  :             } else {

  000b6	eb 2b		 jmp	 SHORT $LN1@duration_c
$LN6@duration_c:

; 419  :                 return static_cast<_To>(static_cast<_ToRep>(

  000b8	8b 4d 0c	 mov	 ecx, DWORD PTR __Dur$[ebp]
  000bb	e8 00 00 00 00	 call	 ?count@?$duration@_JU?$ratio@$00$0DLJKMKAA@@std@@@chrono@std@@QBE_JXZ ; std::chrono::duration<__int64,std::ratio<1,1000000000> >::count
  000c0	6a 00		 push	 0
  000c2	68 00 ca 9a 3b	 push	 1000000000		; 3b9aca00H
  000c7	52		 push	 edx
  000c8	50		 push	 eax
  000c9	e8 00 00 00 00	 call	 __alldiv
  000ce	89 45 dc	 mov	 DWORD PTR $T1[ebp], eax
  000d1	89 55 e0	 mov	 DWORD PTR $T1[ebp+4], edx
  000d4	8d 45 dc	 lea	 eax, DWORD PTR $T1[ebp]
  000d7	50		 push	 eax
  000d8	8b 4d 08	 mov	 ecx, DWORD PTR ___$ReturnUdt$[ebp]
  000db	e8 00 00 00 00	 call	 ??$?0_JX@?$duration@_JU?$ratio@$00$00@std@@@chrono@std@@QAE@AB_J@Z ; std::chrono::duration<__int64,std::ratio<1,1> >::duration<__int64,std::ratio<1,1> ><__int64,void>
  000e0	8b 45 08	 mov	 eax, DWORD PTR ___$ReturnUdt$[ebp]
$LN1@duration_c:

; 420  :                     static_cast<_CR>(_Dur.count()) * static_cast<_CR>(_CF::num) / static_cast<_CR>(_CF::den)));
; 421  :             }
; 422  :         }
; 423  :     }

  000e3	83 c4 24	 add	 esp, 36			; 00000024H
  000e6	3b ec		 cmp	 ebp, esp
  000e8	e8 00 00 00 00	 call	 __RTC_CheckEsp
  000ed	8b e5		 mov	 esp, ebp
  000ef	5d		 pop	 ebp
  000f0	c3		 ret	 0
??$duration_cast@V?$duration@_JU?$ratio@$00$00@std@@@chrono@std@@_JU?$ratio@$00$0DLJKMKAA@@3@X@chrono@std@@YA?AV?$duration@_JU?$ratio@$00$00@std@@@01@ABV?$duration@_JU?$ratio@$00$0DLJKMKAA@@std@@@01@@Z ENDP ; std::chrono::duration_cast<std::chrono::duration<__int64,std::ratio<1,1> >,__int64,std::ratio<1,1000000000>,void>
_TEXT	ENDS
; Function compile flags: /Odtp /RTCsu
; File C:\Program Files (x86)\Microsoft Visual Studio\2019\Community\VC\Tools\MSVC\14.23.28105\include\chrono
;	COMDAT ??$duration_cast@V?$duration@_JU?$ratio@$00$0DLJKMKAA@@std@@@chrono@std@@_JU?$ratio@$00$0DLJKMKAA@@3@X@chrono@std@@YA?AV?$duration@_JU?$ratio@$00$0DLJKMKAA@@std@@@01@ABV201@@Z
_TEXT	SEGMENT
$T1 = -36						; size = 8
$T2 = -28						; size = 8
$T3 = -20						; size = 8
$T4 = -12						; size = 8
__Den_is_one$ = -2					; size = 1
__Num_is_one$ = -1					; size = 1
___$ReturnUdt$ = 8					; size = 4
__Dur$ = 12						; size = 4
??$duration_cast@V?$duration@_JU?$ratio@$00$0DLJKMKAA@@std@@@chrono@std@@_JU?$ratio@$00$0DLJKMKAA@@3@X@chrono@std@@YA?AV?$duration@_JU?$ratio@$00$0DLJKMKAA@@std@@@01@ABV201@@Z PROC ; std::chrono::duration_cast<std::chrono::duration<__int64,std::ratio<1,1000000000> >,__int64,std::ratio<1,1000000000>,void>, COMDAT

; 397  :         _NOEXCEPT_COND(is_arithmetic_v<_Rep>&& is_arithmetic_v<typename _To::rep>) { // strengthened

  00000	55		 push	 ebp
  00001	8b ec		 mov	 ebp, esp
  00003	83 ec 24	 sub	 esp, 36			; 00000024H
  00006	b8 cc cc cc cc	 mov	 eax, -858993460		; ccccccccH
  0000b	89 45 dc	 mov	 DWORD PTR [ebp-36], eax
  0000e	89 45 e0	 mov	 DWORD PTR [ebp-32], eax
  00011	89 45 e4	 mov	 DWORD PTR [ebp-28], eax
  00014	89 45 e8	 mov	 DWORD PTR [ebp-24], eax
  00017	89 45 ec	 mov	 DWORD PTR [ebp-20], eax
  0001a	89 45 f0	 mov	 DWORD PTR [ebp-16], eax
  0001d	89 45 f4	 mov	 DWORD PTR [ebp-12], eax
  00020	89 45 f8	 mov	 DWORD PTR [ebp-8], eax
  00023	89 45 fc	 mov	 DWORD PTR [ebp-4], eax

; 398  :         // convert duration to another duration; truncate
; 399  :         using _CF = ratio_divide<_Period, typename _To::period>;
; 400  : 
; 401  :         using _ToRep = typename _To::rep;
; 402  :         using _CR    = common_type_t<_ToRep, _Rep, intmax_t>;
; 403  : 
; 404  :         constexpr bool _Num_is_one = _CF::num == 1;

  00026	c6 45 ff 01	 mov	 BYTE PTR __Num_is_one$[ebp], 1

; 405  :         constexpr bool _Den_is_one = _CF::den == 1;

  0002a	c6 45 fe 01	 mov	 BYTE PTR __Den_is_one$[ebp], 1

; 406  : 
; 407  :         if (_Den_is_one) {

  0002e	b8 01 00 00 00	 mov	 eax, 1
  00033	85 c0		 test	 eax, eax
  00035	74 4b		 je	 SHORT $LN2@duration_c

; 408  :             if (_Num_is_one) {

  00037	b9 01 00 00 00	 mov	 ecx, 1
  0003c	85 c9		 test	 ecx, ecx
  0003e	74 21		 je	 SHORT $LN4@duration_c

; 409  :                 return static_cast<_To>(static_cast<_ToRep>(_Dur.count()));

  00040	8b 4d 0c	 mov	 ecx, DWORD PTR __Dur$[ebp]
  00043	e8 00 00 00 00	 call	 ?count@?$duration@_JU?$ratio@$00$0DLJKMKAA@@std@@@chrono@std@@QBE_JXZ ; std::chrono::duration<__int64,std::ratio<1,1000000000> >::count
  00048	89 45 f4	 mov	 DWORD PTR $T4[ebp], eax
  0004b	89 55 f8	 mov	 DWORD PTR $T4[ebp+4], edx
  0004e	8d 55 f4	 lea	 edx, DWORD PTR $T4[ebp]
  00051	52		 push	 edx
  00052	8b 4d 08	 mov	 ecx, DWORD PTR ___$ReturnUdt$[ebp]
  00055	e8 00 00 00 00	 call	 ??$?0_JX@?$duration@_JU?$ratio@$00$0DLJKMKAA@@std@@@chrono@std@@QAE@AB_J@Z ; std::chrono::duration<__int64,std::ratio<1,1000000000> >::duration<__int64,std::ratio<1,1000000000> ><__int64,void>
  0005a	8b 45 08	 mov	 eax, DWORD PTR ___$ReturnUdt$[ebp]
  0005d	eb 6a		 jmp	 SHORT $LN1@duration_c

; 410  :             } else {

  0005f	eb 1f		 jmp	 SHORT $LN5@duration_c
$LN4@duration_c:

; 411  :                 return static_cast<_To>(

  00061	8b 4d 0c	 mov	 ecx, DWORD PTR __Dur$[ebp]
  00064	e8 00 00 00 00	 call	 ?count@?$duration@_JU?$ratio@$00$0DLJKMKAA@@std@@@chrono@std@@QBE_JXZ ; std::chrono::duration<__int64,std::ratio<1,1000000000> >::count
  00069	89 45 ec	 mov	 DWORD PTR $T3[ebp], eax
  0006c	89 55 f0	 mov	 DWORD PTR $T3[ebp+4], edx
  0006f	8d 45 ec	 lea	 eax, DWORD PTR $T3[ebp]
  00072	50		 push	 eax
  00073	8b 4d 08	 mov	 ecx, DWORD PTR ___$ReturnUdt$[ebp]
  00076	e8 00 00 00 00	 call	 ??$?0_JX@?$duration@_JU?$ratio@$00$0DLJKMKAA@@std@@@chrono@std@@QAE@AB_J@Z ; std::chrono::duration<__int64,std::ratio<1,1000000000> >::duration<__int64,std::ratio<1,1000000000> ><__int64,void>
  0007b	8b 45 08	 mov	 eax, DWORD PTR ___$ReturnUdt$[ebp]
  0007e	eb 49		 jmp	 SHORT $LN1@duration_c
$LN5@duration_c:

; 412  :                     static_cast<_ToRep>(static_cast<_CR>(_Dur.count()) * static_cast<_CR>(_CF::num)));
; 413  :             }
; 414  :         } else {

  00080	eb 47		 jmp	 SHORT $LN1@duration_c
$LN2@duration_c:

; 415  :             if (_Num_is_one) {

  00082	b9 01 00 00 00	 mov	 ecx, 1
  00087	85 c9		 test	 ecx, ecx
  00089	74 21		 je	 SHORT $LN6@duration_c

; 416  :                 return static_cast<_To>(

  0008b	8b 4d 0c	 mov	 ecx, DWORD PTR __Dur$[ebp]
  0008e	e8 00 00 00 00	 call	 ?count@?$duration@_JU?$ratio@$00$0DLJKMKAA@@std@@@chrono@std@@QBE_JXZ ; std::chrono::duration<__int64,std::ratio<1,1000000000> >::count
  00093	89 45 e4	 mov	 DWORD PTR $T2[ebp], eax
  00096	89 55 e8	 mov	 DWORD PTR $T2[ebp+4], edx
  00099	8d 55 e4	 lea	 edx, DWORD PTR $T2[ebp]
  0009c	52		 push	 edx
  0009d	8b 4d 08	 mov	 ecx, DWORD PTR ___$ReturnUdt$[ebp]
  000a0	e8 00 00 00 00	 call	 ??$?0_JX@?$duration@_JU?$ratio@$00$0DLJKMKAA@@std@@@chrono@std@@QAE@AB_J@Z ; std::chrono::duration<__int64,std::ratio<1,1000000000> >::duration<__int64,std::ratio<1,1000000000> ><__int64,void>
  000a5	8b 45 08	 mov	 eax, DWORD PTR ___$ReturnUdt$[ebp]
  000a8	eb 1f		 jmp	 SHORT $LN1@duration_c

; 417  :                     static_cast<_ToRep>(static_cast<_CR>(_Dur.count()) / static_cast<_CR>(_CF::den)));
; 418  :             } else {

  000aa	eb 1d		 jmp	 SHORT $LN1@duration_c
$LN6@duration_c:

; 419  :                 return static_cast<_To>(static_cast<_ToRep>(

  000ac	8b 4d 0c	 mov	 ecx, DWORD PTR __Dur$[ebp]
  000af	e8 00 00 00 00	 call	 ?count@?$duration@_JU?$ratio@$00$0DLJKMKAA@@std@@@chrono@std@@QBE_JXZ ; std::chrono::duration<__int64,std::ratio<1,1000000000> >::count
  000b4	89 45 dc	 mov	 DWORD PTR $T1[ebp], eax
  000b7	89 55 e0	 mov	 DWORD PTR $T1[ebp+4], edx
  000ba	8d 45 dc	 lea	 eax, DWORD PTR $T1[ebp]
  000bd	50		 push	 eax
  000be	8b 4d 08	 mov	 ecx, DWORD PTR ___$ReturnUdt$[ebp]
  000c1	e8 00 00 00 00	 call	 ??$?0_JX@?$duration@_JU?$ratio@$00$0DLJKMKAA@@std@@@chrono@std@@QAE@AB_J@Z ; std::chrono::duration<__int64,std::ratio<1,1000000000> >::duration<__int64,std::ratio<1,1000000000> ><__int64,void>
  000c6	8b 45 08	 mov	 eax, DWORD PTR ___$ReturnUdt$[ebp]
$LN1@duration_c:

; 420  :                     static_cast<_CR>(_Dur.count()) * static_cast<_CR>(_CF::num) / static_cast<_CR>(_CF::den)));
; 421  :             }
; 422  :         }
; 423  :     }

  000c9	83 c4 24	 add	 esp, 36			; 00000024H
  000cc	3b ec		 cmp	 ebp, esp
  000ce	e8 00 00 00 00	 call	 __RTC_CheckEsp
  000d3	8b e5		 mov	 esp, ebp
  000d5	5d		 pop	 ebp
  000d6	c3		 ret	 0
??$duration_cast@V?$duration@_JU?$ratio@$00$0DLJKMKAA@@std@@@chrono@std@@_JU?$ratio@$00$0DLJKMKAA@@3@X@chrono@std@@YA?AV?$duration@_JU?$ratio@$00$0DLJKMKAA@@std@@@01@ABV201@@Z ENDP ; std::chrono::duration_cast<std::chrono::duration<__int64,std::ratio<1,1000000000> >,__int64,std::ratio<1,1000000000>,void>
_TEXT	ENDS
; Function compile flags: /Odtp /RTCsu
; File C:\Program Files (x86)\Microsoft Visual Studio\2019\Community\VC\Tools\MSVC\14.23.28105\include\chrono
;	COMDAT ??$?MNU?$ratio@$00$00@std@@_JU?$ratio@$00$0DLJKMKAA@@1@@chrono@std@@YA_NABV?$duration@NU?$ratio@$00$00@std@@@01@ABV?$duration@_JU?$ratio@$00$0DLJKMKAA@@std@@@01@@Z
_TEXT	SEGMENT
tv75 = -44						; size = 4
tv89 = -40						; size = 8
tv92 = -32						; size = 8
tv83 = -24						; size = 8
$T1 = -16						; size = 8
$T2 = -8						; size = 8
__Left$ = 8						; size = 4
__Right$ = 12						; size = 4
??$?MNU?$ratio@$00$00@std@@_JU?$ratio@$00$0DLJKMKAA@@1@@chrono@std@@YA_NABV?$duration@NU?$ratio@$00$00@std@@@01@ABV?$duration@_JU?$ratio@$00$0DLJKMKAA@@std@@@01@@Z PROC ; std::chrono::operator<<double,std::ratio<1,1>,__int64,std::ratio<1,1000000000> >, COMDAT

; 365  :         _NOEXCEPT_COND(is_arithmetic_v<_Rep1>&& is_arithmetic_v<_Rep2>) { // strengthened

  00000	55		 push	 ebp
  00001	8b ec		 mov	 ebp, esp
  00003	83 ec 2c	 sub	 esp, 44			; 0000002cH
  00006	57		 push	 edi
  00007	8d 7d d4	 lea	 edi, DWORD PTR [ebp-44]
  0000a	b9 0b 00 00 00	 mov	 ecx, 11			; 0000000bH
  0000f	b8 cc cc cc cc	 mov	 eax, -858993460		; ccccccccH
  00014	f3 ab		 rep stosd

; 366  :         // test if duration < duration
; 367  :         using _CT = common_type_t<duration<_Rep1, _Period1>, duration<_Rep2, _Period2>>;
; 368  :         return _CT(_Left).count() < _CT(_Right).count();

  00016	8b 45 08	 mov	 eax, DWORD PTR __Left$[ebp]
  00019	50		 push	 eax
  0001a	8d 4d f8	 lea	 ecx, DWORD PTR $T2[ebp]
  0001d	e8 00 00 00 00	 call	 ??$?0NU?$ratio@$00$00@std@@X@?$duration@NU?$ratio@$00$0DLJKMKAA@@std@@@chrono@std@@QAE@ABV?$duration@NU?$ratio@$00$00@std@@@12@@Z ; std::chrono::duration<double,std::ratio<1,1000000000> >::duration<double,std::ratio<1,1000000000> ><double,std::ratio<1,1>,void>
  00022	8b c8		 mov	 ecx, eax
  00024	e8 00 00 00 00	 call	 ?count@?$duration@NU?$ratio@$00$0DLJKMKAA@@std@@@chrono@std@@QBENXZ ; std::chrono::duration<double,std::ratio<1,1000000000> >::count
  00029	dd 5d e8	 fstp	 QWORD PTR tv83[ebp]
  0002c	f2 0f 10 45 e8	 movsd	 xmm0, QWORD PTR tv83[ebp]
  00031	8b 4d 0c	 mov	 ecx, DWORD PTR __Right$[ebp]
  00034	51		 push	 ecx
  00035	8d 4d f0	 lea	 ecx, DWORD PTR $T1[ebp]
  00038	f2 0f 11 45 e0	 movsd	 QWORD PTR tv92[ebp], xmm0
  0003d	e8 00 00 00 00	 call	 ??$?0_JU?$ratio@$00$0DLJKMKAA@@std@@X@?$duration@NU?$ratio@$00$0DLJKMKAA@@std@@@chrono@std@@QAE@ABV?$duration@_JU?$ratio@$00$0DLJKMKAA@@std@@@12@@Z ; std::chrono::duration<double,std::ratio<1,1000000000> >::duration<double,std::ratio<1,1000000000> ><__int64,std::ratio<1,1000000000>,void>
  00042	8b c8		 mov	 ecx, eax
  00044	e8 00 00 00 00	 call	 ?count@?$duration@NU?$ratio@$00$0DLJKMKAA@@std@@@chrono@std@@QBENXZ ; std::chrono::duration<double,std::ratio<1,1000000000> >::count
  00049	dd 5d d8	 fstp	 QWORD PTR tv89[ebp]
  0004c	f2 0f 10 45 d8	 movsd	 xmm0, QWORD PTR tv89[ebp]
  00051	f2 0f 10 4d e0	 movsd	 xmm1, QWORD PTR tv92[ebp]
  00056	66 0f 2f c1	 comisd	 xmm0, xmm1
  0005a	76 09		 jbe	 SHORT $LN3@operator
  0005c	c7 45 d4 01 00
	00 00		 mov	 DWORD PTR tv75[ebp], 1
  00063	eb 07		 jmp	 SHORT $LN4@operator
$LN3@operator:
  00065	c7 45 d4 00 00
	00 00		 mov	 DWORD PTR tv75[ebp], 0
$LN4@operator:
  0006c	8a 45 d4	 mov	 al, BYTE PTR tv75[ebp]

; 369  :     }

  0006f	5f		 pop	 edi
  00070	83 c4 2c	 add	 esp, 44			; 0000002cH
  00073	3b ec		 cmp	 ebp, esp
  00075	e8 00 00 00 00	 call	 __RTC_CheckEsp
  0007a	8b e5		 mov	 esp, ebp
  0007c	5d		 pop	 ebp
  0007d	c3		 ret	 0
??$?MNU?$ratio@$00$00@std@@_JU?$ratio@$00$0DLJKMKAA@@1@@chrono@std@@YA_NABV?$duration@NU?$ratio@$00$00@std@@@01@ABV?$duration@_JU?$ratio@$00$0DLJKMKAA@@std@@@01@@Z ENDP ; std::chrono::operator<<double,std::ratio<1,1>,__int64,std::ratio<1,1000000000> >
_TEXT	ENDS
; Function compile flags: /Odtp /RTCsu
; File C:\Program Files (x86)\Microsoft Visual Studio\2019\Community\VC\Tools\MSVC\14.23.28105\include\chrono
;	COMDAT ??$?0_JU?$ratio@$00$0JIJGIA@@std@@X@?$duration@_JU?$ratio@$00$0DLJKMKAA@@std@@@chrono@std@@QAE@ABV?$duration@_JU?$ratio@$00$0JIJGIA@@std@@@12@@Z
_TEXT	SEGMENT
$T1 = -12						; size = 8
_this$ = -4						; size = 4
__Dur$ = 8						; size = 4
??$?0_JU?$ratio@$00$0JIJGIA@@std@@X@?$duration@_JU?$ratio@$00$0DLJKMKAA@@std@@@chrono@std@@QAE@ABV?$duration@_JU?$ratio@$00$0JIJGIA@@std@@@12@@Z PROC ; std::chrono::duration<__int64,std::ratio<1,1000000000> >::duration<__int64,std::ratio<1,1000000000> ><__int64,std::ratio<1,10000000>,void>, COMDAT
; _this$ = ecx

; 86   :             : _MyRep(chrono::duration_cast<duration>(_Dur).count()) {}

  00000	55		 push	 ebp
  00001	8b ec		 mov	 ebp, esp
  00003	83 ec 0c	 sub	 esp, 12			; 0000000cH
  00006	c7 45 f4 cc cc
	cc cc		 mov	 DWORD PTR [ebp-12], -858993460 ; ccccccccH
  0000d	c7 45 f8 cc cc
	cc cc		 mov	 DWORD PTR [ebp-8], -858993460 ; ccccccccH
  00014	c7 45 fc cc cc
	cc cc		 mov	 DWORD PTR [ebp-4], -858993460 ; ccccccccH
  0001b	89 4d fc	 mov	 DWORD PTR _this$[ebp], ecx
  0001e	8b 45 08	 mov	 eax, DWORD PTR __Dur$[ebp]
  00021	50		 push	 eax
  00022	8d 4d f4	 lea	 ecx, DWORD PTR $T1[ebp]
  00025	51		 push	 ecx
  00026	e8 00 00 00 00	 call	 ??$duration_cast@V?$duration@_JU?$ratio@$00$0DLJKMKAA@@std@@@chrono@std@@_JU?$ratio@$00$0JIJGIA@@3@X@chrono@std@@YA?AV?$duration@_JU?$ratio@$00$0DLJKMKAA@@std@@@01@ABV?$duration@_JU?$ratio@$00$0JIJGIA@@std@@@01@@Z ; std::chrono::duration_cast<std::chrono::duration<__int64,std::ratio<1,1000000000> >,__int64,std::ratio<1,10000000>,void>
  0002b	83 c4 08	 add	 esp, 8
  0002e	8b c8		 mov	 ecx, eax
  00030	e8 00 00 00 00	 call	 ?count@?$duration@_JU?$ratio@$00$0DLJKMKAA@@std@@@chrono@std@@QBE_JXZ ; std::chrono::duration<__int64,std::ratio<1,1000000000> >::count
  00035	8b 4d fc	 mov	 ecx, DWORD PTR _this$[ebp]
  00038	89 01		 mov	 DWORD PTR [ecx], eax
  0003a	89 51 04	 mov	 DWORD PTR [ecx+4], edx
  0003d	8b 45 fc	 mov	 eax, DWORD PTR _this$[ebp]
  00040	83 c4 0c	 add	 esp, 12			; 0000000cH
  00043	3b ec		 cmp	 ebp, esp
  00045	e8 00 00 00 00	 call	 __RTC_CheckEsp
  0004a	8b e5		 mov	 esp, ebp
  0004c	5d		 pop	 ebp
  0004d	c2 04 00	 ret	 4
??$?0_JU?$ratio@$00$0JIJGIA@@std@@X@?$duration@_JU?$ratio@$00$0DLJKMKAA@@std@@@chrono@std@@QAE@ABV?$duration@_JU?$ratio@$00$0JIJGIA@@std@@@12@@Z ENDP ; std::chrono::duration<__int64,std::ratio<1,1000000000> >::duration<__int64,std::ratio<1,1000000000> ><__int64,std::ratio<1,10000000>,void>
_TEXT	ENDS
; Function compile flags: /Odtp /RTCsu
; File C:\Program Files (x86)\Microsoft Visual Studio\2019\Community\VC\Tools\MSVC\14.23.28105\include\chrono
;	COMDAT ??$?MUsteady_clock@chrono@std@@V?$duration@_JU?$ratio@$00$0DLJKMKAA@@std@@@12@V312@@chrono@std@@YA_NABV?$time_point@Usteady_clock@chrono@std@@V?$duration@_JU?$ratio@$00$0DLJKMKAA@@std@@@23@@01@0@Z
_TEXT	SEGMENT
$T1 = -16						; size = 8
$T2 = -8						; size = 8
__Left$ = 8						; size = 4
__Right$ = 12						; size = 4
??$?MUsteady_clock@chrono@std@@V?$duration@_JU?$ratio@$00$0DLJKMKAA@@std@@@12@V312@@chrono@std@@YA_NABV?$time_point@Usteady_clock@chrono@std@@V?$duration@_JU?$ratio@$00$0DLJKMKAA@@std@@@23@@01@0@Z PROC ; std::chrono::operator<<std::chrono::steady_clock,std::chrono::duration<__int64,std::ratio<1,1000000000> >,std::chrono::duration<__int64,std::ratio<1,1000000000> > >, COMDAT

; 552  :             is_arithmetic_v<typename _Duration1::rep>&& is_arithmetic_v<typename _Duration2::rep>) { // strengthened

  00000	55		 push	 ebp
  00001	8b ec		 mov	 ebp, esp
  00003	83 ec 10	 sub	 esp, 16			; 00000010H
  00006	b8 cc cc cc cc	 mov	 eax, -858993460		; ccccccccH
  0000b	89 45 f0	 mov	 DWORD PTR [ebp-16], eax
  0000e	89 45 f4	 mov	 DWORD PTR [ebp-12], eax
  00011	89 45 f8	 mov	 DWORD PTR [ebp-8], eax
  00014	89 45 fc	 mov	 DWORD PTR [ebp-4], eax

; 553  :         // test for time_point < time_point
; 554  :         return _Left.time_since_epoch() < _Right.time_since_epoch();

  00017	8d 45 f8	 lea	 eax, DWORD PTR $T2[ebp]
  0001a	50		 push	 eax
  0001b	8b 4d 0c	 mov	 ecx, DWORD PTR __Right$[ebp]
  0001e	e8 00 00 00 00	 call	 ?time_since_epoch@?$time_point@Usteady_clock@chrono@std@@V?$duration@_JU?$ratio@$00$0DLJKMKAA@@std@@@23@@chrono@std@@QBE?AV?$duration@_JU?$ratio@$00$0DLJKMKAA@@std@@@23@XZ ; std::chrono::time_point<std::chrono::steady_clock,std::chrono::duration<__int64,std::ratio<1,1000000000> > >::time_since_epoch
  00023	50		 push	 eax
  00024	8d 4d f0	 lea	 ecx, DWORD PTR $T1[ebp]
  00027	51		 push	 ecx
  00028	8b 4d 08	 mov	 ecx, DWORD PTR __Left$[ebp]
  0002b	e8 00 00 00 00	 call	 ?time_since_epoch@?$time_point@Usteady_clock@chrono@std@@V?$duration@_JU?$ratio@$00$0DLJKMKAA@@std@@@23@@chrono@std@@QBE?AV?$duration@_JU?$ratio@$00$0DLJKMKAA@@std@@@23@XZ ; std::chrono::time_point<std::chrono::steady_clock,std::chrono::duration<__int64,std::ratio<1,1000000000> > >::time_since_epoch
  00030	50		 push	 eax
  00031	e8 00 00 00 00	 call	 ??$?M_JU?$ratio@$00$0DLJKMKAA@@std@@_JU01@@chrono@std@@YA_NABV?$duration@_JU?$ratio@$00$0DLJKMKAA@@std@@@01@0@Z ; std::chrono::operator<<__int64,std::ratio<1,1000000000>,__int64,std::ratio<1,1000000000> >
  00036	83 c4 08	 add	 esp, 8

; 555  :     }

  00039	83 c4 10	 add	 esp, 16			; 00000010H
  0003c	3b ec		 cmp	 ebp, esp
  0003e	e8 00 00 00 00	 call	 __RTC_CheckEsp
  00043	8b e5		 mov	 esp, ebp
  00045	5d		 pop	 ebp
  00046	c3		 ret	 0
??$?MUsteady_clock@chrono@std@@V?$duration@_JU?$ratio@$00$0DLJKMKAA@@std@@@12@V312@@chrono@std@@YA_NABV?$time_point@Usteady_clock@chrono@std@@V?$duration@_JU?$ratio@$00$0DLJKMKAA@@std@@@23@@01@0@Z ENDP ; std::chrono::operator<<std::chrono::steady_clock,std::chrono::duration<__int64,std::ratio<1,1000000000> >,std::chrono::duration<__int64,std::ratio<1,1000000000> > >
_TEXT	ENDS
; Function compile flags: /Odtp /RTCsu
; File C:\Program Files (x86)\Microsoft Visual Studio\2019\Community\VC\Tools\MSVC\14.23.28105\include\chrono
;	COMDAT ??$duration_cast@V?$duration@_JU?$ratio@$00$0DLJKMKAA@@std@@@chrono@std@@_JU?$ratio@$00$0DOI@@3@X@chrono@std@@YA?AV?$duration@_JU?$ratio@$00$0DLJKMKAA@@std@@@01@ABV?$duration@_JU?$ratio@$00$0DOI@@std@@@01@@Z
_TEXT	SEGMENT
$T1 = -36						; size = 8
$T2 = -28						; size = 8
$T3 = -20						; size = 8
$T4 = -12						; size = 8
__Den_is_one$ = -2					; size = 1
__Num_is_one$ = -1					; size = 1
___$ReturnUdt$ = 8					; size = 4
__Dur$ = 12						; size = 4
??$duration_cast@V?$duration@_JU?$ratio@$00$0DLJKMKAA@@std@@@chrono@std@@_JU?$ratio@$00$0DOI@@3@X@chrono@std@@YA?AV?$duration@_JU?$ratio@$00$0DLJKMKAA@@std@@@01@ABV?$duration@_JU?$ratio@$00$0DOI@@std@@@01@@Z PROC ; std::chrono::duration_cast<std::chrono::duration<__int64,std::ratio<1,1000000000> >,__int64,std::ratio<1,1000>,void>, COMDAT

; 397  :         _NOEXCEPT_COND(is_arithmetic_v<_Rep>&& is_arithmetic_v<typename _To::rep>) { // strengthened

  00000	55		 push	 ebp
  00001	8b ec		 mov	 ebp, esp
  00003	83 ec 24	 sub	 esp, 36			; 00000024H
  00006	b8 cc cc cc cc	 mov	 eax, -858993460		; ccccccccH
  0000b	89 45 dc	 mov	 DWORD PTR [ebp-36], eax
  0000e	89 45 e0	 mov	 DWORD PTR [ebp-32], eax
  00011	89 45 e4	 mov	 DWORD PTR [ebp-28], eax
  00014	89 45 e8	 mov	 DWORD PTR [ebp-24], eax
  00017	89 45 ec	 mov	 DWORD PTR [ebp-20], eax
  0001a	89 45 f0	 mov	 DWORD PTR [ebp-16], eax
  0001d	89 45 f4	 mov	 DWORD PTR [ebp-12], eax
  00020	89 45 f8	 mov	 DWORD PTR [ebp-8], eax
  00023	89 45 fc	 mov	 DWORD PTR [ebp-4], eax

; 398  :         // convert duration to another duration; truncate
; 399  :         using _CF = ratio_divide<_Period, typename _To::period>;
; 400  : 
; 401  :         using _ToRep = typename _To::rep;
; 402  :         using _CR    = common_type_t<_ToRep, _Rep, intmax_t>;
; 403  : 
; 404  :         constexpr bool _Num_is_one = _CF::num == 1;

  00026	c6 45 ff 00	 mov	 BYTE PTR __Num_is_one$[ebp], 0

; 405  :         constexpr bool _Den_is_one = _CF::den == 1;

  0002a	c6 45 fe 01	 mov	 BYTE PTR __Den_is_one$[ebp], 1

; 406  : 
; 407  :         if (_Den_is_one) {

  0002e	b8 01 00 00 00	 mov	 eax, 1
  00033	85 c0		 test	 eax, eax
  00035	74 57		 je	 SHORT $LN2@duration_c

; 408  :             if (_Num_is_one) {

  00037	33 c9		 xor	 ecx, ecx
  00039	74 24		 je	 SHORT $LN4@duration_c

; 409  :                 return static_cast<_To>(static_cast<_ToRep>(_Dur.count()));

  0003b	8b 4d 0c	 mov	 ecx, DWORD PTR __Dur$[ebp]
  0003e	e8 00 00 00 00	 call	 ?count@?$duration@_JU?$ratio@$00$0DOI@@std@@@chrono@std@@QBE_JXZ ; std::chrono::duration<__int64,std::ratio<1,1000> >::count
  00043	89 45 f4	 mov	 DWORD PTR $T4[ebp], eax
  00046	89 55 f8	 mov	 DWORD PTR $T4[ebp+4], edx
  00049	8d 55 f4	 lea	 edx, DWORD PTR $T4[ebp]
  0004c	52		 push	 edx
  0004d	8b 4d 08	 mov	 ecx, DWORD PTR ___$ReturnUdt$[ebp]
  00050	e8 00 00 00 00	 call	 ??$?0_JX@?$duration@_JU?$ratio@$00$0DLJKMKAA@@std@@@chrono@std@@QAE@AB_J@Z ; std::chrono::duration<__int64,std::ratio<1,1000000000> >::duration<__int64,std::ratio<1,1000000000> ><__int64,void>
  00055	8b 45 08	 mov	 eax, DWORD PTR ___$ReturnUdt$[ebp]
  00058	e9 81 00 00 00	 jmp	 $LN1@duration_c

; 410  :             } else {

  0005d	eb 2d		 jmp	 SHORT $LN5@duration_c
$LN4@duration_c:

; 411  :                 return static_cast<_To>(

  0005f	8b 4d 0c	 mov	 ecx, DWORD PTR __Dur$[ebp]
  00062	e8 00 00 00 00	 call	 ?count@?$duration@_JU?$ratio@$00$0DOI@@std@@@chrono@std@@QBE_JXZ ; std::chrono::duration<__int64,std::ratio<1,1000> >::count
  00067	6a 00		 push	 0
  00069	68 40 42 0f 00	 push	 1000000			; 000f4240H
  0006e	52		 push	 edx
  0006f	50		 push	 eax
  00070	e8 00 00 00 00	 call	 __allmul
  00075	89 45 ec	 mov	 DWORD PTR $T3[ebp], eax
  00078	89 55 f0	 mov	 DWORD PTR $T3[ebp+4], edx
  0007b	8d 45 ec	 lea	 eax, DWORD PTR $T3[ebp]
  0007e	50		 push	 eax
  0007f	8b 4d 08	 mov	 ecx, DWORD PTR ___$ReturnUdt$[ebp]
  00082	e8 00 00 00 00	 call	 ??$?0_JX@?$duration@_JU?$ratio@$00$0DLJKMKAA@@std@@@chrono@std@@QAE@AB_J@Z ; std::chrono::duration<__int64,std::ratio<1,1000000000> >::duration<__int64,std::ratio<1,1000000000> ><__int64,void>
  00087	8b 45 08	 mov	 eax, DWORD PTR ___$ReturnUdt$[ebp]
  0008a	eb 52		 jmp	 SHORT $LN1@duration_c
$LN5@duration_c:

; 412  :                     static_cast<_ToRep>(static_cast<_CR>(_Dur.count()) * static_cast<_CR>(_CF::num)));
; 413  :             }
; 414  :         } else {

  0008c	eb 50		 jmp	 SHORT $LN1@duration_c
$LN2@duration_c:

; 415  :             if (_Num_is_one) {

  0008e	33 c9		 xor	 ecx, ecx
  00090	74 21		 je	 SHORT $LN6@duration_c

; 416  :                 return static_cast<_To>(

  00092	8b 4d 0c	 mov	 ecx, DWORD PTR __Dur$[ebp]
  00095	e8 00 00 00 00	 call	 ?count@?$duration@_JU?$ratio@$00$0DOI@@std@@@chrono@std@@QBE_JXZ ; std::chrono::duration<__int64,std::ratio<1,1000> >::count
  0009a	89 45 e4	 mov	 DWORD PTR $T2[ebp], eax
  0009d	89 55 e8	 mov	 DWORD PTR $T2[ebp+4], edx
  000a0	8d 55 e4	 lea	 edx, DWORD PTR $T2[ebp]
  000a3	52		 push	 edx
  000a4	8b 4d 08	 mov	 ecx, DWORD PTR ___$ReturnUdt$[ebp]
  000a7	e8 00 00 00 00	 call	 ??$?0_JX@?$duration@_JU?$ratio@$00$0DLJKMKAA@@std@@@chrono@std@@QAE@AB_J@Z ; std::chrono::duration<__int64,std::ratio<1,1000000000> >::duration<__int64,std::ratio<1,1000000000> ><__int64,void>
  000ac	8b 45 08	 mov	 eax, DWORD PTR ___$ReturnUdt$[ebp]
  000af	eb 2d		 jmp	 SHORT $LN1@duration_c

; 417  :                     static_cast<_ToRep>(static_cast<_CR>(_Dur.count()) / static_cast<_CR>(_CF::den)));
; 418  :             } else {

  000b1	eb 2b		 jmp	 SHORT $LN1@duration_c
$LN6@duration_c:

; 419  :                 return static_cast<_To>(static_cast<_ToRep>(

  000b3	8b 4d 0c	 mov	 ecx, DWORD PTR __Dur$[ebp]
  000b6	e8 00 00 00 00	 call	 ?count@?$duration@_JU?$ratio@$00$0DOI@@std@@@chrono@std@@QBE_JXZ ; std::chrono::duration<__int64,std::ratio<1,1000> >::count
  000bb	6a 00		 push	 0
  000bd	68 40 42 0f 00	 push	 1000000			; 000f4240H
  000c2	52		 push	 edx
  000c3	50		 push	 eax
  000c4	e8 00 00 00 00	 call	 __allmul
  000c9	89 45 dc	 mov	 DWORD PTR $T1[ebp], eax
  000cc	89 55 e0	 mov	 DWORD PTR $T1[ebp+4], edx
  000cf	8d 45 dc	 lea	 eax, DWORD PTR $T1[ebp]
  000d2	50		 push	 eax
  000d3	8b 4d 08	 mov	 ecx, DWORD PTR ___$ReturnUdt$[ebp]
  000d6	e8 00 00 00 00	 call	 ??$?0_JX@?$duration@_JU?$ratio@$00$0DLJKMKAA@@std@@@chrono@std@@QAE@AB_J@Z ; std::chrono::duration<__int64,std::ratio<1,1000000000> >::duration<__int64,std::ratio<1,1000000000> ><__int64,void>
  000db	8b 45 08	 mov	 eax, DWORD PTR ___$ReturnUdt$[ebp]
$LN1@duration_c:

; 420  :                     static_cast<_CR>(_Dur.count()) * static_cast<_CR>(_CF::num) / static_cast<_CR>(_CF::den)));
; 421  :             }
; 422  :         }
; 423  :     }

  000de	83 c4 24	 add	 esp, 36			; 00000024H
  000e1	3b ec		 cmp	 ebp, esp
  000e3	e8 00 00 00 00	 call	 __RTC_CheckEsp
  000e8	8b e5		 mov	 esp, ebp
  000ea	5d		 pop	 ebp
  000eb	c3		 ret	 0
??$duration_cast@V?$duration@_JU?$ratio@$00$0DLJKMKAA@@std@@@chrono@std@@_JU?$ratio@$00$0DOI@@3@X@chrono@std@@YA?AV?$duration@_JU?$ratio@$00$0DLJKMKAA@@std@@@01@ABV?$duration@_JU?$ratio@$00$0DOI@@std@@@01@@Z ENDP ; std::chrono::duration_cast<std::chrono::duration<__int64,std::ratio<1,1000000000> >,__int64,std::ratio<1,1000>,void>
_TEXT	ENDS
; Function compile flags: /Odtp /RTCsu
; File C:\Program Files (x86)\Microsoft Visual Studio\2019\Community\VC\Tools\MSVC\14.23.28105\include\xutility
;	COMDAT ??$_Copy_memmove@PAPBDPAPBD@std@@YAPAPBDPAPBD00@Z
_TEXT	SEGMENT
__Count$ = -16						; size = 4
__Dest_ch$ = -12					; size = 4
__Last_ch$ = -8						; size = 4
__First_ch$ = -4					; size = 4
__First$ = 8						; size = 4
__Last$ = 12						; size = 4
__Dest$ = 16						; size = 4
??$_Copy_memmove@PAPBDPAPBD@std@@YAPAPBDPAPBD00@Z PROC	; std::_Copy_memmove<char const * *,char const * *>, COMDAT

; 1739 : _OutIt _Copy_memmove(_InIt _First, _InIt _Last, _OutIt _Dest) { // implement copy-like function as memmove

  00000	55		 push	 ebp
  00001	8b ec		 mov	 ebp, esp
  00003	83 ec 10	 sub	 esp, 16			; 00000010H
  00006	b8 cc cc cc cc	 mov	 eax, -858993460		; ccccccccH
  0000b	89 45 f0	 mov	 DWORD PTR [ebp-16], eax
  0000e	89 45 f4	 mov	 DWORD PTR [ebp-12], eax
  00011	89 45 f8	 mov	 DWORD PTR [ebp-8], eax
  00014	89 45 fc	 mov	 DWORD PTR [ebp-4], eax

; 1740 :     const char* const _First_ch = const_cast<const char*>(reinterpret_cast<const volatile char*>(_First));

  00017	8b 45 08	 mov	 eax, DWORD PTR __First$[ebp]
  0001a	89 45 fc	 mov	 DWORD PTR __First_ch$[ebp], eax

; 1741 :     const char* const _Last_ch  = const_cast<const char*>(reinterpret_cast<const volatile char*>(_Last));

  0001d	8b 4d 0c	 mov	 ecx, DWORD PTR __Last$[ebp]
  00020	89 4d f8	 mov	 DWORD PTR __Last_ch$[ebp], ecx

; 1742 :     char* const _Dest_ch        = const_cast<char*>(reinterpret_cast<volatile char*>(_Dest));

  00023	8b 55 10	 mov	 edx, DWORD PTR __Dest$[ebp]
  00026	89 55 f4	 mov	 DWORD PTR __Dest_ch$[ebp], edx

; 1743 :     const auto _Count           = static_cast<size_t>(_Last_ch - _First_ch);

  00029	8b 45 f8	 mov	 eax, DWORD PTR __Last_ch$[ebp]
  0002c	2b 45 fc	 sub	 eax, DWORD PTR __First_ch$[ebp]
  0002f	89 45 f0	 mov	 DWORD PTR __Count$[ebp], eax

; 1744 :     _CSTD memmove(_Dest_ch, _First_ch, _Count);

  00032	8b 4d f0	 mov	 ecx, DWORD PTR __Count$[ebp]
  00035	51		 push	 ecx
  00036	8b 55 fc	 mov	 edx, DWORD PTR __First_ch$[ebp]
  00039	52		 push	 edx
  0003a	8b 45 f4	 mov	 eax, DWORD PTR __Dest_ch$[ebp]
  0003d	50		 push	 eax
  0003e	e8 00 00 00 00	 call	 _memmove
  00043	83 c4 0c	 add	 esp, 12			; 0000000cH

; 1745 :     return reinterpret_cast<_OutIt>(_Dest_ch + _Count);

  00046	8b 45 f4	 mov	 eax, DWORD PTR __Dest_ch$[ebp]
  00049	03 45 f0	 add	 eax, DWORD PTR __Count$[ebp]

; 1746 : }

  0004c	83 c4 10	 add	 esp, 16			; 00000010H
  0004f	3b ec		 cmp	 ebp, esp
  00051	e8 00 00 00 00	 call	 __RTC_CheckEsp
  00056	8b e5		 mov	 esp, ebp
  00058	5d		 pop	 ebp
  00059	c3		 ret	 0
??$_Copy_memmove@PAPBDPAPBD@std@@YAPAPBDPAPBD00@Z ENDP	; std::_Copy_memmove<char const * *,char const * *>
_TEXT	ENDS
; Function compile flags: /Odtp /RTCsu
; File C:\Program Files (x86)\Microsoft Visual Studio\2019\Community\VC\Tools\MSVC\14.23.28105\include\xutility
;	COMDAT ??$_Get_unwrapped@PBD@std@@YAPAPBDQAPBD@Z
_TEXT	SEGMENT
__Ptr$ = 8						; size = 4
??$_Get_unwrapped@PBD@std@@YAPAPBDQAPBD@Z PROC		; std::_Get_unwrapped<char const *>, COMDAT

; 275  : _NODISCARD constexpr _Ty* _Get_unwrapped(_Ty* const _Ptr) { // special case already-unwrapped pointers

  00000	55		 push	 ebp
  00001	8b ec		 mov	 ebp, esp

; 276  :     return _Ptr;

  00003	8b 45 08	 mov	 eax, DWORD PTR __Ptr$[ebp]

; 277  : }

  00006	5d		 pop	 ebp
  00007	c3		 ret	 0
??$_Get_unwrapped@PBD@std@@YAPAPBDQAPBD@Z ENDP		; std::_Get_unwrapped<char const *>
_TEXT	ENDS
; Function compile flags: /Odtp /RTCsu
; File C:\Program Files (x86)\Microsoft Visual Studio\2019\Community\VC\Tools\MSVC\14.23.28105\include\xmemory
;	COMDAT ?deallocate@?$_Default_allocator_traits@V?$allocator@U_Container_proxy@std@@@std@@@std@@SAXAAV?$allocator@U_Container_proxy@std@@@2@QAU_Container_proxy@2@I@Z
_TEXT	SEGMENT
___formal$ = 8						; size = 4
__Ptr$ = 12						; size = 4
__Count$ = 16						; size = 4
?deallocate@?$_Default_allocator_traits@V?$allocator@U_Container_proxy@std@@@std@@@std@@SAXAAV?$allocator@U_Container_proxy@std@@@2@QAU_Container_proxy@2@I@Z PROC ; std::_Default_allocator_traits<std::allocator<std::_Container_proxy> >::deallocate, COMDAT

; 751  :     static void deallocate(_Alloc&, const pointer _Ptr, const size_type _Count) {

  00000	55		 push	 ebp
  00001	8b ec		 mov	 ebp, esp

; 752  :         // no overflow check on the following multiply; we assume _Allocate did that check
; 753  :         _Deallocate<_New_alignof<value_type>>(_Ptr, sizeof(value_type) * _Count);

  00003	8b 45 10	 mov	 eax, DWORD PTR __Count$[ebp]
  00006	c1 e0 03	 shl	 eax, 3
  00009	50		 push	 eax
  0000a	8b 4d 0c	 mov	 ecx, DWORD PTR __Ptr$[ebp]
  0000d	51		 push	 ecx
  0000e	e8 00 00 00 00	 call	 ??$_Deallocate@$07$0A@@std@@YAXPAXI@Z ; std::_Deallocate<8,0>
  00013	83 c4 08	 add	 esp, 8

; 754  :     }

  00016	3b ec		 cmp	 ebp, esp
  00018	e8 00 00 00 00	 call	 __RTC_CheckEsp
  0001d	5d		 pop	 ebp
  0001e	c3		 ret	 0
?deallocate@?$_Default_allocator_traits@V?$allocator@U_Container_proxy@std@@@std@@@std@@SAXAAV?$allocator@U_Container_proxy@std@@@2@QAU_Container_proxy@2@I@Z ENDP ; std::_Default_allocator_traits<std::allocator<std::_Container_proxy> >::deallocate
_TEXT	ENDS
; Function compile flags: /Odtp /RTCsu
; File C:\Program Files (x86)\Microsoft Visual Studio\2019\Community\VC\Tools\MSVC\14.23.28105\include\chrono
;	COMDAT ??$?H_JU?$ratio@$00$0DLJKMKAA@@std@@_JU?$ratio@$00$0DOI@@1@@chrono@std@@YA?AV?$duration@_JU?$ratio@$00$0DLJKMKAA@@std@@@01@ABV201@ABV?$duration@_JU?$ratio@$00$0DOI@@std@@@01@@Z
_TEXT	SEGMENT
$T1 = -24						; size = 8
$T2 = -16						; size = 8
$T3 = -8						; size = 8
___$ReturnUdt$ = 8					; size = 4
__Left$ = 12						; size = 4
__Right$ = 16						; size = 4
??$?H_JU?$ratio@$00$0DLJKMKAA@@std@@_JU?$ratio@$00$0DOI@@1@@chrono@std@@YA?AV?$duration@_JU?$ratio@$00$0DLJKMKAA@@std@@@01@ABV201@ABV?$duration@_JU?$ratio@$00$0DOI@@std@@@01@@Z PROC ; std::chrono::operator+<__int64,std::ratio<1,1000000000>,__int64,std::ratio<1,1000> >, COMDAT

; 253  :         _NOEXCEPT_COND(is_arithmetic_v<_Rep1>&& is_arithmetic_v<_Rep2>) { // strengthened

  00000	55		 push	 ebp
  00001	8b ec		 mov	 ebp, esp
  00003	83 ec 18	 sub	 esp, 24			; 00000018H
  00006	56		 push	 esi
  00007	57		 push	 edi
  00008	b8 cc cc cc cc	 mov	 eax, -858993460		; ccccccccH
  0000d	89 45 e8	 mov	 DWORD PTR [ebp-24], eax
  00010	89 45 ec	 mov	 DWORD PTR [ebp-20], eax
  00013	89 45 f0	 mov	 DWORD PTR [ebp-16], eax
  00016	89 45 f4	 mov	 DWORD PTR [ebp-12], eax
  00019	89 45 f8	 mov	 DWORD PTR [ebp-8], eax
  0001c	89 45 fc	 mov	 DWORD PTR [ebp-4], eax

; 254  :         // add two durations
; 255  :         using _CD = common_type_t<duration<_Rep1, _Period1>, duration<_Rep2, _Period2>>;
; 256  :         return _CD(_CD(_Left).count() + _CD(_Right).count());

  0001f	8b 45 0c	 mov	 eax, DWORD PTR __Left$[ebp]
  00022	8b 08		 mov	 ecx, DWORD PTR [eax]
  00024	8b 50 04	 mov	 edx, DWORD PTR [eax+4]
  00027	89 4d f0	 mov	 DWORD PTR $T2[ebp], ecx
  0002a	89 55 f4	 mov	 DWORD PTR $T2[ebp+4], edx
  0002d	8d 4d f0	 lea	 ecx, DWORD PTR $T2[ebp]
  00030	e8 00 00 00 00	 call	 ?count@?$duration@_JU?$ratio@$00$0DLJKMKAA@@std@@@chrono@std@@QBE_JXZ ; std::chrono::duration<__int64,std::ratio<1,1000000000> >::count
  00035	8b f0		 mov	 esi, eax
  00037	8b fa		 mov	 edi, edx
  00039	8b 45 10	 mov	 eax, DWORD PTR __Right$[ebp]
  0003c	50		 push	 eax
  0003d	8d 4d e8	 lea	 ecx, DWORD PTR $T1[ebp]
  00040	e8 00 00 00 00	 call	 ??$?0_JU?$ratio@$00$0DOI@@std@@X@?$duration@_JU?$ratio@$00$0DLJKMKAA@@std@@@chrono@std@@QAE@ABV?$duration@_JU?$ratio@$00$0DOI@@std@@@12@@Z ; std::chrono::duration<__int64,std::ratio<1,1000000000> >::duration<__int64,std::ratio<1,1000000000> ><__int64,std::ratio<1,1000>,void>
  00045	8b c8		 mov	 ecx, eax
  00047	e8 00 00 00 00	 call	 ?count@?$duration@_JU?$ratio@$00$0DLJKMKAA@@std@@@chrono@std@@QBE_JXZ ; std::chrono::duration<__int64,std::ratio<1,1000000000> >::count
  0004c	03 f0		 add	 esi, eax
  0004e	13 fa		 adc	 edi, edx
  00050	89 75 f8	 mov	 DWORD PTR $T3[ebp], esi
  00053	89 7d fc	 mov	 DWORD PTR $T3[ebp+4], edi
  00056	8d 4d f8	 lea	 ecx, DWORD PTR $T3[ebp]
  00059	51		 push	 ecx
  0005a	8b 4d 08	 mov	 ecx, DWORD PTR ___$ReturnUdt$[ebp]
  0005d	e8 00 00 00 00	 call	 ??$?0_JX@?$duration@_JU?$ratio@$00$0DLJKMKAA@@std@@@chrono@std@@QAE@AB_J@Z ; std::chrono::duration<__int64,std::ratio<1,1000000000> >::duration<__int64,std::ratio<1,1000000000> ><__int64,void>
  00062	8b 45 08	 mov	 eax, DWORD PTR ___$ReturnUdt$[ebp]

; 257  :     }

  00065	5f		 pop	 edi
  00066	5e		 pop	 esi
  00067	83 c4 18	 add	 esp, 24			; 00000018H
  0006a	3b ec		 cmp	 ebp, esp
  0006c	e8 00 00 00 00	 call	 __RTC_CheckEsp
  00071	8b e5		 mov	 esp, ebp
  00073	5d		 pop	 ebp
  00074	c3		 ret	 0
??$?H_JU?$ratio@$00$0DLJKMKAA@@std@@_JU?$ratio@$00$0DOI@@1@@chrono@std@@YA?AV?$duration@_JU?$ratio@$00$0DLJKMKAA@@std@@@01@ABV201@ABV?$duration@_JU?$ratio@$00$0DOI@@std@@@01@@Z ENDP ; std::chrono::operator+<__int64,std::ratio<1,1000000000>,__int64,std::ratio<1,1000> >
_TEXT	ENDS
; Function compile flags: /Odtp /RTCsu
; File C:\Program Files (x86)\Microsoft Visual Studio\2019\Community\VC\Tools\MSVC\14.23.28105\include\type_traits
;	COMDAT ??$invoke@P6AXPAX@ZPAVCPerfMonitor@@@std@@YAX$$QAP6AXPAX@Z$$QAPAVCPerfMonitor@@@Z
_TEXT	SEGMENT
__Obj$ = 8						; size = 4
_<_Args_0>$ = 12					; size = 4
??$invoke@P6AXPAX@ZPAVCPerfMonitor@@@std@@YAX$$QAP6AXPAX@Z$$QAPAVCPerfMonitor@@@Z PROC ; std::invoke<void (__cdecl*)(void *),CPerfMonitor *>, COMDAT

; 1571 : _IMPLEMENT_INVOKE(_EMPTY_ARGUMENT, inline)

  00000	55		 push	 ebp
  00001	8b ec		 mov	 ebp, esp
  00003	8b 45 0c	 mov	 eax, DWORD PTR _<_Args_0>$[ebp]
  00006	50		 push	 eax
  00007	e8 00 00 00 00	 call	 ??$forward@PAVCPerfMonitor@@@std@@YA$$QAPAVCPerfMonitor@@AAPAV1@@Z ; std::forward<CPerfMonitor *>
  0000c	83 c4 04	 add	 esp, 4
  0000f	50		 push	 eax
  00010	8b 4d 08	 mov	 ecx, DWORD PTR __Obj$[ebp]
  00013	51		 push	 ecx
  00014	e8 00 00 00 00	 call	 ??$forward@P6AXPAX@Z@std@@YA$$QAP6AXPAX@ZAAP6AX0@Z@Z ; std::forward<void (__cdecl*)(void *)>
  00019	83 c4 04	 add	 esp, 4
  0001c	50		 push	 eax
  0001d	e8 00 00 00 00	 call	 ??$_Call@P6AXPAX@ZPAVCPerfMonitor@@@_Invoker_functor@std@@SAX$$QAP6AXPAX@Z$$QAPAVCPerfMonitor@@@Z ; std::_Invoker_functor::_Call<void (__cdecl*)(void *),CPerfMonitor *>
  00022	83 c4 08	 add	 esp, 8
  00025	3b ec		 cmp	 ebp, esp
  00027	e8 00 00 00 00	 call	 __RTC_CheckEsp
  0002c	5d		 pop	 ebp
  0002d	c3		 ret	 0
??$invoke@P6AXPAX@ZPAVCPerfMonitor@@@std@@YAX$$QAP6AXPAX@Z$$QAPAVCPerfMonitor@@@Z ENDP ; std::invoke<void (__cdecl*)(void *),CPerfMonitor *>
_TEXT	ENDS
; Function compile flags: /Odtp /RTCsu
; File C:\Program Files (x86)\Microsoft Visual Studio\2019\Community\VC\Tools\MSVC\14.23.28105\include\type_traits
;	COMDAT ??$_Call@P6AXPAX@ZPAVCPerfMonitor@@@_Invoker_functor@std@@SAX$$QAP6AXPAX@Z$$QAPAVCPerfMonitor@@@Z
_TEXT	SEGMENT
__Obj$ = 8						; size = 4
_<_Args_0>$ = 12					; size = 4
??$_Call@P6AXPAX@ZPAVCPerfMonitor@@@_Invoker_functor@std@@SAX$$QAP6AXPAX@Z$$QAPAVCPerfMonitor@@@Z PROC ; std::_Invoker_functor::_Call<void (__cdecl*)(void *),CPerfMonitor *>, COMDAT

; 1571 : _IMPLEMENT_INVOKE(_EMPTY_ARGUMENT, inline)

  00000	55		 push	 ebp
  00001	8b ec		 mov	 ebp, esp
  00003	56		 push	 esi
  00004	8b 45 0c	 mov	 eax, DWORD PTR _<_Args_0>$[ebp]
  00007	50		 push	 eax
  00008	e8 00 00 00 00	 call	 ??$forward@PAVCPerfMonitor@@@std@@YA$$QAPAVCPerfMonitor@@AAPAV1@@Z ; std::forward<CPerfMonitor *>
  0000d	83 c4 04	 add	 esp, 4
  00010	8b f4		 mov	 esi, esp
  00012	8b 08		 mov	 ecx, DWORD PTR [eax]
  00014	51		 push	 ecx
  00015	8b 55 08	 mov	 edx, DWORD PTR __Obj$[ebp]
  00018	52		 push	 edx
  00019	e8 00 00 00 00	 call	 ??$forward@P6AXPAX@Z@std@@YA$$QAP6AXPAX@ZAAP6AX0@Z@Z ; std::forward<void (__cdecl*)(void *)>
  0001e	83 c4 04	 add	 esp, 4
  00021	8b 00		 mov	 eax, DWORD PTR [eax]
  00023	ff d0		 call	 eax
  00025	83 c4 04	 add	 esp, 4
  00028	3b f4		 cmp	 esi, esp
  0002a	e8 00 00 00 00	 call	 __RTC_CheckEsp
  0002f	5e		 pop	 esi
  00030	3b ec		 cmp	 ebp, esp
  00032	e8 00 00 00 00	 call	 __RTC_CheckEsp
  00037	5d		 pop	 ebp
  00038	c3		 ret	 0
??$_Call@P6AXPAX@ZPAVCPerfMonitor@@@_Invoker_functor@std@@SAX$$QAP6AXPAX@Z$$QAPAVCPerfMonitor@@@Z ENDP ; std::_Invoker_functor::_Call<void (__cdecl*)(void *),CPerfMonitor *>
_TEXT	ENDS
; Function compile flags: /Odtp /RTCsu
; File C:\Program Files (x86)\Microsoft Visual Studio\2019\Community\VC\Tools\MSVC\14.23.28105\include\type_traits
;	COMDAT ??$forward@P6AXPAX@Z@std@@YA$$QAP6AXPAX@ZAAP6AX0@Z@Z
_TEXT	SEGMENT
__Arg$ = 8						; size = 4
??$forward@P6AXPAX@Z@std@@YA$$QAP6AXPAX@ZAAP6AX0@Z@Z PROC ; std::forward<void (__cdecl*)(void *)>, COMDAT

; 1420 :     remove_reference_t<_Ty>& _Arg) noexcept { // forward an lvalue as either an lvalue or an rvalue

  00000	55		 push	 ebp
  00001	8b ec		 mov	 ebp, esp

; 1421 :     return static_cast<_Ty&&>(_Arg);

  00003	8b 45 08	 mov	 eax, DWORD PTR __Arg$[ebp]

; 1422 : }

  00006	5d		 pop	 ebp
  00007	c3		 ret	 0
??$forward@P6AXPAX@Z@std@@YA$$QAP6AXPAX@ZAAP6AX0@Z@Z ENDP ; std::forward<void (__cdecl*)(void *)>
_TEXT	ENDS
; Function compile flags: /Odtp /RTCsu
; File C:\Program Files (x86)\Microsoft Visual Studio\2019\Community\VC\Tools\MSVC\14.23.28105\include\tuple
;	COMDAT ??$get@$00P6AXPAX@ZPAVCPerfMonitor@@@std@@YAAAPAVCPerfMonitor@@AAV?$tuple@P6AXPAX@ZPAVCPerfMonitor@@@0@@Z
_TEXT	SEGMENT
__Tuple$ = 8						; size = 4
??$get@$00P6AXPAX@ZPAVCPerfMonitor@@@std@@YAAAPAVCPerfMonitor@@AAV?$tuple@P6AXPAX@ZPAVCPerfMonitor@@@0@@Z PROC ; std::get<1,void (__cdecl*)(void *),CPerfMonitor *>, COMDAT

; 649  : _NODISCARD constexpr tuple_element_t<_Index, tuple<_Types...>>& get(tuple<_Types...>& _Tuple) noexcept {

  00000	55		 push	 ebp
  00001	8b ec		 mov	 ebp, esp

; 650  :     using _Ttype = typename tuple_element<_Index, tuple<_Types...>>::_Ttype;
; 651  :     return static_cast<_Ttype&>(_Tuple)._Myfirst._Val;

  00003	8b 45 08	 mov	 eax, DWORD PTR __Tuple$[ebp]

; 652  : }

  00006	5d		 pop	 ebp
  00007	c3		 ret	 0
??$get@$00P6AXPAX@ZPAVCPerfMonitor@@@std@@YAAAPAVCPerfMonitor@@AAV?$tuple@P6AXPAX@ZPAVCPerfMonitor@@@0@@Z ENDP ; std::get<1,void (__cdecl*)(void *),CPerfMonitor *>
_TEXT	ENDS
; Function compile flags: /Odtp /RTCsu
; File C:\Program Files (x86)\Microsoft Visual Studio\2019\Community\VC\Tools\MSVC\14.23.28105\include\type_traits
;	COMDAT ??$move@AAP6AXPAX@Z@std@@YA$$QAP6AXPAX@ZAAP6AX0@Z@Z
_TEXT	SEGMENT
__Arg$ = 8						; size = 4
??$move@AAP6AXPAX@Z@std@@YA$$QAP6AXPAX@ZAAP6AX0@Z@Z PROC ; std::move<void (__cdecl*&)(void *)>, COMDAT

; 1432 : _NODISCARD constexpr remove_reference_t<_Ty>&& move(_Ty&& _Arg) noexcept { // forward _Arg as movable

  00000	55		 push	 ebp
  00001	8b ec		 mov	 ebp, esp

; 1433 :     return static_cast<remove_reference_t<_Ty>&&>(_Arg);

  00003	8b 45 08	 mov	 eax, DWORD PTR __Arg$[ebp]

; 1434 : }

  00006	5d		 pop	 ebp
  00007	c3		 ret	 0
??$move@AAP6AXPAX@Z@std@@YA$$QAP6AXPAX@ZAAP6AX0@Z@Z ENDP ; std::move<void (__cdecl*&)(void *)>
_TEXT	ENDS
; Function compile flags: /Odtp /RTCsu
; File C:\Program Files (x86)\Microsoft Visual Studio\2019\Community\VC\Tools\MSVC\14.23.28105\include\tuple
;	COMDAT ??$get@$0A@P6AXPAX@ZPAVCPerfMonitor@@@std@@YAAAP6AXPAX@ZAAV?$tuple@P6AXPAX@ZPAVCPerfMonitor@@@0@@Z
_TEXT	SEGMENT
__Tuple$ = 8						; size = 4
??$get@$0A@P6AXPAX@ZPAVCPerfMonitor@@@std@@YAAAP6AXPAX@ZAAV?$tuple@P6AXPAX@ZPAVCPerfMonitor@@@0@@Z PROC ; std::get<0,void (__cdecl*)(void *),CPerfMonitor *>, COMDAT

; 649  : _NODISCARD constexpr tuple_element_t<_Index, tuple<_Types...>>& get(tuple<_Types...>& _Tuple) noexcept {

  00000	55		 push	 ebp
  00001	8b ec		 mov	 ebp, esp

; 650  :     using _Ttype = typename tuple_element<_Index, tuple<_Types...>>::_Ttype;
; 651  :     return static_cast<_Ttype&>(_Tuple)._Myfirst._Val;

  00003	8b 45 08	 mov	 eax, DWORD PTR __Tuple$[ebp]
  00006	83 c0 04	 add	 eax, 4

; 652  : }

  00009	5d		 pop	 ebp
  0000a	c3		 ret	 0
??$get@$0A@P6AXPAX@ZPAVCPerfMonitor@@@std@@YAAAP6AXPAX@ZAAV?$tuple@P6AXPAX@ZPAVCPerfMonitor@@@0@@Z ENDP ; std::get<0,void (__cdecl*)(void *),CPerfMonitor *>
_TEXT	ENDS
; Function compile flags: /Odtp /RTCsu
; File C:\Program Files (x86)\Microsoft Visual Studio\2019\Community\VC\Tools\MSVC\14.23.28105\include\memory
;	COMDAT ??$?0U?$default_delete@V?$tuple@P6AXPAX@ZPAVCPerfMonitor@@@std@@@std@@$0A@@?$unique_ptr@V?$tuple@P6AXPAX@ZPAVCPerfMonitor@@@std@@U?$default_delete@V?$tuple@P6AXPAX@ZPAVCPerfMonitor@@@std@@@2@@std@@QAE@PAV?$tuple@P6AXPAX@ZPAVCPerfMonitor@@@1@@Z
_TEXT	SEGMENT
$T2 = -17						; size = 1
_this$ = -16						; size = 4
__$EHRec$ = -12						; size = 12
__Ptr$ = 8						; size = 4
??$?0U?$default_delete@V?$tuple@P6AXPAX@ZPAVCPerfMonitor@@@std@@@std@@$0A@@?$unique_ptr@V?$tuple@P6AXPAX@ZPAVCPerfMonitor@@@std@@U?$default_delete@V?$tuple@P6AXPAX@ZPAVCPerfMonitor@@@std@@@2@@std@@QAE@PAV?$tuple@P6AXPAX@ZPAVCPerfMonitor@@@1@@Z PROC ; std::unique_ptr<std::tuple<void (__cdecl*)(void *),CPerfMonitor *>,std::default_delete<std::tuple<void (__cdecl*)(void *),CPerfMonitor *> > >::unique_ptr<std::tuple<void (__cdecl*)(void *),CPerfMonitor *>,std::default_delete<std::tuple<void (__cdecl*)(void *),CPerfMonitor *> > ><std::default_delete<std::tuple<void (__cdecl*)(void *),CPerfMonitor *> >,0>, COMDAT
; _this$ = ecx

; 1820 :     explicit unique_ptr(pointer _Ptr) noexcept : _Mypair(_Zero_then_variadic_args_t(), _Ptr) {}

  00000	55		 push	 ebp
  00001	8b ec		 mov	 ebp, esp
  00003	6a ff		 push	 -1
  00005	68 00 00 00 00	 push	 __ehhandler$??$?0U?$default_delete@V?$tuple@P6AXPAX@ZPAVCPerfMonitor@@@std@@@std@@$0A@@?$unique_ptr@V?$tuple@P6AXPAX@ZPAVCPerfMonitor@@@std@@U?$default_delete@V?$tuple@P6AXPAX@ZPAVCPerfMonitor@@@std@@@2@@std@@QAE@PAV?$tuple@P6AXPAX@ZPAVCPerfMonitor@@@1@@Z
  0000a	64 a1 00 00 00
	00		 mov	 eax, DWORD PTR fs:0
  00010	50		 push	 eax
  00011	83 ec 08	 sub	 esp, 8
  00014	c7 45 ec cc cc
	cc cc		 mov	 DWORD PTR [ebp-20], -858993460 ; ccccccccH
  0001b	c7 45 f0 cc cc
	cc cc		 mov	 DWORD PTR [ebp-16], -858993460 ; ccccccccH
  00022	a1 00 00 00 00	 mov	 eax, DWORD PTR ___security_cookie
  00027	33 c5		 xor	 eax, ebp
  00029	50		 push	 eax
  0002a	8d 45 f4	 lea	 eax, DWORD PTR __$EHRec$[ebp]
  0002d	64 a3 00 00 00
	00		 mov	 DWORD PTR fs:0, eax
  00033	89 4d f0	 mov	 DWORD PTR _this$[ebp], ecx
  00036	8d 45 08	 lea	 eax, DWORD PTR __Ptr$[ebp]
  00039	50		 push	 eax
  0003a	0f b6 4d ef	 movzx	 ecx, BYTE PTR $T2[ebp]
  0003e	51		 push	 ecx
  0003f	8b 4d f0	 mov	 ecx, DWORD PTR _this$[ebp]
  00042	e8 00 00 00 00	 call	 ??$?0AAPAV?$tuple@P6AXPAX@ZPAVCPerfMonitor@@@std@@@?$_Compressed_pair@U?$default_delete@V?$tuple@P6AXPAX@ZPAVCPerfMonitor@@@std@@@std@@PAV?$tuple@P6AXPAX@ZPAVCPerfMonitor@@@2@$00@std@@QAE@U_Zero_then_variadic_args_t@1@AAPAV?$tuple@P6AXPAX@ZPAVCPerfMonitor@@@1@@Z ; std::_Compressed_pair<std::default_delete<std::tuple<void (__cdecl*)(void *),CPerfMonitor *> >,std::tuple<void (__cdecl*)(void *),CPerfMonitor *> *,1>::_Compressed_pair<std::default_delete<std::tuple<void (__cdecl*)(void *),CPerfMonitor *> >,std::tuple<void (__cdecl*)(void *),CPerfMonitor *> *,1><std::tuple<void (__cdecl*)(void *),CPerfMonitor *> * &>
  00047	8b 45 f0	 mov	 eax, DWORD PTR _this$[ebp]
  0004a	8b 4d f4	 mov	 ecx, DWORD PTR __$EHRec$[ebp]
  0004d	64 89 0d 00 00
	00 00		 mov	 DWORD PTR fs:0, ecx
  00054	59		 pop	 ecx
  00055	83 c4 14	 add	 esp, 20			; 00000014H
  00058	3b ec		 cmp	 ebp, esp
  0005a	e8 00 00 00 00	 call	 __RTC_CheckEsp
  0005f	8b e5		 mov	 esp, ebp
  00061	5d		 pop	 ebp
  00062	c2 04 00	 ret	 4
_TEXT	ENDS
;	COMDAT text$x
text$x	SEGMENT
__ehhandler$??$?0U?$default_delete@V?$tuple@P6AXPAX@ZPAVCPerfMonitor@@@std@@@std@@$0A@@?$unique_ptr@V?$tuple@P6AXPAX@ZPAVCPerfMonitor@@@std@@U?$default_delete@V?$tuple@P6AXPAX@ZPAVCPerfMonitor@@@std@@@2@@std@@QAE@PAV?$tuple@P6AXPAX@ZPAVCPerfMonitor@@@1@@Z:
  00000	8b 54 24 08	 mov	 edx, DWORD PTR [esp+8]
  00004	8d 42 0c	 lea	 eax, DWORD PTR [edx+12]
  00007	8b 4a f4	 mov	 ecx, DWORD PTR [edx-12]
  0000a	33 c8		 xor	 ecx, eax
  0000c	e8 00 00 00 00	 call	 @__security_check_cookie@4
  00011	b8 00 00 00 00	 mov	 eax, OFFSET __ehfuncinfo$??$?0U?$default_delete@V?$tuple@P6AXPAX@ZPAVCPerfMonitor@@@std@@@std@@$0A@@?$unique_ptr@V?$tuple@P6AXPAX@ZPAVCPerfMonitor@@@std@@U?$default_delete@V?$tuple@P6AXPAX@ZPAVCPerfMonitor@@@std@@@2@@std@@QAE@PAV?$tuple@P6AXPAX@ZPAVCPerfMonitor@@@1@@Z
  00016	e9 00 00 00 00	 jmp	 ___CxxFrameHandler3
text$x	ENDS
??$?0U?$default_delete@V?$tuple@P6AXPAX@ZPAVCPerfMonitor@@@std@@@std@@$0A@@?$unique_ptr@V?$tuple@P6AXPAX@ZPAVCPerfMonitor@@@std@@U?$default_delete@V?$tuple@P6AXPAX@ZPAVCPerfMonitor@@@std@@@2@@std@@QAE@PAV?$tuple@P6AXPAX@ZPAVCPerfMonitor@@@1@@Z ENDP ; std::unique_ptr<std::tuple<void (__cdecl*)(void *),CPerfMonitor *>,std::default_delete<std::tuple<void (__cdecl*)(void *),CPerfMonitor *> > >::unique_ptr<std::tuple<void (__cdecl*)(void *),CPerfMonitor *>,std::default_delete<std::tuple<void (__cdecl*)(void *),CPerfMonitor *> > ><std::default_delete<std::tuple<void (__cdecl*)(void *),CPerfMonitor *> >,0>
; Function compile flags: /Odtp /RTCsu
; File C:\Program Files (x86)\Microsoft Visual Studio\2019\Community\VC\Tools\MSVC\14.23.28105\include\tuple
;	COMDAT ??$?0A6AXPAX@ZPAVCPerfMonitor@@$0A@@?$tuple@P6AXPAX@ZPAVCPerfMonitor@@@std@@QAE@A6AXPAX@Z$$QAPAVCPerfMonitor@@@Z
_TEXT	SEGMENT
$T2 = -17						; size = 1
_this$ = -16						; size = 4
__$EHRec$ = -12						; size = 12
__This_arg$ = 8						; size = 4
_<_Rest_arg_0>$ = 12					; size = 4
??$?0A6AXPAX@ZPAVCPerfMonitor@@$0A@@?$tuple@P6AXPAX@ZPAVCPerfMonitor@@@std@@QAE@A6AXPAX@Z$$QAPAVCPerfMonitor@@@Z PROC ; std::tuple<void (__cdecl*)(void *),CPerfMonitor *>::tuple<void (__cdecl*)(void *),CPerfMonitor *><void (__cdecl&)(void *),CPerfMonitor *,0>, COMDAT
; _this$ = ecx

; 310  :         : tuple(_Exact_args_t{}, _STD forward<_This2>(_This_arg), _STD forward<_Rest2>(_Rest_arg)...) {}

  00000	55		 push	 ebp
  00001	8b ec		 mov	 ebp, esp
  00003	6a ff		 push	 -1
  00005	68 00 00 00 00	 push	 __ehhandler$??$?0A6AXPAX@ZPAVCPerfMonitor@@$0A@@?$tuple@P6AXPAX@ZPAVCPerfMonitor@@@std@@QAE@A6AXPAX@Z$$QAPAVCPerfMonitor@@@Z
  0000a	64 a1 00 00 00
	00		 mov	 eax, DWORD PTR fs:0
  00010	50		 push	 eax
  00011	83 ec 08	 sub	 esp, 8
  00014	c7 45 ec cc cc
	cc cc		 mov	 DWORD PTR [ebp-20], -858993460 ; ccccccccH
  0001b	c7 45 f0 cc cc
	cc cc		 mov	 DWORD PTR [ebp-16], -858993460 ; ccccccccH
  00022	a1 00 00 00 00	 mov	 eax, DWORD PTR ___security_cookie
  00027	33 c5		 xor	 eax, ebp
  00029	50		 push	 eax
  0002a	8d 45 f4	 lea	 eax, DWORD PTR __$EHRec$[ebp]
  0002d	64 a3 00 00 00
	00		 mov	 DWORD PTR fs:0, eax
  00033	89 4d f0	 mov	 DWORD PTR _this$[ebp], ecx
  00036	33 c0		 xor	 eax, eax
  00038	88 45 ef	 mov	 BYTE PTR $T2[ebp], al
  0003b	8b 4d 0c	 mov	 ecx, DWORD PTR _<_Rest_arg_0>$[ebp]
  0003e	51		 push	 ecx
  0003f	e8 00 00 00 00	 call	 ??$forward@PAVCPerfMonitor@@@std@@YA$$QAPAVCPerfMonitor@@AAPAV1@@Z ; std::forward<CPerfMonitor *>
  00044	83 c4 04	 add	 esp, 4
  00047	50		 push	 eax
  00048	8b 55 08	 mov	 edx, DWORD PTR __This_arg$[ebp]
  0004b	52		 push	 edx
  0004c	e8 00 00 00 00	 call	 ??$forward@A6AXPAX@Z@std@@YAA6AXPAX@ZA6AX0@Z@Z ; std::forward<void (__cdecl&)(void *)>
  00051	83 c4 04	 add	 esp, 4
  00054	50		 push	 eax
  00055	0f b6 45 ef	 movzx	 eax, BYTE PTR $T2[ebp]
  00059	50		 push	 eax
  0005a	8b 4d f0	 mov	 ecx, DWORD PTR _this$[ebp]
  0005d	e8 00 00 00 00	 call	 ??$?0U_Exact_args_t@std@@A6AXPAX@ZPAVCPerfMonitor@@$0A@@?$tuple@P6AXPAX@ZPAVCPerfMonitor@@@std@@QAE@U_Exact_args_t@1@A6AXPAX@Z$$QAPAVCPerfMonitor@@@Z ; std::tuple<void (__cdecl*)(void *),CPerfMonitor *>::tuple<void (__cdecl*)(void *),CPerfMonitor *><std::_Exact_args_t,void (__cdecl&)(void *),CPerfMonitor *,0>
  00062	8b 45 f0	 mov	 eax, DWORD PTR _this$[ebp]
  00065	8b 4d f4	 mov	 ecx, DWORD PTR __$EHRec$[ebp]
  00068	64 89 0d 00 00
	00 00		 mov	 DWORD PTR fs:0, ecx
  0006f	59		 pop	 ecx
  00070	83 c4 14	 add	 esp, 20			; 00000014H
  00073	3b ec		 cmp	 ebp, esp
  00075	e8 00 00 00 00	 call	 __RTC_CheckEsp
  0007a	8b e5		 mov	 esp, ebp
  0007c	5d		 pop	 ebp
  0007d	c2 08 00	 ret	 8
_TEXT	ENDS
;	COMDAT text$x
text$x	SEGMENT
__ehhandler$??$?0A6AXPAX@ZPAVCPerfMonitor@@$0A@@?$tuple@P6AXPAX@ZPAVCPerfMonitor@@@std@@QAE@A6AXPAX@Z$$QAPAVCPerfMonitor@@@Z:
  00000	8b 54 24 08	 mov	 edx, DWORD PTR [esp+8]
  00004	8d 42 0c	 lea	 eax, DWORD PTR [edx+12]
  00007	8b 4a f4	 mov	 ecx, DWORD PTR [edx-12]
  0000a	33 c8		 xor	 ecx, eax
  0000c	e8 00 00 00 00	 call	 @__security_check_cookie@4
  00011	b8 00 00 00 00	 mov	 eax, OFFSET __ehfuncinfo$??$?0A6AXPAX@ZPAVCPerfMonitor@@$0A@@?$tuple@P6AXPAX@ZPAVCPerfMonitor@@@std@@QAE@A6AXPAX@Z$$QAPAVCPerfMonitor@@@Z
  00016	e9 00 00 00 00	 jmp	 ___CxxFrameHandler3
text$x	ENDS
??$?0A6AXPAX@ZPAVCPerfMonitor@@$0A@@?$tuple@P6AXPAX@ZPAVCPerfMonitor@@@std@@QAE@A6AXPAX@Z$$QAPAVCPerfMonitor@@@Z ENDP ; std::tuple<void (__cdecl*)(void *),CPerfMonitor *>::tuple<void (__cdecl*)(void *),CPerfMonitor *><void (__cdecl&)(void *),CPerfMonitor *,0>
; Function compile flags: /Odtp /RTCsu
; File C:\Program Files (x86)\Microsoft Visual Studio\2019\Community\VC\Tools\MSVC\14.23.28105\include\type_traits
;	COMDAT ??$forward@AAPAVRGYPipeProcess@@@std@@YAAAPAVRGYPipeProcess@@AAPAV1@@Z
_TEXT	SEGMENT
__Arg$ = 8						; size = 4
??$forward@AAPAVRGYPipeProcess@@@std@@YAAAPAVRGYPipeProcess@@AAPAV1@@Z PROC ; std::forward<RGYPipeProcess * &>, COMDAT

; 1420 :     remove_reference_t<_Ty>& _Arg) noexcept { // forward an lvalue as either an lvalue or an rvalue

  00000	55		 push	 ebp
  00001	8b ec		 mov	 ebp, esp

; 1421 :     return static_cast<_Ty&&>(_Arg);

  00003	8b 45 08	 mov	 eax, DWORD PTR __Arg$[ebp]

; 1422 : }

  00006	5d		 pop	 ebp
  00007	c3		 ret	 0
??$forward@AAPAVRGYPipeProcess@@@std@@YAAAPAVRGYPipeProcess@@AAPAV1@@Z ENDP ; std::forward<RGYPipeProcess * &>
_TEXT	ENDS
; Function compile flags: /Odtp /RTCsu
; File C:\Program Files (x86)\Microsoft Visual Studio\2019\Community\VC\Tools\MSVC\14.23.28105\include\type_traits
;	COMDAT ??$forward@AAPAU_iobuf@@@std@@YAAAPAU_iobuf@@AAPAU1@@Z
_TEXT	SEGMENT
__Arg$ = 8						; size = 4
??$forward@AAPAU_iobuf@@@std@@YAAAPAU_iobuf@@AAPAU1@@Z PROC ; std::forward<_iobuf * &>, COMDAT

; 1420 :     remove_reference_t<_Ty>& _Arg) noexcept { // forward an lvalue as either an lvalue or an rvalue

  00000	55		 push	 ebp
  00001	8b ec		 mov	 ebp, esp

; 1421 :     return static_cast<_Ty&&>(_Arg);

  00003	8b 45 08	 mov	 eax, DWORD PTR __Arg$[ebp]

; 1422 : }

  00006	5d		 pop	 ebp
  00007	c3		 ret	 0
??$forward@AAPAU_iobuf@@@std@@YAAAPAU_iobuf@@AAPAU1@@Z ENDP ; std::forward<_iobuf * &>
_TEXT	ENDS
; Function compile flags: /Odtp /RTCsu
; File C:\Program Files (x86)\Microsoft Visual Studio\2019\Community\VC\Tools\MSVC\14.23.28105\include\chrono
;	COMDAT ??$_To_xtime_10_day_clamped@_JU?$ratio@$00$0DLJKMKAA@@std@@@std@@YA_NAAUxtime@@ABV?$duration@_JU?$ratio@$00$0DLJKMKAA@@std@@@chrono@0@@Z
_TEXT	SEGMENT
$T1 = -100						; size = 8
$T2 = -92						; size = 8
$T3 = -84						; size = 8
$T4 = -76						; size = 8
__Whole_seconds$ = -64					; size = 8
__Clamped$ = -49					; size = 1
__T0$ = -44						; size = 8
__Ten_days_d$ = -28					; size = 8
__Ten_days$ = -12					; size = 8
__Xt$ = 8						; size = 4
__Rel_time$ = 12					; size = 4
??$_To_xtime_10_day_clamped@_JU?$ratio@$00$0DLJKMKAA@@std@@@std@@YA_NAAUxtime@@ABV?$duration@_JU?$ratio@$00$0DLJKMKAA@@std@@@chrono@0@@Z PROC ; std::_To_xtime_10_day_clamped<__int64,std::ratio<1,1000000000> >, COMDAT

; 663  :     _NOEXCEPT_COND(is_arithmetic_v<_Rep>) { // strengthened

  00000	55		 push	 ebp
  00001	8b ec		 mov	 ebp, esp
  00003	83 ec 64	 sub	 esp, 100		; 00000064H
  00006	57		 push	 edi
  00007	8d 7d 9c	 lea	 edi, DWORD PTR [ebp-100]
  0000a	b9 19 00 00 00	 mov	 ecx, 25			; 00000019H
  0000f	b8 cc cc cc cc	 mov	 eax, -858993460		; ccccccccH
  00014	f3 ab		 rep stosd

; 664  :     // Convert duration to xtime, maximum 10 days from now, returns whether clamping occurred.
; 665  :     // If clamped, timeouts will be transformed into spurious non-timeout wakes, due to ABI restrictions where
; 666  :     // the other side of the DLL boundary overflows int32_t milliseconds.
; 667  :     // Every function calling this one is TRANSITION, ABI
; 668  :     constexpr chrono::nanoseconds _Ten_days{chrono::hours{24} * 10};

  00016	c7 45 f4 00 00
	16 ad		 mov	 DWORD PTR __Ten_days$[ebp], -1391067136 ; ad160000H
  0001d	c7 45 f8 cd 11
	03 00		 mov	 DWORD PTR __Ten_days$[ebp+4], 201165 ; 000311cdH

; 669  :     constexpr chrono::duration<double> _Ten_days_d{_Ten_days};

  00024	f2 0f 10 05 00
	00 00 00	 movsd	 xmm0, QWORD PTR __real@412a5e0000000000
  0002c	f2 0f 11 45 e4	 movsd	 QWORD PTR __Ten_days_d$[ebp], xmm0

; 670  :     chrono::nanoseconds _T0 = chrono::system_clock::now().time_since_epoch();

  00031	8d 45 ac	 lea	 eax, DWORD PTR $T3[ebp]
  00034	50		 push	 eax
  00035	8d 4d b4	 lea	 ecx, DWORD PTR $T4[ebp]
  00038	51		 push	 ecx
  00039	e8 00 00 00 00	 call	 ?now@system_clock@chrono@std@@SA?AV?$time_point@Usystem_clock@chrono@std@@V?$duration@_JU?$ratio@$00$0JIJGIA@@std@@@23@@23@XZ ; std::chrono::system_clock::now
  0003e	83 c4 04	 add	 esp, 4
  00041	8b c8		 mov	 ecx, eax
  00043	e8 00 00 00 00	 call	 ?time_since_epoch@?$time_point@Usystem_clock@chrono@std@@V?$duration@_JU?$ratio@$00$0JIJGIA@@std@@@23@@chrono@std@@QBE?AV?$duration@_JU?$ratio@$00$0JIJGIA@@std@@@23@XZ ; std::chrono::time_point<std::chrono::system_clock,std::chrono::duration<__int64,std::ratio<1,10000000> > >::time_since_epoch
  00048	50		 push	 eax
  00049	8d 4d d4	 lea	 ecx, DWORD PTR __T0$[ebp]
  0004c	e8 00 00 00 00	 call	 ??$?0_JU?$ratio@$00$0JIJGIA@@std@@X@?$duration@_JU?$ratio@$00$0DLJKMKAA@@std@@@chrono@std@@QAE@ABV?$duration@_JU?$ratio@$00$0JIJGIA@@std@@@12@@Z ; std::chrono::duration<__int64,std::ratio<1,1000000000> >::duration<__int64,std::ratio<1,1000000000> ><__int64,std::ratio<1,10000000>,void>

; 671  :     const bool _Clamped     = _Ten_days_d < _Rel_time;

  00051	8b 55 0c	 mov	 edx, DWORD PTR __Rel_time$[ebp]
  00054	52		 push	 edx
  00055	8d 45 e4	 lea	 eax, DWORD PTR __Ten_days_d$[ebp]
  00058	50		 push	 eax
  00059	e8 00 00 00 00	 call	 ??$?MNU?$ratio@$00$00@std@@_JU?$ratio@$00$0DLJKMKAA@@1@@chrono@std@@YA_NABV?$duration@NU?$ratio@$00$00@std@@@01@ABV?$duration@_JU?$ratio@$00$0DLJKMKAA@@std@@@01@@Z ; std::chrono::operator<<double,std::ratio<1,1>,__int64,std::ratio<1,1000000000> >
  0005e	83 c4 08	 add	 esp, 8
  00061	88 45 cf	 mov	 BYTE PTR __Clamped$[ebp], al

; 672  :     if (_Clamped) {

  00064	0f b6 4d cf	 movzx	 ecx, BYTE PTR __Clamped$[ebp]
  00068	85 c9		 test	 ecx, ecx
  0006a	74 0e		 je	 SHORT $LN2@To_xtime_1

; 673  :         _T0 += _Ten_days;

  0006c	8d 55 f4	 lea	 edx, DWORD PTR __Ten_days$[ebp]
  0006f	52		 push	 edx
  00070	8d 4d d4	 lea	 ecx, DWORD PTR __T0$[ebp]
  00073	e8 00 00 00 00	 call	 ??Y?$duration@_JU?$ratio@$00$0DLJKMKAA@@std@@@chrono@std@@QAEAAV012@ABV012@@Z ; std::chrono::duration<__int64,std::ratio<1,1000000000> >::operator+=

; 674  :     } else {

  00078	eb 19		 jmp	 SHORT $LN3@To_xtime_1
$LN2@To_xtime_1:

; 675  :         _T0 += chrono::duration_cast<chrono::nanoseconds>(_Rel_time);

  0007a	8b 45 0c	 mov	 eax, DWORD PTR __Rel_time$[ebp]
  0007d	50		 push	 eax
  0007e	8d 4d a4	 lea	 ecx, DWORD PTR $T2[ebp]
  00081	51		 push	 ecx
  00082	e8 00 00 00 00	 call	 ??$duration_cast@V?$duration@_JU?$ratio@$00$0DLJKMKAA@@std@@@chrono@std@@_JU?$ratio@$00$0DLJKMKAA@@3@X@chrono@std@@YA?AV?$duration@_JU?$ratio@$00$0DLJKMKAA@@std@@@01@ABV201@@Z ; std::chrono::duration_cast<std::chrono::duration<__int64,std::ratio<1,1000000000> >,__int64,std::ratio<1,1000000000>,void>
  00087	83 c4 08	 add	 esp, 8
  0008a	50		 push	 eax
  0008b	8d 4d d4	 lea	 ecx, DWORD PTR __T0$[ebp]
  0008e	e8 00 00 00 00	 call	 ??Y?$duration@_JU?$ratio@$00$0DLJKMKAA@@std@@@chrono@std@@QAEAAV012@ABV012@@Z ; std::chrono::duration<__int64,std::ratio<1,1000000000> >::operator+=
$LN3@To_xtime_1:

; 676  :     }
; 677  : 
; 678  :     const auto _Whole_seconds = chrono::duration_cast<chrono::seconds>(_T0);

  00093	8d 55 d4	 lea	 edx, DWORD PTR __T0$[ebp]
  00096	52		 push	 edx
  00097	8d 45 c0	 lea	 eax, DWORD PTR __Whole_seconds$[ebp]
  0009a	50		 push	 eax
  0009b	e8 00 00 00 00	 call	 ??$duration_cast@V?$duration@_JU?$ratio@$00$00@std@@@chrono@std@@_JU?$ratio@$00$0DLJKMKAA@@3@X@chrono@std@@YA?AV?$duration@_JU?$ratio@$00$00@std@@@01@ABV?$duration@_JU?$ratio@$00$0DLJKMKAA@@std@@@01@@Z ; std::chrono::duration_cast<std::chrono::duration<__int64,std::ratio<1,1> >,__int64,std::ratio<1,1000000000>,void>
  000a0	83 c4 08	 add	 esp, 8

; 679  :     _Xt.sec                   = _Whole_seconds.count();

  000a3	8d 4d c0	 lea	 ecx, DWORD PTR __Whole_seconds$[ebp]
  000a6	e8 00 00 00 00	 call	 ?count@?$duration@_JU?$ratio@$00$00@std@@@chrono@std@@QBE_JXZ ; std::chrono::duration<__int64,std::ratio<1,1> >::count
  000ab	8b 4d 08	 mov	 ecx, DWORD PTR __Xt$[ebp]
  000ae	89 01		 mov	 DWORD PTR [ecx], eax
  000b0	89 51 04	 mov	 DWORD PTR [ecx+4], edx

; 680  :     _T0 -= _Whole_seconds;

  000b3	8d 55 c0	 lea	 edx, DWORD PTR __Whole_seconds$[ebp]
  000b6	52		 push	 edx
  000b7	8d 4d 9c	 lea	 ecx, DWORD PTR $T1[ebp]
  000ba	e8 00 00 00 00	 call	 ??$?0_JU?$ratio@$00$00@std@@X@?$duration@_JU?$ratio@$00$0DLJKMKAA@@std@@@chrono@std@@QAE@ABV?$duration@_JU?$ratio@$00$00@std@@@12@@Z ; std::chrono::duration<__int64,std::ratio<1,1000000000> >::duration<__int64,std::ratio<1,1000000000> ><__int64,std::ratio<1,1>,void>
  000bf	8d 45 9c	 lea	 eax, DWORD PTR $T1[ebp]
  000c2	50		 push	 eax
  000c3	8d 4d d4	 lea	 ecx, DWORD PTR __T0$[ebp]
  000c6	e8 00 00 00 00	 call	 ??Z?$duration@_JU?$ratio@$00$0DLJKMKAA@@std@@@chrono@std@@QAEAAV012@ABV012@@Z ; std::chrono::duration<__int64,std::ratio<1,1000000000> >::operator-=

; 681  :     _Xt.nsec = static_cast<long>(_T0.count());

  000cb	8d 4d d4	 lea	 ecx, DWORD PTR __T0$[ebp]
  000ce	e8 00 00 00 00	 call	 ?count@?$duration@_JU?$ratio@$00$0DLJKMKAA@@std@@@chrono@std@@QBE_JXZ ; std::chrono::duration<__int64,std::ratio<1,1000000000> >::count
  000d3	8b 4d 08	 mov	 ecx, DWORD PTR __Xt$[ebp]
  000d6	89 41 08	 mov	 DWORD PTR [ecx+8], eax

; 682  :     return _Clamped;

  000d9	8a 45 cf	 mov	 al, BYTE PTR __Clamped$[ebp]

; 683  : }

  000dc	52		 push	 edx
  000dd	8b cd		 mov	 ecx, ebp
  000df	50		 push	 eax
  000e0	8d 15 00 00 00
	00		 lea	 edx, DWORD PTR $LN10@To_xtime_1
  000e6	e8 00 00 00 00	 call	 @_RTC_CheckStackVars@8
  000eb	58		 pop	 eax
  000ec	5a		 pop	 edx
  000ed	5f		 pop	 edi
  000ee	83 c4 64	 add	 esp, 100		; 00000064H
  000f1	3b ec		 cmp	 ebp, esp
  000f3	e8 00 00 00 00	 call	 __RTC_CheckEsp
  000f8	8b e5		 mov	 esp, ebp
  000fa	5d		 pop	 ebp
  000fb	c3		 ret	 0
$LN10@To_xtime_1:
  000fc	04 00 00 00	 DD	 4
  00100	00 00 00 00	 DD	 $LN9@To_xtime_1
$LN9@To_xtime_1:
  00104	f4 ff ff ff	 DD	 -12			; fffffff4H
  00108	08 00 00 00	 DD	 8
  0010c	00 00 00 00	 DD	 $LN5@To_xtime_1
  00110	e4 ff ff ff	 DD	 -28			; ffffffe4H
  00114	08 00 00 00	 DD	 8
  00118	00 00 00 00	 DD	 $LN6@To_xtime_1
  0011c	d4 ff ff ff	 DD	 -44			; ffffffd4H
  00120	08 00 00 00	 DD	 8
  00124	00 00 00 00	 DD	 $LN7@To_xtime_1
  00128	c0 ff ff ff	 DD	 -64			; ffffffc0H
  0012c	08 00 00 00	 DD	 8
  00130	00 00 00 00	 DD	 $LN8@To_xtime_1
$LN8@To_xtime_1:
  00134	5f		 DB	 95			; 0000005fH
  00135	57		 DB	 87			; 00000057H
  00136	68		 DB	 104			; 00000068H
  00137	6f		 DB	 111			; 0000006fH
  00138	6c		 DB	 108			; 0000006cH
  00139	65		 DB	 101			; 00000065H
  0013a	5f		 DB	 95			; 0000005fH
  0013b	73		 DB	 115			; 00000073H
  0013c	65		 DB	 101			; 00000065H
  0013d	63		 DB	 99			; 00000063H
  0013e	6f		 DB	 111			; 0000006fH
  0013f	6e		 DB	 110			; 0000006eH
  00140	64		 DB	 100			; 00000064H
  00141	73		 DB	 115			; 00000073H
  00142	00		 DB	 0
$LN7@To_xtime_1:
  00143	5f		 DB	 95			; 0000005fH
  00144	54		 DB	 84			; 00000054H
  00145	30		 DB	 48			; 00000030H
  00146	00		 DB	 0
$LN6@To_xtime_1:
  00147	5f		 DB	 95			; 0000005fH
  00148	54		 DB	 84			; 00000054H
  00149	65		 DB	 101			; 00000065H
  0014a	6e		 DB	 110			; 0000006eH
  0014b	5f		 DB	 95			; 0000005fH
  0014c	64		 DB	 100			; 00000064H
  0014d	61		 DB	 97			; 00000061H
  0014e	79		 DB	 121			; 00000079H
  0014f	73		 DB	 115			; 00000073H
  00150	5f		 DB	 95			; 0000005fH
  00151	64		 DB	 100			; 00000064H
  00152	00		 DB	 0
$LN5@To_xtime_1:
  00153	5f		 DB	 95			; 0000005fH
  00154	54		 DB	 84			; 00000054H
  00155	65		 DB	 101			; 00000065H
  00156	6e		 DB	 110			; 0000006eH
  00157	5f		 DB	 95			; 0000005fH
  00158	64		 DB	 100			; 00000064H
  00159	61		 DB	 97			; 00000061H
  0015a	79		 DB	 121			; 00000079H
  0015b	73		 DB	 115			; 00000073H
  0015c	00		 DB	 0
??$_To_xtime_10_day_clamped@_JU?$ratio@$00$0DLJKMKAA@@std@@@std@@YA_NAAUxtime@@ABV?$duration@_JU?$ratio@$00$0DLJKMKAA@@std@@@chrono@0@@Z ENDP ; std::_To_xtime_10_day_clamped<__int64,std::ratio<1,1000000000> >
_TEXT	ENDS
; Function compile flags: /Odtp /RTCsu
; File C:\Program Files (x86)\Microsoft Visual Studio\2019\Community\VC\Tools\MSVC\14.23.28105\include\chrono
;	COMDAT ??$?NUsteady_clock@chrono@std@@V?$duration@_JU?$ratio@$00$0DLJKMKAA@@std@@@12@V312@@chrono@std@@YA_NABV?$time_point@Usteady_clock@chrono@std@@V?$duration@_JU?$ratio@$00$0DLJKMKAA@@std@@@23@@01@0@Z
_TEXT	SEGMENT
tv69 = -4						; size = 4
__Left$ = 8						; size = 4
__Right$ = 12						; size = 4
??$?NUsteady_clock@chrono@std@@V?$duration@_JU?$ratio@$00$0DLJKMKAA@@std@@@12@V312@@chrono@std@@YA_NABV?$time_point@Usteady_clock@chrono@std@@V?$duration@_JU?$ratio@$00$0DLJKMKAA@@std@@@23@@01@0@Z PROC ; std::chrono::operator<=<std::chrono::steady_clock,std::chrono::duration<__int64,std::ratio<1,1000000000> >,std::chrono::duration<__int64,std::ratio<1,1000000000> > >, COMDAT

; 561  :             is_arithmetic_v<typename _Duration1::rep>&& is_arithmetic_v<typename _Duration2::rep>) { // strengthened

  00000	55		 push	 ebp
  00001	8b ec		 mov	 ebp, esp
  00003	51		 push	 ecx
  00004	c7 45 fc cc cc
	cc cc		 mov	 DWORD PTR [ebp-4], -858993460 ; ccccccccH

