; Listing generated by Microsoft (R) Optimizing Compiler Version 19.23.28106.4 

include listing.inc

INCLUDELIB MSVCRTD
INCLUDELIB OLDNAMES

PUBLIC	CLSID_Registrar
PUBLIC	IID_IRegistrar
PUBLIC	IID_IDocHostUIHandlerDispatch
PUBLIC	IID_IAxWinHostWindow
PUBLIC	IID_IAxWinHostWindowLic
PUBLIC	IID_IAxWinAmbientDispatch
PUBLIC	IID_IAxWinAmbientDispatchEx
PUBLIC	IID_IInternalConnection
PUBLIC	LIBID_ATLLib
PUBLIC	__pobjMapEntryFirst
PUBLIC	__pobjMapEntryLast
PUBLIC	?_pPerfRegFunc@ATL@@3P6AJPEAUHINSTANCE__@@@ZEA	; ATL::_pPerfRegFunc
PUBLIC	?_pPerfUnRegFunc@ATL@@3P6AJXZEA			; ATL::_pPerfUnRegFunc
PUBLIC	?_AtlRegisterPerUser@ATL@@3_NA			; ATL::_AtlRegisterPerUser
PUBLIC	?_pAtlModule@ATL@@3PEAVCAtlModule@1@EA		; ATL::_pAtlModule
PUBLIC	?_pModule@ATL@@3PEAVCComModule@1@EA		; ATL::_pModule
PUBLIC	?_pAtlAutoThreadModule@ATL@@3PEAUIAtlAutoThreadModule@1@EA ; ATL::_pAtlAutoThreadModule
PUBLIC	?chDirSep@ATL@@3DB				; ATL::chDirSep
PUBLIC	?chRightBracket@ATL@@3DB			; ATL::chRightBracket
PUBLIC	?chLeftBracket@ATL@@3DB				; ATL::chLeftBracket
PUBLIC	?chQuote@ATL@@3DB				; ATL::chQuote
PUBLIC	?chEquals@ATL@@3DB				; ATL::chEquals
PUBLIC	?szStringVal@ATL@@3QEBDEB			; ATL::szStringVal
PUBLIC	?multiszStringVal@ATL@@3QEBDEB			; ATL::multiszStringVal
PUBLIC	?szDwordVal@ATL@@3QEBDEB			; ATL::szDwordVal
PUBLIC	?szBinaryVal@ATL@@3QEBDEB			; ATL::szBinaryVal
PUBLIC	?szValToken@ATL@@3QEBDEB			; ATL::szValToken
PUBLIC	?szForceRemove@ATL@@3QEBDEB			; ATL::szForceRemove
PUBLIC	?szNoRemove@ATL@@3QEBDEB			; ATL::szNoRemove
PUBLIC	?szDelete@ATL@@3QEBDEB				; ATL::szDelete
;	COMDAT ?_pPerfRegFunc@ATL@@3P6AJPEAUHINSTANCE__@@@ZEA
_BSS	SEGMENT
?_pPerfRegFunc@ATL@@3P6AJPEAUHINSTANCE__@@@ZEA DQ 01H DUP (?) ; ATL::_pPerfRegFunc
_BSS	ENDS
;	COMDAT ?_pPerfUnRegFunc@ATL@@3P6AJXZEA
_BSS	SEGMENT
?_pPerfUnRegFunc@ATL@@3P6AJXZEA DQ 01H DUP (?)		; ATL::_pPerfUnRegFunc
_BSS	ENDS
;	COMDAT ?_AtlRegisterPerUser@ATL@@3_NA
_BSS	SEGMENT
?_AtlRegisterPerUser@ATL@@3_NA DB 01H DUP (?)		; ATL::_AtlRegisterPerUser
_BSS	ENDS
;	COMDAT ?_pAtlModule@ATL@@3PEAVCAtlModule@1@EA
_BSS	SEGMENT
?_pAtlModule@ATL@@3PEAVCAtlModule@1@EA DQ 01H DUP (?)	; ATL::_pAtlModule
_BSS	ENDS
;	COMDAT ?_pModule@ATL@@3PEAVCComModule@1@EA
_BSS	SEGMENT
?_pModule@ATL@@3PEAVCComModule@1@EA DQ 01H DUP (?)	; ATL::_pModule
_BSS	ENDS
;	COMDAT ?_pAtlAutoThreadModule@ATL@@3PEAUIAtlAutoThreadModule@1@EA
_BSS	SEGMENT
?_pAtlAutoThreadModule@ATL@@3PEAUIAtlAutoThreadModule@1@EA DQ 01H DUP (?) ; ATL::_pAtlAutoThreadModule
_BSS	ENDS
;	COMDAT ?szDelete@ATL@@3QEBDEB
CONST	SEGMENT
?szDelete@ATL@@3QEBDEB DQ FLAT:$SG138348		; ATL::szDelete
CONST	ENDS
;	COMDAT ?szNoRemove@ATL@@3QEBDEB
CONST	SEGMENT
?szNoRemove@ATL@@3QEBDEB DQ FLAT:$SG138346		; ATL::szNoRemove
CONST	ENDS
;	COMDAT ?szForceRemove@ATL@@3QEBDEB
CONST	SEGMENT
?szForceRemove@ATL@@3QEBDEB DQ FLAT:$SG138344		; ATL::szForceRemove
CONST	ENDS
;	COMDAT ?szValToken@ATL@@3QEBDEB
CONST	SEGMENT
?szValToken@ATL@@3QEBDEB DQ FLAT:$SG138342		; ATL::szValToken
CONST	ENDS
;	COMDAT ?szBinaryVal@ATL@@3QEBDEB
CONST	SEGMENT
?szBinaryVal@ATL@@3QEBDEB DQ FLAT:$SG138340		; ATL::szBinaryVal
CONST	ENDS
;	COMDAT ?szDwordVal@ATL@@3QEBDEB
CONST	SEGMENT
?szDwordVal@ATL@@3QEBDEB DQ FLAT:$SG138338		; ATL::szDwordVal
CONST	ENDS
;	COMDAT ?multiszStringVal@ATL@@3QEBDEB
CONST	SEGMENT
?multiszStringVal@ATL@@3QEBDEB DQ FLAT:$SG138336	; ATL::multiszStringVal
CONST	ENDS
;	COMDAT ?szStringVal@ATL@@3QEBDEB
CONST	SEGMENT
?szStringVal@ATL@@3QEBDEB DQ FLAT:$SG138334		; ATL::szStringVal
CONST	ENDS
;	COMDAT ?chEquals@ATL@@3DB
CONST	SEGMENT
?chEquals@ATL@@3DB DB 03dH				; ATL::chEquals
CONST	ENDS
;	COMDAT ?chQuote@ATL@@3DB
CONST	SEGMENT
?chQuote@ATL@@3DB DB 027H				; ATL::chQuote
CONST	ENDS
;	COMDAT ?chLeftBracket@ATL@@3DB
CONST	SEGMENT
?chLeftBracket@ATL@@3DB DB 07bH				; ATL::chLeftBracket
CONST	ENDS
;	COMDAT ?chRightBracket@ATL@@3DB
CONST	SEGMENT
?chRightBracket@ATL@@3DB DB 07dH			; ATL::chRightBracket
CONST	ENDS
;	COMDAT ?chDirSep@ATL@@3DB
CONST	SEGMENT
?chDirSep@ATL@@3DB DB 05cH				; ATL::chDirSep
CONST	ENDS
;	COMDAT __pobjMapEntryLast
ATL$__z	SEGMENT
__pobjMapEntryLast DQ 0000000000000000H
ATL$__z	ENDS
;	COMDAT __pobjMapEntryFirst
ATL$__a	SEGMENT
__pobjMapEntryFirst DQ 0000000000000000H
ATL$__a	ENDS
;	COMDAT LIBID_ATLLib
CONST	SEGMENT
LIBID_ATLLib DD	044ec0535H
	DW	0400fH
	DW	011d0H
	DB	09dH
	DB	0cdH
	DB	00H
	DB	0a0H
	DB	0c9H
	DB	03H
	DB	091H
	DB	0d3H
CONST	ENDS
;	COMDAT IID_IInternalConnection
CONST	SEGMENT
IID_IInternalConnection DD 072ad0770H
	DW	06a9fH
	DW	011d1H
	DB	0bcH
	DB	0ecH
	DB	00H
	DB	060H
	DB	08H
	DB	08fH
	DB	044H
	DB	04eH
CONST	ENDS
;	COMDAT IID_IAxWinAmbientDispatchEx
CONST	SEGMENT
IID_IAxWinAmbientDispatchEx DD 0b2d0778bH
	DW	0ac99H
	DW	04c58H
	DB	0a5H
	DB	0c8H
	DB	0e7H
	DB	072H
	DB	04eH
	DB	053H
	DB	016H
	DB	0b5H
CONST	ENDS
;	COMDAT IID_IAxWinAmbientDispatch
CONST	SEGMENT
IID_IAxWinAmbientDispatch DD 0b6ea2051H
	DW	048aH
	DW	011d1H
	DB	082H
	DB	0b9H
	DB	00H
	DB	0c0H
	DB	04fH
	DB	0b9H
	DB	094H
	DB	02eH
CONST	ENDS
;	COMDAT IID_IAxWinHostWindowLic
CONST	SEGMENT
IID_IAxWinHostWindowLic DD 03935bda8H
	DW	04ed9H
	DW	0495cH
	DB	086H
	DB	050H
	DB	0e0H
	DB	01fH
	DB	0c1H
	DB	0e3H
	DB	08aH
	DB	04bH
CONST	ENDS
;	COMDAT IID_IAxWinHostWindow
CONST	SEGMENT
IID_IAxWinHostWindow DD 0b6ea2050H
	DW	048aH
	DW	011d1H
	DB	082H
	DB	0b9H
	DB	00H
	DB	0c0H
	DB	04fH
	DB	0b9H
	DB	094H
	DB	02eH
CONST	ENDS
;	COMDAT IID_IDocHostUIHandlerDispatch
CONST	SEGMENT
IID_IDocHostUIHandlerDispatch DD 0425b5af0H
	DW	065f1H
	DW	011d1H
	DB	096H
	DB	011H
	DB	00H
	DB	00H
	DB	0f8H
	DB	01eH
	DB	0dH
	DB	0dH
CONST	ENDS
;	COMDAT IID_IRegistrar
CONST	SEGMENT
IID_IRegistrar DD 044ec053bH
	DW	0400fH
	DW	011d0H
	DB	09dH
	DB	0cdH
	DB	00H
	DB	0a0H
	DB	0c9H
	DB	03H
	DB	091H
	DB	0d3H
CONST	ENDS
;	COMDAT CLSID_Registrar
CONST	SEGMENT
CLSID_Registrar DD 044ec053aH
	DW	0400fH
	DW	011d0H
	DB	09dH
	DB	0cdH
	DB	00H
	DB	0a0H
	DB	0c9H
	DB	03H
	DB	091H
	DB	0d3H
CONST	ENDS
CONST	SEGMENT
$SG123109 DB	00H
$SG181669 DB	00H
$SG181671 DB	00H
$SG176263 DB	00H
$SG114957 DB	'VP8', 00H
$SG123110 DB	'SandyBridge', 00H
$SG114959 DB	'VP9', 00H
$SG123111 DB	'IvyBridge', 00H
$SG177736 DB	00H
$SG177740 DB	00H
$SG180943 DB	'a', 00H
$SG177743 DB	00H
?piecewise_construct@std@@3Upiecewise_construct_t@1@B	ORG $+1 ; std::piecewise_construct
$SG123112 DB	'Silvermont', 00H
	ORG $+5
$SG123113 DB	'Haswell', 00H
$SG123114 DB	'Airmont', 00H
$SG123115 DB	'Broadwell', 00H
	ORG $+2
$SG180950 DB	'%s', 00H
	ORG $+1
$SG123116 DB	'Skylake', 00H
$SG123117 DB	'Apollolake', 00H
	ORG $+1
$SG180951 DB	'hw', 00H
	ORG $+1
$SG123118 DB	'Kabylake', 00H
	ORG $+3
$SG114949 DB	'MPEG2', 00H
	ORG $+2
$SG180952 DB	'sw', 00H
	ORG $+1
$SG123119 DB	'Geminilake', 00H
	ORG $+1
$SG180953 DB	'x64', 00H
$SG123120 DB	'Coffeelake', 00H
	ORG $+1
$SG180956 DB	0aH, 00H
	ORG $+2
$SG123121 DB	'Cannonlake', 00H
	ORG $+1
$SG180980 DB	0aH, 00H
	ORG $+2
$SG123122 DB	'Icelake', 00H
?LIB_VER_LIST@@3QBTmfxVersion@@B DW 00H			; LIB_VER_LIST
	DW	00H
	DW	00H
	DW	01H
	DW	01H
	DW	01H
	DW	03H
	DW	01H
	DW	04H
	DW	01H
	DW	06H
	DW	01H
	DW	07H
	DW	01H
	DW	08H
	DW	01H
	DW	09H
	DW	01H
	DW	0aH
	DW	01H
	DW	0bH
	DW	01H
	DW	0dH
	DW	01H
	DW	0fH
	DW	01H
	DW	010H
	DW	01H
	DW	011H
	DW	01H
	DW	013H
	DW	01H
	DW	017H
	DW	01H
	DW	01aH
	DW	01H
	DW	01bH
	DW	01H
	DW	00H
	DW	00H
?CODEC_LIST_AUO@@3QBIB DD 020435641H			; CODEC_LIST_AUO
	DD	043564548H
$SG114945 DB	'H.264/AVC', 00H
	ORG $+2
$SG180988 DB	'a', 00H
	ORG $+2
$SG114947 DB	'H.265/HEVC', 00H
	ORG $+1
$SG114951 DB	'MPEG1', 00H
	ORG $+2
$SG114953 DB	'VC-1', 00H
	ORG $+3
$SG114955 DB	'MPEG4', 00H
	ORG $+2
$SG180995 DB	0aH, 00H
	ORG $+2
$SG114961 DB	'unknown', 00H
$SG123211 DB	'CBR  ', 00H
	ORG $+2
$SG123212 DB	'VBR  ', 00H
	ORG $+2
$SG123213 DB	'AVBR ', 00H
	ORG $+2
$SG123214 DB	'QVBR ', 00H
	ORG $+2
$SG123215 DB	'CQP  ', 00H
	ORG $+2
$SG123216 DB	'LA   ', 00H
	ORG $+2
$SG123217 DB	'LAHRD', 00H
	ORG $+2
$SG123218 DB	'ICQ  ', 00H
	ORG $+2
$SG123219 DB	'LAICQ', 00H
	ORG $+2
$SG123220 DB	'VCM  ', 00H
	ORG $+2
$SG123222 DB	'RC mode      ', 00H
	ORG $+2
$SG123223 DB	'10bit depth  ', 00H
	ORG $+2
$SG123224 DB	'Fixed Func   ', 00H
	ORG $+2
$SG123225 DB	'Interlace    ', 00H
	ORG $+2
$SG123226 DB	'VUI info     ', 00H
	ORG $+2
$SG123227 DB	'Trellis      ', 00H
	ORG $+2
$SG123228 DB	'Adaptive_I   ', 00H
	ORG $+2
$SG123229 DB	'Adaptive_B   ', 00H
	ORG $+2
$SG123230 DB	'WeightP      ', 00H
	ORG $+2
$SG123231 DB	'WeightB      ', 00H
	ORG $+2
$SG123232 DB	'FadeDetect   ', 00H
	ORG $+2
$SG123233 DB	'B_Pyramid    ', 00H
	ORG $+2
$SG123234 DB	' +ManyBframes', 00H
	ORG $+2
$SG123235 DB	'PyramQPOffset', 00H
	ORG $+2
$SG123236 DB	'MBBRC        ', 00H
	ORG $+2
$SG123237 DB	'ExtBRC       ', 00H
	ORG $+2
$SG123238 DB	'Adaptive_LTR ', 00H
	ORG $+2
$SG123239 DB	'LA Quality   ', 00H
	ORG $+2
$SG123240 DB	'QP Min/Max   ', 00H
	ORG $+2
$SG123241 DB	'IntraRefresh ', 00H
	ORG $+2
$SG123242 DB	'No Deblock   ', 00H
	ORG $+2
$SG123243 DB	'No GPB       ', 00H
	ORG $+2
$SG123244 DB	'Windowed BRC ', 00H
	ORG $+2
$SG123245 DB	'PerMBQP(CQP) ', 00H
	ORG $+2
$SG123246 DB	'DirectBiasAdj', 00H
	ORG $+2
$SG123247 DB	'MVCostScaling', 00H
	ORG $+2
$SG123248 DB	'SAO          ', 00H
	ORG $+2
$SG123249 DB	'Max CTU Size ', 00H
	ORG $+2
$SG123250 DB	'TSkip        ', 00H
	ORG $+2
$SG123252 DB	'Resize               ', 00H
	ORG $+2
$SG123253 DB	'Deinterlace          ', 00H
	ORG $+2
$SG123254 DB	'Scaling Quality      ', 00H
	ORG $+2
$SG123255 DB	'Denoise              ', 00H
	ORG $+2
$SG123256 DB	'Mctf                 ', 00H
	ORG $+2
$SG123257 DB	'Rotate               ', 00H
	ORG $+2
$SG123258 DB	'Mirror               ', 00H
	ORG $+2
$SG123259 DB	'Detail Enhancement   ', 00H
	ORG $+2
$SG123260 DB	'Proc Amp.            ', 00H
	ORG $+2
$SG115068 DB	'unknown', 00H
$SG123261 DB	'Image Stabilization  ', 00H
	ORG $+2
$SG123262 DB	'Video Signal Info    ', 00H
	ORG $+2
$SG123263 DB	'FPS Conversion       ', 00H
	ORG $+2
$SG123264 DB	'FPS Conversion (Adv.)', 00H
	ORG $+2
$SG180944 DB	0aH, 'ERROR: failed opening benchmark result file.', 0aH, 00H
	ORG $+1
$SG180946 DB	'Started benchmark on %d.%02d.%02d %2d:%02d:%02d', 0aH, 00H
	ORG $+3
$SG180998 DB	0aH, 00H
	ORG $+2
$SG180947 DB	'Input File: %s', 0aH, 00H
$SG180948 DB	'Basic parameters of the benchmark', 0aH, ' (Target Usage'
	DB	' and output resolution will be changed)', 0aH, 00H
	ORG $+3
$SG180949 DB	'%s', 0aH, 0aH, 00H
	ORG $+3
$SG180954 DB	'3.25', 00H
	ORG $+3
$SG180999 DB	0aH, 00H
	ORG $+2
$SG180955 DB	'QSV: QSVEncC %s (%s) / API[%s]: v%d.%d / %s', 0aH, 00H
	ORG $+3
$SG180958 DB	0aH, 'ERROR: failed opening benchmark result file.', 0aH, 00H
	ORG $+1
$SG180963 DB	0aH, 'ERROR: Hardware device was lost or returned an unex'
	DB	'pected error. Recovering...', 0aH, 00H
	ORG $+7
$SG180989 DB	0aH, 'ERROR: failed opening benchmark result file.', 0aH, 00H
	ORG $+1
$SG180992 DB	'Encode Speed (fps)', 0aH, 00H
	ORG $+4
$SG180977 DB	0aH, 'ERROR: Hardware device was lost or returned an unex'
	DB	'pected error. Recovering...', 0aH, 00H
	ORG $+3
$SG181003 DB	0aH, 00H
	ORG $+2
$SG180991 DB	'TargetUsage ([TU-1]:Best Quality) ', 0a1H, 0abH, ' ([TU-'
	DB	'7]:Fastest Speed)', 0aH, 0aH, 00H
	ORG $+2
$SG180993 DB	'TargetUsage', 00H
$SG181006 DB	0aH, 00H
	ORG $+2
$SG180994 DB	',   %dx%d', 00H
	ORG $+2
$SG181007 DB	0aH, 00H
	ORG $+2
$SG180996 DB	' ', 0a1H, 0a1H, 0a1H, 0a1H, 'TU-%d', 00H
	ORG $+1
$SG181011 DB	0aH, 00H
	ORG $+2
$SG180997 DB	',', 0a1H, 0a1H, 0a1H, 0a1H, 0a1H, 0a1H, '%6.2f', 00H
	ORG $+3
$SG181000 DB	'Bitrate (kbps)', 0aH, 00H
$SG181001 DB	'TargetUsage', 00H
$SG181014 DB	0aH, 00H
	ORG $+2
$SG181002 DB	',   %dx%d', 00H
	ORG $+2
$SG181015 DB	0aH, 00H
	ORG $+2
$SG181004 DB	' ', 0a1H, 0a1H, 0a1H, 0a1H, 'TU-%d', 00H
	ORG $+1
$SG115570 DB	'fcc', 00H
$SG181005 DB	',', 0a1H, 0a1H, 0a1H, 0a1H, 0a1H, 0a1H, '%6d', 00H
	ORG $+1
$SG115571 DB	'GBR', 00H
$SG181008 DB	'CPU Usage (%%)', 0aH, 00H
$SG181009 DB	'TargetUsage', 00H
$SG115884 DB	'pal', 00H
$SG181010 DB	',   %dx%d', 00H
	ORG $+2
$SG115722 DB	'bt470m', 00H
	ORG $+1
$SG115886 DB	'mac', 00H
$SG181012 DB	' ', 0a1H, 0a1H, 0a1H, 0a1H, 'TU-%d', 00H
	ORG $+1
$SG115888 DB	'0', 00H
	ORG $+2
$SG181013 DB	',', 0a1H, 0a1H, 0a1H, 0a1H, 0a1H, 0a1H, '%6.2f', 00H
	ORG $+3
$SG181016 DB	0aH, 'Finished benchmark.', 0aH, 00H
	ORG $+2
$SG181017 DB	0aH, 'Error occurred during benchmark.', 0aH, 00H
	ORG $+5
?list_colormatrix@@3QBUCX_DESC@@B DQ FLAT:$SG115563	; list_colormatrix
	DD	02H
	ORG $+4
	DQ	FLAT:$SG115564
	DD	07fffffffH
	ORG $+4
	DQ	FLAT:$SG115565
	DD	01H
	ORG $+4
	DQ	FLAT:$SG115566
	DD	06H
	ORG $+4
	DQ	FLAT:$SG115567
	DD	05H
	ORG $+4
	DQ	FLAT:$SG115568
	DD	07H
	ORG $+4
	DQ	FLAT:$SG115569
	DD	08H
	ORG $+4
	DQ	FLAT:$SG115570
	DD	04H
	ORG $+4
	DQ	FLAT:$SG115571
	DD	00H
	ORG $+4
	DQ	FLAT:$SG115572
	DD	09H
	ORG $+4
	DQ	FLAT:$SG115573
	DD	0aH
	ORG $+4
	DQ	FLAT:$SG115574
	DD	0cH
	ORG $+4
	DQ	FLAT:$SG115575
	DD	0dH
	ORG $+4
	DQ	FLAT:$SG115576
	DD	0eH
	ORG $+4
	DQ	FLAT:$SG115577
	DD	0fH
	ORG $+4
	DQ	0000000000000000H
	DD	00H
	ORG $+4
$SG115563 DB	'undef', 00H
	ORG $+2
$SG115564 DB	'auto', 00H
	ORG $+3
$SG115565 DB	'bt709', 00H
	ORG $+2
$SG115566 DB	'smpte170m', 00H
	ORG $+2
$SG115725 DB	'linear', 00H
	ORG $+1
$SG115889 DB	'1', 00H
	ORG $+2
$SG115567 DB	'bt470bg', 00H
$SG115568 DB	'smpte240m', 00H
	ORG $+2
$SG115569 DB	'YCgCo', 00H
	ORG $+2
$SG115726 DB	'log100', 00H
	ORG $+1
$SG115890 DB	'2', 00H
	ORG $+2
$SG115572 DB	'bt2020nc', 00H
	ORG $+3
$SG115576 DB	'ictco', 00H
	ORG $+2
$SG115727 DB	'log316', 00H
	ORG $+1
$SG115891 DB	'3', 00H
	ORG $+2
$SG115573 DB	'bt2020c', 00H
$SG115574 DB	'derived-ncl', 00H
$SG115892 DB	'4', 00H
	ORG $+2
$SG115575 DB	'derived-cl', 00H
	ORG $+1
$SG115893 DB	'5', 00H
	ORG $+2
$SG115577 DB	'2100-lms', 00H
	ORG $+7
?list_transfer@@3QBUCX_DESC@@B DQ FLAT:$SG115718	; list_transfer
	DD	02H
	ORG $+4
	DQ	FLAT:$SG115719
	DD	07fffffffH
	ORG $+4
	DQ	FLAT:$SG115720
	DD	01H
	ORG $+4
	DQ	FLAT:$SG115721
	DD	06H
	ORG $+4
	DQ	FLAT:$SG115722
	DD	04H
	ORG $+4
	DQ	FLAT:$SG115723
	DD	05H
	ORG $+4
	DQ	FLAT:$SG115724
	DD	07H
	ORG $+4
	DQ	FLAT:$SG115725
	DD	08H
	ORG $+4
	DQ	FLAT:$SG115726
	DD	09H
	ORG $+4
	DQ	FLAT:$SG115727
	DD	0aH
	ORG $+4
	DQ	FLAT:$SG115728
	DD	0bH
	ORG $+4
	DQ	FLAT:$SG115729
	DD	0cH
	ORG $+4
	DQ	FLAT:$SG115730
	DD	0dH
	ORG $+4
	DQ	FLAT:$SG115731
	DD	0eH
	ORG $+4
	DQ	FLAT:$SG115732
	DD	0fH
	ORG $+4
	DQ	FLAT:$SG115733
	DD	010H
	ORG $+4
	DQ	FLAT:$SG115734
	DD	011H
	ORG $+4
	DQ	FLAT:$SG115735
	DD	012H
	ORG $+4
	DQ	0000000000000000H
	DD	00H
	ORG $+4
$SG115718 DB	'undef', 00H
	ORG $+2
$SG115719 DB	'auto', 00H
	ORG $+3
$SG115720 DB	'bt709', 00H
	ORG $+2
$SG115721 DB	'smpte170m', 00H
	ORG $+2
$SG115871 DB	'bt470m', 00H
	ORG $+1
$SG115897 DB	'tv', 00H
	ORG $+1
$SG115723 DB	'bt470bg', 00H
$SG115724 DB	'smpte240m', 00H
	ORG $+2
$SG115875 DB	'bt2020', 00H
	ORG $+1
$SG115898 DB	'pc', 00H
	ORG $+1
$SG115728 DB	'iec61966-2-4', 00H
	ORG $+3
$SG115729 DB	'bt1361e', 00H
$SG115730 DB	'iec61966-2-1', 00H
	ORG $+3
$SG115731 DB	'bt2020-10', 00H
	ORG $+2
$SG116987 DB	'cfr', 00H
$SG115732 DB	'bt2020-12', 00H
	ORG $+2
$SG116988 DB	'vfr', 00H
$SG115733 DB	'smpte2084', 00H
	ORG $+2
$SG116991 DB	'swr', 00H
$SG115734 DB	'smpte428', 00H
	ORG $+3
$SG115867 DB	'undef', 00H
	ORG $+2
$SG174688 DB	'%s', 00H
	ORG $+1
$SG115735 DB	'arib-srd-b67', 00H
	ORG $+3
$SG140339 DB	'l', 00H, 'p', 00H, 's', 00H, 'z', 00H, 'P', 00H, 'a', 00H
	DB	't', 00H, 'h', 00H, 'N', 00H, 'a', 00H, 'm', 00H, 'e', 00H, ' '
	DB	00H, '!', 00H, '=', 00H, ' ', 00H, '0', 00H, 00H, 00H
$SG174717 DB	' ', 00H
	ORG $+2
$SG140340 DB	'%', 00H, 'l', 00H, 's', 00H, 00H, 00H
$SG140341 DB	'C', 00H, ':', 00H, '\', 00H, 'P', 00H, 'r', 00H, 'o', 00H
	DB	'g', 00H, 'r', 00H, 'a', 00H, 'm', 00H, ' ', 00H, 'F', 00H, 'i'
	DB	00H, 'l', 00H, 'e', 00H, 's', 00H, ' ', 00H, '(', 00H, 'x', 00H
	DB	'8', 00H, '6', 00H, ')', 00H, '\', 00H, 'M', 00H, 'i', 00H, 'c'
	DB	00H, 'r', 00H, 'o', 00H, 's', 00H, 'o', 00H, 'f', 00H, 't', 00H
	DB	' ', 00H, 'V', 00H, 'i', 00H, 's', 00H, 'u', 00H, 'a', 00H, 'l'
	DB	00H, ' ', 00H, 'S', 00H, 't', 00H, 'u', 00H, 'd', 00H, 'i', 00H
	DB	'o', 00H, '\', 00H, '2', 00H, '0', 00H, '1', 00H, '9', 00H, '\'
	DB	00H, 'C', 00H, 'o', 00H, 'm', 00H, 'm', 00H, 'u', 00H, 'n', 00H
	DB	'i', 00H, 't', 00H, 'y', 00H, '\', 00H, 'V', 00H, 'C', 00H, '\'
	DB	00H, 'T', 00H, 'o', 00H, 'o', 00H, 'l', 00H, 's', 00H, '\', 00H
	DB	'M', 00H, 'S', 00H, 'V', 00H, 'C', 00H, '\', 00H, '1', 00H, '4'
	DB	00H, '.', 00H, '2', 00H, '3', 00H, '.', 00H, '2', 00H, '8', 00H
	DB	'1', 00H, '0', 00H, '5', 00H, '\', 00H, 'a', 00H, 't', 00H, 'l'
	DB	00H, 'm', 00H, 'f', 00H, 'c', 00H, '\', 00H, 'i', 00H, 'n', 00H
	DB	'c', 00H, 'l', 00H, 'u', 00H, 'd', 00H, 'e', 00H, '\', 00H, 'a'
	DB	00H, 't', 00H, 'l', 00H, 'b', 00H, 'a', 00H, 's', 00H, 'e', 00H
	DB	'.', 00H, 'h', 00H, 00H, 00H
	ORG $+2
$SG115868 DB	'auto', 00H
	ORG $+7
?list_colorprim@@3QBUCX_DESC@@B DQ FLAT:$SG115867	; list_colorprim
	DD	02H
	ORG $+4
	DQ	FLAT:$SG115868
	DD	07fffffffH
	ORG $+4
	DQ	FLAT:$SG115869
	DD	01H
	ORG $+4
	DQ	FLAT:$SG115870
	DD	06H
	ORG $+4
	DQ	FLAT:$SG115871
	DD	04H
	ORG $+4
	DQ	FLAT:$SG115872
	DD	05H
	ORG $+4
	DQ	FLAT:$SG115873
	DD	07H
	ORG $+4
	DQ	FLAT:$SG115874
	DD	08H
	ORG $+4
	DQ	FLAT:$SG115875
	DD	09H
	ORG $+4
	DQ	FLAT:$SG115876
	DD	0aH
	ORG $+4
	DQ	FLAT:$SG115877
	DD	0bH
	ORG $+4
	DQ	FLAT:$SG115878
	DD	0cH
	ORG $+4
	DQ	FLAT:$SG115879
	DD	0dH
	ORG $+4
	DQ	0000000000000000H
	DD	00H
	ORG $+4
$SG115869 DB	'bt709', 00H
	ORG $+2
$SG115870 DB	'smpte170m', 00H
	ORG $+2
$SG174716 DB	'   %s ', 00H
	ORG $+1
$SG174720 DB	', ', 00H
	ORG $+1
$SG115872 DB	'bt470bg', 00H
$SG115873 DB	'smpte240m', 00H
	ORG $+2
$SG115874 DB	'film', 00H
	ORG $+3
$SG115876 DB	'st428', 00H
	ORG $+2
$SG174721 DB	0aH, '%s', 00H
$SG115877 DB	'st431-2', 00H
$SG115878 DB	'st432-1', 00H
$SG115879 DB	'ebu3213-e', 00H
	ORG $+2
$SG115881 DB	'undef', 00H
	ORG $+6
?list_videoformat@@3QBUCX_DESC@@B DQ FLAT:$SG115881	; list_videoformat
	DD	05H
	ORG $+4
	DQ	FLAT:$SG115882
	DD	02H
	ORG $+4
	DQ	FLAT:$SG115883
	DD	00H
	ORG $+4
	DQ	FLAT:$SG115884
	DD	01H
	ORG $+4
	DQ	FLAT:$SG115885
	DD	03H
	ORG $+4
	DQ	FLAT:$SG115886
	DD	04H
	ORG $+4
	DQ	0000000000000000H
	DD	00H
	ORG $+4
$SG115882 DB	'ntsc', 00H
	ORG $+3
$SG115883 DB	'component', 00H
	ORG $+2
$SG115885 DB	'secam', 00H
	ORG $+2
$SG174723 DB	', ', 00H
	ORG $+1
$SG115895 DB	'limited', 00H
$SG115896 DB	'full', 00H
	ORG $+3
$SG173321 DB	'1.19', 00H
	ORG $+3
$SG181659 DB	'-----------------------------------------> run start', 0dH
	DB	0aH, 00H
	ORG $+1
$SG181672 DB	'----------------------------------------->parse_cmd star'
	DB	't.', 0dH, 0aH, 00H
	ORG $+3
$SG181675 DB	0dH, 0aH, '----------------------------------------->pars'
	DB	'e_cmd end.', 0dH, 0aH, 00H
	ORG $+3
$SG181685 DB	'----------------------------------------->loop start.', 0dH
	DB	0aH, 00H
$SG181696 DB	'----------------------------------------->loop end.', 0dH
	DB	0aH, 00H
	ORG $+2
$SG181689 DB	0aH, 'ERROR: Hardware device was lost or returned an unex'
	DB	'pected error. Recovering...', 0aH, 00H
	ORG $+3
$SG116980 DB	'trace', 00H
	ORG $+2
$SG174724 DB	'%s', 00H
	ORG $+1
$SG181697 DB	0aH, 'Processing finished', 0aH, 00H
	ORG $+2
$SG181708 DB	'----------------------------------------->_tmain start.', 0dH
	DB	0aH, 00H
	ORG $+2
$SG117883 DB	'vp8', 00H
$SG181710 DB	'QSVEncC.exe finished with error!', 0aH, 00H
	ORG $+2
$SG117884 DB	'raw', 00H
?list_empty@@3QBUCX_DESC@@B DQ 0000000000000000H	; list_empty
	DD	00H
	ORG $+4
$SG116981 DB	'debug', 00H
	ORG $+2
$SG116982 DB	'more', 00H
	ORG $+3
$SG116983 DB	'info', 00H
	ORG $+3
$SG116984 DB	'warn', 00H
	ORG $+3
$SG116985 DB	'error', 00H
	ORG $+2
$SG116989 DB	'forcecfr', 00H
	ORG $+3
$SG116992 DB	'soxr', 00H
	ORG $+3
$SG117881 DB	'mpeg2', 00H
	ORG $+2
$SG117886 DB	'CBR', 00H
$SG174715 DB	'                                ', 00H
	ORG $+3
$SG117887 DB	'VBR', 00H
$SG174725 DB	0aH, '%s default: %s', 0aH, 00H
	ORG $+3
$SG117879 DB	'h264', 00H
	ORG $+3
$SG117880 DB	'hevc', 00H
	ORG $+3
$SG117882 DB	'vc-1', 00H
	ORG $+3
$SG117888 DB	'CQP', 00H
$SG117889 DB	'AVBR', 00H
	ORG $+3
$SG117890 DB	'LA', 00H
	ORG $+1
$SG117891 DB	'LA-EXT', 00H
	ORG $+1
$SG117892 DB	'LA-HRD', 00H
	ORG $+1
$SG117893 DB	'LA-ICQ', 00H
	ORG $+1
$SG117894 DB	'ICQ', 00H
$SG117895 DB	'QVBR', 00H
	ORG $+3
$SG117896 DB	'VCM', 00H
$SG117898 DB	'auto', 00H
	ORG $+7
?list_avc_profile@@3QBUCX_DESC@@B DQ FLAT:$SG117898	; list_avc_profile
	DD	00H
	ORG $+4
	DQ	FLAT:$SG117899
	DD	042H
	ORG $+4
	DQ	FLAT:$SG117900
	DD	04dH
	ORG $+4
	DQ	FLAT:$SG117901
	DD	064H
	ORG $+4
	DQ	0000000000000000H
	DD	00H
	ORG $+4
$SG117899 DB	'Baseline', 00H
	ORG $+3
$SG117900 DB	'Main', 00H
	ORG $+3
$SG117901 DB	'High', 00H
	ORG $+7
?list_hevc_profile@@3QBUCX_DESC@@B DQ FLAT:$SG117903	; list_hevc_profile
	DD	00H
	ORG $+4
	DQ	FLAT:$SG117904
	DD	01H
	ORG $+4
	DQ	FLAT:$SG117905
	DD	02H
	ORG $+4
	DQ	0000000000000000H
	DD	00H
	ORG $+4
$SG117903 DB	'auto', 00H
	ORG $+3
$SG117904 DB	'main', 00H
	ORG $+3
$SG117905 DB	'main10', 00H
	ORG $+1
?list_hevc_tier@@3QBUCX_DESC@@B DQ FLAT:$SG117907	; list_hevc_tier
	DD	00H
	ORG $+4
	DQ	FLAT:$SG117908
	DD	0100H
	ORG $+4
	DQ	0000000000000000H
	DD	00H
	ORG $+4
$SG117907 DB	'main', 00H
	ORG $+3
$SG117908 DB	'high', 00H
	ORG $+3
$SG117910 DB	'auto', 00H
	ORG $+3
?list_mpeg2_profile@@3QBUCX_DESC@@B DQ FLAT:$SG117910	; list_mpeg2_profile
	DD	00H
	ORG $+4
	DQ	FLAT:$SG117911
	DD	050H
	ORG $+4
	DQ	FLAT:$SG117912
	DD	040H
	ORG $+4
	DQ	FLAT:$SG117913
	DD	010H
	ORG $+4
	DQ	0000000000000000H
	DD	00H
	ORG $+4
$SG117911 DB	'Simple', 00H
	ORG $+1
$SG117912 DB	'Main', 00H
	ORG $+3
$SG117913 DB	'High', 00H
	ORG $+3
$SG117915 DB	'auto', 00H
	ORG $+3
?list_vc1_profile@@3QBUCX_DESC@@B DQ FLAT:$SG117915	; list_vc1_profile
	DD	00H
	ORG $+4
	DQ	FLAT:$SG117916
	DD	01H
	ORG $+4
	DQ	FLAT:$SG117917
	DD	05H
	ORG $+4
	DQ	FLAT:$SG117918
	DD	0dH
	ORG $+4
	DQ	0000000000000000H
	DD	00H
	ORG $+4
$SG117916 DB	'Simple', 00H
	ORG $+1
$SG117917 DB	'Main', 00H
	ORG $+3
$SG117918 DB	'Advanced', 00H
	ORG $+7
?list_vp8_profile@@3QBUCX_DESC@@B DQ FLAT:$SG117920	; list_vp8_profile
	DD	00H
	ORG $+4
	DQ	FLAT:$SG117921
	DD	01H
	ORG $+4
	DQ	FLAT:$SG117922
	DD	02H
	ORG $+4
	DQ	FLAT:$SG117923
	DD	03H
	ORG $+4
	DQ	FLAT:$SG117924
	DD	04H
	ORG $+4
	DQ	0000000000000000H
	DD	00H
	ORG $+4
$SG117920 DB	'auto', 00H
	ORG $+3
$SG117921 DB	'0', 00H
	ORG $+2
$SG117922 DB	'1', 00H
	ORG $+2
$SG117923 DB	'2', 00H
	ORG $+2
$SG117924 DB	'3', 00H
	ORG $+2
$SG117926 DB	'auto', 00H
	ORG $+3
?list_vp9_profile@@3QBUCX_DESC@@B DQ FLAT:$SG117926	; list_vp9_profile
	DD	00H
	ORG $+4
	DQ	FLAT:$SG117927
	DD	01H
	ORG $+4
	DQ	FLAT:$SG117928
	DD	02H
	ORG $+4
	DQ	FLAT:$SG117929
	DD	03H
	ORG $+4
	DQ	FLAT:$SG117930
	DD	04H
	ORG $+4
	DQ	0000000000000000H
	DD	00H
	ORG $+4
$SG117927 DB	'0', 00H
	ORG $+2
$SG117928 DB	'1', 00H
	ORG $+2
$SG117929 DB	'2', 00H
	ORG $+2
$SG117930 DB	'3', 00H
	ORG $+2
$SG117932 DB	'8', 00H
	ORG $+2
$SG117933 DB	'10', 00H
	ORG $+1
$SG117935 DB	'progressive', 00H
$SG117941 DB	'it', 00H
	ORG $+1
$SG117936 DB	'interlaced(tff)', 00H
$SG117937 DB	'interlaced(bff)', 00H
$SG117939 DB	'none', 00H
	ORG $+3
$SG117940 DB	'normal', 00H
	ORG $+1
$SG117942 DB	'bob', 00H
$SG117944 DB	'32', 00H
	ORG $+1
$SG117945 DB	'2332', 00H
	ORG $+3
$SG117946 DB	'repeat', 00H
	ORG $+1
$SG117947 DB	'41', 00H
	ORG $+1
$SG117949 DB	'auto', 00H
	ORG $+7
?list_avc_level@@3QBUCX_DESC@@B DQ FLAT:$SG117949	; list_avc_level
	DD	00H
	ORG $+4
	DQ	FLAT:$SG117950
	DD	0aH
	ORG $+4
	DQ	FLAT:$SG117951
	DD	09H
	ORG $+4
	DQ	FLAT:$SG117952
	DD	0bH
	ORG $+4
	DQ	FLAT:$SG117953
	DD	0cH
	ORG $+4
	DQ	FLAT:$SG117954
	DD	0dH
	ORG $+4
	DQ	FLAT:$SG117955
	DD	014H
	ORG $+4
	DQ	FLAT:$SG117956
	DD	015H
	ORG $+4
	DQ	FLAT:$SG117957
	DD	016H
	ORG $+4
	DQ	FLAT:$SG117958
	DD	01eH
	ORG $+4
	DQ	FLAT:$SG117959
	DD	01fH
	ORG $+4
	DQ	FLAT:$SG117960
	DD	020H
	ORG $+4
	DQ	FLAT:$SG117961
	DD	028H
	ORG $+4
	DQ	FLAT:$SG117962
	DD	029H
	ORG $+4
	DQ	FLAT:$SG117963
	DD	02aH
	ORG $+4
	DQ	FLAT:$SG117964
	DD	032H
	ORG $+4
	DQ	FLAT:$SG117965
	DD	033H
	ORG $+4
	DQ	FLAT:$SG117966
	DD	034H
	ORG $+4
	DQ	0000000000000000H
	DD	00H
	ORG $+4
$SG117950 DB	'1', 00H
	ORG $+2
$SG117951 DB	'1b', 00H
	ORG $+1
$SG117952 DB	'1.1', 00H
$SG117953 DB	'1.2', 00H
$SG117954 DB	'1.3', 00H
$SG117955 DB	'2', 00H
	ORG $+2
$SG117956 DB	'2.1', 00H
$SG117957 DB	'2.2', 00H
$SG117958 DB	'3', 00H
	ORG $+2
$SG117959 DB	'3.1', 00H
$SG117960 DB	'3.2', 00H
$SG117961 DB	'4', 00H
	ORG $+2
$SG117962 DB	'4.1', 00H
$SG117963 DB	'4.2', 00H
$SG117964 DB	'5', 00H
	ORG $+2
$SG117965 DB	'5.1', 00H
$SG117966 DB	'5.2', 00H
$SG117968 DB	'auto', 00H
	ORG $+7
?list_hevc_level@@3QBUCX_DESC@@B DQ FLAT:$SG117968	; list_hevc_level
	DD	00H
	ORG $+4
	DQ	FLAT:$SG117969
	DD	0aH
	ORG $+4
	DQ	FLAT:$SG117970
	DD	014H
	ORG $+4
	DQ	FLAT:$SG117971
	DD	015H
	ORG $+4
	DQ	FLAT:$SG117972
	DD	01eH
	ORG $+4
	DQ	FLAT:$SG117973
	DD	01fH
	ORG $+4
	DQ	FLAT:$SG117974
	DD	028H
	ORG $+4
	DQ	FLAT:$SG117975
	DD	029H
	ORG $+4
	DQ	FLAT:$SG117976
	DD	032H
	ORG $+4
	DQ	FLAT:$SG117977
	DD	033H
	ORG $+4
	DQ	FLAT:$SG117978
	DD	034H
	ORG $+4
	DQ	FLAT:$SG117979
	DD	03cH
	ORG $+4
	DQ	FLAT:$SG117980
	DD	03dH
	ORG $+4
	DQ	FLAT:$SG117981
	DD	03eH
	ORG $+4
	DQ	0000000000000000H
	DD	00H
	ORG $+4
$SG117969 DB	'1', 00H
	ORG $+2
$SG117970 DB	'2', 00H
	ORG $+2
$SG117971 DB	'2.1', 00H
$SG117972 DB	'3', 00H
	ORG $+2
$SG117973 DB	'3.1', 00H
$SG117974 DB	'4', 00H
	ORG $+2
$SG117975 DB	'4.1', 00H
$SG117976 DB	'5', 00H
	ORG $+2
$SG117977 DB	'5.1', 00H
$SG117978 DB	'5.2', 00H
$SG117979 DB	'6', 00H
	ORG $+2
$SG117980 DB	'6.1', 00H
$SG117981 DB	'6.2', 00H
$SG117983 DB	'auto', 00H
	ORG $+7
?list_mpeg2_level@@3QBUCX_DESC@@B DQ FLAT:$SG117983	; list_mpeg2_level
	DD	00H
	ORG $+4
	DQ	FLAT:$SG117984
	DD	0aH
	ORG $+4
	DQ	FLAT:$SG117985
	DD	08H
	ORG $+4
	DQ	FLAT:$SG117986
	DD	04H
	ORG $+4
	DQ	FLAT:$SG117987
	DD	06H
	ORG $+4
	DQ	0000000000000000H
	DD	00H
	ORG $+4
$SG117984 DB	'low', 00H
$SG117985 DB	'main', 00H
	ORG $+3
$SG117986 DB	'high', 00H
	ORG $+3
$SG117990 DB	'low', 00H
$SG117987 DB	'high1440', 00H
	ORG $+3
$SG117989 DB	'auto', 00H
	ORG $+7
?list_vc1_level@@3QBUCX_DESC@@B DQ FLAT:$SG117989	; list_vc1_level
	DD	00H
	ORG $+4
	DQ	FLAT:$SG117990
	DD	01H
	ORG $+4
	DQ	FLAT:$SG117991
	DD	03H
	ORG $+4
	DQ	FLAT:$SG117992
	DD	05H
	ORG $+4
	DQ	0000000000000000H
	DD	00H
	ORG $+4
$SG117991 DB	'median', 00H
	ORG $+1
$SG117992 DB	'high', 00H
	ORG $+3
$SG117994 DB	'auto', 00H
	ORG $+3
$SG117995 DB	'0', 00H
	ORG $+2
$SG117996 DB	'1', 00H
	ORG $+2
$SG117997 DB	'2', 00H
	ORG $+2
$SG117998 DB	'3', 00H
	ORG $+2
$SG117999 DB	'4', 00H
	ORG $+2
$SG118006 DB	'off', 00H
?list_vp8_level@@3QBUCX_DESC@@B DQ FLAT:$SG118001	; list_vp8_level
	DD	00H
	ORG $+4
	DQ	0000000000000000H
	DD	00H
	ORG $+4
$SG118001 DB	'auto', 00H
	ORG $+3
?list_vp9_level@@3QBUCX_DESC@@B DQ FLAT:$SG118003	; list_vp9_level
	DD	00H
	ORG $+4
	DQ	0000000000000000H
	DD	00H
	ORG $+4
$SG118003 DB	'auto', 00H
	ORG $+3
$SG118005 DB	'Auto', 00H
	ORG $+3
$SG118007 DB	'for I frames', 00H
	ORG $+3
$SG118008 DB	'for I,P frames', 00H
	ORG $+1
$SG118009 DB	'for All frames', 00H
	ORG $+1
$SG118011 DB	'auto', 00H
	ORG $+3
$SG118012 DB	'off', 00H
$SG118013 DB	'i', 00H
	ORG $+2
$SG126205 DB	'atlTraceGeneral', 00H
$SG118014 DB	'ip', 00H
	ORG $+1
$SG118015 DB	'all', 00H
$SG118016 DB	'ipb', 00H
$SG118017 DB	'ib', 00H
	ORG $+1
$SG118018 DB	'p', 00H
	ORG $+2
$SG118019 DB	'pb', 00H
	ORG $+1
$SG118020 DB	'b', 00H
	ORG $+2
$SG118022 DB	'auto', 00H
	ORG $+3
$SG118023 DB	'slow', 00H
	ORG $+3
$SG118024 DB	'medium', 00H
	ORG $+1
$SG118025 DB	'fast', 00H
	ORG $+3
$SG118028 DB	'0', 00H
	ORG $+2
$SG118027 DB	'default', 00H
$SG118029 DB	'1', 00H
	ORG $+2
$SG118030 DB	'2', 00H
	ORG $+2
$SG118031 DB	'3', 00H
	ORG $+2
$SG118032 DB	'4', 00H
	ORG $+2
$SG118034 DB	'low', 00H
$SG118035 DB	'normal', 00H
	ORG $+1
$SG118036 DB	'high', 00H
	ORG $+3
$SG118048 DB	'none', 00H
	ORG $+3
$SG118049 DB	'copy', 00H
	ORG $+3
$SG118050 DB	'aac', 00H
$SG118051 DB	'libmp3lame', 00H
	ORG $+1
$SG118056 DB	'ac3', 00H
$SG118052 DB	'libtwolame', 00H
	ORG $+1
$SG118087 DB	'tff', 00H
$SG118053 DB	'libvorbis', 00H
	ORG $+2
$SG118088 DB	'bff', 00H
$SG118054 DB	'pcm_s16le', 00H
	ORG $+2
$SG118099 DB	'higher', 00H
	ORG $+1
$SG118113 DB	'8x8', 00H
$SG118055 DB	'libopus', 00H
$SG126254 DB	'atlTraceCOM', 00H
$SG118086 DB	'none', 00H
	ORG $+7
?list_quality@@3QBUCX_DESC@@B DQ FLAT:$SG118090		; list_quality
	DD	01H
	ORG $+4
	DQ	FLAT:$SG118091
	DD	02H
	ORG $+4
	DQ	FLAT:$SG118092
	DD	03H
	ORG $+4
	DQ	FLAT:$SG118093
	DD	04H
	ORG $+4
	DQ	FLAT:$SG118094
	DD	05H
	ORG $+4
	DQ	FLAT:$SG118095
	DD	06H
	ORG $+4
	DQ	FLAT:$SG118096
	DD	07H
	ORG $+4
	DQ	0000000000000000H
	DD	00H
	ORG $+4
$SG118090 DB	' 1 - best quality', 00H
	ORG $+2
$SG118103 DB	'faster', 00H
	ORG $+1
$SG118114 DB	'4x4', 00H
$SG118091 DB	' 2 - higher', 00H
$SG118117 DB	'16', 00H
	ORG $+1
$SG118092 DB	' 3 - high quality', 00H
	ORG $+2
$SG118118 DB	'32', 00H
	ORG $+1
$SG118093 DB	' 4 - balanced', 00H
	ORG $+2
$SG118094 DB	' 5 - fast', 00H
	ORG $+2
$SG118119 DB	'64', 00H
	ORG $+1
$SG118095 DB	' 6 - faster', 00H
$SG118127 DB	'all', 00H
$SG118096 DB	' 7 - fastest', 00H
	ORG $+3
$SG118098 DB	'best', 00H
	ORG $+3
$SG118100 DB	'high', 00H
	ORG $+3
$SG118101 DB	'balanced', 00H
	ORG $+3
$SG118102 DB	'fast', 00H
	ORG $+3
$SG118109 DB	'Q-pel', 00H
	ORG $+2
$SG118126 DB	'chroma', 00H
	ORG $+1
$SG118131 DB	'box', 00H
$SG118104 DB	'fastest', 00H
$SG118106 DB	'Auto', 00H
	ORG $+3
$SG118107 DB	'full-pel', 00H
	ORG $+3
$SG118112 DB	'16x16', 00H
	ORG $+2
$SG118133 DB	'off', 00H
$SG118108 DB	'half-pel', 00H
	ORG $+3
$SG118134 DB	'x2', 00H
	ORG $+1
$SG126303 DB	'atlTraceQI', 00H
	ORG $+1
$SG118111 DB	'Auto', 00H
	ORG $+3
$SG118116 DB	'auto', 00H
	ORG $+3
$SG118123 DB	'auto', 00H
	ORG $+3
$SG118124 DB	'none', 00H
	ORG $+3
$SG118125 DB	'luma', 00H
	ORG $+3
$SG118129 DB	'none', 00H
	ORG $+3
$SG118137 DB	'simple', 00H
	ORG $+1
$SG118140 DB	'0', 00H
	ORG $+2
$SG118130 DB	'upscale', 00H
$SG118135 DB	'x2.5', 00H
	ORG $+3
$SG118138 DB	'complex', 00H
$SG118141 DB	'90', 00H
	ORG $+1
$SG118142 DB	'180', 00H
$SG118143 DB	'270', 00H
$SG118145 DB	'n', 00H
	ORG $+2
$SG118146 DB	'h', 00H
	ORG $+2
$SG118147 DB	'v', 00H
	ORG $+2
$SG118149 DB	'auto', 00H
	ORG $+3
$SG118150 DB	'simple', 00H
	ORG $+1
$SG118151 DB	'fine', 00H
	ORG $+3
$SG118153 DB	'auto', 00H
	ORG $+3
$SG118154 DB	'none', 00H
	ORG $+3
$SG118155 DB	'sse2', 00H
	ORG $+3
$SG118156 DB	'sse3', 00H
	ORG $+3
$SG118157 DB	'ssse3', 00H
	ORG $+2
$SG118158 DB	'sse41', 00H
	ORG $+2
$SG118159 DB	'avx', 00H
$SG118552 DB	'%s', 00H
	ORG $+1
$SG126352 DB	'atlTraceRegistrar', 00H
	ORG $+2
$SG118160 DB	'avx2', 00H
	ORG $+3
$SG176249 DB	'   %s ', 00H
	ORG $+1
$SG176250 DB	' ', 00H
	ORG $+2
$SG126401 DB	'atlTraceRefcount', 00H
	ORG $+3
$SG176251 DB	'%s', 0aH, 00H
$SG126450 DB	'atlTraceWindowing', 00H
	ORG $+2
$SG176253 DB	' ', 00H
	ORG $+2
$SG126499 DB	'atlTraceControls', 00H
	ORG $+3
$SG176254 DB	', ', 00H
	ORG $+1
$SG126548 DB	'atlTraceHosting', 00H
$SG126597 DB	'atlTraceDBClient', 00H
	ORG $+3
$SG176258 DB	0aH, 00H
	ORG $+2
$SG126646 DB	'atlTraceDBProvider', 00H
	ORG $+1
$SG176259 DB	' ', 00H
	ORG $+2
$SG126695 DB	'atlTraceSnapin', 00H
	ORG $+1
$SG126744 DB	'atlTraceNotImpl', 00H
$SG126793 DB	'atlTraceAllocation', 00H
	ORG $+1
$SG176261 DB	', ', 00H
	ORG $+1
$SG126842 DB	'atlTraceException', 00H
	ORG $+2
$SG176265 DB	0aH, 00H
	ORG $+2
$SG126891 DB	'atlTraceTime', 00H
	ORG $+3
$SG126940 DB	'atlTraceCache', 00H
	ORG $+2
$SG126989 DB	'atlTraceStencil', 00H
$SG127038 DB	'atlTraceString', 00H
	ORG $+1
$SG127087 DB	'atlTraceMap', 00H
$SG176387 DB	'%s', 0aH, 00H
$SG127092 DB	'atlTraceUtil', 00H
	ORG $+3
$SG176248 DB	'                                ', 00H
	ORG $+3
$SG176359 DB	'H.264', 00H
	ORG $+2
$SG152216 DB	'all', 00H
$SG176252 DB	'%s- %s: ', 00H
	ORG $+3
$SG176361 DB	'MPEG2', 00H
	ORG $+2
$SG152217 DB	'cpu', 00H
$SG176255 DB	'(default)', 00H
	ORG $+2
$SG152222 DB	'cpu_in', 00H
	ORG $+1
$SG152227 DB	'mem', 00H
$SG176262 DB	'(default)', 00H
	ORG $+2
$SG176264 DB	'%s%s', 00H
	ORG $+3
$SG176364 DB	'H.264', 00H
	ORG $+2
$SG152230 DB	'io', 00H
	ORG $+1
$SG127141 DB	'atlTraceSecurity', 00H
	ORG $+3
$SG176366 DB	'MPEG2', 00H
	ORG $+2
$SG152233 DB	'fps', 00H
$SG127190 DB	'atlTraceSync', 00H
	ORG $+3
$SG176351 DB	'Usage: QSVEncC [Options] -i <filename> -o <filename>', 0aH
	DB	00H
	ORG $+2
$SG176360 DB	'HEVC', 00H
	ORG $+3
$SG176352 DB	0aH, '%s input can be %s%s%sraw YUV or YUV4MPEG2(y4m) for'
	DB	'mat.', 0aH, 'when raw(default), fps, input-res are also neces'
	DB	'sary.', 0aH, 0aH, 'output format will be automatically set by'
	DB	' the output extension.', 0aH, 'when output filename is set to'
	DB	' "-", H.264/AVC ES output is thrown to stdout.', 0aH, 0aH, 'E'
	DB	'xample:', 0aH, '  QSVEncC -i "<avsfilename>" -o "<outfilename'
	DB	'>"', 0aH, '  avs2pipemod -y4mp "<avsfile>" | QSVEncC --y4m -i'
	DB	' - -o "<outfilename>"', 0aH, 0aH, 'Example for Benchmark:', 0aH
	DB	'  QSVEncC -i "<avsfilename>" --benchmark "<benchmark_result.t'
	DB	'xt>"', 0aH, 00H
	ORG $+5
$SG176353 DB	0aH, 'Information Options: ', 0aH, '-h,-? --help         '
	DB	'           show help', 0aH, '-v,--version                    '
	DB	'show version info', 0aH, '   --check-hw                   che'
	DB	'ck if QuickSyncVideo is available', 0aH, '   --check-lib     '
	DB	'             check lib API version installed', 0aH, '   --che'
	DB	'ck-features [<string>]  check encode/vpp features', 0aH, '   '
	DB	'                              with no option value, result wi'
	DB	'll on stdout,', 0aH, '                                 otherw'
	DB	'ise, it is written to file path set', 0aH, '                 '
	DB	'                and opened by default application.', 0aH, '  '
	DB	'                               when writing to file, txt/html'
	DB	'/csv format', 0aH, '                                 is avail'
	DB	'able, chosen by the extension', 0aH, '                       '
	DB	'          of the output file.', 0aH, '   --check-features-htm'
	DB	'l [<string>]', 0aH, '                                check en'
	DB	'code/vpp features and write html report to', 0aH, '          '
	DB	'                       specified path. With no value, "qsv_ch'
	DB	'eck.html"', 0aH, '                                 will be cr'
	DB	'eated to current directory.', 0aH, '   --check-environment   '
	DB	'       check environment info', 0aH, 0aH, 00H
	ORG $+2
$SG176354 DB	0aH, 'Basic Encoding Options: ', 0aH, '-c,--codec <string'
	DB	'>             set encode codec', 0aH, '                      '
	DB	'           - h264(default), hevc, mpeg2, raw', 0aH, '-i,--inp'
	DB	'ut-file <filename>      set input file name', 0aH, '-o,--outp'
	DB	'ut-file <filename>     set ouput file name', 0aH, 0aH, ' Inpu'
	DB	't formats (will be estimated from extension if not set.)', 0aH
	DB	'   --raw                        set input as raw format', 0aH
	DB	'   --y4m                        set input as y4m format', 0aH
	DB	00H
	ORG $+2
$SG176362 DB	'set codec level', 00H
$SG176363 DB	'--level <string>', 00H
	ORG $+7
$SG176355 DB	0aH, '   --nv12                       set raw input as NV'
	DB	'12 color format,', 0aH, '                                if n'
	DB	'ot specified YV12 is expected', 0aH, '   --tff               '
	DB	'         set as interlaced, top field first', 0aH, '   --bff '
	DB	'                       set as interlaced, bottom field first', 0aH
	DB	'   --fps <int>/<int> or <float> video frame rate (frames per '
	DB	'second)', 0aH, 0aH, '   --input-res <int>x<int>      input re'
	DB	'solution', 0aH, '   --output-res <int>x<int>     output resol'
	DB	'ution', 0aH, '                                if different fr'
	DB	'om input, uses vpp resizing', 0aH, '                         '
	DB	'       if not set, output resolution will be same', 0aH, '   '
	DB	'                             as input (no resize will be done'
	DB	').', 0aH, '   --fixed-func                 use fixed func ins'
	DB	'tead of GPU EU (default:off)', 0aH, 0aH, 00H
	ORG $+1
$SG176365 DB	'HEVC', 00H
	ORG $+7
$SG176356 DB	'Frame buffer Options:', 0aH, ' frame buffers are selecte'
	DB	'd automatically by default.', 0aH, ' d3d9 memory is faster th'
	DB	'an d3d11, so d3d9 frames are used whenever possible,', 0aH, ' '
	DB	'except decode/vpp only mode (= no encoding mode, system frame'
	DB	's are used).', 0aH, ' On particular cases, such as runnning o'
	DB	'n a system with dGPU, or running', 0aH, ' vpp-rotate, will re'
	DB	'quire the uses of d3d11 surface.', 0aH, ' Options below will '
	DB	'change this default behavior.', 0aH, 0aH, '   --disable-d3d  '
	DB	'              disable using d3d surfaces', 0aH, '   --d3d    '
	DB	'                    use d3d9/d3d11 surfaces', 0aH, '   --d3d9'
	DB	'                       use d3d9 surfaces', 0aH, '   --d3d11  '
	DB	'                    use d3d11 surfaces', 0aH, 0aH, 00H
$SG176357 DB	'Encode Mode Options:', 0aH, ' EncMode default: --cqp', 0aH
	DB	'   --cqp <int> or               encode in Constant QP, defaul'
	DB	't %d:%d:%d', 0aH, '         <int>:<int>:<int>      set qp val'
	DB	'ue for i:p:b frame', 0aH, '   --la <int>                   se'
	DB	't bitrate in Lookahead mode (kbps)', 0aH, '   --la-hrd <int> '
	DB	'              set bitrate in HRD-Lookahead mode (kbps)', 0aH, ' '
	DB	'  --icq <int>                  encode in Intelligent Const. Q'
	DB	'uality mode', 0aH, '                                  default'
	DB	' value: %d', 0aH, '   --la-icq <int>               encode in '
	DB	'ICQ mode with Lookahead', 0aH, '                             '
	DB	'     default value: %d', 0aH, '   --cbr <int>                '
	DB	'  set bitrate in CBR mode (kbps)', 0aH, '   --vbr <int>      '
	DB	'            set bitrate in VBR mode (kbps)', 0aH, '   --avbr '
	DB	'<int>                 set bitrate in AVBR mode (kbps)', 0aH, ' '
	DB	'                                AVBR mode is only supported w'
	DB	'ith API v1.3', 0aH, '   --avbr-unitsize <int>        avbr cal'
	DB	'culation period in x100 frames', 0aH, '                      '
	DB	'           default %d (= unit size %d00 frames)', 0aH, '   --'
	DB	'qvbr <int>                 set bitrate in Quality VBR mode.', 0aH
	DB	'                                 requires --qvbr-q option to '
	DB	'be set as well', 0aH, '   --qvbr-q <int>  or           set qu'
	DB	'ality used in qvbr mode. default: %d', 0aH, '   --qvbr-qualit'
	DB	'y <int>          QVBR mode is only supported with API v1.11', 0aH
	DB	'   --vcm <int>                  set bitrate in VCM mode (kbps'
	DB	')', 0aH, 0aH, 00H
	ORG $+1
$SG176358 DB	'Other Encode Options:', 0aH, '   --fallback-rc          '
	DB	'      enable fallback of ratecontrol mode, when', 0aH, '     '
	DB	'                            platform does not support new rat'
	DB	'econtrol modes.', 0aH, '-a,--async-depth                set a'
	DB	'sync depth for QSV pipeline. (0-%d)', 0aH, '                 '
	DB	'                default: 0 (=auto, 4+2*(extra pipeline step))'
	DB	0aH, '   --max-bitrate <int>          set max bitrate(kbps)', 0aH
	DB	'   --qp-min <int> or            set min QP, default 0 (= unse'
	DB	't)', 0aH, '           <int>:<int>:<int>', 0aH, '   --qp-max <'
	DB	'int> or            set max QP, default 0 (= unset)', 0aH, '  '
	DB	'         <int>:<int>:<int>', 0aH, '   --qp-offset <int>[:<int'
	DB	'>][:<int>]...', 0aH, '                                set qp '
	DB	'offset of each pyramid reference layers.', 0aH, '            '
	DB	'                     default 0 (= unset).', 0aH, '-u,--qualit'
	DB	'y <string>           encode quality', 0aH, '                 '
	DB	'                 - best, higher, high, balanced(default)', 0aH
	DB	'                                    fast, faster, fastest', 0aH
	DB	'   --la-depth <int>             set Lookahead Depth, %d-%d', 0aH
	DB	'   --la-window-size <int>       enables Lookahead Windowed Ra'
	DB	'te Control mode,', 0aH, '                                  an'
	DB	'd set the window size in frames.', 0aH, '   --la-quality <str'
	DB	'ing>        set lookahead quality.', 0aH, '                  '
	DB	'               - auto(default), fast, medium, slow', 0aH, '  '
	DB	' --(no-)mbbrc                 enables per macro block rate co'
	DB	'ntrol', 0aH, '                                 default: auto', 0aH
	DB	'   --ref <int>                  reference frames', 0aH, '    '
	DB	'                              default %d (auto)', 0aH, '-b,--'
	DB	'bframes <int>              number of sequential b frames', 0aH
	DB	'                                  default %d(HEVC) / %d(other'
	DB	's)', 0aH, '   --(no-)b-pyramid             enables B-frame py'
	DB	'ramid reference (default:off)', 0aH, '   --(no-)direct-bias-a'
	DB	'djust    lower usage of B frame Direct/Skip type', 0aH, '   -'
	DB	'-gop-len <int>              (max) gop length, default %d (aut'
	DB	'o)', 0aH, '                                  when auto, fps x'
	DB	' 10 will be set.', 0aH, '   --(no-)open-gop              enab'
	DB	'les open gop (default:off)', 0aH, '   --strict-gop           '
	DB	'      force gop structure', 0aH, '   --(no-)i-adapt          '
	DB	'     enables adaptive I frame insert (default:off)', 0aH, '  '
	DB	' --(no-)b-adapt               enables adaptive B frame insert'
	DB	' (default:off)', 0aH, '   --(no-)weightp               enable'
	DB	' weighted prediction for P frame', 0aH, '   --(no-)weightb   '
	DB	'            enable weighted prediction for B frame', 0aH, '  '
	DB	' --(no-)adapt-ltr             enable adaptive LTR frames', 0aH
	DB	'   --(no-)repartition-check     [H.264] enable prediction fro'
	DB	'm small partitions', 0aH, '   --(no-)fade-detect           en'
	DB	'able fade detection', 0aH, '   --trellis <string>           s'
	DB	'et trellis mode used in encoding', 0aH, '                    '
	DB	'             - auto(default), off, i, ip, all', 0aH, '   --mv'
	DB	'-scaling                 set mv cost scaling', 0aH, '        '
	DB	'                         - 0  set MV cost to be 0', 0aH, '   '
	DB	'                              - 1  set MV cost 1/2 of default'
	DB	0aH, '                                 - 2  set MV cost 1/4 of'
	DB	' default', 0aH, '                                 - 3  set MV'
	DB	' cost 1/8 of default', 0aH, '   --slices <int>               '
	DB	'number of slices, default 0 (auto)', 0aH, '   --vbv-bufsize <'
	DB	'int>          set vbv buffer size (kbit) / default: auto', 0aH
	DB	'   --no-deblock                 [h264] disables H.264 deblock'
	DB	' feature', 0aH, '   --tskip                      [hevc] enabl'
	DB	'e transform skip', 0aH, '   --sao <string>               [hev'
	DB	'c]', 0aH, '                                 - auto    default'
	DB	0aH, '                                 - none    disable sao', 0aH
	DB	'                                 - luma    enable sao for lum'
	DB	'a', 0aH, '                                 - chroma  enable s'
	DB	'ao for chroma', 0aH, '                                 - all '
	DB	'    enable sao for luma & chroma', 0aH, '   --ctu <int>      '
	DB	'            [hevc] max ctu size', 0aH, '                     '
	DB	'            - auto(default), 16, 32, 64', 0aH, '   --sharpnes'
	DB	's <int>            [vp8] set sharpness level for vp8 enc', 0aH
	DB	0aH, 00H
	ORG $+3
$SG152238 DB	'gpu', 00H
$SG176367 DB	'set codec profile', 00H
	ORG $+2
$SG177664 DB	'w', 00H
	ORG $+2
$SG176368 DB	'--profile <string>', 00H
	ORG $+1
$SG176369 DB	'HEVC', 00H
	ORG $+3
$SG152245 DB	'queue', 00H
	ORG $+2
$SG177667 DB	0aH, 00H
	ORG $+2
$SG176370 DB	'set codec tier', 00H
	ORG $+1
$SG176371 DB	'--tier <string>', 00H
$SG176373 DB	'--videoformat <string>', 00H
	ORG $+1
$SG176372 DB	0aH, '   --sar <int>:<int>            set Sample Aspect R'
	DB	'atio', 0aH, '   --dar <int>:<int>            set Display Aspe'
	DB	'ct Ratio', 0aH, '   --bluray                     for H.264 bl'
	DB	'uray encoding', 0aH, 0aH, '   --crop <int>,<int>,<int>,<int>', 0aH
	DB	'                                set crop pixels of left, up, '
	DB	'right, bottom.', 0aH, 0aH, 00H
	ORG $+3
$SG176374 DB	'--colormatrix <string>', 00H
	ORG $+1
$SG176375 DB	'--colorprim <string>', 00H
	ORG $+3
$SG176376 DB	'--transfer <string>', 00H
$SG177681 DB	'%s', 0aH, 0aH, 00H
	ORG $+7
$SG176377 DB	'   --aud                        insert aud nal unit to o'
	DB	'uput stream.', 0aH, '   --pic-struct                 insert p'
	DB	'ic-timing SEI with pic_struct.', 0aH, '   --chromaloc <int>  '
	DB	'          set chroma location flag [ 0 ... 5 ]', 0aH, '      '
	DB	'                            default: 0 = unspecified', 0aH, ' '
	DB	'  --fullrange                  set stream as fullrange yuv', 0aH
	DB	'   --max-cll <int>,<int>        set MaxCLL and MaxFall in nit'
	DB	's. e.g. "1000,300"', 0aH, '   --master-display <string>    se'
	DB	't Mastering display data.', 0aH, '      e.g. "G(13250,34500)B'
	DB	'(7500,3000)R(34000,16000)WP(15635,16450)L(10000000,1)"', 0aH, 00H
	ORG $+1
$SG152221 DB	'cpu_enc', 00H
$SG176378 DB	0aH, '   --input-buf <int>            buffer size for inp'
	DB	'ut in frames (%d-%d)', 0aH, '                                '
	DB	' default   hw: %d,  sw: %d', 0aH, '                          '
	DB	'       cannot be used with avqsv reader.', 0aH, 00H
$SG152223 DB	'cpu_aud', 00H
$SG176379 DB	'   --output-buf <int>           buffer size for output i'
	DB	'n MByte', 0aH, '                                 default %d M'
	DB	'B (0-%d)', 0aH, 00H
	ORG $+1
$SG152226 DB	'cpu_out', 00H
$SG176380 DB	'   --mfx-thread <int>          set mfx thread num (-1 (a'
	DB	'uto), 2, 3, ...)', 0aH, '                                 not'
	DB	'e that mfx thread cannot be less than 2.', 0aH, '   --input-t'
	DB	'hread <int>        set input thread num', 0aH, '             '
	DB	'                     0: disable (slow, but less cpu usage)', 0aH
	DB	'                                  1: use one thread', 0aH, ' '
	DB	'  --output-thread <int>        set output thread num', 0aH, ' '
	DB	'                                -1: auto (= default)', 0aH, ' '
	DB	'                                 0: disable (slow, but less m'
	DB	'emory usage)', 0aH, '                                  1: use'
	DB	' one thread', 0aH, '   --min-memory                 minimize '
	DB	'memory usage of QSVEncC.', 0aH, '                            '
	DB	'     same as --output-thread 0 --audio-thread 0', 0aH, '     '
	DB	'                              --mfx-thread 2 -a 1 --input-buf'
	DB	' 1 --output-buf 0', 0aH, '                                 th'
	DB	'is will cause lower performance!', 0aH, '   --max-procfps <in'
	DB	't>         limit processing speed to lower resource usage.', 0aH
	DB	'                                 default:0 (no limit)', 0aH, 00H
	ORG $+3
$SG176381 DB	'   --log <string>               output log to file (txt '
	DB	'or html).', 0aH, '   --log-level <string>         set output '
	DB	'log level', 0aH, '                                 info(defau'
	DB	'lt), warn, error, debug', 0aH, '   --log-framelist <string>  '
	DB	'   output frame info for avqsv reader (for debug)', 0aH, '   '
	DB	'--log-mus-ts <string>         (for debug)', 0aH, '   --log-co'
	DB	'py-framedata <string> (for debug)', 0aH, 00H
$SG177684 DB	0aH, 00H
	ORG $+2
$SG152231 DB	'io_read', 00H
$SG176382 DB	0aH, '   --benchmark <string>         run in benchmark mo'
	DB	'de', 0aH, '                                 and write result '
	DB	'in txt file', 0aH, '   --bench-quality "all" or <string>[,<st'
	DB	'ring>][,<string>]...', 0aH, '                                '
	DB	' default: "best,balanced,fastest"', 0aH, '                   '
	DB	'             list of target quality to check on benchmark', 0aH
	DB	'   --perf-monitor [<string>][,<string>]...', 0aH, '       che'
	DB	'ck performance info of QSVEncC and output to log file', 0aH, ' '
	DB	'      select counter from below, default = all', 0aH, '   --p'
	DB	'erf-monitor-plot [<string>][,<string>]...', 0aH, '       plot'
	DB	' perf monitor realtime (required python, pyqtgraph)', 0aH, ' '
	DB	'      select counter from below, default = cpu,bitrate', 0aH, ' '
	DB	'                                ', 0aH, '     counters for pe'
	DB	'rf-monitor, perf-monitor-plot', 0aH, '                       '
	DB	'          all          ... monitor all info', 0aH, '         '
	DB	'                        cpu_total    ... cpu total usage (%%)'
	DB	0aH, '                                 cpu_kernel   ... cpu ke'
	DB	'rnel usage (%%)', 0aH, '                                 cpu_'
	DB	'main     ... cpu main thread usage (%%)', 0aH, '             '
	DB	'                    cpu_enc      ... cpu encode thread usage '
	DB	'(%%)', 0aH, '                                 cpu_in       ..'
	DB	'. cpu input thread usage (%%)', 0aH, '                       '
	DB	'          cpu_out      ... cpu output thread usage (%%)', 0aH
	DB	'                                 cpu_aud_proc ... cpu aud pro'
	DB	'c thread usage (%%)', 0aH, '                                 '
	DB	'cpu_aud_enc  ... cpu aud enc thread usage (%%)', 0aH, '      '
	DB	'                           cpu          ... monitor all cpu i'
	DB	'nfo', 0aH, '                                 gpu_load    ... '
	DB	'gpu usage (%%)', 0aH, '                                 gpu_c'
	DB	'lock   ... gpu avg clock (%%)', 0aH, '                       '
	DB	'          gpu         ... monitor all gpu info', 0aH, '      '
	DB	'                           queue       ... queue usage', 0aH, ' '
	DB	'                                mem_private ... private memor'
	DB	'y (MB)', 0aH, '                                 mem_virtual .'
	DB	'.. virtual memory (MB)', 0aH, '                              '
	DB	'   mem         ... monitor all memory info', 0aH, '          '
	DB	'                       io_read     ... io read  (MB/s)', 0aH, ' '
	DB	'                                io_write    ... io write (MB/'
	DB	's)', 0aH, '                                 io          ... m'
	DB	'onitor all io info', 0aH, '                                 f'
	DB	'ps         ... encode speed (fps)', 0aH, '                   '
	DB	'              fps_avg     ... encode avg. speed (fps)', 0aH, ' '
	DB	'                                bitrate     ... encode bitrat'
	DB	'e (kbps)', 0aH, '                                 bitrate_avg'
	DB	' ... encode avg. bitrate (kbps)', 0aH, '                     '
	DB	'            frame_out   ... written_frames', 0aH, '          '
	DB	'                       ', 0aH, '   --python <string>         '
	DB	'   set python path for --perf-monitor-plot', 0aH, '          '
	DB	'                       default: python', 0aH, '   --perf-moni'
	DB	'tor-interval <int> set perf monitor check interval (millisec)'
	DB	0aH, '                                 default 250, must be 50'
	DB	' or more', 0aH, '   --(no-)timer-period-tuning   enable(disab'
	DB	'le) timer period tuning', 0aH, '                             '
	DB	'     default: enabled', 0aH, 00H
	ORG $+4
$SG176383 DB	0aH, 'VPP Options:', 0aH, '   --vpp-denoise <int>        '
	DB	'  use vpp denoise, set strength (%d-%d)', 0aH, '   --vpp-mctf'
	DB	' ["auto" or <int>] use vpp motion compensated temporal filter'
	DB	'(mctf)', 0aH, '                                  set strength'
	DB	' (%d-%d), default: %d (auto)', 0aH, '   --vpp-detail-enhance '
	DB	'<int>   use vpp detail enahancer, set strength (%d-%d)', 0aH, ' '
	DB	'  --vpp-deinterlace <string>   set vpp deinterlace mode', 0aH
	DB	'                                 - none     disable deinterla'
	DB	'ce', 0aH, '                                 - normal   normal'
	DB	' deinterlace', 0aH, '                                 - it   '
	DB	'    inverse telecine', 0aH, '                                '
	DB	' - bob      double framerate', 0aH, '   --vpp-image-stab <str'
	DB	'ing>    set image stabilizer mode', 0aH, '                   '
	DB	'              - none, upscale, box', 0aH, '   --vpp-rotate <i'
	DB	'nt>           rotate image', 0aH, '                          '
	DB	'       90, 180, 270.', 0aH, '   --vpp-mirror <string>        '
	DB	'mirror image', 0aH, '                                 - h   m'
	DB	'irror in horizontal direction', 0aH, '                       '
	DB	'          - v   mirror in vertical   direction', 0aH, '   --v'
	DB	'pp-half-turn              half turn video image', 0aH, '     '
	DB	'                            unoptimized and very slow.', 0aH, ' '
	DB	'  --vpp-resize <string>        set scaling quality', 0aH, '  '
	DB	'                               - auto(default)', 0aH, '      '
	DB	'                           - simple   use simple scaling', 0aH
	DB	'                                 - fine     use high quality '
	DB	'scaling', 0aH, '   --vpp-delogo <string>        set delogo fi'
	DB	'le path', 0aH, '   --vpp-delogo-select <string> set target lo'
	DB	'go name or auto select file', 0aH, '                         '
	DB	'        or logo index starting from 1.', 0aH, '   --vpp-delog'
	DB	'o-pos <int>:<int> set delogo pos offset', 0aH, '   --vpp-delo'
	DB	'go-depth <int>     set delogo depth [default:%d]', 0aH, '   -'
	DB	'-vpp-delogo-y  <int>        set delogo y  param', 0aH, '   --'
	DB	'vpp-delogo-cb <int>        set delogo cb param', 0aH, '   --v'
	DB	'pp-delogo-cr <int>        set delogo cr param', 0aH, '   --vp'
	DB	'p-delogo-add             add logo mode', 0aH, 00H
	ORG $+2
$SG127239 DB	'atlTraceISAPI', 00H
	ORG $+2
$SG152218 DB	'cpu_total', 00H
	ORG $+2
$SG177687 DB	0aH, 00H
	ORG $+2
$SG152219 DB	'cpu_kernel', 00H
	ORG $+1
$SG177728 DB	'%s', 00H
	ORG $+1
$SG152220 DB	'cpu_main', 00H
	ORG $+3
$SG177731 DB	'%s', 00H
	ORG $+1
$SG152224 DB	'cpu_aud_proc', 00H
	ORG $+3
$SG152225 DB	'cpu_aud_enc', 00H
$SG177757 DB	'64', 00H
	ORG $+1
$SG152228 DB	'mem_private', 00H
$SG203433 DB	'%s', 00H
	ORG $+1
$SG152229 DB	'mem_virtual', 00H
$SG138334 DB	'S', 00H
	ORG $+2
$SG152232 DB	'io_write', 00H
	ORG $+3
$SG138336 DB	'M', 00H
	ORG $+2
$SG152234 DB	'fps_avg', 00H
$SG152235 DB	'bitrate', 00H
$SG152236 DB	'bitrate_avg', 00H
$SG138338 DB	'D', 00H
	ORG $+2
$SG152237 DB	'frame_out', 00H
	ORG $+2
$SG138340 DB	'B', 00H
	ORG $+2
$SG152239 DB	'gpu_load', 00H
	ORG $+3
$SG138342 DB	'Val', 00H
$SG152240 DB	'gpu_clock', 00H
	ORG $+2
$SG138348 DB	'Delete', 00H
	ORG $+1
$SG114007 DB	'rgb', 00H
$SG152241 DB	'vee_load', 00H
	ORG $+3
$SG113979 DB	'yuv422', 00H
	ORG $+1
$SG114009 DB	'gbr', 00H
$SG152242 DB	'ved_load', 00H
	ORG $+3
$SG113981 DB	'yuv444', 00H
	ORG $+1
$SG114012 DB	'y8', 00H
	ORG $+1
$SG152243 DB	'pcie_load', 00H
	ORG $+2
$SG114001 DB	'rgb24r', 00H
	ORG $+1
$SG139128 DB	'SAM', 00H
$SG152244 DB	've_clock', 00H
	ORG $+7
$SG201489 DB	'C:\Program Files (x86)\Microsoft Visual Studio\2019\Comm'
	DB	'unity\VC\Tools\MSVC\14.23.28105\include\xlocale', 00H
$SG177666 DB	'[DEBUG]--->Checking for QSV...', 0aH, 00H
$SG177668 DB	'Software', 00H
	ORG $+3
$SG114002 DB	'rgb32r', 00H
	ORG $+5
$SG177669 DB	'Hardware', 00H
	ORG $+7
$SG177674 DB	'QSV unavailable.', 0aH, 00H
	ORG $+6
$SG177675 DB	'Media SDK %s unavailable.', 0aH, 00H
	ORG $+5
$SG177677 DB	'Media SDK Version: ', 00H
	ORG $+4
$SG177678 DB	'%s API v%d.%d', 0aH, 0aH, 00H
$SG177679 DB	'[DEBUG]--->Supported Enc features:', 0aH, 00H
	ORG $+4
$SG177680 DB	'[DEBUG]--->Supported Enc features size = (%d):', 0aH, 00H
$SG177683 DB	'Supported Vpp features:', 0aH, 00H
	ORG $+3
$SG177685 DB	'%s', 0aH, 0aH, 00H
	ORG $+7
$SG177686 DB	'Supported Decode features:', 0aH, 00H
$SG177688 DB	'%s', 0aH, 0aH, 00H
	ORG $+3
$SG177691 DB	'open', 00H
	ORG $+3
$SG177723 DB	'help', 00H
	ORG $+7
$SG177725 DB	'version', 00H
$SG177727 DB	'check-environment', 00H
	ORG $+6
$SG177730 DB	'check-environment-auo', 00H
	ORG $+2
$SG177733 DB	'Media SDK Version: Hardware API v%d.%d', 0aH, 0aH, 00H
	ORG $+7
$SG177735 DB	'check-features', 00H
	ORG $+1
$SG177739 DB	'check-features-auo', 00H
	ORG $+5
$SG177742 DB	'check-features-html', 00H
	ORG $+4
$SG177747 DB	'check-hw', 00H
	ORG $+7
$SG177748 DB	'hw-check', 00H
	ORG $+7
$SG177751 DB	'Success: QuickSyncVideo (hw encoding) available', 0aH, 00H
	ORG $+7
$SG177752 DB	'Error: QuickSyncVideo (hw encoding) unavailable', 0aH, 00H
	ORG $+7
$SG177755 DB	'lib-check', 00H
	ORG $+6
$SG177756 DB	'check-lib', 00H
	ORG $+6
$SG177760 DB	'libmfxhw%s.dll : v%d.%d', 0aH, 00H
	ORG $+7
$SG177761 DB	'libmfxhw%s.dll : ----', 0aH, 00H
	ORG $+1
$SG177764 DB	'libmfxsw%s.dll : v%d.%d', 0aH, 00H
	ORG $+7
$SG177765 DB	'libmfxsw%s.dll : ----', 0aH, 00H
	ORG $+1
$SG177775 DB	'failed to set signal handler.', 0aH, 00H
	ORG $+1
$SG178000 DB	0aH, 'ERROR: Hardware device was lost or returned an unex'
	DB	'pected error. Recovering...', 0aH, 00H
	ORG $+7
$SG203432 DB	'invalid argument', 00H
	ORG $+7
$SG203434 DB	'C:\Program Files (x86)\Microsoft Visual Studio\2019\Comm'
	DB	'unity\VC\Tools\MSVC\14.23.28105\include\xmemory', 00H
$SG203437 DB	'"', 00H, 'i', 00H, 'n', 00H, 'v', 00H, 'a', 00H, 'l', 00H
	DB	'i', 00H, 'd', 00H, ' ', 00H, 'a', 00H, 'r', 00H, 'g', 00H, 'u'
	DB	00H, 'm', 00H, 'e', 00H, 'n', 00H, 't', 00H, '"', 00H, 00H, 00H
	ORG $+2
$SG203435 DB	'C', 00H, ':', 00H, '\', 00H, 'P', 00H, 'r', 00H, 'o', 00H
	DB	'g', 00H, 'r', 00H, 'a', 00H, 'm', 00H, ' ', 00H, 'F', 00H, 'i'
	DB	00H, 'l', 00H, 'e', 00H, 's', 00H, ' ', 00H, '(', 00H, 'x', 00H
	DB	'8', 00H, '6', 00H, ')', 00H, '\', 00H, 'M', 00H, 'i', 00H, 'c'
	DB	00H, 'r', 00H, 'o', 00H, 's', 00H, 'o', 00H, 'f', 00H, 't', 00H
	DB	' ', 00H, 'V', 00H, 'i', 00H, 's', 00H, 'u', 00H, 'a', 00H, 'l'
	DB	00H, ' ', 00H, 'S', 00H, 't', 00H, 'u', 00H, 'd', 00H, 'i', 00H
	DB	'o', 00H, '\', 00H, '2', 00H, '0', 00H, '1', 00H, '9', 00H, '\'
	DB	00H, 'C', 00H, 'o', 00H, 'm', 00H, 'm', 00H, 'u', 00H, 'n', 00H
	DB	'i', 00H, 't', 00H, 'y', 00H, '\', 00H, 'V', 00H, 'C', 00H, '\'
	DB	00H, 'T', 00H, 'o', 00H, 'o', 00H, 'l', 00H, 's', 00H, '\', 00H
	DB	'M', 00H, 'S', 00H, 'V', 00H, 'C', 00H, '\', 00H, '1', 00H, '4'
	DB	00H, '.', 00H, '2', 00H, '3', 00H, '.', 00H, '2', 00H, '8', 00H
	DB	'1', 00H, '0', 00H, '5', 00H, '\', 00H, 'i', 00H, 'n', 00H, 'c'
	DB	00H, 'l', 00H, 'u', 00H, 'd', 00H, 'e', 00H, '\', 00H, 'x', 00H
	DB	'm', 00H, 'e', 00H, 'm', 00H, 'o', 00H, 'r', 00H, 'y', 00H, 00H
	DB	00H
$SG203436 DB	's', 00H, 't', 00H, 'd', 00H, ':', 00H, ':', 00H, '_', 00H
	DB	'A', 00H, 'l', 00H, 'l', 00H, 'o', 00H, 'c', 00H, 'a', 00H, 't'
	DB	00H, 'e', 00H, '_', 00H, 'm', 00H, 'a', 00H, 'n', 00H, 'u', 00H
	DB	'a', 00H, 'l', 00H, 'l', 00H, 'y', 00H, '_', 00H, 'v', 00H, 'e'
	DB	00H, 'c', 00H, 't', 00H, 'o', 00H, 'r', 00H, '_', 00H, 'a', 00H
	DB	'l', 00H, 'i', 00H, 'g', 00H, 'n', 00H, 'e', 00H, 'd', 00H, 00H
	DB	00H
	ORG $+2
$SG138344 DB	'ForceRemove', 00H
	ORG $+4
$SG138346 DB	'NoRemove', 00H
	ORG $+7
$SG113975 DB	'Invalid', 00H
$SG113976 DB	'nv12', 00H
	ORG $+3
$SG113977 DB	'yv12', 00H
	ORG $+3
$SG113978 DB	'yuy2', 00H
	ORG $+3
$SG113980 DB	'nv16', 00H
	ORG $+3
$SG113982 DB	'yv12(9bit)', 00H
	ORG $+5
$SG113983 DB	'yv12(10bit)', 00H
	ORG $+4
$SG113984 DB	'yv12(12bit)', 00H
	ORG $+4
$SG113985 DB	'yv12(14bit)', 00H
	ORG $+4
$SG113986 DB	'yv12(16bit)', 00H
$SG113987 DB	'p010', 00H
	ORG $+7
$SG113988 DB	'yuv422(9bit)', 00H
	ORG $+3
$SG113989 DB	'yuv422(10bit)', 00H
	ORG $+2
$SG113990 DB	'yuv422(12bit)', 00H
	ORG $+2
$SG113991 DB	'yuv422(14bit)', 00H
	ORG $+2
$SG113992 DB	'yuv422(16bit)', 00H
	ORG $+2
$SG113993 DB	'p210', 00H
	ORG $+3
$SG113994 DB	'yuv444(9bit)', 00H
	ORG $+3
$SG113995 DB	'yuv444(10bit)', 00H
	ORG $+2
$SG113996 DB	'yuv444(12bit)', 00H
	ORG $+2
$SG113997 DB	'yuv444(14bit)', 00H
	ORG $+2
$SG113998 DB	'yuv444(16bit)', 00H
	ORG $+2
$SG113999 DB	'yuva444', 00H
$SG114000 DB	'yuva444(16bit)', 00H
	ORG $+1
$SG114003 DB	'rgb24', 00H
	ORG $+2
$SG114004 DB	'rgb32', 00H
	ORG $+2
$SG114005 DB	'bgr24', 00H
	ORG $+2
$SG114006 DB	'bgr32', 00H
	ORG $+2
$SG114008 DB	'rgba', 00H
	ORG $+3
$SG114010 DB	'gbra', 00H
	ORG $+3
$SG114011 DB	'yc48', 00H
	ORG $+3
$SG114013 DB	'yc16', 00H
	ORG $+3
$SG139121 DB	'AppID', 00H
	ORG $+2
$SG139122 DB	'CLSID', 00H
	ORG $+2
$SG139123 DB	'Component Categories', 00H
	ORG $+3
$SG139124 DB	'FileType', 00H
	ORG $+7
$SG139125 DB	'Interface', 00H
	ORG $+6
$SG139126 DB	'Hardware', 00H
	ORG $+3
$SG139127 DB	'Mime', 00H
	ORG $+7
$SG139129 DB	'SECURITY', 00H
	ORG $+3
$SG139130 DB	'SYSTEM', 00H
	ORG $+5
$SG139131 DB	'Software', 00H
	ORG $+7
$SG139132 DB	'TypeLib', 00H
CONST	ENDS
PUBLIC	?__empty_global_delete@@YAXPEAX@Z		; __empty_global_delete
PUBLIC	?__empty_global_delete@@YAXPEAX_K@Z		; __empty_global_delete
PUBLIC	??2@YAPEAX_KPEAX@Z				; operator new
PUBLIC	__local_stdio_printf_options
PUBLIC	_vswprintf_s_l
PUBLIC	swprintf_s
PUBLIC	_vfprintf_l
PUBLIC	fprintf
PUBLIC	printf
PUBLIC	_vsnprintf_s_l
PUBLIC	_vsnprintf_s
PUBLIC	_vscprintf_l
PUBLIC	_vscprintf
PUBLIC	??0exception@std@@QEAA@QEBDH@Z			; std::exception::exception
PUBLIC	??0exception@std@@QEAA@AEBV01@@Z		; std::exception::exception
PUBLIC	??1exception@std@@UEAA@XZ			; std::exception::~exception
PUBLIC	?what@exception@std@@UEBAPEBDXZ			; std::exception::what
PUBLIC	??_Gexception@std@@UEAAPEAXI@Z			; std::exception::`scalar deleting destructor'
PUBLIC	??0bad_alloc@std@@AEAA@QEBD@Z			; std::bad_alloc::bad_alloc
PUBLIC	??1bad_alloc@std@@UEAA@XZ			; std::bad_alloc::~bad_alloc
PUBLIC	??0bad_alloc@std@@QEAA@AEBV01@@Z		; std::bad_alloc::bad_alloc
PUBLIC	??_Gbad_alloc@std@@UEAAPEAXI@Z			; std::bad_alloc::`scalar deleting destructor'
PUBLIC	??0bad_array_new_length@std@@QEAA@XZ		; std::bad_array_new_length::bad_array_new_length
PUBLIC	??1bad_array_new_length@std@@UEAA@XZ		; std::bad_array_new_length::~bad_array_new_length
PUBLIC	??0bad_array_new_length@std@@QEAA@AEBV01@@Z	; std::bad_array_new_length::bad_array_new_length
PUBLIC	??_Gbad_array_new_length@std@@UEAAPEAXI@Z	; std::bad_array_new_length::`scalar deleting destructor'
PUBLIC	?_Throw_bad_array_new_length@std@@YAXXZ		; std::_Throw_bad_array_new_length
PUBLIC	wmemcpy
PUBLIC	?max@?$numeric_limits@_J@std@@SA_JXZ		; std::numeric_limits<__int64>::max
PUBLIC	?_Allocate@_Default_allocate_traits@std@@SAPEAX_K@Z ; std::_Default_allocate_traits::_Allocate
PUBLIC	?_Adjust_manually_vector_aligned@std@@YAXAEAPEAXAEA_K@Z ; std::_Adjust_manually_vector_aligned
PUBLIC	??$_Convert_size@_K@std@@YA_K_K@Z		; std::_Convert_size<unsigned __int64>
PUBLIC	??0_Container_proxy@std@@QEAA@PEAU_Container_base12@1@@Z ; std::_Container_proxy::_Container_proxy
PUBLIC	??0_Container_base12@std@@QEAA@XZ		; std::_Container_base12::_Container_base12
PUBLIC	?_Orphan_all@_Container_base12@std@@QEAAXXZ	; std::_Container_base12::_Orphan_all
PUBLIC	?_Swap_proxy_and_iterators@_Container_base12@std@@QEAAXAEAU12@@Z ; std::_Container_base12::_Swap_proxy_and_iterators
PUBLIC	??0_Iterator_base12@std@@QEAA@XZ		; std::_Iterator_base12::_Iterator_base12
PUBLIC	??1_Iterator_base12@std@@QEAA@XZ		; std::_Iterator_base12::~_Iterator_base12
PUBLIC	?_Adopt@_Iterator_base12@std@@QEAAXPEBU_Container_base12@2@@Z ; std::_Iterator_base12::_Adopt
PUBLIC	?_Getcont@_Iterator_base12@std@@QEBAPEBU_Container_base12@2@XZ ; std::_Iterator_base12::_Getcont
PUBLIC	?_Orphan_me@_Iterator_base12@std@@QEAAXXZ	; std::_Iterator_base12::_Orphan_me
PUBLIC	?_Release@_Basic_container_proxy_ptr12@std@@QEAAXXZ ; std::_Basic_container_proxy_ptr12::_Release
PUBLIC	?length@?$_Narrow_char_traits@DH@std@@SA_KQEBD@Z ; std::_Narrow_char_traits<char,int>::length
PUBLIC	?copy@?$_Narrow_char_traits@DH@std@@SAPEADQEADQEBD_K@Z ; std::_Narrow_char_traits<char,int>::copy
PUBLIC	?move@?$_Narrow_char_traits@DH@std@@SAPEADQEADQEBD_K@Z ; std::_Narrow_char_traits<char,int>::move
PUBLIC	?assign@?$_Narrow_char_traits@DH@std@@SAXAEADAEBD@Z ; std::_Narrow_char_traits<char,int>::assign
PUBLIC	?eq@?$_Narrow_char_traits@DH@std@@SA_NAEBD0@Z	; std::_Narrow_char_traits<char,int>::eq
PUBLIC	?to_char_type@?$_Narrow_char_traits@DH@std@@SADAEBH@Z ; std::_Narrow_char_traits<char,int>::to_char_type
PUBLIC	?to_int_type@?$_Narrow_char_traits@DH@std@@SAHAEBD@Z ; std::_Narrow_char_traits<char,int>::to_int_type
PUBLIC	?eq_int_type@?$_Narrow_char_traits@DH@std@@SA_NAEBH0@Z ; std::_Narrow_char_traits<char,int>::eq_int_type
PUBLIC	?not_eof@?$_Narrow_char_traits@DH@std@@SAHAEBH@Z ; std::_Narrow_char_traits<char,int>::not_eof
PUBLIC	?eof@?$_Narrow_char_traits@DH@std@@SAHXZ	; std::_Narrow_char_traits<char,int>::eof
PUBLIC	??0?$allocator@D@std@@QEAA@XZ			; std::allocator<char>::allocator<char>
PUBLIC	?deallocate@?$allocator@D@std@@QEAAXQEAD_K@Z	; std::allocator<char>::deallocate
PUBLIC	?allocate@?$allocator@D@std@@QEAAPEAD_K@Z	; std::allocator<char>::allocate
PUBLIC	?max_size@?$_Default_allocator_traits@V?$allocator@D@std@@@std@@SA_KAEBV?$allocator@D@2@@Z ; std::_Default_allocator_traits<std::allocator<char> >::max_size
PUBLIC	?select_on_container_copy_construction@?$_Default_allocator_traits@V?$allocator@D@std@@@std@@SA?AV?$allocator@D@2@AEBV32@@Z ; std::_Default_allocator_traits<std::allocator<char> >::select_on_container_copy_construction
PUBLIC	??0?$_String_val@U?$_Simple_types@D@std@@@std@@QEAA@XZ ; std::_String_val<std::_Simple_types<char> >::_String_val<std::_Simple_types<char> >
PUBLIC	?_Myptr@?$_String_val@U?$_Simple_types@D@std@@@std@@QEAAPEADXZ ; std::_String_val<std::_Simple_types<char> >::_Myptr
PUBLIC	?_Myptr@?$_String_val@U?$_Simple_types@D@std@@@std@@QEBAPEBDXZ ; std::_String_val<std::_Simple_types<char> >::_Myptr
PUBLIC	?_Large_string_engaged@?$_String_val@U?$_Simple_types@D@std@@@std@@QEBA_NXZ ; std::_String_val<std::_Simple_types<char> >::_Large_string_engaged
PUBLIC	?_Check_offset@?$_String_val@U?$_Simple_types@D@std@@@std@@QEBAX_K@Z ; std::_String_val<std::_Simple_types<char> >::_Check_offset
PUBLIC	?_Xran@?$_String_val@U?$_Simple_types@D@std@@@std@@SAXXZ ; std::_String_val<std::_Simple_types<char> >::_Xran
PUBLIC	?_Clamp_suffix_size@?$_String_val@U?$_Simple_types@D@std@@@std@@QEBA_K_K0@Z ; std::_String_val<std::_Simple_types<char> >::_Clamp_suffix_size
PUBLIC	??0_Bxty@?$_String_val@U?$_Simple_types@D@std@@@std@@QEAA@XZ ; std::_String_val<std::_Simple_types<char> >::_Bxty::_Bxty
PUBLIC	??1_Bxty@?$_String_val@U?$_Simple_types@D@std@@@std@@QEAA@XZ ; std::_String_val<std::_Simple_types<char> >::_Bxty::~_Bxty
PUBLIC	??1?$_String_val@U?$_Simple_types@D@std@@@std@@QEAA@XZ ; std::_String_val<std::_Simple_types<char> >::~_String_val<std::_Simple_types<char> >
PUBLIC	??0?$basic_string@DU?$char_traits@D@std@@V?$allocator@D@2@@std@@QEAA@AEBV01@@Z ; std::basic_string<char,std::char_traits<char>,std::allocator<char> >::basic_string<char,std::char_traits<char>,std::allocator<char> >
PUBLIC	??0?$basic_string@DU?$char_traits@D@std@@V?$allocator@D@2@@std@@QEAA@XZ ; std::basic_string<char,std::char_traits<char>,std::allocator<char> >::basic_string<char,std::char_traits<char>,std::allocator<char> >
PUBLIC	??0?$basic_string@DU?$char_traits@D@std@@V?$allocator@D@2@@std@@QEAA@AEBV?$allocator@D@1@@Z ; std::basic_string<char,std::char_traits<char>,std::allocator<char> >::basic_string<char,std::char_traits<char>,std::allocator<char> >
PUBLIC	??0?$basic_string@DU?$char_traits@D@std@@V?$allocator@D@2@@std@@QEAA@QEBD@Z ; std::basic_string<char,std::char_traits<char>,std::allocator<char> >::basic_string<char,std::char_traits<char>,std::allocator<char> >
PUBLIC	??0?$basic_string@DU?$char_traits@D@std@@V?$allocator@D@2@@std@@QEAA@$$QEAV01@@Z ; std::basic_string<char,std::char_traits<char>,std::allocator<char> >::basic_string<char,std::char_traits<char>,std::allocator<char> >
PUBLIC	?_Memcpy_val_from@?$basic_string@DU?$char_traits@D@std@@V?$allocator@D@2@@std@@AEAAXAEBV12@@Z ; std::basic_string<char,std::char_traits<char>,std::allocator<char> >::_Memcpy_val_from
PUBLIC	?_Take_contents@?$basic_string@DU?$char_traits@D@std@@V?$allocator@D@2@@std@@AEAAXAEAV12@U?$integral_constant@_N$00@2@@Z ; std::basic_string<char,std::char_traits<char>,std::allocator<char> >::_Take_contents
PUBLIC	?_Construct_lv_contents@?$basic_string@DU?$char_traits@D@std@@V?$allocator@D@2@@std@@AEAAXAEBV12@@Z ; std::basic_string<char,std::char_traits<char>,std::allocator<char> >::_Construct_lv_contents
PUBLIC	??1?$basic_string@DU?$char_traits@D@std@@V?$allocator@D@2@@std@@QEAA@XZ ; std::basic_string<char,std::char_traits<char>,std::allocator<char> >::~basic_string<char,std::char_traits<char>,std::allocator<char> >
PUBLIC	??4?$basic_string@DU?$char_traits@D@std@@V?$allocator@D@2@@std@@QEAAAEAV01@QEBD@Z ; std::basic_string<char,std::char_traits<char>,std::allocator<char> >::operator=
PUBLIC	??Y?$basic_string@DU?$char_traits@D@std@@V?$allocator@D@2@@std@@QEAAAEAV01@AEBV01@@Z ; std::basic_string<char,std::char_traits<char>,std::allocator<char> >::operator+=
PUBLIC	??Y?$basic_string@DU?$char_traits@D@std@@V?$allocator@D@2@@std@@QEAAAEAV01@QEBD@Z ; std::basic_string<char,std::char_traits<char>,std::allocator<char> >::operator+=
PUBLIC	?append@?$basic_string@DU?$char_traits@D@std@@V?$allocator@D@2@@std@@QEAAAEAV12@AEBV12@@Z ; std::basic_string<char,std::char_traits<char>,std::allocator<char> >::append
PUBLIC	?append@?$basic_string@DU?$char_traits@D@std@@V?$allocator@D@2@@std@@QEAAAEAV12@QEBD_K@Z ; std::basic_string<char,std::char_traits<char>,std::allocator<char> >::append
PUBLIC	?append@?$basic_string@DU?$char_traits@D@std@@V?$allocator@D@2@@std@@QEAAAEAV12@QEBD@Z ; std::basic_string<char,std::char_traits<char>,std::allocator<char> >::append
PUBLIC	?assign@?$basic_string@DU?$char_traits@D@std@@V?$allocator@D@2@@std@@QEAAAEAV12@QEBD_K@Z ; std::basic_string<char,std::char_traits<char>,std::allocator<char> >::assign
PUBLIC	?assign@?$basic_string@DU?$char_traits@D@std@@V?$allocator@D@2@@std@@QEAAAEAV12@QEBD@Z ; std::basic_string<char,std::char_traits<char>,std::allocator<char> >::assign
PUBLIC	?erase@?$basic_string@DU?$char_traits@D@std@@V?$allocator@D@2@@std@@QEAAAEAV12@_K_K@Z ; std::basic_string<char,std::char_traits<char>,std::allocator<char> >::erase
PUBLIC	?push_back@?$basic_string@DU?$char_traits@D@std@@V?$allocator@D@2@@std@@QEAAXD@Z ; std::basic_string<char,std::char_traits<char>,std::allocator<char> >::push_back
PUBLIC	?front@?$basic_string@DU?$char_traits@D@std@@V?$allocator@D@2@@std@@QEAAAEADXZ ; std::basic_string<char,std::char_traits<char>,std::allocator<char> >::front
PUBLIC	?c_str@?$basic_string@DU?$char_traits@D@std@@V?$allocator@D@2@@std@@QEBAPEBDXZ ; std::basic_string<char,std::char_traits<char>,std::allocator<char> >::c_str
PUBLIC	?data@?$basic_string@DU?$char_traits@D@std@@V?$allocator@D@2@@std@@QEBAPEBDXZ ; std::basic_string<char,std::char_traits<char>,std::allocator<char> >::data
PUBLIC	?length@?$basic_string@DU?$char_traits@D@std@@V?$allocator@D@2@@std@@QEBA_KXZ ; std::basic_string<char,std::char_traits<char>,std::allocator<char> >::length
PUBLIC	?size@?$basic_string@DU?$char_traits@D@std@@V?$allocator@D@2@@std@@QEBA_KXZ ; std::basic_string<char,std::char_traits<char>,std::allocator<char> >::size
PUBLIC	?max_size@?$basic_string@DU?$char_traits@D@std@@V?$allocator@D@2@@std@@QEBA_KXZ ; std::basic_string<char,std::char_traits<char>,std::allocator<char> >::max_size
PUBLIC	?reserve@?$basic_string@DU?$char_traits@D@std@@V?$allocator@D@2@@std@@QEAAX_K@Z ; std::basic_string<char,std::char_traits<char>,std::allocator<char> >::reserve
PUBLIC	?_Calculate_growth@?$basic_string@DU?$char_traits@D@std@@V?$allocator@D@2@@std@@CA_K_K00@Z ; std::basic_string<char,std::char_traits<char>,std::allocator<char> >::_Calculate_growth
PUBLIC	?_Calculate_growth@?$basic_string@DU?$char_traits@D@std@@V?$allocator@D@2@@std@@AEBA_K_K@Z ; std::basic_string<char,std::char_traits<char>,std::allocator<char> >::_Calculate_growth
PUBLIC	?_Become_small@?$basic_string@DU?$char_traits@D@std@@V?$allocator@D@2@@std@@AEAAXXZ ; std::basic_string<char,std::char_traits<char>,std::allocator<char> >::_Become_small
PUBLIC	?_Tidy_init@?$basic_string@DU?$char_traits@D@std@@V?$allocator@D@2@@std@@AEAAXXZ ; std::basic_string<char,std::char_traits<char>,std::allocator<char> >::_Tidy_init
PUBLIC	?_Tidy_deallocate@?$basic_string@DU?$char_traits@D@std@@V?$allocator@D@2@@std@@AEAAXXZ ; std::basic_string<char,std::char_traits<char>,std::allocator<char> >::_Tidy_deallocate
PUBLIC	?_Xlen@?$basic_string@DU?$char_traits@D@std@@V?$allocator@D@2@@std@@CAXXZ ; std::basic_string<char,std::char_traits<char>,std::allocator<char> >::_Xlen
PUBLIC	?_Swap_proxy_and_iterators@?$basic_string@DU?$char_traits@D@std@@V?$allocator@D@2@@std@@AEAAXAEAV12@@Z ; std::basic_string<char,std::char_traits<char>,std::allocator<char> >::_Swap_proxy_and_iterators
PUBLIC	?_Getal@?$basic_string@DU?$char_traits@D@std@@V?$allocator@D@2@@std@@AEAAAEAV?$allocator@D@2@XZ ; std::basic_string<char,std::char_traits<char>,std::allocator<char> >::_Getal
PUBLIC	?_Getal@?$basic_string@DU?$char_traits@D@std@@V?$allocator@D@2@@std@@AEBAAEBV?$allocator@D@2@XZ ; std::basic_string<char,std::char_traits<char>,std::allocator<char> >::_Getal
PUBLIC	?_Get_first@?$_Compressed_pair@V?$allocator@D@std@@V?$_String_val@U?$_Simple_types@D@std@@@2@$00@std@@QEAAAEAV?$allocator@D@2@XZ ; std::_Compressed_pair<std::allocator<char>,std::_String_val<std::_Simple_types<char> >,1>::_Get_first
PUBLIC	?_Get_first@?$_Compressed_pair@V?$allocator@D@std@@V?$_String_val@U?$_Simple_types@D@std@@@2@$00@std@@QEBAAEBV?$allocator@D@2@XZ ; std::_Compressed_pair<std::allocator<char>,std::_String_val<std::_Simple_types<char> >,1>::_Get_first
PUBLIC	??1?$_Compressed_pair@V?$allocator@D@std@@V?$_String_val@U?$_Simple_types@D@std@@@2@$00@std@@QEAA@XZ ; std::_Compressed_pair<std::allocator<char>,std::_String_val<std::_Simple_types<char> >,1>::~_Compressed_pair<std::allocator<char>,std::_String_val<std::_Simple_types<char> >,1>
PUBLIC	??0bad_cast@std@@QEAA@XZ			; std::bad_cast::bad_cast
PUBLIC	??1bad_cast@std@@UEAA@XZ			; std::bad_cast::~bad_cast
PUBLIC	??0bad_cast@std@@QEAA@AEBV01@@Z			; std::bad_cast::bad_cast
PUBLIC	??_Gbad_cast@std@@UEAAPEAXI@Z			; std::bad_cast::`scalar deleting destructor'
PUBLIC	?_Throw_bad_cast@std@@YAXXZ			; std::_Throw_bad_cast
PUBLIC	??1locale@std@@QEAA@XZ				; std::locale::~locale
PUBLIC	?_Getfacet@locale@std@@QEBAPEBVfacet@12@_K@Z	; std::locale::_Getfacet
PUBLIC	??$_Maklocstr@_W@std@@YAPEA_WPEBDPEA_WAEBU_Cvtvec@@@Z ; std::_Maklocstr<wchar_t>
PUBLIC	?_Maklocwcs@std@@YAPEA_WPEB_W@Z			; std::_Maklocwcs
PUBLIC	??$_Fgetc@D@std@@YA_NAEADPEAU_iobuf@@@Z		; std::_Fgetc<char>
PUBLIC	??$_Fputc@D@std@@YA_NDPEAU_iobuf@@@Z		; std::_Fputc<char>
PUBLIC	??$_Ungetc@D@std@@YA_NAEBDPEAU_iobuf@@@Z	; std::_Ungetc<char>
PUBLIC	??$_Getvals@_W@?$time_get@DV?$istreambuf_iterator@DU?$char_traits@D@std@@@std@@@std@@IEAAX_WAEBV_Locinfo@1@@Z ; std::time_get<char,std::istreambuf_iterator<char,std::char_traits<char> > >::_Getvals<wchar_t>
PUBLIC	??$_Getvals@_W@?$time_get@_WV?$istreambuf_iterator@_WU?$char_traits@_W@std@@@std@@@std@@IEAAX_WAEBV_Locinfo@1@@Z ; std::time_get<wchar_t,std::istreambuf_iterator<wchar_t,std::char_traits<wchar_t> > >::_Getvals<wchar_t>
PUBLIC	HRESULT_FROM_WIN32
PUBLIC	_tcscmp
PUBLIC	??$make_array@W4CspMatrix@@W41@W41@W41@W41@W41@W41@W41@W41@W41@W41@W41@W41@W41@W41@@@YA?AV?$array@W4CspMatrix@@$0O@@std@@$$QEAW4CspMatrix@@0000000000000@Z ; make_array<enum CspMatrix,enum CspMatrix,enum CspMatrix,enum CspMatrix,enum CspMatrix,enum CspMatrix,enum CspMatrix,enum CspMatrix,enum CspMatrix,enum CspMatrix,enum CspMatrix,enum CspMatrix,enum CspMatrix,enum CspMatrix,enum CspMatrix>
PUBLIC	??$make_array@W4CspTransfer@@W41@W41@W41@W41@W41@W41@W41@W41@W41@W41@W41@W41@W41@W41@W41@@@YA?AV?$array@W4CspTransfer@@$0P@@std@@$$QEAW4CspTransfer@@00000000000000@Z ; make_array<enum CspTransfer,enum CspTransfer,enum CspTransfer,enum CspTransfer,enum CspTransfer,enum CspTransfer,enum CspTransfer,enum CspTransfer,enum CspTransfer,enum CspTransfer,enum CspTransfer,enum CspTransfer,enum CspTransfer,enum CspTransfer,enum CspTransfer,enum CspTransfer>
PUBLIC	??$make_array@W4CspColorprim@@W41@W41@W41@W41@W41@W41@W41@W41@W41@W41@W41@W41@@@YA?AV?$array@W4CspColorprim@@$0M@@std@@$$QEAW4CspColorprim@@00000000000@Z ; make_array<enum CspColorprim,enum CspColorprim,enum CspColorprim,enum CspColorprim,enum CspColorprim,enum CspColorprim,enum CspColorprim,enum CspColorprim,enum CspColorprim,enum CspColorprim,enum CspColorprim,enum CspColorprim,enum CspColorprim>
PUBLIC	??$?HDU?$char_traits@D@std@@V?$allocator@D@1@@std@@YA?AV?$basic_string@DU?$char_traits@D@std@@V?$allocator@D@2@@0@AEBV10@QEBD@Z ; std::operator+<char,std::char_traits<char>,std::allocator<char> >
PUBLIC	??$?0HH$0A@@?$pair@HH@std@@QEAA@XZ		; std::pair<int,int>::pair<int,int><int,int,0>
PUBLIC	??$?4U?$pair@HH@std@@$0A@@?$pair@HH@std@@QEAAAEAU01@AEBU01@@Z ; std::pair<int,int>::operator=<std::pair<int,int>,0>
PUBLIC	?Allocate@CCRTAllocator@ATL@@SAPEAX_K@Z		; ATL::CCRTAllocator::Allocate
PUBLIC	?Free@CCRTAllocator@ATL@@SAXPEAX@Z		; ATL::CCRTAllocator::Free
PUBLIC	??0?$CTraceCategoryEx@$0IAAAA@$0A@@ATL@@QEAA@PEBD@Z ; ATL::CTraceCategoryEx<524288,0>::CTraceCategoryEx<524288,0>
PUBLIC	??0?$CTraceCategoryEx@$00$0A@@ATL@@QEAA@PEBD@Z	; ATL::CTraceCategoryEx<1,0>::CTraceCategoryEx<1,0>
PUBLIC	??0?$CTraceCategoryEx@$01$0A@@ATL@@QEAA@PEBD@Z	; ATL::CTraceCategoryEx<2,0>::CTraceCategoryEx<2,0>
PUBLIC	??B?$CTraceCategoryEx@$01$0A@@ATL@@QEAAIXZ	; ATL::CTraceCategoryEx<2,0>::operator unsigned int
PUBLIC	??0?$CTraceCategoryEx@$03$0A@@ATL@@QEAA@PEBD@Z	; ATL::CTraceCategoryEx<4,0>::CTraceCategoryEx<4,0>
PUBLIC	??0?$CTraceCategoryEx@$07$0A@@ATL@@QEAA@PEBD@Z	; ATL::CTraceCategoryEx<8,0>::CTraceCategoryEx<8,0>
PUBLIC	??0?$CTraceCategoryEx@$0BA@$0A@@ATL@@QEAA@PEBD@Z ; ATL::CTraceCategoryEx<16,0>::CTraceCategoryEx<16,0>
PUBLIC	??0?$CTraceCategoryEx@$0CA@$0A@@ATL@@QEAA@PEBD@Z ; ATL::CTraceCategoryEx<32,0>::CTraceCategoryEx<32,0>
PUBLIC	??B?$CTraceCategoryEx@$0CA@$0A@@ATL@@QEAAIXZ	; ATL::CTraceCategoryEx<32,0>::operator unsigned int
PUBLIC	??0?$CTraceCategoryEx@$0EA@$0A@@ATL@@QEAA@PEBD@Z ; ATL::CTraceCategoryEx<64,0>::CTraceCategoryEx<64,0>
PUBLIC	??0?$CTraceCategoryEx@$0IA@$0A@@ATL@@QEAA@PEBD@Z ; ATL::CTraceCategoryEx<128,0>::CTraceCategoryEx<128,0>
PUBLIC	??0?$CTraceCategoryEx@$0BAA@$0A@@ATL@@QEAA@PEBD@Z ; ATL::CTraceCategoryEx<256,0>::CTraceCategoryEx<256,0>
PUBLIC	??0?$CTraceCategoryEx@$0CAA@$0A@@ATL@@QEAA@PEBD@Z ; ATL::CTraceCategoryEx<512,0>::CTraceCategoryEx<512,0>
PUBLIC	??0?$CTraceCategoryEx@$0EAA@$0A@@ATL@@QEAA@PEBD@Z ; ATL::CTraceCategoryEx<1024,0>::CTraceCategoryEx<1024,0>
PUBLIC	??0?$CTraceCategoryEx@$0IAA@$0A@@ATL@@QEAA@PEBD@Z ; ATL::CTraceCategoryEx<2048,0>::CTraceCategoryEx<2048,0>
PUBLIC	??0?$CTraceCategoryEx@$0BAAA@$0A@@ATL@@QEAA@PEBD@Z ; ATL::CTraceCategoryEx<4096,0>::CTraceCategoryEx<4096,0>
PUBLIC	??0?$CTraceCategoryEx@$0CAAA@$0A@@ATL@@QEAA@PEBD@Z ; ATL::CTraceCategoryEx<8192,0>::CTraceCategoryEx<8192,0>
PUBLIC	??0?$CTraceCategoryEx@$0EAAA@$0A@@ATL@@QEAA@PEBD@Z ; ATL::CTraceCategoryEx<16384,0>::CTraceCategoryEx<16384,0>
PUBLIC	??0?$CTraceCategoryEx@$0IAAA@$0A@@ATL@@QEAA@PEBD@Z ; ATL::CTraceCategoryEx<32768,0>::CTraceCategoryEx<32768,0>
PUBLIC	??0?$CTraceCategoryEx@$0BAAAA@$0A@@ATL@@QEAA@PEBD@Z ; ATL::CTraceCategoryEx<65536,0>::CTraceCategoryEx<65536,0>
PUBLIC	??0?$CTraceCategoryEx@$0CAAAA@$0A@@ATL@@QEAA@PEBD@Z ; ATL::CTraceCategoryEx<131072,0>::CTraceCategoryEx<131072,0>
PUBLIC	??0?$CTraceCategoryEx@$0EAAAA@$0A@@ATL@@QEAA@PEBD@Z ; ATL::CTraceCategoryEx<262144,0>::CTraceCategoryEx<262144,0>
PUBLIC	??0?$CTraceCategoryEx@$0BAAAAA@$0A@@ATL@@QEAA@PEBD@Z ; ATL::CTraceCategoryEx<1048576,0>::CTraceCategoryEx<1048576,0>
PUBLIC	??0?$CTraceCategoryEx@$0CAAAAA@$0A@@ATL@@QEAA@PEBD@Z ; ATL::CTraceCategoryEx<2097152,0>::CTraceCategoryEx<2097152,0>
PUBLIC	??0?$CTraceCategoryEx@$0EAAAAA@$0A@@ATL@@QEAA@PEBD@Z ; ATL::CTraceCategoryEx<4194304,0>::CTraceCategoryEx<4194304,0>
PUBLIC	?GetCategoryName@CTrace@ATL@@CAPEA_WI@Z		; ATL::CTrace::GetCategoryName
PUBLIC	?TraceV@CTrace@ATL@@CAXPEBDHIIPEB_W@Z		; ATL::CTrace::TraceV
PUBLIC	?TraceV@CTrace@ATL@@SAXPEBDHII0PEAD@Z		; ATL::CTrace::TraceV
PUBLIC	?RegisterCategory@CTrace@ATL@@SAXPEBDI@Z	; ATL::CTrace::RegisterCategory
PUBLIC	??0?$CHeapPtrBase@_WVCCRTAllocator@ATL@@@ATL@@IEAA@XZ ; ATL::CHeapPtrBase<wchar_t,ATL::CCRTAllocator>::CHeapPtrBase<wchar_t,ATL::CCRTAllocator>
PUBLIC	??1?$CHeapPtrBase@_WVCCRTAllocator@ATL@@@ATL@@QEAA@XZ ; ATL::CHeapPtrBase<wchar_t,ATL::CCRTAllocator>::~CHeapPtrBase<wchar_t,ATL::CCRTAllocator>
PUBLIC	??B?$CHeapPtrBase@_WVCCRTAllocator@ATL@@@ATL@@QEBAPEA_WXZ ; ATL::CHeapPtrBase<wchar_t,ATL::CCRTAllocator>::operator wchar_t *
PUBLIC	?AllocateBytes@?$CHeapPtrBase@_WVCCRTAllocator@ATL@@@ATL@@QEAA_N_K@Z ; ATL::CHeapPtrBase<wchar_t,ATL::CCRTAllocator>::AllocateBytes
PUBLIC	?Free@?$CHeapPtrBase@_WVCCRTAllocator@ATL@@@ATL@@QEAAXXZ ; ATL::CHeapPtrBase<wchar_t,ATL::CCRTAllocator>::Free
PUBLIC	??0?$CHeapPtr@_WVCCRTAllocator@ATL@@@ATL@@QEAA@XZ ; ATL::CHeapPtr<wchar_t,ATL::CCRTAllocator>::CHeapPtr<wchar_t,ATL::CCRTAllocator>
PUBLIC	?Allocate@?$CHeapPtr@_WVCCRTAllocator@ATL@@@ATL@@QEAA_N_K@Z ; ATL::CHeapPtr<wchar_t,ATL::CCRTAllocator>::Allocate
PUBLIC	??1?$CHeapPtr@_WVCCRTAllocator@ATL@@@ATL@@QEAA@XZ ; ATL::CHeapPtr<wchar_t,ATL::CCRTAllocator>::~CHeapPtr<wchar_t,ATL::CCRTAllocator>
PUBLIC	??0?$CHeapPtrBase@DVCCRTAllocator@ATL@@@ATL@@IEAA@XZ ; ATL::CHeapPtrBase<char,ATL::CCRTAllocator>::CHeapPtrBase<char,ATL::CCRTAllocator>
PUBLIC	??1?$CHeapPtrBase@DVCCRTAllocator@ATL@@@ATL@@QEAA@XZ ; ATL::CHeapPtrBase<char,ATL::CCRTAllocator>::~CHeapPtrBase<char,ATL::CCRTAllocator>
PUBLIC	??B?$CHeapPtrBase@DVCCRTAllocator@ATL@@@ATL@@QEBAPEADXZ ; ATL::CHeapPtrBase<char,ATL::CCRTAllocator>::operator char *
PUBLIC	?AllocateBytes@?$CHeapPtrBase@DVCCRTAllocator@ATL@@@ATL@@QEAA_N_K@Z ; ATL::CHeapPtrBase<char,ATL::CCRTAllocator>::AllocateBytes
PUBLIC	?Free@?$CHeapPtrBase@DVCCRTAllocator@ATL@@@ATL@@QEAAXXZ ; ATL::CHeapPtrBase<char,ATL::CCRTAllocator>::Free
PUBLIC	??0?$CHeapPtr@DVCCRTAllocator@ATL@@@ATL@@QEAA@XZ ; ATL::CHeapPtr<char,ATL::CCRTAllocator>::CHeapPtr<char,ATL::CCRTAllocator>
PUBLIC	?Allocate@?$CHeapPtr@DVCCRTAllocator@ATL@@@ATL@@QEAA_N_K@Z ; ATL::CHeapPtr<char,ATL::CCRTAllocator>::Allocate
PUBLIC	??1?$CHeapPtr@DVCCRTAllocator@ATL@@@ATL@@QEAA@XZ ; ATL::CHeapPtr<char,ATL::CCRTAllocator>::~CHeapPtr<char,ATL::CCRTAllocator>
PUBLIC	??0CPreserveLastError@ATL@@QEAA@XZ		; ATL::CPreserveLastError::CPreserveLastError
PUBLIC	??1CPreserveLastError@ATL@@QEAA@XZ		; ATL::CPreserveLastError::~CPreserveLastError
PUBLIC	??0CTraceFileAndLineInfo@ATL@@QEAA@PEBDH@Z	; ATL::CTraceFileAndLineInfo::CTraceFileAndLineInfo
PUBLIC	??RCTraceFileAndLineInfo@ATL@@QEBAXHIPEBDZZ	; ATL::CTraceFileAndLineInfo::operator()
PUBLIC	?_AtlRaiseException@ATL@@YAXKK@Z		; ATL::_AtlRaiseException
PUBLIC	?_AtlInitializeCriticalSectionEx@ATL@@YAHPEAU_RTL_CRITICAL_SECTION@@KK@Z ; ATL::_AtlInitializeCriticalSectionEx
PUBLIC	??0CComCriticalSection@ATL@@QEAA@XZ		; ATL::CComCriticalSection::CComCriticalSection
PUBLIC	??1CComCriticalSection@ATL@@QEAA@XZ		; ATL::CComCriticalSection::~CComCriticalSection
PUBLIC	?Init@CComCriticalSection@ATL@@QEAAJXZ		; ATL::CComCriticalSection::Init
PUBLIC	?Term@CComCriticalSection@ATL@@QEAAJXZ		; ATL::CComCriticalSection::Term
PUBLIC	?GetModuleInstance@CAtlBaseModule@ATL@@QEAAPEAUHINSTANCE__@@XZ ; ATL::CAtlBaseModule::GetModuleInstance
PUBLIC	??0_ATL_COM_MODULE70@ATL@@QEAA@XZ		; ATL::_ATL_COM_MODULE70::_ATL_COM_MODULE70
PUBLIC	??1_ATL_COM_MODULE70@ATL@@QEAA@XZ		; ATL::_ATL_COM_MODULE70::~_ATL_COM_MODULE70
PUBLIC	??0?$CSimpleArray@GV?$CSimpleArrayEqualHelper@G@ATL@@@ATL@@QEAA@XZ ; ATL::CSimpleArray<unsigned short,ATL::CSimpleArrayEqualHelper<unsigned short> >::CSimpleArray<unsigned short,ATL::CSimpleArrayEqualHelper<unsigned short> >
PUBLIC	??1?$CSimpleArray@GV?$CSimpleArrayEqualHelper@G@ATL@@@ATL@@QEAA@XZ ; ATL::CSimpleArray<unsigned short,ATL::CSimpleArrayEqualHelper<unsigned short> >::~CSimpleArray<unsigned short,ATL::CSimpleArrayEqualHelper<unsigned short> >
PUBLIC	?GetSize@?$CSimpleArray@GV?$CSimpleArrayEqualHelper@G@ATL@@@ATL@@QEBAHXZ ; ATL::CSimpleArray<unsigned short,ATL::CSimpleArrayEqualHelper<unsigned short> >::GetSize
PUBLIC	?RemoveAll@?$CSimpleArray@GV?$CSimpleArrayEqualHelper@G@ATL@@@ATL@@QEAAXXZ ; ATL::CSimpleArray<unsigned short,ATL::CSimpleArrayEqualHelper<unsigned short> >::RemoveAll
PUBLIC	??A?$CSimpleArray@GV?$CSimpleArrayEqualHelper@G@ATL@@@ATL@@QEAAAEAGH@Z ; ATL::CSimpleArray<unsigned short,ATL::CSimpleArrayEqualHelper<unsigned short> >::operator[]
PUBLIC	??0_ATL_WIN_MODULE70@ATL@@QEAA@XZ		; ATL::_ATL_WIN_MODULE70::_ATL_WIN_MODULE70
PUBLIC	??1_ATL_WIN_MODULE70@ATL@@QEAA@XZ		; ATL::_ATL_WIN_MODULE70::~_ATL_WIN_MODULE70
PUBLIC	?AtlWinModuleInit@ATL@@YAJPEAU_ATL_WIN_MODULE70@1@@Z ; ATL::AtlWinModuleInit
PUBLIC	?AtlWinModuleTerm@ATL@@YAJPEAU_ATL_WIN_MODULE70@1@PEAUHINSTANCE__@@@Z ; ATL::AtlWinModuleTerm
PUBLIC	??0CAtlComModule@ATL@@QEAA@XZ			; ATL::CAtlComModule::CAtlComModule
PUBLIC	??1CAtlComModule@ATL@@QEAA@XZ			; ATL::CAtlComModule::~CAtlComModule
PUBLIC	?Term@CAtlComModule@ATL@@QEAAXXZ		; ATL::CAtlComModule::Term
PUBLIC	??0CAtlWinModule@ATL@@QEAA@XZ			; ATL::CAtlWinModule::CAtlWinModule
PUBLIC	??1CAtlWinModule@ATL@@QEAA@XZ			; ATL::CAtlWinModule::~CAtlWinModule
PUBLIC	?Term@CAtlWinModule@ATL@@QEAAXXZ		; ATL::CAtlWinModule::Term
PUBLIC	??$max@I@std@@YAAEBIAEBI0@Z			; std::max<unsigned int>
PUBLIC	??$max@H@std@@YAAEBHAEBH0@Z			; std::max<int>
PUBLIC	??0?$allocator@I@std@@QEAA@XZ			; std::allocator<unsigned int>::allocator<unsigned int>
PUBLIC	?deallocate@?$allocator@I@std@@QEAAXQEAI_K@Z	; std::allocator<unsigned int>::deallocate
PUBLIC	?allocate@?$allocator@I@std@@QEAAPEAI_K@Z	; std::allocator<unsigned int>::allocate
PUBLIC	?max_size@?$_Default_allocator_traits@V?$allocator@I@std@@@std@@SA_KAEBV?$allocator@I@2@@Z ; std::_Default_allocator_traits<std::allocator<unsigned int> >::max_size
PUBLIC	??1?$vector@IV?$allocator@I@std@@@std@@QEAA@XZ	; std::vector<unsigned int,std::allocator<unsigned int> >::~vector<unsigned int,std::allocator<unsigned int> >
PUBLIC	?max_size@?$vector@IV?$allocator@I@std@@@std@@QEBA_KXZ ; std::vector<unsigned int,std::allocator<unsigned int> >::max_size
PUBLIC	?_Destroy@?$vector@IV?$allocator@I@std@@@std@@AEAAXPEAI0@Z ; std::vector<unsigned int,std::allocator<unsigned int> >::_Destroy
PUBLIC	?_Buy_raw@?$vector@IV?$allocator@I@std@@@std@@AEAAX_K@Z ; std::vector<unsigned int,std::allocator<unsigned int> >::_Buy_raw
PUBLIC	?_Buy_nonzero@?$vector@IV?$allocator@I@std@@@std@@AEAAX_K@Z ; std::vector<unsigned int,std::allocator<unsigned int> >::_Buy_nonzero
PUBLIC	?_Tidy@?$vector@IV?$allocator@I@std@@@std@@AEAAXXZ ; std::vector<unsigned int,std::allocator<unsigned int> >::_Tidy
PUBLIC	?_Xlength@?$vector@IV?$allocator@I@std@@@std@@CAXXZ ; std::vector<unsigned int,std::allocator<unsigned int> >::_Xlength
PUBLIC	?_Getal@?$vector@IV?$allocator@I@std@@@std@@AEAAAEAV?$allocator@I@2@XZ ; std::vector<unsigned int,std::allocator<unsigned int> >::_Getal
PUBLIC	?_Getal@?$vector@IV?$allocator@I@std@@@std@@AEBAAEBV?$allocator@I@2@XZ ; std::vector<unsigned int,std::allocator<unsigned int> >::_Getal
PUBLIC	??0?$_Vector_val@U?$_Simple_types@I@std@@@std@@QEAA@XZ ; std::_Vector_val<std::_Simple_types<unsigned int> >::_Vector_val<std::_Simple_types<unsigned int> >
PUBLIC	?_Get_first@?$_Compressed_pair@V?$allocator@I@std@@V?$_Vector_val@U?$_Simple_types@I@std@@@2@$00@std@@QEAAAEAV?$allocator@I@2@XZ ; std::_Compressed_pair<std::allocator<unsigned int>,std::_Vector_val<std::_Simple_types<unsigned int> >,1>::_Get_first
PUBLIC	?_Get_first@?$_Compressed_pair@V?$allocator@I@std@@V?$_Vector_val@U?$_Simple_types@I@std@@@2@$00@std@@QEBAAEBV?$allocator@I@2@XZ ; std::_Compressed_pair<std::allocator<unsigned int>,std::_Vector_val<std::_Simple_types<unsigned int> >,1>::_Get_first
PUBLIC	??0ParseCmdError@@QEAA@XZ			; ParseCmdError::ParseCmdError
PUBLIC	??1ParseCmdError@@QEAA@XZ			; ParseCmdError::~ParseCmdError
PUBLIC	??0?$allocator@UListData@@@std@@QEAA@XZ		; std::allocator<ListData>::allocator<ListData>
PUBLIC	?deallocate@?$allocator@UListData@@@std@@QEAAXQEAUListData@@_K@Z ; std::allocator<ListData>::deallocate
PUBLIC	?allocate@?$allocator@UListData@@@std@@QEAAPEAUListData@@_K@Z ; std::allocator<ListData>::allocate
PUBLIC	?max_size@?$_Default_allocator_traits@V?$allocator@UListData@@@std@@@std@@SA_KAEBV?$allocator@UListData@@@2@@Z ; std::_Default_allocator_traits<std::allocator<ListData> >::max_size
PUBLIC	??0?$vector@UListData@@V?$allocator@UListData@@@std@@@std@@QEAA@V?$initializer_list@UListData@@@1@AEBV?$allocator@UListData@@@1@@Z ; std::vector<ListData,std::allocator<ListData> >::vector<ListData,std::allocator<ListData> >
PUBLIC	??1?$vector@UListData@@V?$allocator@UListData@@@std@@@std@@QEAA@XZ ; std::vector<ListData,std::allocator<ListData> >::~vector<ListData,std::allocator<ListData> >
PUBLIC	?begin@?$vector@UListData@@V?$allocator@UListData@@@std@@@std@@QEBA?AV?$_Vector_const_iterator@V?$_Vector_val@U?$_Simple_types@UListData@@@std@@@std@@@2@XZ ; std::vector<ListData,std::allocator<ListData> >::begin
PUBLIC	?end@?$vector@UListData@@V?$allocator@UListData@@@std@@@std@@QEBA?AV?$_Vector_const_iterator@V?$_Vector_val@U?$_Simple_types@UListData@@@std@@@std@@@2@XZ ; std::vector<ListData,std::allocator<ListData> >::end
PUBLIC	?_Unchecked_begin@?$vector@UListData@@V?$allocator@UListData@@@std@@@std@@QEBAPEBUListData@@XZ ; std::vector<ListData,std::allocator<ListData> >::_Unchecked_begin
PUBLIC	?_Unchecked_end@?$vector@UListData@@V?$allocator@UListData@@@std@@@std@@QEBAPEBUListData@@XZ ; std::vector<ListData,std::allocator<ListData> >::_Unchecked_end
PUBLIC	?max_size@?$vector@UListData@@V?$allocator@UListData@@@std@@@std@@QEBA_KXZ ; std::vector<ListData,std::allocator<ListData> >::max_size
PUBLIC	?_Destroy@?$vector@UListData@@V?$allocator@UListData@@@std@@@std@@AEAAXPEAUListData@@0@Z ; std::vector<ListData,std::allocator<ListData> >::_Destroy
PUBLIC	?_Buy_raw@?$vector@UListData@@V?$allocator@UListData@@@std@@@std@@AEAAX_K@Z ; std::vector<ListData,std::allocator<ListData> >::_Buy_raw
PUBLIC	?_Buy_nonzero@?$vector@UListData@@V?$allocator@UListData@@@std@@@std@@AEAAX_K@Z ; std::vector<ListData,std::allocator<ListData> >::_Buy_nonzero
PUBLIC	?_Tidy@?$vector@UListData@@V?$allocator@UListData@@@std@@@std@@AEAAXXZ ; std::vector<ListData,std::allocator<ListData> >::_Tidy
PUBLIC	?_Xlength@?$vector@UListData@@V?$allocator@UListData@@@std@@@std@@CAXXZ ; std::vector<ListData,std::allocator<ListData> >::_Xlength
PUBLIC	?_Getal@?$vector@UListData@@V?$allocator@UListData@@@std@@@std@@AEAAAEAV?$allocator@UListData@@@2@XZ ; std::vector<ListData,std::allocator<ListData> >::_Getal
PUBLIC	?_Getal@?$vector@UListData@@V?$allocator@UListData@@@std@@@std@@AEBAAEBV?$allocator@UListData@@@2@XZ ; std::vector<ListData,std::allocator<ListData> >::_Getal
PUBLIC	??0?$_Vector_val@U?$_Simple_types@UListData@@@std@@@std@@QEAA@XZ ; std::_Vector_val<std::_Simple_types<ListData> >::_Vector_val<std::_Simple_types<ListData> >
PUBLIC	?_Get_first@?$_Compressed_pair@V?$allocator@UListData@@@std@@V?$_Vector_val@U?$_Simple_types@UListData@@@std@@@2@$00@std@@QEAAAEAV?$allocator@UListData@@@2@XZ ; std::_Compressed_pair<std::allocator<ListData>,std::_Vector_val<std::_Simple_types<ListData> >,1>::_Get_first
PUBLIC	?_Get_first@?$_Compressed_pair@V?$allocator@UListData@@@std@@V?$_Vector_val@U?$_Simple_types@UListData@@@std@@@2@$00@std@@QEBAAEBV?$allocator@UListData@@@2@XZ ; std::_Compressed_pair<std::allocator<ListData>,std::_Vector_val<std::_Simple_types<ListData> >,1>::_Get_first
PUBLIC	??0?$_Vector_const_iterator@V?$_Vector_val@U?$_Simple_types@UListData@@@std@@@std@@@std@@QEAA@PEAUListData@@PEBU_Container_base12@1@@Z ; std::_Vector_const_iterator<std::_Vector_val<std::_Simple_types<ListData> > >::_Vector_const_iterator<std::_Vector_val<std::_Simple_types<ListData> > >
PUBLIC	?_Verify_range@std@@YAXAEBV?$_Vector_const_iterator@V?$_Vector_val@U?$_Simple_types@UListData@@@std@@@std@@@1@0@Z ; std::_Verify_range
PUBLIC	?_Unwrapped@?$_Vector_const_iterator@V?$_Vector_val@U?$_Simple_types@UListData@@@std@@@std@@@std@@QEBAPEBUListData@@XZ ; std::_Vector_const_iterator<std::_Vector_val<std::_Simple_types<ListData> > >::_Unwrapped
PUBLIC	??1?$_Vector_const_iterator@V?$_Vector_val@U?$_Simple_types@UListData@@@std@@@std@@@std@@QEAA@XZ ; std::_Vector_const_iterator<std::_Vector_val<std::_Simple_types<ListData> > >::~_Vector_const_iterator<std::_Vector_val<std::_Simple_types<ListData> > >
PUBLIC	??0?$initializer_list@UListData@@@std@@QEAA@PEBUListData@@0@Z ; std::initializer_list<ListData>::initializer_list<ListData>
PUBLIC	?begin@?$initializer_list@UListData@@@std@@QEBAPEBUListData@@XZ ; std::initializer_list<ListData>::begin
PUBLIC	?end@?$initializer_list@UListData@@@std@@QEBAPEBUListData@@XZ ; std::initializer_list<ListData>::end
PUBLIC	??$make_vector@I$01@@YA?AV?$vector@IV?$allocator@I@std@@@std@@AEAY01$$CBI@Z ; make_vector<unsigned int,2>
PUBLIC	?deallocate@?$allocator@U?$pair@V?$vector@_KV?$allocator@_K@std@@@std@@V?$basic_string@DU?$char_traits@D@std@@V?$allocator@D@2@@2@@std@@@std@@QEAAXQEAU?$pair@V?$vector@_KV?$allocator@_K@std@@@std@@V?$basic_string@DU?$char_traits@D@std@@V?$allocator@D@2@@2@@2@_K@Z ; std::allocator<std::pair<std::vector<unsigned __int64,std::allocator<unsigned __int64> >,std::basic_string<char,std::char_traits<char>,std::allocator<char> > > >::deallocate
PUBLIC	?_Move_construct@?$vector@U?$pair@V?$vector@_KV?$allocator@_K@std@@@std@@V?$basic_string@DU?$char_traits@D@std@@V?$allocator@D@2@@2@@std@@V?$allocator@U?$pair@V?$vector@_KV?$allocator@_K@std@@@std@@V?$basic_string@DU?$char_traits@D@std@@V?$allocator@D@2@@2@@std@@@2@@std@@AEAAXAEAV12@U?$integral_constant@_N$00@2@@Z ; std::vector<std::pair<std::vector<unsigned __int64,std::allocator<unsigned __int64> >,std::basic_string<char,std::char_traits<char>,std::allocator<char> > >,std::allocator<std::pair<std::vector<unsigned __int64,std::allocator<unsigned __int64> >,std::basic_string<char,std::char_traits<char>,std::allocator<char> > > > >::_Move_construct
PUBLIC	??0?$vector@U?$pair@V?$vector@_KV?$allocator@_K@std@@@std@@V?$basic_string@DU?$char_traits@D@std@@V?$allocator@D@2@@2@@std@@V?$allocator@U?$pair@V?$vector@_KV?$allocator@_K@std@@@std@@V?$basic_string@DU?$char_traits@D@std@@V?$allocator@D@2@@2@@std@@@2@@std@@QEAA@$$QEAV01@@Z ; std::vector<std::pair<std::vector<unsigned __int64,std::allocator<unsigned __int64> >,std::basic_string<char,std::char_traits<char>,std::allocator<char> > >,std::allocator<std::pair<std::vector<unsigned __int64,std::allocator<unsigned __int64> >,std::basic_string<char,std::char_traits<char>,std::allocator<char> > > > >::vector<std::pair<std::vector<unsigned __int64,std::allocator<unsigned __int64> >,std::basic_string<char,std::char_traits<char>,std::allocator<char> > >,std::allocator<std::pair<std::vector<unsigned __int64,std::allocator<unsigned __int64> >,std::basic_string<char,std::char_traits<char>,std::allocator<char> > > > >
PUBLIC	??1?$vector@U?$pair@V?$vector@_KV?$allocator@_K@std@@@std@@V?$basic_string@DU?$char_traits@D@std@@V?$allocator@D@2@@2@@std@@V?$allocator@U?$pair@V?$vector@_KV?$allocator@_K@std@@@std@@V?$basic_string@DU?$char_traits@D@std@@V?$allocator@D@2@@2@@std@@@2@@std@@QEAA@XZ ; std::vector<std::pair<std::vector<unsigned __int64,std::allocator<unsigned __int64> >,std::basic_string<char,std::char_traits<char>,std::allocator<char> > >,std::allocator<std::pair<std::vector<unsigned __int64,std::allocator<unsigned __int64> >,std::basic_string<char,std::char_traits<char>,std::allocator<char> > > > >::~vector<std::pair<std::vector<unsigned __int64,std::allocator<unsigned __int64> >,std::basic_string<char,std::char_traits<char>,std::allocator<char> > >,std::allocator<std::pair<std::vector<unsigned __int64,std::allocator<unsigned __int64> >,std::basic_string<char,std::char_traits<char>,std::allocator<char> > > > >
PUBLIC	?size@?$vector@U?$pair@V?$vector@_KV?$allocator@_K@std@@@std@@V?$basic_string@DU?$char_traits@D@std@@V?$allocator@D@2@@2@@std@@V?$allocator@U?$pair@V?$vector@_KV?$allocator@_K@std@@@std@@V?$basic_string@DU?$char_traits@D@std@@V?$allocator@D@2@@2@@std@@@2@@std@@QEBA_KXZ ; std::vector<std::pair<std::vector<unsigned __int64,std::allocator<unsigned __int64> >,std::basic_string<char,std::char_traits<char>,std::allocator<char> > >,std::allocator<std::pair<std::vector<unsigned __int64,std::allocator<unsigned __int64> >,std::basic_string<char,std::char_traits<char>,std::allocator<char> > > > >::size
PUBLIC	??A?$vector@U?$pair@V?$vector@_KV?$allocator@_K@std@@@std@@V?$basic_string@DU?$char_traits@D@std@@V?$allocator@D@2@@2@@std@@V?$allocator@U?$pair@V?$vector@_KV?$allocator@_K@std@@@std@@V?$basic_string@DU?$char_traits@D@std@@V?$allocator@D@2@@2@@std@@@2@@std@@QEBAAEBU?$pair@V?$vector@_KV?$allocator@_K@std@@@std@@V?$basic_string@DU?$char_traits@D@std@@V?$allocator@D@2@@2@@1@_K@Z ; std::vector<std::pair<std::vector<unsigned __int64,std::allocator<unsigned __int64> >,std::basic_string<char,std::char_traits<char>,std::allocator<char> > >,std::allocator<std::pair<std::vector<unsigned __int64,std::allocator<unsigned __int64> >,std::basic_string<char,std::char_traits<char>,std::allocator<char> > > > >::operator[]
PUBLIC	?_Destroy@?$vector@U?$pair@V?$vector@_KV?$allocator@_K@std@@@std@@V?$basic_string@DU?$char_traits@D@std@@V?$allocator@D@2@@2@@std@@V?$allocator@U?$pair@V?$vector@_KV?$allocator@_K@std@@@std@@V?$basic_string@DU?$char_traits@D@std@@V?$allocator@D@2@@2@@std@@@2@@std@@AEAAXPEAU?$pair@V?$vector@_KV?$allocator@_K@std@@@std@@V?$basic_string@DU?$char_traits@D@std@@V?$allocator@D@2@@2@@2@0@Z ; std::vector<std::pair<std::vector<unsigned __int64,std::allocator<unsigned __int64> >,std::basic_string<char,std::char_traits<char>,std::allocator<char> > >,std::allocator<std::pair<std::vector<unsigned __int64,std::allocator<unsigned __int64> >,std::basic_string<char,std::char_traits<char>,std::allocator<char> > > > >::_Destroy
PUBLIC	?_Tidy@?$vector@U?$pair@V?$vector@_KV?$allocator@_K@std@@@std@@V?$basic_string@DU?$char_traits@D@std@@V?$allocator@D@2@@2@@std@@V?$allocator@U?$pair@V?$vector@_KV?$allocator@_K@std@@@std@@V?$basic_string@DU?$char_traits@D@std@@V?$allocator@D@2@@2@@std@@@2@@std@@AEAAXXZ ; std::vector<std::pair<std::vector<unsigned __int64,std::allocator<unsigned __int64> >,std::basic_string<char,std::char_traits<char>,std::allocator<char> > >,std::allocator<std::pair<std::vector<unsigned __int64,std::allocator<unsigned __int64> >,std::basic_string<char,std::char_traits<char>,std::allocator<char> > > > >::_Tidy
PUBLIC	?_Getal@?$vector@U?$pair@V?$vector@_KV?$allocator@_K@std@@@std@@V?$basic_string@DU?$char_traits@D@std@@V?$allocator@D@2@@2@@std@@V?$allocator@U?$pair@V?$vector@_KV?$allocator@_K@std@@@std@@V?$basic_string@DU?$char_traits@D@std@@V?$allocator@D@2@@2@@std@@@2@@std@@AEAAAEAV?$allocator@U?$pair@V?$vector@_KV?$allocator@_K@std@@@std@@V?$basic_string@DU?$char_traits@D@std@@V?$allocator@D@2@@2@@std@@@2@XZ ; std::vector<std::pair<std::vector<unsigned __int64,std::allocator<unsigned __int64> >,std::basic_string<char,std::char_traits<char>,std::allocator<char> > >,std::allocator<std::pair<std::vector<unsigned __int64,std::allocator<unsigned __int64> >,std::basic_string<char,std::char_traits<char>,std::allocator<char> > > > >::_Getal
PUBLIC	??0?$_Vector_val@U?$_Simple_types@U?$pair@V?$vector@_KV?$allocator@_K@std@@@std@@V?$basic_string@DU?$char_traits@D@std@@V?$allocator@D@2@@2@@std@@@std@@@std@@QEAA@XZ ; std::_Vector_val<std::_Simple_types<std::pair<std::vector<unsigned __int64,std::allocator<unsigned __int64> >,std::basic_string<char,std::char_traits<char>,std::allocator<char> > > > >::_Vector_val<std::_Simple_types<std::pair<std::vector<unsigned __int64,std::allocator<unsigned __int64> >,std::basic_string<char,std::char_traits<char>,std::allocator<char> > > > >
PUBLIC	?_Take_contents@?$_Vector_val@U?$_Simple_types@U?$pair@V?$vector@_KV?$allocator@_K@std@@@std@@V?$basic_string@DU?$char_traits@D@std@@V?$allocator@D@2@@2@@std@@@std@@@std@@QEAAXAEAV12@@Z ; std::_Vector_val<std::_Simple_types<std::pair<std::vector<unsigned __int64,std::allocator<unsigned __int64> >,std::basic_string<char,std::char_traits<char>,std::allocator<char> > > > >::_Take_contents
PUBLIC	?_Get_first@?$_Compressed_pair@V?$allocator@U?$pair@V?$vector@_KV?$allocator@_K@std@@@std@@V?$basic_string@DU?$char_traits@D@std@@V?$allocator@D@2@@2@@std@@@std@@V?$_Vector_val@U?$_Simple_types@U?$pair@V?$vector@_KV?$allocator@_K@std@@@std@@V?$basic_string@DU?$char_traits@D@std@@V?$allocator@D@2@@2@@std@@@std@@@2@$00@std@@QEAAAEAV?$allocator@U?$pair@V?$vector@_KV?$allocator@_K@std@@@std@@V?$basic_string@DU?$char_traits@D@std@@V?$allocator@D@2@@2@@std@@@2@XZ ; std::_Compressed_pair<std::allocator<std::pair<std::vector<unsigned __int64,std::allocator<unsigned __int64> >,std::basic_string<char,std::char_traits<char>,std::allocator<char> > > >,std::_Vector_val<std::_Simple_types<std::pair<std::vector<unsigned __int64,std::allocator<unsigned __int64> >,std::basic_string<char,std::char_traits<char>,std::allocator<char> > > > >,1>::_Get_first
PUBLIC	?deallocate@?$allocator@_K@std@@QEAAXQEA_K_K@Z	; std::allocator<unsigned __int64>::deallocate
PUBLIC	??1?$vector@_KV?$allocator@_K@std@@@std@@QEAA@XZ ; std::vector<unsigned __int64,std::allocator<unsigned __int64> >::~vector<unsigned __int64,std::allocator<unsigned __int64> >
PUBLIC	?_Destroy@?$vector@_KV?$allocator@_K@std@@@std@@AEAAXPEA_K0@Z ; std::vector<unsigned __int64,std::allocator<unsigned __int64> >::_Destroy
PUBLIC	?_Tidy@?$vector@_KV?$allocator@_K@std@@@std@@AEAAXXZ ; std::vector<unsigned __int64,std::allocator<unsigned __int64> >::_Tidy
PUBLIC	?_Getal@?$vector@_KV?$allocator@_K@std@@@std@@AEAAAEAV?$allocator@_K@2@XZ ; std::vector<unsigned __int64,std::allocator<unsigned __int64> >::_Getal
PUBLIC	?_Get_first@?$_Compressed_pair@V?$allocator@_K@std@@V?$_Vector_val@U?$_Simple_types@_K@std@@@2@$00@std@@QEAAAEAV?$allocator@_K@2@XZ ; std::_Compressed_pair<std::allocator<unsigned __int64>,std::_Vector_val<std::_Simple_types<unsigned __int64> >,1>::_Get_first
PUBLIC	??1?$pair@V?$vector@_KV?$allocator@_K@std@@@std@@V?$basic_string@DU?$char_traits@D@std@@V?$allocator@D@2@@2@@std@@QEAA@XZ ; std::pair<std::vector<unsigned __int64,std::allocator<unsigned __int64> >,std::basic_string<char,std::char_traits<char>,std::allocator<char> > >::~pair<std::vector<unsigned __int64,std::allocator<unsigned __int64> >,std::basic_string<char,std::char_traits<char>,std::allocator<char> > >
PUBLIC	??_G?$pair@V?$vector@_KV?$allocator@_K@std@@@std@@V?$basic_string@DU?$char_traits@D@std@@V?$allocator@D@2@@2@@std@@QEAAPEAXI@Z ; std::pair<std::vector<unsigned __int64,std::allocator<unsigned __int64> >,std::basic_string<char,std::char_traits<char>,std::allocator<char> > >::`scalar deleting destructor'
PUBLIC	?parse_print_options@@YAHPEBD0@Z		; parse_print_options
PUBLIC	?run_encode@@YAHPEAUsInputParams@@@Z		; run_encode
PUBLIC	??R?$default_delete@VCQSVPipeline@@@std@@QEBAXPEAVCQSVPipeline@@@Z ; std::default_delete<CQSVPipeline>::operator()
PUBLIC	??1?$unique_ptr@VCQSVPipeline@@U?$default_delete@VCQSVPipeline@@@std@@@std@@QEAA@XZ ; std::unique_ptr<CQSVPipeline,std::default_delete<CQSVPipeline> >::~unique_ptr<CQSVPipeline,std::default_delete<CQSVPipeline> >
PUBLIC	??C?$unique_ptr@VCQSVPipeline@@U?$default_delete@VCQSVPipeline@@@std@@@std@@QEBAPEAVCQSVPipeline@@XZ ; std::unique_ptr<CQSVPipeline,std::default_delete<CQSVPipeline> >::operator->
PUBLIC	??B?$unique_ptr@VCQSVPipeline@@U?$default_delete@VCQSVPipeline@@@std@@@std@@QEBA_NXZ ; std::unique_ptr<CQSVPipeline,std::default_delete<CQSVPipeline> >::operator bool
PUBLIC	?_Get_first@?$_Compressed_pair@U?$default_delete@VCQSVPipeline@@@std@@PEAVCQSVPipeline@@$00@std@@QEAAAEAU?$default_delete@VCQSVPipeline@@@2@XZ ; std::_Compressed_pair<std::default_delete<CQSVPipeline>,CQSVPipeline *,1>::_Get_first
PUBLIC	??$?0U?$default_delete@VCQSVPipeline@@@std@@$0A@@?$unique_ptr@VCQSVPipeline@@U?$default_delete@VCQSVPipeline@@@std@@@std@@QEAA@PEAVCQSVPipeline@@@Z ; std::unique_ptr<CQSVPipeline,std::default_delete<CQSVPipeline> >::unique_ptr<CQSVPipeline,std::default_delete<CQSVPipeline> ><std::default_delete<CQSVPipeline>,0>
PUBLIC	?run_benchmark@@YA?AW4mfxStatus@@PEAUsInputParams@@@Z ; run_benchmark
PUBLIC	??0?$allocator@U?$pair@HH@std@@@std@@QEAA@XZ	; std::allocator<std::pair<int,int> >::allocator<std::pair<int,int> >
PUBLIC	?deallocate@?$allocator@U?$pair@HH@std@@@std@@QEAAXQEAU?$pair@HH@2@_K@Z ; std::allocator<std::pair<int,int> >::deallocate
PUBLIC	?allocate@?$allocator@U?$pair@HH@std@@@std@@QEAAPEAU?$pair@HH@2@_K@Z ; std::allocator<std::pair<int,int> >::allocate
PUBLIC	?max_size@?$_Default_allocator_traits@V?$allocator@U?$pair@HH@std@@@std@@@std@@SA_KAEBV?$allocator@U?$pair@HH@std@@@2@@Z ; std::_Default_allocator_traits<std::allocator<std::pair<int,int> > >::max_size
PUBLIC	??0?$vector@U?$pair@HH@std@@V?$allocator@U?$pair@HH@std@@@2@@std@@QEAA@V?$initializer_list@U?$pair@HH@std@@@1@AEBV?$allocator@U?$pair@HH@std@@@1@@Z ; std::vector<std::pair<int,int>,std::allocator<std::pair<int,int> > >::vector<std::pair<int,int>,std::allocator<std::pair<int,int> > >
PUBLIC	??1?$vector@U?$pair@HH@std@@V?$allocator@U?$pair@HH@std@@@2@@std@@QEAA@XZ ; std::vector<std::pair<int,int>,std::allocator<std::pair<int,int> > >::~vector<std::pair<int,int>,std::allocator<std::pair<int,int> > >
PUBLIC	?_Unchecked_begin@?$vector@U?$pair@HH@std@@V?$allocator@U?$pair@HH@std@@@2@@std@@QEBAPEBU?$pair@HH@2@XZ ; std::vector<std::pair<int,int>,std::allocator<std::pair<int,int> > >::_Unchecked_begin
PUBLIC	?_Unchecked_end@?$vector@U?$pair@HH@std@@V?$allocator@U?$pair@HH@std@@@2@@std@@QEBAPEBU?$pair@HH@2@XZ ; std::vector<std::pair<int,int>,std::allocator<std::pair<int,int> > >::_Unchecked_end
PUBLIC	?size@?$vector@U?$pair@HH@std@@V?$allocator@U?$pair@HH@std@@@2@@std@@QEBA_KXZ ; std::vector<std::pair<int,int>,std::allocator<std::pair<int,int> > >::size
PUBLIC	?max_size@?$vector@U?$pair@HH@std@@V?$allocator@U?$pair@HH@std@@@2@@std@@QEBA_KXZ ; std::vector<std::pair<int,int>,std::allocator<std::pair<int,int> > >::max_size
PUBLIC	??A?$vector@U?$pair@HH@std@@V?$allocator@U?$pair@HH@std@@@2@@std@@QEBAAEBU?$pair@HH@1@_K@Z ; std::vector<std::pair<int,int>,std::allocator<std::pair<int,int> > >::operator[]
PUBLIC	?_Destroy@?$vector@U?$pair@HH@std@@V?$allocator@U?$pair@HH@std@@@2@@std@@AEAAXPEAU?$pair@HH@2@0@Z ; std::vector<std::pair<int,int>,std::allocator<std::pair<int,int> > >::_Destroy
PUBLIC	?_Buy_raw@?$vector@U?$pair@HH@std@@V?$allocator@U?$pair@HH@std@@@2@@std@@AEAAX_K@Z ; std::vector<std::pair<int,int>,std::allocator<std::pair<int,int> > >::_Buy_raw
PUBLIC	?_Buy_nonzero@?$vector@U?$pair@HH@std@@V?$allocator@U?$pair@HH@std@@@2@@std@@AEAAX_K@Z ; std::vector<std::pair<int,int>,std::allocator<std::pair<int,int> > >::_Buy_nonzero
PUBLIC	?_Tidy@?$vector@U?$pair@HH@std@@V?$allocator@U?$pair@HH@std@@@2@@std@@AEAAXXZ ; std::vector<std::pair<int,int>,std::allocator<std::pair<int,int> > >::_Tidy
PUBLIC	?_Xlength@?$vector@U?$pair@HH@std@@V?$allocator@U?$pair@HH@std@@@2@@std@@CAXXZ ; std::vector<std::pair<int,int>,std::allocator<std::pair<int,int> > >::_Xlength
PUBLIC	?_Getal@?$vector@U?$pair@HH@std@@V?$allocator@U?$pair@HH@std@@@2@@std@@AEAAAEAV?$allocator@U?$pair@HH@std@@@2@XZ ; std::vector<std::pair<int,int>,std::allocator<std::pair<int,int> > >::_Getal
PUBLIC	?_Getal@?$vector@U?$pair@HH@std@@V?$allocator@U?$pair@HH@std@@@2@@std@@AEBAAEBV?$allocator@U?$pair@HH@std@@@2@XZ ; std::vector<std::pair<int,int>,std::allocator<std::pair<int,int> > >::_Getal
PUBLIC	??0?$_Vector_val@U?$_Simple_types@U?$pair@HH@std@@@std@@@std@@QEAA@XZ ; std::_Vector_val<std::_Simple_types<std::pair<int,int> > >::_Vector_val<std::_Simple_types<std::pair<int,int> > >
PUBLIC	?_Get_first@?$_Compressed_pair@V?$allocator@U?$pair@HH@std@@@std@@V?$_Vector_val@U?$_Simple_types@U?$pair@HH@std@@@std@@@2@$00@std@@QEAAAEAV?$allocator@U?$pair@HH@std@@@2@XZ ; std::_Compressed_pair<std::allocator<std::pair<int,int> >,std::_Vector_val<std::_Simple_types<std::pair<int,int> > >,1>::_Get_first
PUBLIC	?_Get_first@?$_Compressed_pair@V?$allocator@U?$pair@HH@std@@@std@@V?$_Vector_val@U?$_Simple_types@U?$pair@HH@std@@@std@@@2@$00@std@@QEBAAEBV?$allocator@U?$pair@HH@std@@@2@XZ ; std::_Compressed_pair<std::allocator<std::pair<int,int> >,std::_Vector_val<std::_Simple_types<std::pair<int,int> > >,1>::_Get_first
PUBLIC	??0?$initializer_list@U?$pair@HH@std@@@std@@QEAA@PEBU?$pair@HH@1@0@Z ; std::initializer_list<std::pair<int,int> >::initializer_list<std::pair<int,int> >
PUBLIC	?begin@?$initializer_list@U?$pair@HH@std@@@std@@QEBAPEBU?$pair@HH@2@XZ ; std::initializer_list<std::pair<int,int> >::begin
PUBLIC	?end@?$initializer_list@U?$pair@HH@std@@@std@@QEBAPEBU?$pair@HH@2@XZ ; std::initializer_list<std::pair<int,int> >::end
PUBLIC	??$?0HH$0A@@?$pair@HH@std@@QEAA@$$QEAH0@Z	; std::pair<int,int>::pair<int,int><int,int,0>
PUBLIC	??0?$basic_stringstream@DU?$char_traits@D@std@@V?$allocator@D@2@@std@@QEAA@H@Z ; std::basic_stringstream<char,std::char_traits<char>,std::allocator<char> >::basic_stringstream<char,std::char_traits<char>,std::allocator<char> >
PUBLIC	??1?$basic_stringstream@DU?$char_traits@D@std@@V?$allocator@D@2@@std@@UEAA@XZ ; std::basic_stringstream<char,std::char_traits<char>,std::allocator<char> >::~basic_stringstream<char,std::char_traits<char>,std::allocator<char> >
PUBLIC	?str@?$basic_stringstream@DU?$char_traits@D@std@@V?$allocator@D@2@@std@@QEBA?AV?$basic_string@DU?$char_traits@D@std@@V?$allocator@D@2@@2@XZ ; std::basic_stringstream<char,std::char_traits<char>,std::allocator<char> >::str
PUBLIC	??0?$basic_stringbuf@DU?$char_traits@D@std@@V?$allocator@D@2@@std@@QEAA@H@Z ; std::basic_stringbuf<char,std::char_traits<char>,std::allocator<char> >::basic_stringbuf<char,std::char_traits<char>,std::allocator<char> >
PUBLIC	??1?$basic_stringbuf@DU?$char_traits@D@std@@V?$allocator@D@2@@std@@UEAA@XZ ; std::basic_stringbuf<char,std::char_traits<char>,std::allocator<char> >::~basic_stringbuf<char,std::char_traits<char>,std::allocator<char> >
PUBLIC	?str@?$basic_stringbuf@DU?$char_traits@D@std@@V?$allocator@D@2@@std@@QEBA?AV?$basic_string@DU?$char_traits@D@std@@V?$allocator@D@2@@2@XZ ; std::basic_stringbuf<char,std::char_traits<char>,std::allocator<char> >::str
PUBLIC	?overflow@?$basic_stringbuf@DU?$char_traits@D@std@@V?$allocator@D@2@@std@@MEAAHH@Z ; std::basic_stringbuf<char,std::char_traits<char>,std::allocator<char> >::overflow
PUBLIC	?pbackfail@?$basic_stringbuf@DU?$char_traits@D@std@@V?$allocator@D@2@@std@@MEAAHH@Z ; std::basic_stringbuf<char,std::char_traits<char>,std::allocator<char> >::pbackfail
PUBLIC	?underflow@?$basic_stringbuf@DU?$char_traits@D@std@@V?$allocator@D@2@@std@@MEAAHXZ ; std::basic_stringbuf<char,std::char_traits<char>,std::allocator<char> >::underflow
PUBLIC	?seekoff@?$basic_stringbuf@DU?$char_traits@D@std@@V?$allocator@D@2@@std@@MEAA?AV?$fpos@U_Mbstatet@@@2@_JHH@Z ; std::basic_stringbuf<char,std::char_traits<char>,std::allocator<char> >::seekoff
PUBLIC	?seekpos@?$basic_stringbuf@DU?$char_traits@D@std@@V?$allocator@D@2@@std@@MEAA?AV?$fpos@U_Mbstatet@@@2@V32@H@Z ; std::basic_stringbuf<char,std::char_traits<char>,std::allocator<char> >::seekpos
PUBLIC	?_Tidy@?$basic_stringbuf@DU?$char_traits@D@std@@V?$allocator@D@2@@std@@IEAAXXZ ; std::basic_stringbuf<char,std::char_traits<char>,std::allocator<char> >::_Tidy
PUBLIC	?_Getstate@?$basic_stringbuf@DU?$char_traits@D@std@@V?$allocator@D@2@@std@@CAHH@Z ; std::basic_stringbuf<char,std::char_traits<char>,std::allocator<char> >::_Getstate
PUBLIC	??_G?$basic_stringbuf@DU?$char_traits@D@std@@V?$allocator@D@2@@std@@UEAAPEAXI@Z ; std::basic_stringbuf<char,std::char_traits<char>,std::allocator<char> >::`scalar deleting destructor'
PUBLIC	??_G?$basic_stringstream@DU?$char_traits@D@std@@V?$allocator@D@2@@std@@UEAAPEAXI@Z ; std::basic_stringstream<char,std::char_traits<char>,std::allocator<char> >::`scalar deleting destructor'
PUBLIC	??_D?$basic_stringstream@DU?$char_traits@D@std@@V?$allocator@D@2@@std@@QEAAXXZ ; std::basic_stringstream<char,std::char_traits<char>,std::allocator<char> >::`vbase destructor'
PUBLIC	??0?$basic_ofstream@DU?$char_traits@D@std@@@std@@QEAA@PEBDHH@Z ; std::basic_ofstream<char,std::char_traits<char> >::basic_ofstream<char,std::char_traits<char> >
PUBLIC	??0?$basic_ofstream@DU?$char_traits@D@std@@@std@@QEAA@AEBV?$basic_string@DU?$char_traits@D@std@@V?$allocator@D@2@@1@HH@Z ; std::basic_ofstream<char,std::char_traits<char> >::basic_ofstream<char,std::char_traits<char> >
PUBLIC	??1?$basic_ofstream@DU?$char_traits@D@std@@@std@@UEAA@XZ ; std::basic_ofstream<char,std::char_traits<char> >::~basic_ofstream<char,std::char_traits<char> >
PUBLIC	?close@?$basic_ofstream@DU?$char_traits@D@std@@@std@@QEAAXXZ ; std::basic_ofstream<char,std::char_traits<char> >::close
PUBLIC	??0?$basic_filebuf@DU?$char_traits@D@std@@@std@@QEAA@PEAU_iobuf@@@Z ; std::basic_filebuf<char,std::char_traits<char> >::basic_filebuf<char,std::char_traits<char> >
PUBLIC	??1?$basic_filebuf@DU?$char_traits@D@std@@@std@@UEAA@XZ ; std::basic_filebuf<char,std::char_traits<char> >::~basic_filebuf<char,std::char_traits<char> >
PUBLIC	?open@?$basic_filebuf@DU?$char_traits@D@std@@@std@@QEAAPEAV12@PEBDHH@Z ; std::basic_filebuf<char,std::char_traits<char> >::open
PUBLIC	?close@?$basic_filebuf@DU?$char_traits@D@std@@@std@@QEAAPEAV12@XZ ; std::basic_filebuf<char,std::char_traits<char> >::close
PUBLIC	?_Lock@?$basic_filebuf@DU?$char_traits@D@std@@@std@@UEAAXXZ ; std::basic_filebuf<char,std::char_traits<char> >::_Lock
PUBLIC	?_Unlock@?$basic_filebuf@DU?$char_traits@D@std@@@std@@UEAAXXZ ; std::basic_filebuf<char,std::char_traits<char> >::_Unlock
PUBLIC	?overflow@?$basic_filebuf@DU?$char_traits@D@std@@@std@@MEAAHH@Z ; std::basic_filebuf<char,std::char_traits<char> >::overflow
PUBLIC	?pbackfail@?$basic_filebuf@DU?$char_traits@D@std@@@std@@MEAAHH@Z ; std::basic_filebuf<char,std::char_traits<char> >::pbackfail
PUBLIC	?underflow@?$basic_filebuf@DU?$char_traits@D@std@@@std@@MEAAHXZ ; std::basic_filebuf<char,std::char_traits<char> >::underflow
PUBLIC	?uflow@?$basic_filebuf@DU?$char_traits@D@std@@@std@@MEAAHXZ ; std::basic_filebuf<char,std::char_traits<char> >::uflow
PUBLIC	?xsgetn@?$basic_filebuf@DU?$char_traits@D@std@@@std@@MEAA_JPEAD_J@Z ; std::basic_filebuf<char,std::char_traits<char> >::xsgetn
PUBLIC	?xsputn@?$basic_filebuf@DU?$char_traits@D@std@@@std@@MEAA_JPEBD_J@Z ; std::basic_filebuf<char,std::char_traits<char> >::xsputn
PUBLIC	?seekoff@?$basic_filebuf@DU?$char_traits@D@std@@@std@@MEAA?AV?$fpos@U_Mbstatet@@@2@_JHH@Z ; std::basic_filebuf<char,std::char_traits<char> >::seekoff
PUBLIC	?seekpos@?$basic_filebuf@DU?$char_traits@D@std@@@std@@MEAA?AV?$fpos@U_Mbstatet@@@2@V32@H@Z ; std::basic_filebuf<char,std::char_traits<char> >::seekpos
PUBLIC	?setbuf@?$basic_filebuf@DU?$char_traits@D@std@@@std@@MEAAPEAV?$basic_streambuf@DU?$char_traits@D@std@@@2@PEAD_J@Z ; std::basic_filebuf<char,std::char_traits<char> >::setbuf
PUBLIC	?sync@?$basic_filebuf@DU?$char_traits@D@std@@@std@@MEAAHXZ ; std::basic_filebuf<char,std::char_traits<char> >::sync
PUBLIC	?imbue@?$basic_filebuf@DU?$char_traits@D@std@@@std@@MEAAXAEBVlocale@2@@Z ; std::basic_filebuf<char,std::char_traits<char> >::imbue
PUBLIC	?_Init@?$basic_filebuf@DU?$char_traits@D@std@@@std@@IEAAXPEAU_iobuf@@W4_Initfl@12@@Z ; std::basic_filebuf<char,std::char_traits<char> >::_Init
PUBLIC	?_Endwrite@?$basic_filebuf@DU?$char_traits@D@std@@@std@@IEAA_NXZ ; std::basic_filebuf<char,std::char_traits<char> >::_Endwrite
PUBLIC	?_Initcvt@?$basic_filebuf@DU?$char_traits@D@std@@@std@@IEAAXAEBV?$codecvt@DDU_Mbstatet@@@2@@Z ; std::basic_filebuf<char,std::char_traits<char> >::_Initcvt
PUBLIC	?_Reset_back@?$basic_filebuf@DU?$char_traits@D@std@@@std@@AEAAXXZ ; std::basic_filebuf<char,std::char_traits<char> >::_Reset_back
PUBLIC	?_Set_back@?$basic_filebuf@DU?$char_traits@D@std@@@std@@AEAAXXZ ; std::basic_filebuf<char,std::char_traits<char> >::_Set_back
PUBLIC	??_G?$basic_filebuf@DU?$char_traits@D@std@@@std@@UEAAPEAXI@Z ; std::basic_filebuf<char,std::char_traits<char> >::`scalar deleting destructor'
PUBLIC	??_G?$basic_ofstream@DU?$char_traits@D@std@@@std@@UEAAPEAXI@Z ; std::basic_ofstream<char,std::char_traits<char> >::`scalar deleting destructor'
PUBLIC	??_D?$basic_ofstream@DU?$char_traits@D@std@@@std@@QEAAXXZ ; std::basic_ofstream<char,std::char_traits<char> >::`vbase destructor'
PUBLIC	??$?6DU?$char_traits@D@std@@V?$allocator@D@1@@std@@YAAEAV?$basic_ostream@DU?$char_traits@D@std@@@0@AEAV10@AEBV?$basic_string@DU?$char_traits@D@std@@V?$allocator@D@2@@0@@Z ; std::operator<<<char,std::char_traits<char>,std::allocator<char> >
PUBLIC	??0?$allocator@UCX_DESC@@@std@@QEAA@XZ		; std::allocator<CX_DESC>::allocator<CX_DESC>
PUBLIC	?deallocate@?$allocator@UCX_DESC@@@std@@QEAAXQEAUCX_DESC@@_K@Z ; std::allocator<CX_DESC>::deallocate
PUBLIC	?allocate@?$allocator@UCX_DESC@@@std@@QEAAPEAUCX_DESC@@_K@Z ; std::allocator<CX_DESC>::allocate
PUBLIC	?max_size@?$_Default_allocator_traits@V?$allocator@UCX_DESC@@@std@@@std@@SA_KAEBV?$allocator@UCX_DESC@@@2@@Z ; std::_Default_allocator_traits<std::allocator<CX_DESC> >::max_size
PUBLIC	??0?$vector@UCX_DESC@@V?$allocator@UCX_DESC@@@std@@@std@@QEAA@XZ ; std::vector<CX_DESC,std::allocator<CX_DESC> >::vector<CX_DESC,std::allocator<CX_DESC> >
PUBLIC	??1?$vector@UCX_DESC@@V?$allocator@UCX_DESC@@@std@@@std@@QEAA@XZ ; std::vector<CX_DESC,std::allocator<CX_DESC> >::~vector<CX_DESC,std::allocator<CX_DESC> >
PUBLIC	?push_back@?$vector@UCX_DESC@@V?$allocator@UCX_DESC@@@std@@@std@@QEAAXAEBUCX_DESC@@@Z ; std::vector<CX_DESC,std::allocator<CX_DESC> >::push_back
PUBLIC	?size@?$vector@UCX_DESC@@V?$allocator@UCX_DESC@@@std@@@std@@QEBA_KXZ ; std::vector<CX_DESC,std::allocator<CX_DESC> >::size
PUBLIC	?max_size@?$vector@UCX_DESC@@V?$allocator@UCX_DESC@@@std@@@std@@QEBA_KXZ ; std::vector<CX_DESC,std::allocator<CX_DESC> >::max_size
PUBLIC	?capacity@?$vector@UCX_DESC@@V?$allocator@UCX_DESC@@@std@@@std@@QEBA_KXZ ; std::vector<CX_DESC,std::allocator<CX_DESC> >::capacity
PUBLIC	??A?$vector@UCX_DESC@@V?$allocator@UCX_DESC@@@std@@@std@@QEAAAEAUCX_DESC@@_K@Z ; std::vector<CX_DESC,std::allocator<CX_DESC> >::operator[]
PUBLIC	?_Umove@?$vector@UCX_DESC@@V?$allocator@UCX_DESC@@@std@@@std@@AEAAPEAUCX_DESC@@PEAU3@00@Z ; std::vector<CX_DESC,std::allocator<CX_DESC> >::_Umove
PUBLIC	?_Umove_if_noexcept1@?$vector@UCX_DESC@@V?$allocator@UCX_DESC@@@std@@@std@@AEAAXPEAUCX_DESC@@00U?$integral_constant@_N$00@2@@Z ; std::vector<CX_DESC,std::allocator<CX_DESC> >::_Umove_if_noexcept1
PUBLIC	?_Umove_if_noexcept@?$vector@UCX_DESC@@V?$allocator@UCX_DESC@@@std@@@std@@AEAAXPEAUCX_DESC@@00@Z ; std::vector<CX_DESC,std::allocator<CX_DESC> >::_Umove_if_noexcept
PUBLIC	?_Destroy@?$vector@UCX_DESC@@V?$allocator@UCX_DESC@@@std@@@std@@AEAAXPEAUCX_DESC@@0@Z ; std::vector<CX_DESC,std::allocator<CX_DESC> >::_Destroy
PUBLIC	?_Calculate_growth@?$vector@UCX_DESC@@V?$allocator@UCX_DESC@@@std@@@std@@AEBA_K_K@Z ; std::vector<CX_DESC,std::allocator<CX_DESC> >::_Calculate_growth
PUBLIC	?_Change_array@?$vector@UCX_DESC@@V?$allocator@UCX_DESC@@@std@@@std@@AEAAXQEAUCX_DESC@@_K1@Z ; std::vector<CX_DESC,std::allocator<CX_DESC> >::_Change_array
PUBLIC	?_Tidy@?$vector@UCX_DESC@@V?$allocator@UCX_DESC@@@std@@@std@@AEAAXXZ ; std::vector<CX_DESC,std::allocator<CX_DESC> >::_Tidy
PUBLIC	?_Xlength@?$vector@UCX_DESC@@V?$allocator@UCX_DESC@@@std@@@std@@CAXXZ ; std::vector<CX_DESC,std::allocator<CX_DESC> >::_Xlength
PUBLIC	?_Orphan_range@?$vector@UCX_DESC@@V?$allocator@UCX_DESC@@@std@@@std@@AEBAXPEAUCX_DESC@@0@Z ; std::vector<CX_DESC,std::allocator<CX_DESC> >::_Orphan_range
PUBLIC	?_Getal@?$vector@UCX_DESC@@V?$allocator@UCX_DESC@@@std@@@std@@AEAAAEAV?$allocator@UCX_DESC@@@2@XZ ; std::vector<CX_DESC,std::allocator<CX_DESC> >::_Getal
PUBLIC	?_Getal@?$vector@UCX_DESC@@V?$allocator@UCX_DESC@@@std@@@std@@AEBAAEBV?$allocator@UCX_DESC@@@2@XZ ; std::vector<CX_DESC,std::allocator<CX_DESC> >::_Getal
PUBLIC	??0?$_Vector_val@U?$_Simple_types@UCX_DESC@@@std@@@std@@QEAA@XZ ; std::_Vector_val<std::_Simple_types<CX_DESC> >::_Vector_val<std::_Simple_types<CX_DESC> >
PUBLIC	?_Get_first@?$_Compressed_pair@V?$allocator@UCX_DESC@@@std@@V?$_Vector_val@U?$_Simple_types@UCX_DESC@@@std@@@2@$00@std@@QEAAAEAV?$allocator@UCX_DESC@@@2@XZ ; std::_Compressed_pair<std::allocator<CX_DESC>,std::_Vector_val<std::_Simple_types<CX_DESC> >,1>::_Get_first
PUBLIC	?_Get_first@?$_Compressed_pair@V?$allocator@UCX_DESC@@@std@@V?$_Vector_val@U?$_Simple_types@UCX_DESC@@@std@@@2@$00@std@@QEBAAEBV?$allocator@UCX_DESC@@@2@XZ ; std::_Compressed_pair<std::allocator<CX_DESC>,std::_Vector_val<std::_Simple_types<CX_DESC> >,1>::_Get_first
PUBLIC	?run@@YAHHQEAPEAD@Z				; run
PUBLIC	??0?$allocator@PEBD@std@@QEAA@XZ		; std::allocator<char const *>::allocator<char const *>
PUBLIC	?deallocate@?$allocator@PEBD@std@@QEAAXQEAPEBD_K@Z ; std::allocator<char const *>::deallocate
PUBLIC	?allocate@?$allocator@PEBD@std@@QEAAPEAPEBD_K@Z	; std::allocator<char const *>::allocate
PUBLIC	?max_size@?$_Default_allocator_traits@V?$allocator@PEBD@std@@@std@@SA_KAEBV?$allocator@PEBD@2@@Z ; std::_Default_allocator_traits<std::allocator<char const *> >::max_size
PUBLIC	??1?$vector@PEBDV?$allocator@PEBD@std@@@std@@QEAA@XZ ; std::vector<char const *,std::allocator<char const *> >::~vector<char const *,std::allocator<char const *> >
PUBLIC	?push_back@?$vector@PEBDV?$allocator@PEBD@std@@@std@@QEAAXAEBQEBD@Z ; std::vector<char const *,std::allocator<char const *> >::push_back
PUBLIC	?data@?$vector@PEBDV?$allocator@PEBD@std@@@std@@QEAAPEAPEBDXZ ; std::vector<char const *,std::allocator<char const *> >::data
PUBLIC	?max_size@?$vector@PEBDV?$allocator@PEBD@std@@@std@@QEBA_KXZ ; std::vector<char const *,std::allocator<char const *> >::max_size
PUBLIC	?capacity@?$vector@PEBDV?$allocator@PEBD@std@@@std@@QEBA_KXZ ; std::vector<char const *,std::allocator<char const *> >::capacity
PUBLIC	?_Umove@?$vector@PEBDV?$allocator@PEBD@std@@@std@@AEAAPEAPEBDPEAPEBD00@Z ; std::vector<char const *,std::allocator<char const *> >::_Umove
PUBLIC	?_Umove_if_noexcept1@?$vector@PEBDV?$allocator@PEBD@std@@@std@@AEAAXPEAPEBD00U?$integral_constant@_N$00@2@@Z ; std::vector<char const *,std::allocator<char const *> >::_Umove_if_noexcept1
PUBLIC	?_Umove_if_noexcept@?$vector@PEBDV?$allocator@PEBD@std@@@std@@AEAAXPEAPEBD00@Z ; std::vector<char const *,std::allocator<char const *> >::_Umove_if_noexcept
PUBLIC	?_Destroy@?$vector@PEBDV?$allocator@PEBD@std@@@std@@AEAAXPEAPEBD0@Z ; std::vector<char const *,std::allocator<char const *> >::_Destroy
PUBLIC	?_Calculate_growth@?$vector@PEBDV?$allocator@PEBD@std@@@std@@AEBA_K_K@Z ; std::vector<char const *,std::allocator<char const *> >::_Calculate_growth
PUBLIC	?_Buy_raw@?$vector@PEBDV?$allocator@PEBD@std@@@std@@AEAAX_K@Z ; std::vector<char const *,std::allocator<char const *> >::_Buy_raw
PUBLIC	?_Buy_nonzero@?$vector@PEBDV?$allocator@PEBD@std@@@std@@AEAAX_K@Z ; std::vector<char const *,std::allocator<char const *> >::_Buy_nonzero
PUBLIC	?_Change_array@?$vector@PEBDV?$allocator@PEBD@std@@@std@@AEAAXQEAPEBD_K1@Z ; std::vector<char const *,std::allocator<char const *> >::_Change_array
PUBLIC	?_Tidy@?$vector@PEBDV?$allocator@PEBD@std@@@std@@AEAAXXZ ; std::vector<char const *,std::allocator<char const *> >::_Tidy
PUBLIC	?_Xlength@?$vector@PEBDV?$allocator@PEBD@std@@@std@@CAXXZ ; std::vector<char const *,std::allocator<char const *> >::_Xlength
PUBLIC	?_Orphan_range@?$vector@PEBDV?$allocator@PEBD@std@@@std@@AEBAXPEAPEBD0@Z ; std::vector<char const *,std::allocator<char const *> >::_Orphan_range
PUBLIC	?_Getal@?$vector@PEBDV?$allocator@PEBD@std@@@std@@AEAAAEAV?$allocator@PEBD@2@XZ ; std::vector<char const *,std::allocator<char const *> >::_Getal
PUBLIC	?_Getal@?$vector@PEBDV?$allocator@PEBD@std@@@std@@AEBAAEBV?$allocator@PEBD@2@XZ ; std::vector<char const *,std::allocator<char const *> >::_Getal
PUBLIC	??0?$_Vector_val@U?$_Simple_types@PEBD@std@@@std@@QEAA@XZ ; std::_Vector_val<std::_Simple_types<char const *> >::_Vector_val<std::_Simple_types<char const *> >
PUBLIC	?_Get_first@?$_Compressed_pair@V?$allocator@PEBD@std@@V?$_Vector_val@U?$_Simple_types@PEBD@std@@@2@$00@std@@QEAAAEAV?$allocator@PEBD@2@XZ ; std::_Compressed_pair<std::allocator<char const *>,std::_Vector_val<std::_Simple_types<char const *> >,1>::_Get_first
PUBLIC	?_Get_first@?$_Compressed_pair@V?$allocator@PEBD@std@@V?$_Vector_val@U?$_Simple_types@PEBD@std@@@2@$00@std@@QEBAAEBV?$allocator@PEBD@2@XZ ; std::_Compressed_pair<std::allocator<char const *>,std::_Vector_val<std::_Simple_types<char const *> >,1>::_Get_first
PUBLIC	??$?0QEAPEADX@?$vector@PEBDV?$allocator@PEBD@std@@@std@@QEAA@PEAPEAD0AEBV?$allocator@PEBD@1@@Z ; std::vector<char const *,std::allocator<char const *> >::vector<char const *,std::allocator<char const *> ><char * * const,void>
PUBLIC	main
PUBLIC	??$_Unfancy_maybe_null@PEBD@std@@YAPEAPEBDPEAPEBD@Z ; std::_Unfancy_maybe_null<char const *>
PUBLIC	??$emplace_back@AEBQEBD@?$vector@PEBDV?$allocator@PEBD@std@@@std@@QEAAXAEBQEBD@Z ; std::vector<char const *,std::allocator<char const *> >::emplace_back<char const * const &>
PUBLIC	??$forward@AEBQEBD@std@@YAAEBQEBDAEBQEBD@Z	; std::forward<char const * const &>
PUBLIC	??$_Emplace_back_with_unused_capacity@AEBQEBD@?$vector@PEBDV?$allocator@PEBD@std@@@std@@AEAAXAEBQEBD@Z ; std::vector<char const *,std::allocator<char const *> >::_Emplace_back_with_unused_capacity<char const * const &>
PUBLIC	??$_Unfancy@PEBD@std@@YAPEAPEBDPEAPEBD@Z	; std::_Unfancy<char const *>
PUBLIC	??$construct@PEBDAEBQEBD@?$_Default_allocator_traits@V?$allocator@PEBD@std@@@std@@SAXAEAV?$allocator@PEBD@1@QEAPEBDAEBQEBD@Z ; std::_Default_allocator_traits<std::allocator<char const *> >::construct<char const *,char const * const &>
PUBLIC	??$_Emplace_reallocate@AEBQEBD@?$vector@PEBDV?$allocator@PEBD@std@@@std@@QEAAPEAPEBDQEAPEBDAEBQEBD@Z ; std::vector<char const *,std::allocator<char const *> >::_Emplace_reallocate<char const * const &>
PUBLIC	?allocate@?$allocator@U_Container_proxy@std@@@std@@QEAAPEAU_Container_proxy@2@_K@Z ; std::allocator<std::_Container_proxy>::allocate
PUBLIC	??$?0PEBD@?$allocator@U_Container_proxy@std@@@std@@QEAA@AEBV?$allocator@PEBD@1@@Z ; std::allocator<std::_Container_proxy>::allocator<std::_Container_proxy><char const *>
PUBLIC	??$exchange@PEAU_Container_proxy@std@@$$T@std@@YAPEAU_Container_proxy@0@AEAPEAU10@$$QEA$$T@Z ; std::exchange<std::_Container_proxy *,std::nullptr_t>
PUBLIC	??$_Delete_plain_internal@V?$allocator@U_Container_proxy@std@@@std@@@std@@YAXAEAV?$allocator@U_Container_proxy@std@@@0@QEAU_Container_proxy@0@@Z ; std::_Delete_plain_internal<std::allocator<std::_Container_proxy> >
PUBLIC	??$_Alloc_proxy@V?$allocator@U_Container_proxy@std@@@std@@@_Container_base12@std@@QEAAX$$QEAV?$allocator@U_Container_proxy@std@@@1@@Z ; std::_Container_base12::_Alloc_proxy<std::allocator<std::_Container_proxy> >
PUBLIC	??$emplace_back@AEBUCX_DESC@@@?$vector@UCX_DESC@@V?$allocator@UCX_DESC@@@std@@@std@@QEAAXAEBUCX_DESC@@@Z ; std::vector<CX_DESC,std::allocator<CX_DESC> >::emplace_back<CX_DESC const &>
PUBLIC	??$forward@AEBUCX_DESC@@@std@@YAAEBUCX_DESC@@AEBU1@@Z ; std::forward<CX_DESC const &>
PUBLIC	??$_Emplace_back_with_unused_capacity@AEBUCX_DESC@@@?$vector@UCX_DESC@@V?$allocator@UCX_DESC@@@std@@@std@@AEAAXAEBUCX_DESC@@@Z ; std::vector<CX_DESC,std::allocator<CX_DESC> >::_Emplace_back_with_unused_capacity<CX_DESC const &>
PUBLIC	??$_Unfancy@UCX_DESC@@@std@@YAPEAUCX_DESC@@PEAU1@@Z ; std::_Unfancy<CX_DESC>
PUBLIC	??$construct@UCX_DESC@@AEBU1@@?$_Default_allocator_traits@V?$allocator@UCX_DESC@@@std@@@std@@SAXAEAV?$allocator@UCX_DESC@@@1@QEAUCX_DESC@@AEBU3@@Z ; std::_Default_allocator_traits<std::allocator<CX_DESC> >::construct<CX_DESC,CX_DESC const &>
PUBLIC	??$_Emplace_reallocate@AEBUCX_DESC@@@?$vector@UCX_DESC@@V?$allocator@UCX_DESC@@@std@@@std@@QEAAPEAUCX_DESC@@QEAU2@AEBU2@@Z ; std::vector<CX_DESC,std::allocator<CX_DESC> >::_Emplace_reallocate<CX_DESC const &>
PUBLIC	??$?0UCX_DESC@@@?$allocator@U_Container_proxy@std@@@std@@QEAA@AEBV?$allocator@UCX_DESC@@@1@@Z ; std::allocator<std::_Container_proxy>::allocator<std::_Container_proxy><CX_DESC>
PUBLIC	??$?0$$V@?$_Compressed_pair@V?$allocator@UCX_DESC@@@std@@V?$_Vector_val@U?$_Simple_types@UCX_DESC@@@std@@@2@$00@std@@QEAA@U_Zero_then_variadic_args_t@1@@Z ; std::_Compressed_pair<std::allocator<CX_DESC>,std::_Vector_val<std::_Simple_types<CX_DESC> >,1>::_Compressed_pair<std::allocator<CX_DESC>,std::_Vector_val<std::_Simple_types<CX_DESC> >,1><>
PUBLIC	??$use_facet@V?$codecvt@DDU_Mbstatet@@@std@@@std@@YAAEBV?$codecvt@DDU_Mbstatet@@@0@AEBVlocale@0@@Z ; std::use_facet<std::codecvt<char,char,_Mbstatet> >
PUBLIC	??0?$fpos@U_Mbstatet@@@std@@QEAA@_J@Z		; std::fpos<_Mbstatet>::fpos<_Mbstatet>
PUBLIC	??0?$fpos@U_Mbstatet@@@std@@QEAA@U_Mbstatet@@_J@Z ; std::fpos<_Mbstatet>::fpos<_Mbstatet>
PUBLIC	?state@?$fpos@U_Mbstatet@@@std@@QEBA?AU_Mbstatet@@XZ ; std::fpos<_Mbstatet>::state
PUBLIC	??B?$fpos@U_Mbstatet@@@std@@QEBA_JXZ		; std::fpos<_Mbstatet>::operator __int64
PUBLIC	??$_Min_value@_K@std@@YAAEB_KAEB_K0@Z		; std::_Min_value<unsigned __int64>
PUBLIC	??$_Max_value@PEAD@std@@YAAEBQEADAEBQEAD0@Z	; std::_Max_value<char *>
PUBLIC	??$_Unfancy@D@std@@YAPEADPEAD@Z			; std::_Unfancy<char>
PUBLIC	?pointer_to@?$pointer_traits@PEAD@std@@SAPEADAEAD@Z ; std::pointer_traits<char *>::pointer_to
PUBLIC	??$addressof@V?$basic_stringbuf@DU?$char_traits@D@std@@V?$allocator@D@2@@std@@@std@@YAPEAV?$basic_stringbuf@DU?$char_traits@D@std@@V?$allocator@D@2@@0@AEAV10@@Z ; std::addressof<std::basic_stringbuf<char,std::char_traits<char>,std::allocator<char> > >
PUBLIC	??$?0U?$pair@HH@std@@@?$allocator@U_Container_proxy@std@@@std@@QEAA@AEBV?$allocator@U?$pair@HH@std@@@1@@Z ; std::allocator<std::_Container_proxy>::allocator<std::_Container_proxy><std::pair<int,int> >
PUBLIC	??$?0AEBV?$allocator@U?$pair@HH@std@@@std@@$$V@?$_Compressed_pair@V?$allocator@U?$pair@HH@std@@@std@@V?$_Vector_val@U?$_Simple_types@U?$pair@HH@std@@@std@@@2@$00@std@@QEAA@U_One_then_variadic_args_t@1@AEBV?$allocator@U?$pair@HH@std@@@1@@Z ; std::_Compressed_pair<std::allocator<std::pair<int,int> >,std::_Vector_val<std::_Simple_types<std::pair<int,int> > >,1>::_Compressed_pair<std::allocator<std::pair<int,int> >,std::_Vector_val<std::_Simple_types<std::pair<int,int> > >,1><std::allocator<std::pair<int,int> > const &>
PUBLIC	??0?$_Container_proxy_ptr12@V?$allocator@U_Container_proxy@std@@@std@@@std@@QEAA@AEAV?$allocator@U_Container_proxy@std@@@1@AEAU_Container_base12@1@@Z ; std::_Container_proxy_ptr12<std::allocator<std::_Container_proxy> >::_Container_proxy_ptr12<std::allocator<std::_Container_proxy> >
PUBLIC	??1?$_Container_proxy_ptr12@V?$allocator@U_Container_proxy@std@@@std@@@std@@QEAA@XZ ; std::_Container_proxy_ptr12<std::allocator<std::_Container_proxy> >::~_Container_proxy_ptr12<std::allocator<std::_Container_proxy> >
PUBLIC	??$_Range_construct_or_tidy@PEBU?$pair@HH@std@@@?$vector@U?$pair@HH@std@@V?$allocator@U?$pair@HH@std@@@2@@std@@AEAAXPEBU?$pair@HH@1@0Uforward_iterator_tag@1@@Z ; std::vector<std::pair<int,int>,std::allocator<std::pair<int,int> > >::_Range_construct_or_tidy<std::pair<int,int> const *>
PUBLIC	??$?0U?$pair@V?$vector@_KV?$allocator@_K@std@@@std@@V?$basic_string@DU?$char_traits@D@std@@V?$allocator@D@2@@2@@std@@@?$allocator@U_Container_proxy@std@@@std@@QEAA@AEBV?$allocator@U?$pair@V?$vector@_KV?$allocator@_K@std@@@std@@V?$basic_string@DU?$char_traits@D@std@@V?$allocator@D@2@@2@@std@@@1@@Z ; std::allocator<std::_Container_proxy>::allocator<std::_Container_proxy><std::pair<std::vector<unsigned __int64,std::allocator<unsigned __int64> >,std::basic_string<char,std::char_traits<char>,std::allocator<char> > > >
PUBLIC	??$move@AEAV?$allocator@U?$pair@V?$vector@_KV?$allocator@_K@std@@@std@@V?$basic_string@DU?$char_traits@D@std@@V?$allocator@D@2@@2@@std@@@std@@@std@@YA$$QEAV?$allocator@U?$pair@V?$vector@_KV?$allocator@_K@std@@@std@@V?$basic_string@DU?$char_traits@D@std@@V?$allocator@D@2@@2@@std@@@0@AEAV10@@Z ; std::move<std::allocator<std::pair<std::vector<unsigned __int64,std::allocator<unsigned __int64> >,std::basic_string<char,std::char_traits<char>,std::allocator<char> > > > &>
PUBLIC	??$?0V?$allocator@U?$pair@V?$vector@_KV?$allocator@_K@std@@@std@@V?$basic_string@DU?$char_traits@D@std@@V?$allocator@D@2@@2@@std@@@std@@$$V@?$_Compressed_pair@V?$allocator@U?$pair@V?$vector@_KV?$allocator@_K@std@@@std@@V?$basic_string@DU?$char_traits@D@std@@V?$allocator@D@2@@2@@std@@@std@@V?$_Vector_val@U?$_Simple_types@U?$pair@V?$vector@_KV?$allocator@_K@std@@@std@@V?$basic_string@DU?$char_traits@D@std@@V?$allocator@D@2@@2@@std@@@std@@@2@$00@std@@QEAA@U_One_then_variadic_args_t@1@$$QEAV?$allocator@U?$pair@V?$vector@_KV?$allocator@_K@std@@@std@@V?$basic_string@DU?$char_traits@D@std@@V?$allocator@D@2@@2@@std@@@1@@Z ; std::_Compressed_pair<std::allocator<std::pair<std::vector<unsigned __int64,std::allocator<unsigned __int64> >,std::basic_string<char,std::char_traits<char>,std::allocator<char> > > >,std::_Vector_val<std::_Simple_types<std::pair<std::vector<unsigned __int64,std::allocator<unsigned __int64> >,std::basic_string<char,std::char_traits<char>,std::allocator<char> > > > >,1>::_Compressed_pair<std::allocator<std::pair<std::vector<unsigned __int64,std::allocator<unsigned __int64> >,std::basic_string<char,std::char_traits<char>,std::allocator<char> > > >,std::_Vector_val<std::_Simple_types<std::pair<std::vector<unsigned __int64,std::allocator<unsigned __int64> >,std::basic_string<char,std::char_traits<char>,std::allocator<char> > > > >,1><std::allocator<std::pair<std::vector<unsigned __int64,std::allocator<unsigned __int64> >,std::basic_string<char,std::char_traits<char>,std::allocator<char> > > > >
PUBLIC	??$addressof@$$CBV?$_Vector_val@U?$_Simple_types@UListData@@@std@@@std@@@std@@YAPEBV?$_Vector_val@U?$_Simple_types@UListData@@@std@@@0@AEBV10@@Z ; std::addressof<std::_Vector_val<std::_Simple_types<ListData> > const >
PUBLIC	??$?0UListData@@@?$allocator@U_Container_proxy@std@@@std@@QEAA@AEBV?$allocator@UListData@@@1@@Z ; std::allocator<std::_Container_proxy>::allocator<std::_Container_proxy><ListData>
PUBLIC	??$?0AEBV?$allocator@UListData@@@std@@$$V@?$_Compressed_pair@V?$allocator@UListData@@@std@@V?$_Vector_val@U?$_Simple_types@UListData@@@std@@@2@$00@std@@QEAA@U_One_then_variadic_args_t@1@AEBV?$allocator@UListData@@@1@@Z ; std::_Compressed_pair<std::allocator<ListData>,std::_Vector_val<std::_Simple_types<ListData> >,1>::_Compressed_pair<std::allocator<ListData>,std::_Vector_val<std::_Simple_types<ListData> >,1><std::allocator<ListData> const &>
PUBLIC	??$_Range_construct_or_tidy@PEBUListData@@@?$vector@UListData@@V?$allocator@UListData@@@std@@@std@@AEAAXPEBUListData@@0Uforward_iterator_tag@1@@Z ; std::vector<ListData,std::allocator<ListData> >::_Range_construct_or_tidy<ListData const *>
PUBLIC	??$?0I@?$allocator@U_Container_proxy@std@@@std@@QEAA@AEBV?$allocator@I@1@@Z ; std::allocator<std::_Container_proxy>::allocator<std::_Container_proxy><unsigned int>
PUBLIC	??$AtlMultiply@_K@ATL@@YAJPEA_K_K1@Z		; ATL::AtlMultiply<unsigned __int64>
PUBLIC	??R<lambda_319d5e083f45f90dcdce5dce53cbb275>@@QEBAXQEADQEBD_KD@Z ; <lambda_319d5e083f45f90dcdce5dce53cbb275>::operator()
PUBLIC	??$_Reallocate_grow_by@V<lambda_319d5e083f45f90dcdce5dce53cbb275>@@D@?$basic_string@DU?$char_traits@D@std@@V?$allocator@D@2@@std@@AEAAAEAV01@_KV<lambda_319d5e083f45f90dcdce5dce53cbb275>@@D@Z ; std::basic_string<char,std::char_traits<char>,std::allocator<char> >::_Reallocate_grow_by<<lambda_319d5e083f45f90dcdce5dce53cbb275>,char>
PUBLIC	??$addressof@V?$_String_val@U?$_Simple_types@D@std@@@std@@@std@@YAPEAV?$_String_val@U?$_Simple_types@D@std@@@0@AEAV10@@Z ; std::addressof<std::_String_val<std::_Simple_types<char> > >
PUBLIC	??$?0D@?$allocator@U_Container_proxy@std@@@std@@QEAA@AEBV?$allocator@D@1@@Z ; std::allocator<std::_Container_proxy>::allocator<std::_Container_proxy><char>
PUBLIC	??$move@AEAV?$allocator@D@std@@@std@@YA$$QEAV?$allocator@D@0@AEAV10@@Z ; std::move<std::allocator<char> &>
PUBLIC	??$?0V?$allocator@D@std@@$$V@?$_Compressed_pair@V?$allocator@D@std@@V?$_String_val@U?$_Simple_types@D@std@@@2@$00@std@@QEAA@U_One_then_variadic_args_t@1@$$QEAV?$allocator@D@1@@Z ; std::_Compressed_pair<std::allocator<char>,std::_String_val<std::_Simple_types<char> >,1>::_Compressed_pair<std::allocator<char>,std::_String_val<std::_Simple_types<char> >,1><std::allocator<char> >
PUBLIC	??$?0$$V@?$_Compressed_pair@V?$allocator@D@std@@V?$_String_val@U?$_Simple_types@D@std@@@2@$00@std@@QEAA@U_Zero_then_variadic_args_t@1@@Z ; std::_Compressed_pair<std::allocator<char>,std::_String_val<std::_Simple_types<char> >,1>::_Compressed_pair<std::allocator<char>,std::_String_val<std::_Simple_types<char> >,1><>
PUBLIC	??$_Unfancy@U_Container_proxy@std@@@std@@YAPEAU_Container_proxy@0@PEAU10@@Z ; std::_Unfancy<std::_Container_proxy>
PUBLIC	??$addressof@U_Container_base12@std@@@std@@YAPEAU_Container_base12@0@AEAU10@@Z ; std::addressof<std::_Container_base12>
PUBLIC	??$_Construct_in_place@U_Container_proxy@std@@PEAU_Container_base12@2@@std@@YAXAEAU_Container_proxy@0@$$QEAPEAU_Container_base12@0@@Z ; std::_Construct_in_place<std::_Container_proxy,std::_Container_base12 *>
PUBLIC	??$addressof@D@std@@YAPEADAEAD@Z		; std::addressof<char>
PUBLIC	??$addressof@$$CBV?$codecvt@DDU_Mbstatet@@@std@@@std@@YAPEBV?$codecvt@DDU_Mbstatet@@@0@AEBV10@@Z ; std::addressof<std::codecvt<char,char,_Mbstatet> const >
PUBLIC	??$addressof@V?$basic_filebuf@DU?$char_traits@D@std@@@std@@@std@@YAPEAV?$basic_filebuf@DU?$char_traits@D@std@@@0@AEAV10@@Z ; std::addressof<std::basic_filebuf<char,std::char_traits<char> > >
PUBLIC	??$_Destroy_in_place@PEAD@std@@YAXAEAPEAD@Z	; std::_Destroy_in_place<char *>
PUBLIC	??$_Max_value@_K@std@@YAAEB_KAEB_K0@Z		; std::_Max_value<unsigned __int64>
PUBLIC	??$addressof@$$CBV?$_String_val@U?$_Simple_types@D@std@@@std@@@std@@YAPEBV?$_String_val@U?$_Simple_types@D@std@@@0@AEBV10@@Z ; std::addressof<std::_String_val<std::_Simple_types<char> > const >
PUBLIC	??R<lambda_66f57f934f28d61049862f64df852ff0>@@QEBAXQEAD_KQEBD@Z ; <lambda_66f57f934f28d61049862f64df852ff0>::operator()
PUBLIC	??$_Reallocate_for@V<lambda_66f57f934f28d61049862f64df852ff0>@@PEBD@?$basic_string@DU?$char_traits@D@std@@V?$allocator@D@2@@std@@AEAAAEAV01@_KV<lambda_66f57f934f28d61049862f64df852ff0>@@PEBD@Z ; std::basic_string<char,std::char_traits<char>,std::allocator<char> >::_Reallocate_for<<lambda_66f57f934f28d61049862f64df852ff0>,char const *>
PUBLIC	??R<lambda_65e615be2a453ca0576c979606f46740>@@QEBAXQEADQEBD_K12@Z ; <lambda_65e615be2a453ca0576c979606f46740>::operator()
PUBLIC	??$_Reallocate_grow_by@V<lambda_65e615be2a453ca0576c979606f46740>@@PEBD_K@?$basic_string@DU?$char_traits@D@std@@V?$allocator@D@2@@std@@AEAAAEAV01@_KV<lambda_65e615be2a453ca0576c979606f46740>@@PEBD_K@Z ; std::basic_string<char,std::char_traits<char>,std::allocator<char> >::_Reallocate_grow_by<<lambda_65e615be2a453ca0576c979606f46740>,char const *,unsigned __int64>
PUBLIC	??$_Construct_in_place@PEADAEBQEAD@std@@YAXAEAPEADAEBQEAD@Z ; std::_Construct_in_place<char *,char * const &>
PUBLIC	??$_Get_size_of_n@$00@std@@YA_K_K@Z		; std::_Get_size_of_n<1>
PUBLIC	??$_Allocate@$0BA@U_Default_allocate_traits@std@@$0A@@std@@YAPEAX_K@Z ; std::_Allocate<16,std::_Default_allocate_traits,0>
PUBLIC	??$_Deallocate@$0BA@$0A@@std@@YAXPEAX_K@Z	; std::_Deallocate<16,0>
PUBLIC	??$_Get_size_of_n@$0BA@@std@@YA_K_K@Z		; std::_Get_size_of_n<16>
PUBLIC	??$_Destroy_range@V?$allocator@PEBD@std@@@std@@YAXPEAPEBDQEAPEBDAEAV?$allocator@PEBD@0@@Z ; std::_Destroy_range<std::allocator<char const *> >
PUBLIC	??$_Get_size_of_n@$0CA@@std@@YA_K_K@Z		; std::_Get_size_of_n<32>
PUBLIC	??$_Destroy_range@V?$allocator@UCX_DESC@@@std@@@std@@YAXPEAUCX_DESC@@QEAU1@AEAV?$allocator@UCX_DESC@@@0@@Z ; std::_Destroy_range<std::allocator<CX_DESC> >
PUBLIC	??$_Destroy_range@V?$allocator@U?$pair@HH@std@@@std@@@std@@YAXPEAU?$pair@HH@0@QEAU10@AEAV?$allocator@U?$pair@HH@std@@@0@@Z ; std::_Destroy_range<std::allocator<std::pair<int,int> > >
PUBLIC	??$_Destroy_range@V?$allocator@U?$pair@V?$vector@_KV?$allocator@_K@std@@@std@@V?$basic_string@DU?$char_traits@D@std@@V?$allocator@D@2@@2@@std@@@std@@@std@@YAXPEAU?$pair@V?$vector@_KV?$allocator@_K@std@@@std@@V?$basic_string@DU?$char_traits@D@std@@V?$allocator@D@2@@2@@0@QEAU10@AEAV?$allocator@U?$pair@V?$vector@_KV?$allocator@_K@std@@@std@@V?$basic_string@DU?$char_traits@D@std@@V?$allocator@D@2@@2@@std@@@0@@Z ; std::_Destroy_range<std::allocator<std::pair<std::vector<unsigned __int64,std::allocator<unsigned __int64> >,std::basic_string<char,std::char_traits<char>,std::allocator<char> > > > >
PUBLIC	??$_Destroy_range@V?$allocator@UListData@@@std@@@std@@YAXPEAUListData@@QEAU1@AEAV?$allocator@UListData@@@0@@Z ; std::_Destroy_range<std::allocator<ListData> >
PUBLIC	??$_Get_size_of_n@$03@std@@YA_K_K@Z		; std::_Get_size_of_n<4>
PUBLIC	??$_Destroy_range@V?$allocator@I@std@@@std@@YAXPEAIQEAIAEAV?$allocator@I@0@@Z ; std::_Destroy_range<std::allocator<unsigned int> >
PUBLIC	??$?0AEBV?$allocator@D@std@@$$V@?$_Compressed_pair@V?$allocator@D@std@@V?$_String_val@U?$_Simple_types@D@std@@@2@$00@std@@QEAA@U_One_then_variadic_args_t@1@AEBV?$allocator@D@1@@Z ; std::_Compressed_pair<std::allocator<char>,std::_String_val<std::_Simple_types<char> >,1>::_Compressed_pair<std::allocator<char>,std::_String_val<std::_Simple_types<char> >,1><std::allocator<char> const &>
PUBLIC	??$_Get_size_of_n@$07@std@@YA_K_K@Z		; std::_Get_size_of_n<8>
PUBLIC	??R?$default_delete@V_Facet_base@std@@@std@@QEBAXPEAV_Facet_base@1@@Z ; std::default_delete<std::_Facet_base>::operator()
PUBLIC	??1?$unique_ptr@V_Facet_base@std@@U?$default_delete@V_Facet_base@std@@@2@@std@@QEAA@XZ ; std::unique_ptr<std::_Facet_base,std::default_delete<std::_Facet_base> >::~unique_ptr<std::_Facet_base,std::default_delete<std::_Facet_base> >
PUBLIC	?release@?$unique_ptr@V_Facet_base@std@@U?$default_delete@V_Facet_base@std@@@2@@std@@QEAAPEAV_Facet_base@2@XZ ; std::unique_ptr<std::_Facet_base,std::default_delete<std::_Facet_base> >::release
PUBLIC	?_Get_first@?$_Compressed_pair@U?$default_delete@V_Facet_base@std@@@std@@PEAV_Facet_base@2@$00@std@@QEAAAEAU?$default_delete@V_Facet_base@std@@@2@XZ ; std::_Compressed_pair<std::default_delete<std::_Facet_base>,std::_Facet_base *,1>::_Get_first
PUBLIC	??$?0U?$default_delete@V_Facet_base@std@@@std@@$0A@@?$unique_ptr@V_Facet_base@std@@U?$default_delete@V_Facet_base@std@@@2@@std@@QEAA@PEAV_Facet_base@1@@Z ; std::unique_ptr<std::_Facet_base,std::default_delete<std::_Facet_base> >::unique_ptr<std::_Facet_base,std::default_delete<std::_Facet_base> ><std::default_delete<std::_Facet_base>,0>
PUBLIC	??$_Maklocstr@D@std@@YAPEADPEBDPEADAEBU_Cvtvec@@@Z ; std::_Maklocstr<char>
PUBLIC	??$_Adl_verify_range@V?$_Vector_const_iterator@V?$_Vector_val@U?$_Simple_types@UListData@@@std@@@std@@@std@@V12@@std@@YAXAEBV?$_Vector_const_iterator@V?$_Vector_val@U?$_Simple_types@UListData@@@std@@@std@@@0@0@Z ; std::_Adl_verify_range<std::_Vector_const_iterator<std::_Vector_val<std::_Simple_types<ListData> > >,std::_Vector_const_iterator<std::_Vector_val<std::_Simple_types<ListData> > > >
PUBLIC	??$_Get_unwrapped@V?$_Vector_const_iterator@V?$_Vector_val@U?$_Simple_types@UListData@@@std@@@std@@@std@@$0A@@std@@YAPEBUListData@@AEBV?$_Vector_const_iterator@V?$_Vector_val@U?$_Simple_types@UListData@@@std@@@std@@@0@@Z ; std::_Get_unwrapped<std::_Vector_const_iterator<std::_Vector_val<std::_Simple_types<ListData> > >,0>
PUBLIC	??$?0PEBIX@?$vector@IV?$allocator@I@std@@@std@@QEAA@PEBI0AEBV?$allocator@I@1@@Z ; std::vector<unsigned int,std::allocator<unsigned int> >::vector<unsigned int,std::allocator<unsigned int> ><unsigned int const *,void>
PUBLIC	??$?0AEAPEAVCQSVPipeline@@@?$_Compressed_pair@U?$default_delete@VCQSVPipeline@@@std@@PEAVCQSVPipeline@@$00@std@@QEAA@U_Zero_then_variadic_args_t@1@AEAPEAVCQSVPipeline@@@Z ; std::_Compressed_pair<std::default_delete<CQSVPipeline>,CQSVPipeline *,1>::_Compressed_pair<std::default_delete<CQSVPipeline>,CQSVPipeline *,1><CQSVPipeline * &>
PUBLIC	??$forward@H@std@@YA$$QEAHAEAH@Z		; std::forward<int>
PUBLIC	??$_Insert_string@DU?$char_traits@D@std@@_K@std@@YAAEAV?$basic_ostream@DU?$char_traits@D@std@@@0@AEAV10@QEBD_K@Z ; std::_Insert_string<char,std::char_traits<char>,unsigned __int64>
PUBLIC	??$?0AEBV?$allocator@PEBD@std@@$$V@?$_Compressed_pair@V?$allocator@PEBD@std@@V?$_Vector_val@U?$_Simple_types@PEBD@std@@@2@$00@std@@QEAA@U_One_then_variadic_args_t@1@AEBV?$allocator@PEBD@1@@Z ; std::_Compressed_pair<std::allocator<char const *>,std::_Vector_val<std::_Simple_types<char const *> >,1>::_Compressed_pair<std::allocator<char const *>,std::_Vector_val<std::_Simple_types<char const *> >,1><std::allocator<char const *> const &>
PUBLIC	??$_Adl_verify_range@PEAPEADPEAPEAD@std@@YAXAEBQEAPEAD0@Z ; std::_Adl_verify_range<char * *,char * *>
PUBLIC	??$_Get_unwrapped@PEAD@std@@YAPEAPEADQEAPEAD@Z	; std::_Get_unwrapped<char *>
PUBLIC	??$_Range_construct_or_tidy@PEAPEAD@?$vector@PEBDV?$allocator@PEBD@std@@@std@@AEAAXPEAPEAD0Uforward_iterator_tag@1@@Z ; std::vector<char const *,std::allocator<char const *> >::_Range_construct_or_tidy<char * *>
PUBLIC	??$_Deallocate_plain@V?$allocator@U_Container_proxy@std@@@std@@@std@@YAXAEAV?$allocator@U_Container_proxy@std@@@0@QEAU_Container_proxy@0@@Z ; std::_Deallocate_plain<std::allocator<std::_Container_proxy> >
PUBLIC	??$forward@AEBV?$allocator@U?$pair@HH@std@@@std@@@std@@YAAEBV?$allocator@U?$pair@HH@std@@@0@AEBV10@@Z ; std::forward<std::allocator<std::pair<int,int> > const &>
PUBLIC	??$distance@PEBU?$pair@HH@std@@@std@@YA_JPEBU?$pair@HH@0@0@Z ; std::distance<std::pair<int,int> const *>
PUBLIC	??1?$_Tidy_guard@V?$vector@U?$pair@HH@std@@V?$allocator@U?$pair@HH@std@@@2@@std@@@std@@QEAA@XZ ; std::_Tidy_guard<std::vector<std::pair<int,int>,std::allocator<std::pair<int,int> > > >::~_Tidy_guard<std::vector<std::pair<int,int>,std::allocator<std::pair<int,int> > > >
PUBLIC	??$_Ucopy@PEBU?$pair@HH@std@@@?$vector@U?$pair@HH@std@@V?$allocator@U?$pair@HH@std@@@2@@std@@AEAAPEAU?$pair@HH@1@PEBU21@0PEAU21@@Z ; std::vector<std::pair<int,int>,std::allocator<std::pair<int,int> > >::_Ucopy<std::pair<int,int> const *>
PUBLIC	??$forward@V?$allocator@U?$pair@V?$vector@_KV?$allocator@_K@std@@@std@@V?$basic_string@DU?$char_traits@D@std@@V?$allocator@D@2@@2@@std@@@std@@@std@@YA$$QEAV?$allocator@U?$pair@V?$vector@_KV?$allocator@_K@std@@@std@@V?$basic_string@DU?$char_traits@D@std@@V?$allocator@D@2@@2@@std@@@0@AEAV10@@Z ; std::forward<std::allocator<std::pair<std::vector<unsigned __int64,std::allocator<unsigned __int64> >,std::basic_string<char,std::char_traits<char>,std::allocator<char> > > > >
PUBLIC	??$forward@AEBV?$allocator@UListData@@@std@@@std@@YAAEBV?$allocator@UListData@@@0@AEBV10@@Z ; std::forward<std::allocator<ListData> const &>
PUBLIC	??$distance@PEBUListData@@@std@@YA_JPEBUListData@@0@Z ; std::distance<ListData const *>
PUBLIC	??1?$_Tidy_guard@V?$vector@UListData@@V?$allocator@UListData@@@std@@@std@@@std@@QEAA@XZ ; std::_Tidy_guard<std::vector<ListData,std::allocator<ListData> > >::~_Tidy_guard<std::vector<ListData,std::allocator<ListData> > >
PUBLIC	??$_Ucopy@PEBUListData@@@?$vector@UListData@@V?$allocator@UListData@@@std@@@std@@AEAAPEAUListData@@PEBU2@0PEAU2@@Z ; std::vector<ListData,std::allocator<ListData> >::_Ucopy<ListData const *>
PUBLIC	??$forward@V?$allocator@D@std@@@std@@YA$$QEAV?$allocator@D@0@AEAV10@@Z ; std::forward<std::allocator<char> >
PUBLIC	??$addressof@U_Container_proxy@std@@@std@@YAPEAU_Container_proxy@0@AEAU10@@Z ; std::addressof<std::_Container_proxy>
PUBLIC	??$forward@PEAU_Container_base12@std@@@std@@YA$$QEAPEAU_Container_base12@0@AEAPEAU10@@Z ; std::forward<std::_Container_base12 *>
PUBLIC	??$addressof@PEAD@std@@YAPEAPEADAEAPEAD@Z	; std::addressof<char *>
PUBLIC	??$forward@AEBQEAD@std@@YAAEBQEADAEBQEAD@Z	; std::forward<char * const &>
PUBLIC	??$_Allocate_manually_vector_aligned@U_Default_allocate_traits@std@@@std@@YAPEAX_K@Z ; std::_Allocate_manually_vector_aligned<std::_Default_allocate_traits>
PUBLIC	??$_Unfancy@U?$pair@V?$vector@_KV?$allocator@_K@std@@@std@@V?$basic_string@DU?$char_traits@D@std@@V?$allocator@D@2@@2@@std@@@std@@YAPEAU?$pair@V?$vector@_KV?$allocator@_K@std@@@std@@V?$basic_string@DU?$char_traits@D@std@@V?$allocator@D@2@@2@@0@PEAU10@@Z ; std::_Unfancy<std::pair<std::vector<unsigned __int64,std::allocator<unsigned __int64> >,std::basic_string<char,std::char_traits<char>,std::allocator<char> > > >
PUBLIC	??$destroy@U?$pair@V?$vector@_KV?$allocator@_K@std@@@std@@V?$basic_string@DU?$char_traits@D@std@@V?$allocator@D@2@@2@@std@@@?$_Default_allocator_traits@V?$allocator@U?$pair@V?$vector@_KV?$allocator@_K@std@@@std@@V?$basic_string@DU?$char_traits@D@std@@V?$allocator@D@2@@2@@std@@@std@@@std@@SAXAEAV?$allocator@U?$pair@V?$vector@_KV?$allocator@_K@std@@@std@@V?$basic_string@DU?$char_traits@D@std@@V?$allocator@D@2@@2@@std@@@1@QEAU?$pair@V?$vector@_KV?$allocator@_K@std@@@std@@V?$basic_string@DU?$char_traits@D@std@@V?$allocator@D@2@@2@@1@@Z ; std::_Default_allocator_traits<std::allocator<std::pair<std::vector<unsigned __int64,std::allocator<unsigned __int64> >,std::basic_string<char,std::char_traits<char>,std::allocator<char> > > > >::destroy<std::pair<std::vector<unsigned __int64,std::allocator<unsigned __int64> >,std::basic_string<char,std::char_traits<char>,std::allocator<char> > > >
PUBLIC	??$forward@AEBV?$allocator@D@std@@@std@@YAAEBV?$allocator@D@0@AEBV10@@Z ; std::forward<std::allocator<char> const &>
PUBLIC	??$exchange@PEAV_Facet_base@std@@PEAV12@@std@@YAPEAV_Facet_base@0@AEAPEAV10@$$QEAPEAV10@@Z ; std::exchange<std::_Facet_base *,std::_Facet_base *>
PUBLIC	??$_Uninitialized_move@PEAPEBDV?$allocator@PEBD@std@@@std@@YAPEAPEBDQEAPEBD0PEAPEBDAEAV?$allocator@PEBD@0@@Z ; std::_Uninitialized_move<char const * *,std::allocator<char const *> >
PUBLIC	??$_Get_size_of_n@$0CI@@std@@YA_K_K@Z		; std::_Get_size_of_n<40>
PUBLIC	??$_Uninitialized_move@PEAUCX_DESC@@V?$allocator@UCX_DESC@@@std@@@std@@YAPEAUCX_DESC@@QEAU1@0PEAU1@AEAV?$allocator@UCX_DESC@@@0@@Z ; std::_Uninitialized_move<CX_DESC *,std::allocator<CX_DESC> >
PUBLIC	??$_Unfancy@UListData@@@std@@YAPEAUListData@@PEAU1@@Z ; std::_Unfancy<ListData>
PUBLIC	??R<lambda_9013ee9e23efe4882b67eff5b0ecf103>@@QEBAXQEADQEBD_K@Z ; <lambda_9013ee9e23efe4882b67eff5b0ecf103>::operator()
PUBLIC	??$_Reallocate_grow_by@V<lambda_9013ee9e23efe4882b67eff5b0ecf103>@@$$V@?$basic_string@DU?$char_traits@D@std@@V?$allocator@D@2@@std@@AEAAAEAV01@_KV<lambda_9013ee9e23efe4882b67eff5b0ecf103>@@@Z ; std::basic_string<char,std::char_traits<char>,std::allocator<char> >::_Reallocate_grow_by<<lambda_9013ee9e23efe4882b67eff5b0ecf103> >
PUBLIC	??$_Get_size_of_n@$0BI@@std@@YA_K_K@Z		; std::_Get_size_of_n<24>
PUBLIC	??$?0AEAPEAV_Facet_base@std@@@?$_Compressed_pair@U?$default_delete@V_Facet_base@std@@@std@@PEAV_Facet_base@2@$00@std@@QEAA@U_Zero_then_variadic_args_t@1@AEAPEAV_Facet_base@1@@Z ; std::_Compressed_pair<std::default_delete<std::_Facet_base>,std::_Facet_base *,1>::_Compressed_pair<std::default_delete<std::_Facet_base>,std::_Facet_base *,1><std::_Facet_base * &>
PUBLIC	??$?0AEBV?$allocator@I@std@@$$V@?$_Compressed_pair@V?$allocator@I@std@@V?$_Vector_val@U?$_Simple_types@I@std@@@2@$00@std@@QEAA@U_One_then_variadic_args_t@1@AEBV?$allocator@I@1@@Z ; std::_Compressed_pair<std::allocator<unsigned int>,std::_Vector_val<std::_Simple_types<unsigned int> >,1>::_Compressed_pair<std::allocator<unsigned int>,std::_Vector_val<std::_Simple_types<unsigned int> >,1><std::allocator<unsigned int> const &>
PUBLIC	??$_Adl_verify_range@PEBIPEBI@std@@YAXAEBQEBI0@Z ; std::_Adl_verify_range<unsigned int const *,unsigned int const *>
PUBLIC	??$_Get_unwrapped@$$CBI@std@@YAPEBIQEBI@Z	; std::_Get_unwrapped<unsigned int const >
PUBLIC	??$_Range_construct_or_tidy@PEBI@?$vector@IV?$allocator@I@std@@@std@@AEAAXPEBI0Uforward_iterator_tag@1@@Z ; std::vector<unsigned int,std::allocator<unsigned int> >::_Range_construct_or_tidy<unsigned int const *>
PUBLIC	??$forward@AEAPEAVCQSVPipeline@@@std@@YAAEAPEAVCQSVPipeline@@AEAPEAV1@@Z ; std::forward<CQSVPipeline * &>
PUBLIC	??0_Sentry_base@?$basic_ostream@DU?$char_traits@D@std@@@std@@QEAA@AEAV12@@Z ; std::basic_ostream<char,std::char_traits<char> >::_Sentry_base::_Sentry_base
PUBLIC	??1_Sentry_base@?$basic_ostream@DU?$char_traits@D@std@@@std@@QEAA@XZ ; std::basic_ostream<char,std::char_traits<char> >::_Sentry_base::~_Sentry_base
PUBLIC	??0sentry@?$basic_ostream@DU?$char_traits@D@std@@@std@@QEAA@AEAV12@@Z ; std::basic_ostream<char,std::char_traits<char> >::sentry::sentry
PUBLIC	??1sentry@?$basic_ostream@DU?$char_traits@D@std@@@std@@QEAA@XZ ; std::basic_ostream<char,std::char_traits<char> >::sentry::~sentry
PUBLIC	??Bsentry@?$basic_ostream@DU?$char_traits@D@std@@@std@@QEBA_NXZ ; std::basic_ostream<char,std::char_traits<char> >::sentry::operator bool
PUBLIC	??$forward@AEBV?$allocator@PEBD@std@@@std@@YAAEBV?$allocator@PEBD@0@AEBV10@@Z ; std::forward<std::allocator<char const *> const &>
PUBLIC	??$_Verify_range@PEAD@std@@YAXQEBQEAD0@Z	; std::_Verify_range<char *>
PUBLIC	??$distance@PEAPEAD@std@@YA_JPEAPEAD0@Z		; std::distance<char * *>
PUBLIC	??1?$_Tidy_guard@V?$vector@PEBDV?$allocator@PEBD@std@@@std@@@std@@QEAA@XZ ; std::_Tidy_guard<std::vector<char const *,std::allocator<char const *> > >::~_Tidy_guard<std::vector<char const *,std::allocator<char const *> > >
PUBLIC	??$_Ucopy@PEAPEAD@?$vector@PEBDV?$allocator@PEBD@std@@@std@@AEAAPEAPEBDPEAPEAD0PEAPEBD@Z ; std::vector<char const *,std::allocator<char const *> >::_Ucopy<char * *>
PUBLIC	?deallocate@?$_Default_allocator_traits@V?$allocator@U_Container_proxy@std@@@std@@@std@@SAXAEAV?$allocator@U_Container_proxy@std@@@2@QEAU_Container_proxy@2@_K@Z ; std::_Default_allocator_traits<std::allocator<std::_Container_proxy> >::deallocate
PUBLIC	??$_Uninitialized_copy@PEBU?$pair@HH@std@@V?$allocator@U?$pair@HH@std@@@2@@std@@YAPEAU?$pair@HH@0@QEBU10@0PEAU10@AEAV?$allocator@U?$pair@HH@std@@@0@@Z ; std::_Uninitialized_copy<std::pair<int,int> const *,std::allocator<std::pair<int,int> > >
PUBLIC	??$_Uninitialized_copy@PEBUListData@@V?$allocator@UListData@@@std@@@std@@YAPEAUListData@@QEBU1@0PEAU1@AEAV?$allocator@UListData@@@0@@Z ; std::_Uninitialized_copy<ListData const *,std::allocator<ListData> >
PUBLIC	??$_Get_unwrapped@PEBD@std@@YAPEAPEBDQEAPEBD@Z	; std::_Get_unwrapped<char const *>
PUBLIC	??$_Copy_memmove@PEAPEBDPEAPEBD@std@@YAPEAPEBDPEAPEBD00@Z ; std::_Copy_memmove<char const * *,char const * *>
PUBLIC	??$_Get_unwrapped@UCX_DESC@@@std@@YAPEAUCX_DESC@@QEAU1@@Z ; std::_Get_unwrapped<CX_DESC>
PUBLIC	??$_Copy_memmove@PEAUCX_DESC@@PEAU1@@std@@YAPEAUCX_DESC@@PEAU1@00@Z ; std::_Copy_memmove<CX_DESC *,CX_DESC *>
PUBLIC	??$?0_K@?$allocator@U_Container_proxy@std@@@std@@QEAA@AEBV?$allocator@_K@1@@Z ; std::allocator<std::_Container_proxy>::allocator<std::_Container_proxy><unsigned __int64>
PUBLIC	??$_Destroy_range@V?$allocator@_K@std@@@std@@YAXPEA_KQEA_KAEAV?$allocator@_K@0@@Z ; std::_Destroy_range<std::allocator<unsigned __int64> >
PUBLIC	??$forward@AEAPEAV_Facet_base@std@@@std@@YAAEAPEAV_Facet_base@0@AEAPEAV10@@Z ; std::forward<std::_Facet_base * &>
PUBLIC	??$forward@AEBV?$allocator@I@std@@@std@@YAAEBV?$allocator@I@0@AEBV10@@Z ; std::forward<std::allocator<unsigned int> const &>
PUBLIC	??$_Verify_range@I@std@@YAXQEBI0@Z		; std::_Verify_range<unsigned int>
PUBLIC	??$distance@PEBI@std@@YA_JPEBI0@Z		; std::distance<unsigned int const *>
PUBLIC	??1?$_Tidy_guard@V?$vector@IV?$allocator@I@std@@@std@@@std@@QEAA@XZ ; std::_Tidy_guard<std::vector<unsigned int,std::allocator<unsigned int> > >::~_Tidy_guard<std::vector<unsigned int,std::allocator<unsigned int> > >
PUBLIC	??$_Ucopy@PEBI@?$vector@IV?$allocator@I@std@@@std@@AEAAPEAIPEBI0PEAI@Z ; std::vector<unsigned int,std::allocator<unsigned int> >::_Ucopy<unsigned int const *>
PUBLIC	??$_Uninitialized_copy@PEAPEADV?$allocator@PEBD@std@@@std@@YAPEAPEBDQEAPEAD0PEAPEBDAEAV?$allocator@PEBD@0@@Z ; std::_Uninitialized_copy<char * *,std::allocator<char const *> >
PUBLIC	??$_Get_unwrapped@$$CBU?$pair@HH@std@@@std@@YAPEBU?$pair@HH@0@QEBU10@@Z ; std::_Get_unwrapped<std::pair<int,int> const >
PUBLIC	??0?$_Uninitialized_backout_al@V?$allocator@U?$pair@HH@std@@@std@@@std@@QEAA@PEAU?$pair@HH@1@AEAV?$allocator@U?$pair@HH@std@@@1@@Z ; std::_Uninitialized_backout_al<std::allocator<std::pair<int,int> > >::_Uninitialized_backout_al<std::allocator<std::pair<int,int> > >
PUBLIC	??1?$_Uninitialized_backout_al@V?$allocator@U?$pair@HH@std@@@std@@@std@@QEAA@XZ ; std::_Uninitialized_backout_al<std::allocator<std::pair<int,int> > >::~_Uninitialized_backout_al<std::allocator<std::pair<int,int> > >
PUBLIC	?_Release@?$_Uninitialized_backout_al@V?$allocator@U?$pair@HH@std@@@std@@@std@@QEAAPEAU?$pair@HH@2@XZ ; std::_Uninitialized_backout_al<std::allocator<std::pair<int,int> > >::_Release
PUBLIC	??$_Emplace_back@AEBU?$pair@HH@std@@@?$_Uninitialized_backout_al@V?$allocator@U?$pair@HH@std@@@std@@@std@@QEAAXAEBU?$pair@HH@1@@Z ; std::_Uninitialized_backout_al<std::allocator<std::pair<int,int> > >::_Emplace_back<std::pair<int,int> const &>
PUBLIC	??$_Get_unwrapped@$$CBUListData@@@std@@YAPEBUListData@@QEBU1@@Z ; std::_Get_unwrapped<ListData const >
PUBLIC	??$_Copy_memmove@PEBUListData@@PEAU1@@std@@YAPEAUListData@@PEBU1@0PEAU1@@Z ; std::_Copy_memmove<ListData const *,ListData *>
PUBLIC	??$_Uninitialized_copy@PEBIV?$allocator@I@std@@@std@@YAPEAIQEBI0PEAIAEAV?$allocator@I@0@@Z ; std::_Uninitialized_copy<unsigned int const *,std::allocator<unsigned int> >
PUBLIC	??$_Copy_memmove@PEAPEADPEAPEBD@std@@YAPEAPEBDPEAPEAD0PEAPEBD@Z ; std::_Copy_memmove<char * *,char const * *>
PUBLIC	??$_Unfancy@U?$pair@HH@std@@@std@@YAPEAU?$pair@HH@0@PEAU10@@Z ; std::_Unfancy<std::pair<int,int> >
PUBLIC	??$forward@AEBU?$pair@HH@std@@@std@@YAAEBU?$pair@HH@0@AEBU10@@Z ; std::forward<std::pair<int,int> const &>
PUBLIC	??$construct@U?$pair@HH@std@@AEBU12@@?$_Default_allocator_traits@V?$allocator@U?$pair@HH@std@@@std@@@std@@SAXAEAV?$allocator@U?$pair@HH@std@@@1@QEAU?$pair@HH@1@AEBU31@@Z ; std::_Default_allocator_traits<std::allocator<std::pair<int,int> > >::construct<std::pair<int,int>,std::pair<int,int> const &>
PUBLIC	??$_Unfancy@I@std@@YAPEAIPEAI@Z			; std::_Unfancy<unsigned int>
PUBLIC	??$_Copy_memmove@PEBIPEAI@std@@YAPEAIPEBI0PEAI@Z ; std::_Copy_memmove<unsigned int const *,unsigned int *>
PUBLIC	??_E?$basic_stringstream@DU?$char_traits@D@std@@V?$allocator@D@2@@std@@$4PPPPPPPM@A@EAAPEAXI@Z ; std::basic_stringstream<char,std::char_traits<char>,std::allocator<char> >::`vector deleting destructor'
PUBLIC	??_E?$basic_ofstream@DU?$char_traits@D@std@@@std@@$4PPPPPPPM@A@EAAPEAXI@Z ; std::basic_ofstream<char,std::char_traits<char> >::`vector deleting destructor'
PUBLIC	?_OptionsStorage@?1??__local_stdio_printf_options@@9@4_KA ; `__local_stdio_printf_options'::`2'::_OptionsStorage
PUBLIC	??_C@_17CNPHIMPH@?$AA?$CF?$AAl?$AAs@		; `string'
PUBLIC	??_7exception@std@@6B@				; std::exception::`vftable'
PUBLIC	??_C@_0BC@EOODALEL@Unknown?5exception@		; `string'
PUBLIC	??_7bad_alloc@std@@6B@				; std::bad_alloc::`vftable'
PUBLIC	??_7bad_array_new_length@std@@6B@		; std::bad_array_new_length::`vftable'
PUBLIC	??_C@_0BF@KINCDENJ@bad?5array?5new?5length@	; `string'
PUBLIC	_TI3?AVbad_array_new_length@std@@
PUBLIC	_CTA3?AVbad_array_new_length@std@@
PUBLIC	??_R0?AVbad_array_new_length@std@@@8		; std::bad_array_new_length `RTTI Type Descriptor'
PUBLIC	_CT??_R0?AVbad_array_new_length@std@@@8??0bad_array_new_length@std@@QEAA@AEBV01@@Z24
PUBLIC	??_R0?AVbad_alloc@std@@@8			; std::bad_alloc `RTTI Type Descriptor'
PUBLIC	_CT??_R0?AVbad_alloc@std@@@8??0bad_alloc@std@@QEAA@AEBV01@@Z24
PUBLIC	??_R0?AVexception@std@@@8			; std::exception `RTTI Type Descriptor'
PUBLIC	_CT??_R0?AVexception@std@@@8??0exception@std@@QEAA@AEBV01@@Z24
PUBLIC	??_C@_0BB@FCMFBGOM@invalid?5argument@		; `string'
PUBLIC	??_C@_02DKCKIIND@?$CFs@				; `string'
PUBLIC	??_C@_0GI@FJIKDGOA@C?3?2Program?5Files?5?$CIx86?$CJ?2Microsof@ ; `string'
PUBLIC	??_C@_1NA@CDBIFGMM@?$AAC?$AA?3?$AA?2?$AAP?$AAr?$AAo?$AAg?$AAr?$AAa?$AAm?$AA?5?$AAF?$AAi?$AAl?$AAe@ ; `string'
PUBLIC	??_C@_1EK@NIFDJFDG@?$AAs?$AAt?$AAd?$AA?3?$AA?3?$AA_?$AAA?$AAd?$AAj?$AAu?$AAs?$AAt?$AA_?$AAm?$AAa@ ; `string'
PUBLIC	??_C@_1CG@JNLFBNGN@?$AA?$CC?$AAi?$AAn?$AAv?$AAa?$AAl?$AAi?$AAd?$AA?5?$AAa?$AAr?$AAg?$AAu?$AAm?$AAe@ ; `string'
PUBLIC	??_C@_0BJ@LFDBABJJ@ITERATOR?5LIST?5CORRUPTED?$CB@ ; `string'
PUBLIC	??_C@_1EE@KLDMFDFL@?$AAs?$AAt?$AAd?$AA?3?$AA?3?$AA_?$AAI?$AAt?$AAe?$AAr?$AAa?$AAt?$AAo?$AAr?$AA_@ ; `string'
PUBLIC	??_C@_1DG@PLBPCAEM@?$AA?$CC?$AAI?$AAT?$AAE?$AAR?$AAA?$AAT?$AAO?$AAR?$AA?5?$AAL?$AAI?$AAS?$AAT?$AA?5@ ; `string'
PUBLIC	??_7bad_cast@std@@6B@				; std::bad_cast::`vftable'
PUBLIC	??_C@_08EPJLHIJG@bad?5cast@			; `string'
PUBLIC	_TI2?AVbad_cast@std@@
PUBLIC	_CTA2?AVbad_cast@std@@
PUBLIC	??_R0?AVbad_cast@std@@@8			; std::bad_cast `RTTI Type Descriptor'
PUBLIC	_CT??_R0?AVbad_cast@std@@@8??0bad_cast@std@@QEAA@AEBV01@@Z24
PUBLIC	??_C@_0GI@PBEGAEEH@C?3?2Program?5Files?5?$CIx86?$CJ?2Microsof@ ; `string'
PUBLIC	??_C@_0GI@HCALAGOG@C?3?2Program?5Files?5?$CIx86?$CJ?2Microsof@ ; `string'
PUBLIC	??_C@_13COJANIEC@?$AA0@				; `string'
PUBLIC	??_C@_1OE@BPCMJDLP@?$AAC?$AA?3?$AA?2?$AAP?$AAr?$AAo?$AAg?$AAr?$AAa?$AAm?$AA?5?$AAF?$AAi?$AAl?$AAe@ ; `string'
PUBLIC	?atlTraceGeneral@ATL@@3V?$CTraceCategoryEx@$00$0A@@1@A ; ATL::atlTraceGeneral
PUBLIC	?atlTraceCOM@ATL@@3V?$CTraceCategoryEx@$01$0A@@1@A ; ATL::atlTraceCOM
PUBLIC	?atlTraceQI@ATL@@3V?$CTraceCategoryEx@$03$0A@@1@A ; ATL::atlTraceQI
PUBLIC	?atlTraceRegistrar@ATL@@3V?$CTraceCategoryEx@$07$0A@@1@A ; ATL::atlTraceRegistrar
PUBLIC	?atlTraceRefcount@ATL@@3V?$CTraceCategoryEx@$0BA@$0A@@1@A ; ATL::atlTraceRefcount
PUBLIC	?atlTraceWindowing@ATL@@3V?$CTraceCategoryEx@$0CA@$0A@@1@A ; ATL::atlTraceWindowing
PUBLIC	?atlTraceControls@ATL@@3V?$CTraceCategoryEx@$0EA@$0A@@1@A ; ATL::atlTraceControls
PUBLIC	?atlTraceHosting@ATL@@3V?$CTraceCategoryEx@$0IA@$0A@@1@A ; ATL::atlTraceHosting
PUBLIC	?atlTraceDBClient@ATL@@3V?$CTraceCategoryEx@$0BAA@$0A@@1@A ; ATL::atlTraceDBClient
PUBLIC	?atlTraceDBProvider@ATL@@3V?$CTraceCategoryEx@$0CAA@$0A@@1@A ; ATL::atlTraceDBProvider
PUBLIC	?atlTraceSnapin@ATL@@3V?$CTraceCategoryEx@$0EAA@$0A@@1@A ; ATL::atlTraceSnapin
PUBLIC	?atlTraceNotImpl@ATL@@3V?$CTraceCategoryEx@$0IAA@$0A@@1@A ; ATL::atlTraceNotImpl
PUBLIC	?atlTraceAllocation@ATL@@3V?$CTraceCategoryEx@$0BAAA@$0A@@1@A ; ATL::atlTraceAllocation
PUBLIC	?atlTraceException@ATL@@3V?$CTraceCategoryEx@$0CAAA@$0A@@1@A ; ATL::atlTraceException
PUBLIC	?atlTraceTime@ATL@@3V?$CTraceCategoryEx@$0EAAA@$0A@@1@A ; ATL::atlTraceTime
PUBLIC	?atlTraceCache@ATL@@3V?$CTraceCategoryEx@$0IAAA@$0A@@1@A ; ATL::atlTraceCache
PUBLIC	?atlTraceStencil@ATL@@3V?$CTraceCategoryEx@$0BAAAA@$0A@@1@A ; ATL::atlTraceStencil
PUBLIC	?atlTraceString@ATL@@3V?$CTraceCategoryEx@$0CAAAA@$0A@@1@A ; ATL::atlTraceString
PUBLIC	?atlTraceMap@ATL@@3V?$CTraceCategoryEx@$0EAAAA@$0A@@1@A ; ATL::atlTraceMap
PUBLIC	?atlTraceUtil@ATL@@3V?$CTraceCategoryEx@$0IAAAA@$0A@@1@A ; ATL::atlTraceUtil
PUBLIC	?atlTraceSecurity@ATL@@3V?$CTraceCategoryEx@$0BAAAAA@$0A@@1@A ; ATL::atlTraceSecurity
PUBLIC	?atlTraceSync@ATL@@3V?$CTraceCategoryEx@$0CAAAAA@$0A@@1@A ; ATL::atlTraceSync
PUBLIC	?atlTraceISAPI@ATL@@3V?$CTraceCategoryEx@$0EAAAAA@$0A@@1@A ; ATL::atlTraceISAPI
PUBLIC	?m_nLevel@CTrace@ATL@@1IA			; ATL::CTrace::m_nLevel
PUBLIC	?m_nCategory@CTrace@ATL@@1IA			; ATL::CTrace::m_nCategory
PUBLIC	?m_nLastCategory@CTrace@ATL@@1IA		; ATL::CTrace::m_nLastCategory
PUBLIC	?m_nMap@CTrace@ATL@@1PAUCategoryMap@12@A	; ATL::CTrace::m_nMap
PUBLIC	??_C@_1O@LFNDFEBP@?$AA?$CF?$AAl?$AAs?$AA?5?$AA?9?$AA?5@ ; `string'
PUBLIC	??_C@_1M@PGKOAACE@?$AA?$CF?$AAu?$AA?5?$AA?9?$AA?5@ ; `string'
PUBLIC	??_C@_1O@OAIPCDPO@?$AA?$CF?$AAl?$AAs?$AA?$CF?$AAl?$AAs@ ; `string'
PUBLIC	??_C@_17LGGGMOOB@?$AA?$CF?$AAh?$AAs@		; `string'
PUBLIC	??_C@_1EO@EBPPKGOM@?$AAf?$AAa?$AAl?$AAs?$AAe?$AA?5?$AA?$CG?$AA?$CG?$AA?5?$AA?$CC?$AAT?$AAo?$AAo?$AA?5?$AAm@ ; `string'
PUBLIC	??_C@_1OE@GMIHPBDM@?$AAC?$AA?3?$AA?2?$AAP?$AAr?$AAo?$AAg?$AAr?$AAa?$AAm?$AA?5?$AAF?$AAi?$AAl?$AAe@ ; `string'
PUBLIC	?m_bInitFailed@CAtlBaseModule@ATL@@2_NA		; ATL::CAtlBaseModule::m_bInitFailed
PUBLIC	??_C@_1OC@KMMBJFLB@?$AAC?$AA?3?$AA?2?$AAP?$AAr?$AAo?$AAg?$AAr?$AAa?$AAm?$AA?5?$AAF?$AAi?$AAl?$AAe@ ; `string'
PUBLIC	??_C@_0HB@NHAHFMOE@C?3?2Program?5Files?5?$CIx86?$CJ?2Microsof@ ; `string'
PUBLIC	??_C@_0EA@EJEMLPD@ERROR?5?3?5Unable?5to?5initialize?5cr@ ; `string'
PUBLIC	?_AtlComModule@ATL@@3VCAtlComModule@1@A		; ATL::_AtlComModule
PUBLIC	?_AtlWinModule@ATL@@3VCAtlWinModule@1@A		; ATL::_AtlWinModule
PUBLIC	??_C@_0ED@GFNHMOFC@ERROR?5?3?5Unable?5to?5initialize?5cr@ ; `string'
PUBLIC	??_7?$basic_stringbuf@DU?$char_traits@D@std@@V?$allocator@D@2@@std@@6B@ ; std::basic_stringbuf<char,std::char_traits<char>,std::allocator<char> >::`vftable'
PUBLIC	??_7?$basic_stringstream@DU?$char_traits@D@std@@V?$allocator@D@2@@std@@6B@ ; std::basic_stringstream<char,std::char_traits<char>,std::allocator<char> >::`vftable'
PUBLIC	??_8?$basic_stringstream@DU?$char_traits@D@std@@V?$allocator@D@2@@std@@7B?$basic_istream@DU?$char_traits@D@std@@@1@@ ; std::basic_stringstream<char,std::char_traits<char>,std::allocator<char> >::`vbtable'
PUBLIC	??_8?$basic_stringstream@DU?$char_traits@D@std@@V?$allocator@D@2@@std@@7B?$basic_ostream@DU?$char_traits@D@std@@@1@@ ; std::basic_stringstream<char,std::char_traits<char>,std::allocator<char> >::`vbtable'
PUBLIC	??_7?$basic_filebuf@DU?$char_traits@D@std@@@std@@6B@ ; std::basic_filebuf<char,std::char_traits<char> >::`vftable'
PUBLIC	??_7?$basic_ofstream@DU?$char_traits@D@std@@@std@@6B@ ; std::basic_ofstream<char,std::char_traits<char> >::`vftable'
PUBLIC	??_8?$basic_ofstream@DU?$char_traits@D@std@@@std@@7B@ ; std::basic_ofstream<char,std::char_traits<char> >::`vbtable'
PUBLIC	??_C@_0BO@PFKOHNJC@vector?5subscript?5out?5of?5range@ ; `string'
PUBLIC	??_C@_0GH@OOPCKGB@C?3?2Program?5Files?5?$CIx86?$CJ?2Microsof@ ; `string'
PUBLIC	??_C@_1MO@NOOOHLI@?$AAC?$AA?3?$AA?2?$AAP?$AAr?$AAo?$AAg?$AAr?$AAa?$AAm?$AA?5?$AAF?$AAi?$AAl?$AAe@ ; `string'
PUBLIC	??_C@_1BLO@LPKJDEKD@?$AAs?$AAt?$AAd?$AA?3?$AA?3?$AAv?$AAe?$AAc?$AAt?$AAo?$AAr?$AA?$DM?$AAs?$AAt?$AAr@ ; `string'
PUBLIC	??_C@_1EA@LEKOKFNB@?$AA?$CC?$AAv?$AAe?$AAc?$AAt?$AAo?$AAr?$AA?5?$AAs?$AAu?$AAb?$AAs?$AAc?$AAr?$AAi@ ; `string'
PUBLIC	??_C@_1JO@DHPHBBCK@?$AAs?$AAt?$AAd?$AA?3?$AA?3?$AAv?$AAe?$AAc?$AAt?$AAo?$AAr?$AA?$DM?$AAs?$AAt?$AAr@ ; `string'
PUBLIC	??_C@_1MM@CFLCIPDM@?$AAs?$AAt?$AAd?$AA?3?$AA?3?$AAv?$AAe?$AAc?$AAt?$AAo?$AAr?$AA?$DM?$AAs?$AAt?$AAr@ ; `string'
PUBLIC	??_C@_1DEA@ECHCKIDC@?$AAs?$AAt?$AAd?$AA?3?$AA?3?$AAv?$AAe?$AAc?$AAt?$AAo?$AAr?$AA?$DM?$AAs?$AAt?$AAr@ ; `string'
PUBLIC	??_C@_1EA@JHMKKLFC@?$AAn?$AAI?$AAn?$AAd?$AAe?$AAx?$AA?5?$AA?$DO?$AA?$DN?$AA?5?$AA0?$AA?5?$AA?$CG?$AA?$CG?$AA?5@ ; `string'
PUBLIC	??_C@_1OK@ENELOBIL@?$AAC?$AA?3?$AA?2?$AAP?$AAr?$AAo?$AAg?$AAr?$AAa?$AAm?$AA?5?$AAF?$AAi?$AAl?$AAe@ ; `string'
PUBLIC	??_C@_0N@LPFKKEBD@?3AM?3am?3PM?3pm@		; `string'
PUBLIC	??_C@_0GJ@GDKIGMBO@C?3?2Program?5Files?5?$CIx86?$CJ?2Microsof@ ; `string'
PUBLIC	??_C@_0GI@KAEHDKAJ@C?3?2Program?5Files?5?$CIx86?$CJ?2Microsof@ ; `string'
PUBLIC	??_C@_1NA@MNJEKPBN@?$AAC?$AA?3?$AA?2?$AAP?$AAr?$AAo?$AAg?$AAr?$AAa?$AAm?$AA?5?$AAF?$AAi?$AAl?$AAe@ ; `string'
PUBLIC	??_C@_0BD@OLBABOEK@vector?$DMT?$DO?5too?5long@	; `string'
PUBLIC	?_Stinit@?1??_Init@?$basic_filebuf@DU?$char_traits@D@std@@@std@@IEAAXPEAU_iobuf@@W4_Initfl@23@@Z@4U_Mbstatet@@A ; `std::basic_filebuf<char,std::char_traits<char> >::_Init'::`2'::_Stinit
PUBLIC	??_C@_1BK@NHECDDNK@?$AAm?$AA_?$AAp?$AAD?$AAa?$AAt?$AAa?$AA?5?$AA?$DN?$AA?$DN?$AA?5?$AA0@ ; `string'
PUBLIC	??_C@_0BP@PFIPNLNI@front?$CI?$CJ?5called?5on?5empty?5string@ ; `string'
PUBLIC	??_C@_1LC@BJDDPGPA@?$AAs?$AAt?$AAd?$AA?3?$AA?3?$AAb?$AAa?$AAs?$AAi?$AAc?$AA_?$AAs?$AAt?$AAr?$AAi@ ; `string'
PUBLIC	??_C@_1EC@DINNLDHA@?$AA?$CC?$AAf?$AAr?$AAo?$AAn?$AAt?$AA?$CI?$AA?$CJ?$AA?5?$AAc?$AAa?$AAl?$AAl?$AAe?$AAd@ ; `string'
PUBLIC	??_C@_0BI@CFPLBAOH@invalid?5string?5position@	; `string'
PUBLIC	??_C@_1BK@MHIKGOKE@?$AA?3?$AAA?$AAM?$AA?3?$AAa?$AAm?$AA?3?$AAP?$AAM?$AA?3?$AAp?$AAm@ ; `string'
PUBLIC	??_C@_1NC@OIIHGCJJ@?$AAC?$AA?3?$AA?2?$AAP?$AAr?$AAo?$AAg?$AAr?$AAa?$AAm?$AA?5?$AAF?$AAi?$AAl?$AAe@ ; `string'
PUBLIC	??_C@_0BD@FEEMDEPI@invalid?5comparator@		; `string'
PUBLIC	??_C@_0GK@EEDLHHLD@C?3?2Program?5Files?5?$CIx86?$CJ?2Microsof@ ; `string'
PUBLIC	??_C@_1NE@BOCHNKFM@?$AAC?$AA?3?$AA?2?$AAP?$AAr?$AAo?$AAg?$AAr?$AAa?$AAm?$AA?5?$AAF?$AAi?$AAl?$AAe@ ; `string'
PUBLIC	??_C@_1CK@NDNHPKPI@?$AA?$CC?$AAi?$AAn?$AAv?$AAa?$AAl?$AAi?$AAd?$AA?5?$AAc?$AAo?$AAm?$AAp?$AAa?$AAr@ ; `string'
PUBLIC	??_C@_1BC@ICCOKLEG@?$AAs?$AAt?$AAd?$AA?3?$AA?3?$AAm?$AAa?$AAx@ ; `string'
PUBLIC	?_Psave@?$_Facetptr@V?$codecvt@DDU_Mbstatet@@@std@@@std@@2PEBVfacet@locale@2@EB ; std::_Facetptr<std::codecvt<char,char,_Mbstatet> >::_Psave
PUBLIC	??_C@_0BA@JFNIOLAK@string?5too?5long@		; `string'
PUBLIC	??_C@_0BJ@HAJGEHKO@transposed?5pointer?5range@	; `string'
PUBLIC	??_C@_1CG@LJCPDKEJ@?$AAs?$AAt?$AAd?$AA?3?$AA?3?$AA_?$AAV?$AAe?$AAr?$AAi?$AAf?$AAy?$AA_?$AAr?$AAa@ ; `string'
PUBLIC	??_C@_1DG@FJIKMGFD@?$AA?$CC?$AAt?$AAr?$AAa?$AAn?$AAs?$AAp?$AAo?$AAs?$AAe?$AAd?$AA?5?$AAp?$AAo?$AAi@ ; `string'
PUBLIC	??_C@_0DI@PBEELKIF@vector?5iterators?5in?5range?5are?5f@ ; `string'
PUBLIC	??_C@_1HE@KBMFDAFB@?$AA?$CC?$AAv?$AAe?$AAc?$AAt?$AAo?$AAr?$AA?5?$AAi?$AAt?$AAe?$AAr?$AAa?$AAt?$AAo@ ; `string'
PUBLIC	??_C@_0CB@LIAHLBAO@vector?5iterator?5range?5transpose@ ; `string'
PUBLIC	??_C@_1EG@ODKBEHFN@?$AA?$CC?$AAv?$AAe?$AAc?$AAt?$AAo?$AAr?$AA?5?$AAi?$AAt?$AAe?$AAr?$AAa?$AAt?$AAo@ ; `string'
PUBLIC	??_R4exception@std@@6B@				; std::exception::`RTTI Complete Object Locator'
PUBLIC	??_R3exception@std@@8				; std::exception::`RTTI Class Hierarchy Descriptor'
PUBLIC	??_R2exception@std@@8				; std::exception::`RTTI Base Class Array'
PUBLIC	??_R1A@?0A@EA@exception@std@@8			; std::exception::`RTTI Base Class Descriptor at (0,-1,0,64)'
PUBLIC	??_R4bad_alloc@std@@6B@				; std::bad_alloc::`RTTI Complete Object Locator'
PUBLIC	??_R3bad_alloc@std@@8				; std::bad_alloc::`RTTI Class Hierarchy Descriptor'
PUBLIC	??_R2bad_alloc@std@@8				; std::bad_alloc::`RTTI Base Class Array'
PUBLIC	??_R1A@?0A@EA@bad_alloc@std@@8			; std::bad_alloc::`RTTI Base Class Descriptor at (0,-1,0,64)'
PUBLIC	??_R4bad_array_new_length@std@@6B@		; std::bad_array_new_length::`RTTI Complete Object Locator'
PUBLIC	??_R3bad_array_new_length@std@@8		; std::bad_array_new_length::`RTTI Class Hierarchy Descriptor'
PUBLIC	??_R2bad_array_new_length@std@@8		; std::bad_array_new_length::`RTTI Base Class Array'
PUBLIC	??_R1A@?0A@EA@bad_array_new_length@std@@8	; std::bad_array_new_length::`RTTI Base Class Descriptor at (0,-1,0,64)'
PUBLIC	??_R4?$basic_stringbuf@DU?$char_traits@D@std@@V?$allocator@D@2@@std@@6B@ ; std::basic_stringbuf<char,std::char_traits<char>,std::allocator<char> >::`RTTI Complete Object Locator'
PUBLIC	??_R0?AV?$basic_stringbuf@DU?$char_traits@D@std@@V?$allocator@D@2@@std@@@8 ; std::basic_stringbuf<char,std::char_traits<char>,std::allocator<char> > `RTTI Type Descriptor'
PUBLIC	??_R3?$basic_stringbuf@DU?$char_traits@D@std@@V?$allocator@D@2@@std@@8 ; std::basic_stringbuf<char,std::char_traits<char>,std::allocator<char> >::`RTTI Class Hierarchy Descriptor'
PUBLIC	??_R2?$basic_stringbuf@DU?$char_traits@D@std@@V?$allocator@D@2@@std@@8 ; std::basic_stringbuf<char,std::char_traits<char>,std::allocator<char> >::`RTTI Base Class Array'
PUBLIC	??_R1A@?0A@EA@?$basic_stringbuf@DU?$char_traits@D@std@@V?$allocator@D@2@@std@@8 ; std::basic_stringbuf<char,std::char_traits<char>,std::allocator<char> >::`RTTI Base Class Descriptor at (0,-1,0,64)'
PUBLIC	??_R1A@?0A@EA@?$basic_streambuf@DU?$char_traits@D@std@@@std@@8 ; std::basic_streambuf<char,std::char_traits<char> >::`RTTI Base Class Descriptor at (0,-1,0,64)'
PUBLIC	??_R0?AV?$basic_streambuf@DU?$char_traits@D@std@@@std@@@8 ; std::basic_streambuf<char,std::char_traits<char> > `RTTI Type Descriptor'
PUBLIC	??_R3?$basic_streambuf@DU?$char_traits@D@std@@@std@@8 ; std::basic_streambuf<char,std::char_traits<char> >::`RTTI Class Hierarchy Descriptor'
PUBLIC	??_R2?$basic_streambuf@DU?$char_traits@D@std@@@std@@8 ; std::basic_streambuf<char,std::char_traits<char> >::`RTTI Base Class Array'
PUBLIC	??_R4?$basic_stringstream@DU?$char_traits@D@std@@V?$allocator@D@2@@std@@6B@ ; std::basic_stringstream<char,std::char_traits<char>,std::allocator<char> >::`RTTI Complete Object Locator'
PUBLIC	??_R0?AV?$basic_stringstream@DU?$char_traits@D@std@@V?$allocator@D@2@@std@@@8 ; std::basic_stringstream<char,std::char_traits<char>,std::allocator<char> > `RTTI Type Descriptor'
PUBLIC	??_R3?$basic_stringstream@DU?$char_traits@D@std@@V?$allocator@D@2@@std@@8 ; std::basic_stringstream<char,std::char_traits<char>,std::allocator<char> >::`RTTI Class Hierarchy Descriptor'
PUBLIC	??_R2?$basic_stringstream@DU?$char_traits@D@std@@V?$allocator@D@2@@std@@8 ; std::basic_stringstream<char,std::char_traits<char>,std::allocator<char> >::`RTTI Base Class Array'
PUBLIC	??_R1A@?0A@EA@?$basic_stringstream@DU?$char_traits@D@std@@V?$allocator@D@2@@std@@8 ; std::basic_stringstream<char,std::char_traits<char>,std::allocator<char> >::`RTTI Base Class Descriptor at (0,-1,0,64)'
PUBLIC	??_R1A@?0A@EA@?$basic_iostream@DU?$char_traits@D@std@@@std@@8 ; std::basic_iostream<char,std::char_traits<char> >::`RTTI Base Class Descriptor at (0,-1,0,64)'
PUBLIC	??_R0?AV?$basic_iostream@DU?$char_traits@D@std@@@std@@@8 ; std::basic_iostream<char,std::char_traits<char> > `RTTI Type Descriptor'
PUBLIC	??_R3?$basic_iostream@DU?$char_traits@D@std@@@std@@8 ; std::basic_iostream<char,std::char_traits<char> >::`RTTI Class Hierarchy Descriptor'
PUBLIC	??_R2?$basic_iostream@DU?$char_traits@D@std@@@std@@8 ; std::basic_iostream<char,std::char_traits<char> >::`RTTI Base Class Array'
PUBLIC	??_R1A@?0A@EA@?$basic_istream@DU?$char_traits@D@std@@@std@@8 ; std::basic_istream<char,std::char_traits<char> >::`RTTI Base Class Descriptor at (0,-1,0,64)'
PUBLIC	??_R0?AV?$basic_istream@DU?$char_traits@D@std@@@std@@@8 ; std::basic_istream<char,std::char_traits<char> > `RTTI Type Descriptor'
PUBLIC	??_R3?$basic_istream@DU?$char_traits@D@std@@@std@@8 ; std::basic_istream<char,std::char_traits<char> >::`RTTI Class Hierarchy Descriptor'
PUBLIC	??_R2?$basic_istream@DU?$char_traits@D@std@@@std@@8 ; std::basic_istream<char,std::char_traits<char> >::`RTTI Base Class Array'
PUBLIC	??_R1A@A@3FA@?$basic_ios@DU?$char_traits@D@std@@@std@@8 ; std::basic_ios<char,std::char_traits<char> >::`RTTI Base Class Descriptor at (0,0,4,80)'
PUBLIC	??_R0?AV?$basic_ios@DU?$char_traits@D@std@@@std@@@8 ; std::basic_ios<char,std::char_traits<char> > `RTTI Type Descriptor'
PUBLIC	??_R3?$basic_ios@DU?$char_traits@D@std@@@std@@8	; std::basic_ios<char,std::char_traits<char> >::`RTTI Class Hierarchy Descriptor'
PUBLIC	??_R2?$basic_ios@DU?$char_traits@D@std@@@std@@8	; std::basic_ios<char,std::char_traits<char> >::`RTTI Base Class Array'
PUBLIC	??_R1A@?0A@EA@?$basic_ios@DU?$char_traits@D@std@@@std@@8 ; std::basic_ios<char,std::char_traits<char> >::`RTTI Base Class Descriptor at (0,-1,0,64)'
PUBLIC	??_R1A@?0A@EA@ios_base@std@@8			; std::ios_base::`RTTI Base Class Descriptor at (0,-1,0,64)'
PUBLIC	??_R0?AVios_base@std@@@8			; std::ios_base `RTTI Type Descriptor'
PUBLIC	??_R3ios_base@std@@8				; std::ios_base::`RTTI Class Hierarchy Descriptor'
PUBLIC	??_R2ios_base@std@@8				; std::ios_base::`RTTI Base Class Array'
PUBLIC	??_R17?0A@EA@?$_Iosb@H@std@@8			; std::_Iosb<int>::`RTTI Base Class Descriptor at (8,-1,0,64)'
PUBLIC	??_R0?AV?$_Iosb@H@std@@@8			; std::_Iosb<int> `RTTI Type Descriptor'
PUBLIC	??_R3?$_Iosb@H@std@@8				; std::_Iosb<int>::`RTTI Class Hierarchy Descriptor'
PUBLIC	??_R2?$_Iosb@H@std@@8				; std::_Iosb<int>::`RTTI Base Class Array'
PUBLIC	??_R1A@?0A@EA@?$_Iosb@H@std@@8			; std::_Iosb<int>::`RTTI Base Class Descriptor at (0,-1,0,64)'
PUBLIC	??_R1A@A@3EA@ios_base@std@@8			; std::ios_base::`RTTI Base Class Descriptor at (0,0,4,64)'
PUBLIC	??_R17A@3EA@?$_Iosb@H@std@@8			; std::_Iosb<int>::`RTTI Base Class Descriptor at (8,0,4,64)'
PUBLIC	??_R1BA@?0A@EA@?$basic_ostream@DU?$char_traits@D@std@@@std@@8 ; std::basic_ostream<char,std::char_traits<char> >::`RTTI Base Class Descriptor at (16,-1,0,64)'
PUBLIC	??_R0?AV?$basic_ostream@DU?$char_traits@D@std@@@std@@@8 ; std::basic_ostream<char,std::char_traits<char> > `RTTI Type Descriptor'
PUBLIC	??_R3?$basic_ostream@DU?$char_traits@D@std@@@std@@8 ; std::basic_ostream<char,std::char_traits<char> >::`RTTI Class Hierarchy Descriptor'
PUBLIC	??_R2?$basic_ostream@DU?$char_traits@D@std@@@std@@8 ; std::basic_ostream<char,std::char_traits<char> >::`RTTI Base Class Array'
PUBLIC	??_R1A@?0A@EA@?$basic_ostream@DU?$char_traits@D@std@@@std@@8 ; std::basic_ostream<char,std::char_traits<char> >::`RTTI Base Class Descriptor at (0,-1,0,64)'
PUBLIC	??_R4?$basic_filebuf@DU?$char_traits@D@std@@@std@@6B@ ; std::basic_filebuf<char,std::char_traits<char> >::`RTTI Complete Object Locator'
PUBLIC	??_R0?AV?$basic_filebuf@DU?$char_traits@D@std@@@std@@@8 ; std::basic_filebuf<char,std::char_traits<char> > `RTTI Type Descriptor'
PUBLIC	??_R3?$basic_filebuf@DU?$char_traits@D@std@@@std@@8 ; std::basic_filebuf<char,std::char_traits<char> >::`RTTI Class Hierarchy Descriptor'
PUBLIC	??_R2?$basic_filebuf@DU?$char_traits@D@std@@@std@@8 ; std::basic_filebuf<char,std::char_traits<char> >::`RTTI Base Class Array'
PUBLIC	??_R1A@?0A@EA@?$basic_filebuf@DU?$char_traits@D@std@@@std@@8 ; std::basic_filebuf<char,std::char_traits<char> >::`RTTI Base Class Descriptor at (0,-1,0,64)'
PUBLIC	??_R4?$basic_ofstream@DU?$char_traits@D@std@@@std@@6B@ ; std::basic_ofstream<char,std::char_traits<char> >::`RTTI Complete Object Locator'
PUBLIC	??_R0?AV?$basic_ofstream@DU?$char_traits@D@std@@@std@@@8 ; std::basic_ofstream<char,std::char_traits<char> > `RTTI Type Descriptor'
PUBLIC	??_R3?$basic_ofstream@DU?$char_traits@D@std@@@std@@8 ; std::basic_ofstream<char,std::char_traits<char> >::`RTTI Class Hierarchy Descriptor'
PUBLIC	??_R2?$basic_ofstream@DU?$char_traits@D@std@@@std@@8 ; std::basic_ofstream<char,std::char_traits<char> >::`RTTI Base Class Array'
PUBLIC	??_R1A@?0A@EA@?$basic_ofstream@DU?$char_traits@D@std@@@std@@8 ; std::basic_ofstream<char,std::char_traits<char> >::`RTTI Base Class Descriptor at (0,-1,0,64)'
PUBLIC	??_R4bad_cast@std@@6B@				; std::bad_cast::`RTTI Complete Object Locator'
PUBLIC	??_R3bad_cast@std@@8				; std::bad_cast::`RTTI Class Hierarchy Descriptor'
PUBLIC	??_R2bad_cast@std@@8				; std::bad_cast::`RTTI Base Class Array'
PUBLIC	??_R1A@?0A@EA@bad_cast@std@@8			; std::bad_cast::`RTTI Base Class Descriptor at (0,-1,0,64)'
PUBLIC	__real@3fe0000000000000
EXTRN	??2@YAPEAX_K@Z:PROC				; operator new
EXTRN	??3@YAXPEAX_K@Z:PROC				; operator delete
EXTRN	atexit:PROC
EXTRN	__imp__invalid_parameter:PROC
EXTRN	__imp_signal:PROC
EXTRN	__imp__calloc_dbg:PROC
EXTRN	__imp__CrtDbgReport:PROC
EXTRN	__imp__CrtDbgReportW:PROC
EXTRN	__imp_??0_Lockit@std@@QEAA@H@Z:PROC
EXTRN	__imp_??1_Lockit@std@@QEAA@XZ:PROC
EXTRN	__imp_free:PROC
EXTRN	__imp_malloc:PROC
EXTRN	__imp_exit:PROC
EXTRN	__imp___acrt_iob_func:PROC
EXTRN	__imp___stdio_common_vswprintf_s:PROC
EXTRN	__imp__get_stream_buffer_pointers:PROC
EXTRN	__imp_fopen_s:PROC
EXTRN	__imp_fclose:PROC
EXTRN	__imp_fflush:PROC
EXTRN	__imp_fgetc:PROC
EXTRN	__imp_fgetpos:PROC
EXTRN	__imp_fputc:PROC
EXTRN	__imp_fread:PROC
EXTRN	__imp_fsetpos:PROC
EXTRN	__imp__fseeki64:PROC
EXTRN	__imp_fwrite:PROC
EXTRN	__imp_setvbuf:PROC
EXTRN	__imp_ungetc:PROC
EXTRN	__imp__lock_file:PROC
EXTRN	__imp__unlock_file:PROC
EXTRN	__imp___stdio_common_vfprintf:PROC
EXTRN	__imp___stdio_common_vsprintf:PROC
EXTRN	__imp___stdio_common_vsnprintf_s:PROC
EXTRN	?uncaught_exception@std@@YA_NXZ:PROC		; std::uncaught_exception
EXTRN	__std_exception_copy:PROC
EXTRN	__std_exception_destroy:PROC
EXTRN	??_Eexception@std@@UEAAPEAXI@Z:PROC		; std::exception::`vector deleting destructor'
EXTRN	??_Ebad_alloc@std@@UEAAPEAXI@Z:PROC		; std::bad_alloc::`vector deleting destructor'
EXTRN	??_Ebad_array_new_length@std@@UEAAPEAXI@Z:PROC	; std::bad_array_new_length::`vector deleting destructor'
EXTRN	memcpy:PROC
EXTRN	memmove:PROC
EXTRN	memset:PROC
EXTRN	__imp_wcscpy_s:PROC
EXTRN	__imp_wcslen:PROC
EXTRN	strlen:PROC
EXTRN	?_Xbad_alloc@std@@YAXXZ:PROC			; std::_Xbad_alloc
EXTRN	?_Xlength_error@std@@YAXPEBD@Z:PROC		; std::_Xlength_error
EXTRN	?_Xout_of_range@std@@YAXPEBD@Z:PROC		; std::_Xout_of_range
EXTRN	??_Ebad_cast@std@@UEAAPEAXI@Z:PROC		; std::bad_cast::`vector deleting destructor'
EXTRN	?_Facet_Register@std@@YAXPEAV_Facet_base@1@@Z:PROC ; std::_Facet_Register
EXTRN	_Mbrtowc:PROC
EXTRN	__imp_?_Getcvt@_Locinfo@std@@QEBA?AU_Cvtvec@@XZ:PROC
EXTRN	__imp_?_Getdays@_Locinfo@std@@QEBAPEBDXZ:PROC
EXTRN	__imp_?_Getmonths@_Locinfo@std@@QEBAPEBDXZ:PROC
EXTRN	__imp_?_W_Getdays@_Locinfo@std@@QEBAPEBGXZ:PROC
EXTRN	__imp_?_W_Getmonths@_Locinfo@std@@QEBAPEBGXZ:PROC
EXTRN	__imp_??Bid@locale@std@@QEAA_KXZ:PROC
EXTRN	?_Getgloballocale@locale@std@@CAPEAV_Locimp@12@XZ:PROC ; std::locale::_Getgloballocale
EXTRN	__imp_?always_noconv@codecvt_base@std@@QEBA_NXZ:PROC
EXTRN	__imp_?in@?$codecvt@DDU_Mbstatet@@@std@@QEBAHAEAU_Mbstatet@@PEBD1AEAPEBDPEAD3AEAPEAD@Z:PROC
EXTRN	__imp_?out@?$codecvt@DDU_Mbstatet@@@std@@QEBAHAEAU_Mbstatet@@PEBD1AEAPEBDPEAD3AEAPEAD@Z:PROC
EXTRN	__imp_?unshift@?$codecvt@DDU_Mbstatet@@@std@@QEBAHAEAU_Mbstatet@@PEAD1AEAPEAD@Z:PROC
EXTRN	__imp_?_Getcat@?$codecvt@DDU_Mbstatet@@@std@@SA_KPEAPEBVfacet@locale@2@PEBV42@@Z:PROC
EXTRN	__imp_?good@ios_base@std@@QEBA_NXZ:PROC
EXTRN	__imp_?flags@ios_base@std@@QEBAHXZ:PROC
EXTRN	__imp_?width@ios_base@std@@QEBA_JXZ:PROC
EXTRN	__imp_?width@ios_base@std@@QEAA_J_J@Z:PROC
EXTRN	__imp_??0?$basic_streambuf@DU?$char_traits@D@std@@@std@@IEAA@XZ:PROC
EXTRN	__imp_??1?$basic_streambuf@DU?$char_traits@D@std@@@std@@UEAA@XZ:PROC
EXTRN	__imp_?getloc@?$basic_streambuf@DU?$char_traits@D@std@@@std@@QEBA?AVlocale@2@XZ:PROC
EXTRN	__imp_?sputc@?$basic_streambuf@DU?$char_traits@D@std@@@std@@QEAAHD@Z:PROC
EXTRN	__imp_?sputn@?$basic_streambuf@DU?$char_traits@D@std@@@std@@QEAA_JPEBD_J@Z:PROC
EXTRN	__imp_?eback@?$basic_streambuf@DU?$char_traits@D@std@@@std@@IEBAPEADXZ:PROC
EXTRN	__imp_?gptr@?$basic_streambuf@DU?$char_traits@D@std@@@std@@IEBAPEADXZ:PROC
EXTRN	__imp_?pbase@?$basic_streambuf@DU?$char_traits@D@std@@@std@@IEBAPEADXZ:PROC
EXTRN	__imp_?pptr@?$basic_streambuf@DU?$char_traits@D@std@@@std@@IEBAPEADXZ:PROC
EXTRN	__imp_?egptr@?$basic_streambuf@DU?$char_traits@D@std@@@std@@IEBAPEADXZ:PROC
EXTRN	__imp_?gbump@?$basic_streambuf@DU?$char_traits@D@std@@@std@@IEAAXH@Z:PROC
EXTRN	__imp_?setg@?$basic_streambuf@DU?$char_traits@D@std@@@std@@IEAAXPEAD00@Z:PROC
EXTRN	__imp_?epptr@?$basic_streambuf@DU?$char_traits@D@std@@@std@@IEBAPEADXZ:PROC
EXTRN	__imp_?_Gndec@?$basic_streambuf@DU?$char_traits@D@std@@@std@@IEAAPEADXZ:PROC
EXTRN	__imp_?_Gninc@?$basic_streambuf@DU?$char_traits@D@std@@@std@@IEAAPEADXZ:PROC
EXTRN	__imp_?_Gnavail@?$basic_streambuf@DU?$char_traits@D@std@@@std@@IEBA_JXZ:PROC
EXTRN	__imp_?pbump@?$basic_streambuf@DU?$char_traits@D@std@@@std@@IEAAXH@Z:PROC
EXTRN	__imp_?setp@?$basic_streambuf@DU?$char_traits@D@std@@@std@@IEAAXPEAD0@Z:PROC
EXTRN	__imp_?setp@?$basic_streambuf@DU?$char_traits@D@std@@@std@@IEAAXPEAD00@Z:PROC
EXTRN	__imp_?_Pninc@?$basic_streambuf@DU?$char_traits@D@std@@@std@@IEAAPEADXZ:PROC
EXTRN	__imp_?_Pnavail@?$basic_streambuf@DU?$char_traits@D@std@@@std@@IEBA_JXZ:PROC
EXTRN	__imp_?_Init@?$basic_streambuf@DU?$char_traits@D@std@@@std@@IEAAXXZ:PROC
EXTRN	__imp_?_Init@?$basic_streambuf@DU?$char_traits@D@std@@@std@@IEAAXPEAPEAD0PEAH001@Z:PROC
EXTRN	__imp_?xsgetn@?$basic_streambuf@DU?$char_traits@D@std@@@std@@MEAA_JPEAD_J@Z:PROC
EXTRN	__imp_?xsputn@?$basic_streambuf@DU?$char_traits@D@std@@@std@@MEAA_JPEBD_J@Z:PROC
EXTRN	__imp_??1?$basic_ios@DU?$char_traits@D@std@@@std@@UEAA@XZ:PROC
EXTRN	__imp_?setstate@?$basic_ios@DU?$char_traits@D@std@@@std@@QEAAXH_N@Z:PROC
EXTRN	__imp_?tie@?$basic_ios@DU?$char_traits@D@std@@@std@@QEBAPEAV?$basic_ostream@DU?$char_traits@D@std@@@2@XZ:PROC
EXTRN	__imp_?rdbuf@?$basic_ios@DU?$char_traits@D@std@@@std@@QEBAPEAV?$basic_streambuf@DU?$char_traits@D@std@@@2@XZ:PROC
EXTRN	__imp_?fill@?$basic_ios@DU?$char_traits@D@std@@@std@@QEBADXZ:PROC
EXTRN	__imp_??0?$basic_ios@DU?$char_traits@D@std@@@std@@IEAA@XZ:PROC
EXTRN	__imp_??0?$basic_ostream@DU?$char_traits@D@std@@@std@@QEAA@PEAV?$basic_streambuf@DU?$char_traits@D@std@@@1@_N@Z:PROC
EXTRN	__imp_??1?$basic_ostream@DU?$char_traits@D@std@@@std@@UEAA@XZ:PROC
EXTRN	__imp_?_Osfx@?$basic_ostream@DU?$char_traits@D@std@@@std@@QEAAXXZ:PROC
EXTRN	__imp_?flush@?$basic_ostream@DU?$char_traits@D@std@@@std@@QEAAAEAV12@XZ:PROC
EXTRN	__imp_??0?$basic_iostream@DU?$char_traits@D@std@@@std@@QEAA@PEAV?$basic_streambuf@DU?$char_traits@D@std@@@1@@Z:PROC
EXTRN	__imp_??1?$basic_iostream@DU?$char_traits@D@std@@@std@@UEAA@XZ:PROC
EXTRN	?_Fiopen@std@@YAPEAU_iobuf@@PEBDHH@Z:PROC	; std::_Fiopen
EXTRN	__imp__localtime64:PROC
EXTRN	__imp__time64:PROC
EXTRN	__imp_DecodePointer:PROC
EXTRN	__imp_RaiseException:PROC
EXTRN	__imp_GetLastError:PROC
EXTRN	__imp_SetLastError:PROC
EXTRN	__imp_InitializeCriticalSectionEx:PROC
EXTRN	__imp_DeleteCriticalSection:PROC
EXTRN	__imp_UnregisterClassA:PROC
EXTRN	__imp_MultiByteToWideChar:PROC
EXTRN	__imp_ShellExecuteA:PROC
EXTRN	__imp_FindExecutableA:PROC
EXTRN	__imp__mbscmp:PROC
EXTRN	__imp_PathFileExistsA:PROC
EXTRN	?tchar_to_string@@YA?AV?$basic_string@DU?$char_traits@D@std@@V?$allocator@D@2@@std@@PEBDI@Z:PROC ; tchar_to_string
EXTRN	?tchar_to_string@@YA?AV?$basic_string@DU?$char_traits@D@std@@V?$allocator@D@2@@std@@AEBV12@I@Z:PROC ; tchar_to_string
EXTRN	?strsprintf@@YA?AV?$basic_string@DU?$char_traits@D@std@@V?$allocator@D@2@@std@@PEBDZZ:PROC ; strsprintf
EXTRN	?rgy_print_stderr@@YAHHPEBDPEAX@Z:PROC		; rgy_print_stderr
EXTRN	?getOSVersion@@YA?AV?$basic_string@DU?$char_traits@D@std@@V?$allocator@D@2@@std@@PEAU_OSVERSIONINFOEXW@@@Z:PROC ; getOSVersion
EXTRN	?getEnviromentInfo@@YA?AV?$basic_string@DU?$char_traits@D@std@@V?$allocator@D@2@@std@@_N@Z:PROC ; getEnviromentInfo
EXTRN	?init_qsvp_prm@@YAXPEAUsInputParams@@@Z:PROC	; init_qsvp_prm
EXTRN	?MemTypeToStr@@YAPEBDI@Z:PROC			; MemTypeToStr
EXTRN	?get_mfx_libhw_version@@YA?ATmfxVersion@@XZ:PROC ; get_mfx_libhw_version
EXTRN	?get_mfx_libsw_version@@YA?ATmfxVersion@@XZ:PROC ; get_mfx_libsw_version
EXTRN	?check_lib_version@@YAHTmfxVersion@@0@Z:PROC	; check_lib_version
EXTRN	?MakeFeatureListStr@@YA?AV?$vector@U?$pair@V?$vector@_KV?$allocator@_K@std@@@std@@V?$basic_string@DU?$char_traits@D@std@@V?$allocator@D@2@@2@@std@@V?$allocator@U?$pair@V?$vector@_KV?$allocator@_K@std@@@std@@V?$basic_string@DU?$char_traits@D@std@@V?$allocator@D@2@@2@@std@@@2@@std@@W4FeatureListStrType@@@Z:PROC ; MakeFeatureListStr
EXTRN	?MakeFeatureListStr@@YA?AV?$vector@U?$pair@V?$vector@_KV?$allocator@_K@std@@@std@@V?$basic_string@DU?$char_traits@D@std@@V?$allocator@D@2@@2@@std@@V?$allocator@U?$pair@V?$vector@_KV?$allocator@_K@std@@@std@@V?$basic_string@DU?$char_traits@D@std@@V?$allocator@D@2@@2@@std@@@2@@std@@W4FeatureListStrType@@AEBV?$vector@IV?$allocator@I@std@@@2@@Z:PROC ; MakeFeatureListStr
EXTRN	?MakeVppFeatureStr@@YA?AV?$basic_string@DU?$char_traits@D@std@@V?$allocator@D@2@@std@@W4FeatureListStrType@@@Z:PROC ; MakeVppFeatureStr
EXTRN	?MakeDecFeatureStr@@YA?AV?$basic_string@DU?$char_traits@D@std@@V?$allocator@D@2@@std@@W4FeatureListStrType@@@Z:PROC ; MakeDecFeatureStr
EXTRN	??0CQSVPipeline@@QEAA@XZ:PROC			; CQSVPipeline::CQSVPipeline
EXTRN	?cmd_short_opt_to_long@@YAPEBDD@Z:PROC		; cmd_short_opt_to_long
EXTRN	?GetQSVEncVersion@@YA?AV?$basic_string@DU?$char_traits@D@std@@V?$allocator@D@2@@std@@XZ:PROC ; GetQSVEncVersion
EXTRN	?parse_cmd@@YAHPEAUsInputParams@@QEAPEBDHAEAUParseCmdError@@_N@Z:PROC ; parse_cmd
EXTRN	??_E?$basic_stringbuf@DU?$char_traits@D@std@@V?$allocator@D@2@@std@@UEAAPEAXI@Z:PROC ; std::basic_stringbuf<char,std::char_traits<char>,std::allocator<char> >::`vector deleting destructor'
EXTRN	??_E?$basic_stringstream@DU?$char_traits@D@std@@V?$allocator@D@2@@std@@UEAAPEAXI@Z:PROC ; std::basic_stringstream<char,std::char_traits<char>,std::allocator<char> >::`vector deleting destructor'
EXTRN	??_E?$basic_filebuf@DU?$char_traits@D@std@@@std@@UEAAPEAXI@Z:PROC ; std::basic_filebuf<char,std::char_traits<char> >::`vector deleting destructor'
EXTRN	??_E?$basic_ofstream@DU?$char_traits@D@std@@@std@@UEAAPEAXI@Z:PROC ; std::basic_ofstream<char,std::char_traits<char> >::`vector deleting destructor'
EXTRN	?_Lock@?$basic_streambuf@DU?$char_traits@D@std@@@std@@UEAAXXZ:PROC ; std::basic_streambuf<char,std::char_traits<char> >::_Lock
EXTRN	?_Unlock@?$basic_streambuf@DU?$char_traits@D@std@@@std@@UEAAXXZ:PROC ; std::basic_streambuf<char,std::char_traits<char> >::_Unlock
EXTRN	?imbue@?$basic_streambuf@DU?$char_traits@D@std@@@std@@MEAAXAEBVlocale@2@@Z:PROC ; std::basic_streambuf<char,std::char_traits<char> >::imbue
EXTRN	?setbuf@?$basic_streambuf@DU?$char_traits@D@std@@@std@@MEAAPEAV12@PEAD_J@Z:PROC ; std::basic_streambuf<char,std::char_traits<char> >::setbuf
EXTRN	?showmanyc@?$basic_streambuf@DU?$char_traits@D@std@@@std@@MEAA_JXZ:PROC ; std::basic_streambuf<char,std::char_traits<char> >::showmanyc
EXTRN	?sync@?$basic_streambuf@DU?$char_traits@D@std@@@std@@MEAAHXZ:PROC ; std::basic_streambuf<char,std::char_traits<char> >::sync
EXTRN	?uflow@?$basic_streambuf@DU?$char_traits@D@std@@@std@@MEAAHXZ:PROC ; std::basic_streambuf<char,std::char_traits<char> >::uflow
EXTRN	?xsgetn@?$basic_streambuf@DU?$char_traits@D@std@@@std@@MEAA_JPEAD_J@Z:PROC ; std::basic_streambuf<char,std::char_traits<char> >::xsgetn
EXTRN	?xsputn@?$basic_streambuf@DU?$char_traits@D@std@@@std@@MEAA_JPEBD_J@Z:PROC ; std::basic_streambuf<char,std::char_traits<char> >::xsputn
EXTRN	_CxxThrowException:PROC
EXTRN	_RTC_CheckStackVars:PROC
EXTRN	_RTC_InitBase:PROC
EXTRN	_RTC_Shutdown:PROC
EXTRN	__CxxFrameHandler4:PROC
EXTRN	__GSHandlerCheck:PROC
EXTRN	__GSHandlerCheck_EH4:PROC
EXTRN	__chkstk:PROC
EXTRN	__security_check_cookie:PROC
EXTRN	??_7type_info@@6B@:BYTE				; type_info::`vftable'
EXTRN	__imp_?id@?$codecvt@DDU_Mbstatet@@@std@@2V0locale@2@A:QWORD
EXTRN	?_AtlBaseModule@ATL@@3VCAtlBaseModule@1@A:BYTE	; ATL::_AtlBaseModule
EXTRN	__ImageBase:BYTE
EXTRN	__security_cookie:QWORD
EXTRN	_fltused:DWORD
;	COMDAT ?_OptionsStorage@?1??__local_stdio_printf_options@@9@4_KA
_BSS	SEGMENT
?_OptionsStorage@?1??__local_stdio_printf_options@@9@4_KA DQ 01H DUP (?) ; `__local_stdio_printf_options'::`2'::_OptionsStorage
_BSS	ENDS
_BSS	SEGMENT
?CspMatrixList@@3V?$array@W4CspMatrix@@$0O@@std@@B DB 038H DUP (?) ; CspMatrixList
?CspTransferList@@3V?$array@W4CspTransfer@@$0P@@std@@B DB 03cH DUP (?) ; CspTransferList
?CspColorprimList@@3V?$array@W4CspColorprim@@$0M@@std@@B DB 030H DUP (?) ; CspColorprimList
_BSS	ENDS
;	COMDAT ?atlTraceGeneral@ATL@@3V?$CTraceCategoryEx@$00$0A@@1@A
_BSS	SEGMENT
?atlTraceGeneral@ATL@@3V?$CTraceCategoryEx@$00$0A@@1@A DD 01H DUP (?) ; ATL::atlTraceGeneral
_BSS	ENDS
;	COMDAT ?atlTraceCOM@ATL@@3V?$CTraceCategoryEx@$01$0A@@1@A
_BSS	SEGMENT
?atlTraceCOM@ATL@@3V?$CTraceCategoryEx@$01$0A@@1@A DD 01H DUP (?) ; ATL::atlTraceCOM
_BSS	ENDS
;	COMDAT ?atlTraceQI@ATL@@3V?$CTraceCategoryEx@$03$0A@@1@A
_BSS	SEGMENT
?atlTraceQI@ATL@@3V?$CTraceCategoryEx@$03$0A@@1@A DD 01H DUP (?) ; ATL::atlTraceQI
_BSS	ENDS
;	COMDAT ?atlTraceRegistrar@ATL@@3V?$CTraceCategoryEx@$07$0A@@1@A
_BSS	SEGMENT
?atlTraceRegistrar@ATL@@3V?$CTraceCategoryEx@$07$0A@@1@A DD 01H DUP (?) ; ATL::atlTraceRegistrar
_BSS	ENDS
;	COMDAT ?atlTraceRefcount@ATL@@3V?$CTraceCategoryEx@$0BA@$0A@@1@A
_BSS	SEGMENT
?atlTraceRefcount@ATL@@3V?$CTraceCategoryEx@$0BA@$0A@@1@A DD 01H DUP (?) ; ATL::atlTraceRefcount
_BSS	ENDS
;	COMDAT ?atlTraceWindowing@ATL@@3V?$CTraceCategoryEx@$0CA@$0A@@1@A
_BSS	SEGMENT
?atlTraceWindowing@ATL@@3V?$CTraceCategoryEx@$0CA@$0A@@1@A DD 01H DUP (?) ; ATL::atlTraceWindowing
_BSS	ENDS
;	COMDAT ?atlTraceControls@ATL@@3V?$CTraceCategoryEx@$0EA@$0A@@1@A
_BSS	SEGMENT
?atlTraceControls@ATL@@3V?$CTraceCategoryEx@$0EA@$0A@@1@A DD 01H DUP (?) ; ATL::atlTraceControls
_BSS	ENDS
;	COMDAT ?atlTraceHosting@ATL@@3V?$CTraceCategoryEx@$0IA@$0A@@1@A
_BSS	SEGMENT
?atlTraceHosting@ATL@@3V?$CTraceCategoryEx@$0IA@$0A@@1@A DD 01H DUP (?) ; ATL::atlTraceHosting
_BSS	ENDS
;	COMDAT ?atlTraceDBClient@ATL@@3V?$CTraceCategoryEx@$0BAA@$0A@@1@A
_BSS	SEGMENT
?atlTraceDBClient@ATL@@3V?$CTraceCategoryEx@$0BAA@$0A@@1@A DD 01H DUP (?) ; ATL::atlTraceDBClient
_BSS	ENDS
;	COMDAT ?atlTraceDBProvider@ATL@@3V?$CTraceCategoryEx@$0CAA@$0A@@1@A
_BSS	SEGMENT
?atlTraceDBProvider@ATL@@3V?$CTraceCategoryEx@$0CAA@$0A@@1@A DD 01H DUP (?) ; ATL::atlTraceDBProvider
_BSS	ENDS
;	COMDAT ?atlTraceSnapin@ATL@@3V?$CTraceCategoryEx@$0EAA@$0A@@1@A
_BSS	SEGMENT
?atlTraceSnapin@ATL@@3V?$CTraceCategoryEx@$0EAA@$0A@@1@A DD 01H DUP (?) ; ATL::atlTraceSnapin
_BSS	ENDS
;	COMDAT ?atlTraceNotImpl@ATL@@3V?$CTraceCategoryEx@$0IAA@$0A@@1@A
_BSS	SEGMENT
?atlTraceNotImpl@ATL@@3V?$CTraceCategoryEx@$0IAA@$0A@@1@A DD 01H DUP (?) ; ATL::atlTraceNotImpl
_BSS	ENDS
;	COMDAT ?atlTraceAllocation@ATL@@3V?$CTraceCategoryEx@$0BAAA@$0A@@1@A
_BSS	SEGMENT
?atlTraceAllocation@ATL@@3V?$CTraceCategoryEx@$0BAAA@$0A@@1@A DD 01H DUP (?) ; ATL::atlTraceAllocation
_BSS	ENDS
;	COMDAT ?atlTraceException@ATL@@3V?$CTraceCategoryEx@$0CAAA@$0A@@1@A
_BSS	SEGMENT
?atlTraceException@ATL@@3V?$CTraceCategoryEx@$0CAAA@$0A@@1@A DD 01H DUP (?) ; ATL::atlTraceException
_BSS	ENDS
;	COMDAT ?atlTraceTime@ATL@@3V?$CTraceCategoryEx@$0EAAA@$0A@@1@A
_BSS	SEGMENT
?atlTraceTime@ATL@@3V?$CTraceCategoryEx@$0EAAA@$0A@@1@A DD 01H DUP (?) ; ATL::atlTraceTime
_BSS	ENDS
;	COMDAT ?atlTraceCache@ATL@@3V?$CTraceCategoryEx@$0IAAA@$0A@@1@A
_BSS	SEGMENT
?atlTraceCache@ATL@@3V?$CTraceCategoryEx@$0IAAA@$0A@@1@A DD 01H DUP (?) ; ATL::atlTraceCache
_BSS	ENDS
;	COMDAT ?atlTraceStencil@ATL@@3V?$CTraceCategoryEx@$0BAAAA@$0A@@1@A
_BSS	SEGMENT
?atlTraceStencil@ATL@@3V?$CTraceCategoryEx@$0BAAAA@$0A@@1@A DD 01H DUP (?) ; ATL::atlTraceStencil
_BSS	ENDS
;	COMDAT ?atlTraceString@ATL@@3V?$CTraceCategoryEx@$0CAAAA@$0A@@1@A
_BSS	SEGMENT
?atlTraceString@ATL@@3V?$CTraceCategoryEx@$0CAAAA@$0A@@1@A DD 01H DUP (?) ; ATL::atlTraceString
_BSS	ENDS
;	COMDAT ?atlTraceMap@ATL@@3V?$CTraceCategoryEx@$0EAAAA@$0A@@1@A
_BSS	SEGMENT
?atlTraceMap@ATL@@3V?$CTraceCategoryEx@$0EAAAA@$0A@@1@A DD 01H DUP (?) ; ATL::atlTraceMap
_BSS	ENDS
;	COMDAT ?atlTraceUtil@ATL@@3V?$CTraceCategoryEx@$0IAAAA@$0A@@1@A
_BSS	SEGMENT
?atlTraceUtil@ATL@@3V?$CTraceCategoryEx@$0IAAAA@$0A@@1@A DD 01H DUP (?) ; ATL::atlTraceUtil
_BSS	ENDS
;	COMDAT ?atlTraceSecurity@ATL@@3V?$CTraceCategoryEx@$0BAAAAA@$0A@@1@A
_BSS	SEGMENT
?atlTraceSecurity@ATL@@3V?$CTraceCategoryEx@$0BAAAAA@$0A@@1@A DD 01H DUP (?) ; ATL::atlTraceSecurity
_BSS	ENDS
;	COMDAT ?atlTraceSync@ATL@@3V?$CTraceCategoryEx@$0CAAAAA@$0A@@1@A
_BSS	SEGMENT
?atlTraceSync@ATL@@3V?$CTraceCategoryEx@$0CAAAAA@$0A@@1@A DD 01H DUP (?) ; ATL::atlTraceSync
_BSS	ENDS
;	COMDAT ?atlTraceISAPI@ATL@@3V?$CTraceCategoryEx@$0EAAAAA@$0A@@1@A
_BSS	SEGMENT
?atlTraceISAPI@ATL@@3V?$CTraceCategoryEx@$0EAAAAA@$0A@@1@A DD 01H DUP (?) ; ATL::atlTraceISAPI
_BSS	ENDS
;	COMDAT ?m_nLevel@CTrace@ATL@@1IA
_BSS	SEGMENT
?m_nLevel@CTrace@ATL@@1IA DD 01H DUP (?)		; ATL::CTrace::m_nLevel
_BSS	ENDS
;	COMDAT ?m_nLastCategory@CTrace@ATL@@1IA
_BSS	SEGMENT
?m_nLastCategory@CTrace@ATL@@1IA DD 01H DUP (?)		; ATL::CTrace::m_nLastCategory
_BSS	ENDS
;	COMDAT ?m_nMap@CTrace@ATL@@1PAUCategoryMap@12@A
_BSS	SEGMENT
?m_nMap@CTrace@ATL@@1PAUCategoryMap@12@A DB 02080H DUP (?) ; ATL::CTrace::m_nMap
_BSS	ENDS
;	COMDAT ?m_bInitFailed@CAtlBaseModule@ATL@@2_NA
_BSS	SEGMENT
?m_bInitFailed@CAtlBaseModule@ATL@@2_NA DB 01H DUP (?)	; ATL::CAtlBaseModule::m_bInitFailed
_BSS	ENDS
;	COMDAT ?_AtlComModule@ATL@@3VCAtlComModule@1@A
_BSS	SEGMENT
?_AtlComModule@ATL@@3VCAtlComModule@1@A DB 048H DUP (?)	; ATL::_AtlComModule
_BSS	ENDS
;	COMDAT ?_AtlWinModule@ATL@@3VCAtlWinModule@1@A
_BSS	SEGMENT
?_AtlWinModule@ATL@@3VCAtlWinModule@1@A DB 048H DUP (?)	; ATL::_AtlWinModule
_BSS	ENDS
_BSS	SEGMENT
?version@dtl@@3V?$basic_string@DU?$char_traits@D@std@@V?$allocator@D@2@@std@@B DB 028H DUP (?) ; dtl::version
?g_signal_abort@@3_NA DB 01H DUP (?)			; g_signal_abort
_BSS	ENDS
;	COMDAT ?_Stinit@?1??_Init@?$basic_filebuf@DU?$char_traits@D@std@@@std@@IEAAXPEAU_iobuf@@W4_Initfl@23@@Z@4U_Mbstatet@@A
_BSS	SEGMENT
?_Stinit@?1??_Init@?$basic_filebuf@DU?$char_traits@D@std@@@std@@IEAAXPEAU_iobuf@@W4_Initfl@23@@Z@4U_Mbstatet@@A DQ 01H DUP (?) ; `std::basic_filebuf<char,std::char_traits<char> >::_Init'::`2'::_Stinit
_BSS	ENDS
;	COMDAT ?_Psave@?$_Facetptr@V?$codecvt@DDU_Mbstatet@@@std@@@std@@2PEBVfacet@locale@2@EB
_BSS	SEGMENT
?_Psave@?$_Facetptr@V?$codecvt@DDU_Mbstatet@@@std@@@std@@2PEBVfacet@locale@2@EB DQ 01H DUP (?) ; std::_Facetptr<std::codecvt<char,char,_Mbstatet> >::_Psave
_BSS	ENDS
;	COMDAT pdata
pdata	SEGMENT
$pdata$?__empty_global_delete@@YAXPEAX@Z DD imagerel $LN3
	DD	imagerel $LN3+8
	DD	imagerel $unwind$?__empty_global_delete@@YAXPEAX@Z
pdata	ENDS
;	COMDAT pdata
pdata	SEGMENT
$pdata$?__empty_global_delete@@YAXPEAX_K@Z DD imagerel $LN3
	DD	imagerel $LN3+13
	DD	imagerel $unwind$?__empty_global_delete@@YAXPEAX_K@Z
pdata	ENDS
;	COMDAT pdata
pdata	SEGMENT
$pdata$??2@YAPEAX_KPEAX@Z DD imagerel $LN3
	DD	imagerel $LN3+18
	DD	imagerel $unwind$??2@YAPEAX_KPEAX@Z
pdata	ENDS
;	COMDAT pdata
pdata	SEGMENT
$pdata$__local_stdio_printf_options DD imagerel $LN3
	DD	imagerel $LN3+11
	DD	imagerel $unwind$__local_stdio_printf_options
pdata	ENDS
;	COMDAT pdata
pdata	SEGMENT
$pdata$_vswprintf_s_l DD imagerel $LN5
	DD	imagerel $LN5+133
	DD	imagerel $unwind$_vswprintf_s_l
pdata	ENDS
;	COMDAT pdata
pdata	SEGMENT
$pdata$swprintf_s DD imagerel $LN3
	DD	imagerel $LN3+136
	DD	imagerel $unwind$swprintf_s
pdata	ENDS
;	COMDAT pdata
pdata	SEGMENT
$pdata$_vfprintf_l DD imagerel $LN3
	DD	imagerel $LN3+90
	DD	imagerel $unwind$_vfprintf_l
pdata	ENDS
;	COMDAT pdata
pdata	SEGMENT
$pdata$fprintf DD imagerel $LN3
	DD	imagerel $LN3+120
	DD	imagerel $unwind$fprintf
pdata	ENDS
;	COMDAT pdata
pdata	SEGMENT
$pdata$printf DD imagerel $LN3
	DD	imagerel $LN3+129
	DD	imagerel $unwind$printf
pdata	ENDS
;	COMDAT pdata
pdata	SEGMENT
$pdata$_vsnprintf_s_l DD imagerel $LN5
	DD	imagerel $LN5+149
	DD	imagerel $unwind$_vsnprintf_s_l
pdata	ENDS
;	COMDAT pdata
pdata	SEGMENT
$pdata$_vsnprintf_s DD imagerel $LN3
	DD	imagerel $LN3+95
	DD	imagerel $unwind$_vsnprintf_s
pdata	ENDS
;	COMDAT pdata
pdata	SEGMENT
$pdata$_vscprintf_l DD imagerel $LN5
	DD	imagerel $LN5+130
	DD	imagerel $unwind$_vscprintf_l
pdata	ENDS
;	COMDAT pdata
pdata	SEGMENT
$pdata$_vscprintf DD imagerel $LN3
	DD	imagerel $LN3+58
	DD	imagerel $unwind$_vscprintf
pdata	ENDS
;	COMDAT pdata
pdata	SEGMENT
$pdata$??0exception@std@@QEAA@QEBDH@Z DD imagerel $LN3
	DD	imagerel $LN3+73
	DD	imagerel $unwind$??0exception@std@@QEAA@QEBDH@Z
pdata	ENDS
;	COMDAT pdata
pdata	SEGMENT
$pdata$??0exception@std@@QEAA@AEBV01@@Z DD imagerel $LN3
	DD	imagerel $LN3+109
	DD	imagerel $unwind$??0exception@std@@QEAA@AEBV01@@Z
pdata	ENDS
;	COMDAT pdata
pdata	SEGMENT
$pdata$??1exception@std@@UEAA@XZ DD imagerel $LN3
	DD	imagerel $LN3+69
	DD	imagerel $unwind$??1exception@std@@UEAA@XZ
pdata	ENDS
;	COMDAT pdata
pdata	SEGMENT
$pdata$?what@exception@std@@UEBAPEBDXZ DD imagerel $LN5
	DD	imagerel $LN5+78
	DD	imagerel $unwind$?what@exception@std@@UEBAPEBDXZ
pdata	ENDS
;	COMDAT pdata
pdata	SEGMENT
$pdata$??_Gexception@std@@UEAAPEAXI@Z DD imagerel $LN4
	DD	imagerel $LN4+81
	DD	imagerel $unwind$??_Gexception@std@@UEAAPEAXI@Z
pdata	ENDS
;	COMDAT pdata
pdata	SEGMENT
$pdata$??0bad_alloc@std@@AEAA@QEBD@Z DD imagerel $LN4
	DD	imagerel $LN4+83
	DD	imagerel $unwind$??0bad_alloc@std@@AEAA@QEBD@Z
pdata	ENDS
;	COMDAT pdata
pdata	SEGMENT
$pdata$?dtor$0@?0???0bad_alloc@std@@AEAA@QEBD@Z@4HA DD imagerel ?dtor$0@?0???0bad_alloc@std@@AEAA@QEBD@Z@4HA
	DD	imagerel ?dtor$0@?0???0bad_alloc@std@@AEAA@QEBD@Z@4HA+35
	DD	imagerel $unwind$?dtor$0@?0???0bad_alloc@std@@AEAA@QEBD@Z@4HA
pdata	ENDS
;	COMDAT pdata
pdata	SEGMENT
$pdata$??1bad_alloc@std@@UEAA@XZ DD imagerel $LN4
	DD	imagerel $LN4+47
	DD	imagerel $unwind$??1bad_alloc@std@@UEAA@XZ
pdata	ENDS
;	COMDAT pdata
pdata	SEGMENT
$pdata$?dtor$0@?0???1bad_alloc@std@@UEAA@XZ@4HA DD imagerel ?dtor$0@?0???1bad_alloc@std@@UEAA@XZ@4HA
	DD	imagerel ?dtor$0@?0???1bad_alloc@std@@UEAA@XZ@4HA+35
	DD	imagerel $unwind$?dtor$0@?0???1bad_alloc@std@@UEAA@XZ@4HA
pdata	ENDS
;	COMDAT pdata
pdata	SEGMENT
$pdata$??0bad_alloc@std@@QEAA@AEBV01@@Z DD imagerel $LN4
	DD	imagerel $LN4+77
	DD	imagerel $unwind$??0bad_alloc@std@@QEAA@AEBV01@@Z
pdata	ENDS
;	COMDAT pdata
pdata	SEGMENT
$pdata$?dtor$0@?0???0bad_alloc@std@@QEAA@AEBV01@@Z@4HA DD imagerel ?dtor$0@?0???0bad_alloc@std@@QEAA@AEBV01@@Z@4HA
	DD	imagerel ?dtor$0@?0???0bad_alloc@std@@QEAA@AEBV01@@Z@4HA+35
	DD	imagerel $unwind$?dtor$0@?0???0bad_alloc@std@@QEAA@AEBV01@@Z@4HA
pdata	ENDS
;	COMDAT pdata
pdata	SEGMENT
$pdata$??_Gbad_alloc@std@@UEAAPEAXI@Z DD imagerel $LN4
	DD	imagerel $LN4+81
	DD	imagerel $unwind$??_Gbad_alloc@std@@UEAAPEAXI@Z
pdata	ENDS
;	COMDAT pdata
pdata	SEGMENT
$pdata$??0bad_array_new_length@std@@QEAA@XZ DD imagerel $LN4
	DD	imagerel $LN4+74
	DD	imagerel $unwind$??0bad_array_new_length@std@@QEAA@XZ
pdata	ENDS
;	COMDAT pdata
pdata	SEGMENT
$pdata$?dtor$0@?0???0bad_array_new_length@std@@QEAA@XZ@4HA DD imagerel ?dtor$0@?0???0bad_array_new_length@std@@QEAA@XZ@4HA
	DD	imagerel ?dtor$0@?0???0bad_array_new_length@std@@QEAA@XZ@4HA+35
	DD	imagerel $unwind$?dtor$0@?0???0bad_array_new_length@std@@QEAA@XZ@4HA
pdata	ENDS
;	COMDAT pdata
pdata	SEGMENT
$pdata$??1bad_array_new_length@std@@UEAA@XZ DD imagerel $LN4
	DD	imagerel $LN4+47
	DD	imagerel $unwind$??1bad_array_new_length@std@@UEAA@XZ
pdata	ENDS
;	COMDAT pdata
pdata	SEGMENT
$pdata$?dtor$0@?0???1bad_array_new_length@std@@UEAA@XZ@4HA DD imagerel ?dtor$0@?0???1bad_array_new_length@std@@UEAA@XZ@4HA
	DD	imagerel ?dtor$0@?0???1bad_array_new_length@std@@UEAA@XZ@4HA+35
	DD	imagerel $unwind$?dtor$0@?0???1bad_array_new_length@std@@UEAA@XZ@4HA
pdata	ENDS
;	COMDAT pdata
pdata	SEGMENT
$pdata$??0bad_array_new_length@std@@QEAA@AEBV01@@Z DD imagerel $LN4
	DD	imagerel $LN4+77
	DD	imagerel $unwind$??0bad_array_new_length@std@@QEAA@AEBV01@@Z
pdata	ENDS
;	COMDAT pdata
pdata	SEGMENT
$pdata$?dtor$0@?0???0bad_array_new_length@std@@QEAA@AEBV01@@Z@4HA DD imagerel ?dtor$0@?0???0bad_array_new_length@std@@QEAA@AEBV01@@Z@4HA
	DD	imagerel ?dtor$0@?0???0bad_array_new_length@std@@QEAA@AEBV01@@Z@4HA+35
	DD	imagerel $unwind$?dtor$0@?0???0bad_array_new_length@std@@QEAA@AEBV01@@Z@4HA
pdata	ENDS
;	COMDAT pdata
pdata	SEGMENT
$pdata$??_Gbad_array_new_length@std@@UEAAPEAXI@Z DD imagerel $LN4
	DD	imagerel $LN4+81
	DD	imagerel $unwind$??_Gbad_array_new_length@std@@UEAAPEAXI@Z
pdata	ENDS
;	COMDAT pdata
pdata	SEGMENT
$pdata$?_Throw_bad_array_new_length@std@@YAXXZ DD imagerel $LN3
	DD	imagerel $LN3+54
	DD	imagerel $unwind$?_Throw_bad_array_new_length@std@@YAXXZ
pdata	ENDS
;	COMDAT pdata
pdata	SEGMENT
$pdata$wmemcpy DD imagerel $LN3
	DD	imagerel $LN3+72
	DD	imagerel $unwind$wmemcpy
pdata	ENDS
;	COMDAT pdata
pdata	SEGMENT
$pdata$?max@?$numeric_limits@_J@std@@SA_JXZ DD imagerel $LN3
	DD	imagerel $LN3+14
	DD	imagerel $unwind$?max@?$numeric_limits@_J@std@@SA_JXZ
pdata	ENDS
;	COMDAT pdata
pdata	SEGMENT
$pdata$?_Allocate@_Default_allocate_traits@std@@SAPEAX_K@Z DD imagerel $LN3
	DD	imagerel $LN3+46
	DD	imagerel $unwind$?_Allocate@_Default_allocate_traits@std@@SAPEAX_K@Z
pdata	ENDS
;	COMDAT pdata
pdata	SEGMENT
$pdata$?_Adjust_manually_vector_aligned@std@@YAXAEAPEAXAEA_K@Z DD imagerel $LN21
	DD	imagerel $LN21+424
	DD	imagerel $unwind$?_Adjust_manually_vector_aligned@std@@YAXAEAPEAXAEA_K@Z
pdata	ENDS
;	COMDAT pdata
pdata	SEGMENT
$pdata$??$_Convert_size@_K@std@@YA_K_K@Z DD imagerel $LN3
	DD	imagerel $LN3+13
	DD	imagerel $unwind$??$_Convert_size@_K@std@@YA_K_K@Z
pdata	ENDS
;	COMDAT pdata
pdata	SEGMENT
$pdata$??0_Container_proxy@std@@QEAA@PEAU_Container_base12@1@@Z DD imagerel $LN3
	DD	imagerel $LN3+44
	DD	imagerel $unwind$??0_Container_proxy@std@@QEAA@PEAU_Container_base12@1@@Z
pdata	ENDS
;	COMDAT pdata
pdata	SEGMENT
$pdata$??0_Container_base12@std@@QEAA@XZ DD imagerel $LN3
	DD	imagerel $LN3+25
	DD	imagerel $unwind$??0_Container_base12@std@@QEAA@XZ
pdata	ENDS
;	COMDAT pdata
pdata	SEGMENT
$pdata$?_Orphan_all@_Container_base12@std@@QEAAXXZ DD imagerel $LN8
	DD	imagerel $LN8+175
	DD	imagerel $unwind$?_Orphan_all@_Container_base12@std@@QEAAXXZ
pdata	ENDS
;	COMDAT pdata
pdata	SEGMENT
$pdata$?dtor$0@?0??_Orphan_all@_Container_base12@std@@QEAAXXZ@4HA DD imagerel ?dtor$0@?0??_Orphan_all@_Container_base12@std@@QEAAXXZ@4HA
	DD	imagerel ?dtor$0@?0??_Orphan_all@_Container_base12@std@@QEAAXXZ@4HA+36
	DD	imagerel $unwind$?dtor$0@?0??_Orphan_all@_Container_base12@std@@QEAAXXZ@4HA
pdata	ENDS
;	COMDAT pdata
pdata	SEGMENT
$pdata$?_Swap_proxy_and_iterators@_Container_base12@std@@QEAAXAEAU12@@Z DD imagerel $LN6
	DD	imagerel $LN6+182
	DD	imagerel $unwind$?_Swap_proxy_and_iterators@_Container_base12@std@@QEAAXAEAU12@@Z
pdata	ENDS
;	COMDAT pdata
pdata	SEGMENT
$pdata$?dtor$0@?0??_Swap_proxy_and_iterators@_Container_base12@std@@QEAAXAEAU12@@Z@4HA DD imagerel ?dtor$0@?0??_Swap_proxy_and_iterators@_Container_base12@std@@QEAAXAEAU12@@Z@4HA
	DD	imagerel ?dtor$0@?0??_Swap_proxy_and_iterators@_Container_base12@std@@QEAAXAEAU12@@Z@4HA+36
	DD	imagerel $unwind$?dtor$0@?0??_Swap_proxy_and_iterators@_Container_base12@std@@QEAAXAEAU12@@Z@4HA
pdata	ENDS
;	COMDAT pdata
pdata	SEGMENT
$pdata$??0_Iterator_base12@std@@QEAA@XZ DD imagerel $LN3
	DD	imagerel $LN3+38
	DD	imagerel $unwind$??0_Iterator_base12@std@@QEAA@XZ
pdata	ENDS
;	COMDAT pdata
pdata	SEGMENT
$pdata$??1_Iterator_base12@std@@QEAA@XZ DD imagerel $LN4
	DD	imagerel $LN4+92
	DD	imagerel $unwind$??1_Iterator_base12@std@@QEAA@XZ
pdata	ENDS
;	COMDAT pdata
pdata	SEGMENT
$pdata$?dtor$0@?0???1_Iterator_base12@std@@QEAA@XZ@4HA DD imagerel ?dtor$0@?0???1_Iterator_base12@std@@QEAA@XZ@4HA
	DD	imagerel ?dtor$0@?0???1_Iterator_base12@std@@QEAA@XZ@4HA+36
	DD	imagerel $unwind$?dtor$0@?0???1_Iterator_base12@std@@QEAA@XZ@4HA
pdata	ENDS
;	COMDAT pdata
pdata	SEGMENT
$pdata$?_Adopt@_Iterator_base12@std@@QEAAXPEBU_Container_base12@2@@Z DD imagerel $LN8
	DD	imagerel $LN8+251
	DD	imagerel $unwind$?_Adopt@_Iterator_base12@std@@QEAAXPEBU_Container_base12@2@@Z
pdata	ENDS
;	COMDAT pdata
pdata	SEGMENT
$pdata$?dtor$0@?0??_Adopt@_Iterator_base12@std@@QEAAXPEBU_Container_base12@2@@Z@4HA DD imagerel ?dtor$0@?0??_Adopt@_Iterator_base12@std@@QEAAXPEBU_Container_base12@2@@Z@4HA
	DD	imagerel ?dtor$0@?0??_Adopt@_Iterator_base12@std@@QEAAXPEBU_Container_base12@2@@Z@4HA+36
	DD	imagerel $unwind$?dtor$0@?0??_Adopt@_Iterator_base12@std@@QEAAXPEBU_Container_base12@2@@Z@4HA
pdata	ENDS
;	COMDAT pdata
pdata	SEGMENT
$pdata$?dtor$1@?0??_Adopt@_Iterator_base12@std@@QEAAXPEBU_Container_base12@2@@Z@4HA DD imagerel ?dtor$1@?0??_Adopt@_Iterator_base12@std@@QEAAXPEBU_Container_base12@2@@Z@4HA
	DD	imagerel ?dtor$1@?0??_Adopt@_Iterator_base12@std@@QEAAXPEBU_Container_base12@2@@Z@4HA+36
	DD	imagerel $unwind$?dtor$1@?0??_Adopt@_Iterator_base12@std@@QEAAXPEBU_Container_base12@2@@Z@4HA
pdata	ENDS
;	COMDAT pdata
pdata	SEGMENT
$pdata$?_Getcont@_Iterator_base12@std@@QEBAPEBU_Container_base12@2@XZ DD imagerel $LN5
	DD	imagerel $LN5+76
	DD	imagerel $unwind$?_Getcont@_Iterator_base12@std@@QEBAPEBU_Container_base12@2@XZ
pdata	ENDS
;	COMDAT pdata
pdata	SEGMENT
$pdata$?_Orphan_me@_Iterator_base12@std@@QEAAXXZ DD imagerel $LN15
	DD	imagerel $LN15+270
	DD	imagerel $unwind$?_Orphan_me@_Iterator_base12@std@@QEAAXXZ
pdata	ENDS
;	COMDAT pdata
pdata	SEGMENT
$pdata$?_Release@_Basic_container_proxy_ptr12@std@@QEAAXXZ DD imagerel $LN3
	DD	imagerel $LN3+20
	DD	imagerel $unwind$?_Release@_Basic_container_proxy_ptr12@std@@QEAAXXZ
pdata	ENDS
;	COMDAT pdata
pdata	SEGMENT
$pdata$?length@?$_Narrow_char_traits@DH@std@@SA_KQEBD@Z DD imagerel $LN3
	DD	imagerel $LN3+47
	DD	imagerel $unwind$?length@?$_Narrow_char_traits@DH@std@@SA_KQEBD@Z
pdata	ENDS
;	COMDAT pdata
pdata	SEGMENT
$pdata$?copy@?$_Narrow_char_traits@DH@std@@SAPEADQEADQEBD_K@Z DD imagerel $LN3
	DD	imagerel $LN3+67
	DD	imagerel $unwind$?copy@?$_Narrow_char_traits@DH@std@@SAPEADQEADQEBD_K@Z
pdata	ENDS
;	COMDAT pdata
pdata	SEGMENT
$pdata$?move@?$_Narrow_char_traits@DH@std@@SAPEADQEADQEBD_K@Z DD imagerel $LN3
	DD	imagerel $LN3+67
	DD	imagerel $unwind$?move@?$_Narrow_char_traits@DH@std@@SAPEADQEADQEBD_K@Z
pdata	ENDS
;	COMDAT pdata
pdata	SEGMENT
$pdata$?assign@?$_Narrow_char_traits@DH@std@@SAXAEADAEBD@Z DD imagerel $LN3
	DD	imagerel $LN3+28
	DD	imagerel $unwind$?assign@?$_Narrow_char_traits@DH@std@@SAXAEADAEBD@Z
pdata	ENDS
;	COMDAT pdata
pdata	SEGMENT
$pdata$?eq@?$_Narrow_char_traits@DH@std@@SA_NAEBD0@Z DD imagerel $LN5
	DD	imagerel $LN5+81
	DD	imagerel $unwind$?eq@?$_Narrow_char_traits@DH@std@@SA_NAEBD0@Z
pdata	ENDS
;	COMDAT pdata
pdata	SEGMENT
$pdata$?to_char_type@?$_Narrow_char_traits@DH@std@@SADAEBH@Z DD imagerel $LN3
	DD	imagerel $LN3+16
	DD	imagerel $unwind$?to_char_type@?$_Narrow_char_traits@DH@std@@SADAEBH@Z
pdata	ENDS
;	COMDAT pdata
pdata	SEGMENT
$pdata$?to_int_type@?$_Narrow_char_traits@DH@std@@SAHAEBD@Z DD imagerel $LN3
	DD	imagerel $LN3+16
	DD	imagerel $unwind$?to_int_type@?$_Narrow_char_traits@DH@std@@SAHAEBD@Z
pdata	ENDS
;	COMDAT pdata
pdata	SEGMENT
$pdata$?eq_int_type@?$_Narrow_char_traits@DH@std@@SA_NAEBH0@Z DD imagerel $LN5
	DD	imagerel $LN5+77
	DD	imagerel $unwind$?eq_int_type@?$_Narrow_char_traits@DH@std@@SA_NAEBH0@Z
pdata	ENDS
;	COMDAT pdata
pdata	SEGMENT
$pdata$?not_eof@?$_Narrow_char_traits@DH@std@@SAHAEBH@Z DD imagerel $LN7
	DD	imagerel $LN7+102
	DD	imagerel $unwind$?not_eof@?$_Narrow_char_traits@DH@std@@SAHAEBH@Z
pdata	ENDS
;	COMDAT pdata
pdata	SEGMENT
$pdata$?eof@?$_Narrow_char_traits@DH@std@@SAHXZ DD imagerel $LN3
	DD	imagerel $LN3+9
	DD	imagerel $unwind$?eof@?$_Narrow_char_traits@DH@std@@SAHXZ
pdata	ENDS
;	COMDAT pdata
pdata	SEGMENT
$pdata$??0?$allocator@D@std@@QEAA@XZ DD imagerel $LN3
	DD	imagerel $LN3+13
	DD	imagerel $unwind$??0?$allocator@D@std@@QEAA@XZ
pdata	ENDS
;	COMDAT pdata
pdata	SEGMENT
$pdata$?deallocate@?$allocator@D@std@@QEAAXQEAD_K@Z DD imagerel $LN3
	DD	imagerel $LN3+61
	DD	imagerel $unwind$?deallocate@?$allocator@D@std@@QEAAXQEAD_K@Z
pdata	ENDS
;	COMDAT pdata
pdata	SEGMENT
$pdata$?allocate@?$allocator@D@std@@QEAAPEAD_K@Z DD imagerel $LN3
	DD	imagerel $LN3+59
	DD	imagerel $unwind$?allocate@?$allocator@D@std@@QEAAPEAD_K@Z
pdata	ENDS
;	COMDAT pdata
pdata	SEGMENT
$pdata$?max_size@?$_Default_allocator_traits@V?$allocator@D@std@@@std@@SA_KAEBV?$allocator@D@2@@Z DD imagerel $LN3
	DD	imagerel $LN3+15
	DD	imagerel $unwind$?max_size@?$_Default_allocator_traits@V?$allocator@D@std@@@std@@SA_KAEBV?$allocator@D@2@@Z
pdata	ENDS
;	COMDAT pdata
pdata	SEGMENT
$pdata$?select_on_container_copy_construction@?$_Default_allocator_traits@V?$allocator@D@std@@@std@@SA?AV?$allocator@D@2@AEBV32@@Z DD imagerel $LN3
	DD	imagerel $LN3+18
	DD	imagerel $unwind$?select_on_container_copy_construction@?$_Default_allocator_traits@V?$allocator@D@std@@@std@@SA?AV?$allocator@D@2@AEBV32@@Z
pdata	ENDS
;	COMDAT pdata
pdata	SEGMENT
$pdata$??0?$_String_val@U?$_Simple_types@D@std@@@std@@QEAA@XZ DD imagerel $LN4
	DD	imagerel $LN4+95
	DD	imagerel $unwind$??0?$_String_val@U?$_Simple_types@D@std@@@std@@QEAA@XZ
pdata	ENDS
;	COMDAT pdata
pdata	SEGMENT
$pdata$?dtor$0@?0???0?$_String_val@U?$_Simple_types@D@std@@@std@@QEAA@XZ@4HA DD imagerel ?dtor$0@?0???0?$_String_val@U?$_Simple_types@D@std@@@std@@QEAA@XZ@4HA
	DD	imagerel ?dtor$0@?0???0?$_String_val@U?$_Simple_types@D@std@@@std@@QEAA@XZ@4HA+39
	DD	imagerel $unwind$?dtor$0@?0???0?$_String_val@U?$_Simple_types@D@std@@@std@@QEAA@XZ@4HA
pdata	ENDS
;	COMDAT pdata
pdata	SEGMENT
$pdata$?_Myptr@?$_String_val@U?$_Simple_types@D@std@@@std@@QEAAPEADXZ DD imagerel $LN4
	DD	imagerel $LN4+91
	DD	imagerel $unwind$?_Myptr@?$_String_val@U?$_Simple_types@D@std@@@std@@QEAAPEADXZ
pdata	ENDS
;	COMDAT pdata
pdata	SEGMENT
$pdata$?_Myptr@?$_String_val@U?$_Simple_types@D@std@@@std@@QEBAPEBDXZ DD imagerel $LN4
	DD	imagerel $LN4+91
	DD	imagerel $unwind$?_Myptr@?$_String_val@U?$_Simple_types@D@std@@@std@@QEBAPEBDXZ
pdata	ENDS
;	COMDAT pdata
pdata	SEGMENT
$pdata$?_Large_string_engaged@?$_String_val@U?$_Simple_types@D@std@@@std@@QEBA_NXZ DD imagerel $LN5
	DD	imagerel $LN5+68
	DD	imagerel $unwind$?_Large_string_engaged@?$_String_val@U?$_Simple_types@D@std@@@std@@QEBA_NXZ
pdata	ENDS
;	COMDAT pdata
pdata	SEGMENT
$pdata$?_Check_offset@?$_String_val@U?$_Simple_types@D@std@@@std@@QEBAX_K@Z DD imagerel $LN4
	DD	imagerel $LN4+62
	DD	imagerel $unwind$?_Check_offset@?$_String_val@U?$_Simple_types@D@std@@@std@@QEBAX_K@Z
pdata	ENDS
;	COMDAT pdata
pdata	SEGMENT
$pdata$?_Xran@?$_String_val@U?$_Simple_types@D@std@@@std@@SAXXZ DD imagerel $LN3
	DD	imagerel $LN3+39
	DD	imagerel $unwind$?_Xran@?$_String_val@U?$_Simple_types@D@std@@@std@@SAXXZ
pdata	ENDS
;	COMDAT pdata
pdata	SEGMENT
$pdata$?_Clamp_suffix_size@?$_String_val@U?$_Simple_types@D@std@@@std@@QEBA_K_K0@Z DD imagerel $LN3
	DD	imagerel $LN3+86
	DD	imagerel $unwind$?_Clamp_suffix_size@?$_String_val@U?$_Simple_types@D@std@@@std@@QEBA_K_K0@Z
pdata	ENDS
;	COMDAT pdata
pdata	SEGMENT
$pdata$??0_Bxty@?$_String_val@U?$_Simple_types@D@std@@@std@@QEAA@XZ DD imagerel $LN3
	DD	imagerel $LN3+13
	DD	imagerel $unwind$??0_Bxty@?$_String_val@U?$_Simple_types@D@std@@@std@@QEAA@XZ
pdata	ENDS
;	COMDAT pdata
pdata	SEGMENT
$pdata$??1_Bxty@?$_String_val@U?$_Simple_types@D@std@@@std@@QEAA@XZ DD imagerel $LN3
	DD	imagerel $LN3+8
	DD	imagerel $unwind$??1_Bxty@?$_String_val@U?$_Simple_types@D@std@@@std@@QEAA@XZ
pdata	ENDS
;	COMDAT pdata
pdata	SEGMENT
$pdata$??1?$_String_val@U?$_Simple_types@D@std@@@std@@QEAA@XZ DD imagerel $LN4
	DD	imagerel $LN4+54
	DD	imagerel $unwind$??1?$_String_val@U?$_Simple_types@D@std@@@std@@QEAA@XZ
pdata	ENDS
;	COMDAT pdata
pdata	SEGMENT
$pdata$?dtor$0@?0???1?$_String_val@U?$_Simple_types@D@std@@@std@@QEAA@XZ@4HA DD imagerel ?dtor$0@?0???1?$_String_val@U?$_Simple_types@D@std@@@std@@QEAA@XZ@4HA
	DD	imagerel ?dtor$0@?0???1?$_String_val@U?$_Simple_types@D@std@@@std@@QEAA@XZ@4HA+39
	DD	imagerel $unwind$?dtor$0@?0???1?$_String_val@U?$_Simple_types@D@std@@@std@@QEAA@XZ@4HA
pdata	ENDS
;	COMDAT pdata
pdata	SEGMENT
$pdata$??0?$basic_string@DU?$char_traits@D@std@@V?$allocator@D@2@@std@@QEAA@AEBV01@@Z DD imagerel $LN5
	DD	imagerel $LN5+233
	DD	imagerel $unwind$??0?$basic_string@DU?$char_traits@D@std@@V?$allocator@D@2@@std@@QEAA@AEBV01@@Z
pdata	ENDS
;	COMDAT pdata
pdata	SEGMENT
$pdata$?dtor$0@?0???0?$basic_string@DU?$char_traits@D@std@@V?$allocator@D@2@@std@@QEAA@AEBV01@@Z@4HA DD imagerel ?dtor$0@?0???0?$basic_string@DU?$char_traits@D@std@@V?$allocator@D@2@@std@@QEAA@AEBV01@@Z@4HA
	DD	imagerel ?dtor$0@?0???0?$basic_string@DU?$char_traits@D@std@@V?$allocator@D@2@@std@@QEAA@AEBV01@@Z@4HA+38
	DD	imagerel $unwind$?dtor$0@?0???0?$basic_string@DU?$char_traits@D@std@@V?$allocator@D@2@@std@@QEAA@AEBV01@@Z@4HA
pdata	ENDS
;	COMDAT pdata
pdata	SEGMENT
$pdata$?dtor$1@?0???0?$basic_string@DU?$char_traits@D@std@@V?$allocator@D@2@@std@@QEAA@AEBV01@@Z@4HA DD imagerel ?dtor$1@?0???0?$basic_string@DU?$char_traits@D@std@@V?$allocator@D@2@@std@@QEAA@AEBV01@@Z@4HA
	DD	imagerel ?dtor$1@?0???0?$basic_string@DU?$char_traits@D@std@@V?$allocator@D@2@@std@@QEAA@AEBV01@@Z@4HA+35
	DD	imagerel $unwind$?dtor$1@?0???0?$basic_string@DU?$char_traits@D@std@@V?$allocator@D@2@@std@@QEAA@AEBV01@@Z@4HA
pdata	ENDS
;	COMDAT pdata
pdata	SEGMENT
$pdata$??0?$basic_string@DU?$char_traits@D@std@@V?$allocator@D@2@@std@@QEAA@XZ DD imagerel $LN4
	DD	imagerel $LN4+110
	DD	imagerel $unwind$??0?$basic_string@DU?$char_traits@D@std@@V?$allocator@D@2@@std@@QEAA@XZ
pdata	ENDS
;	COMDAT pdata
pdata	SEGMENT
$pdata$?dtor$0@?0???0?$basic_string@DU?$char_traits@D@std@@V?$allocator@D@2@@std@@QEAA@XZ@4HA DD imagerel ?dtor$0@?0???0?$basic_string@DU?$char_traits@D@std@@V?$allocator@D@2@@std@@QEAA@XZ@4HA
	DD	imagerel ?dtor$0@?0???0?$basic_string@DU?$char_traits@D@std@@V?$allocator@D@2@@std@@QEAA@XZ@4HA+35
	DD	imagerel $unwind$?dtor$0@?0???0?$basic_string@DU?$char_traits@D@std@@V?$allocator@D@2@@std@@QEAA@XZ@4HA
pdata	ENDS
;	COMDAT pdata
pdata	SEGMENT
$pdata$??0?$basic_string@DU?$char_traits@D@std@@V?$allocator@D@2@@std@@QEAA@AEBV?$allocator@D@1@@Z DD imagerel $LN4
	DD	imagerel $LN4+120
	DD	imagerel $unwind$??0?$basic_string@DU?$char_traits@D@std@@V?$allocator@D@2@@std@@QEAA@AEBV?$allocator@D@1@@Z
pdata	ENDS
;	COMDAT pdata
pdata	SEGMENT
$pdata$?dtor$0@?0???0?$basic_string@DU?$char_traits@D@std@@V?$allocator@D@2@@std@@QEAA@AEBV?$allocator@D@1@@Z@4HA DD imagerel ?dtor$0@?0???0?$basic_string@DU?$char_traits@D@std@@V?$allocator@D@2@@std@@QEAA@AEBV?$allocator@D@1@@Z@4HA
	DD	imagerel ?dtor$0@?0???0?$basic_string@DU?$char_traits@D@std@@V?$allocator@D@2@@std@@QEAA@AEBV?$allocator@D@1@@Z@4HA+35
	DD	imagerel $unwind$?dtor$0@?0???0?$basic_string@DU?$char_traits@D@std@@V?$allocator@D@2@@std@@QEAA@AEBV?$allocator@D@1@@Z@4HA
pdata	ENDS
;	COMDAT pdata
pdata	SEGMENT
$pdata$??0?$basic_string@DU?$char_traits@D@std@@V?$allocator@D@2@@std@@QEAA@QEBD@Z DD imagerel $LN5
	DD	imagerel $LN5+220
	DD	imagerel $unwind$??0?$basic_string@DU?$char_traits@D@std@@V?$allocator@D@2@@std@@QEAA@QEBD@Z
pdata	ENDS
;	COMDAT pdata
pdata	SEGMENT
$pdata$?dtor$0@?0???0?$basic_string@DU?$char_traits@D@std@@V?$allocator@D@2@@std@@QEAA@QEBD@Z@4HA DD imagerel ?dtor$0@?0???0?$basic_string@DU?$char_traits@D@std@@V?$allocator@D@2@@std@@QEAA@QEBD@Z@4HA
	DD	imagerel ?dtor$0@?0???0?$basic_string@DU?$char_traits@D@std@@V?$allocator@D@2@@std@@QEAA@QEBD@Z@4HA+38
	DD	imagerel $unwind$?dtor$0@?0???0?$basic_string@DU?$char_traits@D@std@@V?$allocator@D@2@@std@@QEAA@QEBD@Z@4HA
pdata	ENDS
;	COMDAT pdata
pdata	SEGMENT
$pdata$?dtor$1@?0???0?$basic_string@DU?$char_traits@D@std@@V?$allocator@D@2@@std@@QEAA@QEBD@Z@4HA DD imagerel ?dtor$1@?0???0?$basic_string@DU?$char_traits@D@std@@V?$allocator@D@2@@std@@QEAA@QEBD@Z@4HA
	DD	imagerel ?dtor$1@?0???0?$basic_string@DU?$char_traits@D@std@@V?$allocator@D@2@@std@@QEAA@QEBD@Z@4HA+35
	DD	imagerel $unwind$?dtor$1@?0???0?$basic_string@DU?$char_traits@D@std@@V?$allocator@D@2@@std@@QEAA@QEBD@Z@4HA
pdata	ENDS
;	COMDAT pdata
pdata	SEGMENT
$pdata$??0?$basic_string@DU?$char_traits@D@std@@V?$allocator@D@2@@std@@QEAA@$$QEAV01@@Z DD imagerel $LN4
	DD	imagerel $LN4+163
	DD	imagerel $unwind$??0?$basic_string@DU?$char_traits@D@std@@V?$allocator@D@2@@std@@QEAA@$$QEAV01@@Z
pdata	ENDS
;	COMDAT pdata
pdata	SEGMENT
$pdata$?dtor$0@?0???0?$basic_string@DU?$char_traits@D@std@@V?$allocator@D@2@@std@@QEAA@$$QEAV01@@Z@4HA DD imagerel ?dtor$0@?0???0?$basic_string@DU?$char_traits@D@std@@V?$allocator@D@2@@std@@QEAA@$$QEAV01@@Z@4HA
	DD	imagerel ?dtor$0@?0???0?$basic_string@DU?$char_traits@D@std@@V?$allocator@D@2@@std@@QEAA@$$QEAV01@@Z@4HA+35
	DD	imagerel $unwind$?dtor$0@?0???0?$basic_string@DU?$char_traits@D@std@@V?$allocator@D@2@@std@@QEAA@$$QEAV01@@Z@4HA
pdata	ENDS
;	COMDAT pdata
pdata	SEGMENT
$pdata$?_Memcpy_val_from@?$basic_string@DU?$char_traits@D@std@@V?$allocator@D@2@@std@@AEAAXAEBV12@@Z DD imagerel $LN3
	DD	imagerel $LN3+109
	DD	imagerel $unwind$?_Memcpy_val_from@?$basic_string@DU?$char_traits@D@std@@V?$allocator@D@2@@std@@AEAAXAEBV12@@Z
pdata	ENDS
;	COMDAT pdata
pdata	SEGMENT
$pdata$?_Take_contents@?$basic_string@DU?$char_traits@D@std@@V?$allocator@D@2@@std@@AEAAXAEAV12@U?$integral_constant@_N$00@2@@Z DD imagerel $LN5
	DD	imagerel $LN5+126
	DD	imagerel $unwind$?_Take_contents@?$basic_string@DU?$char_traits@D@std@@V?$allocator@D@2@@std@@AEAAXAEAV12@U?$integral_constant@_N$00@2@@Z
pdata	ENDS
;	COMDAT pdata
pdata	SEGMENT
$pdata$?_Construct_lv_contents@?$basic_string@DU?$char_traits@D@std@@V?$allocator@D@2@@std@@AEAAXAEBV12@@Z DD imagerel $LN4
	DD	imagerel $LN4+381
	DD	imagerel $unwind$?_Construct_lv_contents@?$basic_string@DU?$char_traits@D@std@@V?$allocator@D@2@@std@@AEAAXAEBV12@@Z
pdata	ENDS
;	COMDAT pdata
pdata	SEGMENT
$pdata$??1?$basic_string@DU?$char_traits@D@std@@V?$allocator@D@2@@std@@QEAA@XZ DD imagerel $LN4
	DD	imagerel $LN4+153
	DD	imagerel $unwind$??1?$basic_string@DU?$char_traits@D@std@@V?$allocator@D@2@@std@@QEAA@XZ
pdata	ENDS
;	COMDAT pdata
pdata	SEGMENT
$pdata$?dtor$0@?0???1?$basic_string@DU?$char_traits@D@std@@V?$allocator@D@2@@std@@QEAA@XZ@4HA DD imagerel ?dtor$0@?0???1?$basic_string@DU?$char_traits@D@std@@V?$allocator@D@2@@std@@QEAA@XZ@4HA
	DD	imagerel ?dtor$0@?0???1?$basic_string@DU?$char_traits@D@std@@V?$allocator@D@2@@std@@QEAA@XZ@4HA+35
	DD	imagerel $unwind$?dtor$0@?0???1?$basic_string@DU?$char_traits@D@std@@V?$allocator@D@2@@std@@QEAA@XZ@4HA
pdata	ENDS
;	COMDAT pdata
pdata	SEGMENT
$pdata$??4?$basic_string@DU?$char_traits@D@std@@V?$allocator@D@2@@std@@QEAAAEAV01@QEBD@Z DD imagerel $LN3
	DD	imagerel $LN3+56
	DD	imagerel $unwind$??4?$basic_string@DU?$char_traits@D@std@@V?$allocator@D@2@@std@@QEAAAEAV01@QEBD@Z
pdata	ENDS
;	COMDAT pdata
pdata	SEGMENT
$pdata$??Y?$basic_string@DU?$char_traits@D@std@@V?$allocator@D@2@@std@@QEAAAEAV01@AEBV01@@Z DD imagerel $LN3
	DD	imagerel $LN3+56
	DD	imagerel $unwind$??Y?$basic_string@DU?$char_traits@D@std@@V?$allocator@D@2@@std@@QEAAAEAV01@AEBV01@@Z
pdata	ENDS
;	COMDAT pdata
pdata	SEGMENT
$pdata$??Y?$basic_string@DU?$char_traits@D@std@@V?$allocator@D@2@@std@@QEAAAEAV01@QEBD@Z DD imagerel $LN3
	DD	imagerel $LN3+56
	DD	imagerel $unwind$??Y?$basic_string@DU?$char_traits@D@std@@V?$allocator@D@2@@std@@QEAAAEAV01@QEBD@Z
pdata	ENDS
;	COMDAT pdata
pdata	SEGMENT
$pdata$?append@?$basic_string@DU?$char_traits@D@std@@V?$allocator@D@2@@std@@QEAAAEAV12@AEBV12@@Z DD imagerel $LN3
	DD	imagerel $LN3+76
	DD	imagerel $unwind$?append@?$basic_string@DU?$char_traits@D@std@@V?$allocator@D@2@@std@@QEAAAEAV12@AEBV12@@Z
pdata	ENDS
;	COMDAT pdata
pdata	SEGMENT
$pdata$?append@?$basic_string@DU?$char_traits@D@std@@V?$allocator@D@2@@std@@QEAAAEAV12@QEBD_K@Z DD imagerel $LN4
	DD	imagerel $LN4+270
	DD	imagerel $unwind$?append@?$basic_string@DU?$char_traits@D@std@@V?$allocator@D@2@@std@@QEAAAEAV12@QEBD_K@Z
pdata	ENDS
;	COMDAT pdata
pdata	SEGMENT
$pdata$?append@?$basic_string@DU?$char_traits@D@std@@V?$allocator@D@2@@std@@QEAAAEAV12@QEBD@Z DD imagerel $LN3
	DD	imagerel $LN3+77
	DD	imagerel $unwind$?append@?$basic_string@DU?$char_traits@D@std@@V?$allocator@D@2@@std@@QEAAAEAV12@QEBD@Z
pdata	ENDS
;	COMDAT pdata
pdata	SEGMENT
$pdata$?assign@?$basic_string@DU?$char_traits@D@std@@V?$allocator@D@2@@std@@QEAAAEAV12@QEBD_K@Z DD imagerel $LN4
	DD	imagerel $LN4+198
	DD	imagerel $unwind$?assign@?$basic_string@DU?$char_traits@D@std@@V?$allocator@D@2@@std@@QEAAAEAV12@QEBD_K@Z
pdata	ENDS
;	COMDAT pdata
pdata	SEGMENT
$pdata$?assign@?$basic_string@DU?$char_traits@D@std@@V?$allocator@D@2@@std@@QEAAAEAV12@QEBD@Z DD imagerel $LN3
	DD	imagerel $LN3+77
	DD	imagerel $unwind$?assign@?$basic_string@DU?$char_traits@D@std@@V?$allocator@D@2@@std@@QEAAAEAV12@QEBD@Z
pdata	ENDS
;	COMDAT pdata
pdata	SEGMENT
$pdata$?erase@?$basic_string@DU?$char_traits@D@std@@V?$allocator@D@2@@std@@QEAAAEAV12@_K_K@Z DD imagerel $LN3
	DD	imagerel $LN3+236
	DD	imagerel $unwind$?erase@?$basic_string@DU?$char_traits@D@std@@V?$allocator@D@2@@std@@QEAAAEAV12@_K_K@Z
pdata	ENDS
;	COMDAT pdata
pdata	SEGMENT
$pdata$?push_back@?$basic_string@DU?$char_traits@D@std@@V?$allocator@D@2@@std@@QEAAXD@Z DD imagerel $LN4
	DD	imagerel $LN4+213
	DD	imagerel $unwind$?push_back@?$basic_string@DU?$char_traits@D@std@@V?$allocator@D@2@@std@@QEAAXD@Z
pdata	ENDS
;	COMDAT pdata
pdata	SEGMENT
$pdata$?front@?$basic_string@DU?$char_traits@D@std@@V?$allocator@D@2@@std@@QEAAAEADXZ DD imagerel $LN12
	DD	imagerel $LN12+188
	DD	imagerel $unwind$?front@?$basic_string@DU?$char_traits@D@std@@V?$allocator@D@2@@std@@QEAAAEADXZ
pdata	ENDS
;	COMDAT pdata
pdata	SEGMENT
$pdata$?c_str@?$basic_string@DU?$char_traits@D@std@@V?$allocator@D@2@@std@@QEBAPEBDXZ DD imagerel $LN3
	DD	imagerel $LN3+50
	DD	imagerel $unwind$?c_str@?$basic_string@DU?$char_traits@D@std@@V?$allocator@D@2@@std@@QEBAPEBDXZ
pdata	ENDS
;	COMDAT pdata
pdata	SEGMENT
$pdata$?data@?$basic_string@DU?$char_traits@D@std@@V?$allocator@D@2@@std@@QEBAPEBDXZ DD imagerel $LN3
	DD	imagerel $LN3+50
	DD	imagerel $unwind$?data@?$basic_string@DU?$char_traits@D@std@@V?$allocator@D@2@@std@@QEBAPEBDXZ
pdata	ENDS
;	COMDAT pdata
pdata	SEGMENT
$pdata$?length@?$basic_string@DU?$char_traits@D@std@@V?$allocator@D@2@@std@@QEBA_KXZ DD imagerel $LN3
	DD	imagerel $LN3+17
	DD	imagerel $unwind$?length@?$basic_string@DU?$char_traits@D@std@@V?$allocator@D@2@@std@@QEBA_KXZ
pdata	ENDS
;	COMDAT pdata
pdata	SEGMENT
$pdata$?size@?$basic_string@DU?$char_traits@D@std@@V?$allocator@D@2@@std@@QEBA_KXZ DD imagerel $LN3
	DD	imagerel $LN3+17
	DD	imagerel $unwind$?size@?$basic_string@DU?$char_traits@D@std@@V?$allocator@D@2@@std@@QEBA_KXZ
pdata	ENDS
;	COMDAT pdata
pdata	SEGMENT
$pdata$?max_size@?$basic_string@DU?$char_traits@D@std@@V?$allocator@D@2@@std@@QEBA_KXZ DD imagerel $LN3
	DD	imagerel $LN3+153
	DD	imagerel $unwind$?max_size@?$basic_string@DU?$char_traits@D@std@@V?$allocator@D@2@@std@@QEBA_KXZ
pdata	ENDS
;	COMDAT pdata
pdata	SEGMENT
$pdata$?reserve@?$basic_string@DU?$char_traits@D@std@@V?$allocator@D@2@@std@@QEAAX_K@Z DD imagerel $LN7
	DD	imagerel $LN7+219
	DD	imagerel $unwind$?reserve@?$basic_string@DU?$char_traits@D@std@@V?$allocator@D@2@@std@@QEAAX_K@Z
pdata	ENDS
;	COMDAT pdata
pdata	SEGMENT
$pdata$?_Calculate_growth@?$basic_string@DU?$char_traits@D@std@@V?$allocator@D@2@@std@@CA_K_K00@Z DD imagerel $LN5
	DD	imagerel $LN5+189
	DD	imagerel $unwind$?_Calculate_growth@?$basic_string@DU?$char_traits@D@std@@V?$allocator@D@2@@std@@CA_K_K00@Z
pdata	ENDS
;	COMDAT pdata
pdata	SEGMENT
$pdata$?_Calculate_growth@?$basic_string@DU?$char_traits@D@std@@V?$allocator@D@2@@std@@AEBA_K_K@Z DD imagerel $LN3
	DD	imagerel $LN3+73
	DD	imagerel $unwind$?_Calculate_growth@?$basic_string@DU?$char_traits@D@std@@V?$allocator@D@2@@std@@AEBA_K_K@Z
pdata	ENDS
;	COMDAT pdata
pdata	SEGMENT
$pdata$?_Become_small@?$basic_string@DU?$char_traits@D@std@@V?$allocator@D@2@@std@@AEAAXXZ DD imagerel $LN3
	DD	imagerel $LN3+190
	DD	imagerel $unwind$?_Become_small@?$basic_string@DU?$char_traits@D@std@@V?$allocator@D@2@@std@@AEAAXXZ
pdata	ENDS
;	COMDAT pdata
pdata	SEGMENT
$pdata$?_Tidy_init@?$basic_string@DU?$char_traits@D@std@@V?$allocator@D@2@@std@@AEAAXXZ DD imagerel $LN3
	DD	imagerel $LN3+99
	DD	imagerel $unwind$?_Tidy_init@?$basic_string@DU?$char_traits@D@std@@V?$allocator@D@2@@std@@AEAAXXZ
pdata	ENDS
;	COMDAT pdata
pdata	SEGMENT
$pdata$?_Tidy_deallocate@?$basic_string@DU?$char_traits@D@std@@V?$allocator@D@2@@std@@AEAAXXZ DD imagerel $LN4
	DD	imagerel $LN4+214
	DD	imagerel $unwind$?_Tidy_deallocate@?$basic_string@DU?$char_traits@D@std@@V?$allocator@D@2@@std@@AEAAXXZ
pdata	ENDS
;	COMDAT pdata
pdata	SEGMENT
$pdata$?_Xlen@?$basic_string@DU?$char_traits@D@std@@V?$allocator@D@2@@std@@CAXXZ DD imagerel $LN3
	DD	imagerel $LN3+39
	DD	imagerel $unwind$?_Xlen@?$basic_string@DU?$char_traits@D@std@@V?$allocator@D@2@@std@@CAXXZ
pdata	ENDS
;	COMDAT pdata
pdata	SEGMENT
$pdata$?_Swap_proxy_and_iterators@?$basic_string@DU?$char_traits@D@std@@V?$allocator@D@2@@std@@AEAAXAEAV12@@Z DD imagerel $LN3
	DD	imagerel $LN3+59
	DD	imagerel $unwind$?_Swap_proxy_and_iterators@?$basic_string@DU?$char_traits@D@std@@V?$allocator@D@2@@std@@AEAAXAEAV12@@Z
pdata	ENDS
;	COMDAT pdata
pdata	SEGMENT
$pdata$?_Getal@?$basic_string@DU?$char_traits@D@std@@V?$allocator@D@2@@std@@AEAAAEAV?$allocator@D@2@XZ DD imagerel $LN3
	DD	imagerel $LN3+49
	DD	imagerel $unwind$?_Getal@?$basic_string@DU?$char_traits@D@std@@V?$allocator@D@2@@std@@AEAAAEAV?$allocator@D@2@XZ
pdata	ENDS
;	COMDAT pdata
pdata	SEGMENT
$pdata$?_Getal@?$basic_string@DU?$char_traits@D@std@@V?$allocator@D@2@@std@@AEBAAEBV?$allocator@D@2@XZ DD imagerel $LN3
	DD	imagerel $LN3+49
	DD	imagerel $unwind$?_Getal@?$basic_string@DU?$char_traits@D@std@@V?$allocator@D@2@@std@@AEBAAEBV?$allocator@D@2@XZ
pdata	ENDS
;	COMDAT pdata
pdata	SEGMENT
$pdata$?_Get_first@?$_Compressed_pair@V?$allocator@D@std@@V?$_String_val@U?$_Simple_types@D@std@@@2@$00@std@@QEAAAEAV?$allocator@D@2@XZ DD imagerel $LN3
	DD	imagerel $LN3+13
	DD	imagerel $unwind$?_Get_first@?$_Compressed_pair@V?$allocator@D@std@@V?$_String_val@U?$_Simple_types@D@std@@@2@$00@std@@QEAAAEAV?$allocator@D@2@XZ
pdata	ENDS
;	COMDAT pdata
pdata	SEGMENT
$pdata$?_Get_first@?$_Compressed_pair@V?$allocator@D@std@@V?$_String_val@U?$_Simple_types@D@std@@@2@$00@std@@QEBAAEBV?$allocator@D@2@XZ DD imagerel $LN3
	DD	imagerel $LN3+13
	DD	imagerel $unwind$?_Get_first@?$_Compressed_pair@V?$allocator@D@std@@V?$_String_val@U?$_Simple_types@D@std@@@2@$00@std@@QEBAAEBV?$allocator@D@2@XZ
pdata	ENDS
;	COMDAT pdata
pdata	SEGMENT
$pdata$??1?$_Compressed_pair@V?$allocator@D@std@@V?$_String_val@U?$_Simple_types@D@std@@@2@$00@std@@QEAA@XZ DD imagerel $LN4
	DD	imagerel $LN4+50
	DD	imagerel $unwind$??1?$_Compressed_pair@V?$allocator@D@std@@V?$_String_val@U?$_Simple_types@D@std@@@2@$00@std@@QEAA@XZ
pdata	ENDS
;	COMDAT pdata
pdata	SEGMENT
$pdata$?dtor$0@?0???1?$_Compressed_pair@V?$allocator@D@std@@V?$_String_val@U?$_Simple_types@D@std@@@2@$00@std@@QEAA@XZ@4HA DD imagerel ?dtor$0@?0???1?$_Compressed_pair@V?$allocator@D@std@@V?$_String_val@U?$_Simple_types@D@std@@@2@$00@std@@QEAA@XZ@4HA
	DD	imagerel ?dtor$0@?0???1?$_Compressed_pair@V?$allocator@D@std@@V?$_String_val@U?$_Simple_types@D@std@@@2@$00@std@@QEAA@XZ@4HA+35
	DD	imagerel $unwind$?dtor$0@?0???1?$_Compressed_pair@V?$allocator@D@std@@V?$_String_val@U?$_Simple_types@D@std@@@2@$00@std@@QEAA@XZ@4HA
pdata	ENDS
;	COMDAT pdata
pdata	SEGMENT
$pdata$??0bad_cast@std@@QEAA@XZ DD imagerel $LN4
	DD	imagerel $LN4+80
	DD	imagerel $unwind$??0bad_cast@std@@QEAA@XZ
pdata	ENDS
;	COMDAT pdata
pdata	SEGMENT
$pdata$?dtor$0@?0???0bad_cast@std@@QEAA@XZ@4HA DD imagerel ?dtor$0@?0???0bad_cast@std@@QEAA@XZ@4HA
	DD	imagerel ?dtor$0@?0???0bad_cast@std@@QEAA@XZ@4HA+35
	DD	imagerel $unwind$?dtor$0@?0???0bad_cast@std@@QEAA@XZ@4HA
pdata	ENDS
;	COMDAT pdata
pdata	SEGMENT
$pdata$??1bad_cast@std@@UEAA@XZ DD imagerel $LN4
	DD	imagerel $LN4+47
	DD	imagerel $unwind$??1bad_cast@std@@UEAA@XZ
pdata	ENDS
;	COMDAT pdata
pdata	SEGMENT
$pdata$?dtor$0@?0???1bad_cast@std@@UEAA@XZ@4HA DD imagerel ?dtor$0@?0???1bad_cast@std@@UEAA@XZ@4HA
	DD	imagerel ?dtor$0@?0???1bad_cast@std@@UEAA@XZ@4HA+35
	DD	imagerel $unwind$?dtor$0@?0???1bad_cast@std@@UEAA@XZ@4HA
pdata	ENDS
;	COMDAT pdata
pdata	SEGMENT
$pdata$??0bad_cast@std@@QEAA@AEBV01@@Z DD imagerel $LN4
	DD	imagerel $LN4+77
	DD	imagerel $unwind$??0bad_cast@std@@QEAA@AEBV01@@Z
pdata	ENDS
;	COMDAT pdata
pdata	SEGMENT
$pdata$?dtor$0@?0???0bad_cast@std@@QEAA@AEBV01@@Z@4HA DD imagerel ?dtor$0@?0???0bad_cast@std@@QEAA@AEBV01@@Z@4HA
	DD	imagerel ?dtor$0@?0???0bad_cast@std@@QEAA@AEBV01@@Z@4HA+35
	DD	imagerel $unwind$?dtor$0@?0???0bad_cast@std@@QEAA@AEBV01@@Z@4HA
pdata	ENDS
;	COMDAT pdata
pdata	SEGMENT
$pdata$??_Gbad_cast@std@@UEAAPEAXI@Z DD imagerel $LN4
	DD	imagerel $LN4+81
	DD	imagerel $unwind$??_Gbad_cast@std@@UEAAPEAXI@Z
pdata	ENDS
;	COMDAT pdata
pdata	SEGMENT
$pdata$?_Throw_bad_cast@std@@YAXXZ DD imagerel $LN3
	DD	imagerel $LN3+54
	DD	imagerel $unwind$?_Throw_bad_cast@std@@YAXXZ
pdata	ENDS
;	COMDAT pdata
pdata	SEGMENT
$pdata$??1locale@std@@QEAA@XZ DD imagerel $LN6
	DD	imagerel $LN6+121
	DD	imagerel $unwind$??1locale@std@@QEAA@XZ
pdata	ENDS
;	COMDAT pdata
pdata	SEGMENT
$pdata$?_Getfacet@locale@std@@QEBAPEBVfacet@12@_K@Z DD imagerel $LN8
	DD	imagerel $LN8+189
	DD	imagerel $unwind$?_Getfacet@locale@std@@QEBAPEBVfacet@12@_K@Z
pdata	ENDS
;	COMDAT pdata
pdata	SEGMENT
$pdata$??$_Maklocstr@_W@std@@YAPEA_WPEBDPEA_WAEBU_Cvtvec@@@Z DD imagerel $LN12
	DD	imagerel $LN12+557
	DD	imagerel $unwind$??$_Maklocstr@_W@std@@YAPEA_WPEBDPEA_WAEBU_Cvtvec@@@Z
pdata	ENDS
;	COMDAT pdata
pdata	SEGMENT
$pdata$?_Maklocwcs@std@@YAPEA_WPEB_W@Z DD imagerel $LN4
	DD	imagerel $LN4+135
	DD	imagerel $unwind$?_Maklocwcs@std@@YAPEA_WPEB_W@Z
pdata	ENDS
;	COMDAT pdata
pdata	SEGMENT
$pdata$??$_Fgetc@D@std@@YA_NAEADPEAU_iobuf@@@Z DD imagerel $LN5
	DD	imagerel $LN5+83
	DD	imagerel $unwind$??$_Fgetc@D@std@@YA_NAEADPEAU_iobuf@@@Z
pdata	ENDS
;	COMDAT pdata
pdata	SEGMENT
$pdata$??$_Fputc@D@std@@YA_NDPEAU_iobuf@@@Z DD imagerel $LN5
	DD	imagerel $LN5+86
	DD	imagerel $unwind$??$_Fputc@D@std@@YA_NDPEAU_iobuf@@@Z
pdata	ENDS
;	COMDAT pdata
pdata	SEGMENT
$pdata$??$_Ungetc@D@std@@YA_NAEBDPEAU_iobuf@@@Z DD imagerel $LN5
	DD	imagerel $LN5+90
	DD	imagerel $unwind$??$_Ungetc@D@std@@YA_NAEBDPEAU_iobuf@@@Z
pdata	ENDS
pdata	SEGMENT
$pdata$localtime DD imagerel localtime
	DD	imagerel localtime+47
	DD	imagerel $unwind$localtime
$pdata$time DD	imagerel time
	DD	imagerel time+47
	DD	imagerel $unwind$time
pdata	ENDS
;	COMDAT pdata
pdata	SEGMENT
$pdata$??$_Getvals@_W@?$time_get@DV?$istreambuf_iterator@DU?$char_traits@D@std@@@std@@@std@@IEAAX_WAEBV_Locinfo@1@@Z DD imagerel $LN5
	DD	imagerel $LN5+387
	DD	imagerel $unwind$??$_Getvals@_W@?$time_get@DV?$istreambuf_iterator@DU?$char_traits@D@std@@@std@@@std@@IEAAX_WAEBV_Locinfo@1@@Z
pdata	ENDS
;	COMDAT pdata
pdata	SEGMENT
$pdata$??$_Getvals@_W@?$time_get@_WV?$istreambuf_iterator@_WU?$char_traits@_W@std@@@std@@@std@@IEAAX_WAEBV_Locinfo@1@@Z DD imagerel $LN5
	DD	imagerel $LN5+387
	DD	imagerel $unwind$??$_Getvals@_W@?$time_get@_WV?$istreambuf_iterator@_WU?$char_traits@_W@std@@@std@@@std@@IEAAX_WAEBV_Locinfo@1@@Z
pdata	ENDS
;	COMDAT pdata
pdata	SEGMENT
$pdata$HRESULT_FROM_WIN32 DD imagerel $LN5
	DD	imagerel $LN5+74
	DD	imagerel $unwind$HRESULT_FROM_WIN32
pdata	ENDS
;	COMDAT pdata
pdata	SEGMENT
$pdata$_tcscmp DD imagerel $LN3
	DD	imagerel $LN3+57
	DD	imagerel $unwind$_tcscmp
pdata	ENDS
;	COMDAT pdata
pdata	SEGMENT
$pdata$??$make_array@W4CspMatrix@@W41@W41@W41@W41@W41@W41@W41@W41@W41@W41@W41@W41@W41@W41@@@YA?AV?$array@W4CspMatrix@@$0O@@std@@$$QEAW4CspMatrix@@0000000000000@Z DD imagerel $LN3
	DD	imagerel $LN3+297
	DD	imagerel $unwind$??$make_array@W4CspMatrix@@W41@W41@W41@W41@W41@W41@W41@W41@W41@W41@W41@W41@W41@W41@@@YA?AV?$array@W4CspMatrix@@$0O@@std@@$$QEAW4CspMatrix@@0000000000000@Z
pdata	ENDS
;	COMDAT pdata
pdata	SEGMENT
$pdata$??__ECspMatrixList@@YAXXZ DD imagerel ??__ECspMatrixList@@YAXXZ
	DD	imagerel ??__ECspMatrixList@@YAXXZ+452
	DD	imagerel $unwind$??__ECspMatrixList@@YAXXZ
pdata	ENDS
;	COMDAT pdata
pdata	SEGMENT
$pdata$??$make_array@W4CspTransfer@@W41@W41@W41@W41@W41@W41@W41@W41@W41@W41@W41@W41@W41@W41@W41@@@YA?AV?$array@W4CspTransfer@@$0P@@std@@$$QEAW4CspTransfer@@00000000000000@Z DD imagerel $LN3
	DD	imagerel $LN3+311
	DD	imagerel $unwind$??$make_array@W4CspTransfer@@W41@W41@W41@W41@W41@W41@W41@W41@W41@W41@W41@W41@W41@W41@W41@@@YA?AV?$array@W4CspTransfer@@$0P@@std@@$$QEAW4CspTransfer@@00000000000000@Z
pdata	ENDS
;	COMDAT pdata
pdata	SEGMENT
$pdata$??__ECspTransferList@@YAXXZ DD imagerel ??__ECspTransferList@@YAXXZ
	DD	imagerel ??__ECspTransferList@@YAXXZ+476
	DD	imagerel $unwind$??__ECspTransferList@@YAXXZ
pdata	ENDS
;	COMDAT pdata
pdata	SEGMENT
$pdata$??$make_array@W4CspColorprim@@W41@W41@W41@W41@W41@W41@W41@W41@W41@W41@W41@W41@@@YA?AV?$array@W4CspColorprim@@$0M@@std@@$$QEAW4CspColorprim@@00000000000@Z DD imagerel $LN3
	DD	imagerel $LN3+263
	DD	imagerel $unwind$??$make_array@W4CspColorprim@@W41@W41@W41@W41@W41@W41@W41@W41@W41@W41@W41@W41@@@YA?AV?$array@W4CspColorprim@@$0M@@std@@$$QEAW4CspColorprim@@00000000000@Z
pdata	ENDS
;	COMDAT pdata
pdata	SEGMENT
$pdata$??__ECspColorprimList@@YAXXZ DD imagerel ??__ECspColorprimList@@YAXXZ
	DD	imagerel ??__ECspColorprimList@@YAXXZ+398
	DD	imagerel $unwind$??__ECspColorprimList@@YAXXZ
pdata	ENDS
;	COMDAT pdata
pdata	SEGMENT
$pdata$??$?HDU?$char_traits@D@std@@V?$allocator@D@1@@std@@YA?AV?$basic_string@DU?$char_traits@D@std@@V?$allocator@D@2@@0@AEBV10@QEBD@Z DD imagerel $LN6
	DD	imagerel $LN6+270
	DD	imagerel $unwind$??$?HDU?$char_traits@D@std@@V?$allocator@D@1@@std@@YA?AV?$basic_string@DU?$char_traits@D@std@@V?$allocator@D@2@@0@AEBV10@QEBD@Z
pdata	ENDS
;	COMDAT pdata
pdata	SEGMENT
$pdata$?dtor$0@?0???$?HDU?$char_traits@D@std@@V?$allocator@D@1@@std@@YA?AV?$basic_string@DU?$char_traits@D@std@@V?$allocator@D@2@@0@AEBV10@QEBD@Z@4HA DD imagerel ?dtor$0@?0???$?HDU?$char_traits@D@std@@V?$allocator@D@1@@std@@YA?AV?$basic_string@DU?$char_traits@D@std@@V?$allocator@D@2@@0@AEBV10@QEBD@Z@4HA
	DD	imagerel ?dtor$0@?0???$?HDU?$char_traits@D@std@@V?$allocator@D@1@@std@@YA?AV?$basic_string@DU?$char_traits@D@std@@V?$allocator@D@2@@0@AEBV10@QEBD@Z@4HA+35
	DD	imagerel $unwind$?dtor$0@?0???$?HDU?$char_traits@D@std@@V?$allocator@D@1@@std@@YA?AV?$basic_string@DU?$char_traits@D@std@@V?$allocator@D@2@@0@AEBV10@QEBD@Z@4HA
pdata	ENDS
;	COMDAT pdata
pdata	SEGMENT
$pdata$?dtor$1@?0???$?HDU?$char_traits@D@std@@V?$allocator@D@1@@std@@YA?AV?$basic_string@DU?$char_traits@D@std@@V?$allocator@D@2@@0@AEBV10@QEBD@Z@4HA DD imagerel ?dtor$1@?0???$?HDU?$char_traits@D@std@@V?$allocator@D@1@@std@@YA?AV?$basic_string@DU?$char_traits@D@std@@V?$allocator@D@2@@0@AEBV10@QEBD@Z@4HA
	DD	imagerel ?dtor$1@?0???$?HDU?$char_traits@D@std@@V?$allocator@D@1@@std@@YA?AV?$basic_string@DU?$char_traits@D@std@@V?$allocator@D@2@@0@AEBV10@QEBD@Z@4HA+52
	DD	imagerel $unwind$?dtor$1@?0???$?HDU?$char_traits@D@std@@V?$allocator@D@1@@std@@YA?AV?$basic_string@DU?$char_traits@D@std@@V?$allocator@D@2@@0@AEBV10@QEBD@Z@4HA
pdata	ENDS
;	COMDAT pdata
pdata	SEGMENT
$pdata$??$?0HH$0A@@?$pair@HH@std@@QEAA@XZ DD imagerel $LN3
	DD	imagerel $LN3+36
	DD	imagerel $unwind$??$?0HH$0A@@?$pair@HH@std@@QEAA@XZ
pdata	ENDS
;	COMDAT pdata
pdata	SEGMENT
$pdata$??$?4U?$pair@HH@std@@$0A@@?$pair@HH@std@@QEAAAEAU01@AEBU01@@Z DD imagerel $LN3
	DD	imagerel $LN3+48
	DD	imagerel $unwind$??$?4U?$pair@HH@std@@$0A@@?$pair@HH@std@@QEAAAEAU01@AEBU01@@Z
pdata	ENDS
;	COMDAT pdata
pdata	SEGMENT
$pdata$?Allocate@CCRTAllocator@ATL@@SAPEAX_K@Z DD imagerel $LN3
	DD	imagerel $LN3+47
	DD	imagerel $unwind$?Allocate@CCRTAllocator@ATL@@SAPEAX_K@Z
pdata	ENDS
;	COMDAT pdata
pdata	SEGMENT
$pdata$?Free@CCRTAllocator@ATL@@SAXPEAX@Z DD imagerel $LN3
	DD	imagerel $LN3+47
	DD	imagerel $unwind$?Free@CCRTAllocator@ATL@@SAXPEAX@Z
pdata	ENDS
;	COMDAT pdata
pdata	SEGMENT
$pdata$??0?$CTraceCategoryEx@$0IAAAA@$0A@@ATL@@QEAA@PEBD@Z DD imagerel $LN3
	DD	imagerel $LN3+61
	DD	imagerel $unwind$??0?$CTraceCategoryEx@$0IAAAA@$0A@@ATL@@QEAA@PEBD@Z
pdata	ENDS
;	COMDAT pdata
pdata	SEGMENT
$pdata$??0?$CTraceCategoryEx@$00$0A@@ATL@@QEAA@PEBD@Z DD imagerel $LN3
	DD	imagerel $LN3+61
	DD	imagerel $unwind$??0?$CTraceCategoryEx@$00$0A@@ATL@@QEAA@PEBD@Z
pdata	ENDS
;	COMDAT pdata
pdata	SEGMENT
$pdata$??__EatlTraceGeneral@ATL@@YAXXZ DD imagerel ??__EatlTraceGeneral@ATL@@YAXXZ
	DD	imagerel ??__EatlTraceGeneral@ATL@@YAXXZ+46
	DD	imagerel $unwind$??__EatlTraceGeneral@ATL@@YAXXZ
pdata	ENDS
;	COMDAT pdata
pdata	SEGMENT
$pdata$??0?$CTraceCategoryEx@$01$0A@@ATL@@QEAA@PEBD@Z DD imagerel $LN3
	DD	imagerel $LN3+61
	DD	imagerel $unwind$??0?$CTraceCategoryEx@$01$0A@@ATL@@QEAA@PEBD@Z
pdata	ENDS
;	COMDAT pdata
pdata	SEGMENT
$pdata$??B?$CTraceCategoryEx@$01$0A@@ATL@@QEAAIXZ DD imagerel $LN3
	DD	imagerel $LN3+13
	DD	imagerel $unwind$??B?$CTraceCategoryEx@$01$0A@@ATL@@QEAAIXZ
pdata	ENDS
;	COMDAT pdata
pdata	SEGMENT
$pdata$??__EatlTraceCOM@ATL@@YAXXZ DD imagerel ??__EatlTraceCOM@ATL@@YAXXZ
	DD	imagerel ??__EatlTraceCOM@ATL@@YAXXZ+46
	DD	imagerel $unwind$??__EatlTraceCOM@ATL@@YAXXZ
pdata	ENDS
;	COMDAT pdata
pdata	SEGMENT
$pdata$??0?$CTraceCategoryEx@$03$0A@@ATL@@QEAA@PEBD@Z DD imagerel $LN3
	DD	imagerel $LN3+61
	DD	imagerel $unwind$??0?$CTraceCategoryEx@$03$0A@@ATL@@QEAA@PEBD@Z
pdata	ENDS
;	COMDAT pdata
pdata	SEGMENT
$pdata$??__EatlTraceQI@ATL@@YAXXZ DD imagerel ??__EatlTraceQI@ATL@@YAXXZ
	DD	imagerel ??__EatlTraceQI@ATL@@YAXXZ+46
	DD	imagerel $unwind$??__EatlTraceQI@ATL@@YAXXZ
pdata	ENDS
;	COMDAT pdata
pdata	SEGMENT
$pdata$??0?$CTraceCategoryEx@$07$0A@@ATL@@QEAA@PEBD@Z DD imagerel $LN3
	DD	imagerel $LN3+61
	DD	imagerel $unwind$??0?$CTraceCategoryEx@$07$0A@@ATL@@QEAA@PEBD@Z
pdata	ENDS
;	COMDAT pdata
pdata	SEGMENT
$pdata$??__EatlTraceRegistrar@ATL@@YAXXZ DD imagerel ??__EatlTraceRegistrar@ATL@@YAXXZ
	DD	imagerel ??__EatlTraceRegistrar@ATL@@YAXXZ+46
	DD	imagerel $unwind$??__EatlTraceRegistrar@ATL@@YAXXZ
pdata	ENDS
;	COMDAT pdata
pdata	SEGMENT
$pdata$??0?$CTraceCategoryEx@$0BA@$0A@@ATL@@QEAA@PEBD@Z DD imagerel $LN3
	DD	imagerel $LN3+61
	DD	imagerel $unwind$??0?$CTraceCategoryEx@$0BA@$0A@@ATL@@QEAA@PEBD@Z
pdata	ENDS
;	COMDAT pdata
pdata	SEGMENT
$pdata$??__EatlTraceRefcount@ATL@@YAXXZ DD imagerel ??__EatlTraceRefcount@ATL@@YAXXZ
	DD	imagerel ??__EatlTraceRefcount@ATL@@YAXXZ+46
	DD	imagerel $unwind$??__EatlTraceRefcount@ATL@@YAXXZ
pdata	ENDS
;	COMDAT pdata
pdata	SEGMENT
$pdata$??0?$CTraceCategoryEx@$0CA@$0A@@ATL@@QEAA@PEBD@Z DD imagerel $LN3
	DD	imagerel $LN3+61
	DD	imagerel $unwind$??0?$CTraceCategoryEx@$0CA@$0A@@ATL@@QEAA@PEBD@Z
pdata	ENDS
;	COMDAT pdata
pdata	SEGMENT
$pdata$??B?$CTraceCategoryEx@$0CA@$0A@@ATL@@QEAAIXZ DD imagerel $LN3
	DD	imagerel $LN3+13
	DD	imagerel $unwind$??B?$CTraceCategoryEx@$0CA@$0A@@ATL@@QEAAIXZ
pdata	ENDS
;	COMDAT pdata
pdata	SEGMENT
$pdata$??__EatlTraceWindowing@ATL@@YAXXZ DD imagerel ??__EatlTraceWindowing@ATL@@YAXXZ
	DD	imagerel ??__EatlTraceWindowing@ATL@@YAXXZ+46
	DD	imagerel $unwind$??__EatlTraceWindowing@ATL@@YAXXZ
pdata	ENDS
;	COMDAT pdata
pdata	SEGMENT
$pdata$??0?$CTraceCategoryEx@$0EA@$0A@@ATL@@QEAA@PEBD@Z DD imagerel $LN3
	DD	imagerel $LN3+61
	DD	imagerel $unwind$??0?$CTraceCategoryEx@$0EA@$0A@@ATL@@QEAA@PEBD@Z
pdata	ENDS
;	COMDAT pdata
pdata	SEGMENT
$pdata$??__EatlTraceControls@ATL@@YAXXZ DD imagerel ??__EatlTraceControls@ATL@@YAXXZ
	DD	imagerel ??__EatlTraceControls@ATL@@YAXXZ+46
	DD	imagerel $unwind$??__EatlTraceControls@ATL@@YAXXZ
pdata	ENDS
;	COMDAT pdata
pdata	SEGMENT
$pdata$??0?$CTraceCategoryEx@$0IA@$0A@@ATL@@QEAA@PEBD@Z DD imagerel $LN3
	DD	imagerel $LN3+61
	DD	imagerel $unwind$??0?$CTraceCategoryEx@$0IA@$0A@@ATL@@QEAA@PEBD@Z
pdata	ENDS
;	COMDAT pdata
pdata	SEGMENT
$pdata$??__EatlTraceHosting@ATL@@YAXXZ DD imagerel ??__EatlTraceHosting@ATL@@YAXXZ
	DD	imagerel ??__EatlTraceHosting@ATL@@YAXXZ+46
	DD	imagerel $unwind$??__EatlTraceHosting@ATL@@YAXXZ
pdata	ENDS
;	COMDAT pdata
pdata	SEGMENT
$pdata$??0?$CTraceCategoryEx@$0BAA@$0A@@ATL@@QEAA@PEBD@Z DD imagerel $LN3
	DD	imagerel $LN3+61
	DD	imagerel $unwind$??0?$CTraceCategoryEx@$0BAA@$0A@@ATL@@QEAA@PEBD@Z
pdata	ENDS
;	COMDAT pdata
pdata	SEGMENT
$pdata$??__EatlTraceDBClient@ATL@@YAXXZ DD imagerel ??__EatlTraceDBClient@ATL@@YAXXZ
	DD	imagerel ??__EatlTraceDBClient@ATL@@YAXXZ+46
	DD	imagerel $unwind$??__EatlTraceDBClient@ATL@@YAXXZ
pdata	ENDS
;	COMDAT pdata
pdata	SEGMENT
$pdata$??0?$CTraceCategoryEx@$0CAA@$0A@@ATL@@QEAA@PEBD@Z DD imagerel $LN3
	DD	imagerel $LN3+61
	DD	imagerel $unwind$??0?$CTraceCategoryEx@$0CAA@$0A@@ATL@@QEAA@PEBD@Z
pdata	ENDS
;	COMDAT pdata
pdata	SEGMENT
$pdata$??__EatlTraceDBProvider@ATL@@YAXXZ DD imagerel ??__EatlTraceDBProvider@ATL@@YAXXZ
	DD	imagerel ??__EatlTraceDBProvider@ATL@@YAXXZ+46
	DD	imagerel $unwind$??__EatlTraceDBProvider@ATL@@YAXXZ
pdata	ENDS
;	COMDAT pdata
pdata	SEGMENT
$pdata$??0?$CTraceCategoryEx@$0EAA@$0A@@ATL@@QEAA@PEBD@Z DD imagerel $LN3
	DD	imagerel $LN3+61
	DD	imagerel $unwind$??0?$CTraceCategoryEx@$0EAA@$0A@@ATL@@QEAA@PEBD@Z
pdata	ENDS
;	COMDAT pdata
pdata	SEGMENT
$pdata$??__EatlTraceSnapin@ATL@@YAXXZ DD imagerel ??__EatlTraceSnapin@ATL@@YAXXZ
	DD	imagerel ??__EatlTraceSnapin@ATL@@YAXXZ+46
	DD	imagerel $unwind$??__EatlTraceSnapin@ATL@@YAXXZ
pdata	ENDS
;	COMDAT pdata
pdata	SEGMENT
$pdata$??0?$CTraceCategoryEx@$0IAA@$0A@@ATL@@QEAA@PEBD@Z DD imagerel $LN3
	DD	imagerel $LN3+61
	DD	imagerel $unwind$??0?$CTraceCategoryEx@$0IAA@$0A@@ATL@@QEAA@PEBD@Z
pdata	ENDS
;	COMDAT pdata
pdata	SEGMENT
$pdata$??__EatlTraceNotImpl@ATL@@YAXXZ DD imagerel ??__EatlTraceNotImpl@ATL@@YAXXZ
	DD	imagerel ??__EatlTraceNotImpl@ATL@@YAXXZ+46
	DD	imagerel $unwind$??__EatlTraceNotImpl@ATL@@YAXXZ
pdata	ENDS
;	COMDAT pdata
pdata	SEGMENT
$pdata$??0?$CTraceCategoryEx@$0BAAA@$0A@@ATL@@QEAA@PEBD@Z DD imagerel $LN3
	DD	imagerel $LN3+61
	DD	imagerel $unwind$??0?$CTraceCategoryEx@$0BAAA@$0A@@ATL@@QEAA@PEBD@Z
pdata	ENDS
;	COMDAT pdata
pdata	SEGMENT
$pdata$??__EatlTraceAllocation@ATL@@YAXXZ DD imagerel ??__EatlTraceAllocation@ATL@@YAXXZ
	DD	imagerel ??__EatlTraceAllocation@ATL@@YAXXZ+46
	DD	imagerel $unwind$??__EatlTraceAllocation@ATL@@YAXXZ
pdata	ENDS
;	COMDAT pdata
pdata	SEGMENT
$pdata$??0?$CTraceCategoryEx@$0CAAA@$0A@@ATL@@QEAA@PEBD@Z DD imagerel $LN3
	DD	imagerel $LN3+61
	DD	imagerel $unwind$??0?$CTraceCategoryEx@$0CAAA@$0A@@ATL@@QEAA@PEBD@Z
pdata	ENDS
;	COMDAT pdata
pdata	SEGMENT
$pdata$??__EatlTraceException@ATL@@YAXXZ DD imagerel ??__EatlTraceException@ATL@@YAXXZ
	DD	imagerel ??__EatlTraceException@ATL@@YAXXZ+46
	DD	imagerel $unwind$??__EatlTraceException@ATL@@YAXXZ
pdata	ENDS
;	COMDAT pdata
pdata	SEGMENT
$pdata$??0?$CTraceCategoryEx@$0EAAA@$0A@@ATL@@QEAA@PEBD@Z DD imagerel $LN3
	DD	imagerel $LN3+61
	DD	imagerel $unwind$??0?$CTraceCategoryEx@$0EAAA@$0A@@ATL@@QEAA@PEBD@Z
pdata	ENDS
;	COMDAT pdata
pdata	SEGMENT
$pdata$??__EatlTraceTime@ATL@@YAXXZ DD imagerel ??__EatlTraceTime@ATL@@YAXXZ
	DD	imagerel ??__EatlTraceTime@ATL@@YAXXZ+46
	DD	imagerel $unwind$??__EatlTraceTime@ATL@@YAXXZ
pdata	ENDS
;	COMDAT pdata
pdata	SEGMENT
$pdata$??0?$CTraceCategoryEx@$0IAAA@$0A@@ATL@@QEAA@PEBD@Z DD imagerel $LN3
	DD	imagerel $LN3+61
	DD	imagerel $unwind$??0?$CTraceCategoryEx@$0IAAA@$0A@@ATL@@QEAA@PEBD@Z
pdata	ENDS
;	COMDAT pdata
pdata	SEGMENT
$pdata$??__EatlTraceCache@ATL@@YAXXZ DD imagerel ??__EatlTraceCache@ATL@@YAXXZ
	DD	imagerel ??__EatlTraceCache@ATL@@YAXXZ+46
	DD	imagerel $unwind$??__EatlTraceCache@ATL@@YAXXZ
pdata	ENDS
;	COMDAT pdata
pdata	SEGMENT
$pdata$??0?$CTraceCategoryEx@$0BAAAA@$0A@@ATL@@QEAA@PEBD@Z DD imagerel $LN3
	DD	imagerel $LN3+61
	DD	imagerel $unwind$??0?$CTraceCategoryEx@$0BAAAA@$0A@@ATL@@QEAA@PEBD@Z
pdata	ENDS
;	COMDAT pdata
pdata	SEGMENT
$pdata$??__EatlTraceStencil@ATL@@YAXXZ DD imagerel ??__EatlTraceStencil@ATL@@YAXXZ
	DD	imagerel ??__EatlTraceStencil@ATL@@YAXXZ+46
	DD	imagerel $unwind$??__EatlTraceStencil@ATL@@YAXXZ
pdata	ENDS
;	COMDAT pdata
pdata	SEGMENT
$pdata$??0?$CTraceCategoryEx@$0CAAAA@$0A@@ATL@@QEAA@PEBD@Z DD imagerel $LN3
	DD	imagerel $LN3+61
	DD	imagerel $unwind$??0?$CTraceCategoryEx@$0CAAAA@$0A@@ATL@@QEAA@PEBD@Z
pdata	ENDS
;	COMDAT pdata
pdata	SEGMENT
$pdata$??__EatlTraceString@ATL@@YAXXZ DD imagerel ??__EatlTraceString@ATL@@YAXXZ
	DD	imagerel ??__EatlTraceString@ATL@@YAXXZ+46
	DD	imagerel $unwind$??__EatlTraceString@ATL@@YAXXZ
pdata	ENDS
;	COMDAT pdata
pdata	SEGMENT
$pdata$??0?$CTraceCategoryEx@$0EAAAA@$0A@@ATL@@QEAA@PEBD@Z DD imagerel $LN3
	DD	imagerel $LN3+61
	DD	imagerel $unwind$??0?$CTraceCategoryEx@$0EAAAA@$0A@@ATL@@QEAA@PEBD@Z
pdata	ENDS
;	COMDAT pdata
pdata	SEGMENT
$pdata$??__EatlTraceMap@ATL@@YAXXZ DD imagerel ??__EatlTraceMap@ATL@@YAXXZ
	DD	imagerel ??__EatlTraceMap@ATL@@YAXXZ+46
	DD	imagerel $unwind$??__EatlTraceMap@ATL@@YAXXZ
pdata	ENDS
;	COMDAT pdata
pdata	SEGMENT
$pdata$??__EatlTraceUtil@ATL@@YAXXZ DD imagerel ??__EatlTraceUtil@ATL@@YAXXZ
	DD	imagerel ??__EatlTraceUtil@ATL@@YAXXZ+46
	DD	imagerel $unwind$??__EatlTraceUtil@ATL@@YAXXZ
pdata	ENDS
;	COMDAT pdata
pdata	SEGMENT
$pdata$??0?$CTraceCategoryEx@$0BAAAAA@$0A@@ATL@@QEAA@PEBD@Z DD imagerel $LN3
	DD	imagerel $LN3+61
	DD	imagerel $unwind$??0?$CTraceCategoryEx@$0BAAAAA@$0A@@ATL@@QEAA@PEBD@Z
pdata	ENDS
;	COMDAT pdata
pdata	SEGMENT
$pdata$??__EatlTraceSecurity@ATL@@YAXXZ DD imagerel ??__EatlTraceSecurity@ATL@@YAXXZ
	DD	imagerel ??__EatlTraceSecurity@ATL@@YAXXZ+46
	DD	imagerel $unwind$??__EatlTraceSecurity@ATL@@YAXXZ
pdata	ENDS
;	COMDAT pdata
pdata	SEGMENT
$pdata$??0?$CTraceCategoryEx@$0CAAAAA@$0A@@ATL@@QEAA@PEBD@Z DD imagerel $LN3
	DD	imagerel $LN3+61
	DD	imagerel $unwind$??0?$CTraceCategoryEx@$0CAAAAA@$0A@@ATL@@QEAA@PEBD@Z
pdata	ENDS
;	COMDAT pdata
pdata	SEGMENT
$pdata$??__EatlTraceSync@ATL@@YAXXZ DD imagerel ??__EatlTraceSync@ATL@@YAXXZ
	DD	imagerel ??__EatlTraceSync@ATL@@YAXXZ+46
	DD	imagerel $unwind$??__EatlTraceSync@ATL@@YAXXZ
pdata	ENDS
;	COMDAT pdata
pdata	SEGMENT
$pdata$??0?$CTraceCategoryEx@$0EAAAAA@$0A@@ATL@@QEAA@PEBD@Z DD imagerel $LN3
	DD	imagerel $LN3+61
	DD	imagerel $unwind$??0?$CTraceCategoryEx@$0EAAAAA@$0A@@ATL@@QEAA@PEBD@Z
pdata	ENDS
;	COMDAT pdata
pdata	SEGMENT
$pdata$??__EatlTraceISAPI@ATL@@YAXXZ DD imagerel ??__EatlTraceISAPI@ATL@@YAXXZ
	DD	imagerel ??__EatlTraceISAPI@ATL@@YAXXZ+46
	DD	imagerel $unwind$??__EatlTraceISAPI@ATL@@YAXXZ
pdata	ENDS
;	COMDAT pdata
pdata	SEGMENT
$pdata$?GetCategoryName@CTrace@ATL@@CAPEA_WI@Z DD imagerel $LN7
	DD	imagerel $LN7+116
	DD	imagerel $unwind$?GetCategoryName@CTrace@ATL@@CAPEA_WI@Z
pdata	ENDS
;	COMDAT pdata
pdata	SEGMENT
$pdata$?TraceV@CTrace@ATL@@CAXPEBDHIIPEB_W@Z DD imagerel $LN13
	DD	imagerel $LN13+686
	DD	imagerel $unwind$?TraceV@CTrace@ATL@@CAXPEBDHIIPEB_W@Z
pdata	ENDS
;	COMDAT pdata
pdata	SEGMENT
$pdata$?dtor$0@?0??TraceV@CTrace@ATL@@CAXPEBDHIIPEB_W@Z@4HA DD imagerel ?dtor$0@?0??TraceV@CTrace@ATL@@CAXPEBDHIIPEB_W@Z@4HA
	DD	imagerel ?dtor$0@?0??TraceV@CTrace@ATL@@CAXPEBDHIIPEB_W@Z@4HA+38
	DD	imagerel $unwind$?dtor$0@?0??TraceV@CTrace@ATL@@CAXPEBDHIIPEB_W@Z@4HA
pdata	ENDS
;	COMDAT pdata
pdata	SEGMENT
$pdata$?TraceV@CTrace@ATL@@SAXPEBDHII0PEAD@Z DD imagerel $LN10
	DD	imagerel $LN10+567
	DD	imagerel $unwind$?TraceV@CTrace@ATL@@SAXPEBDHII0PEAD@Z
pdata	ENDS
;	COMDAT pdata
pdata	SEGMENT
$pdata$?dtor$0@?0??TraceV@CTrace@ATL@@SAXPEBDHII0PEAD@Z@4HA DD imagerel ?dtor$0@?0??TraceV@CTrace@ATL@@SAXPEBDHII0PEAD@Z@4HA
	DD	imagerel ?dtor$0@?0??TraceV@CTrace@ATL@@SAXPEBDHII0PEAD@Z@4HA+35
	DD	imagerel $unwind$?dtor$0@?0??TraceV@CTrace@ATL@@SAXPEBDHII0PEAD@Z@4HA
pdata	ENDS
;	COMDAT pdata
pdata	SEGMENT
$pdata$?dtor$1@?0??TraceV@CTrace@ATL@@SAXPEBDHII0PEAD@Z@4HA DD imagerel ?dtor$1@?0??TraceV@CTrace@ATL@@SAXPEBDHII0PEAD@Z@4HA
	DD	imagerel ?dtor$1@?0??TraceV@CTrace@ATL@@SAXPEBDHII0PEAD@Z@4HA+35
	DD	imagerel $unwind$?dtor$1@?0??TraceV@CTrace@ATL@@SAXPEBDHII0PEAD@Z@4HA
pdata	ENDS
;	COMDAT pdata
pdata	SEGMENT
$pdata$?RegisterCategory@CTrace@ATL@@SAXPEBDI@Z DD imagerel $LN6
	DD	imagerel $LN6+328
	DD	imagerel $unwind$?RegisterCategory@CTrace@ATL@@SAXPEBDI@Z
pdata	ENDS
;	COMDAT pdata
pdata	SEGMENT
$pdata$??0?$CHeapPtrBase@_WVCCRTAllocator@ATL@@@ATL@@IEAA@XZ DD imagerel $LN3
	DD	imagerel $LN3+25
	DD	imagerel $unwind$??0?$CHeapPtrBase@_WVCCRTAllocator@ATL@@@ATL@@IEAA@XZ
pdata	ENDS
;	COMDAT pdata
pdata	SEGMENT
$pdata$??1?$CHeapPtrBase@_WVCCRTAllocator@ATL@@@ATL@@QEAA@XZ DD imagerel $LN3
	DD	imagerel $LN3+46
	DD	imagerel $unwind$??1?$CHeapPtrBase@_WVCCRTAllocator@ATL@@@ATL@@QEAA@XZ
pdata	ENDS
;	COMDAT pdata
pdata	SEGMENT
$pdata$??B?$CHeapPtrBase@_WVCCRTAllocator@ATL@@@ATL@@QEBAPEA_WXZ DD imagerel $LN3
	DD	imagerel $LN3+16
	DD	imagerel $unwind$??B?$CHeapPtrBase@_WVCCRTAllocator@ATL@@@ATL@@QEBAPEA_WXZ
pdata	ENDS
;	COMDAT pdata
pdata	SEGMENT
$pdata$?AllocateBytes@?$CHeapPtrBase@_WVCCRTAllocator@ATL@@@ATL@@QEAA_N_K@Z DD imagerel $LN5
	DD	imagerel $LN5+146
	DD	imagerel $unwind$?AllocateBytes@?$CHeapPtrBase@_WVCCRTAllocator@ATL@@@ATL@@QEAA_N_K@Z
pdata	ENDS
;	COMDAT pdata
pdata	SEGMENT
$pdata$?Free@?$CHeapPtrBase@_WVCCRTAllocator@ATL@@@ATL@@QEAAXXZ DD imagerel $LN3
	DD	imagerel $LN3+61
	DD	imagerel $unwind$?Free@?$CHeapPtrBase@_WVCCRTAllocator@ATL@@@ATL@@QEAAXXZ
pdata	ENDS
;	COMDAT pdata
pdata	SEGMENT
$pdata$??0?$CHeapPtr@_WVCCRTAllocator@ATL@@@ATL@@QEAA@XZ DD imagerel $LN4
	DD	imagerel $LN4+52
	DD	imagerel $unwind$??0?$CHeapPtr@_WVCCRTAllocator@ATL@@@ATL@@QEAA@XZ
pdata	ENDS
;	COMDAT pdata
pdata	SEGMENT
$pdata$?dtor$0@?0???0?$CHeapPtr@_WVCCRTAllocator@ATL@@@ATL@@QEAA@XZ@4HA DD imagerel ?dtor$0@?0???0?$CHeapPtr@_WVCCRTAllocator@ATL@@@ATL@@QEAA@XZ@4HA
	DD	imagerel ?dtor$0@?0???0?$CHeapPtr@_WVCCRTAllocator@ATL@@@ATL@@QEAA@XZ@4HA+35
	DD	imagerel $unwind$?dtor$0@?0???0?$CHeapPtr@_WVCCRTAllocator@ATL@@@ATL@@QEAA@XZ@4HA
pdata	ENDS
;	COMDAT pdata
pdata	SEGMENT
$pdata$?Allocate@?$CHeapPtr@_WVCCRTAllocator@ATL@@@ATL@@QEAA_N_K@Z DD imagerel $LN4
	DD	imagerel $LN4+115
	DD	imagerel $unwind$?Allocate@?$CHeapPtr@_WVCCRTAllocator@ATL@@@ATL@@QEAA_N_K@Z
pdata	ENDS
;	COMDAT pdata
pdata	SEGMENT
$pdata$??1?$CHeapPtr@_WVCCRTAllocator@ATL@@@ATL@@QEAA@XZ DD imagerel $LN4
	DD	imagerel $LN4+47
	DD	imagerel $unwind$??1?$CHeapPtr@_WVCCRTAllocator@ATL@@@ATL@@QEAA@XZ
pdata	ENDS
;	COMDAT pdata
pdata	SEGMENT
$pdata$?dtor$0@?0???1?$CHeapPtr@_WVCCRTAllocator@ATL@@@ATL@@QEAA@XZ@4HA DD imagerel ?dtor$0@?0???1?$CHeapPtr@_WVCCRTAllocator@ATL@@@ATL@@QEAA@XZ@4HA
	DD	imagerel ?dtor$0@?0???1?$CHeapPtr@_WVCCRTAllocator@ATL@@@ATL@@QEAA@XZ@4HA+35
	DD	imagerel $unwind$?dtor$0@?0???1?$CHeapPtr@_WVCCRTAllocator@ATL@@@ATL@@QEAA@XZ@4HA
pdata	ENDS
;	COMDAT pdata
pdata	SEGMENT
$pdata$??0?$CHeapPtrBase@DVCCRTAllocator@ATL@@@ATL@@IEAA@XZ DD imagerel $LN3
	DD	imagerel $LN3+25
	DD	imagerel $unwind$??0?$CHeapPtrBase@DVCCRTAllocator@ATL@@@ATL@@IEAA@XZ
pdata	ENDS
;	COMDAT pdata
pdata	SEGMENT
$pdata$??1?$CHeapPtrBase@DVCCRTAllocator@ATL@@@ATL@@QEAA@XZ DD imagerel $LN3
	DD	imagerel $LN3+46
