; Listing generated by Microsoft (R) Optimizing Compiler Version 19.23.28106.4 

include listing.inc

INCLUDELIB MSVCRTD
INCLUDELIB OLDNAMES

CONST	SEGMENT
$SG116186 DB	'Module:%s Hint:%d, Name:%s', 0aH, 00H
$SG119785 DB	'%s', 00H
	ORG $+1
$SG119784 DB	'invalid argument', 00H
	ORG $+15
$SG119786 DB	'C:\Program Files (x86)\Microsoft Visual Studio\2019\Comm'
	DB	'unity\VC\Tools\MSVC\14.23.28105\include\xmemory', 00H
	ORG $+8
$SG119787 DB	'C', 00H, ':', 00H, '\', 00H, 'P', 00H, 'r', 00H, 'o', 00H
	DB	'g', 00H, 'r', 00H, 'a', 00H, 'm', 00H, ' ', 00H, 'F', 00H, 'i'
	DB	00H, 'l', 00H, 'e', 00H, 's', 00H, ' ', 00H, '(', 00H, 'x', 00H
	DB	'8', 00H, '6', 00H, ')', 00H, '\', 00H, 'M', 00H, 'i', 00H, 'c'
	DB	00H, 'r', 00H, 'o', 00H, 's', 00H, 'o', 00H, 'f', 00H, 't', 00H
	DB	' ', 00H, 'V', 00H, 'i', 00H, 's', 00H, 'u', 00H, 'a', 00H, 'l'
	DB	00H, ' ', 00H, 'S', 00H, 't', 00H, 'u', 00H, 'd', 00H, 'i', 00H
	DB	'o', 00H, '\', 00H, '2', 00H, '0', 00H, '1', 00H, '9', 00H, '\'
	DB	00H, 'C', 00H, 'o', 00H, 'm', 00H, 'm', 00H, 'u', 00H, 'n', 00H
	DB	'i', 00H, 't', 00H, 'y', 00H, '\', 00H, 'V', 00H, 'C', 00H, '\'
	DB	00H, 'T', 00H, 'o', 00H, 'o', 00H, 'l', 00H, 's', 00H, '\', 00H
	DB	'M', 00H, 'S', 00H, 'V', 00H, 'C', 00H, '\', 00H, '1', 00H, '4'
	DB	00H, '.', 00H, '2', 00H, '3', 00H, '.', 00H, '2', 00H, '8', 00H
	DB	'1', 00H, '0', 00H, '5', 00H, '\', 00H, 'i', 00H, 'n', 00H, 'c'
	DB	00H, 'l', 00H, 'u', 00H, 'd', 00H, 'e', 00H, '\', 00H, 'x', 00H
	DB	'm', 00H, 'e', 00H, 'm', 00H, 'o', 00H, 'r', 00H, 'y', 00H, 00H
	DB	00H
$SG119788 DB	's', 00H, 't', 00H, 'd', 00H, ':', 00H, ':', 00H, '_', 00H
	DB	'A', 00H, 'l', 00H, 'l', 00H, 'o', 00H, 'c', 00H, 'a', 00H, 't'
	DB	00H, 'e', 00H, '_', 00H, 'm', 00H, 'a', 00H, 'n', 00H, 'u', 00H
	DB	'a', 00H, 'l', 00H, 'l', 00H, 'y', 00H, '_', 00H, 'v', 00H, 'e'
	DB	00H, 'c', 00H, 't', 00H, 'o', 00H, 'r', 00H, '_', 00H, 'a', 00H
	DB	'l', 00H, 'i', 00H, 'g', 00H, 'n', 00H, 'e', 00H, 'd', 00H, 00H
	DB	00H
	ORG $+2
$SG119789 DB	'"', 00H, 'i', 00H, 'n', 00H, 'v', 00H, 'a', 00H, 'l', 00H
	DB	'i', 00H, 'd', 00H, ' ', 00H, 'a', 00H, 'r', 00H, 'g', 00H, 'u'
	DB	00H, 'm', 00H, 'e', 00H, 'n', 00H, 't', 00H, '"', 00H, 00H, 00H
CONST	ENDS
PUBLIC	__local_stdio_printf_options
PUBLIC	_vfprintf_l
PUBLIC	printf
PUBLIC	??2@YAPEAX_KPEAX@Z				; operator new
PUBLIC	?max@?$numeric_limits@_J@std@@SA_JXZ		; std::numeric_limits<__int64>::max
PUBLIC	??0exception@std@@QEAA@QEBDH@Z			; std::exception::exception
PUBLIC	??0exception@std@@QEAA@AEBV01@@Z		; std::exception::exception
PUBLIC	??1exception@std@@UEAA@XZ			; std::exception::~exception
PUBLIC	?what@exception@std@@UEBAPEBDXZ			; std::exception::what
PUBLIC	??_Gexception@std@@UEAAPEAXI@Z			; std::exception::`scalar deleting destructor'
PUBLIC	??0bad_alloc@std@@AEAA@QEBD@Z			; std::bad_alloc::bad_alloc
PUBLIC	??1bad_alloc@std@@UEAA@XZ			; std::bad_alloc::~bad_alloc
PUBLIC	??0bad_alloc@std@@QEAA@AEBV01@@Z		; std::bad_alloc::bad_alloc
PUBLIC	??_Gbad_alloc@std@@UEAAPEAXI@Z			; std::bad_alloc::`scalar deleting destructor'
PUBLIC	??0bad_array_new_length@std@@QEAA@XZ		; std::bad_array_new_length::bad_array_new_length
PUBLIC	??1bad_array_new_length@std@@UEAA@XZ		; std::bad_array_new_length::~bad_array_new_length
PUBLIC	??0bad_array_new_length@std@@QEAA@AEBV01@@Z	; std::bad_array_new_length::bad_array_new_length
PUBLIC	??_Gbad_array_new_length@std@@UEAAPEAXI@Z	; std::bad_array_new_length::`scalar deleting destructor'
PUBLIC	?_Throw_bad_array_new_length@std@@YAXXZ		; std::_Throw_bad_array_new_length
PUBLIC	?_Allocate@_Default_allocate_traits@std@@SAPEAX_K@Z ; std::_Default_allocate_traits::_Allocate
PUBLIC	?_Adjust_manually_vector_aligned@std@@YAXAEAPEAXAEA_K@Z ; std::_Adjust_manually_vector_aligned
PUBLIC	??$_Convert_size@_K@std@@YA_K_K@Z		; std::_Convert_size<unsigned __int64>
PUBLIC	??0_Container_proxy@std@@QEAA@PEAU_Container_base12@1@@Z ; std::_Container_proxy::_Container_proxy
PUBLIC	??0_Container_base12@std@@QEAA@XZ		; std::_Container_base12::_Container_base12
PUBLIC	?_Orphan_all@_Container_base12@std@@QEAAXXZ	; std::_Container_base12::_Orphan_all
PUBLIC	?_Swap_proxy_and_iterators@_Container_base12@std@@QEAAXAEAU12@@Z ; std::_Container_base12::_Swap_proxy_and_iterators
PUBLIC	??0_Iterator_base12@std@@QEAA@XZ		; std::_Iterator_base12::_Iterator_base12
PUBLIC	??0_Iterator_base12@std@@QEAA@AEBU01@@Z		; std::_Iterator_base12::_Iterator_base12
PUBLIC	??4_Iterator_base12@std@@QEAAAEAU01@AEBU01@@Z	; std::_Iterator_base12::operator=
PUBLIC	??1_Iterator_base12@std@@QEAA@XZ		; std::_Iterator_base12::~_Iterator_base12
PUBLIC	?_Adopt@_Iterator_base12@std@@QEAAXPEBU_Container_base12@2@@Z ; std::_Iterator_base12::_Adopt
PUBLIC	?_Getcont@_Iterator_base12@std@@QEBAPEBU_Container_base12@2@XZ ; std::_Iterator_base12::_Getcont
PUBLIC	?_Orphan_me@_Iterator_base12@std@@QEAAXXZ	; std::_Iterator_base12::_Orphan_me
PUBLIC	?_Release@_Basic_container_proxy_ptr12@std@@QEAAXXZ ; std::_Basic_container_proxy_ptr12::_Release
PUBLIC	?compare@?$_Narrow_char_traits@DH@std@@SAHQEBD0_K@Z ; std::_Narrow_char_traits<char,int>::compare
PUBLIC	?length@?$_Narrow_char_traits@DH@std@@SA_KQEBD@Z ; std::_Narrow_char_traits<char,int>::length
PUBLIC	?copy@?$_Narrow_char_traits@DH@std@@SAPEADQEADQEBD_K@Z ; std::_Narrow_char_traits<char,int>::copy
PUBLIC	?move@?$_Narrow_char_traits@DH@std@@SAPEADQEADQEBD_K@Z ; std::_Narrow_char_traits<char,int>::move
PUBLIC	?assign@?$_Narrow_char_traits@DH@std@@SAXAEADAEBD@Z ; std::_Narrow_char_traits<char,int>::assign
PUBLIC	??0?$allocator@D@std@@QEAA@XZ			; std::allocator<char>::allocator<char>
PUBLIC	?deallocate@?$allocator@D@std@@QEAAXQEAD_K@Z	; std::allocator<char>::deallocate
PUBLIC	?allocate@?$allocator@D@std@@QEAAPEAD_K@Z	; std::allocator<char>::allocate
PUBLIC	?max_size@?$_Default_allocator_traits@V?$allocator@D@std@@@std@@SA_KAEBV?$allocator@D@2@@Z ; std::_Default_allocator_traits<std::allocator<char> >::max_size
PUBLIC	?select_on_container_copy_construction@?$_Default_allocator_traits@V?$allocator@D@std@@@std@@SA?AV?$allocator@D@2@AEBV32@@Z ; std::_Default_allocator_traits<std::allocator<char> >::select_on_container_copy_construction
PUBLIC	??0?$_String_val@U?$_Simple_types@D@std@@@std@@QEAA@XZ ; std::_String_val<std::_Simple_types<char> >::_String_val<std::_Simple_types<char> >
PUBLIC	?_Myptr@?$_String_val@U?$_Simple_types@D@std@@@std@@QEAAPEADXZ ; std::_String_val<std::_Simple_types<char> >::_Myptr
PUBLIC	?_Myptr@?$_String_val@U?$_Simple_types@D@std@@@std@@QEBAPEBDXZ ; std::_String_val<std::_Simple_types<char> >::_Myptr
PUBLIC	?_Large_string_engaged@?$_String_val@U?$_Simple_types@D@std@@@std@@QEBA_NXZ ; std::_String_val<std::_Simple_types<char> >::_Large_string_engaged
PUBLIC	??0_Bxty@?$_String_val@U?$_Simple_types@D@std@@@std@@QEAA@XZ ; std::_String_val<std::_Simple_types<char> >::_Bxty::_Bxty
PUBLIC	??1_Bxty@?$_String_val@U?$_Simple_types@D@std@@@std@@QEAA@XZ ; std::_String_val<std::_Simple_types<char> >::_Bxty::~_Bxty
PUBLIC	??1?$_String_val@U?$_Simple_types@D@std@@@std@@QEAA@XZ ; std::_String_val<std::_Simple_types<char> >::~_String_val<std::_Simple_types<char> >
PUBLIC	??0?$basic_string@DU?$char_traits@D@std@@V?$allocator@D@2@@std@@QEAA@AEBV01@@Z ; std::basic_string<char,std::char_traits<char>,std::allocator<char> >::basic_string<char,std::char_traits<char>,std::allocator<char> >
PUBLIC	??0?$basic_string@DU?$char_traits@D@std@@V?$allocator@D@2@@std@@QEAA@XZ ; std::basic_string<char,std::char_traits<char>,std::allocator<char> >::basic_string<char,std::char_traits<char>,std::allocator<char> >
PUBLIC	??0?$basic_string@DU?$char_traits@D@std@@V?$allocator@D@2@@std@@QEAA@$$QEAV01@@Z ; std::basic_string<char,std::char_traits<char>,std::allocator<char> >::basic_string<char,std::char_traits<char>,std::allocator<char> >
PUBLIC	?_Move_assign@?$basic_string@DU?$char_traits@D@std@@V?$allocator@D@2@@std@@AEAAXAEAV12@U_Equal_allocators@2@@Z ; std::basic_string<char,std::char_traits<char>,std::allocator<char> >::_Move_assign
PUBLIC	??4?$basic_string@DU?$char_traits@D@std@@V?$allocator@D@2@@std@@QEAAAEAV01@$$QEAV01@@Z ; std::basic_string<char,std::char_traits<char>,std::allocator<char> >::operator=
PUBLIC	?_Memcpy_val_from@?$basic_string@DU?$char_traits@D@std@@V?$allocator@D@2@@std@@AEAAXAEBV12@@Z ; std::basic_string<char,std::char_traits<char>,std::allocator<char> >::_Memcpy_val_from
PUBLIC	?_Take_contents@?$basic_string@DU?$char_traits@D@std@@V?$allocator@D@2@@std@@AEAAXAEAV12@U?$integral_constant@_N$00@2@@Z ; std::basic_string<char,std::char_traits<char>,std::allocator<char> >::_Take_contents
PUBLIC	?_Construct_lv_contents@?$basic_string@DU?$char_traits@D@std@@V?$allocator@D@2@@std@@AEAAXAEBV12@@Z ; std::basic_string<char,std::char_traits<char>,std::allocator<char> >::_Construct_lv_contents
PUBLIC	??1?$basic_string@DU?$char_traits@D@std@@V?$allocator@D@2@@std@@QEAA@XZ ; std::basic_string<char,std::char_traits<char>,std::allocator<char> >::~basic_string<char,std::char_traits<char>,std::allocator<char> >
PUBLIC	??4?$basic_string@DU?$char_traits@D@std@@V?$allocator@D@2@@std@@QEAAAEAV01@QEBD@Z ; std::basic_string<char,std::char_traits<char>,std::allocator<char> >::operator=
PUBLIC	?assign@?$basic_string@DU?$char_traits@D@std@@V?$allocator@D@2@@std@@QEAAAEAV12@QEBD_K@Z ; std::basic_string<char,std::char_traits<char>,std::allocator<char> >::assign
PUBLIC	?assign@?$basic_string@DU?$char_traits@D@std@@V?$allocator@D@2@@std@@QEAAAEAV12@QEBD@Z ; std::basic_string<char,std::char_traits<char>,std::allocator<char> >::assign
PUBLIC	?c_str@?$basic_string@DU?$char_traits@D@std@@V?$allocator@D@2@@std@@QEBAPEBDXZ ; std::basic_string<char,std::char_traits<char>,std::allocator<char> >::c_str
PUBLIC	?max_size@?$basic_string@DU?$char_traits@D@std@@V?$allocator@D@2@@std@@QEBA_KXZ ; std::basic_string<char,std::char_traits<char>,std::allocator<char> >::max_size
PUBLIC	?_Equal@?$basic_string@DU?$char_traits@D@std@@V?$allocator@D@2@@std@@QEBA_NQEBD@Z ; std::basic_string<char,std::char_traits<char>,std::allocator<char> >::_Equal
PUBLIC	?_Calculate_growth@?$basic_string@DU?$char_traits@D@std@@V?$allocator@D@2@@std@@CA_K_K00@Z ; std::basic_string<char,std::char_traits<char>,std::allocator<char> >::_Calculate_growth
PUBLIC	?_Calculate_growth@?$basic_string@DU?$char_traits@D@std@@V?$allocator@D@2@@std@@AEBA_K_K@Z ; std::basic_string<char,std::char_traits<char>,std::allocator<char> >::_Calculate_growth
PUBLIC	?_Tidy_init@?$basic_string@DU?$char_traits@D@std@@V?$allocator@D@2@@std@@AEAAXXZ ; std::basic_string<char,std::char_traits<char>,std::allocator<char> >::_Tidy_init
PUBLIC	?_Tidy_deallocate@?$basic_string@DU?$char_traits@D@std@@V?$allocator@D@2@@std@@AEAAXXZ ; std::basic_string<char,std::char_traits<char>,std::allocator<char> >::_Tidy_deallocate
PUBLIC	?_Xlen@?$basic_string@DU?$char_traits@D@std@@V?$allocator@D@2@@std@@CAXXZ ; std::basic_string<char,std::char_traits<char>,std::allocator<char> >::_Xlen
PUBLIC	?_Swap_proxy_and_iterators@?$basic_string@DU?$char_traits@D@std@@V?$allocator@D@2@@std@@AEAAXAEAV12@@Z ; std::basic_string<char,std::char_traits<char>,std::allocator<char> >::_Swap_proxy_and_iterators
PUBLIC	?_Getal@?$basic_string@DU?$char_traits@D@std@@V?$allocator@D@2@@std@@AEAAAEAV?$allocator@D@2@XZ ; std::basic_string<char,std::char_traits<char>,std::allocator<char> >::_Getal
PUBLIC	?_Getal@?$basic_string@DU?$char_traits@D@std@@V?$allocator@D@2@@std@@AEBAAEBV?$allocator@D@2@XZ ; std::basic_string<char,std::char_traits<char>,std::allocator<char> >::_Getal
PUBLIC	?_Get_first@?$_Compressed_pair@V?$allocator@D@std@@V?$_String_val@U?$_Simple_types@D@std@@@2@$00@std@@QEAAAEAV?$allocator@D@2@XZ ; std::_Compressed_pair<std::allocator<char>,std::_String_val<std::_Simple_types<char> >,1>::_Get_first
PUBLIC	?_Get_first@?$_Compressed_pair@V?$allocator@D@std@@V?$_String_val@U?$_Simple_types@D@std@@@2@$00@std@@QEBAAEBV?$allocator@D@2@XZ ; std::_Compressed_pair<std::allocator<char>,std::_String_val<std::_Simple_types<char> >,1>::_Get_first
PUBLIC	??1?$_Compressed_pair@V?$allocator@D@std@@V?$_String_val@U?$_Simple_types@D@std@@@2@$00@std@@QEAA@XZ ; std::_Compressed_pair<std::allocator<char>,std::_String_val<std::_Simple_types<char> >,1>::~_Compressed_pair<std::allocator<char>,std::_String_val<std::_Simple_types<char> >,1>
PUBLIC	??0hookData@@QEAA@XZ				; hookData::hookData
PUBLIC	??1hookData@@QEAA@XZ				; hookData::~hookData
PUBLIC	??0hookData@@QEAA@AEBU0@@Z			; hookData::hookData
PUBLIC	??0hookData@@QEAA@$$QEAU0@@Z			; hookData::hookData
PUBLIC	??4hookData@@QEAAAEAU0@$$QEAU0@@Z		; hookData::operator=
PUBLIC	??_GhookData@@QEAAPEAXI@Z			; hookData::`scalar deleting destructor'
PUBLIC	??0apihook@@QEAA@XZ				; apihook::apihook
PUBLIC	??1apihook@@QEAA@XZ				; apihook::~apihook
PUBLIC	?hook@apihook@@QEAAHPEBD0PEAXPEAPEAX@Z		; apihook::hook
PUBLIC	?print_all_func@apihook@@SAXXZ			; apihook::print_all_func
PUBLIC	?fin@apihook@@QEAAXXZ				; apihook::fin
PUBLIC	?fin@apihook@@QEAAXPEBD0@Z			; apihook::fin
PUBLIC	?fin@apihook@@QEAAXPEAX@Z			; apihook::fin
PUBLIC	?get_orig@apihook@@QEAAPEAXPEBD0@Z		; apihook::get_orig
PUBLIC	?hook_function@apihook@@CAPEAXPEBD0PEAX@Z	; apihook::hook_function
PUBLIC	??0?$allocator@UhookData@@@std@@QEAA@XZ		; std::allocator<hookData>::allocator<hookData>
PUBLIC	?deallocate@?$allocator@UhookData@@@std@@QEAAXQEAUhookData@@_K@Z ; std::allocator<hookData>::deallocate
PUBLIC	?allocate@?$allocator@UhookData@@@std@@QEAAPEAUhookData@@_K@Z ; std::allocator<hookData>::allocate
PUBLIC	?max_size@?$_Default_allocator_traits@V?$allocator@UhookData@@@std@@@std@@SA_KAEBV?$allocator@UhookData@@@2@@Z ; std::_Default_allocator_traits<std::allocator<hookData> >::max_size
PUBLIC	??0?$vector@UhookData@@V?$allocator@UhookData@@@std@@@std@@QEAA@XZ ; std::vector<hookData,std::allocator<hookData> >::vector<hookData,std::allocator<hookData> >
PUBLIC	??1?$vector@UhookData@@V?$allocator@UhookData@@@std@@@std@@QEAA@XZ ; std::vector<hookData,std::allocator<hookData> >::~vector<hookData,std::allocator<hookData> >
PUBLIC	?push_back@?$vector@UhookData@@V?$allocator@UhookData@@@std@@@std@@QEAAXAEBUhookData@@@Z ; std::vector<hookData,std::allocator<hookData> >::push_back
PUBLIC	?erase@?$vector@UhookData@@V?$allocator@UhookData@@@std@@@std@@QEAA?AV?$_Vector_iterator@V?$_Vector_val@U?$_Simple_types@UhookData@@@std@@@std@@@2@V?$_Vector_const_iterator@V?$_Vector_val@U?$_Simple_types@UhookData@@@std@@@std@@@2@@Z ; std::vector<hookData,std::allocator<hookData> >::erase
PUBLIC	?clear@?$vector@UhookData@@V?$allocator@UhookData@@@std@@@std@@QEAAXXZ ; std::vector<hookData,std::allocator<hookData> >::clear
PUBLIC	?begin@?$vector@UhookData@@V?$allocator@UhookData@@@std@@@std@@QEAA?AV?$_Vector_iterator@V?$_Vector_val@U?$_Simple_types@UhookData@@@std@@@std@@@2@XZ ; std::vector<hookData,std::allocator<hookData> >::begin
PUBLIC	?end@?$vector@UhookData@@V?$allocator@UhookData@@@std@@@std@@QEAA?AV?$_Vector_iterator@V?$_Vector_val@U?$_Simple_types@UhookData@@@std@@@std@@@2@XZ ; std::vector<hookData,std::allocator<hookData> >::end
PUBLIC	?_Unchecked_begin@?$vector@UhookData@@V?$allocator@UhookData@@@std@@@std@@QEAAPEAUhookData@@XZ ; std::vector<hookData,std::allocator<hookData> >::_Unchecked_begin
PUBLIC	?_Unchecked_end@?$vector@UhookData@@V?$allocator@UhookData@@@std@@@std@@QEAAPEAUhookData@@XZ ; std::vector<hookData,std::allocator<hookData> >::_Unchecked_end
PUBLIC	?max_size@?$vector@UhookData@@V?$allocator@UhookData@@@std@@@std@@QEBA_KXZ ; std::vector<hookData,std::allocator<hookData> >::max_size
PUBLIC	?capacity@?$vector@UhookData@@V?$allocator@UhookData@@@std@@@std@@QEBA_KXZ ; std::vector<hookData,std::allocator<hookData> >::capacity
PUBLIC	?_Umove@?$vector@UhookData@@V?$allocator@UhookData@@@std@@@std@@AEAAPEAUhookData@@PEAU3@00@Z ; std::vector<hookData,std::allocator<hookData> >::_Umove
PUBLIC	?_Umove_if_noexcept1@?$vector@UhookData@@V?$allocator@UhookData@@@std@@@std@@AEAAXPEAUhookData@@00U?$integral_constant@_N$00@2@@Z ; std::vector<hookData,std::allocator<hookData> >::_Umove_if_noexcept1
PUBLIC	?_Umove_if_noexcept@?$vector@UhookData@@V?$allocator@UhookData@@@std@@@std@@AEAAXPEAUhookData@@00@Z ; std::vector<hookData,std::allocator<hookData> >::_Umove_if_noexcept
PUBLIC	?_Destroy@?$vector@UhookData@@V?$allocator@UhookData@@@std@@@std@@AEAAXPEAUhookData@@0@Z ; std::vector<hookData,std::allocator<hookData> >::_Destroy
PUBLIC	?_Calculate_growth@?$vector@UhookData@@V?$allocator@UhookData@@@std@@@std@@AEBA_K_K@Z ; std::vector<hookData,std::allocator<hookData> >::_Calculate_growth
PUBLIC	?_Change_array@?$vector@UhookData@@V?$allocator@UhookData@@@std@@@std@@AEAAXQEAUhookData@@_K1@Z ; std::vector<hookData,std::allocator<hookData> >::_Change_array
PUBLIC	?_Tidy@?$vector@UhookData@@V?$allocator@UhookData@@@std@@@std@@AEAAXXZ ; std::vector<hookData,std::allocator<hookData> >::_Tidy
PUBLIC	?_Xlength@?$vector@UhookData@@V?$allocator@UhookData@@@std@@@std@@CAXXZ ; std::vector<hookData,std::allocator<hookData> >::_Xlength
PUBLIC	?_Orphan_range@?$vector@UhookData@@V?$allocator@UhookData@@@std@@@std@@AEBAXPEAUhookData@@0@Z ; std::vector<hookData,std::allocator<hookData> >::_Orphan_range
PUBLIC	?_Getal@?$vector@UhookData@@V?$allocator@UhookData@@@std@@@std@@AEAAAEAV?$allocator@UhookData@@@2@XZ ; std::vector<hookData,std::allocator<hookData> >::_Getal
PUBLIC	?_Getal@?$vector@UhookData@@V?$allocator@UhookData@@@std@@@std@@AEBAAEBV?$allocator@UhookData@@@2@XZ ; std::vector<hookData,std::allocator<hookData> >::_Getal
PUBLIC	??0?$_Vector_val@U?$_Simple_types@UhookData@@@std@@@std@@QEAA@XZ ; std::_Vector_val<std::_Simple_types<hookData> >::_Vector_val<std::_Simple_types<hookData> >
PUBLIC	?_Get_first@?$_Compressed_pair@V?$allocator@UhookData@@@std@@V?$_Vector_val@U?$_Simple_types@UhookData@@@std@@@2@$00@std@@QEAAAEAV?$allocator@UhookData@@@2@XZ ; std::_Compressed_pair<std::allocator<hookData>,std::_Vector_val<std::_Simple_types<hookData> >,1>::_Get_first
PUBLIC	?_Get_first@?$_Compressed_pair@V?$allocator@UhookData@@@std@@V?$_Vector_val@U?$_Simple_types@UhookData@@@std@@@2@$00@std@@QEBAAEBV?$allocator@UhookData@@@2@XZ ; std::_Compressed_pair<std::allocator<hookData>,std::_Vector_val<std::_Simple_types<hookData> >,1>::_Get_first
PUBLIC	??0?$_Vector_const_iterator@V?$_Vector_val@U?$_Simple_types@UhookData@@@std@@@std@@@std@@QEAA@PEAUhookData@@PEBU_Container_base12@1@@Z ; std::_Vector_const_iterator<std::_Vector_val<std::_Simple_types<hookData> > >::_Vector_const_iterator<std::_Vector_val<std::_Simple_types<hookData> > >
PUBLIC	??C?$_Vector_const_iterator@V?$_Vector_val@U?$_Simple_types@UhookData@@@std@@@std@@@std@@QEBAPEBUhookData@@XZ ; std::_Vector_const_iterator<std::_Vector_val<std::_Simple_types<hookData> > >::operator->
PUBLIC	??8?$_Vector_const_iterator@V?$_Vector_val@U?$_Simple_types@UhookData@@@std@@@std@@@std@@QEBA_NAEBV01@@Z ; std::_Vector_const_iterator<std::_Vector_val<std::_Simple_types<hookData> > >::operator==
PUBLIC	??9?$_Vector_const_iterator@V?$_Vector_val@U?$_Simple_types@UhookData@@@std@@@std@@@std@@QEBA_NAEBV01@@Z ; std::_Vector_const_iterator<std::_Vector_val<std::_Simple_types<hookData> > >::operator!=
PUBLIC	?_Compat@?$_Vector_const_iterator@V?$_Vector_val@U?$_Simple_types@UhookData@@@std@@@std@@@std@@QEBAXAEBV12@@Z ; std::_Vector_const_iterator<std::_Vector_val<std::_Simple_types<hookData> > >::_Compat
PUBLIC	?_Verify_range@std@@YAXAEBV?$_Vector_const_iterator@V?$_Vector_val@U?$_Simple_types@UhookData@@@std@@@std@@@1@0@Z ; std::_Verify_range
PUBLIC	?_Seek_to@?$_Vector_const_iterator@V?$_Vector_val@U?$_Simple_types@UhookData@@@std@@@std@@@std@@QEAAXPEBUhookData@@@Z ; std::_Vector_const_iterator<std::_Vector_val<std::_Simple_types<hookData> > >::_Seek_to
PUBLIC	??1?$_Vector_const_iterator@V?$_Vector_val@U?$_Simple_types@UhookData@@@std@@@std@@@std@@QEAA@XZ ; std::_Vector_const_iterator<std::_Vector_val<std::_Simple_types<hookData> > >::~_Vector_const_iterator<std::_Vector_val<std::_Simple_types<hookData> > >
PUBLIC	??0?$_Vector_const_iterator@V?$_Vector_val@U?$_Simple_types@UhookData@@@std@@@std@@@std@@QEAA@AEBV01@@Z ; std::_Vector_const_iterator<std::_Vector_val<std::_Simple_types<hookData> > >::_Vector_const_iterator<std::_Vector_val<std::_Simple_types<hookData> > >
PUBLIC	??0?$_Vector_const_iterator@V?$_Vector_val@U?$_Simple_types@UhookData@@@std@@@std@@@std@@QEAA@$$QEAV01@@Z ; std::_Vector_const_iterator<std::_Vector_val<std::_Simple_types<hookData> > >::_Vector_const_iterator<std::_Vector_val<std::_Simple_types<hookData> > >
PUBLIC	??0?$_Vector_iterator@V?$_Vector_val@U?$_Simple_types@UhookData@@@std@@@std@@@std@@QEAA@PEAUhookData@@PEBU_Container_base12@1@@Z ; std::_Vector_iterator<std::_Vector_val<std::_Simple_types<hookData> > >::_Vector_iterator<std::_Vector_val<std::_Simple_types<hookData> > >
PUBLIC	??C?$_Vector_iterator@V?$_Vector_val@U?$_Simple_types@UhookData@@@std@@@std@@@std@@QEBAPEAUhookData@@XZ ; std::_Vector_iterator<std::_Vector_val<std::_Simple_types<hookData> > >::operator->
PUBLIC	?_Unwrapped@?$_Vector_iterator@V?$_Vector_val@U?$_Simple_types@UhookData@@@std@@@std@@@std@@QEBAPEAUhookData@@XZ ; std::_Vector_iterator<std::_Vector_val<std::_Simple_types<hookData> > >::_Unwrapped
PUBLIC	??1?$_Vector_iterator@V?$_Vector_val@U?$_Simple_types@UhookData@@@std@@@std@@@std@@QEAA@XZ ; std::_Vector_iterator<std::_Vector_val<std::_Simple_types<hookData> > >::~_Vector_iterator<std::_Vector_val<std::_Simple_types<hookData> > >
PUBLIC	??0?$_Vector_iterator@V?$_Vector_val@U?$_Simple_types@UhookData@@@std@@@std@@@std@@QEAA@$$QEAV01@@Z ; std::_Vector_iterator<std::_Vector_val<std::_Simple_types<hookData> > >::_Vector_iterator<std::_Vector_val<std::_Simple_types<hookData> > >
PUBLIC	??$?8DU?$char_traits@D@std@@V?$allocator@D@1@@std@@YA_NAEBV?$basic_string@DU?$char_traits@D@std@@V?$allocator@D@2@@0@QEBD@Z ; std::operator==<char,std::char_traits<char>,std::allocator<char> >
PUBLIC	??$_Const_cast@$$CBUhookData@@@std@@YAPEAUhookData@@PEBU1@@Z ; std::_Const_cast<hookData const >
PUBLIC	??$addressof@V?$_Vector_val@U?$_Simple_types@UhookData@@@std@@@std@@@std@@YAPEAV?$_Vector_val@U?$_Simple_types@UhookData@@@std@@@0@AEAV10@@Z ; std::addressof<std::_Vector_val<std::_Simple_types<hookData> > >
PUBLIC	??$_Move_unchecked@PEAUhookData@@PEAU1@@std@@YAPEAUhookData@@PEAU1@00@Z ; std::_Move_unchecked<hookData *,hookData *>
PUBLIC	??$_Unfancy@UhookData@@@std@@YAPEAUhookData@@PEAU1@@Z ; std::_Unfancy<hookData>
PUBLIC	??$destroy@UhookData@@@?$_Default_allocator_traits@V?$allocator@UhookData@@@std@@@std@@SAXAEAV?$allocator@UhookData@@@1@QEAUhookData@@@Z ; std::_Default_allocator_traits<std::allocator<hookData> >::destroy<hookData>
PUBLIC	??$emplace_back@AEBUhookData@@@?$vector@UhookData@@V?$allocator@UhookData@@@std@@@std@@QEAAXAEBUhookData@@@Z ; std::vector<hookData,std::allocator<hookData> >::emplace_back<hookData const &>
PUBLIC	??$forward@AEBUhookData@@@std@@YAAEBUhookData@@AEBU1@@Z ; std::forward<hookData const &>
PUBLIC	??$_Emplace_back_with_unused_capacity@AEBUhookData@@@?$vector@UhookData@@V?$allocator@UhookData@@@std@@@std@@AEAAXAEBUhookData@@@Z ; std::vector<hookData,std::allocator<hookData> >::_Emplace_back_with_unused_capacity<hookData const &>
PUBLIC	??$construct@UhookData@@AEBU1@@?$_Default_allocator_traits@V?$allocator@UhookData@@@std@@@std@@SAXAEAV?$allocator@UhookData@@@1@QEAUhookData@@AEBU3@@Z ; std::_Default_allocator_traits<std::allocator<hookData> >::construct<hookData,hookData const &>
PUBLIC	??$_Emplace_reallocate@AEBUhookData@@@?$vector@UhookData@@V?$allocator@UhookData@@@std@@@std@@QEAAPEAUhookData@@QEAU2@AEBU2@@Z ; std::vector<hookData,std::allocator<hookData> >::_Emplace_reallocate<hookData const &>
PUBLIC	?allocate@?$allocator@U_Container_proxy@std@@@std@@QEAAPEAU_Container_proxy@2@_K@Z ; std::allocator<std::_Container_proxy>::allocate
PUBLIC	??$?0UhookData@@@?$allocator@U_Container_proxy@std@@@std@@QEAA@AEBV?$allocator@UhookData@@@1@@Z ; std::allocator<std::_Container_proxy>::allocator<std::_Container_proxy><hookData>
PUBLIC	??$exchange@PEAU_Container_proxy@std@@$$T@std@@YAPEAU_Container_proxy@0@AEAPEAU10@$$QEA$$T@Z ; std::exchange<std::_Container_proxy *,std::nullptr_t>
PUBLIC	??$_Delete_plain_internal@V?$allocator@U_Container_proxy@std@@@std@@@std@@YAXAEAV?$allocator@U_Container_proxy@std@@@0@QEAU_Container_proxy@0@@Z ; std::_Delete_plain_internal<std::allocator<std::_Container_proxy> >
PUBLIC	??$?0$$V@?$_Compressed_pair@V?$allocator@UhookData@@@std@@V?$_Vector_val@U?$_Simple_types@UhookData@@@std@@@2@$00@std@@QEAA@U_Zero_then_variadic_args_t@1@@Z ; std::_Compressed_pair<std::allocator<hookData>,std::_Vector_val<std::_Simple_types<hookData> >,1>::_Compressed_pair<std::allocator<hookData>,std::_Vector_val<std::_Simple_types<hookData> >,1><>
PUBLIC	??$_Alloc_proxy@V?$allocator@U_Container_proxy@std@@@std@@@_Container_base12@std@@QEAAX$$QEAV?$allocator@U_Container_proxy@std@@@1@@Z ; std::_Container_base12::_Alloc_proxy<std::allocator<std::_Container_proxy> >
PUBLIC	??0?$_Container_proxy_ptr12@V?$allocator@U_Container_proxy@std@@@std@@@std@@QEAA@AEAV?$allocator@U_Container_proxy@std@@@1@AEAU_Container_base12@1@@Z ; std::_Container_proxy_ptr12<std::allocator<std::_Container_proxy> >::_Container_proxy_ptr12<std::allocator<std::_Container_proxy> >
PUBLIC	??1?$_Container_proxy_ptr12@V?$allocator@U_Container_proxy@std@@@std@@@std@@QEAA@XZ ; std::_Container_proxy_ptr12<std::allocator<std::_Container_proxy> >::~_Container_proxy_ptr12<std::allocator<std::_Container_proxy> >
PUBLIC	??$?0D@?$allocator@U_Container_proxy@std@@@std@@QEAA@AEBV?$allocator@D@1@@Z ; std::allocator<std::_Container_proxy>::allocator<std::_Container_proxy><char>
PUBLIC	??$move@AEAV?$allocator@D@std@@@std@@YA$$QEAV?$allocator@D@0@AEAV10@@Z ; std::move<std::allocator<char> &>
PUBLIC	??$?0V?$allocator@D@std@@$$V@?$_Compressed_pair@V?$allocator@D@std@@V?$_String_val@U?$_Simple_types@D@std@@@2@$00@std@@QEAA@U_One_then_variadic_args_t@1@$$QEAV?$allocator@D@1@@Z ; std::_Compressed_pair<std::allocator<char>,std::_String_val<std::_Simple_types<char> >,1>::_Compressed_pair<std::allocator<char>,std::_String_val<std::_Simple_types<char> >,1><std::allocator<char> >
PUBLIC	??$?0$$V@?$_Compressed_pair@V?$allocator@D@std@@V?$_String_val@U?$_Simple_types@D@std@@@2@$00@std@@QEAA@U_Zero_then_variadic_args_t@1@@Z ; std::_Compressed_pair<std::allocator<char>,std::_String_val<std::_Simple_types<char> >,1>::_Compressed_pair<std::allocator<char>,std::_String_val<std::_Simple_types<char> >,1><>
PUBLIC	??$_Unfancy@U_Container_proxy@std@@@std@@YAPEAU_Container_proxy@0@PEAU10@@Z ; std::_Unfancy<std::_Container_proxy>
PUBLIC	??$addressof@U_Container_base12@std@@@std@@YAPEAU_Container_base12@0@AEAU10@@Z ; std::addressof<std::_Container_base12>
PUBLIC	??$_Construct_in_place@U_Container_proxy@std@@PEAU_Container_base12@2@@std@@YAXAEAU_Container_proxy@0@$$QEAPEAU_Container_base12@0@@Z ; std::_Construct_in_place<std::_Container_proxy,std::_Container_base12 *>
PUBLIC	??$_Destroy_range@V?$allocator@UhookData@@@std@@@std@@YAXPEAUhookData@@QEAU1@AEAV?$allocator@UhookData@@@0@@Z ; std::_Destroy_range<std::allocator<hookData> >
PUBLIC	??$_Destroy_in_place@PEAD@std@@YAXAEAPEAD@Z	; std::_Destroy_in_place<char *>
PUBLIC	??R<lambda_66f57f934f28d61049862f64df852ff0>@@QEBAXQEAD_KQEBD@Z ; <lambda_66f57f934f28d61049862f64df852ff0>::operator()
PUBLIC	??$_Reallocate_for@V<lambda_66f57f934f28d61049862f64df852ff0>@@PEBD@?$basic_string@DU?$char_traits@D@std@@V?$allocator@D@2@@std@@AEAAAEAV01@_KV<lambda_66f57f934f28d61049862f64df852ff0>@@PEBD@Z ; std::basic_string<char,std::char_traits<char>,std::allocator<char> >::_Reallocate_for<<lambda_66f57f934f28d61049862f64df852ff0>,char const *>
PUBLIC	??$_Unfancy@D@std@@YAPEADPEAD@Z			; std::_Unfancy<char>
PUBLIC	??$_Max_value@_K@std@@YAAEB_KAEB_K0@Z		; std::_Max_value<unsigned __int64>
PUBLIC	??$_Get_size_of_n@$0BA@@std@@YA_K_K@Z		; std::_Get_size_of_n<16>
PUBLIC	??$_Allocate@$0BA@U_Default_allocate_traits@std@@$0A@@std@@YAPEAX_K@Z ; std::_Allocate<16,std::_Default_allocate_traits,0>
PUBLIC	??$_Deallocate@$0BA@$0A@@std@@YAXPEAX_K@Z	; std::_Deallocate<16,0>
PUBLIC	??$addressof@V?$_String_val@U?$_Simple_types@D@std@@@std@@@std@@YAPEAV?$_String_val@U?$_Simple_types@D@std@@@0@AEAV10@@Z ; std::addressof<std::_String_val<std::_Simple_types<char> > >
PUBLIC	??$addressof@$$CBV?$_String_val@U?$_Simple_types@D@std@@@std@@@std@@YAPEBV?$_String_val@U?$_Simple_types@D@std@@@0@AEBV10@@Z ; std::addressof<std::_String_val<std::_Simple_types<char> > const >
PUBLIC	??$_Adl_verify_range@V?$_Vector_iterator@V?$_Vector_val@U?$_Simple_types@UhookData@@@std@@@std@@@std@@V12@@std@@YAXAEBV?$_Vector_iterator@V?$_Vector_val@U?$_Simple_types@UhookData@@@std@@@std@@@0@0@Z ; std::_Adl_verify_range<std::_Vector_iterator<std::_Vector_val<std::_Simple_types<hookData> > >,std::_Vector_iterator<std::_Vector_val<std::_Simple_types<hookData> > > >
PUBLIC	??$_Get_unwrapped@V?$_Vector_iterator@V?$_Vector_val@U?$_Simple_types@UhookData@@@std@@@std@@@std@@$0A@@std@@YAPEAUhookData@@AEBV?$_Vector_iterator@V?$_Vector_val@U?$_Simple_types@UhookData@@@std@@@std@@@0@@Z ; std::_Get_unwrapped<std::_Vector_iterator<std::_Vector_val<std::_Simple_types<hookData> > >,0>
PUBLIC	??$_Seek_wrapped@V?$_Vector_iterator@V?$_Vector_val@U?$_Simple_types@UhookData@@@std@@@std@@@std@@PEAUhookData@@@std@@YAXAEAV?$_Vector_iterator@V?$_Vector_val@U?$_Simple_types@UhookData@@@std@@@std@@@0@AEBQEAUhookData@@@Z ; std::_Seek_wrapped<std::_Vector_iterator<std::_Vector_val<std::_Simple_types<hookData> > >,hookData *>
PUBLIC	??$move@AEAUhookData@@@std@@YA$$QEAUhookData@@AEAU1@@Z ; std::move<hookData &>
PUBLIC	??$_Deallocate_plain@V?$allocator@U_Container_proxy@std@@@std@@@std@@YAXAEAV?$allocator@U_Container_proxy@std@@@0@QEAU_Container_proxy@0@@Z ; std::_Deallocate_plain<std::allocator<std::_Container_proxy> >
PUBLIC	??$forward@V?$allocator@D@std@@@std@@YA$$QEAV?$allocator@D@0@AEAV10@@Z ; std::forward<std::allocator<char> >
PUBLIC	??$addressof@U_Container_proxy@std@@@std@@YAPEAU_Container_proxy@0@AEAU10@@Z ; std::addressof<std::_Container_proxy>
PUBLIC	??$forward@PEAU_Container_base12@std@@@std@@YA$$QEAPEAU_Container_base12@0@AEAPEAU10@@Z ; std::forward<std::_Container_base12 *>
PUBLIC	??$_Construct_in_place@PEADAEBQEAD@std@@YAXAEAPEADAEBQEAD@Z ; std::_Construct_in_place<char *,char * const &>
PUBLIC	??$_Allocate_manually_vector_aligned@U_Default_allocate_traits@std@@@std@@YAPEAX_K@Z ; std::_Allocate_manually_vector_aligned<std::_Default_allocate_traits>
PUBLIC	??$_Uninitialized_move@PEAUhookData@@V?$allocator@UhookData@@@std@@@std@@YAPEAUhookData@@QEAU1@0PEAU1@AEAV?$allocator@UhookData@@@0@@Z ; std::_Uninitialized_move<hookData *,std::allocator<hookData> >
PUBLIC	??$_Min_value@_K@std@@YAAEB_KAEB_K0@Z		; std::_Min_value<unsigned __int64>
PUBLIC	??$_Get_size_of_n@$0GI@@std@@YA_K_K@Z		; std::_Get_size_of_n<104>
PUBLIC	??$_Traits_equal@U?$char_traits@D@std@@@std@@YA_NQEBD_K01@Z ; std::_Traits_equal<std::char_traits<char> >
PUBLIC	??$addressof@V?$basic_string@DU?$char_traits@D@std@@V?$allocator@D@2@@std@@@std@@YAPEAV?$basic_string@DU?$char_traits@D@std@@V?$allocator@D@2@@0@AEAV10@@Z ; std::addressof<std::basic_string<char,std::char_traits<char>,std::allocator<char> > >
PUBLIC	??$_Get_size_of_n@$00@std@@YA_K_K@Z		; std::_Get_size_of_n<1>
PUBLIC	??$_Pocma@V?$allocator@D@std@@@std@@YAXAEAV?$allocator@D@0@0@Z ; std::_Pocma<std::allocator<char> >
PUBLIC	?deallocate@?$_Default_allocator_traits@V?$allocator@U_Container_proxy@std@@@std@@@std@@SAXAEAV?$allocator@U_Container_proxy@std@@@2@QEAU_Container_proxy@2@_K@Z ; std::_Default_allocator_traits<std::allocator<std::_Container_proxy> >::deallocate
PUBLIC	??$addressof@PEAD@std@@YAPEAPEADAEAPEAD@Z	; std::addressof<char *>
PUBLIC	??$forward@AEBQEAD@std@@YAAEBQEADAEBQEAD@Z	; std::forward<char * const &>
PUBLIC	??$_Get_unwrapped@UhookData@@@std@@YAPEAUhookData@@QEAU1@@Z ; std::_Get_unwrapped<hookData>
PUBLIC	??0?$_Uninitialized_backout_al@V?$allocator@UhookData@@@std@@@std@@QEAA@PEAUhookData@@AEAV?$allocator@UhookData@@@1@@Z ; std::_Uninitialized_backout_al<std::allocator<hookData> >::_Uninitialized_backout_al<std::allocator<hookData> >
PUBLIC	??1?$_Uninitialized_backout_al@V?$allocator@UhookData@@@std@@@std@@QEAA@XZ ; std::_Uninitialized_backout_al<std::allocator<hookData> >::~_Uninitialized_backout_al<std::allocator<hookData> >
PUBLIC	?_Release@?$_Uninitialized_backout_al@V?$allocator@UhookData@@@std@@@std@@QEAAPEAUhookData@@XZ ; std::_Uninitialized_backout_al<std::allocator<hookData> >::_Release
PUBLIC	??$_Emplace_back@UhookData@@@?$_Uninitialized_backout_al@V?$allocator@UhookData@@@std@@@std@@QEAAX$$QEAUhookData@@@Z ; std::_Uninitialized_backout_al<std::allocator<hookData> >::_Emplace_back<hookData>
PUBLIC	??$_Refancy@PEAUhookData@@$0A@@std@@YAPEAUhookData@@PEAU1@@Z ; std::_Refancy<hookData *,0>
PUBLIC	??$forward@UhookData@@@std@@YA$$QEAUhookData@@AEAU1@@Z ; std::forward<hookData>
PUBLIC	??$construct@UhookData@@U1@@?$_Default_allocator_traits@V?$allocator@UhookData@@@std@@@std@@SAXAEAV?$allocator@UhookData@@@1@QEAUhookData@@$$QEAU3@@Z ; std::_Default_allocator_traits<std::allocator<hookData> >::construct<hookData,hookData>
PUBLIC	?_OptionsStorage@?1??__local_stdio_printf_options@@9@4_KA ; `__local_stdio_printf_options'::`2'::_OptionsStorage
PUBLIC	??_7exception@std@@6B@				; std::exception::`vftable'
PUBLIC	??_C@_0BC@EOODALEL@Unknown?5exception@		; `string'
PUBLIC	??_7bad_alloc@std@@6B@				; std::bad_alloc::`vftable'
PUBLIC	??_7bad_array_new_length@std@@6B@		; std::bad_array_new_length::`vftable'
PUBLIC	??_C@_0BF@KINCDENJ@bad?5array?5new?5length@	; `string'
PUBLIC	_TI3?AVbad_array_new_length@std@@
PUBLIC	_CTA3?AVbad_array_new_length@std@@
PUBLIC	??_R0?AVbad_array_new_length@std@@@8		; std::bad_array_new_length `RTTI Type Descriptor'
PUBLIC	_CT??_R0?AVbad_array_new_length@std@@@8??0bad_array_new_length@std@@QEAA@AEBV01@@Z24
PUBLIC	??_R0?AVbad_alloc@std@@@8			; std::bad_alloc `RTTI Type Descriptor'
PUBLIC	_CT??_R0?AVbad_alloc@std@@@8??0bad_alloc@std@@QEAA@AEBV01@@Z24
PUBLIC	??_R0?AVexception@std@@@8			; std::exception `RTTI Type Descriptor'
PUBLIC	_CT??_R0?AVexception@std@@@8??0exception@std@@QEAA@AEBV01@@Z24
PUBLIC	??_C@_0BB@FCMFBGOM@invalid?5argument@		; `string'
PUBLIC	??_C@_02DKCKIIND@?$CFs@				; `string'
PUBLIC	??_C@_0GI@FJIKDGOA@C?3?2Program?5Files?5?$CIx86?$CJ?2Microsof@ ; `string'
PUBLIC	??_C@_1NA@CDBIFGMM@?$AAC?$AA?3?$AA?2?$AAP?$AAr?$AAo?$AAg?$AAr?$AAa?$AAm?$AA?5?$AAF?$AAi?$AAl?$AAe@ ; `string'
PUBLIC	??_C@_1EK@NIFDJFDG@?$AAs?$AAt?$AAd?$AA?3?$AA?3?$AA_?$AAA?$AAd?$AAj?$AAu?$AAs?$AAt?$AA_?$AAm?$AAa@ ; `string'
PUBLIC	??_C@_1CG@JNLFBNGN@?$AA?$CC?$AAi?$AAn?$AAv?$AAa?$AAl?$AAi?$AAd?$AA?5?$AAa?$AAr?$AAg?$AAu?$AAm?$AAe@ ; `string'
PUBLIC	??_C@_0BJ@LFDBABJJ@ITERATOR?5LIST?5CORRUPTED?$CB@ ; `string'
PUBLIC	??_C@_1EE@KLDMFDFL@?$AAs?$AAt?$AAd?$AA?3?$AA?3?$AA_?$AAI?$AAt?$AAe?$AAr?$AAa?$AAt?$AAo?$AAr?$AA_@ ; `string'
PUBLIC	??_C@_1DG@PLBPCAEM@?$AA?$CC?$AAI?$AAT?$AAE?$AAR?$AAA?$AAT?$AAO?$AAR?$AA?5?$AAL?$AAI?$AAS?$AAT?$AA?5@ ; `string'
PUBLIC	??_C@_0CE@EAMOGAIE@vector?5erase?5iterator?5outside?5r@ ; `string'
PUBLIC	??_C@_0GH@OOPCKGB@C?3?2Program?5Files?5?$CIx86?$CJ?2Microsof@ ; `string'
PUBLIC	??_C@_1MO@NOOOHLI@?$AAC?$AA?3?$AA?2?$AAP?$AAr?$AAo?$AAg?$AAr?$AAa?$AAm?$AA?5?$AAF?$AAi?$AAl?$AAe@ ; `string'
PUBLIC	??_C@_1JG@GJLGOKOD@?$AAs?$AAt?$AAd?$AA?3?$AA?3?$AAv?$AAe?$AAc?$AAt?$AAo?$AAr?$AA?$DM?$AAs?$AAt?$AAr@ ; `string'
PUBLIC	??_C@_1EM@BEMPOGMM@?$AA?$CC?$AAv?$AAe?$AAc?$AAt?$AAo?$AAr?$AA?5?$AAe?$AAr?$AAa?$AAs?$AAe?$AA?5?$AAi@ ; `string'
PUBLIC	??_C@_0DE@CHADHGFF@can?8t?5dereference?5value?9initial@ ; `string'
PUBLIC	??_C@_1NO@GBEPGGBL@?$AAs?$AAt?$AAd?$AA?3?$AA?3?$AA_?$AAV?$AAe?$AAc?$AAt?$AAo?$AAr?$AA_?$AAc?$AAo@ ; `string'
PUBLIC	??_C@_1GM@FNBFNBEL@?$AA?$CC?$AAc?$AAa?$AAn?$AA?8?$AAt?$AA?5?$AAd?$AAe?$AAr?$AAe?$AAf?$AAe?$AAr?$AAe@ ; `string'
PUBLIC	??_C@_0CP@MDHADBHN@can?8t?5dereference?5out?5of?5range?5@ ; `string'
PUBLIC	??_C@_1GC@JDCKOLAC@?$AA?$CC?$AAc?$AAa?$AAn?$AA?8?$AAt?$AA?5?$AAd?$AAe?$AAr?$AAe?$AAf?$AAe?$AAr?$AAe@ ; `string'
PUBLIC	??_C@_0BO@CAOBBIOC@vector?5iterators?5incompatible@ ; `string'
PUBLIC	??_C@_1NG@KIOFJOHO@?$AAs?$AAt?$AAd?$AA?3?$AA?3?$AA_?$AAV?$AAe?$AAc?$AAt?$AAo?$AAr?$AA_?$AAc?$AAo@ ; `string'
PUBLIC	??_C@_1EA@DJDGNIII@?$AA?$CC?$AAv?$AAe?$AAc?$AAt?$AAo?$AAr?$AA?5?$AAi?$AAt?$AAe?$AAr?$AAa?$AAt?$AAo@ ; `string'
PUBLIC	??_C@_0BD@OLBABOEK@vector?$DMT?$DO?5too?5long@	; `string'
PUBLIC	??_C@_0BA@JFNIOLAK@string?5too?5long@		; `string'
PUBLIC	??_C@_0DI@PBEELKIF@vector?5iterators?5in?5range?5are?5f@ ; `string'
PUBLIC	??_C@_1CG@LJCPDKEJ@?$AAs?$AAt?$AAd?$AA?3?$AA?3?$AA_?$AAV?$AAe?$AAr?$AAi?$AAf?$AAy?$AA_?$AAr?$AAa@ ; `string'
PUBLIC	??_C@_1HE@KBMFDAFB@?$AA?$CC?$AAv?$AAe?$AAc?$AAt?$AAo?$AAr?$AA?5?$AAi?$AAt?$AAe?$AAr?$AAa?$AAt?$AAo@ ; `string'
PUBLIC	??_C@_0CB@LIAHLBAO@vector?5iterator?5range?5transpose@ ; `string'
PUBLIC	??_C@_1EG@ODKBEHFN@?$AA?$CC?$AAv?$AAe?$AAc?$AAt?$AAo?$AAr?$AA?5?$AAi?$AAt?$AAe?$AAr?$AAa?$AAt?$AAo@ ; `string'
PUBLIC	??_R4exception@std@@6B@				; std::exception::`RTTI Complete Object Locator'
PUBLIC	??_R3exception@std@@8				; std::exception::`RTTI Class Hierarchy Descriptor'
PUBLIC	??_R2exception@std@@8				; std::exception::`RTTI Base Class Array'
PUBLIC	??_R1A@?0A@EA@exception@std@@8			; std::exception::`RTTI Base Class Descriptor at (0,-1,0,64)'
PUBLIC	??_R4bad_alloc@std@@6B@				; std::bad_alloc::`RTTI Complete Object Locator'
PUBLIC	??_R3bad_alloc@std@@8				; std::bad_alloc::`RTTI Class Hierarchy Descriptor'
PUBLIC	??_R2bad_alloc@std@@8				; std::bad_alloc::`RTTI Base Class Array'
PUBLIC	??_R1A@?0A@EA@bad_alloc@std@@8			; std::bad_alloc::`RTTI Base Class Descriptor at (0,-1,0,64)'
PUBLIC	??_R4bad_array_new_length@std@@6B@		; std::bad_array_new_length::`RTTI Complete Object Locator'
PUBLIC	??_R3bad_array_new_length@std@@8		; std::bad_array_new_length::`RTTI Class Hierarchy Descriptor'
PUBLIC	??_R2bad_array_new_length@std@@8		; std::bad_array_new_length::`RTTI Base Class Array'
PUBLIC	??_R1A@?0A@EA@bad_array_new_length@std@@8	; std::bad_array_new_length::`RTTI Base Class Descriptor at (0,-1,0,64)'
EXTRN	??2@YAPEAX_K@Z:PROC				; operator new
EXTRN	??3@YAXPEAX_K@Z:PROC				; operator delete
EXTRN	__imp__invalid_parameter:PROC
EXTRN	__imp___acrt_iob_func:PROC
EXTRN	__imp___stdio_common_vfprintf:PROC
EXTRN	__imp__CrtDbgReport:PROC
EXTRN	__imp_??0_Lockit@std@@QEAA@H@Z:PROC
EXTRN	__imp_??1_Lockit@std@@QEAA@XZ:PROC
EXTRN	memcmp:PROC
EXTRN	memcpy:PROC
EXTRN	memmove:PROC
EXTRN	__imp__stricmp:PROC
EXTRN	strlen:PROC
EXTRN	__std_exception_copy:PROC
EXTRN	__std_exception_destroy:PROC
EXTRN	??_Eexception@std@@UEAAPEAXI@Z:PROC		; std::exception::`vector deleting destructor'
EXTRN	??_Ebad_alloc@std@@UEAAPEAXI@Z:PROC		; std::bad_alloc::`vector deleting destructor'
EXTRN	??_Ebad_array_new_length@std@@UEAAPEAXI@Z:PROC	; std::bad_array_new_length::`vector deleting destructor'
EXTRN	?_Xlength_error@std@@YAXPEBD@Z:PROC		; std::_Xlength_error
EXTRN	__imp_GetCurrentProcess:PROC
EXTRN	__imp_VirtualProtect:PROC
EXTRN	__imp_WriteProcessMemory:PROC
EXTRN	__imp_GetModuleHandleA:PROC
EXTRN	__imp_ImageDirectoryEntryToData:PROC
EXTRN	_CxxThrowException:PROC
EXTRN	_RTC_CheckStackVars:PROC
EXTRN	_RTC_InitBase:PROC
EXTRN	_RTC_Shutdown:PROC
EXTRN	__CxxFrameHandler4:PROC
EXTRN	__GSHandlerCheck_EH4:PROC
EXTRN	__security_check_cookie:PROC
EXTRN	??_7type_info@@6B@:BYTE				; type_info::`vftable'
EXTRN	__security_cookie:QWORD
;	COMDAT ?_OptionsStorage@?1??__local_stdio_printf_options@@9@4_KA
_BSS	SEGMENT
?_OptionsStorage@?1??__local_stdio_printf_options@@9@4_KA DQ 01H DUP (?) ; `__local_stdio_printf_options'::`2'::_OptionsStorage
_BSS	ENDS
;	COMDAT pdata
pdata	SEGMENT
$pdata$__local_stdio_printf_options DD imagerel $LN3
	DD	imagerel $LN3+11
	DD	imagerel $unwind$__local_stdio_printf_options
pdata	ENDS
;	COMDAT pdata
pdata	SEGMENT
$pdata$_vfprintf_l DD imagerel $LN3
	DD	imagerel $LN3+90
	DD	imagerel $unwind$_vfprintf_l
pdata	ENDS
;	COMDAT pdata
pdata	SEGMENT
$pdata$printf DD imagerel $LN3
	DD	imagerel $LN3+129
	DD	imagerel $unwind$printf
pdata	ENDS
;	COMDAT pdata
pdata	SEGMENT
$pdata$??2@YAPEAX_KPEAX@Z DD imagerel $LN3
	DD	imagerel $LN3+18
	DD	imagerel $unwind$??2@YAPEAX_KPEAX@Z
pdata	ENDS
;	COMDAT pdata
pdata	SEGMENT
$pdata$?max@?$numeric_limits@_J@std@@SA_JXZ DD imagerel $LN3
	DD	imagerel $LN3+14
	DD	imagerel $unwind$?max@?$numeric_limits@_J@std@@SA_JXZ
pdata	ENDS
;	COMDAT pdata
pdata	SEGMENT
$pdata$??0exception@std@@QEAA@QEBDH@Z DD imagerel $LN3
	DD	imagerel $LN3+73
	DD	imagerel $unwind$??0exception@std@@QEAA@QEBDH@Z
pdata	ENDS
;	COMDAT pdata
pdata	SEGMENT
$pdata$??0exception@std@@QEAA@AEBV01@@Z DD imagerel $LN3
	DD	imagerel $LN3+109
	DD	imagerel $unwind$??0exception@std@@QEAA@AEBV01@@Z
pdata	ENDS
;	COMDAT pdata
pdata	SEGMENT
$pdata$??1exception@std@@UEAA@XZ DD imagerel $LN3
	DD	imagerel $LN3+69
	DD	imagerel $unwind$??1exception@std@@UEAA@XZ
pdata	ENDS
;	COMDAT pdata
pdata	SEGMENT
$pdata$?what@exception@std@@UEBAPEBDXZ DD imagerel $LN5
	DD	imagerel $LN5+78
	DD	imagerel $unwind$?what@exception@std@@UEBAPEBDXZ
pdata	ENDS
;	COMDAT pdata
pdata	SEGMENT
$pdata$??_Gexception@std@@UEAAPEAXI@Z DD imagerel $LN4
	DD	imagerel $LN4+81
	DD	imagerel $unwind$??_Gexception@std@@UEAAPEAXI@Z
pdata	ENDS
;	COMDAT pdata
pdata	SEGMENT
$pdata$??0bad_alloc@std@@AEAA@QEBD@Z DD imagerel $LN4
	DD	imagerel $LN4+83
	DD	imagerel $unwind$??0bad_alloc@std@@AEAA@QEBD@Z
pdata	ENDS
;	COMDAT pdata
pdata	SEGMENT
$pdata$?dtor$0@?0???0bad_alloc@std@@AEAA@QEBD@Z@4HA DD imagerel ?dtor$0@?0???0bad_alloc@std@@AEAA@QEBD@Z@4HA
	DD	imagerel ?dtor$0@?0???0bad_alloc@std@@AEAA@QEBD@Z@4HA+35
	DD	imagerel $unwind$?dtor$0@?0???0bad_alloc@std@@AEAA@QEBD@Z@4HA
pdata	ENDS
;	COMDAT pdata
pdata	SEGMENT
$pdata$??1bad_alloc@std@@UEAA@XZ DD imagerel $LN4
	DD	imagerel $LN4+47
	DD	imagerel $unwind$??1bad_alloc@std@@UEAA@XZ
pdata	ENDS
;	COMDAT pdata
pdata	SEGMENT
$pdata$?dtor$0@?0???1bad_alloc@std@@UEAA@XZ@4HA DD imagerel ?dtor$0@?0???1bad_alloc@std@@UEAA@XZ@4HA
	DD	imagerel ?dtor$0@?0???1bad_alloc@std@@UEAA@XZ@4HA+35
	DD	imagerel $unwind$?dtor$0@?0???1bad_alloc@std@@UEAA@XZ@4HA
pdata	ENDS
;	COMDAT pdata
pdata	SEGMENT
$pdata$??0bad_alloc@std@@QEAA@AEBV01@@Z DD imagerel $LN4
	DD	imagerel $LN4+77
	DD	imagerel $unwind$??0bad_alloc@std@@QEAA@AEBV01@@Z
pdata	ENDS
;	COMDAT pdata
pdata	SEGMENT
$pdata$?dtor$0@?0???0bad_alloc@std@@QEAA@AEBV01@@Z@4HA DD imagerel ?dtor$0@?0???0bad_alloc@std@@QEAA@AEBV01@@Z@4HA
	DD	imagerel ?dtor$0@?0???0bad_alloc@std@@QEAA@AEBV01@@Z@4HA+35
	DD	imagerel $unwind$?dtor$0@?0???0bad_alloc@std@@QEAA@AEBV01@@Z@4HA
pdata	ENDS
;	COMDAT pdata
pdata	SEGMENT
$pdata$??_Gbad_alloc@std@@UEAAPEAXI@Z DD imagerel $LN4
	DD	imagerel $LN4+81
	DD	imagerel $unwind$??_Gbad_alloc@std@@UEAAPEAXI@Z
pdata	ENDS
;	COMDAT pdata
pdata	SEGMENT
$pdata$??0bad_array_new_length@std@@QEAA@XZ DD imagerel $LN4
	DD	imagerel $LN4+74
	DD	imagerel $unwind$??0bad_array_new_length@std@@QEAA@XZ
pdata	ENDS
;	COMDAT pdata
pdata	SEGMENT
$pdata$?dtor$0@?0???0bad_array_new_length@std@@QEAA@XZ@4HA DD imagerel ?dtor$0@?0???0bad_array_new_length@std@@QEAA@XZ@4HA
	DD	imagerel ?dtor$0@?0???0bad_array_new_length@std@@QEAA@XZ@4HA+35
	DD	imagerel $unwind$?dtor$0@?0???0bad_array_new_length@std@@QEAA@XZ@4HA
pdata	ENDS
;	COMDAT pdata
pdata	SEGMENT
$pdata$??1bad_array_new_length@std@@UEAA@XZ DD imagerel $LN4
	DD	imagerel $LN4+47
	DD	imagerel $unwind$??1bad_array_new_length@std@@UEAA@XZ
pdata	ENDS
;	COMDAT pdata
pdata	SEGMENT
$pdata$?dtor$0@?0???1bad_array_new_length@std@@UEAA@XZ@4HA DD imagerel ?dtor$0@?0???1bad_array_new_length@std@@UEAA@XZ@4HA
	DD	imagerel ?dtor$0@?0???1bad_array_new_length@std@@UEAA@XZ@4HA+35
	DD	imagerel $unwind$?dtor$0@?0???1bad_array_new_length@std@@UEAA@XZ@4HA
pdata	ENDS
;	COMDAT pdata
pdata	SEGMENT
$pdata$??0bad_array_new_length@std@@QEAA@AEBV01@@Z DD imagerel $LN4
	DD	imagerel $LN4+77
	DD	imagerel $unwind$??0bad_array_new_length@std@@QEAA@AEBV01@@Z
pdata	ENDS
;	COMDAT pdata
pdata	SEGMENT
$pdata$?dtor$0@?0???0bad_array_new_length@std@@QEAA@AEBV01@@Z@4HA DD imagerel ?dtor$0@?0???0bad_array_new_length@std@@QEAA@AEBV01@@Z@4HA
	DD	imagerel ?dtor$0@?0???0bad_array_new_length@std@@QEAA@AEBV01@@Z@4HA+35
	DD	imagerel $unwind$?dtor$0@?0???0bad_array_new_length@std@@QEAA@AEBV01@@Z@4HA
pdata	ENDS
;	COMDAT pdata
pdata	SEGMENT
$pdata$??_Gbad_array_new_length@std@@UEAAPEAXI@Z DD imagerel $LN4
	DD	imagerel $LN4+81
	DD	imagerel $unwind$??_Gbad_array_new_length@std@@UEAAPEAXI@Z
pdata	ENDS
;	COMDAT pdata
pdata	SEGMENT
$pdata$?_Throw_bad_array_new_length@std@@YAXXZ DD imagerel $LN3
	DD	imagerel $LN3+54
	DD	imagerel $unwind$?_Throw_bad_array_new_length@std@@YAXXZ
pdata	ENDS
;	COMDAT pdata
pdata	SEGMENT
$pdata$?_Allocate@_Default_allocate_traits@std@@SAPEAX_K@Z DD imagerel $LN3
	DD	imagerel $LN3+46
	DD	imagerel $unwind$?_Allocate@_Default_allocate_traits@std@@SAPEAX_K@Z
pdata	ENDS
;	COMDAT pdata
pdata	SEGMENT
$pdata$?_Adjust_manually_vector_aligned@std@@YAXAEAPEAXAEA_K@Z DD imagerel $LN21
	DD	imagerel $LN21+424
	DD	imagerel $unwind$?_Adjust_manually_vector_aligned@std@@YAXAEAPEAXAEA_K@Z
pdata	ENDS
;	COMDAT pdata
pdata	SEGMENT
$pdata$??$_Convert_size@_K@std@@YA_K_K@Z DD imagerel $LN3
	DD	imagerel $LN3+13
	DD	imagerel $unwind$??$_Convert_size@_K@std@@YA_K_K@Z
pdata	ENDS
;	COMDAT pdata
pdata	SEGMENT
$pdata$??0_Container_proxy@std@@QEAA@PEAU_Container_base12@1@@Z DD imagerel $LN3
	DD	imagerel $LN3+44
	DD	imagerel $unwind$??0_Container_proxy@std@@QEAA@PEAU_Container_base12@1@@Z
pdata	ENDS
;	COMDAT pdata
pdata	SEGMENT
$pdata$??0_Container_base12@std@@QEAA@XZ DD imagerel $LN3
	DD	imagerel $LN3+25
	DD	imagerel $unwind$??0_Container_base12@std@@QEAA@XZ
pdata	ENDS
;	COMDAT pdata
pdata	SEGMENT
$pdata$?_Orphan_all@_Container_base12@std@@QEAAXXZ DD imagerel $LN8
	DD	imagerel $LN8+175
	DD	imagerel $unwind$?_Orphan_all@_Container_base12@std@@QEAAXXZ
pdata	ENDS
;	COMDAT pdata
pdata	SEGMENT
$pdata$?dtor$0@?0??_Orphan_all@_Container_base12@std@@QEAAXXZ@4HA DD imagerel ?dtor$0@?0??_Orphan_all@_Container_base12@std@@QEAAXXZ@4HA
	DD	imagerel ?dtor$0@?0??_Orphan_all@_Container_base12@std@@QEAAXXZ@4HA+36
	DD	imagerel $unwind$?dtor$0@?0??_Orphan_all@_Container_base12@std@@QEAAXXZ@4HA
pdata	ENDS
;	COMDAT pdata
pdata	SEGMENT
$pdata$?_Swap_proxy_and_iterators@_Container_base12@std@@QEAAXAEAU12@@Z DD imagerel $LN6
	DD	imagerel $LN6+182
	DD	imagerel $unwind$?_Swap_proxy_and_iterators@_Container_base12@std@@QEAAXAEAU12@@Z
pdata	ENDS
;	COMDAT pdata
pdata	SEGMENT
$pdata$?dtor$0@?0??_Swap_proxy_and_iterators@_Container_base12@std@@QEAAXAEAU12@@Z@4HA DD imagerel ?dtor$0@?0??_Swap_proxy_and_iterators@_Container_base12@std@@QEAAXAEAU12@@Z@4HA
	DD	imagerel ?dtor$0@?0??_Swap_proxy_and_iterators@_Container_base12@std@@QEAAXAEAU12@@Z@4HA+36
	DD	imagerel $unwind$?dtor$0@?0??_Swap_proxy_and_iterators@_Container_base12@std@@QEAAXAEAU12@@Z@4HA
pdata	ENDS
;	COMDAT pdata
pdata	SEGMENT
$pdata$??0_Iterator_base12@std@@QEAA@XZ DD imagerel $LN3
	DD	imagerel $LN3+38
	DD	imagerel $unwind$??0_Iterator_base12@std@@QEAA@XZ
pdata	ENDS
;	COMDAT pdata
pdata	SEGMENT
$pdata$??0_Iterator_base12@std@@QEAA@AEBU01@@Z DD imagerel $LN3
	DD	imagerel $LN3+86
	DD	imagerel $unwind$??0_Iterator_base12@std@@QEAA@AEBU01@@Z
pdata	ENDS
;	COMDAT pdata
pdata	SEGMENT
$pdata$??4_Iterator_base12@std@@QEAAAEAU01@AEBU01@@Z DD imagerel $LN7
	DD	imagerel $LN7+161
	DD	imagerel $unwind$??4_Iterator_base12@std@@QEAAAEAU01@AEBU01@@Z
pdata	ENDS
;	COMDAT pdata
pdata	SEGMENT
$pdata$?dtor$0@?0???4_Iterator_base12@std@@QEAAAEAU01@AEBU01@@Z@4HA DD imagerel ?dtor$0@?0???4_Iterator_base12@std@@QEAAAEAU01@AEBU01@@Z@4HA
	DD	imagerel ?dtor$0@?0???4_Iterator_base12@std@@QEAAAEAU01@AEBU01@@Z@4HA+36
	DD	imagerel $unwind$?dtor$0@?0???4_Iterator_base12@std@@QEAAAEAU01@AEBU01@@Z@4HA
pdata	ENDS
;	COMDAT pdata
pdata	SEGMENT
$pdata$??1_Iterator_base12@std@@QEAA@XZ DD imagerel $LN4
	DD	imagerel $LN4+92
	DD	imagerel $unwind$??1_Iterator_base12@std@@QEAA@XZ
pdata	ENDS
;	COMDAT pdata
pdata	SEGMENT
$pdata$?dtor$0@?0???1_Iterator_base12@std@@QEAA@XZ@4HA DD imagerel ?dtor$0@?0???1_Iterator_base12@std@@QEAA@XZ@4HA
	DD	imagerel ?dtor$0@?0???1_Iterator_base12@std@@QEAA@XZ@4HA+36
	DD	imagerel $unwind$?dtor$0@?0???1_Iterator_base12@std@@QEAA@XZ@4HA
pdata	ENDS
;	COMDAT pdata
pdata	SEGMENT
$pdata$?_Adopt@_Iterator_base12@std@@QEAAXPEBU_Container_base12@2@@Z DD imagerel $LN8
	DD	imagerel $LN8+251
	DD	imagerel $unwind$?_Adopt@_Iterator_base12@std@@QEAAXPEBU_Container_base12@2@@Z
pdata	ENDS
;	COMDAT pdata
pdata	SEGMENT
$pdata$?dtor$0@?0??_Adopt@_Iterator_base12@std@@QEAAXPEBU_Container_base12@2@@Z@4HA DD imagerel ?dtor$0@?0??_Adopt@_Iterator_base12@std@@QEAAXPEBU_Container_base12@2@@Z@4HA
	DD	imagerel ?dtor$0@?0??_Adopt@_Iterator_base12@std@@QEAAXPEBU_Container_base12@2@@Z@4HA+36
	DD	imagerel $unwind$?dtor$0@?0??_Adopt@_Iterator_base12@std@@QEAAXPEBU_Container_base12@2@@Z@4HA
pdata	ENDS
;	COMDAT pdata
pdata	SEGMENT
$pdata$?dtor$1@?0??_Adopt@_Iterator_base12@std@@QEAAXPEBU_Container_base12@2@@Z@4HA DD imagerel ?dtor$1@?0??_Adopt@_Iterator_base12@std@@QEAAXPEBU_Container_base12@2@@Z@4HA
	DD	imagerel ?dtor$1@?0??_Adopt@_Iterator_base12@std@@QEAAXPEBU_Container_base12@2@@Z@4HA+36
	DD	imagerel $unwind$?dtor$1@?0??_Adopt@_Iterator_base12@std@@QEAAXPEBU_Container_base12@2@@Z@4HA
pdata	ENDS
;	COMDAT pdata
pdata	SEGMENT
$pdata$?_Getcont@_Iterator_base12@std@@QEBAPEBU_Container_base12@2@XZ DD imagerel $LN5
	DD	imagerel $LN5+76
	DD	imagerel $unwind$?_Getcont@_Iterator_base12@std@@QEBAPEBU_Container_base12@2@XZ
pdata	ENDS
;	COMDAT pdata
pdata	SEGMENT
$pdata$?_Orphan_me@_Iterator_base12@std@@QEAAXXZ DD imagerel $LN15
	DD	imagerel $LN15+270
	DD	imagerel $unwind$?_Orphan_me@_Iterator_base12@std@@QEAAXXZ
pdata	ENDS
;	COMDAT pdata
pdata	SEGMENT
$pdata$?_Release@_Basic_container_proxy_ptr12@std@@QEAAXXZ DD imagerel $LN3
	DD	imagerel $LN3+20
	DD	imagerel $unwind$?_Release@_Basic_container_proxy_ptr12@std@@QEAAXXZ
pdata	ENDS
;	COMDAT pdata
pdata	SEGMENT
$pdata$?compare@?$_Narrow_char_traits@DH@std@@SAHQEBD0_K@Z DD imagerel $LN3
	DD	imagerel $LN3+67
	DD	imagerel $unwind$?compare@?$_Narrow_char_traits@DH@std@@SAHQEBD0_K@Z
pdata	ENDS
;	COMDAT pdata
pdata	SEGMENT
$pdata$?length@?$_Narrow_char_traits@DH@std@@SA_KQEBD@Z DD imagerel $LN3
	DD	imagerel $LN3+47
	DD	imagerel $unwind$?length@?$_Narrow_char_traits@DH@std@@SA_KQEBD@Z
pdata	ENDS
;	COMDAT pdata
pdata	SEGMENT
$pdata$?copy@?$_Narrow_char_traits@DH@std@@SAPEADQEADQEBD_K@Z DD imagerel $LN3
	DD	imagerel $LN3+67
	DD	imagerel $unwind$?copy@?$_Narrow_char_traits@DH@std@@SAPEADQEADQEBD_K@Z
pdata	ENDS
;	COMDAT pdata
pdata	SEGMENT
$pdata$?move@?$_Narrow_char_traits@DH@std@@SAPEADQEADQEBD_K@Z DD imagerel $LN3
	DD	imagerel $LN3+67
	DD	imagerel $unwind$?move@?$_Narrow_char_traits@DH@std@@SAPEADQEADQEBD_K@Z
pdata	ENDS
;	COMDAT pdata
pdata	SEGMENT
$pdata$?assign@?$_Narrow_char_traits@DH@std@@SAXAEADAEBD@Z DD imagerel $LN3
	DD	imagerel $LN3+28
	DD	imagerel $unwind$?assign@?$_Narrow_char_traits@DH@std@@SAXAEADAEBD@Z
pdata	ENDS
;	COMDAT pdata
pdata	SEGMENT
$pdata$??0?$allocator@D@std@@QEAA@XZ DD imagerel $LN3
	DD	imagerel $LN3+13
	DD	imagerel $unwind$??0?$allocator@D@std@@QEAA@XZ
pdata	ENDS
;	COMDAT pdata
pdata	SEGMENT
$pdata$?deallocate@?$allocator@D@std@@QEAAXQEAD_K@Z DD imagerel $LN3
	DD	imagerel $LN3+61
	DD	imagerel $unwind$?deallocate@?$allocator@D@std@@QEAAXQEAD_K@Z
pdata	ENDS
;	COMDAT pdata
pdata	SEGMENT
$pdata$?allocate@?$allocator@D@std@@QEAAPEAD_K@Z DD imagerel $LN3
	DD	imagerel $LN3+59
	DD	imagerel $unwind$?allocate@?$allocator@D@std@@QEAAPEAD_K@Z
pdata	ENDS
;	COMDAT pdata
pdata	SEGMENT
$pdata$?max_size@?$_Default_allocator_traits@V?$allocator@D@std@@@std@@SA_KAEBV?$allocator@D@2@@Z DD imagerel $LN3
	DD	imagerel $LN3+15
	DD	imagerel $unwind$?max_size@?$_Default_allocator_traits@V?$allocator@D@std@@@std@@SA_KAEBV?$allocator@D@2@@Z
pdata	ENDS
;	COMDAT pdata
pdata	SEGMENT
$pdata$?select_on_container_copy_construction@?$_Default_allocator_traits@V?$allocator@D@std@@@std@@SA?AV?$allocator@D@2@AEBV32@@Z DD imagerel $LN3
	DD	imagerel $LN3+18
	DD	imagerel $unwind$?select_on_container_copy_construction@?$_Default_allocator_traits@V?$allocator@D@std@@@std@@SA?AV?$allocator@D@2@AEBV32@@Z
pdata	ENDS
;	COMDAT pdata
pdata	SEGMENT
$pdata$??0?$_String_val@U?$_Simple_types@D@std@@@std@@QEAA@XZ DD imagerel $LN4
	DD	imagerel $LN4+95
	DD	imagerel $unwind$??0?$_String_val@U?$_Simple_types@D@std@@@std@@QEAA@XZ
pdata	ENDS
;	COMDAT pdata
pdata	SEGMENT
$pdata$?dtor$0@?0???0?$_String_val@U?$_Simple_types@D@std@@@std@@QEAA@XZ@4HA DD imagerel ?dtor$0@?0???0?$_String_val@U?$_Simple_types@D@std@@@std@@QEAA@XZ@4HA
	DD	imagerel ?dtor$0@?0???0?$_String_val@U?$_Simple_types@D@std@@@std@@QEAA@XZ@4HA+39
	DD	imagerel $unwind$?dtor$0@?0???0?$_String_val@U?$_Simple_types@D@std@@@std@@QEAA@XZ@4HA
pdata	ENDS
;	COMDAT pdata
pdata	SEGMENT
$pdata$?_Myptr@?$_String_val@U?$_Simple_types@D@std@@@std@@QEAAPEADXZ DD imagerel $LN4
	DD	imagerel $LN4+91
	DD	imagerel $unwind$?_Myptr@?$_String_val@U?$_Simple_types@D@std@@@std@@QEAAPEADXZ
pdata	ENDS
;	COMDAT pdata
pdata	SEGMENT
$pdata$?_Myptr@?$_String_val@U?$_Simple_types@D@std@@@std@@QEBAPEBDXZ DD imagerel $LN4
	DD	imagerel $LN4+91
	DD	imagerel $unwind$?_Myptr@?$_String_val@U?$_Simple_types@D@std@@@std@@QEBAPEBDXZ
pdata	ENDS
;	COMDAT pdata
pdata	SEGMENT
$pdata$?_Large_string_engaged@?$_String_val@U?$_Simple_types@D@std@@@std@@QEBA_NXZ DD imagerel $LN5
	DD	imagerel $LN5+68
	DD	imagerel $unwind$?_Large_string_engaged@?$_String_val@U?$_Simple_types@D@std@@@std@@QEBA_NXZ
pdata	ENDS
;	COMDAT pdata
pdata	SEGMENT
$pdata$??0_Bxty@?$_String_val@U?$_Simple_types@D@std@@@std@@QEAA@XZ DD imagerel $LN3
	DD	imagerel $LN3+13
	DD	imagerel $unwind$??0_Bxty@?$_String_val@U?$_Simple_types@D@std@@@std@@QEAA@XZ
pdata	ENDS
;	COMDAT pdata
pdata	SEGMENT
$pdata$??1_Bxty@?$_String_val@U?$_Simple_types@D@std@@@std@@QEAA@XZ DD imagerel $LN3
	DD	imagerel $LN3+8
	DD	imagerel $unwind$??1_Bxty@?$_String_val@U?$_Simple_types@D@std@@@std@@QEAA@XZ
pdata	ENDS
;	COMDAT pdata
pdata	SEGMENT
$pdata$??1?$_String_val@U?$_Simple_types@D@std@@@std@@QEAA@XZ DD imagerel $LN4
	DD	imagerel $LN4+54
	DD	imagerel $unwind$??1?$_String_val@U?$_Simple_types@D@std@@@std@@QEAA@XZ
pdata	ENDS
;	COMDAT pdata
pdata	SEGMENT
$pdata$?dtor$0@?0???1?$_String_val@U?$_Simple_types@D@std@@@std@@QEAA@XZ@4HA DD imagerel ?dtor$0@?0???1?$_String_val@U?$_Simple_types@D@std@@@std@@QEAA@XZ@4HA
	DD	imagerel ?dtor$0@?0???1?$_String_val@U?$_Simple_types@D@std@@@std@@QEAA@XZ@4HA+39
	DD	imagerel $unwind$?dtor$0@?0???1?$_String_val@U?$_Simple_types@D@std@@@std@@QEAA@XZ@4HA
pdata	ENDS
;	COMDAT pdata
pdata	SEGMENT
$pdata$??0?$basic_string@DU?$char_traits@D@std@@V?$allocator@D@2@@std@@QEAA@AEBV01@@Z DD imagerel $LN5
	DD	imagerel $LN5+233
	DD	imagerel $unwind$??0?$basic_string@DU?$char_traits@D@std@@V?$allocator@D@2@@std@@QEAA@AEBV01@@Z
pdata	ENDS
;	COMDAT pdata
pdata	SEGMENT
$pdata$?dtor$0@?0???0?$basic_string@DU?$char_traits@D@std@@V?$allocator@D@2@@std@@QEAA@AEBV01@@Z@4HA DD imagerel ?dtor$0@?0???0?$basic_string@DU?$char_traits@D@std@@V?$allocator@D@2@@std@@QEAA@AEBV01@@Z@4HA
	DD	imagerel ?dtor$0@?0???0?$basic_string@DU?$char_traits@D@std@@V?$allocator@D@2@@std@@QEAA@AEBV01@@Z@4HA+38
	DD	imagerel $unwind$?dtor$0@?0???0?$basic_string@DU?$char_traits@D@std@@V?$allocator@D@2@@std@@QEAA@AEBV01@@Z@4HA
pdata	ENDS
;	COMDAT pdata
pdata	SEGMENT
$pdata$?dtor$1@?0???0?$basic_string@DU?$char_traits@D@std@@V?$allocator@D@2@@std@@QEAA@AEBV01@@Z@4HA DD imagerel ?dtor$1@?0???0?$basic_string@DU?$char_traits@D@std@@V?$allocator@D@2@@std@@QEAA@AEBV01@@Z@4HA
	DD	imagerel ?dtor$1@?0???0?$basic_string@DU?$char_traits@D@std@@V?$allocator@D@2@@std@@QEAA@AEBV01@@Z@4HA+35
	DD	imagerel $unwind$?dtor$1@?0???0?$basic_string@DU?$char_traits@D@std@@V?$allocator@D@2@@std@@QEAA@AEBV01@@Z@4HA
pdata	ENDS
;	COMDAT pdata
pdata	SEGMENT
$pdata$??0?$basic_string@DU?$char_traits@D@std@@V?$allocator@D@2@@std@@QEAA@XZ DD imagerel $LN4
	DD	imagerel $LN4+110
	DD	imagerel $unwind$??0?$basic_string@DU?$char_traits@D@std@@V?$allocator@D@2@@std@@QEAA@XZ
pdata	ENDS
;	COMDAT pdata
pdata	SEGMENT
$pdata$?dtor$0@?0???0?$basic_string@DU?$char_traits@D@std@@V?$allocator@D@2@@std@@QEAA@XZ@4HA DD imagerel ?dtor$0@?0???0?$basic_string@DU?$char_traits@D@std@@V?$allocator@D@2@@std@@QEAA@XZ@4HA
	DD	imagerel ?dtor$0@?0???0?$basic_string@DU?$char_traits@D@std@@V?$allocator@D@2@@std@@QEAA@XZ@4HA+35
	DD	imagerel $unwind$?dtor$0@?0???0?$basic_string@DU?$char_traits@D@std@@V?$allocator@D@2@@std@@QEAA@XZ@4HA
pdata	ENDS
;	COMDAT pdata
pdata	SEGMENT
$pdata$??0?$basic_string@DU?$char_traits@D@std@@V?$allocator@D@2@@std@@QEAA@$$QEAV01@@Z DD imagerel $LN4
	DD	imagerel $LN4+163
	DD	imagerel $unwind$??0?$basic_string@DU?$char_traits@D@std@@V?$allocator@D@2@@std@@QEAA@$$QEAV01@@Z
pdata	ENDS
;	COMDAT pdata
pdata	SEGMENT
$pdata$?dtor$0@?0???0?$basic_string@DU?$char_traits@D@std@@V?$allocator@D@2@@std@@QEAA@$$QEAV01@@Z@4HA DD imagerel ?dtor$0@?0???0?$basic_string@DU?$char_traits@D@std@@V?$allocator@D@2@@std@@QEAA@$$QEAV01@@Z@4HA
	DD	imagerel ?dtor$0@?0???0?$basic_string@DU?$char_traits@D@std@@V?$allocator@D@2@@std@@QEAA@$$QEAV01@@Z@4HA+35
	DD	imagerel $unwind$?dtor$0@?0???0?$basic_string@DU?$char_traits@D@std@@V?$allocator@D@2@@std@@QEAA@$$QEAV01@@Z@4HA
pdata	ENDS
;	COMDAT pdata
pdata	SEGMENT
$pdata$?_Move_assign@?$basic_string@DU?$char_traits@D@std@@V?$allocator@D@2@@std@@AEAAXAEAV12@U_Equal_allocators@2@@Z DD imagerel $LN3
	DD	imagerel $LN3+135
	DD	imagerel $unwind$?_Move_assign@?$basic_string@DU?$char_traits@D@std@@V?$allocator@D@2@@std@@AEAAXAEAV12@U_Equal_allocators@2@@Z
pdata	ENDS
;	COMDAT pdata
pdata	SEGMENT
$pdata$??4?$basic_string@DU?$char_traits@D@std@@V?$allocator@D@2@@std@@QEAAAEAV01@$$QEAV01@@Z DD imagerel $LN4
	DD	imagerel $LN4+101
	DD	imagerel $unwind$??4?$basic_string@DU?$char_traits@D@std@@V?$allocator@D@2@@std@@QEAAAEAV01@$$QEAV01@@Z
pdata	ENDS
;	COMDAT pdata
pdata	SEGMENT
$pdata$?_Memcpy_val_from@?$basic_string@DU?$char_traits@D@std@@V?$allocator@D@2@@std@@AEAAXAEBV12@@Z DD imagerel $LN3
	DD	imagerel $LN3+109
	DD	imagerel $unwind$?_Memcpy_val_from@?$basic_string@DU?$char_traits@D@std@@V?$allocator@D@2@@std@@AEAAXAEBV12@@Z
pdata	ENDS
;	COMDAT pdata
pdata	SEGMENT
$pdata$?_Take_contents@?$basic_string@DU?$char_traits@D@std@@V?$allocator@D@2@@std@@AEAAXAEAV12@U?$integral_constant@_N$00@2@@Z DD imagerel $LN5
	DD	imagerel $LN5+126
	DD	imagerel $unwind$?_Take_contents@?$basic_string@DU?$char_traits@D@std@@V?$allocator@D@2@@std@@AEAAXAEAV12@U?$integral_constant@_N$00@2@@Z
pdata	ENDS
;	COMDAT pdata
pdata	SEGMENT
$pdata$?_Construct_lv_contents@?$basic_string@DU?$char_traits@D@std@@V?$allocator@D@2@@std@@AEAAXAEBV12@@Z DD imagerel $LN4
	DD	imagerel $LN4+381
	DD	imagerel $unwind$?_Construct_lv_contents@?$basic_string@DU?$char_traits@D@std@@V?$allocator@D@2@@std@@AEAAXAEBV12@@Z
pdata	ENDS
;	COMDAT pdata
pdata	SEGMENT
$pdata$??1?$basic_string@DU?$char_traits@D@std@@V?$allocator@D@2@@std@@QEAA@XZ DD imagerel $LN4
	DD	imagerel $LN4+153
	DD	imagerel $unwind$??1?$basic_string@DU?$char_traits@D@std@@V?$allocator@D@2@@std@@QEAA@XZ
pdata	ENDS
;	COMDAT pdata
pdata	SEGMENT
$pdata$?dtor$0@?0???1?$basic_string@DU?$char_traits@D@std@@V?$allocator@D@2@@std@@QEAA@XZ@4HA DD imagerel ?dtor$0@?0???1?$basic_string@DU?$char_traits@D@std@@V?$allocator@D@2@@std@@QEAA@XZ@4HA
	DD	imagerel ?dtor$0@?0???1?$basic_string@DU?$char_traits@D@std@@V?$allocator@D@2@@std@@QEAA@XZ@4HA+35
	DD	imagerel $unwind$?dtor$0@?0???1?$basic_string@DU?$char_traits@D@std@@V?$allocator@D@2@@std@@QEAA@XZ@4HA
pdata	ENDS
;	COMDAT pdata
pdata	SEGMENT
$pdata$??4?$basic_string@DU?$char_traits@D@std@@V?$allocator@D@2@@std@@QEAAAEAV01@QEBD@Z DD imagerel $LN3
	DD	imagerel $LN3+56
	DD	imagerel $unwind$??4?$basic_string@DU?$char_traits@D@std@@V?$allocator@D@2@@std@@QEAAAEAV01@QEBD@Z
pdata	ENDS
;	COMDAT pdata
pdata	SEGMENT
$pdata$?assign@?$basic_string@DU?$char_traits@D@std@@V?$allocator@D@2@@std@@QEAAAEAV12@QEBD_K@Z DD imagerel $LN4
	DD	imagerel $LN4+198
	DD	imagerel $unwind$?assign@?$basic_string@DU?$char_traits@D@std@@V?$allocator@D@2@@std@@QEAAAEAV12@QEBD_K@Z
pdata	ENDS
;	COMDAT pdata
pdata	SEGMENT
$pdata$?assign@?$basic_string@DU?$char_traits@D@std@@V?$allocator@D@2@@std@@QEAAAEAV12@QEBD@Z DD imagerel $LN3
	DD	imagerel $LN3+77
	DD	imagerel $unwind$?assign@?$basic_string@DU?$char_traits@D@std@@V?$allocator@D@2@@std@@QEAAAEAV12@QEBD@Z
pdata	ENDS
;	COMDAT pdata
pdata	SEGMENT
$pdata$?c_str@?$basic_string@DU?$char_traits@D@std@@V?$allocator@D@2@@std@@QEBAPEBDXZ DD imagerel $LN3
	DD	imagerel $LN3+50
	DD	imagerel $unwind$?c_str@?$basic_string@DU?$char_traits@D@std@@V?$allocator@D@2@@std@@QEBAPEBDXZ
pdata	ENDS
;	COMDAT pdata
pdata	SEGMENT
$pdata$?max_size@?$basic_string@DU?$char_traits@D@std@@V?$allocator@D@2@@std@@QEBA_KXZ DD imagerel $LN3
	DD	imagerel $LN3+153
	DD	imagerel $unwind$?max_size@?$basic_string@DU?$char_traits@D@std@@V?$allocator@D@2@@std@@QEBA_KXZ
pdata	ENDS
;	COMDAT pdata
pdata	SEGMENT
$pdata$?_Equal@?$basic_string@DU?$char_traits@D@std@@V?$allocator@D@2@@std@@QEBA_NQEBD@Z DD imagerel $LN3
	DD	imagerel $LN3+99
	DD	imagerel $unwind$?_Equal@?$basic_string@DU?$char_traits@D@std@@V?$allocator@D@2@@std@@QEBA_NQEBD@Z
pdata	ENDS
;	COMDAT pdata
pdata	SEGMENT
$pdata$?_Calculate_growth@?$basic_string@DU?$char_traits@D@std@@V?$allocator@D@2@@std@@CA_K_K00@Z DD imagerel $LN5
	DD	imagerel $LN5+189
	DD	imagerel $unwind$?_Calculate_growth@?$basic_string@DU?$char_traits@D@std@@V?$allocator@D@2@@std@@CA_K_K00@Z
pdata	ENDS
;	COMDAT pdata
pdata	SEGMENT
$pdata$?_Calculate_growth@?$basic_string@DU?$char_traits@D@std@@V?$allocator@D@2@@std@@AEBA_K_K@Z DD imagerel $LN3
	DD	imagerel $LN3+73
	DD	imagerel $unwind$?_Calculate_growth@?$basic_string@DU?$char_traits@D@std@@V?$allocator@D@2@@std@@AEBA_K_K@Z
pdata	ENDS
;	COMDAT pdata
pdata	SEGMENT
$pdata$?_Tidy_init@?$basic_string@DU?$char_traits@D@std@@V?$allocator@D@2@@std@@AEAAXXZ DD imagerel $LN3
	DD	imagerel $LN3+99
	DD	imagerel $unwind$?_Tidy_init@?$basic_string@DU?$char_traits@D@std@@V?$allocator@D@2@@std@@AEAAXXZ
pdata	ENDS
;	COMDAT pdata
pdata	SEGMENT
$pdata$?_Tidy_deallocate@?$basic_string@DU?$char_traits@D@std@@V?$allocator@D@2@@std@@AEAAXXZ DD imagerel $LN4
	DD	imagerel $LN4+214
	DD	imagerel $unwind$?_Tidy_deallocate@?$basic_string@DU?$char_traits@D@std@@V?$allocator@D@2@@std@@AEAAXXZ
pdata	ENDS
;	COMDAT pdata
pdata	SEGMENT
$pdata$?_Xlen@?$basic_string@DU?$char_traits@D@std@@V?$allocator@D@2@@std@@CAXXZ DD imagerel $LN3
	DD	imagerel $LN3+39
	DD	imagerel $unwind$?_Xlen@?$basic_string@DU?$char_traits@D@std@@V?$allocator@D@2@@std@@CAXXZ
pdata	ENDS
;	COMDAT pdata
pdata	SEGMENT
$pdata$?_Swap_proxy_and_iterators@?$basic_string@DU?$char_traits@D@std@@V?$allocator@D@2@@std@@AEAAXAEAV12@@Z DD imagerel $LN3
	DD	imagerel $LN3+59
	DD	imagerel $unwind$?_Swap_proxy_and_iterators@?$basic_string@DU?$char_traits@D@std@@V?$allocator@D@2@@std@@AEAAXAEAV12@@Z
pdata	ENDS
;	COMDAT pdata
pdata	SEGMENT
$pdata$?_Getal@?$basic_string@DU?$char_traits@D@std@@V?$allocator@D@2@@std@@AEAAAEAV?$allocator@D@2@XZ DD imagerel $LN3
	DD	imagerel $LN3+49
	DD	imagerel $unwind$?_Getal@?$basic_string@DU?$char_traits@D@std@@V?$allocator@D@2@@std@@AEAAAEAV?$allocator@D@2@XZ
pdata	ENDS
;	COMDAT pdata
pdata	SEGMENT
$pdata$?_Getal@?$basic_string@DU?$char_traits@D@std@@V?$allocator@D@2@@std@@AEBAAEBV?$allocator@D@2@XZ DD imagerel $LN3
	DD	imagerel $LN3+49
	DD	imagerel $unwind$?_Getal@?$basic_string@DU?$char_traits@D@std@@V?$allocator@D@2@@std@@AEBAAEBV?$allocator@D@2@XZ
pdata	ENDS
;	COMDAT pdata
pdata	SEGMENT
$pdata$?_Get_first@?$_Compressed_pair@V?$allocator@D@std@@V?$_String_val@U?$_Simple_types@D@std@@@2@$00@std@@QEAAAEAV?$allocator@D@2@XZ DD imagerel $LN3
	DD	imagerel $LN3+13
	DD	imagerel $unwind$?_Get_first@?$_Compressed_pair@V?$allocator@D@std@@V?$_String_val@U?$_Simple_types@D@std@@@2@$00@std@@QEAAAEAV?$allocator@D@2@XZ
pdata	ENDS
;	COMDAT pdata
pdata	SEGMENT
$pdata$?_Get_first@?$_Compressed_pair@V?$allocator@D@std@@V?$_String_val@U?$_Simple_types@D@std@@@2@$00@std@@QEBAAEBV?$allocator@D@2@XZ DD imagerel $LN3
	DD	imagerel $LN3+13
	DD	imagerel $unwind$?_Get_first@?$_Compressed_pair@V?$allocator@D@std@@V?$_String_val@U?$_Simple_types@D@std@@@2@$00@std@@QEBAAEBV?$allocator@D@2@XZ
pdata	ENDS
;	COMDAT pdata
pdata	SEGMENT
$pdata$??1?$_Compressed_pair@V?$allocator@D@std@@V?$_String_val@U?$_Simple_types@D@std@@@2@$00@std@@QEAA@XZ DD imagerel $LN4
	DD	imagerel $LN4+50
	DD	imagerel $unwind$??1?$_Compressed_pair@V?$allocator@D@std@@V?$_String_val@U?$_Simple_types@D@std@@@2@$00@std@@QEAA@XZ
pdata	ENDS
;	COMDAT pdata
pdata	SEGMENT
$pdata$?dtor$0@?0???1?$_Compressed_pair@V?$allocator@D@std@@V?$_String_val@U?$_Simple_types@D@std@@@2@$00@std@@QEAA@XZ@4HA DD imagerel ?dtor$0@?0???1?$_Compressed_pair@V?$allocator@D@std@@V?$_String_val@U?$_Simple_types@D@std@@@2@$00@std@@QEAA@XZ@4HA
	DD	imagerel ?dtor$0@?0???1?$_Compressed_pair@V?$allocator@D@std@@V?$_String_val@U?$_Simple_types@D@std@@@2@$00@std@@QEAA@XZ@4HA+35
	DD	imagerel $unwind$?dtor$0@?0???1?$_Compressed_pair@V?$allocator@D@std@@V?$_String_val@U?$_Simple_types@D@std@@@2@$00@std@@QEAA@XZ@4HA
pdata	ENDS
;	COMDAT pdata
pdata	SEGMENT
$pdata$??0hookData@@QEAA@XZ DD imagerel $LN5
	DD	imagerel $LN5+73
	DD	imagerel $unwind$??0hookData@@QEAA@XZ
pdata	ENDS
;	COMDAT pdata
pdata	SEGMENT
$pdata$?dtor$0@?0???0hookData@@QEAA@XZ@4HA DD imagerel ?dtor$0@?0???0hookData@@QEAA@XZ@4HA
	DD	imagerel ?dtor$0@?0???0hookData@@QEAA@XZ@4HA+35
	DD	imagerel $unwind$?dtor$0@?0???0hookData@@QEAA@XZ@4HA
pdata	ENDS
;	COMDAT pdata
pdata	SEGMENT
$pdata$?dtor$1@?0???0hookData@@QEAA@XZ@4HA DD imagerel ?dtor$1@?0???0hookData@@QEAA@XZ@4HA
	DD	imagerel ?dtor$1@?0???0hookData@@QEAA@XZ@4HA+39
	DD	imagerel $unwind$?dtor$1@?0???0hookData@@QEAA@XZ@4HA
pdata	ENDS
;	COMDAT pdata
pdata	SEGMENT
$pdata$??1hookData@@QEAA@XZ DD imagerel $LN5
	DD	imagerel $LN5+68
	DD	imagerel $unwind$??1hookData@@QEAA@XZ
pdata	ENDS
;	COMDAT pdata
pdata	SEGMENT
$pdata$?dtor$0@?0???1hookData@@QEAA@XZ@4HA DD imagerel ?dtor$0@?0???1hookData@@QEAA@XZ@4HA
	DD	imagerel ?dtor$0@?0???1hookData@@QEAA@XZ@4HA+35
	DD	imagerel $unwind$?dtor$0@?0???1hookData@@QEAA@XZ@4HA
pdata	ENDS
;	COMDAT pdata
pdata	SEGMENT
$pdata$?dtor$1@?0???1hookData@@QEAA@XZ@4HA DD imagerel ?dtor$1@?0???1hookData@@QEAA@XZ@4HA
	DD	imagerel ?dtor$1@?0???1hookData@@QEAA@XZ@4HA+39
	DD	imagerel $unwind$?dtor$1@?0???1hookData@@QEAA@XZ@4HA
pdata	ENDS
;	COMDAT pdata
pdata	SEGMENT
$pdata$??0hookData@@QEAA@AEBU0@@Z DD imagerel $LN5
	DD	imagerel $LN5+146
	DD	imagerel $unwind$??0hookData@@QEAA@AEBU0@@Z
pdata	ENDS
;	COMDAT pdata
pdata	SEGMENT
$pdata$?dtor$0@?0???0hookData@@QEAA@AEBU0@@Z@4HA DD imagerel ?dtor$0@?0???0hookData@@QEAA@AEBU0@@Z@4HA
	DD	imagerel ?dtor$0@?0???0hookData@@QEAA@AEBU0@@Z@4HA+35
	DD	imagerel $unwind$?dtor$0@?0???0hookData@@QEAA@AEBU0@@Z@4HA
pdata	ENDS
;	COMDAT pdata
pdata	SEGMENT
$pdata$?dtor$1@?0???0hookData@@QEAA@AEBU0@@Z@4HA DD imagerel ?dtor$1@?0???0hookData@@QEAA@AEBU0@@Z@4HA
	DD	imagerel ?dtor$1@?0???0hookData@@QEAA@AEBU0@@Z@4HA+39
	DD	imagerel $unwind$?dtor$1@?0???0hookData@@QEAA@AEBU0@@Z@4HA
pdata	ENDS
;	COMDAT pdata
pdata	SEGMENT
$pdata$??0hookData@@QEAA@$$QEAU0@@Z DD imagerel $LN5
	DD	imagerel $LN5+146
	DD	imagerel $unwind$??0hookData@@QEAA@$$QEAU0@@Z
pdata	ENDS
;	COMDAT pdata
pdata	SEGMENT
$pdata$?dtor$0@?0???0hookData@@QEAA@$$QEAU0@@Z@4HA DD imagerel ?dtor$0@?0???0hookData@@QEAA@$$QEAU0@@Z@4HA
	DD	imagerel ?dtor$0@?0???0hookData@@QEAA@$$QEAU0@@Z@4HA+35
	DD	imagerel $unwind$?dtor$0@?0???0hookData@@QEAA@$$QEAU0@@Z@4HA
pdata	ENDS
;	COMDAT pdata
pdata	SEGMENT
$pdata$?dtor$1@?0???0hookData@@QEAA@$$QEAU0@@Z@4HA DD imagerel ?dtor$1@?0???0hookData@@QEAA@$$QEAU0@@Z@4HA
	DD	imagerel ?dtor$1@?0???0hookData@@QEAA@$$QEAU0@@Z@4HA+39
	DD	imagerel $unwind$?dtor$1@?0???0hookData@@QEAA@$$QEAU0@@Z@4HA
pdata	ENDS
;	COMDAT pdata
pdata	SEGMENT
$pdata$??4hookData@@QEAAAEAU0@$$QEAU0@@Z DD imagerel $LN3
	DD	imagerel $LN3+144
	DD	imagerel $unwind$??4hookData@@QEAAAEAU0@$$QEAU0@@Z
pdata	ENDS
;	COMDAT pdata
pdata	SEGMENT
$pdata$??_GhookData@@QEAAPEAXI@Z DD imagerel $LN4
	DD	imagerel $LN4+81
	DD	imagerel $unwind$??_GhookData@@QEAAPEAXI@Z
pdata	ENDS
pdata	SEGMENT
$pdata$??0apihook@@QEAA@XZ DD imagerel $LN4
	DD	imagerel $LN4+55
	DD	imagerel $unwind$??0apihook@@QEAA@XZ
pdata	ENDS
pdata	SEGMENT
$pdata$?dtor$0@?0???0apihook@@QEAA@XZ@4HA DD imagerel ?dtor$0@?0???0apihook@@QEAA@XZ@4HA
	DD	imagerel ?dtor$0@?0???0apihook@@QEAA@XZ@4HA+35
	DD	imagerel $unwind$?dtor$0@?0???0apihook@@QEAA@XZ@4HA
pdata	ENDS
pdata	SEGMENT
$pdata$??1apihook@@QEAA@XZ DD imagerel $LN4
	DD	imagerel $LN4+61
	DD	imagerel $unwind$??1apihook@@QEAA@XZ
pdata	ENDS
pdata	SEGMENT
$pdata$?dtor$0@?0???1apihook@@QEAA@XZ@4HA DD imagerel ?dtor$0@?0???1apihook@@QEAA@XZ@4HA
	DD	imagerel ?dtor$0@?0???1apihook@@QEAA@XZ@4HA+35
	DD	imagerel $unwind$?dtor$0@?0???1apihook@@QEAA@XZ@4HA
pdata	ENDS
pdata	SEGMENT
$pdata$?hook@apihook@@QEAAHPEBD0PEAXPEAPEAX@Z DD imagerel $LN6
	DD	imagerel $LN6+377
	DD	imagerel $unwind$?hook@apihook@@QEAAHPEBD0PEAXPEAPEAX@Z
pdata	ENDS
pdata	SEGMENT
$pdata$?dtor$0@?0??hook@apihook@@QEAAHPEBD0PEAXPEAPEAX@Z@4HA DD imagerel ?dtor$0@?0??hook@apihook@@QEAAHPEBD0PEAXPEAPEAX@Z@4HA
	DD	imagerel ?dtor$0@?0??hook@apihook@@QEAAHPEBD0PEAXPEAPEAX@Z@4HA+35
	DD	imagerel $unwind$?dtor$0@?0??hook@apihook@@QEAAHPEBD0PEAXPEAPEAX@Z@4HA
pdata	ENDS
pdata	SEGMENT
$pdata$?print_all_func@apihook@@SAXXZ DD imagerel $LN3
	DD	imagerel $LN3+39
	DD	imagerel $unwind$?print_all_func@apihook@@SAXXZ
$pdata$?fin@apihook@@QEAAXXZ DD imagerel $LN8
	DD	imagerel $LN8+229
	DD	imagerel $unwind$?fin@apihook@@QEAAXXZ
$pdata$?fin@apihook@@QEAAXPEBD0@Z DD imagerel $LN12
	DD	imagerel $LN12+642
	DD	imagerel $unwind$?fin@apihook@@QEAAXPEBD0@Z
pdata	ENDS
pdata	SEGMENT
$pdata$?dtor$0@?0??fin@apihook@@QEAAXPEBD0@Z@4HA DD imagerel ?dtor$0@?0??fin@apihook@@QEAAXPEBD0@Z@4HA
	DD	imagerel ?dtor$0@?0??fin@apihook@@QEAAXPEBD0@Z@4HA+35
	DD	imagerel $unwind$?dtor$0@?0??fin@apihook@@QEAAXPEBD0@Z@4HA
$pdata$?dtor$1@?0??fin@apihook@@QEAAXPEBD0@Z@4HA DD imagerel ?dtor$1@?0??fin@apihook@@QEAAXPEBD0@Z@4HA
	DD	imagerel ?dtor$1@?0??fin@apihook@@QEAAXPEBD0@Z@4HA+38
	DD	imagerel $unwind$?dtor$1@?0??fin@apihook@@QEAAXPEBD0@Z@4HA
$pdata$?dtor$2@?0??fin@apihook@@QEAAXPEBD0@Z@4HA DD imagerel ?dtor$2@?0??fin@apihook@@QEAAXPEBD0@Z@4HA
	DD	imagerel ?dtor$2@?0??fin@apihook@@QEAAXPEBD0@Z@4HA+35
	DD	imagerel $unwind$?dtor$2@?0??fin@apihook@@QEAAXPEBD0@Z@4HA
$pdata$?dtor$3@?0??fin@apihook@@QEAAXPEBD0@Z@4HA DD imagerel ?dtor$3@?0??fin@apihook@@QEAAXPEBD0@Z@4HA
	DD	imagerel ?dtor$3@?0??fin@apihook@@QEAAXPEBD0@Z@4HA+38
	DD	imagerel $unwind$?dtor$3@?0??fin@apihook@@QEAAXPEBD0@Z@4HA
$pdata$?dtor$4@?0??fin@apihook@@QEAAXPEBD0@Z@4HA DD imagerel ?dtor$4@?0??fin@apihook@@QEAAXPEBD0@Z@4HA
	DD	imagerel ?dtor$4@?0??fin@apihook@@QEAAXPEBD0@Z@4HA+38
	DD	imagerel $unwind$?dtor$4@?0??fin@apihook@@QEAAXPEBD0@Z@4HA
pdata	ENDS
pdata	SEGMENT
$pdata$?fin@apihook@@QEAAXPEAX@Z DD imagerel $LN12
	DD	imagerel $LN12+608
	DD	imagerel $unwind$?fin@apihook@@QEAAXPEAX@Z
pdata	ENDS
pdata	SEGMENT
$pdata$?dtor$0@?0??fin@apihook@@QEAAXPEAX@Z@4HA DD imagerel ?dtor$0@?0??fin@apihook@@QEAAXPEAX@Z@4HA
	DD	imagerel ?dtor$0@?0??fin@apihook@@QEAAXPEAX@Z@4HA+35
	DD	imagerel $unwind$?dtor$0@?0??fin@apihook@@QEAAXPEAX@Z@4HA
$pdata$?dtor$1@?0??fin@apihook@@QEAAXPEAX@Z@4HA DD imagerel ?dtor$1@?0??fin@apihook@@QEAAXPEAX@Z@4HA
	DD	imagerel ?dtor$1@?0??fin@apihook@@QEAAXPEAX@Z@4HA+38
	DD	imagerel $unwind$?dtor$1@?0??fin@apihook@@QEAAXPEAX@Z@4HA
$pdata$?dtor$2@?0??fin@apihook@@QEAAXPEAX@Z@4HA DD imagerel ?dtor$2@?0??fin@apihook@@QEAAXPEAX@Z@4HA
	DD	imagerel ?dtor$2@?0??fin@apihook@@QEAAXPEAX@Z@4HA+35
	DD	imagerel $unwind$?dtor$2@?0??fin@apihook@@QEAAXPEAX@Z@4HA
$pdata$?dtor$3@?0??fin@apihook@@QEAAXPEAX@Z@4HA DD imagerel ?dtor$3@?0??fin@apihook@@QEAAXPEAX@Z@4HA
	DD	imagerel ?dtor$3@?0??fin@apihook@@QEAAXPEAX@Z@4HA+38
	DD	imagerel $unwind$?dtor$3@?0??fin@apihook@@QEAAXPEAX@Z@4HA
$pdata$?dtor$4@?0??fin@apihook@@QEAAXPEAX@Z@4HA DD imagerel ?dtor$4@?0??fin@apihook@@QEAAXPEAX@Z@4HA
	DD	imagerel ?dtor$4@?0??fin@apihook@@QEAAXPEAX@Z@4HA+38
	DD	imagerel $unwind$?dtor$4@?0??fin@apihook@@QEAAXPEAX@Z@4HA
pdata	ENDS
pdata	SEGMENT
$pdata$?get_orig@apihook@@QEAAPEAXPEBD0@Z DD imagerel $LN9
	DD	imagerel $LN9+433
	DD	imagerel $unwind$?get_orig@apihook@@QEAAPEAXPEBD0@Z
pdata	ENDS
pdata	SEGMENT
$pdata$?dtor$0@?0??get_orig@apihook@@QEAAPEAXPEBD0@Z@4HA DD imagerel ?dtor$0@?0??get_orig@apihook@@QEAAPEAXPEBD0@Z@4HA
	DD	imagerel ?dtor$0@?0??get_orig@apihook@@QEAAPEAXPEBD0@Z@4HA+35
	DD	imagerel $unwind$?dtor$0@?0??get_orig@apihook@@QEAAPEAXPEBD0@Z@4HA
$pdata$?dtor$1@?0??get_orig@apihook@@QEAAPEAXPEBD0@Z@4HA DD imagerel ?dtor$1@?0??get_orig@apihook@@QEAAPEAXPEBD0@Z@4HA
	DD	imagerel ?dtor$1@?0??get_orig@apihook@@QEAAPEAXPEBD0@Z@4HA+38
	DD	imagerel $unwind$?dtor$1@?0??get_orig@apihook@@QEAAPEAXPEBD0@Z@4HA
$pdata$?dtor$2@?0??get_orig@apihook@@QEAAPEAXPEBD0@Z@4HA DD imagerel ?dtor$2@?0??get_orig@apihook@@QEAAPEAXPEBD0@Z@4HA
	DD	imagerel ?dtor$2@?0??get_orig@apihook@@QEAAPEAXPEBD0@Z@4HA+35
	DD	imagerel $unwind$?dtor$2@?0??get_orig@apihook@@QEAAPEAXPEBD0@Z@4HA
$pdata$?dtor$3@?0??get_orig@apihook@@QEAAPEAXPEBD0@Z@4HA DD imagerel ?dtor$3@?0??get_orig@apihook@@QEAAPEAXPEBD0@Z@4HA
	DD	imagerel ?dtor$3@?0??get_orig@apihook@@QEAAPEAXPEBD0@Z@4HA+38
	DD	imagerel $unwind$?dtor$3@?0??get_orig@apihook@@QEAAPEAXPEBD0@Z@4HA
pdata	ENDS
pdata	SEGMENT
$pdata$?hook_function@apihook@@CAPEAXPEBD0PEAX@Z DD imagerel $LN20
	DD	imagerel $LN20+714
	DD	imagerel $unwind$?hook_function@apihook@@CAPEAXPEBD0PEAX@Z
pdata	ENDS
;	COMDAT pdata
pdata	SEGMENT
$pdata$??0?$allocator@UhookData@@@std@@QEAA@XZ DD imagerel $LN3
	DD	imagerel $LN3+13
	DD	imagerel $unwind$??0?$allocator@UhookData@@@std@@QEAA@XZ
pdata	ENDS
;	COMDAT pdata
pdata	SEGMENT
$pdata$?deallocate@?$allocator@UhookData@@@std@@QEAAXQEAUhookData@@_K@Z DD imagerel $LN3
	DD	imagerel $LN3+65
	DD	imagerel $unwind$?deallocate@?$allocator@UhookData@@@std@@QEAAXQEAUhookData@@_K@Z
pdata	ENDS
;	COMDAT pdata
pdata	SEGMENT
$pdata$?allocate@?$allocator@UhookData@@@std@@QEAAPEAUhookData@@_K@Z DD imagerel $LN3
	DD	imagerel $LN3+59
	DD	imagerel $unwind$?allocate@?$allocator@UhookData@@@std@@QEAAPEAUhookData@@_K@Z
pdata	ENDS
;	COMDAT pdata
pdata	SEGMENT
$pdata$?max_size@?$_Default_allocator_traits@V?$allocator@UhookData@@@std@@@std@@SA_KAEBV?$allocator@UhookData@@@2@@Z DD imagerel $LN3
	DD	imagerel $LN3+18
	DD	imagerel $unwind$?max_size@?$_Default_allocator_traits@V?$allocator@UhookData@@@std@@@std@@SA_KAEBV?$allocator@UhookData@@@2@@Z
pdata	ENDS
;	COMDAT pdata
pdata	SEGMENT
$pdata$??0?$vector@UhookData@@V?$allocator@UhookData@@@std@@@std@@QEAA@XZ DD imagerel $LN3
	DD	imagerel $LN3+99
	DD	imagerel $unwind$??0?$vector@UhookData@@V?$allocator@UhookData@@@std@@@std@@QEAA@XZ
pdata	ENDS
;	COMDAT pdata
pdata	SEGMENT
$pdata$??1?$vector@UhookData@@V?$allocator@UhookData@@@std@@@std@@QEAA@XZ DD imagerel $LN3
	DD	imagerel $LN3+140
	DD	imagerel $unwind$??1?$vector@UhookData@@V?$allocator@UhookData@@@std@@@std@@QEAA@XZ
pdata	ENDS
;	COMDAT pdata
pdata	SEGMENT
$pdata$?push_back@?$vector@UhookData@@V?$allocator@UhookData@@@std@@@std@@QEAAXAEBUhookData@@@Z DD imagerel $LN3
	DD	imagerel $LN3+56
	DD	imagerel $unwind$?push_back@?$vector@UhookData@@V?$allocator@UhookData@@@std@@@std@@QEAAXAEBUhookData@@@Z
pdata	ENDS
;	COMDAT pdata
pdata	SEGMENT
$pdata$?erase@?$vector@UhookData@@V?$allocator@UhookData@@@std@@@std@@QEAA?AV?$_Vector_iterator@V?$_Vector_val@U?$_Simple_types@UhookData@@@std@@@std@@@2@V?$_Vector_const_iterator@V?$_Vector_val@U?$_Simple_types@UhookData@@@std@@@std@@@2@@Z DD imagerel $LN15
	DD	imagerel $LN15+465
	DD	imagerel $unwind$?erase@?$vector@UhookData@@V?$allocator@UhookData@@@std@@@std@@QEAA?AV?$_Vector_iterator@V?$_Vector_val@U?$_Simple_types@UhookData@@@std@@@std@@@2@V?$_Vector_const_iterator@V?$_Vector_val@U?$_Simple_types@UhookData@@@std@@@std@@@2@@Z
pdata	ENDS
;	COMDAT pdata
pdata	SEGMENT
$pdata$?dtor$0@?0??erase@?$vector@UhookData@@V?$allocator@UhookData@@@std@@@std@@QEAA?AV?$_Vector_iterator@V?$_Vector_val@U?$_Simple_types@UhookData@@@std@@@std@@@2@V?$_Vector_const_iterator@V?$_Vector_val@U?$_Simple_types@UhookData@@@std@@@std@@@2@@Z@4HA DD imagerel ?dtor$0@?0??erase@?$vector@UhookData@@V?$allocator@UhookData@@@std@@@std@@QEAA?AV?$_Vector_iterator@V?$_Vector_val@U?$_Simple_types@UhookData@@@std@@@std@@@2@V?$_Vector_const_iterator@V?$_Vector_val@U?$_Simple_types@UhookData@@@std@@@std@@@2@@Z@4HA
	DD	imagerel ?dtor$0@?0??erase@?$vector@UhookData@@V?$allocator@UhookData@@@std@@@std@@QEAA?AV?$_Vector_iterator@V?$_Vector_val@U?$_Simple_types@UhookData@@@std@@@std@@@2@V?$_Vector_const_iterator@V?$_Vector_val@U?$_Simple_types@UhookData@@@std@@@std@@@2@@Z@4HA+38
	DD	imagerel $unwind$?dtor$0@?0??erase@?$vector@UhookData@@V?$allocator@UhookData@@@std@@@std@@QEAA?AV?$_Vector_iterator@V?$_Vector_val@U?$_Simple_types@UhookData@@@std@@@std@@@2@V?$_Vector_const_iterator@V?$_Vector_val@U?$_Simple_types@UhookData@@@std@@@std@@@2@@Z@4HA
pdata	ENDS
;	COMDAT pdata
pdata	SEGMENT
$pdata$?dtor$1@?0??erase@?$vector@UhookData@@V?$allocator@UhookData@@@std@@@std@@QEAA?AV?$_Vector_iterator@V?$_Vector_val@U?$_Simple_types@UhookData@@@std@@@std@@@2@V?$_Vector_const_iterator@V?$_Vector_val@U?$_Simple_types@UhookData@@@std@@@std@@@2@@Z@4HA DD imagerel ?dtor$1@?0??erase@?$vector@UhookData@@V?$allocator@UhookData@@@std@@@std@@QEAA?AV?$_Vector_iterator@V?$_Vector_val@U?$_Simple_types@UhookData@@@std@@@std@@@2@V?$_Vector_const_iterator@V?$_Vector_val@U?$_Simple_types@UhookData@@@std@@@std@@@2@@Z@4HA
	DD	imagerel ?dtor$1@?0??erase@?$vector@UhookData@@V?$allocator@UhookData@@@std@@@std@@QEAA?AV?$_Vector_iterator@V?$_Vector_val@U?$_Simple_types@UhookData@@@std@@@std@@@2@V?$_Vector_const_iterator@V?$_Vector_val@U?$_Simple_types@UhookData@@@std@@@std@@@2@@Z@4HA+49
	DD	imagerel $unwind$?dtor$1@?0??erase@?$vector@UhookData@@V?$allocator@UhookData@@@std@@@std@@QEAA?AV?$_Vector_iterator@V?$_Vector_val@U?$_Simple_types@UhookData@@@std@@@std@@@2@V?$_Vector_const_iterator@V?$_Vector_val@U?$_Simple_types@UhookData@@@std@@@std@@@2@@Z@4HA
pdata	ENDS
;	COMDAT pdata
pdata	SEGMENT
$pdata$?clear@?$vector@UhookData@@V?$allocator@UhookData@@@std@@@std@@QEAAXXZ DD imagerel $LN3
	DD	imagerel $LN3+128
	DD	imagerel $unwind$?clear@?$vector@UhookData@@V?$allocator@UhookData@@@std@@@std@@QEAAXXZ
pdata	ENDS
;	COMDAT pdata
pdata	SEGMENT
$pdata$?begin@?$vector@UhookData@@V?$allocator@UhookData@@@std@@@std@@QEAA?AV?$_Vector_iterator@V?$_Vector_val@U?$_Simple_types@UhookData@@@std@@@std@@@2@XZ DD imagerel $LN5
	DD	imagerel $LN5+110
	DD	imagerel $unwind$?begin@?$vector@UhookData@@V?$allocator@UhookData@@@std@@@std@@QEAA?AV?$_Vector_iterator@V?$_Vector_val@U?$_Simple_types@UhookData@@@std@@@std@@@2@XZ
pdata	ENDS
;	COMDAT pdata
pdata	SEGMENT
$pdata$?dtor$0@?0??begin@?$vector@UhookData@@V?$allocator@UhookData@@@std@@@std@@QEAA?AV?$_Vector_iterator@V?$_Vector_val@U?$_Simple_types@UhookData@@@std@@@std@@@2@XZ@4HA DD imagerel ?dtor$0@?0??begin@?$vector@UhookData@@V?$allocator@UhookData@@@std@@@std@@QEAA?AV?$_Vector_iterator@V?$_Vector_val@U?$_Simple_types@UhookData@@@std@@@std@@@2@XZ@4HA
	DD	imagerel ?dtor$0@?0??begin@?$vector@UhookData@@V?$allocator@UhookData@@@std@@@std@@QEAA?AV?$_Vector_iterator@V?$_Vector_val@U?$_Simple_types@UhookData@@@std@@@std@@@2@XZ@4HA+49
	DD	imagerel $unwind$?dtor$0@?0??begin@?$vector@UhookData@@V?$allocator@UhookData@@@std@@@std@@QEAA?AV?$_Vector_iterator@V?$_Vector_val@U?$_Simple_types@UhookData@@@std@@@std@@@2@XZ@4HA
pdata	ENDS
;	COMDAT pdata
pdata	SEGMENT
$pdata$?end@?$vector@UhookData@@V?$allocator@UhookData@@@std@@@std@@QEAA?AV?$_Vector_iterator@V?$_Vector_val@U?$_Simple_types@UhookData@@@std@@@std@@@2@XZ DD imagerel $LN5
	DD	imagerel $LN5+110
	DD	imagerel $unwind$?end@?$vector@UhookData@@V?$allocator@UhookData@@@std@@@std@@QEAA?AV?$_Vector_iterator@V?$_Vector_val@U?$_Simple_types@UhookData@@@std@@@std@@@2@XZ
pdata	ENDS
;	COMDAT pdata
pdata	SEGMENT
$pdata$?dtor$0@?0??end@?$vector@UhookData@@V?$allocator@UhookData@@@std@@@std@@QEAA?AV?$_Vector_iterator@V?$_Vector_val@U?$_Simple_types@UhookData@@@std@@@std@@@2@XZ@4HA DD imagerel ?dtor$0@?0??end@?$vector@UhookData@@V?$allocator@UhookData@@@std@@@std@@QEAA?AV?$_Vector_iterator@V?$_Vector_val@U?$_Simple_types@UhookData@@@std@@@std@@@2@XZ@4HA
	DD	imagerel ?dtor$0@?0??end@?$vector@UhookData@@V?$allocator@UhookData@@@std@@@std@@QEAA?AV?$_Vector_iterator@V?$_Vector_val@U?$_Simple_types@UhookData@@@std@@@std@@@2@XZ@4HA+49
	DD	imagerel $unwind$?dtor$0@?0??end@?$vector@UhookData@@V?$allocator@UhookData@@@std@@@std@@QEAA?AV?$_Vector_iterator@V?$_Vector_val@U?$_Simple_types@UhookData@@@std@@@std@@@2@XZ@4HA
pdata	ENDS
;	COMDAT pdata
pdata	SEGMENT
$pdata$?_Unchecked_begin@?$vector@UhookData@@V?$allocator@UhookData@@@std@@@std@@QEAAPEAUhookData@@XZ DD imagerel $LN3
	DD	imagerel $LN3+17
	DD	imagerel $unwind$?_Unchecked_begin@?$vector@UhookData@@V?$allocator@UhookData@@@std@@@std@@QEAAPEAUhookData@@XZ
pdata	ENDS
;	COMDAT pdata
pdata	SEGMENT
$pdata$?_Unchecked_end@?$vector@UhookData@@V?$allocator@UhookData@@@std@@@std@@QEAAPEAUhookData@@XZ DD imagerel $LN3
	DD	imagerel $LN3+17
	DD	imagerel $unwind$?_Unchecked_end@?$vector@UhookData@@V?$allocator@UhookData@@@std@@@std@@QEAAPEAUhookData@@XZ
pdata	ENDS
;	COMDAT pdata
pdata	SEGMENT
$pdata$?max_size@?$vector@UhookData@@V?$allocator@UhookData@@@std@@@std@@QEBA_KXZ DD imagerel $LN3
	DD	imagerel $LN3+87
	DD	imagerel $unwind$?max_size@?$vector@UhookData@@V?$allocator@UhookData@@@std@@@std@@QEBA_KXZ
pdata	ENDS
;	COMDAT pdata
pdata	SEGMENT
$pdata$?capacity@?$vector@UhookData@@V?$allocator@UhookData@@@std@@@std@@QEBA_KXZ DD imagerel $LN3
	DD	imagerel $LN3+74
	DD	imagerel $unwind$?capacity@?$vector@UhookData@@V?$allocator@UhookData@@@std@@@std@@QEBA_KXZ
pdata	ENDS
;	COMDAT pdata
pdata	SEGMENT
$pdata$?_Umove@?$vector@UhookData@@V?$allocator@UhookData@@@std@@@std@@AEAAPEAUhookData@@PEAU3@00@Z DD imagerel $LN3
	DD	imagerel $LN3+84
	DD	imagerel $unwind$?_Umove@?$vector@UhookData@@V?$allocator@UhookData@@@std@@@std@@AEAAPEAUhookData@@PEAU3@00@Z
pdata	ENDS
;	COMDAT pdata
pdata	SEGMENT
$pdata$?_Umove_if_noexcept1@?$vector@UhookData@@V?$allocator@UhookData@@@std@@@std@@AEAAXPEAUhookData@@00U?$integral_constant@_N$00@2@@Z DD imagerel $LN3
	DD	imagerel $LN3+84
	DD	imagerel $unwind$?_Umove_if_noexcept1@?$vector@UhookData@@V?$allocator@UhookData@@@std@@@std@@AEAAXPEAUhookData@@00U?$integral_constant@_N$00@2@@Z
pdata	ENDS
;	COMDAT pdata
pdata	SEGMENT
$pdata$?_Umove_if_noexcept@?$vector@UhookData@@V?$allocator@UhookData@@@std@@@std@@AEAAXPEAUhookData@@00@Z DD imagerel $LN3
	DD	imagerel $LN3+102
	DD	imagerel $unwind$?_Umove_if_noexcept@?$vector@UhookData@@V?$allocator@UhookData@@@std@@@std@@AEAAXPEAUhookData@@00@Z
pdata	ENDS
;	COMDAT pdata
pdata	SEGMENT
$pdata$?_Destroy@?$vector@UhookData@@V?$allocator@UhookData@@@std@@@std@@AEAAXPEAUhookData@@0@Z DD imagerel $LN3
	DD	imagerel $LN3+74
	DD	imagerel $unwind$?_Destroy@?$vector@UhookData@@V?$allocator@UhookData@@@std@@@std@@AEAAXPEAUhookData@@0@Z
pdata	ENDS
;	COMDAT pdata
pdata	SEGMENT
$pdata$?_Calculate_growth@?$vector@UhookData@@V?$allocator@UhookData@@@std@@@std@@AEBA_K_K@Z DD imagerel $LN5
	DD	imagerel $LN5+166
	DD	imagerel $unwind$?_Calculate_growth@?$vector@UhookData@@V?$allocator@UhookData@@@std@@@std@@AEBA_K_K@Z
pdata	ENDS
;	COMDAT pdata
pdata	SEGMENT
$pdata$?_Change_array@?$vector@UhookData@@V?$allocator@UhookData@@@std@@@std@@AEAAXQEAUhookData@@_K1@Z DD imagerel $LN4
	DD	imagerel $LN4+281
	DD	imagerel $unwind$?_Change_array@?$vector@UhookData@@V?$allocator@UhookData@@@std@@@std@@AEAAXQEAUhookData@@_K1@Z
pdata	ENDS
;	COMDAT pdata
pdata	SEGMENT
$pdata$?_Tidy@?$vector@UhookData@@V?$allocator@UhookData@@@std@@@std@@AEAAXXZ DD imagerel $LN4
	DD	imagerel $LN4+247
	DD	imagerel $unwind$?_Tidy@?$vector@UhookData@@V?$allocator@UhookData@@@std@@@std@@AEAAXXZ
pdata	ENDS
;	COMDAT pdata
pdata	SEGMENT
$pdata$?_Xlength@?$vector@UhookData@@V?$allocator@UhookData@@@std@@@std@@CAXXZ DD imagerel $LN3
	DD	imagerel $LN3+39
	DD	imagerel $unwind$?_Xlength@?$vector@UhookData@@V?$allocator@UhookData@@@std@@@std@@CAXXZ
pdata	ENDS
;	COMDAT pdata
pdata	SEGMENT
$pdata$?_Orphan_range@?$vector@UhookData@@V?$allocator@UhookData@@@std@@@std@@AEBAXPEAUhookData@@0@Z DD imagerel $LN9
	DD	imagerel $LN9+214
	DD	imagerel $unwind$?_Orphan_range@?$vector@UhookData@@V?$allocator@UhookData@@@std@@@std@@AEBAXPEAUhookData@@0@Z
pdata	ENDS
;	COMDAT pdata
pdata	SEGMENT
$pdata$?dtor$0@?0??_Orphan_range@?$vector@UhookData@@V?$allocator@UhookData@@@std@@@std@@AEBAXPEAUhookData@@0@Z@4HA DD imagerel ?dtor$0@?0??_Orphan_range@?$vector@UhookData@@V?$allocator@UhookData@@@std@@@std@@AEBAXPEAUhookData@@0@Z@4HA
	DD	imagerel ?dtor$0@?0??_Orphan_range@?$vector@UhookData@@V?$allocator@UhookData@@@std@@@std@@AEBAXPEAUhookData@@0@Z@4HA+36
	DD	imagerel $unwind$?dtor$0@?0??_Orphan_range@?$vector@UhookData@@V?$allocator@UhookData@@@std@@@std@@AEBAXPEAUhookData@@0@Z@4HA
pdata	ENDS
;	COMDAT pdata
pdata	SEGMENT
$pdata$?_Getal@?$vector@UhookData@@V?$allocator@UhookData@@@std@@@std@@AEAAAEAV?$allocator@UhookData@@@2@XZ DD imagerel $LN3
	DD	imagerel $LN3+49
	DD	imagerel $unwind$?_Getal@?$vector@UhookData@@V?$allocator@UhookData@@@std@@@std@@AEAAAEAV?$allocator@UhookData@@@2@XZ
pdata	ENDS
;	COMDAT pdata
pdata	SEGMENT
$pdata$?_Getal@?$vector@UhookData@@V?$allocator@UhookData@@@std@@@std@@AEBAAEBV?$allocator@UhookData@@@2@XZ DD imagerel $LN3
	DD	imagerel $LN3+49
	DD	imagerel $unwind$?_Getal@?$vector@UhookData@@V?$allocator@UhookData@@@std@@@std@@AEBAAEBV?$allocator@UhookData@@@2@XZ
pdata	ENDS
;	COMDAT pdata
pdata	SEGMENT
$pdata$??0?$_Vector_val@U?$_Simple_types@UhookData@@@std@@@std@@QEAA@XZ DD imagerel $LN3
	DD	imagerel $LN3+90
	DD	imagerel $unwind$??0?$_Vector_val@U?$_Simple_types@UhookData@@@std@@@std@@QEAA@XZ
pdata	ENDS
;	COMDAT pdata
pdata	SEGMENT
$pdata$?_Get_first@?$_Compressed_pair@V?$allocator@UhookData@@@std@@V?$_Vector_val@U?$_Simple_types@UhookData@@@std@@@2@$00@std@@QEAAAEAV?$allocator@UhookData@@@2@XZ DD imagerel $LN3
	DD	imagerel $LN3+13
	DD	imagerel $unwind$?_Get_first@?$_Compressed_pair@V?$allocator@UhookData@@@std@@V?$_Vector_val@U?$_Simple_types@UhookData@@@std@@@2@$00@std@@QEAAAEAV?$allocator@UhookData@@@2@XZ
pdata	ENDS
;	COMDAT pdata
pdata	SEGMENT
$pdata$?_Get_first@?$_Compressed_pair@V?$allocator@UhookData@@@std@@V?$_Vector_val@U?$_Simple_types@UhookData@@@std@@@2@$00@std@@QEBAAEBV?$allocator@UhookData@@@2@XZ DD imagerel $LN3
	DD	imagerel $LN3+13
	DD	imagerel $unwind$?_Get_first@?$_Compressed_pair@V?$allocator@UhookData@@@std@@V?$_Vector_val@U?$_Simple_types@UhookData@@@std@@@2@$00@std@@QEBAAEBV?$allocator@UhookData@@@2@XZ
pdata	ENDS
;	COMDAT pdata
pdata	SEGMENT
$pdata$??0?$_Vector_const_iterator@V?$_Vector_val@U?$_Simple_types@UhookData@@@std@@@std@@@std@@QEAA@PEAUhookData@@PEBU_Container_base12@1@@Z DD imagerel $LN4
	DD	imagerel $LN4+92
	DD	imagerel $unwind$??0?$_Vector_const_iterator@V?$_Vector_val@U?$_Simple_types@UhookData@@@std@@@std@@@std@@QEAA@PEAUhookData@@PEBU_Container_base12@1@@Z
pdata	ENDS
;	COMDAT pdata
pdata	SEGMENT
$pdata$?dtor$0@?0???0?$_Vector_const_iterator@V?$_Vector_val@U?$_Simple_types@UhookData@@@std@@@std@@@std@@QEAA@PEAUhookData@@PEBU_Container_base12@1@@Z@4HA DD imagerel ?dtor$0@?0???0?$_Vector_const_iterator@V?$_Vector_val@U?$_Simple_types@UhookData@@@std@@@std@@@std@@QEAA@PEAUhookData@@PEBU_Container_base12@1@@Z@4HA
	DD	imagerel ?dtor$0@?0???0?$_Vector_const_iterator@V?$_Vector_val@U?$_Simple_types@UhookData@@@std@@@std@@@std@@QEAA@PEAUhookData@@PEBU_Container_base12@1@@Z@4HA+35
	DD	imagerel $unwind$?dtor$0@?0???0?$_Vector_const_iterator@V?$_Vector_val@U?$_Simple_types@UhookData@@@std@@@std@@@std@@QEAA@PEAUhookData@@PEBU_Container_base12@1@@Z@4HA
pdata	ENDS
;	COMDAT pdata
pdata	SEGMENT
$pdata$??C?$_Vector_const_iterator@V?$_Vector_val@U?$_Simple_types@UhookData@@@std@@@std@@@std@@QEBAPEBUhookData@@XZ DD imagerel $LN21
	DD	imagerel $LN21+346
	DD	imagerel $unwind$??C?$_Vector_const_iterator@V?$_Vector_val@U?$_Simple_types@UhookData@@@std@@@std@@@std@@QEBAPEBUhookData@@XZ
pdata	ENDS
;	COMDAT pdata
pdata	SEGMENT
$pdata$??8?$_Vector_const_iterator@V?$_Vector_val@U?$_Simple_types@UhookData@@@std@@@std@@@std@@QEBA_NAEBV01@@Z DD imagerel $LN5
	DD	imagerel $LN5+99
	DD	imagerel $unwind$??8?$_Vector_const_iterator@V?$_Vector_val@U?$_Simple_types@UhookData@@@std@@@std@@@std@@QEBA_NAEBV01@@Z
pdata	ENDS
;	COMDAT pdata
pdata	SEGMENT
$pdata$??9?$_Vector_const_iterator@V?$_Vector_val@U?$_Simple_types@UhookData@@@std@@@std@@@std@@QEBA_NAEBV01@@Z DD imagerel $LN5
	DD	imagerel $LN5+86
	DD	imagerel $unwind$??9?$_Vector_const_iterator@V?$_Vector_val@U?$_Simple_types@UhookData@@@std@@@std@@@std@@QEBA_NAEBV01@@Z
pdata	ENDS
;	COMDAT pdata
pdata	SEGMENT
$pdata$?_Compat@?$_Vector_const_iterator@V?$_Vector_val@U?$_Simple_types@UhookData@@@std@@@std@@@std@@QEBAXAEBV12@@Z DD imagerel $LN12
	DD	imagerel $LN12+195
	DD	imagerel $unwind$?_Compat@?$_Vector_const_iterator@V?$_Vector_val@U?$_Simple_types@UhookData@@@std@@@std@@@std@@QEBAXAEBV12@@Z
pdata	ENDS
;	COMDAT pdata
pdata	SEGMENT
$pdata$?_Verify_range@std@@YAXAEBV?$_Vector_const_iterator@V?$_Vector_val@U?$_Simple_types@UhookData@@@std@@@std@@@1@0@Z DD imagerel $LN21
	DD	imagerel $LN21+334
	DD	imagerel $unwind$?_Verify_range@std@@YAXAEBV?$_Vector_const_iterator@V?$_Vector_val@U?$_Simple_types@UhookData@@@std@@@std@@@1@0@Z
pdata	ENDS
;	COMDAT pdata
pdata	SEGMENT
$pdata$?_Seek_to@?$_Vector_const_iterator@V?$_Vector_val@U?$_Simple_types@UhookData@@@std@@@std@@@std@@QEAAXPEBUhookData@@@Z DD imagerel $LN3
	DD	imagerel $LN3+60
	DD	imagerel $unwind$?_Seek_to@?$_Vector_const_iterator@V?$_Vector_val@U?$_Simple_types@UhookData@@@std@@@std@@@std@@QEAAXPEBUhookData@@@Z
pdata	ENDS
;	COMDAT pdata
pdata	SEGMENT
$pdata$??1?$_Vector_const_iterator@V?$_Vector_val@U?$_Simple_types@UhookData@@@std@@@std@@@std@@QEAA@XZ DD imagerel $LN4
	DD	imagerel $LN4+47
	DD	imagerel $unwind$??1?$_Vector_const_iterator@V?$_Vector_val@U?$_Simple_types@UhookData@@@std@@@std@@@std@@QEAA@XZ
pdata	ENDS
;	COMDAT pdata
pdata	SEGMENT
$pdata$?dtor$0@?0???1?$_Vector_const_iterator@V?$_Vector_val@U?$_Simple_types@UhookData@@@std@@@std@@@std@@QEAA@XZ@4HA DD imagerel ?dtor$0@?0???1?$_Vector_const_iterator@V?$_Vector_val@U?$_Simple_types@UhookData@@@std@@@std@@@std@@QEAA@XZ@4HA
	DD	imagerel ?dtor$0@?0???1?$_Vector_const_iterator@V?$_Vector_val@U?$_Simple_types@UhookData@@@std@@@std@@@std@@QEAA@XZ@4HA+35
	DD	imagerel $unwind$?dtor$0@?0???1?$_Vector_const_iterator@V?$_Vector_val@U?$_Simple_types@UhookData@@@std@@@std@@@std@@QEAA@XZ@4HA
pdata	ENDS
;	COMDAT pdata
pdata	SEGMENT
$pdata$??0?$_Vector_const_iterator@V?$_Vector_val@U?$_Simple_types@UhookData@@@std@@@std@@@std@@QEAA@AEBV01@@Z DD imagerel $LN4
	DD	imagerel $LN4+80
	DD	imagerel $unwind$??0?$_Vector_const_iterator@V?$_Vector_val@U?$_Simple_types@UhookData@@@std@@@std@@@std@@QEAA@AEBV01@@Z
pdata	ENDS
;	COMDAT pdata
pdata	SEGMENT
$pdata$?dtor$0@?0???0?$_Vector_const_iterator@V?$_Vector_val@U?$_Simple_types@UhookData@@@std@@@std@@@std@@QEAA@AEBV01@@Z@4HA DD imagerel ?dtor$0@?0???0?$_Vector_const_iterator@V?$_Vector_val@U?$_Simple_types@UhookData@@@std@@@std@@@std@@QEAA@AEBV01@@Z@4HA
	DD	imagerel ?dtor$0@?0???0?$_Vector_const_iterator@V?$_Vector_val@U?$_Simple_types@UhookData@@@std@@@std@@@std@@QEAA@AEBV01@@Z@4HA+35
	DD	imagerel $unwind$?dtor$0@?0???0?$_Vector_const_iterator@V?$_Vector_val@U?$_Simple_types@UhookData@@@std@@@std@@@std@@QEAA@AEBV01@@Z@4HA
pdata	ENDS
;	COMDAT pdata
pdata	SEGMENT
$pdata$??0?$_Vector_const_iterator@V?$_Vector_val@U?$_Simple_types@UhookData@@@std@@@std@@@std@@QEAA@$$QEAV01@@Z DD imagerel $LN4
	DD	imagerel $LN4+80
	DD	imagerel $unwind$??0?$_Vector_const_iterator@V?$_Vector_val@U?$_Simple_types@UhookData@@@std@@@std@@@std@@QEAA@$$QEAV01@@Z
pdata	ENDS
;	COMDAT pdata
pdata	SEGMENT
$pdata$?dtor$0@?0???0?$_Vector_const_iterator@V?$_Vector_val@U?$_Simple_types@UhookData@@@std@@@std@@@std@@QEAA@$$QEAV01@@Z@4HA DD imagerel ?dtor$0@?0???0?$_Vector_const_iterator@V?$_Vector_val@U?$_Simple_types@UhookData@@@std@@@std@@@std@@QEAA@$$QEAV01@@Z@4HA
	DD	imagerel ?dtor$0@?0???0?$_Vector_const_iterator@V?$_Vector_val@U?$_Simple_types@UhookData@@@std@@@std@@@std@@QEAA@$$QEAV01@@Z@4HA+35
	DD	imagerel $unwind$?dtor$0@?0???0?$_Vector_const_iterator@V?$_Vector_val@U?$_Simple_types@UhookData@@@std@@@std@@@std@@QEAA@$$QEAV01@@Z@4HA
pdata	ENDS
;	COMDAT pdata
pdata	SEGMENT
$pdata$??0?$_Vector_iterator@V?$_Vector_val@U?$_Simple_types@UhookData@@@std@@@std@@@std@@QEAA@PEAUhookData@@PEBU_Container_base12@1@@Z DD imagerel $LN4
	DD	imagerel $LN4+72
	DD	imagerel $unwind$??0?$_Vector_iterator@V?$_Vector_val@U?$_Simple_types@UhookData@@@std@@@std@@@std@@QEAA@PEAUhookData@@PEBU_Container_base12@1@@Z
pdata	ENDS
;	COMDAT pdata
pdata	SEGMENT
$pdata$?dtor$0@?0???0?$_Vector_iterator@V?$_Vector_val@U?$_Simple_types@UhookData@@@std@@@std@@@std@@QEAA@PEAUhookData@@PEBU_Container_base12@1@@Z@4HA DD imagerel ?dtor$0@?0???0?$_Vector_iterator@V?$_Vector_val@U?$_Simple_types@UhookData@@@std@@@std@@@std@@QEAA@PEAUhookData@@PEBU_Container_base12@1@@Z@4HA
	DD	imagerel ?dtor$0@?0???0?$_Vector_iterator@V?$_Vector_val@U?$_Simple_types@UhookData@@@std@@@std@@@std@@QEAA@PEAUhookData@@PEBU_Container_base12@1@@Z@4HA+35
	DD	imagerel $unwind$?dtor$0@?0???0?$_Vector_iterator@V?$_Vector_val@U?$_Simple_types@UhookData@@@std@@@std@@@std@@QEAA@PEAUhookData@@PEBU_Container_base12@1@@Z@4HA
pdata	ENDS
;	COMDAT pdata
pdata	SEGMENT
$pdata$??C?$_Vector_iterator@V?$_Vector_val@U?$_Simple_types@UhookData@@@std@@@std@@@std@@QEBAPEAUhookData@@XZ DD imagerel $LN3
	DD	imagerel $LN3+54
	DD	imagerel $unwind$??C?$_Vector_iterator@V?$_Vector_val@U?$_Simple_types@UhookData@@@std@@@std@@@std@@QEBAPEAUhookData@@XZ
pdata	ENDS
;	COMDAT pdata
pdata	SEGMENT
$pdata$?_Unwrapped@?$_Vector_iterator@V?$_Vector_val@U?$_Simple_types@UhookData@@@std@@@std@@@std@@QEBAPEAUhookData@@XZ DD imagerel $LN3
	DD	imagerel $LN3+50
	DD	imagerel $unwind$?_Unwrapped@?$_Vector_iterator@V?$_Vector_val@U?$_Simple_types@UhookData@@@std@@@std@@@std@@QEBAPEAUhookData@@XZ
pdata	ENDS
;	COMDAT pdata
pdata	SEGMENT
$pdata$??1?$_Vector_iterator@V?$_Vector_val@U?$_Simple_types@UhookData@@@std@@@std@@@std@@QEAA@XZ DD imagerel $LN4
	DD	imagerel $LN4+47
	DD	imagerel $unwind$??1?$_Vector_iterator@V?$_Vector_val@U?$_Simple_types@UhookData@@@std@@@std@@@std@@QEAA@XZ
pdata	ENDS
;	COMDAT pdata
pdata	SEGMENT
$pdata$?dtor$0@?0???1?$_Vector_iterator@V?$_Vector_val@U?$_Simple_types@UhookData@@@std@@@std@@@std@@QEAA@XZ@4HA DD imagerel ?dtor$0@?0???1?$_Vector_iterator@V?$_Vector_val@U?$_Simple_types@UhookData@@@std@@@std@@@std@@QEAA@XZ@4HA
	DD	imagerel ?dtor$0@?0???1?$_Vector_iterator@V?$_Vector_val@U?$_Simple_types@UhookData@@@std@@@std@@@std@@QEAA@XZ@4HA+35
	DD	imagerel $unwind$?dtor$0@?0???1?$_Vector_iterator@V?$_Vector_val@U?$_Simple_types@UhookData@@@std@@@std@@@std@@QEAA@XZ@4HA
pdata	ENDS
;	COMDAT pdata
pdata	SEGMENT
$pdata$??0?$_Vector_iterator@V?$_Vector_val@U?$_Simple_types@UhookData@@@std@@@std@@@std@@QEAA@$$QEAV01@@Z DD imagerel $LN4
	DD	imagerel $LN4+62
	DD	imagerel $unwind$??0?$_Vector_iterator@V?$_Vector_val@U?$_Simple_types@UhookData@@@std@@@std@@@std@@QEAA@$$QEAV01@@Z
pdata	ENDS
;	COMDAT pdata
pdata	SEGMENT
$pdata$?dtor$0@?0???0?$_Vector_iterator@V?$_Vector_val@U?$_Simple_types@UhookData@@@std@@@std@@@std@@QEAA@$$QEAV01@@Z@4HA DD imagerel ?dtor$0@?0???0?$_Vector_iterator@V?$_Vector_val@U?$_Simple_types@UhookData@@@std@@@std@@@std@@QEAA@$$QEAV01@@Z@4HA
	DD	imagerel ?dtor$0@?0???0?$_Vector_iterator@V?$_Vector_val@U?$_Simple_types@UhookData@@@std@@@std@@@std@@QEAA@$$QEAV01@@Z@4HA+35
	DD	imagerel $unwind$?dtor$0@?0???0?$_Vector_iterator@V?$_Vector_val@U?$_Simple_types@UhookData@@@std@@@std@@@std@@QEAA@$$QEAV01@@Z@4HA
pdata	ENDS
;	COMDAT pdata
pdata	SEGMENT
$pdata$??R<lambda_831aa28b571b4242b9e704a94bc96691>@@QEBA_NUhookData@@@Z DD imagerel ??R<lambda_831aa28b571b4242b9e704a94bc96691>@@QEBA_NUhookData@@@Z
	DD	imagerel ??R<lambda_831aa28b571b4242b9e704a94bc96691>@@QEBA_NUhookData@@@Z+144
	DD	imagerel $unwind$??R<lambda_831aa28b571b4242b9e704a94bc96691>@@QEBA_NUhookData@@@Z
pdata	ENDS
;	COMDAT pdata
pdata	SEGMENT
$pdata$?dtor$0@?0???R<lambda_831aa28b571b4242b9e704a94bc96691>@@QEBA_NUhookData@@@Z@4HA DD imagerel ?dtor$0@?0???R<lambda_831aa28b571b4242b9e704a94bc96691>@@QEBA_NUhookData@@@Z@4HA
	DD	imagerel ?dtor$0@?0???R<lambda_831aa28b571b4242b9e704a94bc96691>@@QEBA_NUhookData@@@Z@4HA+35
	DD	imagerel $unwind$?dtor$0@?0???R<lambda_831aa28b571b4242b9e704a94bc96691>@@QEBA_NUhookData@@@Z@4HA
pdata	ENDS
;	COMDAT pdata
pdata	SEGMENT
$pdata$??0<lambda_831aa28b571b4242b9e704a94bc96691>@@QEAA@AEBQEBD0@Z DD imagerel ??0<lambda_831aa28b571b4242b9e704a94bc96691>@@QEAA@AEBQEBD0@Z
	DD	imagerel ??0<lambda_831aa28b571b4242b9e704a94bc96691>@@QEAA@AEBQEBD0@Z+56
	DD	imagerel $unwind$??0<lambda_831aa28b571b4242b9e704a94bc96691>@@QEAA@AEBQEBD0@Z
pdata	ENDS
;	COMDAT pdata
pdata	SEGMENT
$pdata$??$?8DU?$char_traits@D@std@@V?$allocator@D@1@@std@@YA_NAEBV?$basic_string@DU?$char_traits@D@std@@V?$allocator@D@2@@0@QEBD@Z DD imagerel $LN3
	DD	imagerel $LN3+56
	DD	imagerel $unwind$??$?8DU?$char_traits@D@std@@V?$allocator@D@1@@std@@YA_NAEBV?$basic_string@DU?$char_traits@D@std@@V?$allocator@D@2@@0@QEBD@Z
pdata	ENDS
;	COMDAT pdata
pdata	SEGMENT
$pdata$??$find_if@V?$_Vector_iterator@V?$_Vector_val@U?$_Simple_types@UhookData@@@std@@@std@@@std@@V<lambda_831aa28b571b4242b9e704a94bc96691>@@@std@@YA?AV?$_Vector_iterator@V?$_Vector_val@U?$_Simple_types@UhookData@@@std@@@std@@@0@V10@V10@V<lambda_831aa28b571b4242b9e704a94bc96691>@@@Z DD imagerel ??$find_if@V?$_Vector_iterator@V?$_Vector_val@U?$_Simple_types@UhookData@@@std@@@std@@@std@@V<lambda_831aa28b571b4242b9e704a94bc96691>@@@std@@YA?AV?$_Vector_iterator@V?$_Vector_val@U?$_Simple_types@UhookData@@@std@@@std@@@0@V10@V10@V<lambda_831aa28b571b4242b9e704a94bc96691>@@@Z
	DD	imagerel ??$find_if@V?$_Vector_iterator@V?$_Vector_val@U?$_Simple_types@UhookData@@@std@@@std@@@std@@V<lambda_831aa28b571b4242b9e704a94bc96691>@@@std@@YA?AV?$_Vector_iterator@V?$_Vector_val@U?$_Simple_types@UhookData@@@std@@@std@@@0@V10@V10@V<lambda_831aa28b571b4242b9e704a94bc96691>@@@Z+356
	DD	imagerel $unwind$??$find_if@V?$_Vector_iterator@V?$_Vector_val@U?$_Simple_types@UhookData@@@std@@@std@@@std@@V<lambda_831aa28b571b4242b9e704a94bc96691>@@@std@@YA?AV?$_Vector_iterator@V?$_Vector_val@U?$_Simple_types@UhookData@@@std@@@std@@@0@V10@V10@V<lambda_831aa28b571b4242b9e704a94bc96691>@@@Z
pdata	ENDS
;	COMDAT pdata
pdata	SEGMENT
$pdata$?dtor$0@?0???$find_if@V?$_Vector_iterator@V?$_Vector_val@U?$_Simple_types@UhookData@@@std@@@std@@@std@@V<lambda_831aa28b571b4242b9e704a94bc96691>@@@std@@YA?AV?$_Vector_iterator@V?$_Vector_val@U?$_Simple_types@UhookData@@@std@@@std@@@0@V10@V10@V<lambda_831aa28b571b4242b9e704a94bc96691>@@@Z@4HA DD imagerel ?dtor$0@?0???$find_if@V?$_Vector_iterator@V?$_Vector_val@U?$_Simple_types@UhookData@@@std@@@std@@@std@@V<lambda_831aa28b571b4242b9e704a94bc96691>@@@std@@YA?AV?$_Vector_iterator@V?$_Vector_val@U?$_Simple_types@UhookData@@@std@@@std@@@0@V10@V10@V<lambda_831aa28b571b4242b9e704a94bc96691>@@@Z@4HA
	DD	imagerel ?dtor$0@?0???$find_if@V?$_Vector_iterator@V?$_Vector_val@U?$_Simple_types@UhookData@@@std@@@std@@@std@@V<lambda_831aa28b571b4242b9e704a94bc96691>@@@std@@YA?AV?$_Vector_iterator@V?$_Vector_val@U?$_Simple_types@UhookData@@@std@@@std@@@0@V10@V10@V<lambda_831aa28b571b4242b9e704a94bc96691>@@@Z@4HA+38
	DD	imagerel $unwind$?dtor$0@?0???$find_if@V?$_Vector_iterator@V?$_Vector_val@U?$_Simple_types@UhookData@@@std@@@std@@@std@@V<lambda_831aa28b571b4242b9e704a94bc96691>@@@std@@YA?AV?$_Vector_iterator@V?$_Vector_val@U?$_Simple_types@UhookData@@@std@@@std@@@0@V10@V10@V<lambda_831aa28b571b4242b9e704a94bc96691>@@@Z@4HA
pdata	ENDS
;	COMDAT pdata
pdata	SEGMENT
$pdata$?dtor$1@?0???$find_if@V?$_Vector_iterator@V?$_Vector_val@U?$_Simple_types@UhookData@@@std@@@std@@@std@@V<lambda_831aa28b571b4242b9e704a94bc96691>@@@std@@YA?AV?$_Vector_iterator@V?$_Vector_val@U?$_Simple_types@UhookData@@@std@@@std@@@0@V10@V10@V<lambda_831aa28b571b4242b9e704a94bc96691>@@@Z@4HA DD imagerel ?dtor$1@?0???$find_if@V?$_Vector_iterator@V?$_Vector_val@U?$_Simple_types@UhookData@@@std@@@std@@@std@@V<lambda_831aa28b571b4242b9e704a94bc96691>@@@std@@YA?AV?$_Vector_iterator@V?$_Vector_val@U?$_Simple_types@UhookData@@@std@@@std@@@0@V10@V10@V<lambda_831aa28b571b4242b9e704a94bc96691>@@@Z@4HA
	DD	imagerel ?dtor$1@?0???$find_if@V?$_Vector_iterator@V?$_Vector_val@U?$_Simple_types@UhookData@@@std@@@std@@@std@@V<lambda_831aa28b571b4242b9e704a94bc96691>@@@std@@YA?AV?$_Vector_iterator@V?$_Vector_val@U?$_Simple_types@UhookData@@@std@@@std@@@0@V10@V10@V<lambda_831aa28b571b4242b9e704a94bc96691>@@@Z@4HA+38
	DD	imagerel $unwind$?dtor$1@?0???$find_if@V?$_Vector_iterator@V?$_Vector_val@U?$_Simple_types@UhookData@@@std@@@std@@@std@@V<lambda_831aa28b571b4242b9e704a94bc96691>@@@std@@YA?AV?$_Vector_iterator@V?$_Vector_val@U?$_Simple_types@UhookData@@@std@@@std@@@0@V10@V10@V<lambda_831aa28b571b4242b9e704a94bc96691>@@@Z@4HA
pdata	ENDS
;	COMDAT pdata
pdata	SEGMENT
$pdata$?dtor$2@?0???$find_if@V?$_Vector_iterator@V?$_Vector_val@U?$_Simple_types@UhookData@@@std@@@std@@@std@@V<lambda_831aa28b571b4242b9e704a94bc96691>@@@std@@YA?AV?$_Vector_iterator@V?$_Vector_val@U?$_Simple_types@UhookData@@@std@@@std@@@0@V10@V10@V<lambda_831aa28b571b4242b9e704a94bc96691>@@@Z@4HA DD imagerel ?dtor$2@?0???$find_if@V?$_Vector_iterator@V?$_Vector_val@U?$_Simple_types@UhookData@@@std@@@std@@@std@@V<lambda_831aa28b571b4242b9e704a94bc96691>@@@std@@YA?AV?$_Vector_iterator@V?$_Vector_val@U?$_Simple_types@UhookData@@@std@@@std@@@0@V10@V10@V<lambda_831aa28b571b4242b9e704a94bc96691>@@@Z@4HA
	DD	imagerel ?dtor$2@?0???$find_if@V?$_Vector_iterator@V?$_Vector_val@U?$_Simple_types@UhookData@@@std@@@std@@@std@@V<lambda_831aa28b571b4242b9e704a94bc96691>@@@std@@YA?AV?$_Vector_iterator@V?$_Vector_val@U?$_Simple_types@UhookData@@@std@@@std@@@0@V10@V10@V<lambda_831aa28b571b4242b9e704a94bc96691>@@@Z@4HA+38
	DD	imagerel $unwind$?dtor$2@?0???$find_if@V?$_Vector_iterator@V?$_Vector_val@U?$_Simple_types@UhookData@@@std@@@std@@@std@@V<lambda_831aa28b571b4242b9e704a94bc96691>@@@std@@YA?AV?$_Vector_iterator@V?$_Vector_val@U?$_Simple_types@UhookData@@@std@@@std@@@0@V10@V10@V<lambda_831aa28b571b4242b9e704a94bc96691>@@@Z@4HA
pdata	ENDS
;	COMDAT pdata
pdata	SEGMENT
$pdata$?dtor$3@?0???$find_if@V?$_Vector_iterator@V?$_Vector_val@U?$_Simple_types@UhookData@@@std@@@std@@@std@@V<lambda_831aa28b571b4242b9e704a94bc96691>@@@std@@YA?AV?$_Vector_iterator@V?$_Vector_val@U?$_Simple_types@UhookData@@@std@@@std@@@0@V10@V10@V<lambda_831aa28b571b4242b9e704a94bc96691>@@@Z@4HA DD imagerel ?dtor$3@?0???$find_if@V?$_Vector_iterator@V?$_Vector_val@U?$_Simple_types@UhookData@@@std@@@std@@@std@@V<lambda_831aa28b571b4242b9e704a94bc96691>@@@std@@YA?AV?$_Vector_iterator@V?$_Vector_val@U?$_Simple_types@UhookData@@@std@@@std@@@0@V10@V10@V<lambda_831aa28b571b4242b9e704a94bc96691>@@@Z@4HA
	DD	imagerel ?dtor$3@?0???$find_if@V?$_Vector_iterator@V?$_Vector_val@U?$_Simple_types@UhookData@@@std@@@std@@@std@@V<lambda_831aa28b571b4242b9e704a94bc96691>@@@std@@YA?AV?$_Vector_iterator@V?$_Vector_val@U?$_Simple_types@UhookData@@@std@@@std@@@0@V10@V10@V<lambda_831aa28b571b4242b9e704a94bc96691>@@@Z@4HA+58
	DD	imagerel $unwind$?dtor$3@?0???$find_if@V?$_Vector_iterator@V?$_Vector_val@U?$_Simple_types@UhookData@@@std@@@std@@@std@@V<lambda_831aa28b571b4242b9e704a94bc96691>@@@std@@YA?AV?$_Vector_iterator@V?$_Vector_val@U?$_Simple_types@UhookData@@@std@@@std@@@0@V10@V10@V<lambda_831aa28b571b4242b9e704a94bc96691>@@@Z@4HA
pdata	ENDS
;	COMDAT pdata
pdata	SEGMENT
$pdata$??R<lambda_1735d4f996bca40e44ec48ee134389dd>@@QEBA_NUhookData@@@Z DD imagerel ??R<lambda_1735d4f996bca40e44ec48ee134389dd>@@QEBA_NUhookData@@@Z
	DD	imagerel ??R<lambda_1735d4f996bca40e44ec48ee134389dd>@@QEBA_NUhookData@@@Z+102
	DD	imagerel $unwind$??R<lambda_1735d4f996bca40e44ec48ee134389dd>@@QEBA_NUhookData@@@Z
pdata	ENDS
;	COMDAT pdata
pdata	SEGMENT
$pdata$?dtor$0@?0???R<lambda_1735d4f996bca40e44ec48ee134389dd>@@QEBA_NUhookData@@@Z@4HA DD imagerel ?dtor$0@?0???R<lambda_1735d4f996bca40e44ec48ee134389dd>@@QEBA_NUhookData@@@Z@4HA
	DD	imagerel ?dtor$0@?0???R<lambda_1735d4f996bca40e44ec48ee134389dd>@@QEBA_NUhookData@@@Z@4HA+35
	DD	imagerel $unwind$?dtor$0@?0???R<lambda_1735d4f996bca40e44ec48ee134389dd>@@QEBA_NUhookData@@@Z@4HA
pdata	ENDS
;	COMDAT pdata
pdata	SEGMENT
$pdata$??0<lambda_1735d4f996bca40e44ec48ee134389dd>@@QEAA@AEBQEAX@Z DD imagerel ??0<lambda_1735d4f996bca40e44ec48ee134389dd>@@QEAA@AEBQEAX@Z
	DD	imagerel ??0<lambda_1735d4f996bca40e44ec48ee134389dd>@@QEAA@AEBQEAX@Z+34
	DD	imagerel $unwind$??0<lambda_1735d4f996bca40e44ec48ee134389dd>@@QEAA@AEBQEAX@Z
pdata	ENDS
;	COMDAT pdata
pdata	SEGMENT
$pdata$??$find_if@V?$_Vector_iterator@V?$_Vector_val@U?$_Simple_types@UhookData@@@std@@@std@@@std@@V<lambda_1735d4f996bca40e44ec48ee134389dd>@@@std@@YA?AV?$_Vector_iterator@V?$_Vector_val@U?$_Simple_types@UhookData@@@std@@@std@@@0@V10@V10@V<lambda_1735d4f996bca40e44ec48ee134389dd>@@@Z DD imagerel ??$find_if@V?$_Vector_iterator@V?$_Vector_val@U?$_Simple_types@UhookData@@@std@@@std@@@std@@V<lambda_1735d4f996bca40e44ec48ee134389dd>@@@std@@YA?AV?$_Vector_iterator@V?$_Vector_val@U?$_Simple_types@UhookData@@@std@@@std@@@0@V10@V10@V<lambda_1735d4f996bca40e44ec48ee134389dd>@@@Z
	DD	imagerel ??$find_if@V?$_Vector_iterator@V?$_Vector_val@U?$_Simple_types@UhookData@@@std@@@std@@@std@@V<lambda_1735d4f996bca40e44ec48ee134389dd>@@@std@@YA?AV?$_Vector_iterator@V?$_Vector_val@U?$_Simple_types@UhookData@@@std@@@std@@@0@V10@V10@V<lambda_1735d4f996bca40e44ec48ee134389dd>@@@Z+356
	DD	imagerel $unwind$??$find_if@V?$_Vector_iterator@V?$_Vector_val@U?$_Simple_types@UhookData@@@std@@@std@@@std@@V<lambda_1735d4f996bca40e44ec48ee134389dd>@@@std@@YA?AV?$_Vector_iterator@V?$_Vector_val@U?$_Simple_types@UhookData@@@std@@@std@@@0@V10@V10@V<lambda_1735d4f996bca40e44ec48ee134389dd>@@@Z
pdata	ENDS
;	COMDAT pdata
pdata	SEGMENT
$pdata$?dtor$0@?0???$find_if@V?$_Vector_iterator@V?$_Vector_val@U?$_Simple_types@UhookData@@@std@@@std@@@std@@V<lambda_1735d4f996bca40e44ec48ee134389dd>@@@std@@YA?AV?$_Vector_iterator@V?$_Vector_val@U?$_Simple_types@UhookData@@@std@@@std@@@0@V10@V10@V<lambda_1735d4f996bca40e44ec48ee134389dd>@@@Z@4HA DD imagerel ?dtor$0@?0???$find_if@V?$_Vector_iterator@V?$_Vector_val@U?$_Simple_types@UhookData@@@std@@@std@@@std@@V<lambda_1735d4f996bca40e44ec48ee134389dd>@@@std@@YA?AV?$_Vector_iterator@V?$_Vector_val@U?$_Simple_types@UhookData@@@std@@@std@@@0@V10@V10@V<lambda_1735d4f996bca40e44ec48ee134389dd>@@@Z@4HA
	DD	imagerel ?dtor$0@?0???$find_if@V?$_Vector_iterator@V?$_Vector_val@U?$_Simple_types@UhookData@@@std@@@std@@@std@@V<lambda_1735d4f996bca40e44ec48ee134389dd>@@@std@@YA?AV?$_Vector_iterator@V?$_Vector_val@U?$_Simple_types@UhookData@@@std@@@std@@@0@V10@V10@V<lambda_1735d4f996bca40e44ec48ee134389dd>@@@Z@4HA+38
	DD	imagerel $unwind$?dtor$0@?0???$find_if@V?$_Vector_iterator@V?$_Vector_val@U?$_Simple_types@UhookData@@@std@@@std@@@std@@V<lambda_1735d4f996bca40e44ec48ee134389dd>@@@std@@YA?AV?$_Vector_iterator@V?$_Vector_val@U?$_Simple_types@UhookData@@@std@@@std@@@0@V10@V10@V<lambda_1735d4f996bca40e44ec48ee134389dd>@@@Z@4HA
pdata	ENDS
;	COMDAT pdata
pdata	SEGMENT
$pdata$?dtor$1@?0???$find_if@V?$_Vector_iterator@V?$_Vector_val@U?$_Simple_types@UhookData@@@std@@@std@@@std@@V<lambda_1735d4f996bca40e44ec48ee134389dd>@@@std@@YA?AV?$_Vector_iterator@V?$_Vector_val@U?$_Simple_types@UhookData@@@std@@@std@@@0@V10@V10@V<lambda_1735d4f996bca40e44ec48ee134389dd>@@@Z@4HA DD imagerel ?dtor$1@?0???$find_if@V?$_Vector_iterator@V?$_Vector_val@U?$_Simple_types@UhookData@@@std@@@std@@@std@@V<lambda_1735d4f996bca40e44ec48ee134389dd>@@@std@@YA?AV?$_Vector_iterator@V?$_Vector_val@U?$_Simple_types@UhookData@@@std@@@std@@@0@V10@V10@V<lambda_1735d4f996bca40e44ec48ee134389dd>@@@Z@4HA
	DD	imagerel ?dtor$1@?0???$find_if@V?$_Vector_iterator@V?$_Vector_val@U?$_Simple_types@UhookData@@@std@@@std@@@std@@V<lambda_1735d4f996bca40e44ec48ee134389dd>@@@std@@YA?AV?$_Vector_iterator@V?$_Vector_val@U?$_Simple_types@UhookData@@@std@@@std@@@0@V10@V10@V<lambda_1735d4f996bca40e44ec48ee134389dd>@@@Z@4HA+38
	DD	imagerel $unwind$?dtor$1@?0???$find_if@V?$_Vector_iterator@V?$_Vector_val@U?$_Simple_types@UhookData@@@std@@@std@@@std@@V<lambda_1735d4f996bca40e44ec48ee134389dd>@@@std@@YA?AV?$_Vector_iterator@V?$_Vector_val@U?$_Simple_types@UhookData@@@std@@@std@@@0@V10@V10@V<lambda_1735d4f996bca40e44ec48ee134389dd>@@@Z@4HA
pdata	ENDS
;	COMDAT pdata
pdata	SEGMENT
$pdata$?dtor$2@?0???$find_if@V?$_Vector_iterator@V?$_Vector_val@U?$_Simple_types@UhookData@@@std@@@std@@@std@@V<lambda_1735d4f996bca40e44ec48ee134389dd>@@@std@@YA?AV?$_Vector_iterator@V?$_Vector_val@U?$_Simple_types@UhookData@@@std@@@std@@@0@V10@V10@V<lambda_1735d4f996bca40e44ec48ee134389dd>@@@Z@4HA DD imagerel ?dtor$2@?0???$find_if@V?$_Vector_iterator@V?$_Vector_val@U?$_Simple_types@UhookData@@@std@@@std@@@std@@V<lambda_1735d4f996bca40e44ec48ee134389dd>@@@std@@YA?AV?$_Vector_iterator@V?$_Vector_val@U?$_Simple_types@UhookData@@@std@@@std@@@0@V10@V10@V<lambda_1735d4f996bca40e44ec48ee134389dd>@@@Z@4HA
	DD	imagerel ?dtor$2@?0???$find_if@V?$_Vector_iterator@V?$_Vector_val@U?$_Simple_types@UhookData@@@std@@@std@@@std@@V<lambda_1735d4f996bca40e44ec48ee134389dd>@@@std@@YA?AV?$_Vector_iterator@V?$_Vector_val@U?$_Simple_types@UhookData@@@std@@@std@@@0@V10@V10@V<lambda_1735d4f996bca40e44ec48ee134389dd>@@@Z@4HA+38
	DD	imagerel $unwind$?dtor$2@?0???$find_if@V?$_Vector_iterator@V?$_Vector_val@U?$_Simple_types@UhookData@@@std@@@std@@@std@@V<lambda_1735d4f996bca40e44ec48ee134389dd>@@@std@@YA?AV?$_Vector_iterator@V?$_Vector_val@U?$_Simple_types@UhookData@@@std@@@std@@@0@V10@V10@V<lambda_1735d4f996bca40e44ec48ee134389dd>@@@Z@4HA
pdata	ENDS
;	COMDAT pdata
pdata	SEGMENT
$pdata$?dtor$3@?0???$find_if@V?$_Vector_iterator@V?$_Vector_val@U?$_Simple_types@UhookData@@@std@@@std@@@std@@V<lambda_1735d4f996bca40e44ec48ee134389dd>@@@std@@YA?AV?$_Vector_iterator@V?$_Vector_val@U?$_Simple_types@UhookData@@@std@@@std@@@0@V10@V10@V<lambda_1735d4f996bca40e44ec48ee134389dd>@@@Z@4HA DD imagerel ?dtor$3@?0???$find_if@V?$_Vector_iterator@V?$_Vector_val@U?$_Simple_types@UhookData@@@std@@@std@@@std@@V<lambda_1735d4f996bca40e44ec48ee134389dd>@@@std@@YA?AV?$_Vector_iterator@V?$_Vector_val@U?$_Simple_types@UhookData@@@std@@@std@@@0@V10@V10@V<lambda_1735d4f996bca40e44ec48ee134389dd>@@@Z@4HA
	DD	imagerel ?dtor$3@?0???$find_if@V?$_Vector_iterator@V?$_Vector_val@U?$_Simple_types@UhookData@@@std@@@std@@@std@@V<lambda_1735d4f996bca40e44ec48ee134389dd>@@@std@@YA?AV?$_Vector_iterator@V?$_Vector_val@U?$_Simple_types@UhookData@@@std@@@std@@@0@V10@V10@V<lambda_1735d4f996bca40e44ec48ee134389dd>@@@Z@4HA+58
	DD	imagerel $unwind$?dtor$3@?0???$find_if@V?$_Vector_iterator@V?$_Vector_val@U?$_Simple_types@UhookData@@@std@@@std@@@std@@V<lambda_1735d4f996bca40e44ec48ee134389dd>@@@std@@YA?AV?$_Vector_iterator@V?$_Vector_val@U?$_Simple_types@UhookData@@@std@@@std@@@0@V10@V10@V<lambda_1735d4f996bca40e44ec48ee134389dd>@@@Z@4HA
pdata	ENDS
;	COMDAT pdata
pdata	SEGMENT
$pdata$??R<lambda_3b1a155f3d9af5183301fdeff6995007>@@QEBA_NUhookData@@@Z DD imagerel ??R<lambda_3b1a155f3d9af5183301fdeff6995007>@@QEBA_NUhookData@@@Z
	DD	imagerel ??R<lambda_3b1a155f3d9af5183301fdeff6995007>@@QEBA_NUhookData@@@Z+144
	DD	imagerel $unwind$??R<lambda_3b1a155f3d9af5183301fdeff6995007>@@QEBA_NUhookData@@@Z
pdata	ENDS
;	COMDAT pdata
pdata	SEGMENT
$pdata$?dtor$0@?0???R<lambda_3b1a155f3d9af5183301fdeff6995007>@@QEBA_NUhookData@@@Z@4HA DD imagerel ?dtor$0@?0???R<lambda_3b1a155f3d9af5183301fdeff6995007>@@QEBA_NUhookData@@@Z@4HA
	DD	imagerel ?dtor$0@?0???R<lambda_3b1a155f3d9af5183301fdeff6995007>@@QEBA_NUhookData@@@Z@4HA+35
	DD	imagerel $unwind$?dtor$0@?0???R<lambda_3b1a155f3d9af5183301fdeff6995007>@@QEBA_NUhookData@@@Z@4HA
pdata	ENDS
;	COMDAT pdata
pdata	SEGMENT
$pdata$??0<lambda_3b1a155f3d9af5183301fdeff6995007>@@QEAA@AEBQEBD0@Z DD imagerel ??0<lambda_3b1a155f3d9af5183301fdeff6995007>@@QEAA@AEBQEBD0@Z
	DD	imagerel ??0<lambda_3b1a155f3d9af5183301fdeff6995007>@@QEAA@AEBQEBD0@Z+56
	DD	imagerel $unwind$??0<lambda_3b1a155f3d9af5183301fdeff6995007>@@QEAA@AEBQEBD0@Z
pdata	ENDS
;	COMDAT pdata
pdata	SEGMENT
$pdata$??$find_if@V?$_Vector_iterator@V?$_Vector_val@U?$_Simple_types@UhookData@@@std@@@std@@@std@@V<lambda_3b1a155f3d9af5183301fdeff6995007>@@@std@@YA?AV?$_Vector_iterator@V?$_Vector_val@U?$_Simple_types@UhookData@@@std@@@std@@@0@V10@V10@V<lambda_3b1a155f3d9af5183301fdeff6995007>@@@Z DD imagerel ??$find_if@V?$_Vector_iterator@V?$_Vector_val@U?$_Simple_types@UhookData@@@std@@@std@@@std@@V<lambda_3b1a155f3d9af5183301fdeff6995007>@@@std@@YA?AV?$_Vector_iterator@V?$_Vector_val@U?$_Simple_types@UhookData@@@std@@@std@@@0@V10@V10@V<lambda_3b1a155f3d9af5183301fdeff6995007>@@@Z
	DD	imagerel ??$find_if@V?$_Vector_iterator@V?$_Vector_val@U?$_Simple_types@UhookData@@@std@@@std@@@std@@V<lambda_3b1a155f3d9af5183301fdeff6995007>@@@std@@YA?AV?$_Vector_iterator@V?$_Vector_val@U?$_Simple_types@UhookData@@@std@@@std@@@0@V10@V10@V<lambda_3b1a155f3d9af5183301fdeff6995007>@@@Z+356
	DD	imagerel $unwind$??$find_if@V?$_Vector_iterator@V?$_Vector_val@U?$_Simple_types@UhookData@@@std@@@std@@@std@@V<lambda_3b1a155f3d9af5183301fdeff6995007>@@@std@@YA?AV?$_Vector_iterator@V?$_Vector_val@U?$_Simple_types@UhookData@@@std@@@std@@@0@V10@V10@V<lambda_3b1a155f3d9af5183301fdeff6995007>@@@Z
pdata	ENDS
;	COMDAT pdata
pdata	SEGMENT
$pdata$?dtor$0@?0???$find_if@V?$_Vector_iterator@V?$_Vector_val@U?$_Simple_types@UhookData@@@std@@@std@@@std@@V<lambda_3b1a155f3d9af5183301fdeff6995007>@@@std@@YA?AV?$_Vector_iterator@V?$_Vector_val@U?$_Simple_types@UhookData@@@std@@@std@@@0@V10@V10@V<lambda_3b1a155f3d9af5183301fdeff6995007>@@@Z@4HA DD imagerel ?dtor$0@?0???$find_if@V?$_Vector_iterator@V?$_Vector_val@U?$_Simple_types@UhookData@@@std@@@std@@@std@@V<lambda_3b1a155f3d9af5183301fdeff6995007>@@@std@@YA?AV?$_Vector_iterator@V?$_Vector_val@U?$_Simple_types@UhookData@@@std@@@std@@@0@V10@V10@V<lambda_3b1a155f3d9af5183301fdeff6995007>@@@Z@4HA
	DD	imagerel ?dtor$0@?0???$find_if@V?$_Vector_iterator@V?$_Vector_val@U?$_Simple_types@UhookData@@@std@@@std@@@std@@V<lambda_3b1a155f3d9af5183301fdeff6995007>@@@std@@YA?AV?$_Vector_iterator@V?$_Vector_val@U?$_Simple_types@UhookData@@@std@@@std@@@0@V10@V10@V<lambda_3b1a155f3d9af5183301fdeff6995007>@@@Z@4HA+38
	DD	imagerel $unwind$?dtor$0@?0???$find_if@V?$_Vector_iterator@V?$_Vector_val@U?$_Simple_types@UhookData@@@std@@@std@@@std@@V<lambda_3b1a155f3d9af5183301fdeff6995007>@@@std@@YA?AV?$_Vector_iterator@V?$_Vector_val@U?$_Simple_types@UhookData@@@std@@@std@@@0@V10@V10@V<lambda_3b1a155f3d9af5183301fdeff6995007>@@@Z@4HA
pdata	ENDS
;	COMDAT pdata
pdata	SEGMENT
$pdata$?dtor$1@?0???$find_if@V?$_Vector_iterator@V?$_Vector_val@U?$_Simple_types@UhookData@@@std@@@std@@@std@@V<lambda_3b1a155f3d9af5183301fdeff6995007>@@@std@@YA?AV?$_Vector_iterator@V?$_Vector_val@U?$_Simple_types@UhookData@@@std@@@std@@@0@V10@V10@V<lambda_3b1a155f3d9af5183301fdeff6995007>@@@Z@4HA DD imagerel ?dtor$1@?0???$find_if@V?$_Vector_iterator@V?$_Vector_val@U?$_Simple_types@UhookData@@@std@@@std@@@std@@V<lambda_3b1a155f3d9af5183301fdeff6995007>@@@std@@YA?AV?$_Vector_iterator@V?$_Vector_val@U?$_Simple_types@UhookData@@@std@@@std@@@0@V10@V10@V<lambda_3b1a155f3d9af5183301fdeff6995007>@@@Z@4HA
	DD	imagerel ?dtor$1@?0???$find_if@V?$_Vector_iterator@V?$_Vector_val@U?$_Simple_types@UhookData@@@std@@@std@@@std@@V<lambda_3b1a155f3d9af5183301fdeff6995007>@@@std@@YA?AV?$_Vector_iterator@V?$_Vector_val@U?$_Simple_types@UhookData@@@std@@@std@@@0@V10@V10@V<lambda_3b1a155f3d9af5183301fdeff6995007>@@@Z@4HA+38
	DD	imagerel $unwind$?dtor$1@?0???$find_if@V?$_Vector_iterator@V?$_Vector_val@U?$_Simple_types@UhookData@@@std@@@std@@@std@@V<lambda_3b1a155f3d9af5183301fdeff6995007>@@@std@@YA?AV?$_Vector_iterator@V?$_Vector_val@U?$_Simple_types@UhookData@@@std@@@std@@@0@V10@V10@V<lambda_3b1a155f3d9af5183301fdeff6995007>@@@Z@4HA
pdata	ENDS
;	COMDAT pdata
pdata	SEGMENT
$pdata$?dtor$2@?0???$find_if@V?$_Vector_iterator@V?$_Vector_val@U?$_Simple_types@UhookData@@@std@@@std@@@std@@V<lambda_3b1a155f3d9af5183301fdeff6995007>@@@std@@YA?AV?$_Vector_iterator@V?$_Vector_val@U?$_Simple_types@UhookData@@@std@@@std@@@0@V10@V10@V<lambda_3b1a155f3d9af5183301fdeff6995007>@@@Z@4HA DD imagerel ?dtor$2@?0???$find_if@V?$_Vector_iterator@V?$_Vector_val@U?$_Simple_types@UhookData@@@std@@@std@@@std@@V<lambda_3b1a155f3d9af5183301fdeff6995007>@@@std@@YA?AV?$_Vector_iterator@V?$_Vector_val@U?$_Simple_types@UhookData@@@std@@@std@@@0@V10@V10@V<lambda_3b1a155f3d9af5183301fdeff6995007>@@@Z@4HA
	DD	imagerel ?dtor$2@?0???$find_if@V?$_Vector_iterator@V?$_Vector_val@U?$_Simple_types@UhookData@@@std@@@std@@@std@@V<lambda_3b1a155f3d9af5183301fdeff6995007>@@@std@@YA?AV?$_Vector_iterator@V?$_Vector_val@U?$_Simple_types@UhookData@@@std@@@std@@@0@V10@V10@V<lambda_3b1a155f3d9af5183301fdeff6995007>@@@Z@4HA+38
	DD	imagerel $unwind$?dtor$2@?0???$find_if@V?$_Vector_iterator@V?$_Vector_val@U?$_Simple_types@UhookData@@@std@@@std@@@std@@V<lambda_3b1a155f3d9af5183301fdeff6995007>@@@std@@YA?AV?$_Vector_iterator@V?$_Vector_val@U?$_Simple_types@UhookData@@@std@@@std@@@0@V10@V10@V<lambda_3b1a155f3d9af5183301fdeff6995007>@@@Z@4HA
pdata	ENDS
;	COMDAT pdata
pdata	SEGMENT
$pdata$?dtor$3@?0???$find_if@V?$_Vector_iterator@V?$_Vector_val@U?$_Simple_types@UhookData@@@std@@@std@@@std@@V<lambda_3b1a155f3d9af5183301fdeff6995007>@@@std@@YA?AV?$_Vector_iterator@V?$_Vector_val@U?$_Simple_types@UhookData@@@std@@@std@@@0@V10@V10@V<lambda_3b1a155f3d9af5183301fdeff6995007>@@@Z@4HA DD imagerel ?dtor$3@?0???$find_if@V?$_Vector_iterator@V?$_Vector_val@U?$_Simple_types@UhookData@@@std@@@std@@@std@@V<lambda_3b1a155f3d9af5183301fdeff6995007>@@@std@@YA?AV?$_Vector_iterator@V?$_Vector_val@U?$_Simple_types@UhookData@@@std@@@std@@@0@V10@V10@V<lambda_3b1a155f3d9af5183301fdeff6995007>@@@Z@4HA
	DD	imagerel ?dtor$3@?0???$find_if@V?$_Vector_iterator@V?$_Vector_val@U?$_Simple_types@UhookData@@@std@@@std@@@std@@V<lambda_3b1a155f3d9af5183301fdeff6995007>@@@std@@YA?AV?$_Vector_iterator@V?$_Vector_val@U?$_Simple_types@UhookData@@@std@@@std@@@0@V10@V10@V<lambda_3b1a155f3d9af5183301fdeff6995007>@@@Z@4HA+58
	DD	imagerel $unwind$?dtor$3@?0???$find_if@V?$_Vector_iterator@V?$_Vector_val@U?$_Simple_types@UhookData@@@std@@@std@@@std@@V<lambda_3b1a155f3d9af5183301fdeff6995007>@@@std@@YA?AV?$_Vector_iterator@V?$_Vector_val@U?$_Simple_types@UhookData@@@std@@@std@@@0@V10@V10@V<lambda_3b1a155f3d9af5183301fdeff6995007>@@@Z@4HA
pdata	ENDS
;	COMDAT pdata
pdata	SEGMENT
$pdata$??$_Const_cast@$$CBUhookData@@@std@@YAPEAUhookData@@PEBU1@@Z DD imagerel $LN3
	DD	imagerel $LN3+13
	DD	imagerel $unwind$??$_Const_cast@$$CBUhookData@@@std@@YAPEAUhookData@@PEBU1@@Z
pdata	ENDS
;	COMDAT pdata
pdata	SEGMENT
$pdata$??$addressof@V?$_Vector_val@U?$_Simple_types@UhookData@@@std@@@std@@@std@@YAPEAV?$_Vector_val@U?$_Simple_types@UhookData@@@std@@@0@AEAV10@@Z DD imagerel $LN3
	DD	imagerel $LN3+13
	DD	imagerel $unwind$??$addressof@V?$_Vector_val@U?$_Simple_types@UhookData@@@std@@@std@@@std@@YAPEAV?$_Vector_val@U?$_Simple_types@UhookData@@@std@@@0@AEAV10@@Z
pdata	ENDS
;	COMDAT pdata
pdata	SEGMENT
$pdata$??$_Move_unchecked@PEAUhookData@@PEAU1@@std@@YAPEAUhookData@@PEAU1@00@Z DD imagerel $LN6
	DD	imagerel $LN6+118
	DD	imagerel $unwind$??$_Move_unchecked@PEAUhookData@@PEAU1@@std@@YAPEAUhookData@@PEAU1@00@Z
pdata	ENDS
;	COMDAT pdata
pdata	SEGMENT
$pdata$??$_Unfancy@UhookData@@@std@@YAPEAUhookData@@PEAU1@@Z DD imagerel $LN3
	DD	imagerel $LN3+13
	DD	imagerel $unwind$??$_Unfancy@UhookData@@@std@@YAPEAUhookData@@PEAU1@@Z
pdata	ENDS
;	COMDAT pdata
pdata	SEGMENT
$pdata$??$destroy@UhookData@@@?$_Default_allocator_traits@V?$allocator@UhookData@@@std@@@std@@SAXAEAV?$allocator@UhookData@@@1@QEAUhookData@@@Z DD imagerel $LN3
	DD	imagerel $LN3+53
	DD	imagerel $unwind$??$destroy@UhookData@@@?$_Default_allocator_traits@V?$allocator@UhookData@@@std@@@std@@SAXAEAV?$allocator@UhookData@@@1@QEAUhookData@@@Z
pdata	ENDS
;	COMDAT pdata
pdata	SEGMENT
$pdata$??$emplace_back@AEBUhookData@@@?$vector@UhookData@@V?$allocator@UhookData@@@std@@@std@@QEAAXAEBUhookData@@@Z DD imagerel $LN4
	DD	imagerel $LN4+145
	DD	imagerel $unwind$??$emplace_back@AEBUhookData@@@?$vector@UhookData@@V?$allocator@UhookData@@@std@@@std@@QEAAXAEBUhookData@@@Z
pdata	ENDS
;	COMDAT pdata
pdata	SEGMENT
$pdata$??$forward@AEBUhookData@@@std@@YAAEBUhookData@@AEBU1@@Z DD imagerel $LN3
	DD	imagerel $LN3+13
	DD	imagerel $unwind$??$forward@AEBUhookData@@@std@@YAAEBUhookData@@AEBU1@@Z
pdata	ENDS
;	COMDAT pdata
pdata	SEGMENT
$pdata$??$_Emplace_back_with_unused_capacity@AEBUhookData@@@?$vector@UhookData@@V?$allocator@UhookData@@@std@@@std@@AEAAXAEBUhookData@@@Z DD imagerel $LN3
	DD	imagerel $LN3+191
	DD	imagerel $unwind$??$_Emplace_back_with_unused_capacity@AEBUhookData@@@?$vector@UhookData@@V?$allocator@UhookData@@@std@@@std@@AEAAXAEBUhookData@@@Z
pdata	ENDS
;	COMDAT pdata
pdata	SEGMENT
$pdata$??$construct@UhookData@@AEBU1@@?$_Default_allocator_traits@V?$allocator@UhookData@@@std@@@std@@SAXAEAV?$allocator@UhookData@@@1@QEAUhookData@@AEBU3@@Z DD imagerel $LN3
	DD	imagerel $LN3+89
	DD	imagerel $unwind$??$construct@UhookData@@AEBU1@@?$_Default_allocator_traits@V?$allocator@UhookData@@@std@@@std@@SAXAEAV?$allocator@UhookData@@@1@QEAUhookData@@AEBU3@@Z
pdata	ENDS
;	COMDAT pdata
pdata	SEGMENT
$pdata$??$_Emplace_reallocate@AEBUhookData@@@?$vector@UhookData@@V?$allocator@UhookData@@@std@@@std@@QEAAPEAUhookData@@QEAU2@AEBU2@@Z DD imagerel $LN13
	DD	imagerel $LN13+574
	DD	imagerel $unwind$??$_Emplace_reallocate@AEBUhookData@@@?$vector@UhookData@@V?$allocator@UhookData@@@std@@@std@@QEAAPEAUhookData@@QEAU2@AEBU2@@Z
pdata	ENDS
;	COMDAT pdata
pdata	SEGMENT
$pdata$?catch$0@?0???$_Emplace_reallocate@AEBUhookData@@@?$vector@UhookData@@V?$allocator@UhookData@@@std@@@std@@QEAAPEAUhookData@@QEAU2@AEBU2@@Z@4HA DD imagerel ?catch$0@?0???$_Emplace_reallocate@AEBUhookData@@@?$vector@UhookData@@V?$allocator@UhookData@@@std@@@std@@QEAAPEAUhookData@@QEAU2@AEBU2@@Z@4HA
	DD	imagerel ?catch$0@?0???$_Emplace_reallocate@AEBUhookData@@@?$vector@UhookData@@V?$allocator@UhookData@@@std@@@std@@QEAAPEAUhookData@@QEAU2@AEBU2@@Z@4HA+81
	DD	imagerel $unwind$?catch$0@?0???$_Emplace_reallocate@AEBUhookData@@@?$vector@UhookData@@V?$allocator@UhookData@@@std@@@std@@QEAAPEAUhookData@@QEAU2@AEBU2@@Z@4HA
pdata	ENDS
;	COMDAT pdata
pdata	SEGMENT
$pdata$?allocate@?$allocator@U_Container_proxy@std@@@std@@QEAAPEAU_Container_proxy@2@_K@Z DD imagerel $LN3
	DD	imagerel $LN3+59
	DD	imagerel $unwind$?allocate@?$allocator@U_Container_proxy@std@@@std@@QEAAPEAU_Container_proxy@2@_K@Z
pdata	ENDS
;	COMDAT pdata
pdata	SEGMENT
$pdata$??$?0UhookData@@@?$allocator@U_Container_proxy@std@@@std@@QEAA@AEBV?$allocator@UhookData@@@1@@Z DD imagerel $LN3
	DD	imagerel $LN3+18
	DD	imagerel $unwind$??$?0UhookData@@@?$allocator@U_Container_proxy@std@@@std@@QEAA@AEBV?$allocator@UhookData@@@1@@Z
pdata	ENDS
;	COMDAT pdata
pdata	SEGMENT
$pdata$??$exchange@PEAU_Container_proxy@std@@$$T@std@@YAPEAU_Container_proxy@0@AEAPEAU10@$$QEA$$T@Z DD imagerel $LN3
	DD	imagerel $LN3+73
	DD	imagerel $unwind$??$exchange@PEAU_Container_proxy@std@@$$T@std@@YAPEAU_Container_proxy@0@AEAPEAU10@$$QEA$$T@Z
pdata	ENDS
;	COMDAT pdata
pdata	SEGMENT
$pdata$??$_Delete_plain_internal@V?$allocator@U_Container_proxy@std@@@std@@@std@@YAXAEAV?$allocator@U_Container_proxy@std@@@0@QEAU_Container_proxy@0@@Z DD imagerel $LN3
	DD	imagerel $LN3+56
	DD	imagerel $unwind$??$_Delete_plain_internal@V?$allocator@U_Container_proxy@std@@@std@@@std@@YAXAEAV?$allocator@U_Container_proxy@std@@@0@QEAU_Container_proxy@0@@Z
pdata	ENDS
;	COMDAT pdata
pdata	SEGMENT
$pdata$??$?0$$V@?$_Compressed_pair@V?$allocator@UhookData@@@std@@V?$_Vector_val@U?$_Simple_types@UhookData@@@std@@@2@$00@std@@QEAA@U_Zero_then_variadic_args_t@1@@Z DD imagerel $LN3
	DD	imagerel $LN3+68
	DD	imagerel $unwind$??$?0$$V@?$_Compressed_pair@V?$allocator@UhookData@@@std@@V?$_Vector_val@U?$_Simple_types@UhookData@@@std@@@2@$00@std@@QEAA@U_Zero_then_variadic_args_t@1@@Z
pdata	ENDS
;	COMDAT pdata
pdata	SEGMENT
$pdata$??$_Alloc_proxy@V?$allocator@U_Container_proxy@std@@@std@@@_Container_base12@std@@QEAAX$$QEAV?$allocator@U_Container_proxy@std@@@1@@Z DD imagerel $LN3
	DD	imagerel $LN3+120
	DD	imagerel $unwind$??$_Alloc_proxy@V?$allocator@U_Container_proxy@std@@@std@@@_Container_base12@std@@QEAAX$$QEAV?$allocator@U_Container_proxy@std@@@1@@Z
pdata	ENDS
;	COMDAT pdata
pdata	SEGMENT
$pdata$??0?$_Container_proxy_ptr12@V?$allocator@U_Container_proxy@std@@@std@@@std@@QEAA@AEAV?$allocator@U_Container_proxy@std@@@1@AEAU_Container_base12@1@@Z DD imagerel $LN3
	DD	imagerel $LN3+145
	DD	imagerel $unwind$??0?$_Container_proxy_ptr12@V?$allocator@U_Container_proxy@std@@@std@@@std@@QEAA@AEAV?$allocator@U_Container_proxy@std@@@1@AEAU_Container_base12@1@@Z
pdata	ENDS
;	COMDAT pdata
pdata	SEGMENT
$pdata$??1?$_Container_proxy_ptr12@V?$allocator@U_Container_proxy@std@@@std@@@std@@QEAA@XZ DD imagerel $LN4
	DD	imagerel $LN4+69
	DD	imagerel $unwind$??1?$_Container_proxy_ptr12@V?$allocator@U_Container_proxy@std@@@std@@@std@@QEAA@XZ
pdata	ENDS
;	COMDAT pdata
pdata	SEGMENT
$pdata$??$?0D@?$allocator@U_Container_proxy@std@@@std@@QEAA@AEBV?$allocator@D@1@@Z DD imagerel $LN3
	DD	imagerel $LN3+18
	DD	imagerel $unwind$??$?0D@?$allocator@U_Container_proxy@std@@@std@@QEAA@AEBV?$allocator@D@1@@Z
pdata	ENDS
;	COMDAT pdata
pdata	SEGMENT
$pdata$??$move@AEAV?$allocator@D@std@@@std@@YA$$QEAV?$allocator@D@0@AEAV10@@Z DD imagerel $LN3
	DD	imagerel $LN3+13
	DD	imagerel $unwind$??$move@AEAV?$allocator@D@std@@@std@@YA$$QEAV?$allocator@D@0@AEAV10@@Z
pdata	ENDS
;	COMDAT pdata
pdata	SEGMENT
$pdata$??$?0V?$allocator@D@std@@$$V@?$_Compressed_pair@V?$allocator@D@std@@V?$_String_val@U?$_Simple_types@D@std@@@2@$00@std@@QEAA@U_One_then_variadic_args_t@1@$$QEAV?$allocator@D@1@@Z DD imagerel $LN4
	DD	imagerel $LN4+74
	DD	imagerel $unwind$??$?0V?$allocator@D@std@@$$V@?$_Compressed_pair@V?$allocator@D@std@@V?$_String_val@U?$_Simple_types@D@std@@@2@$00@std@@QEAA@U_One_then_variadic_args_t@1@$$QEAV?$allocator@D@1@@Z
pdata	ENDS
;	COMDAT pdata
pdata	SEGMENT
$pdata$?dtor$0@?0???$?0V?$allocator@D@std@@$$V@?$_Compressed_pair@V?$allocator@D@std@@V?$_String_val@U?$_Simple_types@D@std@@@2@$00@std@@QEAA@U_One_then_variadic_args_t@1@$$QEAV?$allocator@D@1@@Z@4HA DD imagerel ?dtor$0@?0???$?0V?$allocator@D@std@@$$V@?$_Compressed_pair@V?$allocator@D@std@@V?$_String_val@U?$_Simple_types@D@std@@@2@$00@std@@QEAA@U_One_then_variadic_args_t@1@$$QEAV?$allocator@D@1@@Z@4HA
	DD	imagerel ?dtor$0@?0???$?0V?$allocator@D@std@@$$V@?$_Compressed_pair@V?$allocator@D@std@@V?$_String_val@U?$_Simple_types@D@std@@@2@$00@std@@QEAA@U_One_then_variadic_args_t@1@$$QEAV?$allocator@D@1@@Z@4HA+35
	DD	imagerel $unwind$?dtor$0@?0???$?0V?$allocator@D@std@@$$V@?$_Compressed_pair@V?$allocator@D@std@@V?$_String_val@U?$_Simple_types@D@std@@@2@$00@std@@QEAA@U_One_then_variadic_args_t@1@$$QEAV?$allocator@D@1@@Z@4HA
pdata	ENDS
;	COMDAT pdata
pdata	SEGMENT
$pdata$??$?0$$V@?$_Compressed_pair@V?$allocator@D@std@@V?$_String_val@U?$_Simple_types@D@std@@@2@$00@std@@QEAA@U_Zero_then_variadic_args_t@1@@Z DD imagerel $LN4
	DD	imagerel $LN4+69
	DD	imagerel $unwind$??$?0$$V@?$_Compressed_pair@V?$allocator@D@std@@V?$_String_val@U?$_Simple_types@D@std@@@2@$00@std@@QEAA@U_Zero_then_variadic_args_t@1@@Z
pdata	ENDS
;	COMDAT pdata
pdata	SEGMENT
$pdata$?dtor$0@?0???$?0$$V@?$_Compressed_pair@V?$allocator@D@std@@V?$_String_val@U?$_Simple_types@D@std@@@2@$00@std@@QEAA@U_Zero_then_variadic_args_t@1@@Z@4HA DD imagerel ?dtor$0@?0???$?0$$V@?$_Compressed_pair@V?$allocator@D@std@@V?$_String_val@U?$_Simple_types@D@std@@@2@$00@std@@QEAA@U_Zero_then_variadic_args_t@1@@Z@4HA
	DD	imagerel ?dtor$0@?0???$?0$$V@?$_Compressed_pair@V?$allocator@D@std@@V?$_String_val@U?$_Simple_types@D@std@@@2@$00@std@@QEAA@U_Zero_then_variadic_args_t@1@@Z@4HA+35
	DD	imagerel $unwind$?dtor$0@?0???$?0$$V@?$_Compressed_pair@V?$allocator@D@std@@V?$_String_val@U?$_Simple_types@D@std@@@2@$00@std@@QEAA@U_Zero_then_variadic_args_t@1@@Z@4HA
pdata	ENDS
;	COMDAT pdata
pdata	SEGMENT
$pdata$??$_Unfancy@U_Container_proxy@std@@@std@@YAPEAU_Container_proxy@0@PEAU10@@Z DD imagerel $LN3
	DD	imagerel $LN3+13
	DD	imagerel $unwind$??$_Unfancy@U_Container_proxy@std@@@std@@YAPEAU_Container_proxy@0@PEAU10@@Z
pdata	ENDS
;	COMDAT pdata
pdata	SEGMENT
$pdata$??$addressof@U_Container_base12@std@@@std@@YAPEAU_Container_base12@0@AEAU10@@Z DD imagerel $LN3
	DD	imagerel $LN3+13
	DD	imagerel $unwind$??$addressof@U_Container_base12@std@@@std@@YAPEAU_Container_base12@0@AEAU10@@Z
pdata	ENDS
;	COMDAT pdata
pdata	SEGMENT
$pdata$??$_Construct_in_place@U_Container_proxy@std@@PEAU_Container_base12@2@@std@@YAXAEAU_Container_proxy@0@$$QEAPEAU_Container_base12@0@@Z DD imagerel $LN3
	DD	imagerel $LN3+92
	DD	imagerel $unwind$??$_Construct_in_place@U_Container_proxy@std@@PEAU_Container_base12@2@@std@@YAXAEAU_Container_proxy@0@$$QEAPEAU_Container_base12@0@@Z
pdata	ENDS
;	COMDAT pdata
pdata	SEGMENT
$pdata$??$_Destroy_range@V?$allocator@UhookData@@@std@@@std@@YAXPEAUhookData@@QEAU1@AEAV?$allocator@UhookData@@@0@@Z DD imagerel $LN6
	DD	imagerel $LN6+101
	DD	imagerel $unwind$??$_Destroy_range@V?$allocator@UhookData@@@std@@@std@@YAXPEAUhookData@@QEAU1@AEAV?$allocator@UhookData@@@0@@Z
pdata	ENDS
;	COMDAT pdata
pdata	SEGMENT
$pdata$??$_Destroy_in_place@PEAD@std@@YAXAEAPEAD@Z DD imagerel $LN3
	DD	imagerel $LN3+8
	DD	imagerel $unwind$??$_Destroy_in_place@PEAD@std@@YAXAEAPEAD@Z
pdata	ENDS
;	COMDAT pdata
pdata	SEGMENT
$pdata$??R<lambda_66f57f934f28d61049862f64df852ff0>@@QEBAXQEAD_KQEBD@Z DD imagerel $LN3
	DD	imagerel $LN3+105
	DD	imagerel $unwind$??R<lambda_66f57f934f28d61049862f64df852ff0>@@QEBAXQEAD_KQEBD@Z
pdata	ENDS
;	COMDAT pdata
pdata	SEGMENT
$pdata$??$_Reallocate_for@V<lambda_66f57f934f28d61049862f64df852ff0>@@PEBD@?$basic_string@DU?$char_traits@D@std@@V?$allocator@D@2@@std@@AEAAAEAV01@_KV<lambda_66f57f934f28d61049862f64df852ff0>@@PEBD@Z DD imagerel $LN6
	DD	imagerel $LN6+330
	DD	imagerel $unwind$??$_Reallocate_for@V<lambda_66f57f934f28d61049862f64df852ff0>@@PEBD@?$basic_string@DU?$char_traits@D@std@@V?$allocator@D@2@@std@@AEAAAEAV01@_KV<lambda_66f57f934f28d61049862f64df852ff0>@@PEBD@Z
pdata	ENDS
;	COMDAT pdata
pdata	SEGMENT
$pdata$??$_Unfancy@D@std@@YAPEADPEAD@Z DD imagerel $LN3
	DD	imagerel $LN3+13
	DD	imagerel $unwind$??$_Unfancy@D@std@@YAPEADPEAD@Z
pdata	ENDS
;	COMDAT pdata
pdata	SEGMENT
$pdata$??$_Max_value@_K@std@@YAAEB_KAEB_K0@Z DD imagerel $LN5
	DD	imagerel $LN5+94
	DD	imagerel $unwind$??$_Max_value@_K@std@@YAAEB_KAEB_K0@Z
pdata	ENDS
;	COMDAT pdata
pdata	SEGMENT
$pdata$??$_Get_size_of_n@$0BA@@std@@YA_K_K@Z DD imagerel $LN4
	DD	imagerel $LN4+84
	DD	imagerel $unwind$??$_Get_size_of_n@$0BA@@std@@YA_K_K@Z
pdata	ENDS
;	COMDAT pdata
pdata	SEGMENT
$pdata$??$_Allocate@$0BA@U_Default_allocate_traits@std@@$0A@@std@@YAPEAX_K@Z DD imagerel $LN5
	DD	imagerel $LN5+81
	DD	imagerel $unwind$??$_Allocate@$0BA@U_Default_allocate_traits@std@@$0A@@std@@YAPEAX_K@Z
pdata	ENDS
;	COMDAT pdata
pdata	SEGMENT
$pdata$??$_Deallocate@$0BA@$0A@@std@@YAXPEAX_K@Z DD imagerel $LN4
	DD	imagerel $LN4+84
	DD	imagerel $unwind$??$_Deallocate@$0BA@$0A@@std@@YAXPEAX_K@Z
pdata	ENDS
;	COMDAT pdata
pdata	SEGMENT
$pdata$??$addressof@V?$_String_val@U?$_Simple_types@D@std@@@std@@@std@@YAPEAV?$_String_val@U?$_Simple_types@D@std@@@0@AEAV10@@Z DD imagerel $LN3
	DD	imagerel $LN3+13
	DD	imagerel $unwind$??$addressof@V?$_String_val@U?$_Simple_types@D@std@@@std@@@std@@YAPEAV?$_String_val@U?$_Simple_types@D@std@@@0@AEAV10@@Z
pdata	ENDS
;	COMDAT pdata
pdata	SEGMENT
$pdata$??$addressof@$$CBV?$_String_val@U?$_Simple_types@D@std@@@std@@@std@@YAPEBV?$_String_val@U?$_Simple_types@D@std@@@0@AEBV10@@Z DD imagerel $LN3
	DD	imagerel $LN3+13
	DD	imagerel $unwind$??$addressof@$$CBV?$_String_val@U?$_Simple_types@D@std@@@std@@@std@@YAPEBV?$_String_val@U?$_Simple_types@D@std@@@0@AEBV10@@Z
pdata	ENDS
;	COMDAT pdata
pdata	SEGMENT
$pdata$??$_Adl_verify_range@V?$_Vector_iterator@V?$_Vector_val@U?$_Simple_types@UhookData@@@std@@@std@@@std@@V12@@std@@YAXAEBV?$_Vector_iterator@V?$_Vector_val@U?$_Simple_types@UhookData@@@std@@@std@@@0@0@Z DD imagerel $LN3
	DD	imagerel $LN3+56
	DD	imagerel $unwind$??$_Adl_verify_range@V?$_Vector_iterator@V?$_Vector_val@U?$_Simple_types@UhookData@@@std@@@std@@@std@@V12@@std@@YAXAEBV?$_Vector_iterator@V?$_Vector_val@U?$_Simple_types@UhookData@@@std@@@std@@@0@0@Z
pdata	ENDS
;	COMDAT pdata
pdata	SEGMENT
$pdata$??$_Get_unwrapped@V?$_Vector_iterator@V?$_Vector_val@U?$_Simple_types@UhookData@@@std@@@std@@@std@@$0A@@std@@YAPEAUhookData@@AEBV?$_Vector_iterator@V?$_Vector_val@U?$_Simple_types@UhookData@@@std@@@std@@@0@@Z DD imagerel $LN3
	DD	imagerel $LN3+46
	DD	imagerel $unwind$??$_Get_unwrapped@V?$_Vector_iterator@V?$_Vector_val@U?$_Simple_types@UhookData@@@std@@@std@@@std@@$0A@@std@@YAPEAUhookData@@AEBV?$_Vector_iterator@V?$_Vector_val@U?$_Simple_types@UhookData@@@std@@@std@@@0@@Z
pdata	ENDS
;	COMDAT pdata
pdata	SEGMENT
$pdata$??$_Seek_wrapped@V?$_Vector_iterator@V?$_Vector_val@U?$_Simple_types@UhookData@@@std@@@std@@@std@@PEAUhookData@@@std@@YAXAEAV?$_Vector_iterator@V?$_Vector_val@U?$_Simple_types@UhookData@@@std@@@std@@@0@AEBQEAUhookData@@@Z DD imagerel $LN3
	DD	imagerel $LN3+59
	DD	imagerel $unwind$??$_Seek_wrapped@V?$_Vector_iterator@V?$_Vector_val@U?$_Simple_types@UhookData@@@std@@@std@@@std@@PEAUhookData@@@std@@YAXAEAV?$_Vector_iterator@V?$_Vector_val@U?$_Simple_types@UhookData@@@std@@@std@@@0@AEBQEAUhookData@@@Z
pdata	ENDS
;	COMDAT pdata
pdata	SEGMENT
$pdata$??$move@AEAUhookData@@@std@@YA$$QEAUhookData@@AEAU1@@Z DD imagerel $LN3
	DD	imagerel $LN3+13
	DD	imagerel $unwind$??$move@AEAUhookData@@@std@@YA$$QEAUhookData@@AEAU1@@Z
pdata	ENDS
;	COMDAT pdata
pdata	SEGMENT
$pdata$??$_Deallocate_plain@V?$allocator@U_Container_proxy@std@@@std@@@std@@YAXAEAV?$allocator@U_Container_proxy@std@@@0@QEAU_Container_proxy@0@@Z DD imagerel $LN3
	DD	imagerel $LN3+63
	DD	imagerel $unwind$??$_Deallocate_plain@V?$allocator@U_Container_proxy@std@@@std@@@std@@YAXAEAV?$allocator@U_Container_proxy@std@@@0@QEAU_Container_proxy@0@@Z
pdata	ENDS
;	COMDAT pdata
pdata	SEGMENT
$pdata$??$forward@V?$allocator@D@std@@@std@@YA$$QEAV?$allocator@D@0@AEAV10@@Z DD imagerel $LN3
	DD	imagerel $LN3+13
	DD	imagerel $unwind$??$forward@V?$allocator@D@std@@@std@@YA$$QEAV?$allocator@D@0@AEAV10@@Z
pdata	ENDS
;	COMDAT pdata
pdata	SEGMENT
$pdata$??$addressof@U_Container_proxy@std@@@std@@YAPEAU_Container_proxy@0@AEAU10@@Z DD imagerel $LN3
	DD	imagerel $LN3+13
	DD	imagerel $unwind$??$addressof@U_Container_proxy@std@@@std@@YAPEAU_Container_proxy@0@AEAU10@@Z
pdata	ENDS
;	COMDAT pdata
pdata	SEGMENT
$pdata$??$forward@PEAU_Container_base12@std@@@std@@YA$$QEAPEAU_Container_base12@0@AEAPEAU10@@Z DD imagerel $LN3
	DD	imagerel $LN3+13
	DD	imagerel $unwind$??$forward@PEAU_Container_base12@std@@@std@@YA$$QEAPEAU_Container_base12@0@AEAPEAU10@@Z
pdata	ENDS
;	COMDAT pdata
pdata	SEGMENT
$pdata$??$_Construct_in_place@PEADAEBQEAD@std@@YAXAEAPEADAEBQEAD@Z DD imagerel $LN3
	DD	imagerel $LN3+90
	DD	imagerel $unwind$??$_Construct_in_place@PEADAEBQEAD@std@@YAXAEAPEADAEBQEAD@Z
pdata	ENDS
;	COMDAT pdata
pdata	SEGMENT
$pdata$??$_Allocate_manually_vector_aligned@U_Default_allocate_traits@std@@@std@@YAPEAX_K@Z DD imagerel $LN13
	DD	imagerel $LN13+279
	DD	imagerel $unwind$??$_Allocate_manually_vector_aligned@U_Default_allocate_traits@std@@@std@@YAPEAX_K@Z
pdata	ENDS
;	COMDAT pdata
pdata	SEGMENT
$pdata$??$_Uninitialized_move@PEAUhookData@@V?$allocator@UhookData@@@std@@@std@@YAPEAUhookData@@QEAU1@0PEAU1@AEAV?$allocator@UhookData@@@0@@Z DD imagerel $LN7
	DD	imagerel $LN7+212
	DD	imagerel $unwind$??$_Uninitialized_move@PEAUhookData@@V?$allocator@UhookData@@@std@@@std@@YAPEAUhookData@@QEAU1@0PEAU1@AEAV?$allocator@UhookData@@@0@@Z
pdata	ENDS
;	COMDAT pdata
pdata	SEGMENT
$pdata$?dtor$0@?0???$_Uninitialized_move@PEAUhookData@@V?$allocator@UhookData@@@std@@@std@@YAPEAUhookData@@QEAU1@0PEAU1@AEAV?$allocator@UhookData@@@0@@Z@4HA DD imagerel ?dtor$0@?0???$_Uninitialized_move@PEAUhookData@@V?$allocator@UhookData@@@std@@@std@@YAPEAUhookData@@QEAU1@0PEAU1@AEAV?$allocator@UhookData@@@0@@Z@4HA
	DD	imagerel ?dtor$0@?0???$_Uninitialized_move@PEAUhookData@@V?$allocator@UhookData@@@std@@@std@@YAPEAUhookData@@QEAU1@0PEAU1@AEAV?$allocator@UhookData@@@0@@Z@4HA+35
	DD	imagerel $unwind$?dtor$0@?0???$_Uninitialized_move@PEAUhookData@@V?$allocator@UhookData@@@std@@@std@@YAPEAUhookData@@QEAU1@0PEAU1@AEAV?$allocator@UhookData@@@0@@Z@4HA
pdata	ENDS
;	COMDAT pdata
pdata	SEGMENT
$pdata$??$_Min_value@_K@std@@YAAEB_KAEB_K0@Z DD imagerel $LN5
	DD	imagerel $LN5+94
	DD	imagerel $unwind$??$_Min_value@_K@std@@YAAEB_KAEB_K0@Z
pdata	ENDS
;	COMDAT pdata
pdata	SEGMENT
$pdata$??$_Get_size_of_n@$0GI@@std@@YA_K_K@Z DD imagerel $LN4
	DD	imagerel $LN4+84
	DD	imagerel $unwind$??$_Get_size_of_n@$0GI@@std@@YA_K_K@Z
pdata	ENDS
;	COMDAT pdata
pdata	SEGMENT
$pdata$??$_Traits_equal@U?$char_traits@D@std@@@std@@YA_NQEBD_K01@Z DD imagerel $LN5
	DD	imagerel $LN5+110
	DD	imagerel $unwind$??$_Traits_equal@U?$char_traits@D@std@@@std@@YA_NQEBD_K01@Z
pdata	ENDS
;	COMDAT pdata
pdata	SEGMENT
$pdata$??$addressof@V?$basic_string@DU?$char_traits@D@std@@V?$allocator@D@2@@std@@@std@@YAPEAV?$basic_string@DU?$char_traits@D@std@@V?$allocator@D@2@@0@AEAV10@@Z DD imagerel $LN3
	DD	imagerel $LN3+13
	DD	imagerel $unwind$??$addressof@V?$basic_string@DU?$char_traits@D@std@@V?$allocator@D@2@@std@@@std@@YAPEAV?$basic_string@DU?$char_traits@D@std@@V?$allocator@D@2@@0@AEAV10@@Z
pdata	ENDS
;	COMDAT pdata
pdata	SEGMENT
$pdata$??$_Get_size_of_n@$00@std@@YA_K_K@Z DD imagerel $LN3
	DD	imagerel $LN3+45
	DD	imagerel $unwind$??$_Get_size_of_n@$00@std@@YA_K_K@Z
pdata	ENDS
;	COMDAT pdata
pdata	SEGMENT
$pdata$??$_Pocma@V?$allocator@D@std@@@std@@YAXAEAV?$allocator@D@0@0@Z DD imagerel $LN3
	DD	imagerel $LN3+51
	DD	imagerel $unwind$??$_Pocma@V?$allocator@D@std@@@std@@YAXAEAV?$allocator@D@0@0@Z
pdata	ENDS
;	COMDAT pdata
pdata	SEGMENT
$pdata$?deallocate@?$_Default_allocator_traits@V?$allocator@U_Container_proxy@std@@@std@@@std@@SAXAEAV?$allocator@U_Container_proxy@std@@@2@QEAU_Container_proxy@2@_K@Z DD imagerel $LN3
	DD	imagerel $LN3+65
	DD	imagerel $unwind$?deallocate@?$_Default_allocator_traits@V?$allocator@U_Container_proxy@std@@@std@@@std@@SAXAEAV?$allocator@U_Container_proxy@std@@@2@QEAU_Container_proxy@2@_K@Z
pdata	ENDS
;	COMDAT pdata
pdata	SEGMENT
$pdata$??$addressof@PEAD@std@@YAPEAPEADAEAPEAD@Z DD imagerel $LN3
	DD	imagerel $LN3+13
	DD	imagerel $unwind$??$addressof@PEAD@std@@YAPEAPEADAEAPEAD@Z
pdata	ENDS
;	COMDAT pdata
pdata	SEGMENT
$pdata$??$forward@AEBQEAD@std@@YAAEBQEADAEBQEAD@Z DD imagerel $LN3
	DD	imagerel $LN3+13
	DD	imagerel $unwind$??$forward@AEBQEAD@std@@YAAEBQEADAEBQEAD@Z
pdata	ENDS
;	COMDAT pdata
pdata	SEGMENT
$pdata$??$_Get_unwrapped@UhookData@@@std@@YAPEAUhookData@@QEAU1@@Z DD imagerel $LN3
	DD	imagerel $LN3+13
	DD	imagerel $unwind$??$_Get_unwrapped@UhookData@@@std@@YAPEAUhookData@@QEAU1@@Z
pdata	ENDS
;	COMDAT pdata
pdata	SEGMENT
$pdata$??0?$_Uninitialized_backout_al@V?$allocator@UhookData@@@std@@@std@@QEAA@PEAUhookData@@AEAV?$allocator@UhookData@@@1@@Z DD imagerel $LN3
	DD	imagerel $LN3+64
	DD	imagerel $unwind$??0?$_Uninitialized_backout_al@V?$allocator@UhookData@@@std@@@std@@QEAA@PEAUhookData@@AEAV?$allocator@UhookData@@@1@@Z
pdata	ENDS
;	COMDAT pdata
pdata	SEGMENT
$pdata$??1?$_Uninitialized_backout_al@V?$allocator@UhookData@@@std@@@std@@QEAA@XZ DD imagerel $LN3
	DD	imagerel $LN3+67
	DD	imagerel $unwind$??1?$_Uninitialized_backout_al@V?$allocator@UhookData@@@std@@@std@@QEAA@XZ
pdata	ENDS
;	COMDAT pdata
pdata	SEGMENT
$pdata$?_Release@?$_Uninitialized_backout_al@V?$allocator@UhookData@@@std@@@std@@QEAAPEAUhookData@@XZ DD imagerel $LN3
	DD	imagerel $LN3+34
	DD	imagerel $unwind$?_Release@?$_Uninitialized_backout_al@V?$allocator@UhookData@@@std@@@std@@QEAAPEAUhookData@@XZ
pdata	ENDS
;	COMDAT pdata
pdata	SEGMENT
$pdata$??$_Emplace_back@UhookData@@@?$_Uninitialized_backout_al@V?$allocator@UhookData@@@std@@@std@@QEAAX$$QEAUhookData@@@Z DD imagerel $LN3
	DD	imagerel $LN3+117
	DD	imagerel $unwind$??$_Emplace_back@UhookData@@@?$_Uninitialized_backout_al@V?$allocator@UhookData@@@std@@@std@@QEAAX$$QEAUhookData@@@Z
pdata	ENDS
;	COMDAT pdata
pdata	SEGMENT
$pdata$??$_Refancy@PEAUhookData@@$0A@@std@@YAPEAUhookData@@PEAU1@@Z DD imagerel $LN3
	DD	imagerel $LN3+13
	DD	imagerel $unwind$??$_Refancy@PEAUhookData@@$0A@@std@@YAPEAUhookData@@PEAU1@@Z
pdata	ENDS
;	COMDAT pdata
pdata	SEGMENT
$pdata$??$forward@UhookData@@@std@@YA$$QEAUhookData@@AEAU1@@Z DD imagerel $LN3
	DD	imagerel $LN3+13
	DD	imagerel $unwind$??$forward@UhookData@@@std@@YA$$QEAUhookData@@AEAU1@@Z
pdata	ENDS
;	COMDAT pdata
pdata	SEGMENT
$pdata$??$construct@UhookData@@U1@@?$_Default_allocator_traits@V?$allocator@UhookData@@@std@@@std@@SAXAEAV?$allocator@UhookData@@@1@QEAUhookData@@$$QEAU3@@Z DD imagerel $LN3
	DD	imagerel $LN3+89
	DD	imagerel $unwind$??$construct@UhookData@@U1@@?$_Default_allocator_traits@V?$allocator@UhookData@@@std@@@std@@SAXAEAV?$allocator@UhookData@@@1@QEAUhookData@@$$QEAU3@@Z
pdata	ENDS
;	COMDAT rtc$TMZ
rtc$TMZ	SEGMENT
_RTC_Shutdown.rtc$TMZ DQ FLAT:_RTC_Shutdown
rtc$TMZ	ENDS
;	COMDAT rtc$IMZ
rtc$IMZ	SEGMENT
_RTC_InitBase.rtc$IMZ DQ FLAT:_RTC_InitBase
rtc$IMZ	ENDS
;	COMDAT ??_R1A@?0A@EA@bad_array_new_length@std@@8
rdata$r	SEGMENT
??_R1A@?0A@EA@bad_array_new_length@std@@8 DD imagerel ??_R0?AVbad_array_new_length@std@@@8 ; std::bad_array_new_length::`RTTI Base Class Descriptor at (0,-1,0,64)'
	DD	02H
	DD	00H
	DD	0ffffffffH
	DD	00H
	DD	040H
	DD	imagerel ??_R3bad_array_new_length@std@@8
rdata$r	ENDS
;	COMDAT ??_R2bad_array_new_length@std@@8
rdata$r	SEGMENT
??_R2bad_array_new_length@std@@8 DD imagerel ??_R1A@?0A@EA@bad_array_new_length@std@@8 ; std::bad_array_new_length::`RTTI Base Class Array'
	DD	imagerel ??_R1A@?0A@EA@bad_alloc@std@@8
	DD	imagerel ??_R1A@?0A@EA@exception@std@@8
	ORG $+3
rdata$r	ENDS
;	COMDAT ??_R3bad_array_new_length@std@@8
rdata$r	SEGMENT
??_R3bad_array_new_length@std@@8 DD 00H			; std::bad_array_new_length::`RTTI Class Hierarchy Descriptor'
	DD	00H
	DD	03H
	DD	imagerel ??_R2bad_array_new_length@std@@8
rdata$r	ENDS
;	COMDAT ??_R4bad_array_new_length@std@@6B@
rdata$r	SEGMENT
??_R4bad_array_new_length@std@@6B@ DD 01H		; std::bad_array_new_length::`RTTI Complete Object Locator'
	DD	00H
	DD	00H
	DD	imagerel ??_R0?AVbad_array_new_length@std@@@8
	DD	imagerel ??_R3bad_array_new_length@std@@8
	DD	imagerel ??_R4bad_array_new_length@std@@6B@
rdata$r	ENDS
;	COMDAT ??_R1A@?0A@EA@bad_alloc@std@@8
rdata$r	SEGMENT
??_R1A@?0A@EA@bad_alloc@std@@8 DD imagerel ??_R0?AVbad_alloc@std@@@8 ; std::bad_alloc::`RTTI Base Class Descriptor at (0,-1,0,64)'
	DD	01H
	DD	00H
	DD	0ffffffffH
	DD	00H
	DD	040H
	DD	imagerel ??_R3bad_alloc@std@@8
rdata$r	ENDS
;	COMDAT ??_R2bad_alloc@std@@8
rdata$r	SEGMENT
??_R2bad_alloc@std@@8 DD imagerel ??_R1A@?0A@EA@bad_alloc@std@@8 ; std::bad_alloc::`RTTI Base Class Array'
	DD	imagerel ??_R1A@?0A@EA@exception@std@@8
	ORG $+3
rdata$r	ENDS
;	COMDAT ??_R3bad_alloc@std@@8
rdata$r	SEGMENT
??_R3bad_alloc@std@@8 DD 00H				; std::bad_alloc::`RTTI Class Hierarchy Descriptor'
	DD	00H
	DD	02H
	DD	imagerel ??_R2bad_alloc@std@@8
rdata$r	ENDS
;	COMDAT ??_R4bad_alloc@std@@6B@
rdata$r	SEGMENT
??_R4bad_alloc@std@@6B@ DD 01H				; std::bad_alloc::`RTTI Complete Object Locator'
	DD	00H
	DD	00H
	DD	imagerel ??_R0?AVbad_alloc@std@@@8
	DD	imagerel ??_R3bad_alloc@std@@8
	DD	imagerel ??_R4bad_alloc@std@@6B@
rdata$r	ENDS
;	COMDAT ??_R1A@?0A@EA@exception@std@@8
rdata$r	SEGMENT
??_R1A@?0A@EA@exception@std@@8 DD imagerel ??_R0?AVexception@std@@@8 ; std::exception::`RTTI Base Class Descriptor at (0,-1,0,64)'
	DD	00H
	DD	00H
	DD	0ffffffffH
	DD	00H
	DD	040H
	DD	imagerel ??_R3exception@std@@8
rdata$r	ENDS
;	COMDAT ??_R2exception@std@@8
rdata$r	SEGMENT
??_R2exception@std@@8 DD imagerel ??_R1A@?0A@EA@exception@std@@8 ; std::exception::`RTTI Base Class Array'
	ORG $+3
rdata$r	ENDS
;	COMDAT ??_R3exception@std@@8
rdata$r	SEGMENT
??_R3exception@std@@8 DD 00H				; std::exception::`RTTI Class Hierarchy Descriptor'
	DD	00H
	DD	01H
	DD	imagerel ??_R2exception@std@@8
rdata$r	ENDS
;	COMDAT ??_R4exception@std@@6B@
rdata$r	SEGMENT
??_R4exception@std@@6B@ DD 01H				; std::exception::`RTTI Complete Object Locator'
	DD	00H
	DD	00H
	DD	imagerel ??_R0?AVexception@std@@@8
	DD	imagerel ??_R3exception@std@@8
	DD	imagerel ??_R4exception@std@@6B@
rdata$r	ENDS
;	COMDAT ??_C@_1EG@ODKBEHFN@?$AA?$CC?$AAv?$AAe?$AAc?$AAt?$AAo?$AAr?$AA?5?$AAi?$AAt?$AAe?$AAr?$AAa?$AAt?$AAo@
CONST	SEGMENT
??_C@_1EG@ODKBEHFN@?$AA?$CC?$AAv?$AAe?$AAc?$AAt?$AAo?$AAr?$AA?5?$AAi?$AAt?$AAe?$AAr?$AAa?$AAt?$AAo@ DB '"'
	DB	00H, 'v', 00H, 'e', 00H, 'c', 00H, 't', 00H, 'o', 00H, 'r', 00H
	DB	' ', 00H, 'i', 00H, 't', 00H, 'e', 00H, 'r', 00H, 'a', 00H, 't'
	DB	00H, 'o', 00H, 'r', 00H, ' ', 00H, 'r', 00H, 'a', 00H, 'n', 00H
	DB	'g', 00H, 'e', 00H, ' ', 00H, 't', 00H, 'r', 00H, 'a', 00H, 'n'
	DB	00H, 's', 00H, 'p', 00H, 'o', 00H, 's', 00H, 'e', 00H, 'd', 00H
	DB	'"', 00H, 00H, 00H				; `string'
CONST	ENDS
;	COMDAT ??_C@_0CB@LIAHLBAO@vector?5iterator?5range?5transpose@
CONST	SEGMENT
??_C@_0CB@LIAHLBAO@vector?5iterator?5range?5transpose@ DB 'vector iterato'
	DB	'r range transposed', 00H			; `string'
CONST	ENDS
;	COMDAT ??_C@_1HE@KBMFDAFB@?$AA?$CC?$AAv?$AAe?$AAc?$AAt?$AAo?$AAr?$AA?5?$AAi?$AAt?$AAe?$AAr?$AAa?$AAt?$AAo@
CONST	SEGMENT
??_C@_1HE@KBMFDAFB@?$AA?$CC?$AAv?$AAe?$AAc?$AAt?$AAo?$AAr?$AA?5?$AAi?$AAt?$AAe?$AAr?$AAa?$AAt?$AAo@ DB '"'
	DB	00H, 'v', 00H, 'e', 00H, 'c', 00H, 't', 00H, 'o', 00H, 'r', 00H
	DB	' ', 00H, 'i', 00H, 't', 00H, 'e', 00H, 'r', 00H, 'a', 00H, 't'
	DB	00H, 'o', 00H, 'r', 00H, 's', 00H, ' ', 00H, 'i', 00H, 'n', 00H
	DB	' ', 00H, 'r', 00H, 'a', 00H, 'n', 00H, 'g', 00H, 'e', 00H, ' '
	DB	00H, 'a', 00H, 'r', 00H, 'e', 00H, ' ', 00H, 'f', 00H, 'r', 00H
	DB	'o', 00H, 'm', 00H, ' ', 00H, 'd', 00H, 'i', 00H, 'f', 00H, 'f'
	DB	00H, 'e', 00H, 'r', 00H, 'e', 00H, 'n', 00H, 't', 00H, ' ', 00H
	DB	'c', 00H, 'o', 00H, 'n', 00H, 't', 00H, 'a', 00H, 'i', 00H, 'n'
	DB	00H, 'e', 00H, 'r', 00H, 's', 00H, '"', 00H, 00H, 00H ; `string'
CONST	ENDS
;	COMDAT ??_C@_1CG@LJCPDKEJ@?$AAs?$AAt?$AAd?$AA?3?$AA?3?$AA_?$AAV?$AAe?$AAr?$AAi?$AAf?$AAy?$AA_?$AAr?$AAa@
CONST	SEGMENT
??_C@_1CG@LJCPDKEJ@?$AAs?$AAt?$AAd?$AA?3?$AA?3?$AA_?$AAV?$AAe?$AAr?$AAi?$AAf?$AAy?$AA_?$AAr?$AAa@ DB 's'
	DB	00H, 't', 00H, 'd', 00H, ':', 00H, ':', 00H, '_', 00H, 'V', 00H
	DB	'e', 00H, 'r', 00H, 'i', 00H, 'f', 00H, 'y', 00H, '_', 00H, 'r'
	DB	00H, 'a', 00H, 'n', 00H, 'g', 00H, 'e', 00H, 00H, 00H ; `string'
CONST	ENDS
;	COMDAT ??_C@_0DI@PBEELKIF@vector?5iterators?5in?5range?5are?5f@
CONST	SEGMENT
??_C@_0DI@PBEELKIF@vector?5iterators?5in?5range?5are?5f@ DB 'vector itera'
	DB	'tors in range are from different containers', 00H ; `string'
CONST	ENDS
;	COMDAT ??_C@_0BA@JFNIOLAK@string?5too?5long@
CONST	SEGMENT
??_C@_0BA@JFNIOLAK@string?5too?5long@ DB 'string too long', 00H ; `string'
CONST	ENDS
;	COMDAT ??_C@_0BD@OLBABOEK@vector?$DMT?$DO?5too?5long@
CONST	SEGMENT
??_C@_0BD@OLBABOEK@vector?$DMT?$DO?5too?5long@ DB 'vector<T> too long', 00H ; `string'
CONST	ENDS
;	COMDAT ??_C@_1EA@DJDGNIII@?$AA?$CC?$AAv?$AAe?$AAc?$AAt?$AAo?$AAr?$AA?5?$AAi?$AAt?$AAe?$AAr?$AAa?$AAt?$AAo@
CONST	SEGMENT
??_C@_1EA@DJDGNIII@?$AA?$CC?$AAv?$AAe?$AAc?$AAt?$AAo?$AAr?$AA?5?$AAi?$AAt?$AAe?$AAr?$AAa?$AAt?$AAo@ DB '"'
	DB	00H, 'v', 00H, 'e', 00H, 'c', 00H, 't', 00H, 'o', 00H, 'r', 00H
	DB	' ', 00H, 'i', 00H, 't', 00H, 'e', 00H, 'r', 00H, 'a', 00H, 't'
	DB	00H, 'o', 00H, 'r', 00H, 's', 00H, ' ', 00H, 'i', 00H, 'n', 00H
	DB	'c', 00H, 'o', 00H, 'm', 00H, 'p', 00H, 'a', 00H, 't', 00H, 'i'
	DB	00H, 'b', 00H, 'l', 00H, 'e', 00H, '"', 00H, 00H, 00H ; `string'
CONST	ENDS
;	COMDAT ??_C@_1NG@KIOFJOHO@?$AAs?$AAt?$AAd?$AA?3?$AA?3?$AA_?$AAV?$AAe?$AAc?$AAt?$AAo?$AAr?$AA_?$AAc?$AAo@
CONST	SEGMENT
??_C@_1NG@KIOFJOHO@?$AAs?$AAt?$AAd?$AA?3?$AA?3?$AA_?$AAV?$AAe?$AAc?$AAt?$AAo?$AAr?$AA_?$AAc?$AAo@ DB 's'
	DB	00H, 't', 00H, 'd', 00H, ':', 00H, ':', 00H, '_', 00H, 'V', 00H
	DB	'e', 00H, 'c', 00H, 't', 00H, 'o', 00H, 'r', 00H, '_', 00H, 'c'
	DB	00H, 'o', 00H, 'n', 00H, 's', 00H, 't', 00H, '_', 00H, 'i', 00H
	DB	't', 00H, 'e', 00H, 'r', 00H, 'a', 00H, 't', 00H, 'o', 00H, 'r'
	DB	00H, '<', 00H, 'c', 00H, 'l', 00H, 'a', 00H, 's', 00H, 's', 00H
	DB	' ', 00H, 's', 00H, 't', 00H, 'd', 00H, ':', 00H, ':', 00H, '_'
	DB	00H, 'V', 00H, 'e', 00H, 'c', 00H, 't', 00H, 'o', 00H, 'r', 00H
	DB	'_', 00H, 'v', 00H, 'a', 00H, 'l', 00H, '<', 00H, 's', 00H, 't'
	DB	00H, 'r', 00H, 'u', 00H, 'c', 00H, 't', 00H, ' ', 00H, 's', 00H
	DB	't', 00H, 'd', 00H, ':', 00H, ':', 00H, '_', 00H, 'S', 00H, 'i'
	DB	00H, 'm', 00H, 'p', 00H, 'l', 00H, 'e', 00H, '_', 00H, 't', 00H
	DB	'y', 00H, 'p', 00H, 'e', 00H, 's', 00H, '<', 00H, 's', 00H, 't'
	DB	00H, 'r', 00H, 'u', 00H, 'c', 00H, 't', 00H, ' ', 00H, 'h', 00H
	DB	'o', 00H, 'o', 00H, 'k', 00H, 'D', 00H, 'a', 00H, 't', 00H, 'a'
	DB	00H, '>', 00H, ' ', 00H, '>', 00H, ' ', 00H, '>', 00H, ':', 00H
	DB	':', 00H, '_', 00H, 'C', 00H, 'o', 00H, 'm', 00H, 'p', 00H, 'a'
	DB	00H, 't', 00H, 00H, 00H			; `string'
CONST	ENDS
;	COMDAT ??_C@_0BO@CAOBBIOC@vector?5iterators?5incompatible@
CONST	SEGMENT
??_C@_0BO@CAOBBIOC@vector?5iterators?5incompatible@ DB 'vector iterators '
	DB	'incompatible', 00H				; `string'
CONST	ENDS
;	COMDAT ??_C@_1GC@JDCKOLAC@?$AA?$CC?$AAc?$AAa?$AAn?$AA?8?$AAt?$AA?5?$AAd?$AAe?$AAr?$AAe?$AAf?$AAe?$AAr?$AAe@
CONST	SEGMENT
??_C@_1GC@JDCKOLAC@?$AA?$CC?$AAc?$AAa?$AAn?$AA?8?$AAt?$AA?5?$AAd?$AAe?$AAr?$AAe?$AAf?$AAe?$AAr?$AAe@ DB '"'
	DB	00H, 'c', 00H, 'a', 00H, 'n', 00H, '''', 00H, 't', 00H, ' ', 00H
	DB	'd', 00H, 'e', 00H, 'r', 00H, 'e', 00H, 'f', 00H, 'e', 00H, 'r'
	DB	00H, 'e', 00H, 'n', 00H, 'c', 00H, 'e', 00H, ' ', 00H, 'o', 00H
	DB	'u', 00H, 't', 00H, ' ', 00H, 'o', 00H, 'f', 00H, ' ', 00H, 'r'
	DB	00H, 'a', 00H, 'n', 00H, 'g', 00H, 'e', 00H, ' ', 00H, 'v', 00H
	DB	'e', 00H, 'c', 00H, 't', 00H, 'o', 00H, 'r', 00H, ' ', 00H, 'i'
	DB	00H, 't', 00H, 'e', 00H, 'r', 00H, 'a', 00H, 't', 00H, 'o', 00H
	DB	'r', 00H, '"', 00H, 00H, 00H			; `string'
CONST	ENDS
;	COMDAT ??_C@_0CP@MDHADBHN@can?8t?5dereference?5out?5of?5range?5@
CONST	SEGMENT
??_C@_0CP@MDHADBHN@can?8t?5dereference?5out?5of?5range?5@ DB 'can''t dere'
	DB	'ference out of range vector iterator', 00H	; `string'
CONST	ENDS
;	COMDAT ??_C@_1GM@FNBFNBEL@?$AA?$CC?$AAc?$AAa?$AAn?$AA?8?$AAt?$AA?5?$AAd?$AAe?$AAr?$AAe?$AAf?$AAe?$AAr?$AAe@
CONST	SEGMENT
??_C@_1GM@FNBFNBEL@?$AA?$CC?$AAc?$AAa?$AAn?$AA?8?$AAt?$AA?5?$AAd?$AAe?$AAr?$AAe?$AAf?$AAe?$AAr?$AAe@ DB '"'
	DB	00H, 'c', 00H, 'a', 00H, 'n', 00H, '''', 00H, 't', 00H, ' ', 00H
	DB	'd', 00H, 'e', 00H, 'r', 00H, 'e', 00H, 'f', 00H, 'e', 00H, 'r'
	DB	00H, 'e', 00H, 'n', 00H, 'c', 00H, 'e', 00H, ' ', 00H, 'v', 00H
	DB	'a', 00H, 'l', 00H, 'u', 00H, 'e', 00H, '-', 00H, 'i', 00H, 'n'
	DB	00H, 'i', 00H, 't', 00H, 'i', 00H, 'a', 00H, 'l', 00H, 'i', 00H
	DB	'z', 00H, 'e', 00H, 'd', 00H, ' ', 00H, 'v', 00H, 'e', 00H, 'c'
	DB	00H, 't', 00H, 'o', 00H, 'r', 00H, ' ', 00H, 'i', 00H, 't', 00H
	DB	'e', 00H, 'r', 00H, 'a', 00H, 't', 00H, 'o', 00H, 'r', 00H, '"'
	DB	00H, 00H, 00H				; `string'
CONST	ENDS
;	COMDAT ??_C@_1NO@GBEPGGBL@?$AAs?$AAt?$AAd?$AA?3?$AA?3?$AA_?$AAV?$AAe?$AAc?$AAt?$AAo?$AAr?$AA_?$AAc?$AAo@
CONST	SEGMENT
??_C@_1NO@GBEPGGBL@?$AAs?$AAt?$AAd?$AA?3?$AA?3?$AA_?$AAV?$AAe?$AAc?$AAt?$AAo?$AAr?$AA_?$AAc?$AAo@ DB 's'
	DB	00H, 't', 00H, 'd', 00H, ':', 00H, ':', 00H, '_', 00H, 'V', 00H
	DB	'e', 00H, 'c', 00H, 't', 00H, 'o', 00H, 'r', 00H, '_', 00H, 'c'
	DB	00H, 'o', 00H, 'n', 00H, 's', 00H, 't', 00H, '_', 00H, 'i', 00H
	DB	't', 00H, 'e', 00H, 'r', 00H, 'a', 00H, 't', 00H, 'o', 00H, 'r'
	DB	00H, '<', 00H, 'c', 00H, 'l', 00H, 'a', 00H, 's', 00H, 's', 00H
	DB	' ', 00H, 's', 00H, 't', 00H, 'd', 00H, ':', 00H, ':', 00H, '_'
	DB	00H, 'V', 00H, 'e', 00H, 'c', 00H, 't', 00H, 'o', 00H, 'r', 00H
	DB	'_', 00H, 'v', 00H, 'a', 00H, 'l', 00H, '<', 00H, 's', 00H, 't'
	DB	00H, 'r', 00H, 'u', 00H, 'c', 00H, 't', 00H, ' ', 00H, 's', 00H
	DB	't', 00H, 'd', 00H, ':', 00H, ':', 00H, '_', 00H, 'S', 00H, 'i'
	DB	00H, 'm', 00H, 'p', 00H, 'l', 00H, 'e', 00H, '_', 00H, 't', 00H
	DB	'y', 00H, 'p', 00H, 'e', 00H, 's', 00H, '<', 00H, 's', 00H, 't'
	DB	00H, 'r', 00H, 'u', 00H, 'c', 00H, 't', 00H, ' ', 00H, 'h', 00H
	DB	'o', 00H, 'o', 00H, 'k', 00H, 'D', 00H, 'a', 00H, 't', 00H, 'a'
	DB	00H, '>', 00H, ' ', 00H, '>', 00H, ' ', 00H, '>', 00H, ':', 00H
	DB	':', 00H, 'o', 00H, 'p', 00H, 'e', 00H, 'r', 00H, 'a', 00H, 't'
	DB	00H, 'o', 00H, 'r', 00H, ' ', 00H, '-', 00H, '>', 00H, 00H, 00H ; `string'
CONST	ENDS
;	COMDAT ??_C@_0DE@CHADHGFF@can?8t?5dereference?5value?9initial@
CONST	SEGMENT
??_C@_0DE@CHADHGFF@can?8t?5dereference?5value?9initial@ DB 'can''t derefe'
	DB	'rence value-initialized vector iterator', 00H ; `string'
CONST	ENDS
;	COMDAT ??_C@_1EM@BEMPOGMM@?$AA?$CC?$AAv?$AAe?$AAc?$AAt?$AAo?$AAr?$AA?5?$AAe?$AAr?$AAa?$AAs?$AAe?$AA?5?$AAi@
CONST	SEGMENT
??_C@_1EM@BEMPOGMM@?$AA?$CC?$AAv?$AAe?$AAc?$AAt?$AAo?$AAr?$AA?5?$AAe?$AAr?$AAa?$AAs?$AAe?$AA?5?$AAi@ DB '"'
	DB	00H, 'v', 00H, 'e', 00H, 'c', 00H, 't', 00H, 'o', 00H, 'r', 00H
	DB	' ', 00H, 'e', 00H, 'r', 00H, 'a', 00H, 's', 00H, 'e', 00H, ' '
	DB	00H, 'i', 00H, 't', 00H, 'e', 00H, 'r', 00H, 'a', 00H, 't', 00H
	DB	'o', 00H, 'r', 00H, ' ', 00H, 'o', 00H, 'u', 00H, 't', 00H, 's'
	DB	00H, 'i', 00H, 'd', 00H, 'e', 00H, ' ', 00H, 'r', 00H, 'a', 00H
	DB	'n', 00H, 'g', 00H, 'e', 00H, '"', 00H, 00H, 00H ; `string'
CONST	ENDS
;	COMDAT ??_C@_1JG@GJLGOKOD@?$AAs?$AAt?$AAd?$AA?3?$AA?3?$AAv?$AAe?$AAc?$AAt?$AAo?$AAr?$AA?$DM?$AAs?$AAt?$AAr@
CONST	SEGMENT
??_C@_1JG@GJLGOKOD@?$AAs?$AAt?$AAd?$AA?3?$AA?3?$AAv?$AAe?$AAc?$AAt?$AAo?$AAr?$AA?$DM?$AAs?$AAt?$AAr@ DB 's'
	DB	00H, 't', 00H, 'd', 00H, ':', 00H, ':', 00H, 'v', 00H, 'e', 00H
	DB	'c', 00H, 't', 00H, 'o', 00H, 'r', 00H, '<', 00H, 's', 00H, 't'
	DB	00H, 'r', 00H, 'u', 00H, 'c', 00H, 't', 00H, ' ', 00H, 'h', 00H
	DB	'o', 00H, 'o', 00H, 'k', 00H, 'D', 00H, 'a', 00H, 't', 00H, 'a'
	DB	00H, ',', 00H, 'c', 00H, 'l', 00H, 'a', 00H, 's', 00H, 's', 00H
	DB	' ', 00H, 's', 00H, 't', 00H, 'd', 00H, ':', 00H, ':', 00H, 'a'
	DB	00H, 'l', 00H, 'l', 00H, 'o', 00H, 'c', 00H, 'a', 00H, 't', 00H
	DB	'o', 00H, 'r', 00H, '<', 00H, 's', 00H, 't', 00H, 'r', 00H, 'u'
	DB	00H, 'c', 00H, 't', 00H, ' ', 00H, 'h', 00H, 'o', 00H, 'o', 00H
	DB	'k', 00H, 'D', 00H, 'a', 00H, 't', 00H, 'a', 00H, '>', 00H, ' '
	DB	00H, '>', 00H, ':', 00H, ':', 00H, 'e', 00H, 'r', 00H, 'a', 00H
	DB	's', 00H, 'e', 00H, 00H, 00H			; `string'
CONST	ENDS
;	COMDAT ??_C@_1MO@NOOOHLI@?$AAC?$AA?3?$AA?2?$AAP?$AAr?$AAo?$AAg?$AAr?$AAa?$AAm?$AA?5?$AAF?$AAi?$AAl?$AAe@
CONST	SEGMENT
??_C@_1MO@NOOOHLI@?$AAC?$AA?3?$AA?2?$AAP?$AAr?$AAo?$AAg?$AAr?$AAa?$AAm?$AA?5?$AAF?$AAi?$AAl?$AAe@ DB 'C'
	DB	00H, ':', 00H, '\', 00H, 'P', 00H, 'r', 00H, 'o', 00H, 'g', 00H
	DB	'r', 00H, 'a', 00H, 'm', 00H, ' ', 00H, 'F', 00H, 'i', 00H, 'l'
	DB	00H, 'e', 00H, 's', 00H, ' ', 00H, '(', 00H, 'x', 00H, '8', 00H
	DB	'6', 00H, ')', 00H, '\', 00H, 'M', 00H, 'i', 00H, 'c', 00H, 'r'
	DB	00H, 'o', 00H, 's', 00H, 'o', 00H, 'f', 00H, 't', 00H, ' ', 00H
	DB	'V', 00H, 'i', 00H, 's', 00H, 'u', 00H, 'a', 00H, 'l', 00H, ' '
	DB	00H, 'S', 00H, 't', 00H, 'u', 00H, 'd', 00H, 'i', 00H, 'o', 00H
	DB	'\', 00H, '2', 00H, '0', 00H, '1', 00H, '9', 00H, '\', 00H, 'C'
	DB	00H, 'o', 00H, 'm', 00H, 'm', 00H, 'u', 00H, 'n', 00H, 'i', 00H
	DB	't', 00H, 'y', 00H, '\', 00H, 'V', 00H, 'C', 00H, '\', 00H, 'T'
	DB	00H, 'o', 00H, 'o', 00H, 'l', 00H, 's', 00H, '\', 00H, 'M', 00H
	DB	'S', 00H, 'V', 00H, 'C', 00H, '\', 00H, '1', 00H, '4', 00H, '.'
	DB	00H, '2', 00H, '3', 00H, '.', 00H, '2', 00H, '8', 00H, '1', 00H
	DB	'0', 00H, '5', 00H, '\', 00H, 'i', 00H, 'n', 00H, 'c', 00H, 'l'
	DB	00H, 'u', 00H, 'd', 00H, 'e', 00H, '\', 00H, 'v', 00H, 'e', 00H
	DB	'c', 00H, 't', 00H, 'o', 00H, 'r', 00H, 00H, 00H ; `string'
CONST	ENDS
;	COMDAT ??_C@_0GH@OOPCKGB@C?3?2Program?5Files?5?$CIx86?$CJ?2Microsof@
CONST	SEGMENT
??_C@_0GH@OOPCKGB@C?3?2Program?5Files?5?$CIx86?$CJ?2Microsof@ DB 'C:\Prog'
	DB	'ram Files (x86)\Microsoft Visual Studio\2019\Community\VC\Too'
	DB	'ls\MSVC\14.23.28105\include\vector', 00H	; `string'
CONST	ENDS
;	COMDAT ??_C@_0CE@EAMOGAIE@vector?5erase?5iterator?5outside?5r@
CONST	SEGMENT
??_C@_0CE@EAMOGAIE@vector?5erase?5iterator?5outside?5r@ DB 'vector erase '
	DB	'iterator outside range', 00H		; `string'
CONST	ENDS
;	COMDAT ??_C@_1DG@PLBPCAEM@?$AA?$CC?$AAI?$AAT?$AAE?$AAR?$AAA?$AAT?$AAO?$AAR?$AA?5?$AAL?$AAI?$AAS?$AAT?$AA?5@
CONST	SEGMENT
??_C@_1DG@PLBPCAEM@?$AA?$CC?$AAI?$AAT?$AAE?$AAR?$AAA?$AAT?$AAO?$AAR?$AA?5?$AAL?$AAI?$AAS?$AAT?$AA?5@ DB '"'
	DB	00H, 'I', 00H, 'T', 00H, 'E', 00H, 'R', 00H, 'A', 00H, 'T', 00H
	DB	'O', 00H, 'R', 00H, ' ', 00H, 'L', 00H, 'I', 00H, 'S', 00H, 'T'
	DB	00H, ' ', 00H, 'C', 00H, 'O', 00H, 'R', 00H, 'R', 00H, 'U', 00H
	DB	'P', 00H, 'T', 00H, 'E', 00H, 'D', 00H, '!', 00H, '"', 00H, 00H
	DB	00H						; `string'
CONST	ENDS
;	COMDAT ??_C@_1EE@KLDMFDFL@?$AAs?$AAt?$AAd?$AA?3?$AA?3?$AA_?$AAI?$AAt?$AAe?$AAr?$AAa?$AAt?$AAo?$AAr?$AA_@
CONST	SEGMENT
??_C@_1EE@KLDMFDFL@?$AAs?$AAt?$AAd?$AA?3?$AA?3?$AA_?$AAI?$AAt?$AAe?$AAr?$AAa?$AAt?$AAo?$AAr?$AA_@ DB 's'
	DB	00H, 't', 00H, 'd', 00H, ':', 00H, ':', 00H, '_', 00H, 'I', 00H
	DB	't', 00H, 'e', 00H, 'r', 00H, 'a', 00H, 't', 00H, 'o', 00H, 'r'
	DB	00H, '_', 00H, 'b', 00H, 'a', 00H, 's', 00H, 'e', 00H, '1', 00H
	DB	'2', 00H, ':', 00H, ':', 00H, '_', 00H, 'O', 00H, 'r', 00H, 'p'
	DB	00H, 'h', 00H, 'a', 00H, 'n', 00H, '_', 00H, 'm', 00H, 'e', 00H
	DB	00H, 00H					; `string'
CONST	ENDS
;	COMDAT ??_C@_0BJ@LFDBABJJ@ITERATOR?5LIST?5CORRUPTED?$CB@
CONST	SEGMENT
??_C@_0BJ@LFDBABJJ@ITERATOR?5LIST?5CORRUPTED?$CB@ DB 'ITERATOR LIST CORRU'
	DB	'PTED!', 00H					; `string'
CONST	ENDS
;	COMDAT ??_C@_1CG@JNLFBNGN@?$AA?$CC?$AAi?$AAn?$AAv?$AAa?$AAl?$AAi?$AAd?$AA?5?$AAa?$AAr?$AAg?$AAu?$AAm?$AAe@
CONST	SEGMENT
??_C@_1CG@JNLFBNGN@?$AA?$CC?$AAi?$AAn?$AAv?$AAa?$AAl?$AAi?$AAd?$AA?5?$AAa?$AAr?$AAg?$AAu?$AAm?$AAe@ DB '"'
	DB	00H, 'i', 00H, 'n', 00H, 'v', 00H, 'a', 00H, 'l', 00H, 'i', 00H
	DB	'd', 00H, ' ', 00H, 'a', 00H, 'r', 00H, 'g', 00H, 'u', 00H, 'm'
	DB	00H, 'e', 00H, 'n', 00H, 't', 00H, '"', 00H, 00H, 00H ; `string'
CONST	ENDS
;	COMDAT ??_C@_1EK@NIFDJFDG@?$AAs?$AAt?$AAd?$AA?3?$AA?3?$AA_?$AAA?$AAd?$AAj?$AAu?$AAs?$AAt?$AA_?$AAm?$AAa@
CONST	SEGMENT
??_C@_1EK@NIFDJFDG@?$AAs?$AAt?$AAd?$AA?3?$AA?3?$AA_?$AAA?$AAd?$AAj?$AAu?$AAs?$AAt?$AA_?$AAm?$AAa@ DB 's'
	DB	00H, 't', 00H, 'd', 00H, ':', 00H, ':', 00H, '_', 00H, 'A', 00H
	DB	'd', 00H, 'j', 00H, 'u', 00H, 's', 00H, 't', 00H, '_', 00H, 'm'
	DB	00H, 'a', 00H, 'n', 00H, 'u', 00H, 'a', 00H, 'l', 00H, 'l', 00H
	DB	'y', 00H, '_', 00H, 'v', 00H, 'e', 00H, 'c', 00H, 't', 00H, 'o'
	DB	00H, 'r', 00H, '_', 00H, 'a', 00H, 'l', 00H, 'i', 00H, 'g', 00H
	DB	'n', 00H, 'e', 00H, 'd', 00H, 00H, 00H	; `string'
CONST	ENDS
;	COMDAT ??_C@_1NA@CDBIFGMM@?$AAC?$AA?3?$AA?2?$AAP?$AAr?$AAo?$AAg?$AAr?$AAa?$AAm?$AA?5?$AAF?$AAi?$AAl?$AAe@
CONST	SEGMENT
??_C@_1NA@CDBIFGMM@?$AAC?$AA?3?$AA?2?$AAP?$AAr?$AAo?$AAg?$AAr?$AAa?$AAm?$AA?5?$AAF?$AAi?$AAl?$AAe@ DB 'C'
	DB	00H, ':', 00H, '\', 00H, 'P', 00H, 'r', 00H, 'o', 00H, 'g', 00H
	DB	'r', 00H, 'a', 00H, 'm', 00H, ' ', 00H, 'F', 00H, 'i', 00H, 'l'
	DB	00H, 'e', 00H, 's', 00H, ' ', 00H, '(', 00H, 'x', 00H, '8', 00H
	DB	'6', 00H, ')', 00H, '\', 00H, 'M', 00H, 'i', 00H, 'c', 00H, 'r'
	DB	00H, 'o', 00H, 's', 00H, 'o', 00H, 'f', 00H, 't', 00H, ' ', 00H
	DB	'V', 00H, 'i', 00H, 's', 00H, 'u', 00H, 'a', 00H, 'l', 00H, ' '
	DB	00H, 'S', 00H, 't', 00H, 'u', 00H, 'd', 00H, 'i', 00H, 'o', 00H
	DB	'\', 00H, '2', 00H, '0', 00H, '1', 00H, '9', 00H, '\', 00H, 'C'
	DB	00H, 'o', 00H, 'm', 00H, 'm', 00H, 'u', 00H, 'n', 00H, 'i', 00H
	DB	't', 00H, 'y', 00H, '\', 00H, 'V', 00H, 'C', 00H, '\', 00H, 'T'
	DB	00H, 'o', 00H, 'o', 00H, 'l', 00H, 's', 00H, '\', 00H, 'M', 00H
	DB	'S', 00H, 'V', 00H, 'C', 00H, '\', 00H, '1', 00H, '4', 00H, '.'
	DB	00H, '2', 00H, '3', 00H, '.', 00H, '2', 00H, '8', 00H, '1', 00H
	DB	'0', 00H, '5', 00H, '\', 00H, 'i', 00H, 'n', 00H, 'c', 00H, 'l'
	DB	00H, 'u', 00H, 'd', 00H, 'e', 00H, '\', 00H, 'x', 00H, 'm', 00H
	DB	'e', 00H, 'm', 00H, 'o', 00H, 'r', 00H, 'y', 00H, 00H, 00H ; `string'
CONST	ENDS
;	COMDAT ??_C@_0GI@FJIKDGOA@C?3?2Program?5Files?5?$CIx86?$CJ?2Microsof@
CONST	SEGMENT
??_C@_0GI@FJIKDGOA@C?3?2Program?5Files?5?$CIx86?$CJ?2Microsof@ DB 'C:\Pro'
	DB	'gram Files (x86)\Microsoft Visual Studio\2019\Community\VC\To'
	DB	'ols\MSVC\14.23.28105\include\xmemory', 00H	; `string'
CONST	ENDS
;	COMDAT ??_C@_02DKCKIIND@?$CFs@
CONST	SEGMENT
??_C@_02DKCKIIND@?$CFs@ DB '%s', 00H			; `string'
CONST	ENDS
;	COMDAT ??_C@_0BB@FCMFBGOM@invalid?5argument@
CONST	SEGMENT
??_C@_0BB@FCMFBGOM@invalid?5argument@ DB 'invalid argument', 00H ; `string'
CONST	ENDS
;	COMDAT _CT??_R0?AVexception@std@@@8??0exception@std@@QEAA@AEBV01@@Z24
xdata$x	SEGMENT
_CT??_R0?AVexception@std@@@8??0exception@std@@QEAA@AEBV01@@Z24 DD 00H
	DD	imagerel ??_R0?AVexception@std@@@8
	DD	00H
	DD	0ffffffffH
	ORG $+4
	DD	018H
	DD	imagerel ??0exception@std@@QEAA@AEBV01@@Z
xdata$x	ENDS
;	COMDAT ??_R0?AVexception@std@@@8
data$r	SEGMENT
??_R0?AVexception@std@@@8 DQ FLAT:??_7type_info@@6B@	; std::exception `RTTI Type Descriptor'
	DQ	0000000000000000H
	DB	'.?AVexception@std@@', 00H
data$r	ENDS
;	COMDAT _CT??_R0?AVbad_alloc@std@@@8??0bad_alloc@std@@QEAA@AEBV01@@Z24
xdata$x	SEGMENT
_CT??_R0?AVbad_alloc@std@@@8??0bad_alloc@std@@QEAA@AEBV01@@Z24 DD 010H
	DD	imagerel ??_R0?AVbad_alloc@std@@@8
	DD	00H
	DD	0ffffffffH
	ORG $+4
	DD	018H
	DD	imagerel ??0bad_alloc@std@@QEAA@AEBV01@@Z
xdata$x	ENDS
;	COMDAT ??_R0?AVbad_alloc@std@@@8
data$r	SEGMENT
??_R0?AVbad_alloc@std@@@8 DQ FLAT:??_7type_info@@6B@	; std::bad_alloc `RTTI Type Descriptor'
	DQ	0000000000000000H
	DB	'.?AVbad_alloc@std@@', 00H
data$r	ENDS
;	COMDAT _CT??_R0?AVbad_array_new_length@std@@@8??0bad_array_new_length@std@@QEAA@AEBV01@@Z24
xdata$x	SEGMENT
_CT??_R0?AVbad_array_new_length@std@@@8??0bad_array_new_length@std@@QEAA@AEBV01@@Z24 DD 00H
	DD	imagerel ??_R0?AVbad_array_new_length@std@@@8
	DD	00H
	DD	0ffffffffH
	ORG $+4
	DD	018H
	DD	imagerel ??0bad_array_new_length@std@@QEAA@AEBV01@@Z
xdata$x	ENDS
;	COMDAT ??_R0?AVbad_array_new_length@std@@@8
data$r	SEGMENT
??_R0?AVbad_array_new_length@std@@@8 DQ FLAT:??_7type_info@@6B@ ; std::bad_array_new_length `RTTI Type Descriptor'
	DQ	0000000000000000H
	DB	'.?AVbad_array_new_length@std@@', 00H
data$r	ENDS
;	COMDAT _CTA3?AVbad_array_new_length@std@@
xdata$x	SEGMENT
_CTA3?AVbad_array_new_length@std@@ DD 03H
	DD	imagerel _CT??_R0?AVbad_array_new_length@std@@@8??0bad_array_new_length@std@@QEAA@AEBV01@@Z24
	DD	imagerel _CT??_R0?AVbad_alloc@std@@@8??0bad_alloc@std@@QEAA@AEBV01@@Z24
	DD	imagerel _CT??_R0?AVexception@std@@@8??0exception@std@@QEAA@AEBV01@@Z24
xdata$x	ENDS
;	COMDAT _TI3?AVbad_array_new_length@std@@
xdata$x	SEGMENT
_TI3?AVbad_array_new_length@std@@ DD 00H
	DD	imagerel ??1bad_array_new_length@std@@UEAA@XZ
	DD	00H
	DD	imagerel _CTA3?AVbad_array_new_length@std@@
xdata$x	ENDS
;	COMDAT ??_C@_0BF@KINCDENJ@bad?5array?5new?5length@
CONST	SEGMENT
??_C@_0BF@KINCDENJ@bad?5array?5new?5length@ DB 'bad array new length', 00H ; `string'
CONST	ENDS
;	COMDAT ??_7bad_array_new_length@std@@6B@
CONST	SEGMENT
??_7bad_array_new_length@std@@6B@ DQ FLAT:??_R4bad_array_new_length@std@@6B@ ; std::bad_array_new_length::`vftable'
	DQ	FLAT:??_Ebad_array_new_length@std@@UEAAPEAXI@Z
	DQ	FLAT:?what@exception@std@@UEBAPEBDXZ
CONST	ENDS
;	COMDAT ??_7bad_alloc@std@@6B@
CONST	SEGMENT
??_7bad_alloc@std@@6B@ DQ FLAT:??_R4bad_alloc@std@@6B@	; std::bad_alloc::`vftable'
	DQ	FLAT:??_Ebad_alloc@std@@UEAAPEAXI@Z
	DQ	FLAT:?what@exception@std@@UEBAPEBDXZ
CONST	ENDS
;	COMDAT ??_C@_0BC@EOODALEL@Unknown?5exception@
CONST	SEGMENT
??_C@_0BC@EOODALEL@Unknown?5exception@ DB 'Unknown exception', 00H ; `string'
CONST	ENDS
;	COMDAT ??_7exception@std@@6B@
CONST	SEGMENT
??_7exception@std@@6B@ DQ FLAT:??_R4exception@std@@6B@	; std::exception::`vftable'
	DQ	FLAT:??_Eexception@std@@UEAAPEAXI@Z
	DQ	FLAT:?what@exception@std@@UEBAPEBDXZ
CONST	ENDS
;	COMDAT xdata
xdata	SEGMENT
$unwind$??$construct@UhookData@@U1@@?$_Default_allocator_traits@V?$allocator@UhookData@@@std@@@std@@SAXAEAV?$allocator@UhookData@@@1@QEAUhookData@@$$QEAU3@@Z DD 022801H
	DD	070105214H
xdata	ENDS
;	COMDAT xdata
xdata	SEGMENT
$unwind$??$forward@UhookData@@@std@@YA$$QEAUhookData@@AEAU1@@Z DD 010601H
	DD	07006H
xdata	ENDS
;	COMDAT xdata
xdata	SEGMENT
$unwind$??$_Refancy@PEAUhookData@@$0A@@std@@YAPEAUhookData@@PEAU1@@Z DD 010601H
	DD	07006H
xdata	ENDS
;	COMDAT xdata
xdata	SEGMENT
$unwind$??$_Emplace_back@UhookData@@@?$_Uninitialized_backout_al@V?$allocator@UhookData@@@std@@@std@@QEAAX$$QEAUhookData@@@Z DD 022301H
	DD	0700b520fH
xdata	ENDS
;	COMDAT xdata
xdata	SEGMENT
$unwind$?_Release@?$_Uninitialized_backout_al@V?$allocator@UhookData@@@std@@@std@@QEAAPEAUhookData@@XZ DD 010601H
	DD	07006H
xdata	ENDS
;	COMDAT xdata
xdata	SEGMENT
$unwind$??1?$_Uninitialized_backout_al@V?$allocator@UhookData@@@std@@@std@@QEAA@XZ DD 021e01H
	DD	07006320aH
xdata	ENDS
;	COMDAT xdata
xdata	SEGMENT
$unwind$??0?$_Uninitialized_backout_al@V?$allocator@UhookData@@@std@@@std@@QEAA@PEAUhookData@@AEAV?$allocator@UhookData@@@1@@Z DD 011001H
	DD	07010H
xdata	ENDS
;	COMDAT xdata
xdata	SEGMENT
$unwind$??$_Get_unwrapped@UhookData@@@std@@YAPEAUhookData@@QEAU1@@Z DD 010601H
	DD	07006H
xdata	ENDS
;	COMDAT xdata
xdata	SEGMENT
$unwind$??$forward@AEBQEAD@std@@YAAEBQEADAEBQEAD@Z DD 010601H
	DD	07006H
xdata	ENDS
;	COMDAT xdata
xdata	SEGMENT
$unwind$??$addressof@PEAD@std@@YAPEAPEADAEAPEAD@Z DD 010601H
	DD	07006H
xdata	ENDS
;	COMDAT xdata
xdata	SEGMENT
$unwind$?deallocate@?$_Default_allocator_traits@V?$allocator@U_Container_proxy@std@@@std@@@std@@SAXAEAV?$allocator@U_Container_proxy@std@@@2@QEAU_Container_proxy@2@_K@Z DD 022801H
	DD	070103214H
xdata	ENDS
;	COMDAT xdata
xdata	SEGMENT
$unwind$??$_Pocma@V?$allocator@D@std@@@std@@YAXAEAV?$allocator@D@0@0@Z DD 022301H
	DD	0700b320fH
xdata	ENDS
;	COMDAT xdata
xdata	SEGMENT
$unwind$??$_Get_size_of_n@$00@std@@YA_K_K@Z DD 021e01H
	DD	07006120aH
xdata	ENDS
;	COMDAT xdata
xdata	SEGMENT
$unwind$??$addressof@V?$basic_string@DU?$char_traits@D@std@@V?$allocator@D@2@@std@@@std@@YAPEAV?$basic_string@DU?$char_traits@D@std@@V?$allocator@D@2@@0@AEAV10@@Z DD 010601H
	DD	07006H
xdata	ENDS
;	COMDAT xdata
xdata	SEGMENT
$unwind$??$_Traits_equal@U?$char_traits@D@std@@@std@@YA_NQEBD_K01@Z DD 022d01H
	DD	070155219H
xdata	ENDS
;	COMDAT xdata
xdata	SEGMENT
$unwind$??$_Get_size_of_n@$0GI@@std@@YA_K_K@Z DD 021e01H
	DD	07006520aH
xdata	ENDS
;	COMDAT xdata
xdata	SEGMENT
$unwind$??$_Min_value@_K@std@@YAAEB_KAEB_K0@Z DD 022301H
	DD	0700b120fH
xdata	ENDS
;	COMDAT xdata
xdata	SEGMENT
$unwind$?dtor$0@?0???$_Uninitialized_move@PEAUhookData@@V?$allocator@UhookData@@@std@@@std@@YAPEAUhookData@@QEAU1@0PEAU1@AEAV?$allocator@UhookData@@@0@@Z@4HA DD 031001H
	DD	0700c4210H
	DD	0500bH
xdata	ENDS
;	COMDAT xdata
xdata	SEGMENT
$ip2state$??$_Uninitialized_move@PEAUhookData@@V?$allocator@UhookData@@@std@@@std@@YAPEAUhookData@@QEAU1@0PEAU1@AEAV?$allocator@UhookData@@@0@@Z DB 06H
	DB	00H
	DB	00H
	DB	0ccH
	DB	02H
	DB	088H
	DB	00H
xdata	ENDS
;	COMDAT xdata
xdata	SEGMENT
$stateUnwindMap$??$_Uninitialized_move@PEAUhookData@@V?$allocator@UhookData@@@std@@@std@@YAPEAUhookData@@QEAU1@0PEAU1@AEAV?$allocator@UhookData@@@0@@Z DB 02H
	DB	0eH
	DD	imagerel ?dtor$0@?0???$_Uninitialized_move@PEAUhookData@@V?$allocator@UhookData@@@std@@@std@@YAPEAUhookData@@QEAU1@0PEAU1@AEAV?$allocator@UhookData@@@0@@Z@4HA
xdata	ENDS
;	COMDAT xdata
xdata	SEGMENT
$cppxdata$??$_Uninitialized_move@PEAUhookData@@V?$allocator@UhookData@@@std@@@std@@YAPEAUhookData@@QEAU1@0PEAU1@AEAV?$allocator@UhookData@@@0@@Z DB 08H
	DD	imagerel $stateUnwindMap$??$_Uninitialized_move@PEAUhookData@@V?$allocator@UhookData@@@std@@@std@@YAPEAUhookData@@QEAU1@0PEAU1@AEAV?$allocator@UhookData@@@0@@Z
	DD	imagerel $ip2state$??$_Uninitialized_move@PEAUhookData@@V?$allocator@UhookData@@@std@@@std@@YAPEAUhookData@@QEAU1@0PEAU1@AEAV?$allocator@UhookData@@@0@@Z
xdata	ENDS
;	COMDAT xdata
xdata	SEGMENT
$unwind$??$_Uninitialized_move@PEAUhookData@@V?$allocator@UhookData@@@std@@@std@@YAPEAUhookData@@QEAU1@0PEAU1@AEAV?$allocator@UhookData@@@0@@Z DD 022d11H
	DD	07015b219H
	DD	imagerel __CxxFrameHandler4
	DD	imagerel $cppxdata$??$_Uninitialized_move@PEAUhookData@@V?$allocator@UhookData@@@std@@@std@@YAPEAUhookData@@QEAU1@0PEAU1@AEAV?$allocator@UhookData@@@0@@Z
xdata	ENDS
;	COMDAT CONST
CONST	SEGMENT
??$_Uninitialized_move@PEAUhookData@@V?$allocator@UhookData@@@std@@@std@@YAPEAUhookData@@QEAU1@0PEAU1@AEAV?$allocator@UhookData@@@0@@Z$rtcName$0 DB 05fH ; std::_Uninitialized_move<hookData *,std::allocator<hookData> >
	DB	042H
	DB	061H
	DB	063H
	DB	06bH
	DB	06fH
	DB	075H
	DB	074H
	DB	00H
	ORG $+7
??$_Uninitialized_move@PEAUhookData@@V?$allocator@UhookData@@@std@@@std@@YAPEAUhookData@@QEAU1@0PEAU1@AEAV?$allocator@UhookData@@@0@@Z$rtcVarDesc DD 038H ; std::_Uninitialized_move<hookData *,std::allocator<hookData> >
	DD	018H
	DQ	FLAT:??$_Uninitialized_move@PEAUhookData@@V?$allocator@UhookData@@@std@@@std@@YAPEAUhookData@@QEAU1@0PEAU1@AEAV?$allocator@UhookData@@@0@@Z$rtcName$0
	ORG $+48
??$_Uninitialized_move@PEAUhookData@@V?$allocator@UhookData@@@std@@@std@@YAPEAUhookData@@QEAU1@0PEAU1@AEAV?$allocator@UhookData@@@0@@Z$rtcFrameData DD 01H ; std::_Uninitialized_move<hookData *,std::allocator<hookData> >
	DD	00H
	DQ	FLAT:??$_Uninitialized_move@PEAUhookData@@V?$allocator@UhookData@@@std@@@std@@YAPEAUhookData@@QEAU1@0PEAU1@AEAV?$allocator@UhookData@@@0@@Z$rtcVarDesc
CONST	ENDS
;	COMDAT xdata
xdata	SEGMENT
$unwind$??$_Allocate_manually_vector_aligned@U_Default_allocate_traits@std@@@std@@YAPEAX_K@Z DD 021e01H
	DD	07006920aH
xdata	ENDS
;	COMDAT xdata
xdata	SEGMENT
$unwind$??$_Construct_in_place@PEADAEBQEAD@std@@YAXAEAPEADAEBQEAD@Z DD 022301H
	DD	0700b520fH
xdata	ENDS
;	COMDAT xdata
xdata	SEGMENT
$unwind$??$forward@PEAU_Container_base12@std@@@std@@YA$$QEAPEAU_Container_base12@0@AEAPEAU10@@Z DD 010601H
	DD	07006H
xdata	ENDS
;	COMDAT xdata
xdata	SEGMENT
$unwind$??$addressof@U_Container_proxy@std@@@std@@YAPEAU_Container_proxy@0@AEAU10@@Z DD 010601H
	DD	07006H
xdata	ENDS
;	COMDAT xdata
xdata	SEGMENT
$unwind$??$forward@V?$allocator@D@std@@@std@@YA$$QEAV?$allocator@D@0@AEAV10@@Z DD 010601H
	DD	07006H
xdata	ENDS
;	COMDAT xdata
xdata	SEGMENT
$ip2state$??$_Deallocate_plain@V?$allocator@U_Container_proxy@std@@@std@@@std@@YAXAEAV?$allocator@U_Container_proxy@std@@@0@QEAU_Container_proxy@0@@Z DB 02H
	DB	00H
	DB	00H
xdata	ENDS
;	COMDAT xdata
xdata	SEGMENT
$cppxdata$??$_Deallocate_plain@V?$allocator@U_Container_proxy@std@@@std@@@std@@YAXAEAV?$allocator@U_Container_proxy@std@@@0@QEAU_Container_proxy@0@@Z DB 040H
	DD	imagerel $ip2state$??$_Deallocate_plain@V?$allocator@U_Container_proxy@std@@@std@@@std@@YAXAEAV?$allocator@U_Container_proxy@std@@@0@QEAU_Container_proxy@0@@Z
xdata	ENDS
;	COMDAT xdata
xdata	SEGMENT
$unwind$??$_Deallocate_plain@V?$allocator@U_Container_proxy@std@@@std@@@std@@YAXAEAV?$allocator@U_Container_proxy@std@@@0@QEAU_Container_proxy@0@@Z DD 022319H
	DD	0700b320fH
	DD	imagerel __CxxFrameHandler4
	DD	imagerel $cppxdata$??$_Deallocate_plain@V?$allocator@U_Container_proxy@std@@@std@@@std@@YAXAEAV?$allocator@U_Container_proxy@std@@@0@QEAU_Container_proxy@0@@Z
xdata	ENDS
;	COMDAT xdata
xdata	SEGMENT
$unwind$??$move@AEAUhookData@@@std@@YA$$QEAUhookData@@AEAU1@@Z DD 010601H
	DD	07006H
xdata	ENDS
;	COMDAT xdata
xdata	SEGMENT
$unwind$??$_Seek_wrapped@V?$_Vector_iterator@V?$_Vector_val@U?$_Simple_types@UhookData@@@std@@@std@@@std@@PEAUhookData@@@std@@YAXAEAV?$_Vector_iterator@V?$_Vector_val@U?$_Simple_types@UhookData@@@std@@@std@@@0@AEBQEAUhookData@@@Z DD 022301H
	DD	0700b320fH
xdata	ENDS
;	COMDAT xdata
xdata	SEGMENT
$unwind$??$_Get_unwrapped@V?$_Vector_iterator@V?$_Vector_val@U?$_Simple_types@UhookData@@@std@@@std@@@std@@$0A@@std@@YAPEAUhookData@@AEBV?$_Vector_iterator@V?$_Vector_val@U?$_Simple_types@UhookData@@@std@@@std@@@0@@Z DD 021e01H
	DD	07006320aH
xdata	ENDS
;	COMDAT xdata
xdata	SEGMENT
$unwind$??$_Adl_verify_range@V?$_Vector_iterator@V?$_Vector_val@U?$_Simple_types@UhookData@@@std@@@std@@@std@@V12@@std@@YAXAEBV?$_Vector_iterator@V?$_Vector_val@U?$_Simple_types@UhookData@@@std@@@std@@@0@0@Z DD 022301H
	DD	0700b320fH
xdata	ENDS
;	COMDAT xdata
xdata	SEGMENT
$unwind$??$addressof@$$CBV?$_String_val@U?$_Simple_types@D@std@@@std@@@std@@YAPEBV?$_String_val@U?$_Simple_types@D@std@@@0@AEBV10@@Z DD 010601H
	DD	07006H
xdata	ENDS
;	COMDAT xdata
xdata	SEGMENT
$unwind$??$addressof@V?$_String_val@U?$_Simple_types@D@std@@@std@@@std@@YAPEAV?$_String_val@U?$_Simple_types@D@std@@@0@AEAV10@@Z DD 010601H
	DD	07006H
xdata	ENDS
;	COMDAT xdata
xdata	SEGMENT
$ip2state$??$_Deallocate@$0BA@$0A@@std@@YAXPEAX_K@Z DB 02H
	DB	00H
	DB	00H
xdata	ENDS
;	COMDAT xdata
xdata	SEGMENT
$cppxdata$??$_Deallocate@$0BA@$0A@@std@@YAXPEAX_K@Z DB 040H
	DD	imagerel $ip2state$??$_Deallocate@$0BA@$0A@@std@@YAXPEAX_K@Z
xdata	ENDS
;	COMDAT xdata
xdata	SEGMENT
$unwind$??$_Deallocate@$0BA@$0A@@std@@YAXPEAX_K@Z DD 022319H
	DD	0700b320fH
	DD	imagerel __CxxFrameHandler4
	DD	imagerel $cppxdata$??$_Deallocate@$0BA@$0A@@std@@YAXPEAX_K@Z
xdata	ENDS
;	COMDAT xdata
xdata	SEGMENT
$unwind$??$_Allocate@$0BA@U_Default_allocate_traits@std@@$0A@@std@@YAPEAX_K@Z DD 021e01H
	DD	07006320aH
xdata	ENDS
;	COMDAT xdata
xdata	SEGMENT
$unwind$??$_Get_size_of_n@$0BA@@std@@YA_K_K@Z DD 021e01H
	DD	07006520aH
xdata	ENDS
;	COMDAT xdata
xdata	SEGMENT
$unwind$??$_Max_value@_K@std@@YAAEB_KAEB_K0@Z DD 022301H
	DD	0700b120fH
xdata	ENDS
;	COMDAT xdata
xdata	SEGMENT
$unwind$??$_Unfancy@D@std@@YAPEADPEAD@Z DD 010601H
	DD	07006H
xdata	ENDS
;	COMDAT xdata
xdata	SEGMENT
$unwind$??$_Reallocate_for@V<lambda_66f57f934f28d61049862f64df852ff0>@@PEBD@?$basic_string@DU?$char_traits@D@std@@V?$allocator@D@2@@std@@AEAAAEAV01@_KV<lambda_66f57f934f28d61049862f64df852ff0>@@PEBD@Z DD 022d01H
	DD	07015b219H
xdata	ENDS
;	COMDAT CONST
CONST	SEGMENT
??$_Reallocate_for@V<lambda_66f57f934f28d61049862f64df852ff0>@@PEBD@?$basic_string@DU?$char_traits@D@std@@V?$allocator@D@2@@std@@AEAAAEAV01@_KV<lambda_66f57f934f28d61049862f64df852ff0>@@PEBD@Z$rtcName$0 DB 05fH ; std::basic_string<char,std::char_traits<char>,std::allocator<char> >::_Reallocate_for<<lambda_66f57f934f28d61049862f64df852ff0>,char const *>
	DB	04eH
	DB	065H
	DB	077H
	DB	05fH
	DB	070H
	DB	074H
	DB	072H
	DB	00H
	ORG $+7
??$_Reallocate_for@V<lambda_66f57f934f28d61049862f64df852ff0>@@PEBD@?$basic_string@DU?$char_traits@D@std@@V?$allocator@D@2@@std@@AEAAAEAV01@_KV<lambda_66f57f934f28d61049862f64df852ff0>@@PEBD@Z$rtcVarDesc DD 048H ; std::basic_string<char,std::char_traits<char>,std::allocator<char> >::_Reallocate_for<<lambda_66f57f934f28d61049862f64df852ff0>,char const *>
	DD	08H
	DQ	FLAT:??$_Reallocate_for@V<lambda_66f57f934f28d61049862f64df852ff0>@@PEBD@?$basic_string@DU?$char_traits@D@std@@V?$allocator@D@2@@std@@AEAAAEAV01@_KV<lambda_66f57f934f28d61049862f64df852ff0>@@PEBD@Z$rtcName$0
	ORG $+48
??$_Reallocate_for@V<lambda_66f57f934f28d61049862f64df852ff0>@@PEBD@?$basic_string@DU?$char_traits@D@std@@V?$allocator@D@2@@std@@AEAAAEAV01@_KV<lambda_66f57f934f28d61049862f64df852ff0>@@PEBD@Z$rtcFrameData DD 01H ; std::basic_string<char,std::char_traits<char>,std::allocator<char> >::_Reallocate_for<<lambda_66f57f934f28d61049862f64df852ff0>,char const *>
	DD	00H
	DQ	FLAT:??$_Reallocate_for@V<lambda_66f57f934f28d61049862f64df852ff0>@@PEBD@?$basic_string@DU?$char_traits@D@std@@V?$allocator@D@2@@std@@AEAAAEAV01@_KV<lambda_66f57f934f28d61049862f64df852ff0>@@PEBD@Z$rtcVarDesc
CONST	ENDS
;	COMDAT xdata
xdata	SEGMENT
$unwind$??R<lambda_66f57f934f28d61049862f64df852ff0>@@QEBAXQEAD_KQEBD@Z DD 022d01H
	DD	070155219H
xdata	ENDS
;	COMDAT xdata
xdata	SEGMENT
$unwind$??$_Destroy_in_place@PEAD@std@@YAXAEAPEAD@Z DD 010601H
	DD	07006H
xdata	ENDS
;	COMDAT xdata
xdata	SEGMENT
$ip2state$??$_Destroy_range@V?$allocator@UhookData@@@std@@@std@@YAXPEAUhookData@@QEAU1@AEAV?$allocator@UhookData@@@0@@Z DB 02H
	DB	00H
	DB	00H
xdata	ENDS
;	COMDAT xdata
xdata	SEGMENT
$cppxdata$??$_Destroy_range@V?$allocator@UhookData@@@std@@@std@@YAXPEAUhookData@@QEAU1@AEAV?$allocator@UhookData@@@0@@Z DB 040H
	DD	imagerel $ip2state$??$_Destroy_range@V?$allocator@UhookData@@@std@@@std@@YAXPEAUhookData@@QEAU1@AEAV?$allocator@UhookData@@@0@@Z
xdata	ENDS
;	COMDAT xdata
xdata	SEGMENT
$unwind$??$_Destroy_range@V?$allocator@UhookData@@@std@@@std@@YAXPEAUhookData@@QEAU1@AEAV?$allocator@UhookData@@@0@@Z DD 022819H
	DD	070103214H
	DD	imagerel __CxxFrameHandler4
	DD	imagerel $cppxdata$??$_Destroy_range@V?$allocator@UhookData@@@std@@@std@@YAXPEAUhookData@@QEAU1@AEAV?$allocator@UhookData@@@0@@Z
xdata	ENDS
;	COMDAT xdata
xdata	SEGMENT
$unwind$??$_Construct_in_place@U_Container_proxy@std@@PEAU_Container_base12@2@@std@@YAXAEAU_Container_proxy@0@$$QEAPEAU_Container_base12@0@@Z DD 022301H
	DD	0700b520fH
xdata	ENDS
;	COMDAT xdata
xdata	SEGMENT
$unwind$??$addressof@U_Container_base12@std@@@std@@YAPEAU_Container_base12@0@AEAU10@@Z DD 010601H
	DD	07006H
xdata	ENDS
;	COMDAT xdata
xdata	SEGMENT
$unwind$??$_Unfancy@U_Container_proxy@std@@@std@@YAPEAU_Container_proxy@0@PEAU10@@Z DD 010601H
	DD	07006H
xdata	ENDS
;	COMDAT xdata
xdata	SEGMENT
$unwind$?dtor$0@?0???$?0$$V@?$_Compressed_pair@V?$allocator@D@std@@V?$_String_val@U?$_Simple_types@D@std@@@2@$00@std@@QEAA@U_Zero_then_variadic_args_t@1@@Z@4HA DD 031001H
	DD	0700c4210H
	DD	0500bH
xdata	ENDS
;	COMDAT xdata
xdata	SEGMENT
$ip2state$??$?0$$V@?$_Compressed_pair@V?$allocator@D@std@@V?$_String_val@U?$_Simple_types@D@std@@@2@$00@std@@QEAA@U_Zero_then_variadic_args_t@1@@Z DB 02H
	DB	00H
	DB	00H
xdata	ENDS
;	COMDAT xdata
xdata	SEGMENT
$stateUnwindMap$??$?0$$V@?$_Compressed_pair@V?$allocator@D@std@@V?$_String_val@U?$_Simple_types@D@std@@@2@$00@std@@QEAA@U_Zero_then_variadic_args_t@1@@Z DB 02H
	DB	0eH
	DD	imagerel ?dtor$0@?0???$?0$$V@?$_Compressed_pair@V?$allocator@D@std@@V?$_String_val@U?$_Simple_types@D@std@@@2@$00@std@@QEAA@U_Zero_then_variadic_args_t@1@@Z@4HA
xdata	ENDS
;	COMDAT xdata
xdata	SEGMENT
$cppxdata$??$?0$$V@?$_Compressed_pair@V?$allocator@D@std@@V?$_String_val@U?$_Simple_types@D@std@@@2@$00@std@@QEAA@U_Zero_then_variadic_args_t@1@@Z DB 08H
	DD	imagerel $stateUnwindMap$??$?0$$V@?$_Compressed_pair@V?$allocator@D@std@@V?$_String_val@U?$_Simple_types@D@std@@@2@$00@std@@QEAA@U_Zero_then_variadic_args_t@1@@Z
	DD	imagerel $ip2state$??$?0$$V@?$_Compressed_pair@V?$allocator@D@std@@V?$_String_val@U?$_Simple_types@D@std@@@2@$00@std@@QEAA@U_Zero_then_variadic_args_t@1@@Z
xdata	ENDS
;	COMDAT xdata
xdata	SEGMENT
$unwind$??$?0$$V@?$_Compressed_pair@V?$allocator@D@std@@V?$_String_val@U?$_Simple_types@D@std@@@2@$00@std@@QEAA@U_Zero_then_variadic_args_t@1@@Z DD 022211H
	DD	0700a320eH
	DD	imagerel __CxxFrameHandler4
	DD	imagerel $cppxdata$??$?0$$V@?$_Compressed_pair@V?$allocator@D@std@@V?$_String_val@U?$_Simple_types@D@std@@@2@$00@std@@QEAA@U_Zero_then_variadic_args_t@1@@Z
xdata	ENDS
;	COMDAT xdata
xdata	SEGMENT
$unwind$?dtor$0@?0???$?0V?$allocator@D@std@@$$V@?$_Compressed_pair@V?$allocator@D@std@@V?$_String_val@U?$_Simple_types@D@std@@@2@$00@std@@QEAA@U_One_then_variadic_args_t@1@$$QEAV?$allocator@D@1@@Z@4HA DD 031001H
	DD	0700c4210H
	DD	0500bH
xdata	ENDS
;	COMDAT xdata
xdata	SEGMENT
$ip2state$??$?0V?$allocator@D@std@@$$V@?$_Compressed_pair@V?$allocator@D@std@@V?$_String_val@U?$_Simple_types@D@std@@@2@$00@std@@QEAA@U_One_then_variadic_args_t@1@$$QEAV?$allocator@D@1@@Z DB 02H
	DB	00H
	DB	00H
xdata	ENDS
;	COMDAT xdata
xdata	SEGMENT
$stateUnwindMap$??$?0V?$allocator@D@std@@$$V@?$_Compressed_pair@V?$allocator@D@std@@V?$_String_val@U?$_Simple_types@D@std@@@2@$00@std@@QEAA@U_One_then_variadic_args_t@1@$$QEAV?$allocator@D@1@@Z DB 02H
	DB	0eH
	DD	imagerel ?dtor$0@?0???$?0V?$allocator@D@std@@$$V@?$_Compressed_pair@V?$allocator@D@std@@V?$_String_val@U?$_Simple_types@D@std@@@2@$00@std@@QEAA@U_One_then_variadic_args_t@1@$$QEAV?$allocator@D@1@@Z@4HA
xdata	ENDS
;	COMDAT xdata
xdata	SEGMENT
$cppxdata$??$?0V?$allocator@D@std@@$$V@?$_Compressed_pair@V?$allocator@D@std@@V?$_String_val@U?$_Simple_types@D@std@@@2@$00@std@@QEAA@U_One_then_variadic_args_t@1@$$QEAV?$allocator@D@1@@Z DB 08H
	DD	imagerel $stateUnwindMap$??$?0V?$allocator@D@std@@$$V@?$_Compressed_pair@V?$allocator@D@std@@V?$_String_val@U?$_Simple_types@D@std@@@2@$00@std@@QEAA@U_One_then_variadic_args_t@1@$$QEAV?$allocator@D@1@@Z
	DD	imagerel $ip2state$??$?0V?$allocator@D@std@@$$V@?$_Compressed_pair@V?$allocator@D@std@@V?$_String_val@U?$_Simple_types@D@std@@@2@$00@std@@QEAA@U_One_then_variadic_args_t@1@$$QEAV?$allocator@D@1@@Z
xdata	ENDS
;	COMDAT xdata
xdata	SEGMENT
$unwind$??$?0V?$allocator@D@std@@$$V@?$_Compressed_pair@V?$allocator@D@std@@V?$_String_val@U?$_Simple_types@D@std@@@2@$00@std@@QEAA@U_One_then_variadic_args_t@1@$$QEAV?$allocator@D@1@@Z DD 022711H
	DD	0700f3213H
	DD	imagerel __CxxFrameHandler4
	DD	imagerel $cppxdata$??$?0V?$allocator@D@std@@$$V@?$_Compressed_pair@V?$allocator@D@std@@V?$_String_val@U?$_Simple_types@D@std@@@2@$00@std@@QEAA@U_One_then_variadic_args_t@1@$$QEAV?$allocator@D@1@@Z
xdata	ENDS
;	COMDAT xdata
xdata	SEGMENT
$unwind$??$move@AEAV?$allocator@D@std@@@std@@YA$$QEAV?$allocator@D@0@AEAV10@@Z DD 010601H
	DD	07006H
xdata	ENDS
;	COMDAT xdata
xdata	SEGMENT
$unwind$??$?0D@?$allocator@U_Container_proxy@std@@@std@@QEAA@AEBV?$allocator@D@1@@Z DD 010b01H
	DD	0700bH
xdata	ENDS
;	COMDAT xdata
xdata	SEGMENT
$unwind$??1?$_Container_proxy_ptr12@V?$allocator@U_Container_proxy@std@@@std@@@std@@QEAA@XZ DD 021e01H
	DD	07006320aH
xdata	ENDS
;	COMDAT xdata
xdata	SEGMENT
$unwind$??0?$_Container_proxy_ptr12@V?$allocator@U_Container_proxy@std@@@std@@@std@@QEAA@AEAV?$allocator@U_Container_proxy@std@@@1@AEAU_Container_base12@1@@Z DD 022801H
	DD	070105214H
xdata	ENDS
;	COMDAT xdata
xdata	SEGMENT
$unwind$??$_Alloc_proxy@V?$allocator@U_Container_proxy@std@@@std@@@_Container_base12@std@@QEAAX$$QEAV?$allocator@U_Container_proxy@std@@@1@@Z DD 022301H
	DD	0700b520fH
xdata	ENDS
;	COMDAT xdata
xdata	SEGMENT
$unwind$??$?0$$V@?$_Compressed_pair@V?$allocator@UhookData@@@std@@V?$_Vector_val@U?$_Simple_types@UhookData@@@std@@@2@$00@std@@QEAA@U_Zero_then_variadic_args_t@1@@Z DD 022201H
	DD	0700a320eH
xdata	ENDS
;	COMDAT xdata
xdata	SEGMENT
$unwind$??$_Delete_plain_internal@V?$allocator@U_Container_proxy@std@@@std@@@std@@YAXAEAV?$allocator@U_Container_proxy@std@@@0@QEAU_Container_proxy@0@@Z DD 022301H
	DD	0700b320fH
xdata	ENDS
;	COMDAT xdata
xdata	SEGMENT
$unwind$??$exchange@PEAU_Container_proxy@std@@$$T@std@@YAPEAU_Container_proxy@0@AEAPEAU10@$$QEA$$T@Z DD 022301H
	DD	0700b120fH
xdata	ENDS
;	COMDAT xdata
xdata	SEGMENT
$unwind$??$?0UhookData@@@?$allocator@U_Container_proxy@std@@@std@@QEAA@AEBV?$allocator@UhookData@@@1@@Z DD 010b01H
	DD	0700bH
xdata	ENDS
;	COMDAT xdata
xdata	SEGMENT
$unwind$?allocate@?$allocator@U_Container_proxy@std@@@std@@QEAAPEAU_Container_proxy@2@_K@Z DD 022301H
	DD	0700b320fH
xdata	ENDS
;	COMDAT xdata
xdata	SEGMENT
$unwind$?catch$0@?0???$_Emplace_reallocate@AEBUhookData@@@?$vector@UhookData@@V?$allocator@UhookData@@@std@@@std@@QEAAPEAUhookData@@QEAU2@AEBU2@@Z@4HA DD 031001H
	DD	0700c4210H
	DD	0500bH
xdata	ENDS
;	COMDAT xdata
xdata	SEGMENT
$ip2state$??$_Emplace_reallocate@AEBUhookData@@@?$vector@UhookData@@V?$allocator@UhookData@@@std@@@std@@QEAAPEAUhookData@@QEAU2@AEBU2@@Z DB 06H
	DB	00H
	DB	00H
	DB	081H, 04H
	DB	02H
	DB	099H, 03H
	DB	00H
xdata	ENDS
;	COMDAT xdata
xdata	SEGMENT
$handlerMap$??$_Emplace_reallocate@AEBUhookData@@@?$vector@UhookData@@V?$allocator@UhookData@@@std@@@std@@QEAAPEAUhookData@@QEAU2@AEBU2@@Z DB 02H
	DB	00H
	DD	imagerel ?catch$0@?0???$_Emplace_reallocate@AEBUhookData@@@?$vector@UhookData@@V?$allocator@UhookData@@@std@@@std@@QEAAPEAUhookData@@QEAU2@AEBU2@@Z@4HA
xdata	ENDS
;	COMDAT xdata
xdata	SEGMENT
$tryMap$??$_Emplace_reallocate@AEBUhookData@@@?$vector@UhookData@@V?$allocator@UhookData@@@std@@@std@@QEAAPEAUhookData@@QEAU2@AEBU2@@Z DB 02H
	DB	00H
	DB	00H
	DB	02H
	DD	imagerel $handlerMap$??$_Emplace_reallocate@AEBUhookData@@@?$vector@UhookData@@V?$allocator@UhookData@@@std@@@std@@QEAAPEAUhookData@@QEAU2@AEBU2@@Z
xdata	ENDS
;	COMDAT xdata
xdata	SEGMENT
$stateUnwindMap$??$_Emplace_reallocate@AEBUhookData@@@?$vector@UhookData@@V?$allocator@UhookData@@@std@@@std@@QEAAPEAUhookData@@QEAU2@AEBU2@@Z DB 04H
	DB	08H
	DB	010H
xdata	ENDS
;	COMDAT xdata
xdata	SEGMENT
$cppxdata$??$_Emplace_reallocate@AEBUhookData@@@?$vector@UhookData@@V?$allocator@UhookData@@@std@@@std@@QEAAPEAUhookData@@QEAU2@AEBU2@@Z DB 018H
	DD	imagerel $stateUnwindMap$??$_Emplace_reallocate@AEBUhookData@@@?$vector@UhookData@@V?$allocator@UhookData@@@std@@@std@@QEAAPEAUhookData@@QEAU2@AEBU2@@Z
	DD	imagerel $tryMap$??$_Emplace_reallocate@AEBUhookData@@@?$vector@UhookData@@V?$allocator@UhookData@@@std@@@std@@QEAAPEAUhookData@@QEAU2@AEBU2@@Z
	DD	imagerel $ip2state$??$_Emplace_reallocate@AEBUhookData@@@?$vector@UhookData@@V?$allocator@UhookData@@@std@@@std@@QEAAPEAUhookData@@QEAU2@AEBU2@@Z
xdata	ENDS
;	COMDAT xdata
xdata	SEGMENT
$unwind$??$_Emplace_reallocate@AEBUhookData@@@?$vector@UhookData@@V?$allocator@UhookData@@@std@@@std@@QEAAPEAUhookData@@QEAU2@AEBU2@@Z DD 022e19H
	DD	07010f217H
	DD	imagerel __CxxFrameHandler4
	DD	imagerel $cppxdata$??$_Emplace_reallocate@AEBUhookData@@@?$vector@UhookData@@V?$allocator@UhookData@@@std@@@std@@QEAAPEAUhookData@@QEAU2@AEBU2@@Z
xdata	ENDS
;	COMDAT xdata
xdata	SEGMENT
$unwind$??$construct@UhookData@@AEBU1@@?$_Default_allocator_traits@V?$allocator@UhookData@@@std@@@std@@SAXAEAV?$allocator@UhookData@@@1@QEAUhookData@@AEBU3@@Z DD 022801H
	DD	070105214H
xdata	ENDS
;	COMDAT xdata
xdata	SEGMENT
$unwind$??$_Emplace_back_with_unused_capacity@AEBUhookData@@@?$vector@UhookData@@V?$allocator@UhookData@@@std@@@std@@AEAAXAEBUhookData@@@Z DD 022301H
	DD	0700b920fH
xdata	ENDS
;	COMDAT xdata
xdata	SEGMENT
$unwind$??$forward@AEBUhookData@@@std@@YAAEBUhookData@@AEBU1@@Z DD 010601H
	DD	07006H
xdata	ENDS
;	COMDAT xdata
xdata	SEGMENT
$unwind$??$emplace_back@AEBUhookData@@@?$vector@UhookData@@V?$allocator@UhookData@@@std@@@std@@QEAAXAEBUhookData@@@Z DD 022301H
	DD	0700b720fH
xdata	ENDS
;	COMDAT xdata
xdata	SEGMENT
$unwind$??$destroy@UhookData@@@?$_Default_allocator_traits@V?$allocator@UhookData@@@std@@@std@@SAXAEAV?$allocator@UhookData@@@1@QEAUhookData@@@Z DD 022301H
	DD	0700b320fH
xdata	ENDS
;	COMDAT xdata
xdata	SEGMENT
$unwind$??$_Unfancy@UhookData@@@std@@YAPEAUhookData@@PEAU1@@Z DD 010601H
	DD	07006H
xdata	ENDS
;	COMDAT xdata
xdata	SEGMENT
$unwind$??$_Move_unchecked@PEAUhookData@@PEAU1@@std@@YAPEAUhookData@@PEAU1@00@Z DD 022801H
	DD	070103214H
xdata	ENDS
;	COMDAT xdata
xdata	SEGMENT
$unwind$??$addressof@V?$_Vector_val@U?$_Simple_types@UhookData@@@std@@@std@@@std@@YAPEAV?$_Vector_val@U?$_Simple_types@UhookData@@@std@@@0@AEAV10@@Z DD 010601H
	DD	07006H
xdata	ENDS
;	COMDAT xdata
xdata	SEGMENT
$unwind$??$_Const_cast@$$CBUhookData@@@std@@YAPEAUhookData@@PEBU1@@Z DD 010601H
	DD	07006H
xdata	ENDS
;	COMDAT xdata
xdata	SEGMENT
$unwind$?dtor$3@?0???$find_if@V?$_Vector_iterator@V?$_Vector_val@U?$_Simple_types@UhookData@@@std@@@std@@@std@@V<lambda_3b1a155f3d9af5183301fdeff6995007>@@@std@@YA?AV?$_Vector_iterator@V?$_Vector_val@U?$_Simple_types@UhookData@@@std@@@std@@@0@V10@V10@V<lambda_3b1a155f3d9af5183301fdeff6995007>@@@Z@4HA DD 031001H
	DD	0700c4210H
	DD	0500bH
xdata	ENDS
;	COMDAT xdata
xdata	SEGMENT
$unwind$?dtor$2@?0???$find_if@V?$_Vector_iterator@V?$_Vector_val@U?$_Simple_types@UhookData@@@std@@@std@@@std@@V<lambda_3b1a155f3d9af5183301fdeff6995007>@@@std@@YA?AV?$_Vector_iterator@V?$_Vector_val@U?$_Simple_types@UhookData@@@std@@@std@@@0@V10@V10@V<lambda_3b1a155f3d9af5183301fdeff6995007>@@@Z@4HA DD 031001H
	DD	0700c4210H
	DD	0500bH
xdata	ENDS
;	COMDAT xdata
xdata	SEGMENT
$unwind$?dtor$1@?0???$find_if@V?$_Vector_iterator@V?$_Vector_val@U?$_Simple_types@UhookData@@@std@@@std@@@std@@V<lambda_3b1a155f3d9af5183301fdeff6995007>@@@std@@YA?AV?$_Vector_iterator@V?$_Vector_val@U?$_Simple_types@UhookData@@@std@@@std@@@0@V10@V10@V<lambda_3b1a155f3d9af5183301fdeff6995007>@@@Z@4HA DD 031001H
	DD	0700c4210H
	DD	0500bH
xdata	ENDS
;	COMDAT xdata
xdata	SEGMENT
$unwind$?dtor$0@?0???$find_if@V?$_Vector_iterator@V?$_Vector_val@U?$_Simple_types@UhookData@@@std@@@std@@@std@@V<lambda_3b1a155f3d9af5183301fdeff6995007>@@@std@@YA?AV?$_Vector_iterator@V?$_Vector_val@U?$_Simple_types@UhookData@@@std@@@std@@@0@V10@V10@V<lambda_3b1a155f3d9af5183301fdeff6995007>@@@Z@4HA DD 031001H
	DD	0700c4210H
	DD	0500bH
xdata	ENDS
;	COMDAT xdata
xdata	SEGMENT
$ip2state$??$find_if@V?$_Vector_iterator@V?$_Vector_val@U?$_Simple_types@UhookData@@@std@@@std@@@std@@V<lambda_3b1a155f3d9af5183301fdeff6995007>@@@std@@YA?AV?$_Vector_iterator@V?$_Vector_val@U?$_Simple_types@UhookData@@@std@@@std@@@0@V10@V10@V<lambda_3b1a155f3d9af5183301fdeff6995007>@@@Z DB 08H
	DB	00H
	DB	00H
	DB	'|'
	DB	06H
	DB	091H, 03H
	DB	04H
	DB	01cH
	DB	02H
xdata	ENDS
;	COMDAT xdata
xdata	SEGMENT
$stateUnwindMap$??$find_if@V?$_Vector_iterator@V?$_Vector_val@U?$_Simple_types@UhookData@@@std@@@std@@@std@@V<lambda_3b1a155f3d9af5183301fdeff6995007>@@@std@@YA?AV?$_Vector_iterator@V?$_Vector_val@U?$_Simple_types@UhookData@@@std@@@std@@@0@V10@V10@V<lambda_3b1a155f3d9af5183301fdeff6995007>@@@Z DB 08H
	DB	0eH
	DD	imagerel ?dtor$3@?0???$find_if@V?$_Vector_iterator@V?$_Vector_val@U?$_Simple_types@UhookData@@@std@@@std@@@std@@V<lambda_3b1a155f3d9af5183301fdeff6995007>@@@std@@YA?AV?$_Vector_iterator@V?$_Vector_val@U?$_Simple_types@UhookData@@@std@@@std@@@0@V10@V10@V<lambda_3b1a155f3d9af5183301fdeff6995007>@@@Z@4HA
	DB	02eH
	DD	imagerel ?dtor$0@?0???$find_if@V?$_Vector_iterator@V?$_Vector_val@U?$_Simple_types@UhookData@@@std@@@std@@@std@@V<lambda_3b1a155f3d9af5183301fdeff6995007>@@@std@@YA?AV?$_Vector_iterator@V?$_Vector_val@U?$_Simple_types@UhookData@@@std@@@std@@@0@V10@V10@V<lambda_3b1a155f3d9af5183301fdeff6995007>@@@Z@4HA
	DB	02eH
	DD	imagerel ?dtor$1@?0???$find_if@V?$_Vector_iterator@V?$_Vector_val@U?$_Simple_types@UhookData@@@std@@@std@@@std@@V<lambda_3b1a155f3d9af5183301fdeff6995007>@@@std@@YA?AV?$_Vector_iterator@V?$_Vector_val@U?$_Simple_types@UhookData@@@std@@@std@@@0@V10@V10@V<lambda_3b1a155f3d9af5183301fdeff6995007>@@@Z@4HA
	DB	02eH
	DD	imagerel ?dtor$2@?0???$find_if@V?$_Vector_iterator@V?$_Vector_val@U?$_Simple_types@UhookData@@@std@@@std@@@std@@V<lambda_3b1a155f3d9af5183301fdeff6995007>@@@std@@YA?AV?$_Vector_iterator@V?$_Vector_val@U?$_Simple_types@UhookData@@@std@@@std@@@0@V10@V10@V<lambda_3b1a155f3d9af5183301fdeff6995007>@@@Z@4HA
xdata	ENDS
;	COMDAT xdata
xdata	SEGMENT
$cppxdata$??$find_if@V?$_Vector_iterator@V?$_Vector_val@U?$_Simple_types@UhookData@@@std@@@std@@@std@@V<lambda_3b1a155f3d9af5183301fdeff6995007>@@@std@@YA?AV?$_Vector_iterator@V?$_Vector_val@U?$_Simple_types@UhookData@@@std@@@std@@@0@V10@V10@V<lambda_3b1a155f3d9af5183301fdeff6995007>@@@Z DB 08H
	DD	imagerel $stateUnwindMap$??$find_if@V?$_Vector_iterator@V?$_Vector_val@U?$_Simple_types@UhookData@@@std@@@std@@@std@@V<lambda_3b1a155f3d9af5183301fdeff6995007>@@@std@@YA?AV?$_Vector_iterator@V?$_Vector_val@U?$_Simple_types@UhookData@@@std@@@std@@@0@V10@V10@V<lambda_3b1a155f3d9af5183301fdeff6995007>@@@Z
	DD	imagerel $ip2state$??$find_if@V?$_Vector_iterator@V?$_Vector_val@U?$_Simple_types@UhookData@@@std@@@std@@@std@@V<lambda_3b1a155f3d9af5183301fdeff6995007>@@@std@@YA?AV?$_Vector_iterator@V?$_Vector_val@U?$_Simple_types@UhookData@@@std@@@std@@@0@V10@V10@V<lambda_3b1a155f3d9af5183301fdeff6995007>@@@Z
xdata	ENDS
;	COMDAT xdata
xdata	SEGMENT
$unwind$??$find_if@V?$_Vector_iterator@V?$_Vector_val@U?$_Simple_types@UhookData@@@std@@@std@@@std@@V<lambda_3b1a155f3d9af5183301fdeff6995007>@@@std@@YA?AV?$_Vector_iterator@V?$_Vector_val@U?$_Simple_types@UhookData@@@std@@@std@@@0@V10@V10@V<lambda_3b1a155f3d9af5183301fdeff6995007>@@@Z DD 033311H
	DD	01a011cH
	DD	07015H
	DD	imagerel __CxxFrameHandler4
	DD	imagerel $cppxdata$??$find_if@V?$_Vector_iterator@V?$_Vector_val@U?$_Simple_types@UhookData@@@std@@@std@@@std@@V<lambda_3b1a155f3d9af5183301fdeff6995007>@@@std@@YA?AV?$_Vector_iterator@V?$_Vector_val@U?$_Simple_types@UhookData@@@std@@@std@@@0@V10@V10@V<lambda_3b1a155f3d9af5183301fdeff6995007>@@@Z
xdata	ENDS
;	COMDAT CONST
CONST	SEGMENT
??$find_if@V?$_Vector_iterator@V?$_Vector_val@U?$_Simple_types@UhookData@@@std@@@std@@@std@@V<lambda_3b1a155f3d9af5183301fdeff6995007>@@@std@@YA?AV?$_Vector_iterator@V?$_Vector_val@U?$_Simple_types@UhookData@@@std@@@std@@@0@V10@V10@V<lambda_3b1a155f3d9af5183301fdeff6995007>@@@Z$rtcName$0 DB 05fH ; std::find_if<std::_Vector_iterator<std::_Vector_val<std::_Simple_types<hookData> > >,<lambda_3b1a155f3d9af5183301fdeff6995007> >
	DB	055H
	DB	046H
	DB	069H
	DB	072H
	DB	073H
	DB	074H
	DB	00H
	ORG $+8
??$find_if@V?$_Vector_iterator@V?$_Vector_val@U?$_Simple_types@UhookData@@@std@@@std@@@std@@V<lambda_3b1a155f3d9af5183301fdeff6995007>@@@std@@YA?AV?$_Vector_iterator@V?$_Vector_val@U?$_Simple_types@UhookData@@@std@@@std@@@0@V10@V10@V<lambda_3b1a155f3d9af5183301fdeff6995007>@@@Z$rtcVarDesc DD 028H ; std::find_if<std::_Vector_iterator<std::_Vector_val<std::_Simple_types<hookData> > >,<lambda_3b1a155f3d9af5183301fdeff6995007> >
	DD	08H
	DQ	FLAT:??$find_if@V?$_Vector_iterator@V?$_Vector_val@U?$_Simple_types@UhookData@@@std@@@std@@@std@@V<lambda_3b1a155f3d9af5183301fdeff6995007>@@@std@@YA?AV?$_Vector_iterator@V?$_Vector_val@U?$_Simple_types@UhookData@@@std@@@std@@@0@V10@V10@V<lambda_3b1a155f3d9af5183301fdeff6995007>@@@Z$rtcName$0
	ORG $+48
??$find_if@V?$_Vector_iterator@V?$_Vector_val@U?$_Simple_types@UhookData@@@std@@@std@@@std@@V<lambda_3b1a155f3d9af5183301fdeff6995007>@@@std@@YA?AV?$_Vector_iterator@V?$_Vector_val@U?$_Simple_types@UhookData@@@std@@@std@@@0@V10@V10@V<lambda_3b1a155f3d9af5183301fdeff6995007>@@@Z$rtcFrameData DD 01H ; std::find_if<std::_Vector_iterator<std::_Vector_val<std::_Simple_types<hookData> > >,<lambda_3b1a155f3d9af5183301fdeff6995007> >
	DD	00H
	DQ	FLAT:??$find_if@V?$_Vector_iterator@V?$_Vector_val@U?$_Simple_types@UhookData@@@std@@@std@@@std@@V<lambda_3b1a155f3d9af5183301fdeff6995007>@@@std@@YA?AV?$_Vector_iterator@V?$_Vector_val@U?$_Simple_types@UhookData@@@std@@@std@@@0@V10@V10@V<lambda_3b1a155f3d9af5183301fdeff6995007>@@@Z$rtcVarDesc
CONST	ENDS
;	COMDAT xdata
xdata	SEGMENT
$unwind$??0<lambda_3b1a155f3d9af5183301fdeff6995007>@@QEAA@AEBQEBD0@Z DD 011001H
	DD	07010H
xdata	ENDS
;	COMDAT xdata
xdata	SEGMENT
$unwind$?dtor$0@?0???R<lambda_3b1a155f3d9af5183301fdeff6995007>@@QEBA_NUhookData@@@Z@4HA DD 031001H
	DD	0700c4210H
	DD	0500bH
xdata	ENDS
;	COMDAT xdata
xdata	SEGMENT
$ip2state$??R<lambda_3b1a155f3d9af5183301fdeff6995007>@@QEBA_NUhookData@@@Z DB 06H
	DB	00H
	DB	00H
	DB	'F'
	DB	02H
	DB	0b0H
	DB	00H
xdata	ENDS
;	COMDAT xdata
xdata	SEGMENT
$stateUnwindMap$??R<lambda_3b1a155f3d9af5183301fdeff6995007>@@QEBA_NUhookData@@@Z DB 02H
	DB	0eH
	DD	imagerel ?dtor$0@?0???R<lambda_3b1a155f3d9af5183301fdeff6995007>@@QEBA_NUhookData@@@Z@4HA
xdata	ENDS
;	COMDAT xdata
xdata	SEGMENT
$cppxdata$??R<lambda_3b1a155f3d9af5183301fdeff6995007>@@QEBA_NUhookData@@@Z DB 08H
	DD	imagerel $stateUnwindMap$??R<lambda_3b1a155f3d9af5183301fdeff6995007>@@QEBA_NUhookData@@@Z
	DD	imagerel $ip2state$??R<lambda_3b1a155f3d9af5183301fdeff6995007>@@QEBA_NUhookData@@@Z
xdata	ENDS
;	COMDAT xdata
xdata	SEGMENT
$unwind$??R<lambda_3b1a155f3d9af5183301fdeff6995007>@@QEBA_NUhookData@@@Z DD 022311H
	DD	0700b520fH
	DD	imagerel __CxxFrameHandler4
	DD	imagerel $cppxdata$??R<lambda_3b1a155f3d9af5183301fdeff6995007>@@QEBA_NUhookData@@@Z
xdata	ENDS
;	COMDAT xdata
xdata	SEGMENT
$unwind$?dtor$3@?0???$find_if@V?$_Vector_iterator@V?$_Vector_val@U?$_Simple_types@UhookData@@@std@@@std@@@std@@V<lambda_1735d4f996bca40e44ec48ee134389dd>@@@std@@YA?AV?$_Vector_iterator@V?$_Vector_val@U?$_Simple_types@UhookData@@@std@@@std@@@0@V10@V10@V<lambda_1735d4f996bca40e44ec48ee134389dd>@@@Z@4HA DD 031001H
	DD	0700c4210H
	DD	0500bH
xdata	ENDS
;	COMDAT xdata
xdata	SEGMENT
$unwind$?dtor$2@?0???$find_if@V?$_Vector_iterator@V?$_Vector_val@U?$_Simple_types@UhookData@@@std@@@std@@@std@@V<lambda_1735d4f996bca40e44ec48ee134389dd>@@@std@@YA?AV?$_Vector_iterator@V?$_Vector_val@U?$_Simple_types@UhookData@@@std@@@std@@@0@V10@V10@V<lambda_1735d4f996bca40e44ec48ee134389dd>@@@Z@4HA DD 031001H
	DD	0700c4210H
	DD	0500bH
xdata	ENDS
;	COMDAT xdata
xdata	SEGMENT
$unwind$?dtor$1@?0???$find_if@V?$_Vector_iterator@V?$_Vector_val@U?$_Simple_types@UhookData@@@std@@@std@@@std@@V<lambda_1735d4f996bca40e44ec48ee134389dd>@@@std@@YA?AV?$_Vector_iterator@V?$_Vector_val@U?$_Simple_types@UhookData@@@std@@@std@@@0@V10@V10@V<lambda_1735d4f996bca40e44ec48ee134389dd>@@@Z@4HA DD 031001H
	DD	0700c4210H
	DD	0500bH
xdata	ENDS
;	COMDAT xdata
xdata	SEGMENT
$unwind$?dtor$0@?0???$find_if@V?$_Vector_iterator@V?$_Vector_val@U?$_Simple_types@UhookData@@@std@@@std@@@std@@V<lambda_1735d4f996bca40e44ec48ee134389dd>@@@std@@YA?AV?$_Vector_iterator@V?$_Vector_val@U?$_Simple_types@UhookData@@@std@@@std@@@0@V10@V10@V<lambda_1735d4f996bca40e44ec48ee134389dd>@@@Z@4HA DD 031001H
	DD	0700c4210H
	DD	0500bH
xdata	ENDS
;	COMDAT xdata
xdata	SEGMENT
$ip2state$??$find_if@V?$_Vector_iterator@V?$_Vector_val@U?$_Simple_types@UhookData@@@std@@@std@@@std@@V<lambda_1735d4f996bca40e44ec48ee134389dd>@@@std@@YA?AV?$_Vector_iterator@V?$_Vector_val@U?$_Simple_types@UhookData@@@std@@@std@@@0@V10@V10@V<lambda_1735d4f996bca40e44ec48ee134389dd>@@@Z DB 08H
	DB	00H
	DB	00H
	DB	'|'
	DB	06H
	DB	091H, 03H
	DB	04H
	DB	01cH
	DB	02H
xdata	ENDS
;	COMDAT xdata
xdata	SEGMENT
$stateUnwindMap$??$find_if@V?$_Vector_iterator@V?$_Vector_val@U?$_Simple_types@UhookData@@@std@@@std@@@std@@V<lambda_1735d4f996bca40e44ec48ee134389dd>@@@std@@YA?AV?$_Vector_iterator@V?$_Vector_val@U?$_Simple_types@UhookData@@@std@@@std@@@0@V10@V10@V<lambda_1735d4f996bca40e44ec48ee134389dd>@@@Z DB 08H
	DB	0eH
	DD	imagerel ?dtor$3@?0???$find_if@V?$_Vector_iterator@V?$_Vector_val@U?$_Simple_types@UhookData@@@std@@@std@@@std@@V<lambda_1735d4f996bca40e44ec48ee134389dd>@@@std@@YA?AV?$_Vector_iterator@V?$_Vector_val@U?$_Simple_types@UhookData@@@std@@@std@@@0@V10@V10@V<lambda_1735d4f996bca40e44ec48ee134389dd>@@@Z@4HA
	DB	02eH
	DD	imagerel ?dtor$0@?0???$find_if@V?$_Vector_iterator@V?$_Vector_val@U?$_Simple_types@UhookData@@@std@@@std@@@std@@V<lambda_1735d4f996bca40e44ec48ee134389dd>@@@std@@YA?AV?$_Vector_iterator@V?$_Vector_val@U?$_Simple_types@UhookData@@@std@@@std@@@0@V10@V10@V<lambda_1735d4f996bca40e44ec48ee134389dd>@@@Z@4HA
	DB	02eH
	DD	imagerel ?dtor$1@?0???$find_if@V?$_Vector_iterator@V?$_Vector_val@U?$_Simple_types@UhookData@@@std@@@std@@@std@@V<lambda_1735d4f996bca40e44ec48ee134389dd>@@@std@@YA?AV?$_Vector_iterator@V?$_Vector_val@U?$_Simple_types@UhookData@@@std@@@std@@@0@V10@V10@V<lambda_1735d4f996bca40e44ec48ee134389dd>@@@Z@4HA
	DB	02eH
	DD	imagerel ?dtor$2@?0???$find_if@V?$_Vector_iterator@V?$_Vector_val@U?$_Simple_types@UhookData@@@std@@@std@@@std@@V<lambda_1735d4f996bca40e44ec48ee134389dd>@@@std@@YA?AV?$_Vector_iterator@V?$_Vector_val@U?$_Simple_types@UhookData@@@std@@@std@@@0@V10@V10@V<lambda_1735d4f996bca40e44ec48ee134389dd>@@@Z@4HA
xdata	ENDS
;	COMDAT xdata
xdata	SEGMENT
$cppxdata$??$find_if@V?$_Vector_iterator@V?$_Vector_val@U?$_Simple_types@UhookData@@@std@@@std@@@std@@V<lambda_1735d4f996bca40e44ec48ee134389dd>@@@std@@YA?AV?$_Vector_iterator@V?$_Vector_val@U?$_Simple_types@UhookData@@@std@@@std@@@0@V10@V10@V<lambda_1735d4f996bca40e44ec48ee134389dd>@@@Z DB 08H
	DD	imagerel $stateUnwindMap$??$find_if@V?$_Vector_iterator@V?$_Vector_val@U?$_Simple_types@UhookData@@@std@@@std@@@std@@V<lambda_1735d4f996bca40e44ec48ee134389dd>@@@std@@YA?AV?$_Vector_iterator@V?$_Vector_val@U?$_Simple_types@UhookData@@@std@@@std@@@0@V10@V10@V<lambda_1735d4f996bca40e44ec48ee134389dd>@@@Z
	DD	imagerel $ip2state$??$find_if@V?$_Vector_iterator@V?$_Vector_val@U?$_Simple_types@UhookData@@@std@@@std@@@std@@V<lambda_1735d4f996bca40e44ec48ee134389dd>@@@std@@YA?AV?$_Vector_iterator@V?$_Vector_val@U?$_Simple_types@UhookData@@@std@@@std@@@0@V10@V10@V<lambda_1735d4f996bca40e44ec48ee134389dd>@@@Z
xdata	ENDS
;	COMDAT xdata
xdata	SEGMENT
$unwind$??$find_if@V?$_Vector_iterator@V?$_Vector_val@U?$_Simple_types@UhookData@@@std@@@std@@@std@@V<lambda_1735d4f996bca40e44ec48ee134389dd>@@@std@@YA?AV?$_Vector_iterator@V?$_Vector_val@U?$_Simple_types@UhookData@@@std@@@std@@@0@V10@V10@V<lambda_1735d4f996bca40e44ec48ee134389dd>@@@Z DD 033311H
	DD	01a011cH
	DD	07015H
	DD	imagerel __CxxFrameHandler4
	DD	imagerel $cppxdata$??$find_if@V?$_Vector_iterator@V?$_Vector_val@U?$_Simple_types@UhookData@@@std@@@std@@@std@@V<lambda_1735d4f996bca40e44ec48ee134389dd>@@@std@@YA?AV?$_Vector_iterator@V?$_Vector_val@U?$_Simple_types@UhookData@@@std@@@std@@@0@V10@V10@V<lambda_1735d4f996bca40e44ec48ee134389dd>@@@Z
xdata	ENDS
;	COMDAT CONST
CONST	SEGMENT
??$find_if@V?$_Vector_iterator@V?$_Vector_val@U?$_Simple_types@UhookData@@@std@@@std@@@std@@V<lambda_1735d4f996bca40e44ec48ee134389dd>@@@std@@YA?AV?$_Vector_iterator@V?$_Vector_val@U?$_Simple_types@UhookData@@@std@@@std@@@0@V10@V10@V<lambda_1735d4f996bca40e44ec48ee134389dd>@@@Z$rtcName$0 DB 05fH ; std::find_if<std::_Vector_iterator<std::_Vector_val<std::_Simple_types<hookData> > >,<lambda_1735d4f996bca40e44ec48ee134389dd> >
	DB	055H
	DB	046H
	DB	069H
	DB	072H
	DB	073H
	DB	074H
	DB	00H
	ORG $+8
??$find_if@V?$_Vector_iterator@V?$_Vector_val@U?$_Simple_types@UhookData@@@std@@@std@@@std@@V<lambda_1735d4f996bca40e44ec48ee134389dd>@@@std@@YA?AV?$_Vector_iterator@V?$_Vector_val@U?$_Simple_types@UhookData@@@std@@@std@@@0@V10@V10@V<lambda_1735d4f996bca40e44ec48ee134389dd>@@@Z$rtcVarDesc DD 028H ; std::find_if<std::_Vector_iterator<std::_Vector_val<std::_Simple_types<hookData> > >,<lambda_1735d4f996bca40e44ec48ee134389dd> >
	DD	08H
	DQ	FLAT:??$find_if@V?$_Vector_iterator@V?$_Vector_val@U?$_Simple_types@UhookData@@@std@@@std@@@std@@V<lambda_1735d4f996bca40e44ec48ee134389dd>@@@std@@YA?AV?$_Vector_iterator@V?$_Vector_val@U?$_Simple_types@UhookData@@@std@@@std@@@0@V10@V10@V<lambda_1735d4f996bca40e44ec48ee134389dd>@@@Z$rtcName$0
	ORG $+48
??$find_if@V?$_Vector_iterator@V?$_Vector_val@U?$_Simple_types@UhookData@@@std@@@std@@@std@@V<lambda_1735d4f996bca40e44ec48ee134389dd>@@@std@@YA?AV?$_Vector_iterator@V?$_Vector_val@U?$_Simple_types@UhookData@@@std@@@std@@@0@V10@V10@V<lambda_1735d4f996bca40e44ec48ee134389dd>@@@Z$rtcFrameData DD 01H ; std::find_if<std::_Vector_iterator<std::_Vector_val<std::_Simple_types<hookData> > >,<lambda_1735d4f996bca40e44ec48ee134389dd> >
	DD	00H
	DQ	FLAT:??$find_if@V?$_Vector_iterator@V?$_Vector_val@U?$_Simple_types@UhookData@@@std@@@std@@@std@@V<lambda_1735d4f996bca40e44ec48ee134389dd>@@@std@@YA?AV?$_Vector_iterator@V?$_Vector_val@U?$_Simple_types@UhookData@@@std@@@std@@@0@V10@V10@V<lambda_1735d4f996bca40e44ec48ee134389dd>@@@Z$rtcVarDesc
CONST	ENDS
;	COMDAT xdata
xdata	SEGMENT
$unwind$??0<lambda_1735d4f996bca40e44ec48ee134389dd>@@QEAA@AEBQEAX@Z DD 010b01H
	DD	0700bH
xdata	ENDS
;	COMDAT xdata
xdata	SEGMENT
$unwind$?dtor$0@?0???R<lambda_1735d4f996bca40e44ec48ee134389dd>@@QEBA_NUhookData@@@Z@4HA DD 031001H
	DD	0700c4210H
	DD	0500bH
xdata	ENDS
;	COMDAT xdata
xdata	SEGMENT
$ip2state$??R<lambda_1735d4f996bca40e44ec48ee134389dd>@@QEBA_NUhookData@@@Z DB 06H
	DB	00H
	DB	00H
	DB	'F'
	DB	02H
	DB	'\'
	DB	00H
xdata	ENDS
;	COMDAT xdata
xdata	SEGMENT
$stateUnwindMap$??R<lambda_1735d4f996bca40e44ec48ee134389dd>@@QEBA_NUhookData@@@Z DB 02H
	DB	0eH
	DD	imagerel ?dtor$0@?0???R<lambda_1735d4f996bca40e44ec48ee134389dd>@@QEBA_NUhookData@@@Z@4HA
xdata	ENDS
;	COMDAT xdata
xdata	SEGMENT
$cppxdata$??R<lambda_1735d4f996bca40e44ec48ee134389dd>@@QEBA_NUhookData@@@Z DB 08H
	DD	imagerel $stateUnwindMap$??R<lambda_1735d4f996bca40e44ec48ee134389dd>@@QEBA_NUhookData@@@Z
	DD	imagerel $ip2state$??R<lambda_1735d4f996bca40e44ec48ee134389dd>@@QEBA_NUhookData@@@Z
xdata	ENDS
;	COMDAT xdata
xdata	SEGMENT
$unwind$??R<lambda_1735d4f996bca40e44ec48ee134389dd>@@QEBA_NUhookData@@@Z DD 022311H
	DD	0700b520fH
	DD	imagerel __CxxFrameHandler4
	DD	imagerel $cppxdata$??R<lambda_1735d4f996bca40e44ec48ee134389dd>@@QEBA_NUhookData@@@Z
xdata	ENDS
;	COMDAT xdata
xdata	SEGMENT
$unwind$?dtor$3@?0???$find_if@V?$_Vector_iterator@V?$_Vector_val@U?$_Simple_types@UhookData@@@std@@@std@@@std@@V<lambda_831aa28b571b4242b9e704a94bc96691>@@@std@@YA?AV?$_Vector_iterator@V?$_Vector_val@U?$_Simple_types@UhookData@@@std@@@std@@@0@V10@V10@V<lambda_831aa28b571b4242b9e704a94bc96691>@@@Z@4HA DD 031001H
	DD	0700c4210H
	DD	0500bH
xdata	ENDS
;	COMDAT xdata
xdata	SEGMENT
$unwind$?dtor$2@?0???$find_if@V?$_Vector_iterator@V?$_Vector_val@U?$_Simple_types@UhookData@@@std@@@std@@@std@@V<lambda_831aa28b571b4242b9e704a94bc96691>@@@std@@YA?AV?$_Vector_iterator@V?$_Vector_val@U?$_Simple_types@UhookData@@@std@@@std@@@0@V10@V10@V<lambda_831aa28b571b4242b9e704a94bc96691>@@@Z@4HA DD 031001H
	DD	0700c4210H
	DD	0500bH
xdata	ENDS
;	COMDAT xdata
xdata	SEGMENT
$unwind$?dtor$1@?0???$find_if@V?$_Vector_iterator@V?$_Vector_val@U?$_Simple_types@UhookData@@@std@@@std@@@std@@V<lambda_831aa28b571b4242b9e704a94bc96691>@@@std@@YA?AV?$_Vector_iterator@V?$_Vector_val@U?$_Simple_types@UhookData@@@std@@@std@@@0@V10@V10@V<lambda_831aa28b571b4242b9e704a94bc96691>@@@Z@4HA DD 031001H
	DD	0700c4210H
	DD	0500bH
xdata	ENDS
;	COMDAT xdata
xdata	SEGMENT
$unwind$?dtor$0@?0???$find_if@V?$_Vector_iterator@V?$_Vector_val@U?$_Simple_types@UhookData@@@std@@@std@@@std@@V<lambda_831aa28b571b4242b9e704a94bc96691>@@@std@@YA?AV?$_Vector_iterator@V?$_Vector_val@U?$_Simple_types@UhookData@@@std@@@std@@@0@V10@V10@V<lambda_831aa28b571b4242b9e704a94bc96691>@@@Z@4HA DD 031001H
	DD	0700c4210H
	DD	0500bH
xdata	ENDS
;	COMDAT xdata
xdata	SEGMENT
$ip2state$??$find_if@V?$_Vector_iterator@V?$_Vector_val@U?$_Simple_types@UhookData@@@std@@@std@@@std@@V<lambda_831aa28b571b4242b9e704a94bc96691>@@@std@@YA?AV?$_Vector_iterator@V?$_Vector_val@U?$_Simple_types@UhookData@@@std@@@std@@@0@V10@V10@V<lambda_831aa28b571b4242b9e704a94bc96691>@@@Z DB 08H
	DB	00H
	DB	00H
	DB	'|'
	DB	06H
	DB	091H, 03H
	DB	04H
	DB	01cH
	DB	02H
xdata	ENDS
;	COMDAT xdata
xdata	SEGMENT
$stateUnwindMap$??$find_if@V?$_Vector_iterator@V?$_Vector_val@U?$_Simple_types@UhookData@@@std@@@std@@@std@@V<lambda_831aa28b571b4242b9e704a94bc96691>@@@std@@YA?AV?$_Vector_iterator@V?$_Vector_val@U?$_Simple_types@UhookData@@@std@@@std@@@0@V10@V10@V<lambda_831aa28b571b4242b9e704a94bc96691>@@@Z DB 08H
	DB	0eH
	DD	imagerel ?dtor$3@?0???$find_if@V?$_Vector_iterator@V?$_Vector_val@U?$_Simple_types@UhookData@@@std@@@std@@@std@@V<lambda_831aa28b571b4242b9e704a94bc96691>@@@std@@YA?AV?$_Vector_iterator@V?$_Vector_val@U?$_Simple_types@UhookData@@@std@@@std@@@0@V10@V10@V<lambda_831aa28b571b4242b9e704a94bc96691>@@@Z@4HA
	DB	02eH
	DD	imagerel ?dtor$0@?0???$find_if@V?$_Vector_iterator@V?$_Vector_val@U?$_Simple_types@UhookData@@@std@@@std@@@std@@V<lambda_831aa28b571b4242b9e704a94bc96691>@@@std@@YA?AV?$_Vector_iterator@V?$_Vector_val@U?$_Simple_types@UhookData@@@std@@@std@@@0@V10@V10@V<lambda_831aa28b571b4242b9e704a94bc96691>@@@Z@4HA
	DB	02eH
	DD	imagerel ?dtor$1@?0???$find_if@V?$_Vector_iterator@V?$_Vector_val@U?$_Simple_types@UhookData@@@std@@@std@@@std@@V<lambda_831aa28b571b4242b9e704a94bc96691>@@@std@@YA?AV?$_Vector_iterator@V?$_Vector_val@U?$_Simple_types@UhookData@@@std@@@std@@@0@V10@V10@V<lambda_831aa28b571b4242b9e704a94bc96691>@@@Z@4HA
	DB	02eH
	DD	imagerel ?dtor$2@?0???$find_if@V?$_Vector_iterator@V?$_Vector_val@U?$_Simple_types@UhookData@@@std@@@std@@@std@@V<lambda_831aa28b571b4242b9e704a94bc96691>@@@std@@YA?AV?$_Vector_iterator@V?$_Vector_val@U?$_Simple_types@UhookData@@@std@@@std@@@0@V10@V10@V<lambda_831aa28b571b4242b9e704a94bc96691>@@@Z@4HA
xdata	ENDS
;	COMDAT xdata
xdata	SEGMENT
$cppxdata$??$find_if@V?$_Vector_iterator@V?$_Vector_val@U?$_Simple_types@UhookData@@@std@@@std@@@std@@V<lambda_831aa28b571b4242b9e704a94bc96691>@@@std@@YA?AV?$_Vector_iterator@V?$_Vector_val@U?$_Simple_types@UhookData@@@std@@@std@@@0@V10@V10@V<lambda_831aa28b571b4242b9e704a94bc96691>@@@Z DB 08H
	DD	imagerel $stateUnwindMap$??$find_if@V?$_Vector_iterator@V?$_Vector_val@U?$_Simple_types@UhookData@@@std@@@std@@@std@@V<lambda_831aa28b571b4242b9e704a94bc96691>@@@std@@YA?AV?$_Vector_iterator@V?$_Vector_val@U?$_Simple_types@UhookData@@@std@@@std@@@0@V10@V10@V<lambda_831aa28b571b4242b9e704a94bc96691>@@@Z
	DD	imagerel $ip2state$??$find_if@V?$_Vector_iterator@V?$_Vector_val@U?$_Simple_types@UhookData@@@std@@@std@@@std@@V<lambda_831aa28b571b4242b9e704a94bc96691>@@@std@@YA?AV?$_Vector_iterator@V?$_Vector_val@U?$_Simple_types@UhookData@@@std@@@std@@@0@V10@V10@V<lambda_831aa28b571b4242b9e704a94bc96691>@@@Z
xdata	ENDS
;	COMDAT xdata
xdata	SEGMENT
$unwind$??$find_if@V?$_Vector_iterator@V?$_Vector_val@U?$_Simple_types@UhookData@@@std@@@std@@@std@@V<lambda_831aa28b571b4242b9e704a94bc96691>@@@std@@YA?AV?$_Vector_iterator@V?$_Vector_val@U?$_Simple_types@UhookData@@@std@@@std@@@0@V10@V10@V<lambda_831aa28b571b4242b9e704a94bc96691>@@@Z DD 033311H
	DD	01a011cH
	DD	07015H
	DD	imagerel __CxxFrameHandler4
	DD	imagerel $cppxdata$??$find_if@V?$_Vector_iterator@V?$_Vector_val@U?$_Simple_types@UhookData@@@std@@@std@@@std@@V<lambda_831aa28b571b4242b9e704a94bc96691>@@@std@@YA?AV?$_Vector_iterator@V?$_Vector_val@U?$_Simple_types@UhookData@@@std@@@std@@@0@V10@V10@V<lambda_831aa28b571b4242b9e704a94bc96691>@@@Z
xdata	ENDS
;	COMDAT CONST
CONST	SEGMENT
??$find_if@V?$_Vector_iterator@V?$_Vector_val@U?$_Simple_types@UhookData@@@std@@@std@@@std@@V<lambda_831aa28b571b4242b9e704a94bc96691>@@@std@@YA?AV?$_Vector_iterator@V?$_Vector_val@U?$_Simple_types@UhookData@@@std@@@std@@@0@V10@V10@V<lambda_831aa28b571b4242b9e704a94bc96691>@@@Z$rtcName$0 DB 05fH ; std::find_if<std::_Vector_iterator<std::_Vector_val<std::_Simple_types<hookData> > >,<lambda_831aa28b571b4242b9e704a94bc96691> >
	DB	055H
	DB	046H
	DB	069H
	DB	072H
	DB	073H
	DB	074H
	DB	00H
	ORG $+8
??$find_if@V?$_Vector_iterator@V?$_Vector_val@U?$_Simple_types@UhookData@@@std@@@std@@@std@@V<lambda_831aa28b571b4242b9e704a94bc96691>@@@std@@YA?AV?$_Vector_iterator@V?$_Vector_val@U?$_Simple_types@UhookData@@@std@@@std@@@0@V10@V10@V<lambda_831aa28b571b4242b9e704a94bc96691>@@@Z$rtcVarDesc DD 028H ; std::find_if<std::_Vector_iterator<std::_Vector_val<std::_Simple_types<hookData> > >,<lambda_831aa28b571b4242b9e704a94bc96691> >
	DD	08H
	DQ	FLAT:??$find_if@V?$_Vector_iterator@V?$_Vector_val@U?$_Simple_types@UhookData@@@std@@@std@@@std@@V<lambda_831aa28b571b4242b9e704a94bc96691>@@@std@@YA?AV?$_Vector_iterator@V?$_Vector_val@U?$_Simple_types@UhookData@@@std@@@std@@@0@V10@V10@V<lambda_831aa28b571b4242b9e704a94bc96691>@@@Z$rtcName$0
	ORG $+48
??$find_if@V?$_Vector_iterator@V?$_Vector_val@U?$_Simple_types@UhookData@@@std@@@std@@@std@@V<lambda_831aa28b571b4242b9e704a94bc96691>@@@std@@YA?AV?$_Vector_iterator@V?$_Vector_val@U?$_Simple_types@UhookData@@@std@@@std@@@0@V10@V10@V<lambda_831aa28b571b4242b9e704a94bc96691>@@@Z$rtcFrameData DD 01H ; std::find_if<std::_Vector_iterator<std::_Vector_val<std::_Simple_types<hookData> > >,<lambda_831aa28b571b4242b9e704a94bc96691> >
	DD	00H
	DQ	FLAT:??$find_if@V?$_Vector_iterator@V?$_Vector_val@U?$_Simple_types@UhookData@@@std@@@std@@@std@@V<lambda_831aa28b571b4242b9e704a94bc96691>@@@std@@YA?AV?$_Vector_iterator@V?$_Vector_val@U?$_Simple_types@UhookData@@@std@@@std@@@0@V10@V10@V<lambda_831aa28b571b4242b9e704a94bc96691>@@@Z$rtcVarDesc
CONST	ENDS
;	COMDAT xdata
xdata	SEGMENT
$unwind$??$?8DU?$char_traits@D@std@@V?$allocator@D@1@@std@@YA_NAEBV?$basic_string@DU?$char_traits@D@std@@V?$allocator@D@2@@0@QEBD@Z DD 022301H
	DD	0700b320fH
xdata	ENDS
;	COMDAT xdata
xdata	SEGMENT
$unwind$??0<lambda_831aa28b571b4242b9e704a94bc96691>@@QEAA@AEBQEBD0@Z DD 011001H
	DD	07010H
xdata	ENDS
;	COMDAT xdata
xdata	SEGMENT
$unwind$?dtor$0@?0???R<lambda_831aa28b571b4242b9e704a94bc96691>@@QEBA_NUhookData@@@Z@4HA DD 031001H
	DD	0700c4210H
	DD	0500bH
xdata	ENDS
;	COMDAT xdata
xdata	SEGMENT
$ip2state$??R<lambda_831aa28b571b4242b9e704a94bc96691>@@QEBA_NUhookData@@@Z DB 06H
	DB	00H
	DB	00H
	DB	'F'
	DB	02H
	DB	0b0H
	DB	00H
xdata	ENDS
;	COMDAT xdata
xdata	SEGMENT
$stateUnwindMap$??R<lambda_831aa28b571b4242b9e704a94bc96691>@@QEBA_NUhookData@@@Z DB 02H
	DB	0eH
	DD	imagerel ?dtor$0@?0???R<lambda_831aa28b571b4242b9e704a94bc96691>@@QEBA_NUhookData@@@Z@4HA
xdata	ENDS
;	COMDAT xdata
xdata	SEGMENT
$cppxdata$??R<lambda_831aa28b571b4242b9e704a94bc96691>@@QEBA_NUhookData@@@Z DB 08H
	DD	imagerel $stateUnwindMap$??R<lambda_831aa28b571b4242b9e704a94bc96691>@@QEBA_NUhookData@@@Z
	DD	imagerel $ip2state$??R<lambda_831aa28b571b4242b9e704a94bc96691>@@QEBA_NUhookData@@@Z
xdata	ENDS
;	COMDAT xdata
xdata	SEGMENT
$unwind$??R<lambda_831aa28b571b4242b9e704a94bc96691>@@QEBA_NUhookData@@@Z DD 022311H
	DD	0700b520fH
	DD	imagerel __CxxFrameHandler4
	DD	imagerel $cppxdata$??R<lambda_831aa28b571b4242b9e704a94bc96691>@@QEBA_NUhookData@@@Z
xdata	ENDS
;	COMDAT xdata
xdata	SEGMENT
$unwind$?dtor$0@?0???0?$_Vector_iterator@V?$_Vector_val@U?$_Simple_types@UhookData@@@std@@@std@@@std@@QEAA@$$QEAV01@@Z@4HA DD 031001H
	DD	0700c4210H
	DD	0500bH
xdata	ENDS
;	COMDAT xdata
xdata	SEGMENT
$ip2state$??0?$_Vector_iterator@V?$_Vector_val@U?$_Simple_types@UhookData@@@std@@@std@@@std@@QEAA@$$QEAV01@@Z DB 02H
	DB	00H
	DB	00H
xdata	ENDS
;	COMDAT xdata
xdata	SEGMENT
$stateUnwindMap$??0?$_Vector_iterator@V?$_Vector_val@U?$_Simple_types@UhookData@@@std@@@std@@@std@@QEAA@$$QEAV01@@Z DB 02H
	DB	0eH
	DD	imagerel ?dtor$0@?0???0?$_Vector_iterator@V?$_Vector_val@U?$_Simple_types@UhookData@@@std@@@std@@@std@@QEAA@$$QEAV01@@Z@4HA
xdata	ENDS
;	COMDAT xdata
xdata	SEGMENT
$cppxdata$??0?$_Vector_iterator@V?$_Vector_val@U?$_Simple_types@UhookData@@@std@@@std@@@std@@QEAA@$$QEAV01@@Z DB 048H
	DD	imagerel $stateUnwindMap$??0?$_Vector_iterator@V?$_Vector_val@U?$_Simple_types@UhookData@@@std@@@std@@@std@@QEAA@$$QEAV01@@Z
	DD	imagerel $ip2state$??0?$_Vector_iterator@V?$_Vector_val@U?$_Simple_types@UhookData@@@std@@@std@@@std@@QEAA@$$QEAV01@@Z
xdata	ENDS
;	COMDAT xdata
xdata	SEGMENT
$unwind$??0?$_Vector_iterator@V?$_Vector_val@U?$_Simple_types@UhookData@@@std@@@std@@@std@@QEAA@$$QEAV01@@Z DD 022311H
	DD	0700b320fH
	DD	imagerel __CxxFrameHandler4
	DD	imagerel $cppxdata$??0?$_Vector_iterator@V?$_Vector_val@U?$_Simple_types@UhookData@@@std@@@std@@@std@@QEAA@$$QEAV01@@Z
xdata	ENDS
;	COMDAT xdata
xdata	SEGMENT
$unwind$?dtor$0@?0???1?$_Vector_iterator@V?$_Vector_val@U?$_Simple_types@UhookData@@@std@@@std@@@std@@QEAA@XZ@4HA DD 031001H
	DD	0700c4210H
	DD	0500bH
xdata	ENDS
;	COMDAT xdata
xdata	SEGMENT
$ip2state$??1?$_Vector_iterator@V?$_Vector_val@U?$_Simple_types@UhookData@@@std@@@std@@@std@@QEAA@XZ DB 02H
	DB	00H
	DB	00H
xdata	ENDS
;	COMDAT xdata
xdata	SEGMENT
$stateUnwindMap$??1?$_Vector_iterator@V?$_Vector_val@U?$_Simple_types@UhookData@@@std@@@std@@@std@@QEAA@XZ DB 02H
	DB	0eH
	DD	imagerel ?dtor$0@?0???1?$_Vector_iterator@V?$_Vector_val@U?$_Simple_types@UhookData@@@std@@@std@@@std@@QEAA@XZ@4HA
xdata	ENDS
;	COMDAT xdata
xdata	SEGMENT
$cppxdata$??1?$_Vector_iterator@V?$_Vector_val@U?$_Simple_types@UhookData@@@std@@@std@@@std@@QEAA@XZ DB 048H
	DD	imagerel $stateUnwindMap$??1?$_Vector_iterator@V?$_Vector_val@U?$_Simple_types@UhookData@@@std@@@std@@@std@@QEAA@XZ
	DD	imagerel $ip2state$??1?$_Vector_iterator@V?$_Vector_val@U?$_Simple_types@UhookData@@@std@@@std@@@std@@QEAA@XZ
xdata	ENDS
;	COMDAT xdata
xdata	SEGMENT
$unwind$??1?$_Vector_iterator@V?$_Vector_val@U?$_Simple_types@UhookData@@@std@@@std@@@std@@QEAA@XZ DD 021e11H
	DD	07006320aH
	DD	imagerel __CxxFrameHandler4
	DD	imagerel $cppxdata$??1?$_Vector_iterator@V?$_Vector_val@U?$_Simple_types@UhookData@@@std@@@std@@@std@@QEAA@XZ
xdata	ENDS
;	COMDAT xdata
xdata	SEGMENT
$unwind$?_Unwrapped@?$_Vector_iterator@V?$_Vector_val@U?$_Simple_types@UhookData@@@std@@@std@@@std@@QEBAPEAUhookData@@XZ DD 021e01H
	DD	07006320aH
xdata	ENDS
;	COMDAT xdata
xdata	SEGMENT
$unwind$??C?$_Vector_iterator@V?$_Vector_val@U?$_Simple_types@UhookData@@@std@@@std@@@std@@QEBAPEAUhookData@@XZ DD 021e01H
	DD	07006320aH
xdata	ENDS
;	COMDAT xdata
xdata	SEGMENT
$unwind$?dtor$0@?0???0?$_Vector_iterator@V?$_Vector_val@U?$_Simple_types@UhookData@@@std@@@std@@@std@@QEAA@PEAUhookData@@PEBU_Container_base12@1@@Z@4HA DD 031001H
	DD	0700c4210H
	DD	0500bH
xdata	ENDS
;	COMDAT xdata
xdata	SEGMENT
$ip2state$??0?$_Vector_iterator@V?$_Vector_val@U?$_Simple_types@UhookData@@@std@@@std@@@std@@QEAA@PEAUhookData@@PEBU_Container_base12@1@@Z DB 02H
	DB	00H
	DB	00H
xdata	ENDS
;	COMDAT xdata
xdata	SEGMENT
$stateUnwindMap$??0?$_Vector_iterator@V?$_Vector_val@U?$_Simple_types@UhookData@@@std@@@std@@@std@@QEAA@PEAUhookData@@PEBU_Container_base12@1@@Z DB 02H
	DB	0eH
	DD	imagerel ?dtor$0@?0???0?$_Vector_iterator@V?$_Vector_val@U?$_Simple_types@UhookData@@@std@@@std@@@std@@QEAA@PEAUhookData@@PEBU_Container_base12@1@@Z@4HA
xdata	ENDS
;	COMDAT xdata
xdata	SEGMENT
$cppxdata$??0?$_Vector_iterator@V?$_Vector_val@U?$_Simple_types@UhookData@@@std@@@std@@@std@@QEAA@PEAUhookData@@PEBU_Container_base12@1@@Z DB 08H
	DD	imagerel $stateUnwindMap$??0?$_Vector_iterator@V?$_Vector_val@U?$_Simple_types@UhookData@@@std@@@std@@@std@@QEAA@PEAUhookData@@PEBU_Container_base12@1@@Z
	DD	imagerel $ip2state$??0?$_Vector_iterator@V?$_Vector_val@U?$_Simple_types@UhookData@@@std@@@std@@@std@@QEAA@PEAUhookData@@PEBU_Container_base12@1@@Z
xdata	ENDS
;	COMDAT xdata
xdata	SEGMENT
$unwind$??0?$_Vector_iterator@V?$_Vector_val@U?$_Simple_types@UhookData@@@std@@@std@@@std@@QEAA@PEAUhookData@@PEBU_Container_base12@1@@Z DD 022811H
	DD	070103214H
	DD	imagerel __CxxFrameHandler4
	DD	imagerel $cppxdata$??0?$_Vector_iterator@V?$_Vector_val@U?$_Simple_types@UhookData@@@std@@@std@@@std@@QEAA@PEAUhookData@@PEBU_Container_base12@1@@Z
xdata	ENDS
;	COMDAT xdata
xdata	SEGMENT
$unwind$?dtor$0@?0???0?$_Vector_const_iterator@V?$_Vector_val@U?$_Simple_types@UhookData@@@std@@@std@@@std@@QEAA@$$QEAV01@@Z@4HA DD 031001H
	DD	0700c4210H
	DD	0500bH
xdata	ENDS
;	COMDAT xdata
xdata	SEGMENT
$ip2state$??0?$_Vector_const_iterator@V?$_Vector_val@U?$_Simple_types@UhookData@@@std@@@std@@@std@@QEAA@$$QEAV01@@Z DB 06H
	DB	00H
	DB	00H
	DB	'f'
	DB	02H
	DB	'$'
	DB	00H
xdata	ENDS
;	COMDAT xdata
xdata	SEGMENT
$stateUnwindMap$??0?$_Vector_const_iterator@V?$_Vector_val@U?$_Simple_types@UhookData@@@std@@@std@@@std@@QEAA@$$QEAV01@@Z DB 02H
	DB	0eH
	DD	imagerel ?dtor$0@?0???0?$_Vector_const_iterator@V?$_Vector_val@U?$_Simple_types@UhookData@@@std@@@std@@@std@@QEAA@$$QEAV01@@Z@4HA
xdata	ENDS
;	COMDAT xdata
xdata	SEGMENT
$cppxdata$??0?$_Vector_const_iterator@V?$_Vector_val@U?$_Simple_types@UhookData@@@std@@@std@@@std@@QEAA@$$QEAV01@@Z DB 048H
	DD	imagerel $stateUnwindMap$??0?$_Vector_const_iterator@V?$_Vector_val@U?$_Simple_types@UhookData@@@std@@@std@@@std@@QEAA@$$QEAV01@@Z
	DD	imagerel $ip2state$??0?$_Vector_const_iterator@V?$_Vector_val@U?$_Simple_types@UhookData@@@std@@@std@@@std@@QEAA@$$QEAV01@@Z
xdata	ENDS
;	COMDAT xdata
xdata	SEGMENT
$unwind$??0?$_Vector_const_iterator@V?$_Vector_val@U?$_Simple_types@UhookData@@@std@@@std@@@std@@QEAA@$$QEAV01@@Z DD 022311H
	DD	0700b320fH
	DD	imagerel __CxxFrameHandler4
	DD	imagerel $cppxdata$??0?$_Vector_const_iterator@V?$_Vector_val@U?$_Simple_types@UhookData@@@std@@@std@@@std@@QEAA@$$QEAV01@@Z
xdata	ENDS
;	COMDAT xdata
xdata	SEGMENT
$unwind$?dtor$0@?0???0?$_Vector_const_iterator@V?$_Vector_val@U?$_Simple_types@UhookData@@@std@@@std@@@std@@QEAA@AEBV01@@Z@4HA DD 031001H
	DD	0700c4210H
	DD	0500bH
xdata	ENDS
;	COMDAT xdata
xdata	SEGMENT
$ip2state$??0?$_Vector_const_iterator@V?$_Vector_val@U?$_Simple_types@UhookData@@@std@@@std@@@std@@QEAA@AEBV01@@Z DB 06H
	DB	00H
	DB	00H
	DB	'f'
	DB	02H
	DB	'$'
	DB	00H
xdata	ENDS
;	COMDAT xdata
xdata	SEGMENT
$stateUnwindMap$??0?$_Vector_const_iterator@V?$_Vector_val@U?$_Simple_types@UhookData@@@std@@@std@@@std@@QEAA@AEBV01@@Z DB 02H
	DB	0eH
	DD	imagerel ?dtor$0@?0???0?$_Vector_const_iterator@V?$_Vector_val@U?$_Simple_types@UhookData@@@std@@@std@@@std@@QEAA@AEBV01@@Z@4HA
xdata	ENDS
;	COMDAT xdata
xdata	SEGMENT
$cppxdata$??0?$_Vector_const_iterator@V?$_Vector_val@U?$_Simple_types@UhookData@@@std@@@std@@@std@@QEAA@AEBV01@@Z DB 048H
	DD	imagerel $stateUnwindMap$??0?$_Vector_const_iterator@V?$_Vector_val@U?$_Simple_types@UhookData@@@std@@@std@@@std@@QEAA@AEBV01@@Z
	DD	imagerel $ip2state$??0?$_Vector_const_iterator@V?$_Vector_val@U?$_Simple_types@UhookData@@@std@@@std@@@std@@QEAA@AEBV01@@Z
xdata	ENDS
;	COMDAT xdata
xdata	SEGMENT
$unwind$??0?$_Vector_const_iterator@V?$_Vector_val@U?$_Simple_types@UhookData@@@std@@@std@@@std@@QEAA@AEBV01@@Z DD 022311H
	DD	0700b320fH
	DD	imagerel __CxxFrameHandler4
	DD	imagerel $cppxdata$??0?$_Vector_const_iterator@V?$_Vector_val@U?$_Simple_types@UhookData@@@std@@@std@@@std@@QEAA@AEBV01@@Z
xdata	ENDS
;	COMDAT xdata
xdata	SEGMENT
$unwind$?dtor$0@?0???1?$_Vector_const_iterator@V?$_Vector_val@U?$_Simple_types@UhookData@@@std@@@std@@@std@@QEAA@XZ@4HA DD 031001H
	DD	0700c4210H
	DD	0500bH
xdata	ENDS
;	COMDAT xdata
xdata	SEGMENT
$ip2state$??1?$_Vector_const_iterator@V?$_Vector_val@U?$_Simple_types@UhookData@@@std@@@std@@@std@@QEAA@XZ DB 02H
	DB	00H
	DB	00H
xdata	ENDS
;	COMDAT xdata
xdata	SEGMENT
$stateUnwindMap$??1?$_Vector_const_iterator@V?$_Vector_val@U?$_Simple_types@UhookData@@@std@@@std@@@std@@QEAA@XZ DB 02H
	DB	0eH
	DD	imagerel ?dtor$0@?0???1?$_Vector_const_iterator@V?$_Vector_val@U?$_Simple_types@UhookData@@@std@@@std@@@std@@QEAA@XZ@4HA
xdata	ENDS
;	COMDAT xdata
xdata	SEGMENT
$cppxdata$??1?$_Vector_const_iterator@V?$_Vector_val@U?$_Simple_types@UhookData@@@std@@@std@@@std@@QEAA@XZ DB 048H
	DD	imagerel $stateUnwindMap$??1?$_Vector_const_iterator@V?$_Vector_val@U?$_Simple_types@UhookData@@@std@@@std@@@std@@QEAA@XZ
	DD	imagerel $ip2state$??1?$_Vector_const_iterator@V?$_Vector_val@U?$_Simple_types@UhookData@@@std@@@std@@@std@@QEAA@XZ
xdata	ENDS
;	COMDAT xdata
xdata	SEGMENT
$unwind$??1?$_Vector_const_iterator@V?$_Vector_val@U?$_Simple_types@UhookData@@@std@@@std@@@std@@QEAA@XZ DD 021e11H
	DD	07006320aH
	DD	imagerel __CxxFrameHandler4
	DD	imagerel $cppxdata$??1?$_Vector_const_iterator@V?$_Vector_val@U?$_Simple_types@UhookData@@@std@@@std@@@std@@QEAA@XZ
xdata	ENDS
;	COMDAT xdata
xdata	SEGMENT
$unwind$?_Seek_to@?$_Vector_const_iterator@V?$_Vector_val@U?$_Simple_types@UhookData@@@std@@@std@@@std@@QEAAXPEBUhookData@@@Z DD 022301H
	DD	0700b320fH
xdata	ENDS
;	COMDAT xdata
xdata	SEGMENT
$unwind$?_Verify_range@std@@YAXAEBV?$_Vector_const_iterator@V?$_Vector_val@U?$_Simple_types@UhookData@@@std@@@std@@@1@0@Z DD 022301H
	DD	0700b720fH
xdata	ENDS
;	COMDAT xdata
xdata	SEGMENT
$unwind$?_Compat@?$_Vector_const_iterator@V?$_Vector_val@U?$_Simple_types@UhookData@@@std@@@std@@@std@@QEBAXAEBV12@@Z DD 022301H
	DD	0700b720fH
xdata	ENDS
;	COMDAT xdata
xdata	SEGMENT
$unwind$??9?$_Vector_const_iterator@V?$_Vector_val@U?$_Simple_types@UhookData@@@std@@@std@@@std@@QEBA_NAEBV01@@Z DD 022301H
	DD	0700b520fH
xdata	ENDS
;	COMDAT xdata
xdata	SEGMENT
$unwind$??8?$_Vector_const_iterator@V?$_Vector_val@U?$_Simple_types@UhookData@@@std@@@std@@@std@@QEBA_NAEBV01@@Z DD 022301H
	DD	0700b520fH
xdata	ENDS
;	COMDAT xdata
xdata	SEGMENT
$unwind$??C?$_Vector_const_iterator@V?$_Vector_val@U?$_Simple_types@UhookData@@@std@@@std@@@std@@QEBAPEBUhookData@@XZ DD 021e01H
	DD	07006720aH
xdata	ENDS
;	COMDAT xdata
xdata	SEGMENT
$unwind$?dtor$0@?0???0?$_Vector_const_iterator@V?$_Vector_val@U?$_Simple_types@UhookData@@@std@@@std@@@std@@QEAA@PEAUhookData@@PEBU_Container_base12@1@@Z@4HA DD 031001H
	DD	0700c4210H
	DD	0500bH
xdata	ENDS
;	COMDAT xdata
xdata	SEGMENT
$ip2state$??0?$_Vector_const_iterator@V?$_Vector_val@U?$_Simple_types@UhookData@@@std@@@std@@@std@@QEAA@PEAUhookData@@PEBU_Container_base12@1@@Z DB 06H
	DB	00H
	DB	00H
	DB	'f'
	DB	02H
	DB	'<'
	DB	00H
xdata	ENDS
;	COMDAT xdata
xdata	SEGMENT
$stateUnwindMap$??0?$_Vector_const_iterator@V?$_Vector_val@U?$_Simple_types@UhookData@@@std@@@std@@@std@@QEAA@PEAUhookData@@PEBU_Container_base12@1@@Z DB 02H
	DB	0eH
	DD	imagerel ?dtor$0@?0???0?$_Vector_const_iterator@V?$_Vector_val@U?$_Simple_types@UhookData@@@std@@@std@@@std@@QEAA@PEAUhookData@@PEBU_Container_base12@1@@Z@4HA
xdata	ENDS
;	COMDAT xdata
xdata	SEGMENT
$cppxdata$??0?$_Vector_const_iterator@V?$_Vector_val@U?$_Simple_types@UhookData@@@std@@@std@@@std@@QEAA@PEAUhookData@@PEBU_Container_base12@1@@Z DB 08H
	DD	imagerel $stateUnwindMap$??0?$_Vector_const_iterator@V?$_Vector_val@U?$_Simple_types@UhookData@@@std@@@std@@@std@@QEAA@PEAUhookData@@PEBU_Container_base12@1@@Z
	DD	imagerel $ip2state$??0?$_Vector_const_iterator@V?$_Vector_val@U?$_Simple_types@UhookData@@@std@@@std@@@std@@QEAA@PEAUhookData@@PEBU_Container_base12@1@@Z
xdata	ENDS
;	COMDAT xdata
xdata	SEGMENT
$unwind$??0?$_Vector_const_iterator@V?$_Vector_val@U?$_Simple_types@UhookData@@@std@@@std@@@std@@QEAA@PEAUhookData@@PEBU_Container_base12@1@@Z DD 022811H
	DD	070103214H
	DD	imagerel __CxxFrameHandler4
	DD	imagerel $cppxdata$??0?$_Vector_const_iterator@V?$_Vector_val@U?$_Simple_types@UhookData@@@std@@@std@@@std@@QEAA@PEAUhookData@@PEBU_Container_base12@1@@Z
xdata	ENDS
;	COMDAT xdata
xdata	SEGMENT
$unwind$?_Get_first@?$_Compressed_pair@V?$allocator@UhookData@@@std@@V?$_Vector_val@U?$_Simple_types@UhookData@@@std@@@2@$00@std@@QEBAAEBV?$allocator@UhookData@@@2@XZ DD 010601H
	DD	07006H
xdata	ENDS
;	COMDAT xdata
xdata	SEGMENT
$unwind$?_Get_first@?$_Compressed_pair@V?$allocator@UhookData@@@std@@V?$_Vector_val@U?$_Simple_types@UhookData@@@std@@@2@$00@std@@QEAAAEAV?$allocator@UhookData@@@2@XZ DD 010601H
	DD	07006H
xdata	ENDS
;	COMDAT xdata
xdata	SEGMENT
$unwind$??0?$_Vector_val@U?$_Simple_types@UhookData@@@std@@@std@@QEAA@XZ DD 021e01H
	DD	07006320aH
xdata	ENDS
;	COMDAT xdata
xdata	SEGMENT
$unwind$?_Getal@?$vector@UhookData@@V?$allocator@UhookData@@@std@@@std@@AEBAAEBV?$allocator@UhookData@@@2@XZ DD 021e01H
	DD	07006320aH
xdata	ENDS
;	COMDAT xdata
xdata	SEGMENT
$unwind$?_Getal@?$vector@UhookData@@V?$allocator@UhookData@@@std@@@std@@AEAAAEAV?$allocator@UhookData@@@2@XZ DD 021e01H
	DD	07006320aH
xdata	ENDS
;	COMDAT xdata
xdata	SEGMENT
$unwind$?dtor$0@?0??_Orphan_range@?$vector@UhookData@@V?$allocator@UhookData@@@std@@@std@@AEBAXPEAUhookData@@0@Z@4HA DD 031001H
	DD	0700c4210H
	DD	0500bH
xdata	ENDS
;	COMDAT xdata
xdata	SEGMENT
$ip2state$?_Orphan_range@?$vector@UhookData@@V?$allocator@UhookData@@@std@@@std@@AEBAXPEAUhookData@@0@Z DB 06H
	DB	00H
	DB	00H
	DB	'r'
	DB	02H
	DB	0faH
	DB	00H
xdata	ENDS
;	COMDAT xdata
xdata	SEGMENT
$stateUnwindMap$?_Orphan_range@?$vector@UhookData@@V?$allocator@UhookData@@@std@@@std@@AEBAXPEAUhookData@@0@Z DB 02H
	DB	0eH
	DD	imagerel ?dtor$0@?0??_Orphan_range@?$vector@UhookData@@V?$allocator@UhookData@@@std@@@std@@AEBAXPEAUhookData@@0@Z@4HA
xdata	ENDS
;	COMDAT xdata
xdata	SEGMENT
$cppxdata$?_Orphan_range@?$vector@UhookData@@V?$allocator@UhookData@@@std@@@std@@AEBAXPEAUhookData@@0@Z DB 08H
	DD	imagerel $stateUnwindMap$?_Orphan_range@?$vector@UhookData@@V?$allocator@UhookData@@@std@@@std@@AEBAXPEAUhookData@@0@Z
	DD	imagerel $ip2state$?_Orphan_range@?$vector@UhookData@@V?$allocator@UhookData@@@std@@@std@@AEBAXPEAUhookData@@0@Z
xdata	ENDS
;	COMDAT xdata
xdata	SEGMENT
$unwind$?_Orphan_range@?$vector@UhookData@@V?$allocator@UhookData@@@std@@@std@@AEBAXPEAUhookData@@0@Z DD 022811H
	DD	070109214H
	DD	imagerel __CxxFrameHandler4
	DD	imagerel $cppxdata$?_Orphan_range@?$vector@UhookData@@V?$allocator@UhookData@@@std@@@std@@AEBAXPEAUhookData@@0@Z
xdata	ENDS
;	COMDAT CONST
CONST	SEGMENT
?_Orphan_range@?$vector@UhookData@@V?$allocator@UhookData@@@std@@@std@@AEBAXPEAUhookData@@0@Z$rtcName$0 DB 05fH ; std::vector<hookData,std::allocator<hookData> >::_Orphan_range
	DB	04cH
	DB	06fH
	DB	063H
	DB	06bH
	DB	00H
	ORG $+10
?_Orphan_range@?$vector@UhookData@@V?$allocator@UhookData@@@std@@@std@@AEBAXPEAUhookData@@0@Z$rtcVarDesc DD 024H ; std::vector<hookData,std::allocator<hookData> >::_Orphan_range
	DD	04H
	DQ	FLAT:?_Orphan_range@?$vector@UhookData@@V?$allocator@UhookData@@@std@@@std@@AEBAXPEAUhookData@@0@Z$rtcName$0
	ORG $+48
?_Orphan_range@?$vector@UhookData@@V?$allocator@UhookData@@@std@@@std@@AEBAXPEAUhookData@@0@Z$rtcFrameData DD 01H ; std::vector<hookData,std::allocator<hookData> >::_Orphan_range
	DD	00H
	DQ	FLAT:?_Orphan_range@?$vector@UhookData@@V?$allocator@UhookData@@@std@@@std@@AEBAXPEAUhookData@@0@Z$rtcVarDesc
CONST	ENDS
;	COMDAT xdata
xdata	SEGMENT
$unwind$?_Xlength@?$vector@UhookData@@V?$allocator@UhookData@@@std@@@std@@CAXXZ DD 021501H
	DD	070023206H
xdata	ENDS
;	COMDAT xdata
xdata	SEGMENT
$ip2state$?_Tidy@?$vector@UhookData@@V?$allocator@UhookData@@@std@@@std@@AEAAXXZ DB 02H
	DB	00H
	DB	00H
xdata	ENDS
;	COMDAT xdata
xdata	SEGMENT
$cppxdata$?_Tidy@?$vector@UhookData@@V?$allocator@UhookData@@@std@@@std@@AEAAXXZ DB 040H
	DD	imagerel $ip2state$?_Tidy@?$vector@UhookData@@V?$allocator@UhookData@@@std@@@std@@AEAAXXZ
xdata	ENDS
;	COMDAT xdata
xdata	SEGMENT
$unwind$?_Tidy@?$vector@UhookData@@V?$allocator@UhookData@@@std@@@std@@AEAAXXZ DD 021e19H
	DD	07006920aH
	DD	imagerel __CxxFrameHandler4
	DD	imagerel $cppxdata$?_Tidy@?$vector@UhookData@@V?$allocator@UhookData@@@std@@@std@@AEAAXXZ
xdata	ENDS
;	COMDAT xdata
xdata	SEGMENT
$unwind$?_Change_array@?$vector@UhookData@@V?$allocator@UhookData@@@std@@@std@@AEAAXQEAUhookData@@_K1@Z DD 022d01H
	DD	070159219H
xdata	ENDS
;	COMDAT xdata
xdata	SEGMENT
$unwind$?_Calculate_growth@?$vector@UhookData@@V?$allocator@UhookData@@@std@@@std@@AEBA_K_K@Z DD 022301H
	DD	0700b720fH
xdata	ENDS
;	COMDAT xdata
xdata	SEGMENT
$unwind$?_Destroy@?$vector@UhookData@@V?$allocator@UhookData@@@std@@@std@@AEAAXPEAUhookData@@0@Z DD 022801H
	DD	070103214H
xdata	ENDS
;	COMDAT xdata
xdata	SEGMENT
$unwind$?_Umove_if_noexcept@?$vector@UhookData@@V?$allocator@UhookData@@@std@@@std@@AEAAXPEAUhookData@@00@Z DD 022d01H
	DD	070157219H
xdata	ENDS
;	COMDAT xdata
xdata	SEGMENT
$unwind$?_Umove_if_noexcept1@?$vector@UhookData@@V?$allocator@UhookData@@@std@@@std@@AEAAXPEAUhookData@@00U?$integral_constant@_N$00@2@@Z DD 022d01H
	DD	070153219H
xdata	ENDS
;	COMDAT xdata
xdata	SEGMENT
$unwind$?_Umove@?$vector@UhookData@@V?$allocator@UhookData@@@std@@@std@@AEAAPEAUhookData@@PEAU3@00@Z DD 022d01H
	DD	070153219H
xdata	ENDS
;	COMDAT xdata
xdata	SEGMENT
$unwind$?capacity@?$vector@UhookData@@V?$allocator@UhookData@@@std@@@std@@QEBA_KXZ DD 021e01H
	DD	07006120aH
xdata	ENDS
;	COMDAT xdata
xdata	SEGMENT
$unwind$?max_size@?$vector@UhookData@@V?$allocator@UhookData@@@std@@@std@@QEBA_KXZ DD 021e01H
	DD	07006520aH
xdata	ENDS
;	COMDAT xdata
xdata	SEGMENT
$unwind$?_Unchecked_end@?$vector@UhookData@@V?$allocator@UhookData@@@std@@@std@@QEAAPEAUhookData@@XZ DD 010601H
	DD	07006H
xdata	ENDS
;	COMDAT xdata
xdata	SEGMENT
$unwind$?_Unchecked_begin@?$vector@UhookData@@V?$allocator@UhookData@@@std@@@std@@QEAAPEAUhookData@@XZ DD 010601H
	DD	07006H
xdata	ENDS
;	COMDAT xdata
xdata	SEGMENT
$unwind$?dtor$0@?0??end@?$vector@UhookData@@V?$allocator@UhookData@@@std@@@std@@QEAA?AV?$_Vector_iterator@V?$_Vector_val@U?$_Simple_types@UhookData@@@std@@@std@@@2@XZ@4HA DD 031001H
	DD	0700c4210H
	DD	0500bH
xdata	ENDS
;	COMDAT xdata
xdata	SEGMENT
$ip2state$?end@?$vector@UhookData@@V?$allocator@UhookData@@@std@@@std@@QEAA?AV?$_Vector_iterator@V?$_Vector_val@U?$_Simple_types@UhookData@@@std@@@std@@@2@XZ DB 04H
	DB	00H
	DB	00H
	DB	0aeH
	DB	02H
xdata	ENDS
;	COMDAT xdata
xdata	SEGMENT
$stateUnwindMap$?end@?$vector@UhookData@@V?$allocator@UhookData@@@std@@@std@@QEAA?AV?$_Vector_iterator@V?$_Vector_val@U?$_Simple_types@UhookData@@@std@@@std@@@2@XZ DB 02H
	DB	0eH
	DD	imagerel ?dtor$0@?0??end@?$vector@UhookData@@V?$allocator@UhookData@@@std@@@std@@QEAA?AV?$_Vector_iterator@V?$_Vector_val@U?$_Simple_types@UhookData@@@std@@@std@@@2@XZ@4HA
xdata	ENDS
;	COMDAT xdata
xdata	SEGMENT
$cppxdata$?end@?$vector@UhookData@@V?$allocator@UhookData@@@std@@@std@@QEAA?AV?$_Vector_iterator@V?$_Vector_val@U?$_Simple_types@UhookData@@@std@@@std@@@2@XZ DB 048H
	DD	imagerel $stateUnwindMap$?end@?$vector@UhookData@@V?$allocator@UhookData@@@std@@@std@@QEAA?AV?$_Vector_iterator@V?$_Vector_val@U?$_Simple_types@UhookData@@@std@@@std@@@2@XZ
	DD	imagerel $ip2state$?end@?$vector@UhookData@@V?$allocator@UhookData@@@std@@@std@@QEAA?AV?$_Vector_iterator@V?$_Vector_val@U?$_Simple_types@UhookData@@@std@@@std@@@2@XZ
xdata	ENDS
;	COMDAT xdata
xdata	SEGMENT
$unwind$?end@?$vector@UhookData@@V?$allocator@UhookData@@@std@@@std@@QEAA?AV?$_Vector_iterator@V?$_Vector_val@U?$_Simple_types@UhookData@@@std@@@std@@@2@XZ DD 022319H
	DD	0700b520fH
	DD	imagerel __CxxFrameHandler4
	DD	imagerel $cppxdata$?end@?$vector@UhookData@@V?$allocator@UhookData@@@std@@@std@@QEAA?AV?$_Vector_iterator@V?$_Vector_val@U?$_Simple_types@UhookData@@@std@@@std@@@2@XZ
xdata	ENDS
;	COMDAT xdata
xdata	SEGMENT
$unwind$?dtor$0@?0??begin@?$vector@UhookData@@V?$allocator@UhookData@@@std@@@std@@QEAA?AV?$_Vector_iterator@V?$_Vector_val@U?$_Simple_types@UhookData@@@std@@@std@@@2@XZ@4HA DD 031001H
	DD	0700c4210H
	DD	0500bH
xdata	ENDS
;	COMDAT xdata
xdata	SEGMENT
$ip2state$?begin@?$vector@UhookData@@V?$allocator@UhookData@@@std@@@std@@QEAA?AV?$_Vector_iterator@V?$_Vector_val@U?$_Simple_types@UhookData@@@std@@@std@@@2@XZ DB 04H
	DB	00H
	DB	00H
	DB	0aeH
	DB	02H
xdata	ENDS
;	COMDAT xdata
xdata	SEGMENT
$stateUnwindMap$?begin@?$vector@UhookData@@V?$allocator@UhookData@@@std@@@std@@QEAA?AV?$_Vector_iterator@V?$_Vector_val@U?$_Simple_types@UhookData@@@std@@@std@@@2@XZ DB 02H
	DB	0eH
	DD	imagerel ?dtor$0@?0??begin@?$vector@UhookData@@V?$allocator@UhookData@@@std@@@std@@QEAA?AV?$_Vector_iterator@V?$_Vector_val@U?$_Simple_types@UhookData@@@std@@@std@@@2@XZ@4HA
xdata	ENDS
;	COMDAT xdata
xdata	SEGMENT
$cppxdata$?begin@?$vector@UhookData@@V?$allocator@UhookData@@@std@@@std@@QEAA?AV?$_Vector_iterator@V?$_Vector_val@U?$_Simple_types@UhookData@@@std@@@std@@@2@XZ DB 048H
	DD	imagerel $stateUnwindMap$?begin@?$vector@UhookData@@V?$allocator@UhookData@@@std@@@std@@QEAA?AV?$_Vector_iterator@V?$_Vector_val@U?$_Simple_types@UhookData@@@std@@@std@@@2@XZ
	DD	imagerel $ip2state$?begin@?$vector@UhookData@@V?$allocator@UhookData@@@std@@@std@@QEAA?AV?$_Vector_iterator@V?$_Vector_val@U?$_Simple_types@UhookData@@@std@@@std@@@2@XZ
xdata	ENDS
;	COMDAT xdata
xdata	SEGMENT
$unwind$?begin@?$vector@UhookData@@V?$allocator@UhookData@@@std@@@std@@QEAA?AV?$_Vector_iterator@V?$_Vector_val@U?$_Simple_types@UhookData@@@std@@@std@@@2@XZ DD 022319H
	DD	0700b520fH
	DD	imagerel __CxxFrameHandler4
	DD	imagerel $cppxdata$?begin@?$vector@UhookData@@V?$allocator@UhookData@@@std@@@std@@QEAA?AV?$_Vector_iterator@V?$_Vector_val@U?$_Simple_types@UhookData@@@std@@@std@@@2@XZ
xdata	ENDS
;	COMDAT xdata
xdata	SEGMENT
$ip2state$?clear@?$vector@UhookData@@V?$allocator@UhookData@@@std@@@std@@QEAAXXZ DB 02H
	DB	00H
	DB	00H
xdata	ENDS
;	COMDAT xdata
xdata	SEGMENT
$cppxdata$?clear@?$vector@UhookData@@V?$allocator@UhookData@@@std@@@std@@QEAAXXZ DB 040H
	DD	imagerel $ip2state$?clear@?$vector@UhookData@@V?$allocator@UhookData@@@std@@@std@@QEAAXXZ
xdata	ENDS
;	COMDAT xdata
xdata	SEGMENT
$unwind$?clear@?$vector@UhookData@@V?$allocator@UhookData@@@std@@@std@@QEAAXXZ DD 021e19H
	DD	07006720aH
	DD	imagerel __CxxFrameHandler4
	DD	imagerel $cppxdata$?clear@?$vector@UhookData@@V?$allocator@UhookData@@@std@@@std@@QEAAXXZ
xdata	ENDS
;	COMDAT xdata
xdata	SEGMENT
$unwind$?dtor$1@?0??erase@?$vector@UhookData@@V?$allocator@UhookData@@@std@@@std@@QEAA?AV?$_Vector_iterator@V?$_Vector_val@U?$_Simple_types@UhookData@@@std@@@std@@@2@V?$_Vector_const_iterator@V?$_Vector_val@U?$_Simple_types@UhookData@@@std@@@std@@@2@@Z@4HA DD 031001H
	DD	0700c4210H
	DD	0500bH
xdata	ENDS
;	COMDAT xdata
xdata	SEGMENT
$unwind$?dtor$0@?0??erase@?$vector@UhookData@@V?$allocator@UhookData@@@std@@@std@@QEAA?AV?$_Vector_iterator@V?$_Vector_val@U?$_Simple_types@UhookData@@@std@@@std@@@2@V?$_Vector_const_iterator@V?$_Vector_val@U?$_Simple_types@UhookData@@@std@@@std@@@2@@Z@4HA DD 031001H
	DD	0700c4210H
	DD	0500bH
xdata	ENDS
;	COMDAT xdata
xdata	SEGMENT
$ip2state$?erase@?$vector@UhookData@@V?$allocator@UhookData@@@std@@@std@@QEAA?AV?$_Vector_iterator@V?$_Vector_val@U?$_Simple_types@UhookData@@@std@@@std@@@2@V?$_Vector_const_iterator@V?$_Vector_val@U?$_Simple_types@UhookData@@@std@@@std@@@2@@Z DB 06H
	DB	00H
	DB	00H
	DB	'`'
	DB	04H
	DB	'!', 06H
	DB	02H
xdata	ENDS
;	COMDAT xdata
xdata	SEGMENT
$stateUnwindMap$?erase@?$vector@UhookData@@V?$allocator@UhookData@@@std@@@std@@QEAA?AV?$_Vector_iterator@V?$_Vector_val@U?$_Simple_types@UhookData@@@std@@@std@@@2@V?$_Vector_const_iterator@V?$_Vector_val@U?$_Simple_types@UhookData@@@std@@@std@@@2@@Z DB 04H
	DB	0eH
	DD	imagerel ?dtor$1@?0??erase@?$vector@UhookData@@V?$allocator@UhookData@@@std@@@std@@QEAA?AV?$_Vector_iterator@V?$_Vector_val@U?$_Simple_types@UhookData@@@std@@@std@@@2@V?$_Vector_const_iterator@V?$_Vector_val@U?$_Simple_types@UhookData@@@std@@@std@@@2@@Z@4HA
	DB	02eH
	DD	imagerel ?dtor$0@?0??erase@?$vector@UhookData@@V?$allocator@UhookData@@@std@@@std@@QEAA?AV?$_Vector_iterator@V?$_Vector_val@U?$_Simple_types@UhookData@@@std@@@std@@@2@V?$_Vector_const_iterator@V?$_Vector_val@U?$_Simple_types@UhookData@@@std@@@std@@@2@@Z@4HA
xdata	ENDS
;	COMDAT xdata
xdata	SEGMENT
$cppxdata$?erase@?$vector@UhookData@@V?$allocator@UhookData@@@std@@@std@@QEAA?AV?$_Vector_iterator@V?$_Vector_val@U?$_Simple_types@UhookData@@@std@@@std@@@2@V?$_Vector_const_iterator@V?$_Vector_val@U?$_Simple_types@UhookData@@@std@@@std@@@2@@Z DB 08H
	DD	imagerel $stateUnwindMap$?erase@?$vector@UhookData@@V?$allocator@UhookData@@@std@@@std@@QEAA?AV?$_Vector_iterator@V?$_Vector_val@U?$_Simple_types@UhookData@@@std@@@std@@@2@V?$_Vector_const_iterator@V?$_Vector_val@U?$_Simple_types@UhookData@@@std@@@std@@@2@@Z
	DD	imagerel $ip2state$?erase@?$vector@UhookData@@V?$allocator@UhookData@@@std@@@std@@QEAA?AV?$_Vector_iterator@V?$_Vector_val@U?$_Simple_types@UhookData@@@std@@@std@@@2@V?$_Vector_const_iterator@V?$_Vector_val@U?$_Simple_types@UhookData@@@std@@@std@@@2@@Z
xdata	ENDS
;	COMDAT xdata
xdata	SEGMENT
$unwind$?erase@?$vector@UhookData@@V?$allocator@UhookData@@@std@@@std@@QEAA?AV?$_Vector_iterator@V?$_Vector_val@U?$_Simple_types@UhookData@@@std@@@std@@@2@V?$_Vector_const_iterator@V?$_Vector_val@U?$_Simple_types@UhookData@@@std@@@std@@@2@@Z DD 022811H
	DD	07010b214H
	DD	imagerel __CxxFrameHandler4
	DD	imagerel $cppxdata$?erase@?$vector@UhookData@@V?$allocator@UhookData@@@std@@@std@@QEAA?AV?$_Vector_iterator@V?$_Vector_val@U?$_Simple_types@UhookData@@@std@@@std@@@2@V?$_Vector_const_iterator@V?$_Vector_val@U?$_Simple_types@UhookData@@@std@@@std@@@2@@Z
xdata	ENDS
;	COMDAT xdata
xdata	SEGMENT
$unwind$?push_back@?$vector@UhookData@@V?$allocator@UhookData@@@std@@@std@@QEAAXAEBUhookData@@@Z DD 022301H
	DD	0700b320fH
xdata	ENDS
;	COMDAT xdata
xdata	SEGMENT
$ip2state$??1?$vector@UhookData@@V?$allocator@UhookData@@@std@@@std@@QEAA@XZ DB 02H
	DB	00H
	DB	00H
xdata	ENDS
;	COMDAT xdata
xdata	SEGMENT
$cppxdata$??1?$vector@UhookData@@V?$allocator@UhookData@@@std@@@std@@QEAA@XZ DB 040H
	DD	imagerel $ip2state$??1?$vector@UhookData@@V?$allocator@UhookData@@@std@@@std@@QEAA@XZ
xdata	ENDS
;	COMDAT xdata
xdata	SEGMENT
$unwind$??1?$vector@UhookData@@V?$allocator@UhookData@@@std@@@std@@QEAA@XZ DD 021e19H
	DD	07006920aH
	DD	imagerel __CxxFrameHandler4
	DD	imagerel $cppxdata$??1?$vector@UhookData@@V?$allocator@UhookData@@@std@@@std@@QEAA@XZ
xdata	ENDS
;	COMDAT CONST
CONST	SEGMENT
??1?$vector@UhookData@@V?$allocator@UhookData@@@std@@@std@@QEAA@XZ$rtcName$0 DB 024H ; std::vector<hookData,std::allocator<hookData> >::~vector<hookData,std::allocator<hookData> >
	DB	053H
	DB	031H
	DB	00H
	ORG $+12
??1?$vector@UhookData@@V?$allocator@UhookData@@@std@@@std@@QEAA@XZ$rtcVarDesc DD 034H ; std::vector<hookData,std::allocator<hookData> >::~vector<hookData,std::allocator<hookData> >
	DD	01H
	DQ	FLAT:??1?$vector@UhookData@@V?$allocator@UhookData@@@std@@@std@@QEAA@XZ$rtcName$0
	ORG $+48
??1?$vector@UhookData@@V?$allocator@UhookData@@@std@@@std@@QEAA@XZ$rtcFrameData DD 01H ; std::vector<hookData,std::allocator<hookData> >::~vector<hookData,std::allocator<hookData> >
	DD	00H
	DQ	FLAT:??1?$vector@UhookData@@V?$allocator@UhookData@@@std@@@std@@QEAA@XZ$rtcVarDesc
CONST	ENDS
;	COMDAT xdata
xdata	SEGMENT
$ip2state$??0?$vector@UhookData@@V?$allocator@UhookData@@@std@@@std@@QEAA@XZ DB 02H
	DB	00H
	DB	00H
xdata	ENDS
;	COMDAT xdata
xdata	SEGMENT
$cppxdata$??0?$vector@UhookData@@V?$allocator@UhookData@@@std@@@std@@QEAA@XZ DB 040H
	DD	imagerel $ip2state$??0?$vector@UhookData@@V?$allocator@UhookData@@@std@@@std@@QEAA@XZ
xdata	ENDS
;	COMDAT xdata
xdata	SEGMENT
$unwind$??0?$vector@UhookData@@V?$allocator@UhookData@@@std@@@std@@QEAA@XZ DD 021e19H
	DD	07006520aH
	DD	imagerel __CxxFrameHandler4
	DD	imagerel $cppxdata$??0?$vector@UhookData@@V?$allocator@UhookData@@@std@@@std@@QEAA@XZ
xdata	ENDS
;	COMDAT xdata
xdata	SEGMENT
$unwind$?max_size@?$_Default_allocator_traits@V?$allocator@UhookData@@@std@@@std@@SA_KAEBV?$allocator@UhookData@@@2@@Z DD 010601H
	DD	07006H
xdata	ENDS
;	COMDAT xdata
xdata	SEGMENT
$unwind$?allocate@?$allocator@UhookData@@@std@@QEAAPEAUhookData@@_K@Z DD 022301H
	DD	0700b320fH
xdata	ENDS
;	COMDAT xdata
xdata	SEGMENT
$unwind$?deallocate@?$allocator@UhookData@@@std@@QEAAXQEAUhookData@@_K@Z DD 022801H
	DD	070103214H
xdata	ENDS
;	COMDAT xdata
xdata	SEGMENT
$unwind$??0?$allocator@UhookData@@@std@@QEAA@XZ DD 010601H
	DD	07006H
xdata	ENDS
CONST	SEGMENT
	ORG $+2
?hook@apihook@@QEAAHPEBD0PEAXPEAPEAX@Z$rtcName$0 DB 068H ; apihook::hook
	DB	06fH
	DB	06fH
	DB	06bH
	DB	00H
	ORG $+3
?hook@apihook@@QEAAHPEBD0PEAXPEAPEAX@Z$rtcVarDesc DD 030H ; apihook::hook
	DD	068H
	DQ	FLAT:?hook@apihook@@QEAAHPEBD0PEAXPEAPEAX@Z$rtcName$0
	ORG $+48
?hook@apihook@@QEAAHPEBD0PEAXPEAPEAX@Z$rtcFrameData DD 01H ; apihook::hook
	DD	00H
	DQ	FLAT:?hook@apihook@@QEAAHPEBD0PEAXPEAPEAX@Z$rtcVarDesc
?fin@apihook@@QEAAXPEBD0@Z$rtcName$0 DB 068H		; apihook::fin
	DB	06fH
	DB	06fH
	DB	06bH
	DB	00H
	ORG $+3
?fin@apihook@@QEAAXPEBD0@Z$rtcFrameData DD 01H		; apihook::fin
	DD	00H
	DQ	FLAT:?fin@apihook@@QEAAXPEBD0@Z$rtcVarDesc
?fin@apihook@@QEAAXPEAX@Z$rtcName$0 DB 068H		; apihook::fin
	DB	06fH
	DB	06fH
	DB	06bH
	DB	00H
	ORG $+3
?fin@apihook@@QEAAXPEBD0@Z$rtcVarDesc DD 028H		; apihook::fin
	DD	018H
	DQ	FLAT:?fin@apihook@@QEAAXPEBD0@Z$rtcName$0
	ORG $+48
?fin@apihook@@QEAAXPEAX@Z$rtcVarDesc DD 028H		; apihook::fin
	DD	018H
	DQ	FLAT:?fin@apihook@@QEAAXPEAX@Z$rtcName$0
	ORG $+48
?fin@apihook@@QEAAXPEAX@Z$rtcFrameData DD 01H		; apihook::fin
	DD	00H
	DQ	FLAT:?fin@apihook@@QEAAXPEAX@Z$rtcVarDesc
?get_orig@apihook@@QEAAPEAXPEBD0@Z$rtcName$0 DB 068H	; apihook::get_orig
	DB	06fH
	DB	06fH
	DB	06bH
	DB	00H
	ORG $+3
?get_orig@apihook@@QEAAPEAXPEBD0@Z$rtcFrameData DD 01H	; apihook::get_orig
	DD	00H
	DQ	FLAT:?get_orig@apihook@@QEAAPEAXPEBD0@Z$rtcVarDesc
?hook_function@apihook@@CAPEAXPEBD0PEAX@Z$rtcName$0 DB 06eH ; apihook::hook_function
	DB	053H
	DB	069H
	DB	07aH
	DB	065H
	DB	00H
	ORG $+2
?get_orig@apihook@@QEAAPEAXPEBD0@Z$rtcVarDesc DD 028H	; apihook::get_orig
	DD	018H
	DQ	FLAT:?get_orig@apihook@@QEAAPEAXPEBD0@Z$rtcName$0
	ORG $+48
?hook_function@apihook@@CAPEAXPEBD0PEAX@Z$rtcName$1 DB 064H ; apihook::hook_function
	DB	077H
	DB	04fH
	DB	06cH
	DB	064H
	DB	050H
	DB	072H
	DB	06fH
	DB	074H
	DB	065H
	DB	063H
	DB	074H
	DB	00H
	ORG $+3
?hook_function@apihook@@CAPEAXPEBD0PEAX@Z$rtcVarDesc DD 084H ; apihook::hook_function
	DD	04H
	DQ	FLAT:?hook_function@apihook@@CAPEAXPEBD0PEAX@Z$rtcName$1
	DD	044H
	DD	04H
	DQ	FLAT:?hook_function@apihook@@CAPEAXPEBD0PEAX@Z$rtcName$0
	ORG $+96
?hook_function@apihook@@CAPEAXPEBD0PEAX@Z$rtcFrameData DD 02H ; apihook::hook_function
	DD	00H
	DQ	FLAT:?hook_function@apihook@@CAPEAXPEBD0PEAX@Z$rtcVarDesc
CONST	ENDS
xdata	SEGMENT
$unwind$??0apihook@@QEAA@XZ DD 021e11H
	DD	07006320aH
	DD	imagerel __CxxFrameHandler4
	DD	imagerel $cppxdata$??0apihook@@QEAA@XZ
$cppxdata$??0apihook@@QEAA@XZ DB 08H
	DD	imagerel $stateUnwindMap$??0apihook@@QEAA@XZ
	DD	imagerel $ip2state$??0apihook@@QEAA@XZ
$stateUnwindMap$??0apihook@@QEAA@XZ DB 02H
	DB	0eH
	DD	imagerel ?dtor$0@?0???0apihook@@QEAA@XZ@4HA
$ip2state$??0apihook@@QEAA@XZ DB 02H
	DB	00H
	DB	00H
$cppxdata$??1apihook@@QEAA@XZ DB 048H
	DD	imagerel $stateUnwindMap$??1apihook@@QEAA@XZ
	DD	imagerel $ip2state$??1apihook@@QEAA@XZ
$cppxdata$?hook@apihook@@QEAAHPEBD0PEAXPEAPEAX@Z DB 08H
	DD	imagerel $stateUnwindMap$?hook@apihook@@QEAAHPEBD0PEAXPEAPEAX@Z
	DD	imagerel $ip2state$?hook@apihook@@QEAAHPEBD0PEAXPEAPEAX@Z
$unwind$?dtor$0@?0???0apihook@@QEAA@XZ@4HA DD 031001H
	DD	0700c4210H
	DD	0500bH
$unwind$??1apihook@@QEAA@XZ DD 021e19H
	DD	07006320aH
	DD	imagerel __CxxFrameHandler4
	DD	imagerel $cppxdata$??1apihook@@QEAA@XZ
$stateUnwindMap$??1apihook@@QEAA@XZ DB 02H
	DB	0eH
	DD	imagerel ?dtor$0@?0???1apihook@@QEAA@XZ@4HA
$ip2state$??1apihook@@QEAA@XZ DB 06H
	DB	00H
	DB	00H
	DB	'<'
	DB	02H
	DB	016H
	DB	00H
$stateUnwindMap$?hook@apihook@@QEAAHPEBD0PEAXPEAPEAX@Z DB 02H
	DB	0eH
	DD	imagerel ?dtor$0@?0??hook@apihook@@QEAAHPEBD0PEAXPEAPEAX@Z@4HA
$cppxdata$?fin@apihook@@QEAAXPEBD0@Z DB 08H
	DD	imagerel $stateUnwindMap$?fin@apihook@@QEAAXPEBD0@Z
	DD	imagerel $ip2state$?fin@apihook@@QEAAXPEBD0@Z
$unwind$?dtor$0@?0???1apihook@@QEAA@XZ@4HA DD 031001H
	DD	0700c4210H
	DD	0500bH
$unwind$?hook@apihook@@QEAAHPEBD0PEAXPEAPEAX@Z DD 034519H
	DD	01a011cH
	DD	07015H
	DD	imagerel __GSHandlerCheck_EH4
	DD	imagerel $cppxdata$?hook@apihook@@QEAAHPEBD0PEAXPEAPEAX@Z
	DD	0c2H
$ip2state$?hook@apihook@@QEAAHPEBD0PEAXPEAPEAX@Z DB 0aH
	DB	00H
	DB	00H
	DB	0a0H
	DB	02H
	DB	'%', 02H
	DB	00H
	DB	'&'
	DB	02H
	DB	09cH
	DB	00H
$unwind$?dtor$0@?0??hook@apihook@@QEAAHPEBD0PEAXPEAPEAX@Z@4HA DD 031001H
	DD	0700c4210H
	DD	0500bH
$unwind$?print_all_func@apihook@@SAXXZ DD 021501H
	DD	070023206H
$unwind$?fin@apihook@@QEAAXXZ DD 021e01H
	DD	07006920aH
$unwind$?fin@apihook@@QEAAXPEBD0@Z DD 042f11H
	DD	02b0118H
	DD	060107011H
	DD	imagerel __CxxFrameHandler4
	DD	imagerel $cppxdata$?fin@apihook@@QEAAXPEBD0@Z
$stateUnwindMap$?fin@apihook@@QEAAXPEBD0@Z DB 0aH
	DB	0eH
	DD	imagerel ?dtor$0@?0??fin@apihook@@QEAAXPEBD0@Z@4HA
	DB	02eH
	DD	imagerel ?dtor$1@?0??fin@apihook@@QEAAXPEBD0@Z@4HA
	DB	05eH
	DD	imagerel ?dtor$2@?0??fin@apihook@@QEAAXPEBD0@Z@4HA
	DB	02eH
	DD	imagerel ?dtor$3@?0??fin@apihook@@QEAAXPEBD0@Z@4HA
	DB	056H
	DD	imagerel ?dtor$4@?0??fin@apihook@@QEAAXPEBD0@Z@4HA
$ip2state$?fin@apihook@@QEAAXPEBD0@Z DB 012H
	DB	00H
	DB	00H
	DB	089H, 02H
	DB	02H
	DB	'`'
	DB	00H
	DB	'F'
	DB	06H
	DB	'`'
	DB	08H
	DB	'2'
	DB	06H
	DB	0cdH, 03H
	DB	0aH
	DB	010H
	DB	06H
	DB	'L'
	DB	00H
$cppxdata$?fin@apihook@@QEAAXPEAX@Z DB 08H
	DD	imagerel $stateUnwindMap$?fin@apihook@@QEAAXPEAX@Z
	DD	imagerel $ip2state$?fin@apihook@@QEAAXPEAX@Z
$unwind$?dtor$0@?0??fin@apihook@@QEAAXPEBD0@Z@4HA DD 031001H
	DD	0700c4210H
	DD	0500bH
$unwind$?dtor$1@?0??fin@apihook@@QEAAXPEBD0@Z@4HA DD 031001H
	DD	0700c4210H
	DD	0500bH
$unwind$?dtor$2@?0??fin@apihook@@QEAAXPEBD0@Z@4HA DD 031001H
	DD	0700c4210H
	DD	0500bH
$unwind$?dtor$3@?0??fin@apihook@@QEAAXPEBD0@Z@4HA DD 031001H
	DD	0700c4210H
	DD	0500bH
$unwind$?dtor$4@?0??fin@apihook@@QEAAXPEBD0@Z@4HA DD 031001H
	DD	0700c4210H
	DD	0500bH
$unwind$?fin@apihook@@QEAAXPEAX@Z DD 032911H
	DD	0280112H
	DD	0700bH
	DD	imagerel __CxxFrameHandler4
	DD	imagerel $cppxdata$?fin@apihook@@QEAAXPEAX@Z
$stateUnwindMap$?fin@apihook@@QEAAXPEAX@Z DB 0aH
	DB	0eH
	DD	imagerel ?dtor$0@?0??fin@apihook@@QEAAXPEAX@Z@4HA
	DB	02eH
	DD	imagerel ?dtor$1@?0??fin@apihook@@QEAAXPEAX@Z@4HA
	DB	05eH
	DD	imagerel ?dtor$2@?0??fin@apihook@@QEAAXPEAX@Z@4HA
	DB	02eH
	DD	imagerel ?dtor$3@?0??fin@apihook@@QEAAXPEAX@Z@4HA
	DB	056H
	DD	imagerel ?dtor$4@?0??fin@apihook@@QEAAXPEAX@Z@4HA
$ip2state$?fin@apihook@@QEAAXPEAX@Z DB 012H
	DB	00H
	DB	00H
	DB	'M', 02H
	DB	02H
	DB	'`'
	DB	00H
	DB	'L'
	DB	06H
	DB	'`'
	DB	08H
	DB	'2'
	DB	06H
	DB	'y', 03H
	DB	0aH
	DB	010H
	DB	06H
	DB	'L'
	DB	00H
$cppxdata$?get_orig@apihook@@QEAAPEAXPEBD0@Z DB 08H
	DD	imagerel $stateUnwindMap$?get_orig@apihook@@QEAAPEAXPEBD0@Z
	DD	imagerel $ip2state$?get_orig@apihook@@QEAAPEAXPEBD0@Z
$unwind$?dtor$0@?0??fin@apihook@@QEAAXPEAX@Z@4HA DD 031001H
	DD	0700c4210H
	DD	0500bH
$unwind$?dtor$1@?0??fin@apihook@@QEAAXPEAX@Z@4HA DD 031001H
	DD	0700c4210H
	DD	0500bH
$unwind$?dtor$2@?0??fin@apihook@@QEAAXPEAX@Z@4HA DD 031001H
	DD	0700c4210H
	DD	0500bH
$unwind$?dtor$3@?0??fin@apihook@@QEAAXPEAX@Z@4HA DD 031001H
	DD	0700c4210H
	DD	0500bH
$unwind$?dtor$4@?0??fin@apihook@@QEAAXPEAX@Z@4HA DD 031001H
	DD	0700c4210H
	DD	0500bH
$unwind$?get_orig@apihook@@QEAAPEAXPEBD0@Z DD 042f11H
	DD	0230118H
	DD	060107011H
	DD	imagerel __CxxFrameHandler4
	DD	imagerel $cppxdata$?get_orig@apihook@@QEAAPEAXPEBD0@Z
$stateUnwindMap$?get_orig@apihook@@QEAAPEAXPEBD0@Z DB 08H
	DB	0eH
	DD	imagerel ?dtor$0@?0??get_orig@apihook@@QEAAPEAXPEBD0@Z@4HA
	DB	02eH
	DD	imagerel ?dtor$1@?0??get_orig@apihook@@QEAAPEAXPEBD0@Z@4HA
	DB	05eH
	DD	imagerel ?dtor$2@?0??get_orig@apihook@@QEAAPEAXPEBD0@Z@4HA
	DB	02eH
	DD	imagerel ?dtor$3@?0??get_orig@apihook@@QEAAPEAXPEBD0@Z@4HA
$ip2state$?get_orig@apihook@@QEAAPEAXPEBD0@Z DB 0eH
	DB	00H
	DB	00H
	DB	089H, 02H
	DB	02H
	DB	'`'
	DB	00H
	DB	'F'
	DB	06H
	DB	'`'
	DB	08H
	DB	09aH
	DB	06H
	DB	01cH
	DB	00H
	ORG $+3
$unwind$?dtor$0@?0??get_orig@apihook@@QEAAPEAXPEBD0@Z@4HA DD 031001H
	DD	0700c4210H
	DD	0500bH
$unwind$?dtor$1@?0??get_orig@apihook@@QEAAPEAXPEBD0@Z@4HA DD 031001H
	DD	0700c4210H
	DD	0500bH
$unwind$?dtor$2@?0??get_orig@apihook@@QEAAPEAXPEBD0@Z@4HA DD 031001H
	DD	0700c4210H
	DD	0500bH
$unwind$?dtor$3@?0??get_orig@apihook@@QEAAPEAXPEBD0@Z@4HA DD 031001H
	DD	0700c4210H
	DD	0500bH
$unwind$?hook_function@apihook@@CAPEAXPEBD0PEAX@Z DD 032e01H
	DD	0160117H
	DD	07010H
xdata	ENDS
;	COMDAT xdata
xdata	SEGMENT
$unwind$??_GhookData@@QEAAPEAXI@Z DD 022201H
	DD	0700a320eH
xdata	ENDS
;	COMDAT xdata
xdata	SEGMENT
$unwind$??4hookData@@QEAAAEAU0@$$QEAU0@@Z DD 022301H
	DD	0700b320fH
xdata	ENDS
;	COMDAT xdata
xdata	SEGMENT
$unwind$?dtor$1@?0???0hookData@@QEAA@$$QEAU0@@Z@4HA DD 031001H
	DD	0700c4210H
	DD	0500bH
xdata	ENDS
;	COMDAT xdata
xdata	SEGMENT
$unwind$?dtor$0@?0???0hookData@@QEAA@$$QEAU0@@Z@4HA DD 031001H
	DD	0700c4210H
	DD	0500bH
xdata	ENDS
;	COMDAT xdata
xdata	SEGMENT
$ip2state$??0hookData@@QEAA@$$QEAU0@@Z DB 08H
	DB	00H
	DB	00H
	DB	'l'
	DB	02H
	DB	'6'
	DB	04H
	DB	'l'
	DB	00H
xdata	ENDS
;	COMDAT xdata
xdata	SEGMENT
$stateUnwindMap$??0hookData@@QEAA@$$QEAU0@@Z DB 04H
	DB	0eH
	DD	imagerel ?dtor$0@?0???0hookData@@QEAA@$$QEAU0@@Z@4HA
	DB	02eH
	DD	imagerel ?dtor$1@?0???0hookData@@QEAA@$$QEAU0@@Z@4HA
xdata	ENDS
;	COMDAT xdata
xdata	SEGMENT
$cppxdata$??0hookData@@QEAA@$$QEAU0@@Z DB 048H
	DD	imagerel $stateUnwindMap$??0hookData@@QEAA@$$QEAU0@@Z
	DD	imagerel $ip2state$??0hookData@@QEAA@$$QEAU0@@Z
xdata	ENDS
;	COMDAT xdata
xdata	SEGMENT
$unwind$??0hookData@@QEAA@$$QEAU0@@Z DD 022311H
	DD	0700b320fH
	DD	imagerel __CxxFrameHandler4
	DD	imagerel $cppxdata$??0hookData@@QEAA@$$QEAU0@@Z
xdata	ENDS
;	COMDAT xdata
xdata	SEGMENT
$unwind$?dtor$1@?0???0hookData@@QEAA@AEBU0@@Z@4HA DD 031001H
	DD	0700c4210H
	DD	0500bH
xdata	ENDS
;	COMDAT xdata
xdata	SEGMENT
$unwind$?dtor$0@?0???0hookData@@QEAA@AEBU0@@Z@4HA DD 031001H
	DD	0700c4210H
	DD	0500bH
xdata	ENDS
;	COMDAT xdata
xdata	SEGMENT
$ip2state$??0hookData@@QEAA@AEBU0@@Z DB 08H
	DB	00H
	DB	00H
	DB	'l'
	DB	02H
	DB	'6'
	DB	04H
	DB	'l'
	DB	00H
xdata	ENDS
;	COMDAT xdata
xdata	SEGMENT
$stateUnwindMap$??0hookData@@QEAA@AEBU0@@Z DB 04H
	DB	0eH
	DD	imagerel ?dtor$0@?0???0hookData@@QEAA@AEBU0@@Z@4HA
	DB	02eH
	DD	imagerel ?dtor$1@?0???0hookData@@QEAA@AEBU0@@Z@4HA
xdata	ENDS
;	COMDAT xdata
xdata	SEGMENT
$cppxdata$??0hookData@@QEAA@AEBU0@@Z DB 08H
	DD	imagerel $stateUnwindMap$??0hookData@@QEAA@AEBU0@@Z
	DD	imagerel $ip2state$??0hookData@@QEAA@AEBU0@@Z
xdata	ENDS
;	COMDAT xdata
xdata	SEGMENT
$unwind$??0hookData@@QEAA@AEBU0@@Z DD 022311H
	DD	0700b320fH
	DD	imagerel __CxxFrameHandler4
	DD	imagerel $cppxdata$??0hookData@@QEAA@AEBU0@@Z
xdata	ENDS
;	COMDAT xdata
xdata	SEGMENT
$unwind$?dtor$1@?0???1hookData@@QEAA@XZ@4HA DD 031001H
	DD	0700c4210H
	DD	0500bH
xdata	ENDS
;	COMDAT xdata
xdata	SEGMENT
$unwind$?dtor$0@?0???1hookData@@QEAA@XZ@4HA DD 031001H
	DD	0700c4210H
	DD	0500bH
xdata	ENDS
;	COMDAT xdata
xdata	SEGMENT
$ip2state$??1hookData@@QEAA@XZ DB 06H
	DB	00H
	DB	00H
	DB	'<'
	DB	02H
	DB	'$'
	DB	00H
xdata	ENDS
;	COMDAT xdata
xdata	SEGMENT
$stateUnwindMap$??1hookData@@QEAA@XZ DB 04H
	DB	0eH
	DD	imagerel ?dtor$0@?0???1hookData@@QEAA@XZ@4HA
	DB	02eH
	DD	imagerel ?dtor$1@?0???1hookData@@QEAA@XZ@4HA
xdata	ENDS
;	COMDAT xdata
xdata	SEGMENT
$cppxdata$??1hookData@@QEAA@XZ DB 048H
	DD	imagerel $stateUnwindMap$??1hookData@@QEAA@XZ
	DD	imagerel $ip2state$??1hookData@@QEAA@XZ
xdata	ENDS
;	COMDAT xdata
xdata	SEGMENT
$unwind$??1hookData@@QEAA@XZ DD 021e11H
	DD	07006320aH
	DD	imagerel __CxxFrameHandler4
