; Listing generated by Microsoft (R) Optimizing Compiler Version 19.23.28106.4 

include listing.inc

INCLUDELIB MSVCRTD
INCLUDELIB OLDNAMES

CONST	SEGMENT
$SG27266 DB	'Invalid', 00H
$SG27267 DB	'nv12', 00H
	ORG $+3
$SG27268 DB	'yv12', 00H
	ORG $+3
$SG27269 DB	'yuy2', 00H
	ORG $+3
$SG27270 DB	'yuv422', 00H
	ORG $+1
$SG27271 DB	'nv16', 00H
	ORG $+3
$SG27272 DB	'yuv444', 00H
	ORG $+1
$SG27273 DB	'yv12(9bit)', 00H
	ORG $+1
$SG27298 DB	'rgb', 00H
$SG27274 DB	'yv12(10bit)', 00H
$SG27300 DB	'gbr', 00H
$SG27275 DB	'yv12(12bit)', 00H
$SG27303 DB	'y8', 00H
	ORG $+1
$SG27276 DB	'yv12(14bit)', 00H
	ORG $+4
$SG27277 DB	'yv12(16bit)', 00H
$SG27278 DB	'p010', 00H
	ORG $+7
$SG27279 DB	'yuv422(9bit)', 00H
	ORG $+3
$SG27280 DB	'yuv422(10bit)', 00H
	ORG $+2
$SG27281 DB	'yuv422(12bit)', 00H
	ORG $+2
$SG27282 DB	'yuv422(14bit)', 00H
	ORG $+2
$SG27283 DB	'yuv422(16bit)', 00H
	ORG $+2
$SG27284 DB	'p210', 00H
	ORG $+3
$SG27285 DB	'yuv444(9bit)', 00H
	ORG $+3
$SG27286 DB	'yuv444(10bit)', 00H
	ORG $+2
$SG27287 DB	'yuv444(12bit)', 00H
	ORG $+2
$SG27288 DB	'yuv444(14bit)', 00H
	ORG $+2
$SG27289 DB	'yuv444(16bit)', 00H
	ORG $+2
$SG27290 DB	'yuva444', 00H
$SG27291 DB	'yuva444(16bit)', 00H
	ORG $+1
$SG27292 DB	'rgb24r', 00H
	ORG $+1
$SG27293 DB	'rgb32r', 00H
	ORG $+1
$SG27294 DB	'rgb24', 00H
	ORG $+2
$SG27295 DB	'rgb32', 00H
	ORG $+2
$SG27296 DB	'bgr24', 00H
	ORG $+2
$SG27297 DB	'bgr32', 00H
	ORG $+2
$SG27299 DB	'rgba', 00H
	ORG $+3
$SG27301 DB	'gbra', 00H
	ORG $+3
$SG27302 DB	'yc48', 00H
	ORG $+3
$SG27304 DB	'yc16', 00H
	ORG $+3
?Array_INTERLACE_WEIGHT@@3QAY0CA@$$CBEA DB 01H		; Array_INTERLACE_WEIGHT
	DB	03H
	DB	01H
	DB	03H
	DB	01H
	DB	03H
	DB	01H
	DB	03H
	DB	01H
	DB	03H
	DB	01H
	DB	03H
	DB	01H
	DB	03H
	DB	01H
	DB	03H
	DB	01H
	DB	03H
	DB	01H
	DB	03H
	DB	01H
	DB	03H
	DB	01H
	DB	03H
	DB	01H
	DB	03H
	DB	01H
	DB	03H
	DB	01H
	DB	03H
	DB	01H
	DB	03H
	DB	03H
	DB	01H
	DB	03H
	DB	01H
	DB	03H
	DB	01H
	DB	03H
	DB	01H
	DB	03H
	DB	01H
	DB	03H
	DB	01H
	DB	03H
	DB	01H
	DB	03H
	DB	01H
	DB	03H
	DB	01H
	DB	03H
	DB	01H
	DB	03H
	DB	01H
	DB	03H
	DB	01H
	DB	03H
	DB	01H
	DB	03H
	DB	01H
	DB	03H
	DB	01H
	DB	03H
	DB	01H
?Array_Y_L_MA_16@@3QBFB DW 0dbH				; Array_Y_L_MA_16
	DW	01H
	DW	0dbH
	DW	01H
	DW	0dbH
	DW	01H
	DW	0dbH
	DW	01H
	DW	0dbH
	DW	01H
	DW	0dbH
	DW	01H
	DW	0dbH
	DW	01H
	DW	0dbH
	DW	01H
?Array_UV_L_MA_16_420P@@3QBFB DW 0eH			; Array_UV_L_MA_16_420P
	DW	00H
	DW	0eH
	DW	00H
	DW	0eH
	DW	00H
	DW	0eH
	DW	00H
	DW	0eH
	DW	00H
	DW	0eH
	DW	00H
	DW	0eH
	DW	00H
	DW	0eH
	DW	00H
?Array_UV_L_MA_16_420I@@3QAY0BA@$$CBFA DW 02aH		; Array_UV_L_MA_16_420I
	DW	00H
	DW	02aH
	DW	00H
	DW	02aH
	DW	00H
	DW	02aH
	DW	00H
	DW	02aH
	DW	00H
	DW	02aH
	DW	00H
	DW	02aH
	DW	00H
	DW	02aH
	DW	00H
	DW	0eH
	DW	00H
	DW	0eH
	DW	00H
	DW	0eH
	DW	00H
	DW	0eH
	DW	00H
	DW	0eH
	DW	00H
	DW	0eH
	DW	00H
	DW	0eH
	DW	00H
	DW	0eH
	DW	00H
?Array_UV_L_MA_16_444@@3QBFB DW 0eH			; Array_UV_L_MA_16_444
	DW	00H
	DW	0eH
	DW	00H
	DW	0eH
	DW	00H
	DW	0eH
	DW	00H
	DW	0eH
	DW	00H
	DW	0eH
	DW	00H
	DW	0eH
	DW	00H
	DW	0eH
	DW	00H
?Array_SUFFLE_YCP_Y@@3QBEB DB 00H			; Array_SUFFLE_YCP_Y
	DB	01H
	DB	06H
	DB	07H
	DB	0cH
	DB	0dH
	DB	02H
	DB	03H
	DB	08H
	DB	09H
	DB	0eH
	DB	0fH
	DB	04H
	DB	05H
	DB	0aH
	DB	0bH
	DB	00H
	DB	01H
	DB	06H
	DB	07H
	DB	0cH
	DB	0dH
	DB	02H
	DB	03H
	DB	08H
	DB	09H
	DB	0eH
	DB	0fH
	DB	04H
	DB	05H
	DB	0aH
	DB	0bH
CONST	ENDS
PUBLIC	?copy_nv12_to_nv12_avx2@@YAXPEAPEAXPEAPEBXHHHHHHHHPEAH@Z ; copy_nv12_to_nv12_avx2
PUBLIC	??$copy_nv12_to_nv12_avx2_internal@$0A@@@YAXPEAPEAXPEAPEBXHHHHHHHHPEAH@Z ; copy_nv12_to_nv12_avx2_internal<0>
PUBLIC	?copy_p010_to_p010_avx2@@YAXPEAPEAXPEAPEBXHHHHHHHHPEAH@Z ; copy_p010_to_p010_avx2
PUBLIC	??$copy_nv12_to_nv12_avx2_internal@$00@@YAXPEAPEAXPEAPEBXHHHHHHHHPEAH@Z ; copy_nv12_to_nv12_avx2_internal<1>
PUBLIC	?convert_yuy2_to_nv12_avx2@@YAXPEAPEAXPEAPEBXHHHHHHHHPEAH@Z ; convert_yuy2_to_nv12_avx2
PUBLIC	?convert_yuy2_to_nv12_i_avx2@@YAXPEAPEAXPEAPEBXHHHHHHHHPEAH@Z ; convert_yuy2_to_nv12_i_avx2
PUBLIC	?convert_yv12_to_nv12_avx2@@YAXPEAPEAXPEAPEBXHHHHHHHHPEAH@Z ; convert_yv12_to_nv12_avx2
PUBLIC	?convert_uv_yv12_to_nv12_avx2@@YAXPEAPEAXPEAPEBXHHHHHHHHPEAH@Z ; convert_uv_yv12_to_nv12_avx2
PUBLIC	?convert_rgb24_to_rgb32_avx2@@YAXPEAPEAXPEAPEBXHHHHHHHHPEAH@Z ; convert_rgb24_to_rgb32_avx2
PUBLIC	?convert_rgb24r_to_rgb32_avx2@@YAXPEAPEAXPEAPEBXHHHHHHHHPEAH@Z ; convert_rgb24r_to_rgb32_avx2
PUBLIC	?convert_rgb32_to_rgb32_avx2@@YAXPEAPEAXPEAPEBXHHHHHHHHPEAH@Z ; convert_rgb32_to_rgb32_avx2
PUBLIC	?convert_rgb32r_to_rgb32_avx2@@YAXPEAPEAXPEAPEBXHHHHHHHHPEAH@Z ; convert_rgb32r_to_rgb32_avx2
PUBLIC	?convert_rgb24_to_rgb24_avx2@@YAXPEAPEAXPEAPEBXHHHHHHHHPEAH@Z ; convert_rgb24_to_rgb24_avx2
PUBLIC	?convert_rgb24r_to_rgb24_avx2@@YAXPEAPEAXPEAPEBXHHHHHHHHPEAH@Z ; convert_rgb24r_to_rgb24_avx2
PUBLIC	?convert_yv12_to_p010_avx2@@YAXPEAPEAXPEAPEBXHHHHHHHHPEAH@Z ; convert_yv12_to_p010_avx2
PUBLIC	?convert_yv12_16_to_nv12_avx2@@YAXPEAPEAXPEAPEBXHHHHHHHHPEAH@Z ; convert_yv12_16_to_nv12_avx2
PUBLIC	?convert_yv12_14_to_nv12_avx2@@YAXPEAPEAXPEAPEBXHHHHHHHHPEAH@Z ; convert_yv12_14_to_nv12_avx2
PUBLIC	?convert_yv12_12_to_nv12_avx2@@YAXPEAPEAXPEAPEBXHHHHHHHHPEAH@Z ; convert_yv12_12_to_nv12_avx2
PUBLIC	?convert_yv12_10_to_nv12_avx2@@YAXPEAPEAXPEAPEBXHHHHHHHHPEAH@Z ; convert_yv12_10_to_nv12_avx2
PUBLIC	?convert_yv12_09_to_nv12_avx2@@YAXPEAPEAXPEAPEBXHHHHHHHHPEAH@Z ; convert_yv12_09_to_nv12_avx2
PUBLIC	?convert_yv12_16_to_p010_avx2@@YAXPEAPEAXPEAPEBXHHHHHHHHPEAH@Z ; convert_yv12_16_to_p010_avx2
PUBLIC	?convert_yv12_14_to_p010_avx2@@YAXPEAPEAXPEAPEBXHHHHHHHHPEAH@Z ; convert_yv12_14_to_p010_avx2
PUBLIC	?convert_yv12_12_to_p010_avx2@@YAXPEAPEAXPEAPEBXHHHHHHHHPEAH@Z ; convert_yv12_12_to_p010_avx2
PUBLIC	?convert_yv12_10_to_p010_avx2@@YAXPEAPEAXPEAPEBXHHHHHHHHPEAH@Z ; convert_yv12_10_to_p010_avx2
PUBLIC	?convert_yv12_09_to_p010_avx2@@YAXPEAPEAXPEAPEBXHHHHHHHHPEAH@Z ; convert_yv12_09_to_p010_avx2
PUBLIC	?copy_yuv444_to_yuv444_avx2@@YAXPEAPEAXPEAPEBXHHHHHHHHPEAH@Z ; copy_yuv444_to_yuv444_avx2
PUBLIC	?convert_yuv444_16_to_yuv444_16_avx2@@YAXPEAPEAXPEAPEBXHHHHHHHHPEAH@Z ; convert_yuv444_16_to_yuv444_16_avx2
PUBLIC	?convert_yuv444_14_to_yuv444_16_avx2@@YAXPEAPEAXPEAPEBXHHHHHHHHPEAH@Z ; convert_yuv444_14_to_yuv444_16_avx2
PUBLIC	?convert_yuv444_12_to_yuv444_16_avx2@@YAXPEAPEAXPEAPEBXHHHHHHHHPEAH@Z ; convert_yuv444_12_to_yuv444_16_avx2
PUBLIC	?convert_yuv444_10_to_yuv444_16_avx2@@YAXPEAPEAXPEAPEBXHHHHHHHHPEAH@Z ; convert_yuv444_10_to_yuv444_16_avx2
PUBLIC	?convert_yuv444_09_to_yuv444_16_avx2@@YAXPEAPEAXPEAPEBXHHHHHHHHPEAH@Z ; convert_yuv444_09_to_yuv444_16_avx2
PUBLIC	?convert_yuv444_to_yuv444_16_avx2@@YAXPEAPEAXPEAPEBXHHHHHHHHPEAH@Z ; convert_yuv444_to_yuv444_16_avx2
PUBLIC	?convert_yuv444_16_to_yuv444_avx2@@YAXPEAPEAXPEAPEBXHHHHHHHHPEAH@Z ; convert_yuv444_16_to_yuv444_avx2
PUBLIC	?convert_yuv444_14_to_yuv444_avx2@@YAXPEAPEAXPEAPEBXHHHHHHHHPEAH@Z ; convert_yuv444_14_to_yuv444_avx2
PUBLIC	?convert_yuv444_12_to_yuv444_avx2@@YAXPEAPEAXPEAPEBXHHHHHHHHPEAH@Z ; convert_yuv444_12_to_yuv444_avx2
PUBLIC	?convert_yuv444_10_to_yuv444_avx2@@YAXPEAPEAXPEAPEBXHHHHHHHHPEAH@Z ; convert_yuv444_10_to_yuv444_avx2
PUBLIC	?convert_yuv444_09_to_yuv444_avx2@@YAXPEAPEAXPEAPEBXHHHHHHHHPEAH@Z ; convert_yuv444_09_to_yuv444_avx2
PUBLIC	?convert_yc48_to_p010_avx2@@YAXPEAPEAXPEAPEBXHHHHHHHHPEAH@Z ; convert_yc48_to_p010_avx2
PUBLIC	?convert_yc48_to_p010_i_avx2@@YAXPEAPEAXPEAPEBXHHHHHHHHPEAH@Z ; convert_yc48_to_p010_i_avx2
PUBLIC	?convert_yc48_to_yuv444_16bit_avx2@@YAXPEAPEAXPEAPEBXHHHHHHHHPEAH@Z ; convert_yc48_to_yuv444_16bit_avx2
PUBLIC	?convert_yuv444_16bit_to_yc48_avx2@@YAXPEAPEAXPEAPEBXHHHHHHHHPEAH@Z ; convert_yuv444_16bit_to_yc48_avx2
PUBLIC	__ymm@0000100000001000000010000000100000001000000010000000100000001000
PUBLIC	__ymm@0001000100010001000100010001000100010001000100010001000100010001
PUBLIC	__ymm@0002000200020002000200020002000200020002000200020002000200020002
PUBLIC	__ymm@0080008000800080008000800080008000800080008000800080008000800080
PUBLIC	__ymm@0800080008000800080008000800080008000800080008000800080008000800
PUBLIC	__ymm@082f082f082f082f082f082f082f082f082f082f082f082f082f082f082f082f
PUBLIC	__ymm@1000100010001000100010001000100010001000100010001000100010001000
PUBLIC	__ymm@124a124a124a124a124a124a124a124a124a124a124a124a124a124a124a124a
PUBLIC	__ymm@12b412b412b412b412b412b412b412b412b412b412b412b412b412b412b412b4
PUBLIC	__ymm@ffffffffffffffffffffffffffffffffffffffffffffffffffffffffffffffff
EXTRN	_RTC_CheckStackVars:PROC
EXTRN	_RTC_InitBase:PROC
EXTRN	_RTC_Shutdown:PROC
EXTRN	__GSHandlerCheck:PROC
EXTRN	__security_check_cookie:PROC
EXTRN	__security_cookie:QWORD
pdata	SEGMENT
$pdata$?thread_y_range@@YA?AUTHREAD_Y_RANGE@@HHHH@Z DD imagerel ?thread_y_range@@YA?AUTHREAD_Y_RANGE@@HHHH@Z
	DD	imagerel ?thread_y_range@@YA?AUTHREAD_Y_RANGE@@HHHH@Z+284
	DD	imagerel $unwind$?thread_y_range@@YA?AUTHREAD_Y_RANGE@@HHHH@Z
$pdata$?separate_low_up@@YAXAEAT__m256i@@0@Z DD imagerel ?separate_low_up@@YAXAEAT__m256i@@0@Z
	DD	imagerel ?separate_low_up@@YAXAEAT__m256i@@0@Z+393
	DD	imagerel $unwind$?separate_low_up@@YAXAEAT__m256i@@0@Z
$pdata$?copy_nv12_to_nv12_avx2@@YAXPEAPEAXPEAPEBXHHHHHHHHPEAH@Z DD imagerel $LN3
	DD	imagerel $LN3+161
	DD	imagerel $unwind$?copy_nv12_to_nv12_avx2@@YAXPEAPEAXPEAPEBXHHHHHHHHPEAH@Z
pdata	ENDS
;	COMDAT pdata
pdata	SEGMENT
$pdata$??$copy_nv12_to_nv12_avx2_internal@$0A@@@YAXPEAPEAXPEAPEBXHHHHHHHHPEAH@Z DD imagerel $LN9
	DD	imagerel $LN9+615
	DD	imagerel $unwind$??$copy_nv12_to_nv12_avx2_internal@$0A@@@YAXPEAPEAXPEAPEBXHHHHHHHHPEAH@Z
pdata	ENDS
pdata	SEGMENT
$pdata$?copy_p010_to_p010_avx2@@YAXPEAPEAXPEAPEBXHHHHHHHHPEAH@Z DD imagerel $LN3
	DD	imagerel $LN3+161
	DD	imagerel $unwind$?copy_p010_to_p010_avx2@@YAXPEAPEAXPEAPEBXHHHHHHHHPEAH@Z
pdata	ENDS
;	COMDAT pdata
pdata	SEGMENT
$pdata$??$copy_nv12_to_nv12_avx2_internal@$00@@YAXPEAPEAXPEAPEBXHHHHHHHHPEAH@Z DD imagerel $LN9
	DD	imagerel $LN9+619
	DD	imagerel $unwind$??$copy_nv12_to_nv12_avx2_internal@$00@@YAXPEAPEAXPEAPEBXHHHHHHHHPEAH@Z
pdata	ENDS
pdata	SEGMENT
$pdata$?convert_yuy2_to_nv12_avx2@@YAXPEAPEAXPEAPEBXHHHHHHHHPEAH@Z DD imagerel $LN9
	DD	imagerel $LN9+1285
	DD	imagerel $unwind$?convert_yuy2_to_nv12_avx2@@YAXPEAPEAXPEAPEBXHHHHHHHHPEAH@Z
$pdata$?yuv422_to_420_i_interpolate@@YA?AT__m256i@@T1@0H@Z DD imagerel ?yuv422_to_420_i_interpolate@@YA?AT__m256i@@T1@0H@Z
	DD	imagerel ?yuv422_to_420_i_interpolate@@YA?AT__m256i@@T1@0H@Z+486
	DD	imagerel $unwind$?yuv422_to_420_i_interpolate@@YA?AT__m256i@@T1@0H@Z
$pdata$?convert_yuy2_to_nv12_i_avx2@@YAXPEAPEAXPEAPEBXHHHHHHHHPEAH@Z DD imagerel $LN12
	DD	imagerel $LN12+1406
	DD	imagerel $unwind$?convert_yuy2_to_nv12_i_avx2@@YAXPEAPEAXPEAPEBXHHHHHHHHPEAH@Z
$pdata$?convert_yv12_to_nv12_avx2@@YAXPEAPEAXPEAPEBXHHHHHHHHPEAH@Z DD imagerel $LN3
	DD	imagerel $LN3+161
	DD	imagerel $unwind$?convert_yv12_to_nv12_avx2@@YAXPEAPEAXPEAPEBXHHHHHHHHPEAH@Z
$pdata$??$convert_yv12_to_nv12_avx2_base@$0A@@@YAXPEAPEAXPEAPEBXHHHHHHHHPEAH@Z DD imagerel ??$convert_yv12_to_nv12_avx2_base@$0A@@@YAXPEAPEAXPEAPEBXHHHHHHHHPEAH@Z
	DD	imagerel ??$convert_yv12_to_nv12_avx2_base@$0A@@@YAXPEAPEAXPEAPEBXHHHHHHHHPEAH@Z+1340
	DD	imagerel $unwind$??$convert_yv12_to_nv12_avx2_base@$0A@@@YAXPEAPEAXPEAPEBXHHHHHHHHPEAH@Z
$pdata$?convert_uv_yv12_to_nv12_avx2@@YAXPEAPEAXPEAPEBXHHHHHHHHPEAH@Z DD imagerel $LN3
	DD	imagerel $LN3+161
	DD	imagerel $unwind$?convert_uv_yv12_to_nv12_avx2@@YAXPEAPEAXPEAPEBXHHHHHHHHPEAH@Z
$pdata$??$convert_yv12_to_nv12_avx2_base@$00@@YAXPEAPEAXPEAPEBXHHHHHHHHPEAH@Z DD imagerel ??$convert_yv12_to_nv12_avx2_base@$00@@YAXPEAPEAXPEAPEBXHHHHHHHHPEAH@Z
	DD	imagerel ??$convert_yv12_to_nv12_avx2_base@$00@@YAXPEAPEAXPEAPEBXHHHHHHHHPEAH@Z+1339
	DD	imagerel $unwind$??$convert_yv12_to_nv12_avx2_base@$00@@YAXPEAPEAXPEAPEBXHHHHHHHHPEAH@Z
$pdata$?convert_rgb24_to_rgb32_avx2@@YAXPEAPEAXPEAPEBXHHHHHHHHPEAH@Z DD imagerel $LN12
	DD	imagerel $LN12+1795
	DD	imagerel $unwind$?convert_rgb24_to_rgb32_avx2@@YAXPEAPEAXPEAPEBXHHHHHHHHPEAH@Z
$pdata$?convert_rgb24r_to_rgb32_avx2@@YAXPEAPEAXPEAPEBXHHHHHHHHPEAH@Z DD imagerel $LN12
	DD	imagerel $LN12+1828
	DD	imagerel $unwind$?convert_rgb24r_to_rgb32_avx2@@YAXPEAPEAXPEAPEBXHHHHHHHHPEAH@Z
$pdata$?convert_rgb32_to_rgb32_avx2@@YAXPEAPEAXPEAPEBXHHHHHHHHPEAH@Z DD imagerel $LN6
	DD	imagerel $LN6+564
	DD	imagerel $unwind$?convert_rgb32_to_rgb32_avx2@@YAXPEAPEAXPEAPEBXHHHHHHHHPEAH@Z
$pdata$??$avx2_memcpy@$0A@@@YAXPEAEPEBEH@Z DD imagerel ??$avx2_memcpy@$0A@@@YAXPEAEPEBEH@Z
	DD	imagerel ??$avx2_memcpy@$0A@@@YAXPEAEPEBEH@Z+1125
	DD	imagerel $unwind$??$avx2_memcpy@$0A@@@YAXPEAEPEBEH@Z
$pdata$?convert_rgb32r_to_rgb32_avx2@@YAXPEAPEAXPEAPEBXHHHHHHHHPEAH@Z DD imagerel $LN6
	DD	imagerel $LN6+599
	DD	imagerel $unwind$?convert_rgb32r_to_rgb32_avx2@@YAXPEAPEAXPEAPEBXHHHHHHHHPEAH@Z
$pdata$?convert_rgb24_to_rgb24_avx2@@YAXPEAPEAXPEAPEBXHHHHHHHHPEAH@Z DD imagerel $LN6
	DD	imagerel $LN6+560
	DD	imagerel $unwind$?convert_rgb24_to_rgb24_avx2@@YAXPEAPEAXPEAPEBXHHHHHHHHPEAH@Z
$pdata$?convert_rgb24r_to_rgb24_avx2@@YAXPEAPEAXPEAPEBXHHHHHHHHPEAH@Z DD imagerel $LN6
	DD	imagerel $LN6+595
	DD	imagerel $unwind$?convert_rgb24r_to_rgb24_avx2@@YAXPEAPEAXPEAPEBXHHHHHHHHPEAH@Z
$pdata$?convert_yv12_to_p010_avx2@@YAXPEAPEAXPEAPEBXHHHHHHHHPEAH@Z DD imagerel $LN3
	DD	imagerel $LN3+161
	DD	imagerel $unwind$?convert_yv12_to_p010_avx2@@YAXPEAPEAXPEAPEBXHHHHHHHHPEAH@Z
$pdata$??$convert_yv12_to_p010_avx2_base@$0A@@@YAXPEAPEAXPEAPEBXHHHHHHHHPEAH@Z DD imagerel ??$convert_yv12_to_p010_avx2_base@$0A@@@YAXPEAPEAXPEAPEBXHHHHHHHHPEAH@Z
	DD	imagerel ??$convert_yv12_to_p010_avx2_base@$0A@@@YAXPEAPEAXPEAPEBXHHHHHHHHPEAH@Z+2254
	DD	imagerel $unwind$??$convert_yv12_to_p010_avx2_base@$0A@@@YAXPEAPEAXPEAPEBXHHHHHHHHPEAH@Z
$pdata$?convert_yv12_16_to_nv12_avx2@@YAXPEAPEAXPEAPEBXHHHHHHHHPEAH@Z DD imagerel $LN3
	DD	imagerel $LN3+161
	DD	imagerel $unwind$?convert_yv12_16_to_nv12_avx2@@YAXPEAPEAXPEAPEBXHHHHHHHHPEAH@Z
$pdata$??$convert_yv12_high_to_nv12_avx2_base@$0BA@$0A@@@YAXPEAPEAXPEAPEBXHHHHHHHHPEAH@Z DD imagerel ??$convert_yv12_high_to_nv12_avx2_base@$0BA@$0A@@@YAXPEAPEAXPEAPEBXHHHHHHHHPEAH@Z
	DD	imagerel ??$convert_yv12_high_to_nv12_avx2_base@$0BA@$0A@@@YAXPEAPEAXPEAPEBXHHHHHHHHPEAH@Z+1813
	DD	imagerel $unwind$??$convert_yv12_high_to_nv12_avx2_base@$0BA@$0A@@@YAXPEAPEAXPEAPEBXHHHHHHHHPEAH@Z
$pdata$?convert_yv12_14_to_nv12_avx2@@YAXPEAPEAXPEAPEBXHHHHHHHHPEAH@Z DD imagerel $LN3
	DD	imagerel $LN3+161
	DD	imagerel $unwind$?convert_yv12_14_to_nv12_avx2@@YAXPEAPEAXPEAPEBXHHHHHHHHPEAH@Z
$pdata$??$convert_yv12_high_to_nv12_avx2_base@$0O@$0A@@@YAXPEAPEAXPEAPEBXHHHHHHHHPEAH@Z DD imagerel ??$convert_yv12_high_to_nv12_avx2_base@$0O@$0A@@@YAXPEAPEAXPEAPEBXHHHHHHHHPEAH@Z
	DD	imagerel ??$convert_yv12_high_to_nv12_avx2_base@$0O@$0A@@@YAXPEAPEAXPEAPEBXHHHHHHHHPEAH@Z+1813
	DD	imagerel $unwind$??$convert_yv12_high_to_nv12_avx2_base@$0O@$0A@@@YAXPEAPEAXPEAPEBXHHHHHHHHPEAH@Z
$pdata$?convert_yv12_12_to_nv12_avx2@@YAXPEAPEAXPEAPEBXHHHHHHHHPEAH@Z DD imagerel $LN3
	DD	imagerel $LN3+161
	DD	imagerel $unwind$?convert_yv12_12_to_nv12_avx2@@YAXPEAPEAXPEAPEBXHHHHHHHHPEAH@Z
$pdata$??$convert_yv12_high_to_nv12_avx2_base@$0M@$0A@@@YAXPEAPEAXPEAPEBXHHHHHHHHPEAH@Z DD imagerel ??$convert_yv12_high_to_nv12_avx2_base@$0M@$0A@@@YAXPEAPEAXPEAPEBXHHHHHHHHPEAH@Z
	DD	imagerel ??$convert_yv12_high_to_nv12_avx2_base@$0M@$0A@@@YAXPEAPEAXPEAPEBXHHHHHHHHPEAH@Z+1813
	DD	imagerel $unwind$??$convert_yv12_high_to_nv12_avx2_base@$0M@$0A@@@YAXPEAPEAXPEAPEBXHHHHHHHHPEAH@Z
$pdata$?convert_yv12_10_to_nv12_avx2@@YAXPEAPEAXPEAPEBXHHHHHHHHPEAH@Z DD imagerel $LN3
	DD	imagerel $LN3+161
	DD	imagerel $unwind$?convert_yv12_10_to_nv12_avx2@@YAXPEAPEAXPEAPEBXHHHHHHHHPEAH@Z
$pdata$??$convert_yv12_high_to_nv12_avx2_base@$09$0A@@@YAXPEAPEAXPEAPEBXHHHHHHHHPEAH@Z DD imagerel ??$convert_yv12_high_to_nv12_avx2_base@$09$0A@@@YAXPEAPEAXPEAPEBXHHHHHHHHPEAH@Z
	DD	imagerel ??$convert_yv12_high_to_nv12_avx2_base@$09$0A@@@YAXPEAPEAXPEAPEBXHHHHHHHHPEAH@Z+1813
	DD	imagerel $unwind$??$convert_yv12_high_to_nv12_avx2_base@$09$0A@@@YAXPEAPEAXPEAPEBXHHHHHHHHPEAH@Z
$pdata$?convert_yv12_09_to_nv12_avx2@@YAXPEAPEAXPEAPEBXHHHHHHHHPEAH@Z DD imagerel $LN3
	DD	imagerel $LN3+161
	DD	imagerel $unwind$?convert_yv12_09_to_nv12_avx2@@YAXPEAPEAXPEAPEBXHHHHHHHHPEAH@Z
$pdata$??$convert_yv12_high_to_nv12_avx2_base@$08$0A@@@YAXPEAPEAXPEAPEBXHHHHHHHHPEAH@Z DD imagerel ??$convert_yv12_high_to_nv12_avx2_base@$08$0A@@@YAXPEAPEAXPEAPEBXHHHHHHHHPEAH@Z
	DD	imagerel ??$convert_yv12_high_to_nv12_avx2_base@$08$0A@@@YAXPEAPEAXPEAPEBXHHHHHHHHPEAH@Z+1813
	DD	imagerel $unwind$??$convert_yv12_high_to_nv12_avx2_base@$08$0A@@@YAXPEAPEAXPEAPEBXHHHHHHHHPEAH@Z
$pdata$?convert_yv12_16_to_p010_avx2@@YAXPEAPEAXPEAPEBXHHHHHHHHPEAH@Z DD imagerel $LN3
	DD	imagerel $LN3+161
	DD	imagerel $unwind$?convert_yv12_16_to_p010_avx2@@YAXPEAPEAXPEAPEBXHHHHHHHHPEAH@Z
$pdata$??$convert_yv12_high_to_p010_avx2_base@$0BA@$0A@@@YAXPEAPEAXPEAPEBXHHHHHHHHPEAH@Z DD imagerel ??$convert_yv12_high_to_p010_avx2_base@$0BA@$0A@@@YAXPEAPEAXPEAPEBXHHHHHHHHPEAH@Z
	DD	imagerel ??$convert_yv12_high_to_p010_avx2_base@$0BA@$0A@@@YAXPEAPEAXPEAPEBXHHHHHHHHPEAH@Z+1610
	DD	imagerel $unwind$??$convert_yv12_high_to_p010_avx2_base@$0BA@$0A@@@YAXPEAPEAXPEAPEBXHHHHHHHHPEAH@Z
$pdata$?convert_yv12_14_to_p010_avx2@@YAXPEAPEAXPEAPEBXHHHHHHHHPEAH@Z DD imagerel $LN3
	DD	imagerel $LN3+161
	DD	imagerel $unwind$?convert_yv12_14_to_p010_avx2@@YAXPEAPEAXPEAPEBXHHHHHHHHPEAH@Z
$pdata$??$convert_yv12_high_to_p010_avx2_base@$0O@$0A@@@YAXPEAPEAXPEAPEBXHHHHHHHHPEAH@Z DD imagerel ??$convert_yv12_high_to_p010_avx2_base@$0O@$0A@@@YAXPEAPEAXPEAPEBXHHHHHHHHPEAH@Z
	DD	imagerel ??$convert_yv12_high_to_p010_avx2_base@$0O@$0A@@@YAXPEAPEAXPEAPEBXHHHHHHHHPEAH@Z+1610
	DD	imagerel $unwind$??$convert_yv12_high_to_p010_avx2_base@$0O@$0A@@@YAXPEAPEAXPEAPEBXHHHHHHHHPEAH@Z
$pdata$?convert_yv12_12_to_p010_avx2@@YAXPEAPEAXPEAPEBXHHHHHHHHPEAH@Z DD imagerel $LN3
	DD	imagerel $LN3+161
	DD	imagerel $unwind$?convert_yv12_12_to_p010_avx2@@YAXPEAPEAXPEAPEBXHHHHHHHHPEAH@Z
$pdata$??$convert_yv12_high_to_p010_avx2_base@$0M@$0A@@@YAXPEAPEAXPEAPEBXHHHHHHHHPEAH@Z DD imagerel ??$convert_yv12_high_to_p010_avx2_base@$0M@$0A@@@YAXPEAPEAXPEAPEBXHHHHHHHHPEAH@Z
	DD	imagerel ??$convert_yv12_high_to_p010_avx2_base@$0M@$0A@@@YAXPEAPEAXPEAPEBXHHHHHHHHPEAH@Z+1610
	DD	imagerel $unwind$??$convert_yv12_high_to_p010_avx2_base@$0M@$0A@@@YAXPEAPEAXPEAPEBXHHHHHHHHPEAH@Z
$pdata$?convert_yv12_10_to_p010_avx2@@YAXPEAPEAXPEAPEBXHHHHHHHHPEAH@Z DD imagerel $LN3
	DD	imagerel $LN3+161
	DD	imagerel $unwind$?convert_yv12_10_to_p010_avx2@@YAXPEAPEAXPEAPEBXHHHHHHHHPEAH@Z
$pdata$??$convert_yv12_high_to_p010_avx2_base@$09$0A@@@YAXPEAPEAXPEAPEBXHHHHHHHHPEAH@Z DD imagerel ??$convert_yv12_high_to_p010_avx2_base@$09$0A@@@YAXPEAPEAXPEAPEBXHHHHHHHHPEAH@Z
	DD	imagerel ??$convert_yv12_high_to_p010_avx2_base@$09$0A@@@YAXPEAPEAXPEAPEBXHHHHHHHHPEAH@Z+1610
	DD	imagerel $unwind$??$convert_yv12_high_to_p010_avx2_base@$09$0A@@@YAXPEAPEAXPEAPEBXHHHHHHHHPEAH@Z
$pdata$?convert_yv12_09_to_p010_avx2@@YAXPEAPEAXPEAPEBXHHHHHHHHPEAH@Z DD imagerel $LN3
	DD	imagerel $LN3+161
	DD	imagerel $unwind$?convert_yv12_09_to_p010_avx2@@YAXPEAPEAXPEAPEBXHHHHHHHHPEAH@Z
$pdata$??$convert_yv12_high_to_p010_avx2_base@$08$0A@@@YAXPEAPEAXPEAPEBXHHHHHHHHPEAH@Z DD imagerel ??$convert_yv12_high_to_p010_avx2_base@$08$0A@@@YAXPEAPEAXPEAPEBXHHHHHHHHPEAH@Z
	DD	imagerel ??$convert_yv12_high_to_p010_avx2_base@$08$0A@@@YAXPEAPEAXPEAPEBXHHHHHHHHPEAH@Z+1610
	DD	imagerel $unwind$??$convert_yv12_high_to_p010_avx2_base@$08$0A@@@YAXPEAPEAXPEAPEBXHHHHHHHHPEAH@Z
$pdata$?copy_yuv444_to_yuv444_avx2@@YAXPEAPEAXPEAPEBXHHHHHHHHPEAH@Z DD imagerel $LN9
	DD	imagerel $LN9+591
	DD	imagerel $unwind$?copy_yuv444_to_yuv444_avx2@@YAXPEAPEAXPEAPEBXHHHHHHHHPEAH@Z
$pdata$??$avx2_memcpy@$00@@YAXPEAEPEBEH@Z DD imagerel ??$avx2_memcpy@$00@@YAXPEAEPEBEH@Z
	DD	imagerel ??$avx2_memcpy@$00@@YAXPEAEPEBEH@Z+1129
	DD	imagerel $unwind$??$avx2_memcpy@$00@@YAXPEAEPEBEH@Z
$pdata$?convert_yuv444_16_to_yuv444_16_avx2@@YAXPEAPEAXPEAPEBXHHHHHHHHPEAH@Z DD imagerel $LN3
	DD	imagerel $LN3+161
	DD	imagerel $unwind$?convert_yuv444_16_to_yuv444_16_avx2@@YAXPEAPEAXPEAPEBXHHHHHHHHPEAH@Z
$pdata$??$convert_yuv444_high_to_yuv444_16_avx2_base@$0BA@@@YAXPEAPEAXPEAPEBXHHHHHHHHPEAH@Z DD imagerel ??$convert_yuv444_high_to_yuv444_16_avx2_base@$0BA@@@YAXPEAPEAXPEAPEBXHHHHHHHHPEAH@Z
	DD	imagerel ??$convert_yuv444_high_to_yuv444_16_avx2_base@$0BA@@@YAXPEAPEAXPEAPEBXHHHHHHHHPEAH@Z+733
	DD	imagerel $unwind$??$convert_yuv444_high_to_yuv444_16_avx2_base@$0BA@@@YAXPEAPEAXPEAPEBXHHHHHHHHPEAH@Z
$pdata$?convert_yuv444_14_to_yuv444_16_avx2@@YAXPEAPEAXPEAPEBXHHHHHHHHPEAH@Z DD imagerel $LN3
	DD	imagerel $LN3+161
	DD	imagerel $unwind$?convert_yuv444_14_to_yuv444_16_avx2@@YAXPEAPEAXPEAPEBXHHHHHHHHPEAH@Z
$pdata$??$convert_yuv444_high_to_yuv444_16_avx2_base@$0O@@@YAXPEAPEAXPEAPEBXHHHHHHHHPEAH@Z DD imagerel ??$convert_yuv444_high_to_yuv444_16_avx2_base@$0O@@@YAXPEAPEAXPEAPEBXHHHHHHHHPEAH@Z
	DD	imagerel ??$convert_yuv444_high_to_yuv444_16_avx2_base@$0O@@@YAXPEAPEAXPEAPEBXHHHHHHHHPEAH@Z+732
	DD	imagerel $unwind$??$convert_yuv444_high_to_yuv444_16_avx2_base@$0O@@@YAXPEAPEAXPEAPEBXHHHHHHHHPEAH@Z
$pdata$?convert_yuv444_12_to_yuv444_16_avx2@@YAXPEAPEAXPEAPEBXHHHHHHHHPEAH@Z DD imagerel $LN3
	DD	imagerel $LN3+161
	DD	imagerel $unwind$?convert_yuv444_12_to_yuv444_16_avx2@@YAXPEAPEAXPEAPEBXHHHHHHHHPEAH@Z
$pdata$??$convert_yuv444_high_to_yuv444_16_avx2_base@$0M@@@YAXPEAPEAXPEAPEBXHHHHHHHHPEAH@Z DD imagerel ??$convert_yuv444_high_to_yuv444_16_avx2_base@$0M@@@YAXPEAPEAXPEAPEBXHHHHHHHHPEAH@Z
	DD	imagerel ??$convert_yuv444_high_to_yuv444_16_avx2_base@$0M@@@YAXPEAPEAXPEAPEBXHHHHHHHHPEAH@Z+732
	DD	imagerel $unwind$??$convert_yuv444_high_to_yuv444_16_avx2_base@$0M@@@YAXPEAPEAXPEAPEBXHHHHHHHHPEAH@Z
$pdata$?convert_yuv444_10_to_yuv444_16_avx2@@YAXPEAPEAXPEAPEBXHHHHHHHHPEAH@Z DD imagerel $LN3
	DD	imagerel $LN3+161
	DD	imagerel $unwind$?convert_yuv444_10_to_yuv444_16_avx2@@YAXPEAPEAXPEAPEBXHHHHHHHHPEAH@Z
$pdata$??$convert_yuv444_high_to_yuv444_16_avx2_base@$09@@YAXPEAPEAXPEAPEBXHHHHHHHHPEAH@Z DD imagerel ??$convert_yuv444_high_to_yuv444_16_avx2_base@$09@@YAXPEAPEAXPEAPEBXHHHHHHHHPEAH@Z
	DD	imagerel ??$convert_yuv444_high_to_yuv444_16_avx2_base@$09@@YAXPEAPEAXPEAPEBXHHHHHHHHPEAH@Z+732
	DD	imagerel $unwind$??$convert_yuv444_high_to_yuv444_16_avx2_base@$09@@YAXPEAPEAXPEAPEBXHHHHHHHHPEAH@Z
$pdata$?convert_yuv444_09_to_yuv444_16_avx2@@YAXPEAPEAXPEAPEBXHHHHHHHHPEAH@Z DD imagerel $LN3
	DD	imagerel $LN3+161
	DD	imagerel $unwind$?convert_yuv444_09_to_yuv444_16_avx2@@YAXPEAPEAXPEAPEBXHHHHHHHHPEAH@Z
$pdata$??$convert_yuv444_high_to_yuv444_16_avx2_base@$08@@YAXPEAPEAXPEAPEBXHHHHHHHHPEAH@Z DD imagerel ??$convert_yuv444_high_to_yuv444_16_avx2_base@$08@@YAXPEAPEAXPEAPEBXHHHHHHHHPEAH@Z
	DD	imagerel ??$convert_yuv444_high_to_yuv444_16_avx2_base@$08@@YAXPEAPEAXPEAPEBXHHHHHHHHPEAH@Z+732
	DD	imagerel $unwind$??$convert_yuv444_high_to_yuv444_16_avx2_base@$08@@YAXPEAPEAXPEAPEBXHHHHHHHHPEAH@Z
$pdata$?convert_yuv444_to_yuv444_16_avx2@@YAXPEAPEAXPEAPEBXHHHHHHHHPEAH@Z DD imagerel $LN12
	DD	imagerel $LN12+824
	DD	imagerel $unwind$?convert_yuv444_to_yuv444_16_avx2@@YAXPEAPEAXPEAPEBXHHHHHHHHPEAH@Z
$pdata$?convert_yuv444_16_to_yuv444_avx2@@YAXPEAPEAXPEAPEBXHHHHHHHHPEAH@Z DD imagerel $LN3
	DD	imagerel $LN3+161
	DD	imagerel $unwind$?convert_yuv444_16_to_yuv444_avx2@@YAXPEAPEAXPEAPEBXHHHHHHHHPEAH@Z
$pdata$??$convert_yuv444_high_to_yuv444_avx2_base@$0BA@@@YAXPEAPEAXPEAPEBXHHHHHHHHPEAH@Z DD imagerel ??$convert_yuv444_high_to_yuv444_avx2_base@$0BA@@@YAXPEAPEAXPEAPEBXHHHHHHHHPEAH@Z
	DD	imagerel ??$convert_yuv444_high_to_yuv444_avx2_base@$0BA@@@YAXPEAPEAXPEAPEBXHHHHHHHHPEAH@Z+938
	DD	imagerel $unwind$??$convert_yuv444_high_to_yuv444_avx2_base@$0BA@@@YAXPEAPEAXPEAPEBXHHHHHHHHPEAH@Z
$pdata$?convert_yuv444_14_to_yuv444_avx2@@YAXPEAPEAXPEAPEBXHHHHHHHHPEAH@Z DD imagerel $LN3
	DD	imagerel $LN3+161
	DD	imagerel $unwind$?convert_yuv444_14_to_yuv444_avx2@@YAXPEAPEAXPEAPEBXHHHHHHHHPEAH@Z
$pdata$??$convert_yuv444_high_to_yuv444_avx2_base@$0O@@@YAXPEAPEAXPEAPEBXHHHHHHHHPEAH@Z DD imagerel ??$convert_yuv444_high_to_yuv444_avx2_base@$0O@@@YAXPEAPEAXPEAPEBXHHHHHHHHPEAH@Z
	DD	imagerel ??$convert_yuv444_high_to_yuv444_avx2_base@$0O@@@YAXPEAPEAXPEAPEBXHHHHHHHHPEAH@Z+938
	DD	imagerel $unwind$??$convert_yuv444_high_to_yuv444_avx2_base@$0O@@@YAXPEAPEAXPEAPEBXHHHHHHHHPEAH@Z
$pdata$?convert_yuv444_12_to_yuv444_avx2@@YAXPEAPEAXPEAPEBXHHHHHHHHPEAH@Z DD imagerel $LN3
	DD	imagerel $LN3+161
	DD	imagerel $unwind$?convert_yuv444_12_to_yuv444_avx2@@YAXPEAPEAXPEAPEBXHHHHHHHHPEAH@Z
$pdata$??$convert_yuv444_high_to_yuv444_avx2_base@$0M@@@YAXPEAPEAXPEAPEBXHHHHHHHHPEAH@Z DD imagerel ??$convert_yuv444_high_to_yuv444_avx2_base@$0M@@@YAXPEAPEAXPEAPEBXHHHHHHHHPEAH@Z
	DD	imagerel ??$convert_yuv444_high_to_yuv444_avx2_base@$0M@@@YAXPEAPEAXPEAPEBXHHHHHHHHPEAH@Z+938
	DD	imagerel $unwind$??$convert_yuv444_high_to_yuv444_avx2_base@$0M@@@YAXPEAPEAXPEAPEBXHHHHHHHHPEAH@Z
$pdata$?convert_yuv444_10_to_yuv444_avx2@@YAXPEAPEAXPEAPEBXHHHHHHHHPEAH@Z DD imagerel $LN3
	DD	imagerel $LN3+161
	DD	imagerel $unwind$?convert_yuv444_10_to_yuv444_avx2@@YAXPEAPEAXPEAPEBXHHHHHHHHPEAH@Z
$pdata$??$convert_yuv444_high_to_yuv444_avx2_base@$09@@YAXPEAPEAXPEAPEBXHHHHHHHHPEAH@Z DD imagerel ??$convert_yuv444_high_to_yuv444_avx2_base@$09@@YAXPEAPEAXPEAPEBXHHHHHHHHPEAH@Z
	DD	imagerel ??$convert_yuv444_high_to_yuv444_avx2_base@$09@@YAXPEAPEAXPEAPEBXHHHHHHHHPEAH@Z+938
	DD	imagerel $unwind$??$convert_yuv444_high_to_yuv444_avx2_base@$09@@YAXPEAPEAXPEAPEBXHHHHHHHHPEAH@Z
$pdata$?convert_yuv444_09_to_yuv444_avx2@@YAXPEAPEAXPEAPEBXHHHHHHHHPEAH@Z DD imagerel $LN3
	DD	imagerel $LN3+161
	DD	imagerel $unwind$?convert_yuv444_09_to_yuv444_avx2@@YAXPEAPEAXPEAPEBXHHHHHHHHPEAH@Z
$pdata$??$convert_yuv444_high_to_yuv444_avx2_base@$08@@YAXPEAPEAXPEAPEBXHHHHHHHHPEAH@Z DD imagerel ??$convert_yuv444_high_to_yuv444_avx2_base@$08@@YAXPEAPEAXPEAPEBXHHHHHHHHPEAH@Z
	DD	imagerel ??$convert_yuv444_high_to_yuv444_avx2_base@$08@@YAXPEAPEAXPEAPEBXHHHHHHHHPEAH@Z+938
	DD	imagerel $unwind$??$convert_yuv444_high_to_yuv444_avx2_base@$08@@YAXPEAPEAXPEAPEBXHHHHHHHHPEAH@Z
$pdata$?gather_y_uv_from_yc48@@YAXAEAT__m256i@@0T1@@Z DD imagerel ?gather_y_uv_from_yc48@@YAXAEAT__m256i@@0T1@@Z
	DD	imagerel ?gather_y_uv_from_yc48@@YAXAEAT__m256i@@0T1@@Z+599
	DD	imagerel $unwind$?gather_y_uv_from_yc48@@YAXAEAT__m256i@@0T1@@Z
$pdata$?convert_y_range_from_yc48@@YA?AT__m256i@@T1@0HAEBT1@1@Z DD imagerel ?convert_y_range_from_yc48@@YA?AT__m256i@@T1@0HAEBT1@1@Z
	DD	imagerel ?convert_y_range_from_yc48@@YA?AT__m256i@@T1@0HAEBT1@1@Z+480
	DD	imagerel $unwind$?convert_y_range_from_yc48@@YA?AT__m256i@@T1@0HAEBT1@1@Z
$pdata$?convert_uv_range_after_adding_offset@@YA?AT__m256i@@T1@AEBT1@H11@Z DD imagerel ?convert_uv_range_after_adding_offset@@YA?AT__m256i@@T1@AEBT1@H11@Z
	DD	imagerel ?convert_uv_range_after_adding_offset@@YA?AT__m256i@@T1@AEBT1@H11@Z+480
	DD	imagerel $unwind$?convert_uv_range_after_adding_offset@@YA?AT__m256i@@T1@AEBT1@H11@Z
$pdata$?convert_uv_range_from_yc48@@YA?AT__m256i@@T1@AEBT1@1H11@Z DD imagerel ?convert_uv_range_from_yc48@@YA?AT__m256i@@T1@AEBT1@1H11@Z
	DD	imagerel ?convert_uv_range_from_yc48@@YA?AT__m256i@@T1@AEBT1@1H11@Z+190
	DD	imagerel $unwind$?convert_uv_range_from_yc48@@YA?AT__m256i@@T1@AEBT1@1H11@Z
$pdata$?convert_uv_range_from_yc48_yuv420p@@YA?AT__m256i@@T1@0AEBT1@0H11@Z DD imagerel ?convert_uv_range_from_yc48_yuv420p@@YA?AT__m256i@@T1@0AEBT1@0H11@Z
	DD	imagerel ?convert_uv_range_from_yc48_yuv420p@@YA?AT__m256i@@T1@0AEBT1@0H11@Z+236
	DD	imagerel $unwind$?convert_uv_range_from_yc48_yuv420p@@YA?AT__m256i@@T1@0AEBT1@0H11@Z
$pdata$?convert_uv_range_from_yc48_420i@@YA?AT__m256i@@T1@0AEBT1@11H11@Z DD imagerel ?convert_uv_range_from_yc48_420i@@YA?AT__m256i@@T1@0AEBT1@11H11@Z
	DD	imagerel ?convert_uv_range_from_yc48_420i@@YA?AT__m256i@@T1@0AEBT1@11H11@Z+816
	DD	imagerel $unwind$?convert_uv_range_from_yc48_420i@@YA?AT__m256i@@T1@0AEBT1@11H11@Z
$pdata$?convert_y_range_to_yc48@@YA?AT__m256i@@T1@@Z DD imagerel ?convert_y_range_to_yc48@@YA?AT__m256i@@T1@@Z
	DD	imagerel ?convert_y_range_to_yc48@@YA?AT__m256i@@T1@@Z+289
	DD	imagerel $unwind$?convert_y_range_to_yc48@@YA?AT__m256i@@T1@@Z
$pdata$?convert_uv_range_to_yc48@@YA?AT__m256i@@T1@@Z DD imagerel ?convert_uv_range_to_yc48@@YA?AT__m256i@@T1@@Z
	DD	imagerel ?convert_uv_range_to_yc48@@YA?AT__m256i@@T1@@Z+540
	DD	imagerel $unwind$?convert_uv_range_to_yc48@@YA?AT__m256i@@T1@@Z
$pdata$?gather_y_u_v_from_yc48@@YAXAEAT__m256i@@00@Z DD imagerel ?gather_y_u_v_from_yc48@@YAXAEAT__m256i@@00@Z
	DD	imagerel ?gather_y_u_v_from_yc48@@YAXAEAT__m256i@@00@Z+754
	DD	imagerel $unwind$?gather_y_u_v_from_yc48@@YAXAEAT__m256i@@00@Z
$pdata$?gather_y_u_v_to_yc48@@YAXAEAT__m256i@@00@Z DD imagerel ?gather_y_u_v_to_yc48@@YAXAEAT__m256i@@00@Z
	DD	imagerel ?gather_y_u_v_to_yc48@@YAXAEAT__m256i@@00@Z+689
	DD	imagerel $unwind$?gather_y_u_v_to_yc48@@YAXAEAT__m256i@@00@Z
$pdata$?convert_yc48_to_p010_avx2@@YAXPEAPEAXPEAPEBXHHHHHHHHPEAH@Z DD imagerel $LN9
	DD	imagerel $LN9+1330
	DD	imagerel $unwind$?convert_yc48_to_p010_avx2@@YAXPEAPEAXPEAPEBXHHHHHHHHPEAH@Z
$pdata$?convert_yc48_to_p010_i_avx2@@YAXPEAPEAXPEAPEBXHHHHHHHHPEAH@Z DD imagerel $LN12
	DD	imagerel $LN12+1454
	DD	imagerel $unwind$?convert_yc48_to_p010_i_avx2@@YAXPEAPEAXPEAPEBXHHHHHHHHPEAH@Z
$pdata$?convert_yc48_to_yuv444_16bit_avx2@@YAXPEAPEAXPEAPEBXHHHHHHHHPEAH@Z DD imagerel $LN9
	DD	imagerel $LN9+1251
	DD	imagerel $unwind$?convert_yc48_to_yuv444_16bit_avx2@@YAXPEAPEAXPEAPEBXHHHHHHHHPEAH@Z
$pdata$?convert_yuv444_16bit_to_yc48_avx2@@YAXPEAPEAXPEAPEBXHHHHHHHHPEAH@Z DD imagerel $LN9
	DD	imagerel $LN9+1022
	DD	imagerel $unwind$?convert_yuv444_16bit_to_yc48_avx2@@YAXPEAPEAXPEAPEBXHHHHHHHHPEAH@Z
pdata	ENDS
;	COMDAT __ymm@ffffffffffffffffffffffffffffffffffffffffffffffffffffffffffffffff
CONST	SEGMENT
__ymm@ffffffffffffffffffffffffffffffffffffffffffffffffffffffffffffffff DB 0ffH
	DB	0ffH, 0ffH, 0ffH, 0ffH, 0ffH, 0ffH, 0ffH, 0ffH, 0ffH, 0ffH, 0ffH
	DB	0ffH, 0ffH, 0ffH, 0ffH, 0ffH, 0ffH, 0ffH, 0ffH, 0ffH, 0ffH, 0ffH
	DB	0ffH, 0ffH, 0ffH, 0ffH, 0ffH, 0ffH, 0ffH, 0ffH, 0ffH
CONST	ENDS
;	COMDAT __ymm@12b412b412b412b412b412b412b412b412b412b412b412b412b412b412b412b4
CONST	SEGMENT
__ymm@12b412b412b412b412b412b412b412b412b412b412b412b412b412b412b412b4 DB 0b4H
	DB	012H, 0b4H, 012H, 0b4H, 012H, 0b4H, 012H, 0b4H, 012H, 0b4H, 012H
	DB	0b4H, 012H, 0b4H, 012H, 0b4H, 012H, 0b4H, 012H, 0b4H, 012H, 0b4H
	DB	012H, 0b4H, 012H, 0b4H, 012H, 0b4H, 012H, 0b4H, 012H
CONST	ENDS
;	COMDAT __ymm@124a124a124a124a124a124a124a124a124a124a124a124a124a124a124a124a
CONST	SEGMENT
__ymm@124a124a124a124a124a124a124a124a124a124a124a124a124a124a124a124a DB 'J'
	DB	012H, 'J', 012H, 'J', 012H, 'J', 012H, 'J', 012H, 'J', 012H, 'J'
	DB	012H, 'J', 012H, 'J', 012H, 'J', 012H, 'J', 012H, 'J', 012H, 'J'
	DB	012H, 'J', 012H, 'J', 012H, 'J', 012H
CONST	ENDS
;	COMDAT __ymm@1000100010001000100010001000100010001000100010001000100010001000
CONST	SEGMENT
__ymm@1000100010001000100010001000100010001000100010001000100010001000 DB 00H
	DB	010H, 00H, 010H, 00H, 010H, 00H, 010H, 00H, 010H, 00H, 010H, 00H
	DB	010H, 00H, 010H, 00H, 010H, 00H, 010H, 00H, 010H, 00H, 010H, 00H
	DB	010H, 00H, 010H, 00H, 010H, 00H, 010H
CONST	ENDS
;	COMDAT __ymm@082f082f082f082f082f082f082f082f082f082f082f082f082f082f082f082f
CONST	SEGMENT
__ymm@082f082f082f082f082f082f082f082f082f082f082f082f082f082f082f082f DB '/'
	DB	08H, '/', 08H, '/', 08H, '/', 08H, '/', 08H, '/', 08H, '/', 08H
	DB	'/', 08H, '/', 08H, '/', 08H, '/', 08H, '/', 08H, '/', 08H, '/'
	DB	08H, '/', 08H, '/', 08H
CONST	ENDS
;	COMDAT __ymm@0800080008000800080008000800080008000800080008000800080008000800
CONST	SEGMENT
__ymm@0800080008000800080008000800080008000800080008000800080008000800 DB 00H
	DB	08H, 00H, 08H, 00H, 08H, 00H, 08H, 00H, 08H, 00H, 08H, 00H, 08H
	DB	00H, 08H, 00H, 08H, 00H, 08H, 00H, 08H, 00H, 08H, 00H, 08H, 00H
	DB	08H, 00H, 08H, 00H, 08H
CONST	ENDS
;	COMDAT __ymm@0080008000800080008000800080008000800080008000800080008000800080
CONST	SEGMENT
__ymm@0080008000800080008000800080008000800080008000800080008000800080 DB 080H
	DB	00H, 080H, 00H, 080H, 00H, 080H, 00H, 080H, 00H, 080H, 00H, 080H
	DB	00H, 080H, 00H, 080H, 00H, 080H, 00H, 080H, 00H, 080H, 00H, 080H
	DB	00H, 080H, 00H, 080H, 00H, 080H, 00H
CONST	ENDS
;	COMDAT __ymm@0002000200020002000200020002000200020002000200020002000200020002
CONST	SEGMENT
__ymm@0002000200020002000200020002000200020002000200020002000200020002 DB 02H
	DB	00H, 02H, 00H, 02H, 00H, 02H, 00H, 02H, 00H, 02H, 00H, 02H, 00H
	DB	02H, 00H, 02H, 00H, 02H, 00H, 02H, 00H, 02H, 00H, 02H, 00H, 02H
	DB	00H, 02H, 00H, 02H, 00H
CONST	ENDS
;	COMDAT __ymm@0001000100010001000100010001000100010001000100010001000100010001
CONST	SEGMENT
__ymm@0001000100010001000100010001000100010001000100010001000100010001 DB 01H
	DB	00H, 01H, 00H, 01H, 00H, 01H, 00H, 01H, 00H, 01H, 00H, 01H, 00H
	DB	01H, 00H, 01H, 00H, 01H, 00H, 01H, 00H, 01H, 00H, 01H, 00H, 01H
	DB	00H, 01H, 00H, 01H, 00H
CONST	ENDS
;	COMDAT __ymm@0000100000001000000010000000100000001000000010000000100000001000
CONST	SEGMENT
__ymm@0000100000001000000010000000100000001000000010000000100000001000 DB 00H
	DB	010H, 00H, 00H, 00H, 010H, 00H, 00H, 00H, 010H, 00H, 00H, 00H, 010H
	DB	00H, 00H, 00H, 010H, 00H, 00H, 00H, 010H, 00H, 00H, 00H, 010H, 00H
	DB	00H, 00H, 010H, 00H, 00H
CONST	ENDS
;	COMDAT rtc$TMZ
rtc$TMZ	SEGMENT
_RTC_Shutdown.rtc$TMZ DQ FLAT:_RTC_Shutdown
rtc$TMZ	ENDS
;	COMDAT rtc$IMZ
rtc$IMZ	SEGMENT
_RTC_InitBase.rtc$IMZ DQ FLAT:_RTC_InitBase
rtc$IMZ	ENDS
;	COMDAT ?SHUFFLE_MASK@?N@???$convert_yv12_to_p010_avx2_base@$0A@@@YAXPEAPEAXPEAPEBXHHHHHHHHPEAH@Z@4QBHB
CONST	SEGMENT
?SHUFFLE_MASK@?N@???$convert_yv12_to_p010_avx2_base@$0A@@@YAXPEAPEAXPEAPEBXHHHHHHHHPEAH@Z@4QBHB DD 00H ; `convert_yv12_to_p010_avx2_base<0>'::`13'::SHUFFLE_MASK
	DD	02H
	DD	04H
	DD	06H
	DD	01H
	DD	03H
	DD	05H
	DD	07H
CONST	ENDS
;	COMDAT ?shuffle_yc48@?1??gather_y_u_v_to_yc48@@YAXAEAT__m256i@@00@Z@4QBEB
CONST	SEGMENT
?shuffle_yc48@?1??gather_y_u_v_to_yc48@@YAXAEAT__m256i@@00@Z@4QBEB DB 00H ; `gather_y_u_v_to_yc48'::`2'::shuffle_yc48
	DB	01H
	DB	06H
	DB	07H
	DB	0cH
	DB	0dH
	DB	02H
	DB	03H
	DB	08H
	DB	09H
	DB	0eH
	DB	0fH
	DB	04H
	DB	05H
	DB	0aH
	DB	0bH
	DB	00H
	DB	01H
	DB	06H
	DB	07H
	DB	0cH
	DB	0dH
	DB	02H
	DB	03H
	DB	08H
	DB	09H
	DB	0eH
	DB	0fH
	DB	04H
	DB	05H
	DB	0aH
	DB	0bH
CONST	ENDS
;	COMDAT xdata
xdata	SEGMENT
$unwind$??$copy_nv12_to_nv12_avx2_internal@$00@@YAXPEAPEAXPEAPEBXHHHHHHHHPEAH@Z DD 044619H
	DD	019011dH
	DD	060157016H
	DD	imagerel __GSHandlerCheck
	DD	0b8H
xdata	ENDS
;	COMDAT CONST
CONST	SEGMENT
??$copy_nv12_to_nv12_avx2_internal@$00@@YAXPEAPEAXPEAPEBXHHHHHHHHPEAH@Z$rtcName$0 DB 079H ; copy_nv12_to_nv12_avx2_internal<1>
	DB	05fH
	DB	072H
	DB	061H
	DB	06eH
	DB	067H
	DB	065H
	DB	00H
	ORG $+8
??$copy_nv12_to_nv12_avx2_internal@$00@@YAXPEAPEAXPEAPEBXHHHHHHHHPEAH@Z$rtcVarDesc DD 058H ; copy_nv12_to_nv12_avx2_internal<1>
	DD	0cH
	DQ	FLAT:??$copy_nv12_to_nv12_avx2_internal@$00@@YAXPEAPEAXPEAPEBXHHHHHHHHPEAH@Z$rtcName$0
	ORG $+48
??$copy_nv12_to_nv12_avx2_internal@$00@@YAXPEAPEAXPEAPEBXHHHHHHHHPEAH@Z$rtcFrameData DD 01H ; copy_nv12_to_nv12_avx2_internal<1>
	DD	00H
	DQ	FLAT:??$copy_nv12_to_nv12_avx2_internal@$00@@YAXPEAPEAXPEAPEBXHHHHHHHHPEAH@Z$rtcVarDesc
CONST	ENDS
;	COMDAT xdata
xdata	SEGMENT
$unwind$??$copy_nv12_to_nv12_avx2_internal@$0A@@@YAXPEAPEAXPEAPEBXHHHHHHHHPEAH@Z DD 044619H
	DD	019011dH
	DD	060157016H
	DD	imagerel __GSHandlerCheck
	DD	0b8H
xdata	ENDS
;	COMDAT CONST
CONST	SEGMENT
??$copy_nv12_to_nv12_avx2_internal@$0A@@@YAXPEAPEAXPEAPEBXHHHHHHHHPEAH@Z$rtcName$0 DB 079H ; copy_nv12_to_nv12_avx2_internal<0>
	DB	05fH
	DB	072H
	DB	061H
	DB	06eH
	DB	067H
	DB	065H
	DB	00H
	ORG $+8
??$copy_nv12_to_nv12_avx2_internal@$0A@@@YAXPEAPEAXPEAPEBXHHHHHHHHPEAH@Z$rtcVarDesc DD 058H ; copy_nv12_to_nv12_avx2_internal<0>
	DD	0cH
	DQ	FLAT:??$copy_nv12_to_nv12_avx2_internal@$0A@@@YAXPEAPEAXPEAPEBXHHHHHHHHPEAH@Z$rtcName$0
	ORG $+48
??$copy_nv12_to_nv12_avx2_internal@$0A@@@YAXPEAPEAXPEAPEBXHHHHHHHHPEAH@Z$rtcFrameData DD 01H ; copy_nv12_to_nv12_avx2_internal<0>
	DD	00H
	DQ	FLAT:??$copy_nv12_to_nv12_avx2_internal@$0A@@@YAXPEAPEAXPEAPEBXHHHHHHHHPEAH@Z$rtcVarDesc
CONST	ENDS
xdata	SEGMENT
$unwind$?thread_y_range@@YA?AUTHREAD_Y_RANGE@@HHHH@Z DD 033f19H
	DD	07015e219H
	DD	06014H
	DD	imagerel __GSHandlerCheck
	DD	068H
$unwind$?separate_low_up@@YAXAEAT__m256i@@0@Z DD 043301H
	DD	0390113H
	DD	0500b700cH
$unwind$?copy_nv12_to_nv12_avx2@@YAXPEAPEAXPEAPEBXHHHHHHHHPEAH@Z DD 022d01H
	DD	07015b219H
$unwind$?copy_p010_to_p010_avx2@@YAXPEAPEAXPEAPEBXHHHHHHHHPEAH@Z DD 022d01H
	DD	07015b219H
$unwind$?convert_yuy2_to_nv12_avx2@@YAXPEAPEAXPEAPEBXHHHHHHHHPEAH@Z DD 054f19H
	DD	07a011eH
	DD	060167017H
	DD	05015H
	DD	imagerel __GSHandlerCheck
	DD	037cH
	DD	050H
	DD	020H
$unwind$?yuv422_to_420_i_interpolate@@YA?AT__m256i@@T1@0H@Z DD 043801H
	DD	0450118H
	DD	050107011H
$unwind$?convert_yuy2_to_nv12_i_avx2@@YAXPEAPEAXPEAPEBXHHHHHHHHPEAH@Z DD 054f19H
	DD	084011eH
	DD	060167017H
	DD	05015H
	DD	imagerel __GSHandlerCheck
	DD	03c4H
	DD	050H
	DD	020H
$unwind$?convert_yv12_to_nv12_avx2@@YAXPEAPEAXPEAPEBXHHHHHHHHPEAH@Z DD 022d01H
	DD	07015b219H
$unwind$??$convert_yv12_to_nv12_avx2_base@$0A@@@YAXPEAPEAXPEAPEBXHHHHHHHHPEAH@Z DD 054f19H
	DD	054011eH
	DD	060167017H
	DD	05015H
	DD	imagerel __GSHandlerCheck
	DD	024cH
	DD	050H
	DD	020H
$unwind$?convert_uv_yv12_to_nv12_avx2@@YAXPEAPEAXPEAPEBXHHHHHHHHPEAH@Z DD 022d01H
	DD	07015b219H
$unwind$??$convert_yv12_to_nv12_avx2_base@$00@@YAXPEAPEAXPEAPEBXHHHHHHHHPEAH@Z DD 054f19H
	DD	054011eH
	DD	060167017H
	DD	05015H
	DD	imagerel __GSHandlerCheck
	DD	024cH
	DD	050H
	DD	020H
$unwind$?convert_rgb24_to_rgb32_avx2@@YAXPEAPEAXPEAPEBXHHHHHHHHPEAH@Z DD 054f19H
	DD	09e011eH
	DD	060167017H
	DD	05015H
	DD	imagerel __GSHandlerCheck
	DD	049cH
	DD	050H
	DD	020H
$unwind$?convert_rgb24r_to_rgb32_avx2@@YAXPEAPEAXPEAPEBXHHHHHHHHPEAH@Z DD 054f19H
	DD	09e011eH
	DD	060167017H
	DD	05015H
	DD	imagerel __GSHandlerCheck
	DD	049cH
	DD	050H
	DD	020H
$unwind$?convert_rgb32_to_rgb32_avx2@@YAXPEAPEAXPEAPEBXHHHHHHHHPEAH@Z DD 044619H
	DD	017011dH
	DD	060157016H
	DD	imagerel __GSHandlerCheck
	DD	0a8H
$unwind$??$avx2_memcpy@$0A@@@YAXPEAEPEBEH@Z DD 043801H
	DD	0470118H
	DD	050107011H
$unwind$?convert_rgb32r_to_rgb32_avx2@@YAXPEAPEAXPEAPEBXHHHHHHHHPEAH@Z DD 044619H
	DD	017011dH
	DD	060157016H
	DD	imagerel __GSHandlerCheck
	DD	0a8H
$unwind$?convert_rgb24_to_rgb24_avx2@@YAXPEAPEAXPEAPEBXHHHHHHHHPEAH@Z DD 044619H
	DD	017011dH
	DD	060157016H
	DD	imagerel __GSHandlerCheck
	DD	0a8H
$unwind$?convert_rgb24r_to_rgb24_avx2@@YAXPEAPEAXPEAPEBXHHHHHHHHPEAH@Z DD 044619H
	DD	017011dH
	DD	060157016H
	DD	imagerel __GSHandlerCheck
	DD	0a8H
$unwind$?convert_yv12_to_p010_avx2@@YAXPEAPEAXPEAPEBXHHHHHHHHPEAH@Z DD 022d01H
	DD	07015b219H
$unwind$??$convert_yv12_to_p010_avx2_base@$0A@@@YAXPEAPEAXPEAPEBXHHHHHHHHPEAH@Z DD 054f19H
	DD	0d0011eH
	DD	060167017H
	DD	05015H
	DD	imagerel __GSHandlerCheck
	DD	062cH
	DD	050H
	DD	020H
$unwind$?convert_yv12_16_to_nv12_avx2@@YAXPEAPEAXPEAPEBXHHHHHHHHPEAH@Z DD 022d01H
	DD	07015b219H
$unwind$??$convert_yv12_high_to_nv12_avx2_base@$0BA@$0A@@@YAXPEAPEAXPEAPEBXHHHHHHHHPEAH@Z DD 054f19H
	DD	09c011eH
	DD	060167017H
	DD	05015H
	DD	imagerel __GSHandlerCheck
	DD	048cH
	DD	050H
	DD	020H
$unwind$?convert_yv12_14_to_nv12_avx2@@YAXPEAPEAXPEAPEBXHHHHHHHHPEAH@Z DD 022d01H
	DD	07015b219H
$unwind$??$convert_yv12_high_to_nv12_avx2_base@$0O@$0A@@@YAXPEAPEAXPEAPEBXHHHHHHHHPEAH@Z DD 054f19H
	DD	09c011eH
	DD	060167017H
	DD	05015H
	DD	imagerel __GSHandlerCheck
	DD	048cH
	DD	050H
	DD	020H
$unwind$?convert_yv12_12_to_nv12_avx2@@YAXPEAPEAXPEAPEBXHHHHHHHHPEAH@Z DD 022d01H
	DD	07015b219H
$unwind$??$convert_yv12_high_to_nv12_avx2_base@$0M@$0A@@@YAXPEAPEAXPEAPEBXHHHHHHHHPEAH@Z DD 054f19H
	DD	09c011eH
	DD	060167017H
	DD	05015H
	DD	imagerel __GSHandlerCheck
	DD	048cH
	DD	050H
	DD	020H
$unwind$?convert_yv12_10_to_nv12_avx2@@YAXPEAPEAXPEAPEBXHHHHHHHHPEAH@Z DD 022d01H
	DD	07015b219H
$unwind$??$convert_yv12_high_to_nv12_avx2_base@$09$0A@@@YAXPEAPEAXPEAPEBXHHHHHHHHPEAH@Z DD 054f19H
	DD	09c011eH
	DD	060167017H
	DD	05015H
	DD	imagerel __GSHandlerCheck
	DD	048cH
	DD	050H
	DD	020H
$unwind$?convert_yv12_09_to_nv12_avx2@@YAXPEAPEAXPEAPEBXHHHHHHHHPEAH@Z DD 022d01H
	DD	07015b219H
$unwind$??$convert_yv12_high_to_nv12_avx2_base@$08$0A@@@YAXPEAPEAXPEAPEBXHHHHHHHHPEAH@Z DD 054f19H
	DD	09c011eH
	DD	060167017H
	DD	05015H
	DD	imagerel __GSHandlerCheck
	DD	048cH
	DD	050H
	DD	020H
$unwind$?convert_yv12_16_to_p010_avx2@@YAXPEAPEAXPEAPEBXHHHHHHHHPEAH@Z DD 022d01H
	DD	07015b219H
$unwind$??$convert_yv12_high_to_p010_avx2_base@$0BA@$0A@@@YAXPEAPEAXPEAPEBXHHHHHHHHPEAH@Z DD 054f19H
	DD	070011eH
	DD	060167017H
	DD	05015H
	DD	imagerel __GSHandlerCheck
	DD	032cH
	DD	050H
	DD	020H
$unwind$?convert_yv12_14_to_p010_avx2@@YAXPEAPEAXPEAPEBXHHHHHHHHPEAH@Z DD 022d01H
	DD	07015b219H
$unwind$??$convert_yv12_high_to_p010_avx2_base@$0O@$0A@@@YAXPEAPEAXPEAPEBXHHHHHHHHPEAH@Z DD 054f19H
	DD	070011eH
	DD	060167017H
	DD	05015H
	DD	imagerel __GSHandlerCheck
	DD	032cH
	DD	050H
	DD	020H
$unwind$?convert_yv12_12_to_p010_avx2@@YAXPEAPEAXPEAPEBXHHHHHHHHPEAH@Z DD 022d01H
	DD	07015b219H
$unwind$??$convert_yv12_high_to_p010_avx2_base@$0M@$0A@@@YAXPEAPEAXPEAPEBXHHHHHHHHPEAH@Z DD 054f19H
	DD	070011eH
	DD	060167017H
	DD	05015H
	DD	imagerel __GSHandlerCheck
	DD	032cH
	DD	050H
	DD	020H
$unwind$?convert_yv12_10_to_p010_avx2@@YAXPEAPEAXPEAPEBXHHHHHHHHPEAH@Z DD 022d01H
	DD	07015b219H
$unwind$??$convert_yv12_high_to_p010_avx2_base@$09$0A@@@YAXPEAPEAXPEAPEBXHHHHHHHHPEAH@Z DD 054f19H
	DD	070011eH
	DD	060167017H
	DD	05015H
	DD	imagerel __GSHandlerCheck
	DD	032cH
	DD	050H
	DD	020H
$unwind$?convert_yv12_09_to_p010_avx2@@YAXPEAPEAXPEAPEBXHHHHHHHHPEAH@Z DD 022d01H
	DD	07015b219H
$unwind$??$convert_yv12_high_to_p010_avx2_base@$08$0A@@@YAXPEAPEAXPEAPEBXHHHHHHHHPEAH@Z DD 054f19H
	DD	070011eH
	DD	060167017H
	DD	05015H
	DD	imagerel __GSHandlerCheck
	DD	032cH
	DD	050H
	DD	020H
$unwind$?copy_yuv444_to_yuv444_avx2@@YAXPEAPEAXPEAPEBXHHHHHHHHPEAH@Z DD 044619H
	DD	019011dH
	DD	060157016H
	DD	imagerel __GSHandlerCheck
	DD	0b0H
$unwind$??$avx2_memcpy@$00@@YAXPEAEPEBEH@Z DD 043801H
	DD	0470118H
	DD	050107011H
$unwind$?convert_yuv444_16_to_yuv444_16_avx2@@YAXPEAPEAXPEAPEBXHHHHHHHHPEAH@Z DD 022d01H
	DD	07015b219H
$unwind$??$convert_yuv444_high_to_yuv444_16_avx2_base@$0BA@@@YAXPEAPEAXPEAPEBXHHHHHHHHPEAH@Z DD 054f19H
	DD	02e011eH
	DD	060167017H
	DD	05015H
	DD	imagerel __GSHandlerCheck
	DD	011cH
	DD	050H
	DD	020H
$unwind$?convert_yuv444_14_to_yuv444_16_avx2@@YAXPEAPEAXPEAPEBXHHHHHHHHPEAH@Z DD 022d01H
	DD	07015b219H
$unwind$??$convert_yuv444_high_to_yuv444_16_avx2_base@$0O@@@YAXPEAPEAXPEAPEBXHHHHHHHHPEAH@Z DD 054f19H
	DD	02e011eH
	DD	060167017H
	DD	05015H
	DD	imagerel __GSHandlerCheck
	DD	011cH
	DD	050H
	DD	020H
$unwind$?convert_yuv444_12_to_yuv444_16_avx2@@YAXPEAPEAXPEAPEBXHHHHHHHHPEAH@Z DD 022d01H
	DD	07015b219H
$unwind$??$convert_yuv444_high_to_yuv444_16_avx2_base@$0M@@@YAXPEAPEAXPEAPEBXHHHHHHHHPEAH@Z DD 054f19H
	DD	02e011eH
	DD	060167017H
	DD	05015H
	DD	imagerel __GSHandlerCheck
	DD	011cH
	DD	050H
	DD	020H
$unwind$?convert_yuv444_10_to_yuv444_16_avx2@@YAXPEAPEAXPEAPEBXHHHHHHHHPEAH@Z DD 022d01H
	DD	07015b219H
$unwind$??$convert_yuv444_high_to_yuv444_16_avx2_base@$09@@YAXPEAPEAXPEAPEBXHHHHHHHHPEAH@Z DD 054f19H
	DD	02e011eH
	DD	060167017H
	DD	05015H
	DD	imagerel __GSHandlerCheck
	DD	011cH
	DD	050H
	DD	020H
$unwind$?convert_yuv444_09_to_yuv444_16_avx2@@YAXPEAPEAXPEAPEBXHHHHHHHHPEAH@Z DD 022d01H
	DD	07015b219H
$unwind$??$convert_yuv444_high_to_yuv444_16_avx2_base@$08@@YAXPEAPEAXPEAPEBXHHHHHHHHPEAH@Z DD 054f19H
	DD	02e011eH
	DD	060167017H
	DD	05015H
	DD	imagerel __GSHandlerCheck
	DD	011cH
	DD	050H
	DD	020H
$unwind$?convert_yuv444_to_yuv444_16_avx2@@YAXPEAPEAXPEAPEBXHHHHHHHHPEAH@Z DD 054f19H
	DD	042011eH
	DD	060167017H
	DD	05015H
	DD	imagerel __GSHandlerCheck
	DD	01bcH
	DD	050H
	DD	020H
$unwind$?convert_yuv444_16_to_yuv444_avx2@@YAXPEAPEAXPEAPEBXHHHHHHHHPEAH@Z DD 022d01H
	DD	07015b219H
$unwind$??$convert_yuv444_high_to_yuv444_avx2_base@$0BA@@@YAXPEAPEAXPEAPEBXHHHHHHHHPEAH@Z DD 054f19H
	DD	056011eH
	DD	060167017H
	DD	05015H
	DD	imagerel __GSHandlerCheck
	DD	025cH
	DD	050H
	DD	020H
$unwind$?convert_yuv444_14_to_yuv444_avx2@@YAXPEAPEAXPEAPEBXHHHHHHHHPEAH@Z DD 022d01H
	DD	07015b219H
$unwind$??$convert_yuv444_high_to_yuv444_avx2_base@$0O@@@YAXPEAPEAXPEAPEBXHHHHHHHHPEAH@Z DD 054f19H
	DD	056011eH
	DD	060167017H
	DD	05015H
	DD	imagerel __GSHandlerCheck
	DD	025cH
	DD	050H
	DD	020H
$unwind$?convert_yuv444_12_to_yuv444_avx2@@YAXPEAPEAXPEAPEBXHHHHHHHHPEAH@Z DD 022d01H
	DD	07015b219H
$unwind$??$convert_yuv444_high_to_yuv444_avx2_base@$0M@@@YAXPEAPEAXPEAPEBXHHHHHHHHPEAH@Z DD 054f19H
	DD	056011eH
	DD	060167017H
	DD	05015H
	DD	imagerel __GSHandlerCheck
	DD	025cH
	DD	050H
	DD	020H
$unwind$?convert_yuv444_10_to_yuv444_avx2@@YAXPEAPEAXPEAPEBXHHHHHHHHPEAH@Z DD 022d01H
	DD	07015b219H
$unwind$??$convert_yuv444_high_to_yuv444_avx2_base@$09@@YAXPEAPEAXPEAPEBXHHHHHHHHPEAH@Z DD 054f19H
	DD	056011eH
	DD	060167017H
	DD	05015H
	DD	imagerel __GSHandlerCheck
	DD	025cH
	DD	050H
	DD	020H
$unwind$?convert_yuv444_09_to_yuv444_avx2@@YAXPEAPEAXPEAPEBXHHHHHHHHPEAH@Z DD 022d01H
	DD	07015b219H
$unwind$??$convert_yuv444_high_to_yuv444_avx2_base@$08@@YAXPEAPEAXPEAPEBXHHHHHHHHPEAH@Z DD 054f19H
	DD	056011eH
	DD	060167017H
	DD	05015H
	DD	imagerel __GSHandlerCheck
	DD	025cH
	DD	050H
	DD	020H
$unwind$?gather_y_uv_from_yc48@@YAXAEAT__m256i@@0T1@@Z DD 043801H
	DD	0410118H
	DD	050107011H
$unwind$?convert_y_range_from_yc48@@YA?AT__m256i@@T1@0HAEBT1@1@Z DD 043d01H
	DD	031011dH
	DD	050157016H
$unwind$?convert_uv_range_after_adding_offset@@YA?AT__m256i@@T1@AEBT1@H11@Z DD 043d01H
	DD	031011dH
	DD	050157016H
$unwind$?convert_uv_range_from_yc48@@YA?AT__m256i@@T1@AEBT1@1H11@Z DD 043d01H
	DD	01b011dH
	DD	050157016H
$unwind$?convert_uv_range_from_yc48_yuv420p@@YA?AT__m256i@@T1@0AEBT1@0H11@Z DD 043d01H
	DD	01f011dH
	DD	050157016H
$unwind$?convert_uv_range_from_yc48_420i@@YA?AT__m256i@@T1@0AEBT1@11H11@Z DD 043d01H
	DD	05d011dH
	DD	050157016H
$unwind$?convert_y_range_to_yc48@@YA?AT__m256i@@T1@@Z DD 042e01H
	DD	029010eH
	DD	050067007H
$unwind$?convert_uv_range_to_yc48@@YA?AT__m256i@@T1@@Z DD 042e01H
	DD	049010eH
	DD	050067007H
$unwind$?gather_y_u_v_from_yc48@@YAXAEAT__m256i@@00@Z DD 043801H
	DD	0610118H
	DD	050107011H
$unwind$?gather_y_u_v_to_yc48@@YAXAEAT__m256i@@00@Z DD 043801H
	DD	04d0118H
	DD	050107011H
$unwind$?convert_yc48_to_p010_avx2@@YAXPEAPEAXPEAPEBXHHHHHHHHPEAH@Z DD 054f19H
	DD	0ba011eH
	DD	060167017H
	DD	05015H
	DD	imagerel __GSHandlerCheck
	DD	0564H
	DD	060H
	DD	020H
$unwind$?convert_yc48_to_p010_i_avx2@@YAXPEAPEAXPEAPEBXHHHHHHHHPEAH@Z DD 054f19H
	DD	0ba011eH
	DD	060167017H
	DD	05015H
	DD	imagerel __GSHandlerCheck
	DD	0564H
	DD	060H
	DD	020H
$unwind$?convert_yc48_to_yuv444_16bit_avx2@@YAXPEAPEAXPEAPEBXHHHHHHHHPEAH@Z DD 054f19H
	DD	098011eH
	DD	060167017H
	DD	05015H
	DD	imagerel __GSHandlerCheck
	DD	0464H
	DD	050H
	DD	020H
$unwind$?convert_yuv444_16bit_to_yc48_avx2@@YAXPEAPEAXPEAPEBXHHHHHHHHPEAH@Z DD 054f19H
	DD	060011eH
	DD	060167017H
	DD	05015H
	DD	imagerel __GSHandlerCheck
	DD	02a4H
	DD	050H
	DD	020H
xdata	ENDS
CONST	SEGMENT
?thread_y_range@@YA?AUTHREAD_Y_RANGE@@HHHH@Z$rtcName$0 DB 079H ; thread_y_range
	DB	05fH
	DB	072H
	DB	061H
	DB	06eH
	DB	067H
	DB	065H
	DB	00H
?convert_yuy2_to_nv12_avx2@@YAXPEAPEAXPEAPEBXHHHHHHHHPEAH@Z$rtcName$0 DB 079H ; convert_yuy2_to_nv12_avx2
	DB	05fH
	DB	072H
	DB	061H
	DB	06eH
	DB	067H
	DB	065H
	DB	00H
?thread_y_range@@YA?AUTHREAD_Y_RANGE@@HHHH@Z$rtcVarDesc DD 038H ; thread_y_range
	DD	0cH
	DQ	FLAT:?thread_y_range@@YA?AUTHREAD_Y_RANGE@@HHHH@Z$rtcName$0
	ORG $+48
?thread_y_range@@YA?AUTHREAD_Y_RANGE@@HHHH@Z$rtcFrameData DD 01H ; thread_y_range
	DD	00H
	DQ	FLAT:?thread_y_range@@YA?AUTHREAD_Y_RANGE@@HHHH@Z$rtcVarDesc
?convert_yuy2_to_nv12_avx2@@YAXPEAPEAXPEAPEBXHHHHHHHHPEAH@Z$rtcName$1 DB 079H ; convert_yuy2_to_nv12_avx2
	DB	030H
	DB	00H
	ORG $+1
?convert_yuy2_to_nv12_avx2@@YAXPEAPEAXPEAPEBXHHHHHHHHPEAH@Z$rtcName$2 DB 079H ; convert_yuy2_to_nv12_avx2
	DB	031H
	DB	00H
	ORG $+1
?convert_yuy2_to_nv12_avx2@@YAXPEAPEAXPEAPEBXHHHHHHHHPEAH@Z$rtcFrameData DD 03H ; convert_yuy2_to_nv12_avx2
	DD	00H
	DQ	FLAT:?convert_yuy2_to_nv12_avx2@@YAXPEAPEAXPEAPEBXHHHHHHHHPEAH@Z$rtcVarDesc
?convert_yuy2_to_nv12_i_avx2@@YAXPEAPEAXPEAPEBXHHHHHHHHPEAH@Z$rtcName$0 DB 079H ; convert_yuy2_to_nv12_i_avx2
	DB	05fH
	DB	072H
	DB	061H
	DB	06eH
	DB	067H
	DB	065H
	DB	00H
?convert_yuy2_to_nv12_avx2@@YAXPEAPEAXPEAPEBXHHHHHHHHPEAH@Z$rtcVarDesc DD 0110H ; convert_yuy2_to_nv12_avx2
	DD	020H
	DQ	FLAT:?convert_yuy2_to_nv12_avx2@@YAXPEAPEAXPEAPEBXHHHHHHHHPEAH@Z$rtcName$2
	DD	0d0H
	DD	020H
	DQ	FLAT:?convert_yuy2_to_nv12_avx2@@YAXPEAPEAXPEAPEBXHHHHHHHHPEAH@Z$rtcName$1
	DD	058H
	DD	0cH
	DQ	FLAT:?convert_yuy2_to_nv12_avx2@@YAXPEAPEAXPEAPEBXHHHHHHHHPEAH@Z$rtcName$0
	ORG $+144
?convert_yuy2_to_nv12_i_avx2@@YAXPEAPEAXPEAPEBXHHHHHHHHPEAH@Z$rtcName$1 DB 079H ; convert_yuy2_to_nv12_i_avx2
	DB	030H
	DB	00H
	ORG $+1
?convert_yuy2_to_nv12_i_avx2@@YAXPEAPEAXPEAPEBXHHHHHHHHPEAH@Z$rtcName$2 DB 079H ; convert_yuy2_to_nv12_i_avx2
	DB	031H
	DB	00H
	ORG $+1
?convert_yuy2_to_nv12_i_avx2@@YAXPEAPEAXPEAPEBXHHHHHHHHPEAH@Z$rtcFrameData DD 03H ; convert_yuy2_to_nv12_i_avx2
	DD	00H
	DQ	FLAT:?convert_yuy2_to_nv12_i_avx2@@YAXPEAPEAXPEAPEBXHHHHHHHHPEAH@Z$rtcVarDesc
??$convert_yv12_to_nv12_avx2_base@$0A@@@YAXPEAPEAXPEAPEBXHHHHHHHHPEAH@Z$rtcName$0 DB 079H ; convert_yv12_to_nv12_avx2_base<0>
	DB	05fH
	DB	072H
	DB	061H
	DB	06eH
	DB	067H
	DB	065H
	DB	00H
?convert_yuy2_to_nv12_i_avx2@@YAXPEAPEAXPEAPEBXHHHHHHHHPEAH@Z$rtcVarDesc DD 0110H ; convert_yuy2_to_nv12_i_avx2
	DD	020H
	DQ	FLAT:?convert_yuy2_to_nv12_i_avx2@@YAXPEAPEAXPEAPEBXHHHHHHHHPEAH@Z$rtcName$2
	DD	0d0H
	DD	020H
	DQ	FLAT:?convert_yuy2_to_nv12_i_avx2@@YAXPEAPEAXPEAPEBXHHHHHHHHPEAH@Z$rtcName$1
	DD	058H
	DD	0cH
	DQ	FLAT:?convert_yuy2_to_nv12_i_avx2@@YAXPEAPEAXPEAPEBXHHHHHHHHPEAH@Z$rtcName$0
	ORG $+144
??$convert_yv12_to_nv12_avx2_base@$0A@@@YAXPEAPEAXPEAPEBXHHHHHHHHPEAH@Z$rtcName$1 DB 075H ; convert_yv12_to_nv12_avx2_base<0>
	DB	076H
	DB	05fH
	DB	072H
	DB	061H
	DB	06eH
	DB	067H
	DB	065H
	DB	00H
	ORG $+7
??$convert_yv12_to_nv12_avx2_base@$0A@@@YAXPEAPEAXPEAPEBXHHHHHHHHPEAH@Z$rtcVarDesc DD 0a8H ; convert_yv12_to_nv12_avx2_base<0>
	DD	0cH
	DQ	FLAT:??$convert_yv12_to_nv12_avx2_base@$0A@@@YAXPEAPEAXPEAPEBXHHHHHHHHPEAH@Z$rtcName$1
	DD	048H
	DD	0cH
	DQ	FLAT:??$convert_yv12_to_nv12_avx2_base@$0A@@@YAXPEAPEAXPEAPEBXHHHHHHHHPEAH@Z$rtcName$0
	ORG $+96
??$convert_yv12_to_nv12_avx2_base@$0A@@@YAXPEAPEAXPEAPEBXHHHHHHHHPEAH@Z$rtcFrameData DD 02H ; convert_yv12_to_nv12_avx2_base<0>
	DD	00H
	DQ	FLAT:??$convert_yv12_to_nv12_avx2_base@$0A@@@YAXPEAPEAXPEAPEBXHHHHHHHHPEAH@Z$rtcVarDesc
??$convert_yv12_to_nv12_avx2_base@$00@@YAXPEAPEAXPEAPEBXHHHHHHHHPEAH@Z$rtcName$0 DB 079H ; convert_yv12_to_nv12_avx2_base<1>
	DB	05fH
	DB	072H
	DB	061H
	DB	06eH
	DB	067H
	DB	065H
	DB	00H
??$convert_yv12_to_nv12_avx2_base@$00@@YAXPEAPEAXPEAPEBXHHHHHHHHPEAH@Z$rtcName$1 DB 075H ; convert_yv12_to_nv12_avx2_base<1>
	DB	076H
	DB	05fH
	DB	072H
	DB	061H
	DB	06eH
	DB	067H
	DB	065H
	DB	00H
	ORG $+7
??$convert_yv12_to_nv12_avx2_base@$00@@YAXPEAPEAXPEAPEBXHHHHHHHHPEAH@Z$rtcFrameData DD 02H ; convert_yv12_to_nv12_avx2_base<1>
	DD	00H
	DQ	FLAT:??$convert_yv12_to_nv12_avx2_base@$00@@YAXPEAPEAXPEAPEBXHHHHHHHHPEAH@Z$rtcVarDesc
?convert_rgb24_to_rgb32_avx2@@YAXPEAPEAXPEAPEBXHHHHHHHHPEAH@Z$rtcName$0 DB 079H ; convert_rgb24_to_rgb32_avx2
	DB	05fH
	DB	072H
	DB	061H
	DB	06eH
	DB	067H
	DB	065H
	DB	00H
??$convert_yv12_to_nv12_avx2_base@$00@@YAXPEAPEAXPEAPEBXHHHHHHHHPEAH@Z$rtcVarDesc DD 0a8H ; convert_yv12_to_nv12_avx2_base<1>
	DD	0cH
	DQ	FLAT:??$convert_yv12_to_nv12_avx2_base@$00@@YAXPEAPEAXPEAPEBXHHHHHHHHPEAH@Z$rtcName$1
	DD	048H
	DD	0cH
	DQ	FLAT:??$convert_yv12_to_nv12_avx2_base@$00@@YAXPEAPEAXPEAPEBXHHHHHHHHPEAH@Z$rtcName$0
	ORG $+96
?convert_rgb24_to_rgb32_avx2@@YAXPEAPEAXPEAPEBXHHHHHHHHPEAH@Z$rtcName$1 DB 04dH ; convert_rgb24_to_rgb32_avx2
	DB	041H
	DB	053H
	DB	04bH
	DB	05fH
	DB	052H
	DB	047H
	DB	042H
	DB	033H
	DB	05fH
	DB	054H
	DB	04fH
	DB	05fH
	DB	052H
	DB	047H
	DB	042H
	DB	034H
	DB	00H
	ORG $+6
?convert_rgb24_to_rgb32_avx2@@YAXPEAPEAXPEAPEBXHHHHHHHHPEAH@Z$rtcFrameData DD 02H ; convert_rgb24_to_rgb32_avx2
	DD	00H
	DQ	FLAT:?convert_rgb24_to_rgb32_avx2@@YAXPEAPEAXPEAPEBXHHHHHHHHPEAH@Z$rtcVarDesc
?convert_rgb24r_to_rgb32_avx2@@YAXPEAPEAXPEAPEBXHHHHHHHHPEAH@Z$rtcName$0 DB 079H ; convert_rgb24r_to_rgb32_avx2
	DB	05fH
	DB	072H
	DB	061H
	DB	06eH
	DB	067H
	DB	065H
	DB	00H
?convert_rgb24_to_rgb32_avx2@@YAXPEAPEAXPEAPEBXHHHHHHHHPEAH@Z$rtcVarDesc DD 0b0H ; convert_rgb24_to_rgb32_avx2
	DD	020H
	DQ	FLAT:?convert_rgb24_to_rgb32_avx2@@YAXPEAPEAXPEAPEBXHHHHHHHHPEAH@Z$rtcName$1
	DD	048H
	DD	0cH
	DQ	FLAT:?convert_rgb24_to_rgb32_avx2@@YAXPEAPEAXPEAPEBXHHHHHHHHPEAH@Z$rtcName$0
	ORG $+96
?convert_rgb24r_to_rgb32_avx2@@YAXPEAPEAXPEAPEBXHHHHHHHHPEAH@Z$rtcName$1 DB 04dH ; convert_rgb24r_to_rgb32_avx2
	DB	041H
	DB	053H
	DB	04bH
	DB	05fH
	DB	052H
	DB	047H
	DB	042H
	DB	033H
	DB	05fH
	DB	054H
	DB	04fH
	DB	05fH
	DB	052H
	DB	047H
	DB	042H
	DB	034H
	DB	00H
	ORG $+6
?convert_rgb24r_to_rgb32_avx2@@YAXPEAPEAXPEAPEBXHHHHHHHHPEAH@Z$rtcFrameData DD 02H ; convert_rgb24r_to_rgb32_avx2
	DD	00H
	DQ	FLAT:?convert_rgb24r_to_rgb32_avx2@@YAXPEAPEAXPEAPEBXHHHHHHHHPEAH@Z$rtcVarDesc
?convert_rgb32_to_rgb32_avx2@@YAXPEAPEAXPEAPEBXHHHHHHHHPEAH@Z$rtcName$0 DB 079H ; convert_rgb32_to_rgb32_avx2
	DB	05fH
	DB	072H
	DB	061H
	DB	06eH
	DB	067H
	DB	065H
	DB	00H
?convert_rgb24r_to_rgb32_avx2@@YAXPEAPEAXPEAPEBXHHHHHHHHPEAH@Z$rtcVarDesc DD 0b0H ; convert_rgb24r_to_rgb32_avx2
	DD	020H
	DQ	FLAT:?convert_rgb24r_to_rgb32_avx2@@YAXPEAPEAXPEAPEBXHHHHHHHHPEAH@Z$rtcName$1
	DD	048H
	DD	0cH
	DQ	FLAT:?convert_rgb24r_to_rgb32_avx2@@YAXPEAPEAXPEAPEBXHHHHHHHHPEAH@Z$rtcName$0
	ORG $+96
?convert_rgb32_to_rgb32_avx2@@YAXPEAPEAXPEAPEBXHHHHHHHHPEAH@Z$rtcVarDesc DD 048H ; convert_rgb32_to_rgb32_avx2
	DD	0cH
	DQ	FLAT:?convert_rgb32_to_rgb32_avx2@@YAXPEAPEAXPEAPEBXHHHHHHHHPEAH@Z$rtcName$0
	ORG $+48
?convert_rgb32_to_rgb32_avx2@@YAXPEAPEAXPEAPEBXHHHHHHHHPEAH@Z$rtcFrameData DD 01H ; convert_rgb32_to_rgb32_avx2
	DD	00H
	DQ	FLAT:?convert_rgb32_to_rgb32_avx2@@YAXPEAPEAXPEAPEBXHHHHHHHHPEAH@Z$rtcVarDesc
?convert_rgb32r_to_rgb32_avx2@@YAXPEAPEAXPEAPEBXHHHHHHHHPEAH@Z$rtcName$0 DB 079H ; convert_rgb32r_to_rgb32_avx2
	DB	05fH
	DB	072H
	DB	061H
	DB	06eH
	DB	067H
	DB	065H
	DB	00H
?convert_rgb24_to_rgb24_avx2@@YAXPEAPEAXPEAPEBXHHHHHHHHPEAH@Z$rtcName$0 DB 079H ; convert_rgb24_to_rgb24_avx2
	DB	05fH
	DB	072H
	DB	061H
	DB	06eH
	DB	067H
	DB	065H
	DB	00H
?convert_rgb32r_to_rgb32_avx2@@YAXPEAPEAXPEAPEBXHHHHHHHHPEAH@Z$rtcVarDesc DD 048H ; convert_rgb32r_to_rgb32_avx2
	DD	0cH
	DQ	FLAT:?convert_rgb32r_to_rgb32_avx2@@YAXPEAPEAXPEAPEBXHHHHHHHHPEAH@Z$rtcName$0
	ORG $+48
?convert_rgb32r_to_rgb32_avx2@@YAXPEAPEAXPEAPEBXHHHHHHHHPEAH@Z$rtcFrameData DD 01H ; convert_rgb32r_to_rgb32_avx2
	DD	00H
	DQ	FLAT:?convert_rgb32r_to_rgb32_avx2@@YAXPEAPEAXPEAPEBXHHHHHHHHPEAH@Z$rtcVarDesc
?convert_rgb24_to_rgb24_avx2@@YAXPEAPEAXPEAPEBXHHHHHHHHPEAH@Z$rtcVarDesc DD 048H ; convert_rgb24_to_rgb24_avx2
	DD	0cH
	DQ	FLAT:?convert_rgb24_to_rgb24_avx2@@YAXPEAPEAXPEAPEBXHHHHHHHHPEAH@Z$rtcName$0
	ORG $+48
?convert_rgb24_to_rgb24_avx2@@YAXPEAPEAXPEAPEBXHHHHHHHHPEAH@Z$rtcFrameData DD 01H ; convert_rgb24_to_rgb24_avx2
	DD	00H
	DQ	FLAT:?convert_rgb24_to_rgb24_avx2@@YAXPEAPEAXPEAPEBXHHHHHHHHPEAH@Z$rtcVarDesc
?convert_rgb24r_to_rgb24_avx2@@YAXPEAPEAXPEAPEBXHHHHHHHHPEAH@Z$rtcName$0 DB 079H ; convert_rgb24r_to_rgb24_avx2
	DB	05fH
	DB	072H
	DB	061H
	DB	06eH
	DB	067H
	DB	065H
	DB	00H
??$convert_yv12_to_p010_avx2_base@$0A@@@YAXPEAPEAXPEAPEBXHHHHHHHHPEAH@Z$rtcName$0 DB 079H ; convert_yv12_to_p010_avx2_base<0>
	DB	05fH
	DB	072H
	DB	061H
	DB	06eH
	DB	067H
	DB	065H
	DB	00H
?convert_rgb24r_to_rgb24_avx2@@YAXPEAPEAXPEAPEBXHHHHHHHHPEAH@Z$rtcVarDesc DD 048H ; convert_rgb24r_to_rgb24_avx2
	DD	0cH
	DQ	FLAT:?convert_rgb24r_to_rgb24_avx2@@YAXPEAPEAXPEAPEBXHHHHHHHHPEAH@Z$rtcName$0
	ORG $+48
?convert_rgb24r_to_rgb24_avx2@@YAXPEAPEAXPEAPEBXHHHHHHHHPEAH@Z$rtcFrameData DD 01H ; convert_rgb24r_to_rgb24_avx2
	DD	00H
	DQ	FLAT:?convert_rgb24r_to_rgb24_avx2@@YAXPEAPEAXPEAPEBXHHHHHHHHPEAH@Z$rtcVarDesc
??$convert_yv12_to_p010_avx2_base@$0A@@@YAXPEAPEAXPEAPEBXHHHHHHHHPEAH@Z$rtcName$1 DB 075H ; convert_yv12_to_p010_avx2_base<0>
	DB	076H
	DB	05fH
	DB	072H
	DB	061H
	DB	06eH
	DB	067H
	DB	065H
	DB	00H
	ORG $+7
??$convert_yv12_to_p010_avx2_base@$0A@@@YAXPEAPEAXPEAPEBXHHHHHHHHPEAH@Z$rtcVarDesc DD 0238H ; convert_yv12_to_p010_avx2_base<0>
	DD	0cH
	DQ	FLAT:??$convert_yv12_to_p010_avx2_base@$0A@@@YAXPEAPEAXPEAPEBXHHHHHHHHPEAH@Z$rtcName$1
	DD	048H
	DD	0cH
	DQ	FLAT:??$convert_yv12_to_p010_avx2_base@$0A@@@YAXPEAPEAXPEAPEBXHHHHHHHHPEAH@Z$rtcName$0
	ORG $+96
??$convert_yv12_to_p010_avx2_base@$0A@@@YAXPEAPEAXPEAPEBXHHHHHHHHPEAH@Z$rtcFrameData DD 02H ; convert_yv12_to_p010_avx2_base<0>
	DD	00H
	DQ	FLAT:??$convert_yv12_to_p010_avx2_base@$0A@@@YAXPEAPEAXPEAPEBXHHHHHHHHPEAH@Z$rtcVarDesc
??$convert_yv12_high_to_nv12_avx2_base@$0BA@$0A@@@YAXPEAPEAXPEAPEBXHHHHHHHHPEAH@Z$rtcName$0 DB 079H ; convert_yv12_high_to_nv12_avx2_base<16,0>
	DB	05fH
	DB	072H
	DB	061H
	DB	06eH
	DB	067H
	DB	065H
	DB	00H
??$convert_yv12_high_to_nv12_avx2_base@$0BA@$0A@@@YAXPEAPEAXPEAPEBXHHHHHHHHPEAH@Z$rtcName$1 DB 075H ; convert_yv12_high_to_nv12_avx2_base<16,0>
	DB	076H
	DB	05fH
	DB	072H
	DB	061H
	DB	06eH
	DB	067H
	DB	065H
	DB	00H
	ORG $+7
??$convert_yv12_high_to_nv12_avx2_base@$0BA@$0A@@@YAXPEAPEAXPEAPEBXHHHHHHHHPEAH@Z$rtcFrameData DD 02H ; convert_yv12_high_to_nv12_avx2_base<16,0>
	DD	00H
	DQ	FLAT:??$convert_yv12_high_to_nv12_avx2_base@$0BA@$0A@@@YAXPEAPEAXPEAPEBXHHHHHHHHPEAH@Z$rtcVarDesc
??$convert_yv12_high_to_nv12_avx2_base@$0O@$0A@@@YAXPEAPEAXPEAPEBXHHHHHHHHPEAH@Z$rtcName$0 DB 079H ; convert_yv12_high_to_nv12_avx2_base<14,0>
	DB	05fH
	DB	072H
	DB	061H
	DB	06eH
	DB	067H
	DB	065H
	DB	00H
??$convert_yv12_high_to_nv12_avx2_base@$0BA@$0A@@@YAXPEAPEAXPEAPEBXHHHHHHHHPEAH@Z$rtcVarDesc DD 0278H ; convert_yv12_high_to_nv12_avx2_base<16,0>
	DD	0cH
	DQ	FLAT:??$convert_yv12_high_to_nv12_avx2_base@$0BA@$0A@@@YAXPEAPEAXPEAPEBXHHHHHHHHPEAH@Z$rtcName$1
	DD	058H
	DD	0cH
	DQ	FLAT:??$convert_yv12_high_to_nv12_avx2_base@$0BA@$0A@@@YAXPEAPEAXPEAPEBXHHHHHHHHPEAH@Z$rtcName$0
	ORG $+96
??$convert_yv12_high_to_nv12_avx2_base@$0O@$0A@@@YAXPEAPEAXPEAPEBXHHHHHHHHPEAH@Z$rtcName$1 DB 075H ; convert_yv12_high_to_nv12_avx2_base<14,0>
	DB	076H
	DB	05fH
	DB	072H
	DB	061H
	DB	06eH
	DB	067H
	DB	065H
	DB	00H
	ORG $+7
??$convert_yv12_high_to_nv12_avx2_base@$0O@$0A@@@YAXPEAPEAXPEAPEBXHHHHHHHHPEAH@Z$rtcVarDesc DD 0278H ; convert_yv12_high_to_nv12_avx2_base<14,0>
	DD	0cH
	DQ	FLAT:??$convert_yv12_high_to_nv12_avx2_base@$0O@$0A@@@YAXPEAPEAXPEAPEBXHHHHHHHHPEAH@Z$rtcName$1
	DD	058H
	DD	0cH
	DQ	FLAT:??$convert_yv12_high_to_nv12_avx2_base@$0O@$0A@@@YAXPEAPEAXPEAPEBXHHHHHHHHPEAH@Z$rtcName$0
	ORG $+96
??$convert_yv12_high_to_nv12_avx2_base@$0O@$0A@@@YAXPEAPEAXPEAPEBXHHHHHHHHPEAH@Z$rtcFrameData DD 02H ; convert_yv12_high_to_nv12_avx2_base<14,0>
	DD	00H
	DQ	FLAT:??$convert_yv12_high_to_nv12_avx2_base@$0O@$0A@@@YAXPEAPEAXPEAPEBXHHHHHHHHPEAH@Z$rtcVarDesc
??$convert_yv12_high_to_nv12_avx2_base@$0M@$0A@@@YAXPEAPEAXPEAPEBXHHHHHHHHPEAH@Z$rtcName$0 DB 079H ; convert_yv12_high_to_nv12_avx2_base<12,0>
	DB	05fH
	DB	072H
	DB	061H
	DB	06eH
	DB	067H
	DB	065H
	DB	00H
??$convert_yv12_high_to_nv12_avx2_base@$0M@$0A@@@YAXPEAPEAXPEAPEBXHHHHHHHHPEAH@Z$rtcName$1 DB 075H ; convert_yv12_high_to_nv12_avx2_base<12,0>
	DB	076H
	DB	05fH
	DB	072H
	DB	061H
	DB	06eH
	DB	067H
	DB	065H
	DB	00H
	ORG $+7
??$convert_yv12_high_to_nv12_avx2_base@$0M@$0A@@@YAXPEAPEAXPEAPEBXHHHHHHHHPEAH@Z$rtcFrameData DD 02H ; convert_yv12_high_to_nv12_avx2_base<12,0>
	DD	00H
	DQ	FLAT:??$convert_yv12_high_to_nv12_avx2_base@$0M@$0A@@@YAXPEAPEAXPEAPEBXHHHHHHHHPEAH@Z$rtcVarDesc
??$convert_yv12_high_to_nv12_avx2_base@$09$0A@@@YAXPEAPEAXPEAPEBXHHHHHHHHPEAH@Z$rtcName$0 DB 079H ; convert_yv12_high_to_nv12_avx2_base<10,0>
	DB	05fH
	DB	072H
	DB	061H
	DB	06eH
	DB	067H
	DB	065H
	DB	00H
??$convert_yv12_high_to_nv12_avx2_base@$0M@$0A@@@YAXPEAPEAXPEAPEBXHHHHHHHHPEAH@Z$rtcVarDesc DD 0278H ; convert_yv12_high_to_nv12_avx2_base<12,0>
	DD	0cH
	DQ	FLAT:??$convert_yv12_high_to_nv12_avx2_base@$0M@$0A@@@YAXPEAPEAXPEAPEBXHHHHHHHHPEAH@Z$rtcName$1
	DD	058H
	DD	0cH
	DQ	FLAT:??$convert_yv12_high_to_nv12_avx2_base@$0M@$0A@@@YAXPEAPEAXPEAPEBXHHHHHHHHPEAH@Z$rtcName$0
	ORG $+96
??$convert_yv12_high_to_nv12_avx2_base@$09$0A@@@YAXPEAPEAXPEAPEBXHHHHHHHHPEAH@Z$rtcName$1 DB 075H ; convert_yv12_high_to_nv12_avx2_base<10,0>
	DB	076H
	DB	05fH
	DB	072H
	DB	061H
	DB	06eH
	DB	067H
	DB	065H
	DB	00H
	ORG $+7
??$convert_yv12_high_to_nv12_avx2_base@$09$0A@@@YAXPEAPEAXPEAPEBXHHHHHHHHPEAH@Z$rtcVarDesc DD 0278H ; convert_yv12_high_to_nv12_avx2_base<10,0>
	DD	0cH
	DQ	FLAT:??$convert_yv12_high_to_nv12_avx2_base@$09$0A@@@YAXPEAPEAXPEAPEBXHHHHHHHHPEAH@Z$rtcName$1
	DD	058H
	DD	0cH
	DQ	FLAT:??$convert_yv12_high_to_nv12_avx2_base@$09$0A@@@YAXPEAPEAXPEAPEBXHHHHHHHHPEAH@Z$rtcName$0
	ORG $+96
??$convert_yv12_high_to_nv12_avx2_base@$09$0A@@@YAXPEAPEAXPEAPEBXHHHHHHHHPEAH@Z$rtcFrameData DD 02H ; convert_yv12_high_to_nv12_avx2_base<10,0>
	DD	00H
	DQ	FLAT:??$convert_yv12_high_to_nv12_avx2_base@$09$0A@@@YAXPEAPEAXPEAPEBXHHHHHHHHPEAH@Z$rtcVarDesc
??$convert_yv12_high_to_nv12_avx2_base@$08$0A@@@YAXPEAPEAXPEAPEBXHHHHHHHHPEAH@Z$rtcName$0 DB 079H ; convert_yv12_high_to_nv12_avx2_base<9,0>
	DB	05fH
	DB	072H
	DB	061H
	DB	06eH
	DB	067H
	DB	065H
	DB	00H
??$convert_yv12_high_to_nv12_avx2_base@$08$0A@@@YAXPEAPEAXPEAPEBXHHHHHHHHPEAH@Z$rtcName$1 DB 075H ; convert_yv12_high_to_nv12_avx2_base<9,0>
	DB	076H
	DB	05fH
	DB	072H
	DB	061H
	DB	06eH
	DB	067H
	DB	065H
	DB	00H
	ORG $+7
??$convert_yv12_high_to_nv12_avx2_base@$08$0A@@@YAXPEAPEAXPEAPEBXHHHHHHHHPEAH@Z$rtcFrameData DD 02H ; convert_yv12_high_to_nv12_avx2_base<9,0>
	DD	00H
	DQ	FLAT:??$convert_yv12_high_to_nv12_avx2_base@$08$0A@@@YAXPEAPEAXPEAPEBXHHHHHHHHPEAH@Z$rtcVarDesc
??$convert_yv12_high_to_p010_avx2_base@$0BA@$0A@@@YAXPEAPEAXPEAPEBXHHHHHHHHPEAH@Z$rtcName$0 DB 079H ; convert_yv12_high_to_p010_avx2_base<16,0>
	DB	05fH
	DB	072H
	DB	061H
	DB	06eH
	DB	067H
	DB	065H
	DB	00H
??$convert_yv12_high_to_nv12_avx2_base@$08$0A@@@YAXPEAPEAXPEAPEBXHHHHHHHHPEAH@Z$rtcVarDesc DD 0278H ; convert_yv12_high_to_nv12_avx2_base<9,0>
	DD	0cH
	DQ	FLAT:??$convert_yv12_high_to_nv12_avx2_base@$08$0A@@@YAXPEAPEAXPEAPEBXHHHHHHHHPEAH@Z$rtcName$1
	DD	058H
	DD	0cH
	DQ	FLAT:??$convert_yv12_high_to_nv12_avx2_base@$08$0A@@@YAXPEAPEAXPEAPEBXHHHHHHHHPEAH@Z$rtcName$0
	ORG $+96
??$convert_yv12_high_to_p010_avx2_base@$0BA@$0A@@@YAXPEAPEAXPEAPEBXHHHHHHHHPEAH@Z$rtcName$1 DB 075H ; convert_yv12_high_to_p010_avx2_base<16,0>
	DB	076H
	DB	05fH
	DB	072H
	DB	061H
	DB	06eH
	DB	067H
	DB	065H
	DB	00H
	ORG $+7
??$convert_yv12_high_to_p010_avx2_base@$0BA@$0A@@@YAXPEAPEAXPEAPEBXHHHHHHHHPEAH@Z$rtcVarDesc DD 0138H ; convert_yv12_high_to_p010_avx2_base<16,0>
	DD	0cH
	DQ	FLAT:??$convert_yv12_high_to_p010_avx2_base@$0BA@$0A@@@YAXPEAPEAXPEAPEBXHHHHHHHHPEAH@Z$rtcName$1
	DD	058H
	DD	0cH
	DQ	FLAT:??$convert_yv12_high_to_p010_avx2_base@$0BA@$0A@@@YAXPEAPEAXPEAPEBXHHHHHHHHPEAH@Z$rtcName$0
	ORG $+96
??$convert_yv12_high_to_p010_avx2_base@$0BA@$0A@@@YAXPEAPEAXPEAPEBXHHHHHHHHPEAH@Z$rtcFrameData DD 02H ; convert_yv12_high_to_p010_avx2_base<16,0>
	DD	00H
	DQ	FLAT:??$convert_yv12_high_to_p010_avx2_base@$0BA@$0A@@@YAXPEAPEAXPEAPEBXHHHHHHHHPEAH@Z$rtcVarDesc
??$convert_yv12_high_to_p010_avx2_base@$0O@$0A@@@YAXPEAPEAXPEAPEBXHHHHHHHHPEAH@Z$rtcName$0 DB 079H ; convert_yv12_high_to_p010_avx2_base<14,0>
	DB	05fH
	DB	072H
	DB	061H
	DB	06eH
	DB	067H
	DB	065H
	DB	00H
??$convert_yv12_high_to_p010_avx2_base@$0O@$0A@@@YAXPEAPEAXPEAPEBXHHHHHHHHPEAH@Z$rtcName$1 DB 075H ; convert_yv12_high_to_p010_avx2_base<14,0>
	DB	076H
	DB	05fH
	DB	072H
	DB	061H
	DB	06eH
	DB	067H
	DB	065H
	DB	00H
	ORG $+7
??$convert_yv12_high_to_p010_avx2_base@$0O@$0A@@@YAXPEAPEAXPEAPEBXHHHHHHHHPEAH@Z$rtcFrameData DD 02H ; convert_yv12_high_to_p010_avx2_base<14,0>
	DD	00H
	DQ	FLAT:??$convert_yv12_high_to_p010_avx2_base@$0O@$0A@@@YAXPEAPEAXPEAPEBXHHHHHHHHPEAH@Z$rtcVarDesc
??$convert_yv12_high_to_p010_avx2_base@$0M@$0A@@@YAXPEAPEAXPEAPEBXHHHHHHHHPEAH@Z$rtcName$0 DB 079H ; convert_yv12_high_to_p010_avx2_base<12,0>
	DB	05fH
	DB	072H
	DB	061H
	DB	06eH
	DB	067H
	DB	065H
	DB	00H
??$convert_yv12_high_to_p010_avx2_base@$0O@$0A@@@YAXPEAPEAXPEAPEBXHHHHHHHHPEAH@Z$rtcVarDesc DD 0138H ; convert_yv12_high_to_p010_avx2_base<14,0>
	DD	0cH
	DQ	FLAT:??$convert_yv12_high_to_p010_avx2_base@$0O@$0A@@@YAXPEAPEAXPEAPEBXHHHHHHHHPEAH@Z$rtcName$1
	DD	058H
	DD	0cH
	DQ	FLAT:??$convert_yv12_high_to_p010_avx2_base@$0O@$0A@@@YAXPEAPEAXPEAPEBXHHHHHHHHPEAH@Z$rtcName$0
	ORG $+96
??$convert_yv12_high_to_p010_avx2_base@$0M@$0A@@@YAXPEAPEAXPEAPEBXHHHHHHHHPEAH@Z$rtcName$1 DB 075H ; convert_yv12_high_to_p010_avx2_base<12,0>
	DB	076H
	DB	05fH
	DB	072H
	DB	061H
	DB	06eH
	DB	067H
	DB	065H
	DB	00H
	ORG $+7
??$convert_yv12_high_to_p010_avx2_base@$0M@$0A@@@YAXPEAPEAXPEAPEBXHHHHHHHHPEAH@Z$rtcVarDesc DD 0138H ; convert_yv12_high_to_p010_avx2_base<12,0>
	DD	0cH
	DQ	FLAT:??$convert_yv12_high_to_p010_avx2_base@$0M@$0A@@@YAXPEAPEAXPEAPEBXHHHHHHHHPEAH@Z$rtcName$1
	DD	058H
	DD	0cH
	DQ	FLAT:??$convert_yv12_high_to_p010_avx2_base@$0M@$0A@@@YAXPEAPEAXPEAPEBXHHHHHHHHPEAH@Z$rtcName$0
	ORG $+96
??$convert_yv12_high_to_p010_avx2_base@$0M@$0A@@@YAXPEAPEAXPEAPEBXHHHHHHHHPEAH@Z$rtcFrameData DD 02H ; convert_yv12_high_to_p010_avx2_base<12,0>
	DD	00H
	DQ	FLAT:??$convert_yv12_high_to_p010_avx2_base@$0M@$0A@@@YAXPEAPEAXPEAPEBXHHHHHHHHPEAH@Z$rtcVarDesc
??$convert_yv12_high_to_p010_avx2_base@$09$0A@@@YAXPEAPEAXPEAPEBXHHHHHHHHPEAH@Z$rtcName$0 DB 079H ; convert_yv12_high_to_p010_avx2_base<10,0>
	DB	05fH
	DB	072H
	DB	061H
	DB	06eH
	DB	067H
	DB	065H
	DB	00H
??$convert_yv12_high_to_p010_avx2_base@$09$0A@@@YAXPEAPEAXPEAPEBXHHHHHHHHPEAH@Z$rtcName$1 DB 075H ; convert_yv12_high_to_p010_avx2_base<10,0>
	DB	076H
	DB	05fH
	DB	072H
	DB	061H
	DB	06eH
	DB	067H
	DB	065H
	DB	00H
	ORG $+7
??$convert_yv12_high_to_p010_avx2_base@$09$0A@@@YAXPEAPEAXPEAPEBXHHHHHHHHPEAH@Z$rtcFrameData DD 02H ; convert_yv12_high_to_p010_avx2_base<10,0>
	DD	00H
	DQ	FLAT:??$convert_yv12_high_to_p010_avx2_base@$09$0A@@@YAXPEAPEAXPEAPEBXHHHHHHHHPEAH@Z$rtcVarDesc
??$convert_yv12_high_to_p010_avx2_base@$08$0A@@@YAXPEAPEAXPEAPEBXHHHHHHHHPEAH@Z$rtcName$0 DB 079H ; convert_yv12_high_to_p010_avx2_base<9,0>
	DB	05fH
	DB	072H
	DB	061H
	DB	06eH
	DB	067H
	DB	065H
	DB	00H
??$convert_yv12_high_to_p010_avx2_base@$09$0A@@@YAXPEAPEAXPEAPEBXHHHHHHHHPEAH@Z$rtcVarDesc DD 0138H ; convert_yv12_high_to_p010_avx2_base<10,0>
	DD	0cH
	DQ	FLAT:??$convert_yv12_high_to_p010_avx2_base@$09$0A@@@YAXPEAPEAXPEAPEBXHHHHHHHHPEAH@Z$rtcName$1
	DD	058H
	DD	0cH
	DQ	FLAT:??$convert_yv12_high_to_p010_avx2_base@$09$0A@@@YAXPEAPEAXPEAPEBXHHHHHHHHPEAH@Z$rtcName$0
	ORG $+96
??$convert_yv12_high_to_p010_avx2_base@$08$0A@@@YAXPEAPEAXPEAPEBXHHHHHHHHPEAH@Z$rtcName$1 DB 075H ; convert_yv12_high_to_p010_avx2_base<9,0>
	DB	076H
	DB	05fH
	DB	072H
	DB	061H
	DB	06eH
	DB	067H
	DB	065H
	DB	00H
	ORG $+7
??$convert_yv12_high_to_p010_avx2_base@$08$0A@@@YAXPEAPEAXPEAPEBXHHHHHHHHPEAH@Z$rtcVarDesc DD 0138H ; convert_yv12_high_to_p010_avx2_base<9,0>
	DD	0cH
	DQ	FLAT:??$convert_yv12_high_to_p010_avx2_base@$08$0A@@@YAXPEAPEAXPEAPEBXHHHHHHHHPEAH@Z$rtcName$1
	DD	058H
	DD	0cH
	DQ	FLAT:??$convert_yv12_high_to_p010_avx2_base@$08$0A@@@YAXPEAPEAXPEAPEBXHHHHHHHHPEAH@Z$rtcName$0
	ORG $+96
??$convert_yv12_high_to_p010_avx2_base@$08$0A@@@YAXPEAPEAXPEAPEBXHHHHHHHHPEAH@Z$rtcFrameData DD 02H ; convert_yv12_high_to_p010_avx2_base<9,0>
	DD	00H
	DQ	FLAT:??$convert_yv12_high_to_p010_avx2_base@$08$0A@@@YAXPEAPEAXPEAPEBXHHHHHHHHPEAH@Z$rtcVarDesc
?copy_yuv444_to_yuv444_avx2@@YAXPEAPEAXPEAPEBXHHHHHHHHPEAH@Z$rtcName$0 DB 079H ; copy_yuv444_to_yuv444_avx2
	DB	05fH
	DB	072H
	DB	061H
	DB	06eH
	DB	067H
	DB	065H
	DB	00H
??$convert_yuv444_high_to_yuv444_16_avx2_base@$0BA@@@YAXPEAPEAXPEAPEBXHHHHHHHHPEAH@Z$rtcName$0 DB 079H ; convert_yuv444_high_to_yuv444_16_avx2_base<16>
	DB	05fH
	DB	072H
	DB	061H
	DB	06eH
	DB	067H
	DB	065H
	DB	00H
?copy_yuv444_to_yuv444_avx2@@YAXPEAPEAXPEAPEBXHHHHHHHHPEAH@Z$rtcVarDesc DD 048H ; copy_yuv444_to_yuv444_avx2
	DD	0cH
	DQ	FLAT:?copy_yuv444_to_yuv444_avx2@@YAXPEAPEAXPEAPEBXHHHHHHHHPEAH@Z$rtcName$0
	ORG $+48
?copy_yuv444_to_yuv444_avx2@@YAXPEAPEAXPEAPEBXHHHHHHHHPEAH@Z$rtcFrameData DD 01H ; copy_yuv444_to_yuv444_avx2
	DD	00H
	DQ	FLAT:?copy_yuv444_to_yuv444_avx2@@YAXPEAPEAXPEAPEBXHHHHHHHHPEAH@Z$rtcVarDesc
??$convert_yuv444_high_to_yuv444_16_avx2_base@$0BA@@@YAXPEAPEAXPEAPEBXHHHHHHHHPEAH@Z$rtcVarDesc DD 058H ; convert_yuv444_high_to_yuv444_16_avx2_base<16>
	DD	0cH
	DQ	FLAT:??$convert_yuv444_high_to_yuv444_16_avx2_base@$0BA@@@YAXPEAPEAXPEAPEBXHHHHHHHHPEAH@Z$rtcName$0
	ORG $+48
??$convert_yuv444_high_to_yuv444_16_avx2_base@$0BA@@@YAXPEAPEAXPEAPEBXHHHHHHHHPEAH@Z$rtcFrameData DD 01H ; convert_yuv444_high_to_yuv444_16_avx2_base<16>
	DD	00H
	DQ	FLAT:??$convert_yuv444_high_to_yuv444_16_avx2_base@$0BA@@@YAXPEAPEAXPEAPEBXHHHHHHHHPEAH@Z$rtcVarDesc
??$convert_yuv444_high_to_yuv444_16_avx2_base@$0O@@@YAXPEAPEAXPEAPEBXHHHHHHHHPEAH@Z$rtcName$0 DB 079H ; convert_yuv444_high_to_yuv444_16_avx2_base<14>
	DB	05fH
	DB	072H
	DB	061H
	DB	06eH
	DB	067H
	DB	065H
	DB	00H
??$convert_yuv444_high_to_yuv444_16_avx2_base@$0M@@@YAXPEAPEAXPEAPEBXHHHHHHHHPEAH@Z$rtcName$0 DB 079H ; convert_yuv444_high_to_yuv444_16_avx2_base<12>
	DB	05fH
	DB	072H
	DB	061H
	DB	06eH
	DB	067H
	DB	065H
	DB	00H
??$convert_yuv444_high_to_yuv444_16_avx2_base@$0O@@@YAXPEAPEAXPEAPEBXHHHHHHHHPEAH@Z$rtcVarDesc DD 058H ; convert_yuv444_high_to_yuv444_16_avx2_base<14>
	DD	0cH
	DQ	FLAT:??$convert_yuv444_high_to_yuv444_16_avx2_base@$0O@@@YAXPEAPEAXPEAPEBXHHHHHHHHPEAH@Z$rtcName$0
	ORG $+48
??$convert_yuv444_high_to_yuv444_16_avx2_base@$0O@@@YAXPEAPEAXPEAPEBXHHHHHHHHPEAH@Z$rtcFrameData DD 01H ; convert_yuv444_high_to_yuv444_16_avx2_base<14>
	DD	00H
	DQ	FLAT:??$convert_yuv444_high_to_yuv444_16_avx2_base@$0O@@@YAXPEAPEAXPEAPEBXHHHHHHHHPEAH@Z$rtcVarDesc
??$convert_yuv444_high_to_yuv444_16_avx2_base@$0M@@@YAXPEAPEAXPEAPEBXHHHHHHHHPEAH@Z$rtcVarDesc DD 058H ; convert_yuv444_high_to_yuv444_16_avx2_base<12>
	DD	0cH
	DQ	FLAT:??$convert_yuv444_high_to_yuv444_16_avx2_base@$0M@@@YAXPEAPEAXPEAPEBXHHHHHHHHPEAH@Z$rtcName$0
	ORG $+48
??$convert_yuv444_high_to_yuv444_16_avx2_base@$0M@@@YAXPEAPEAXPEAPEBXHHHHHHHHPEAH@Z$rtcFrameData DD 01H ; convert_yuv444_high_to_yuv444_16_avx2_base<12>
	DD	00H
	DQ	FLAT:??$convert_yuv444_high_to_yuv444_16_avx2_base@$0M@@@YAXPEAPEAXPEAPEBXHHHHHHHHPEAH@Z$rtcVarDesc
??$convert_yuv444_high_to_yuv444_16_avx2_base@$09@@YAXPEAPEAXPEAPEBXHHHHHHHHPEAH@Z$rtcName$0 DB 079H ; convert_yuv444_high_to_yuv444_16_avx2_base<10>
	DB	05fH
	DB	072H
	DB	061H
	DB	06eH
	DB	067H
	DB	065H
	DB	00H
??$convert_yuv444_high_to_yuv444_16_avx2_base@$08@@YAXPEAPEAXPEAPEBXHHHHHHHHPEAH@Z$rtcName$0 DB 079H ; convert_yuv444_high_to_yuv444_16_avx2_base<9>
	DB	05fH
	DB	072H
	DB	061H
	DB	06eH
	DB	067H
	DB	065H
	DB	00H
??$convert_yuv444_high_to_yuv444_16_avx2_base@$09@@YAXPEAPEAXPEAPEBXHHHHHHHHPEAH@Z$rtcVarDesc DD 058H ; convert_yuv444_high_to_yuv444_16_avx2_base<10>
	DD	0cH
	DQ	FLAT:??$convert_yuv444_high_to_yuv444_16_avx2_base@$09@@YAXPEAPEAXPEAPEBXHHHHHHHHPEAH@Z$rtcName$0
	ORG $+48
??$convert_yuv444_high_to_yuv444_16_avx2_base@$09@@YAXPEAPEAXPEAPEBXHHHHHHHHPEAH@Z$rtcFrameData DD 01H ; convert_yuv444_high_to_yuv444_16_avx2_base<10>
	DD	00H
	DQ	FLAT:??$convert_yuv444_high_to_yuv444_16_avx2_base@$09@@YAXPEAPEAXPEAPEBXHHHHHHHHPEAH@Z$rtcVarDesc
??$convert_yuv444_high_to_yuv444_16_avx2_base@$08@@YAXPEAPEAXPEAPEBXHHHHHHHHPEAH@Z$rtcVarDesc DD 058H ; convert_yuv444_high_to_yuv444_16_avx2_base<9>
	DD	0cH
	DQ	FLAT:??$convert_yuv444_high_to_yuv444_16_avx2_base@$08@@YAXPEAPEAXPEAPEBXHHHHHHHHPEAH@Z$rtcName$0
	ORG $+48
??$convert_yuv444_high_to_yuv444_16_avx2_base@$08@@YAXPEAPEAXPEAPEBXHHHHHHHHPEAH@Z$rtcFrameData DD 01H ; convert_yuv444_high_to_yuv444_16_avx2_base<9>
	DD	00H
	DQ	FLAT:??$convert_yuv444_high_to_yuv444_16_avx2_base@$08@@YAXPEAPEAXPEAPEBXHHHHHHHHPEAH@Z$rtcVarDesc
?convert_yuv444_to_yuv444_16_avx2@@YAXPEAPEAXPEAPEBXHHHHHHHHPEAH@Z$rtcName$0 DB 079H ; convert_yuv444_to_yuv444_16_avx2
	DB	05fH
	DB	072H
	DB	061H
	DB	06eH
	DB	067H
	DB	065H
	DB	00H
??$convert_yuv444_high_to_yuv444_avx2_base@$0BA@@@YAXPEAPEAXPEAPEBXHHHHHHHHPEAH@Z$rtcName$0 DB 079H ; convert_yuv444_high_to_yuv444_avx2_base<16>
	DB	05fH
	DB	072H
	DB	061H
	DB	06eH
	DB	067H
	DB	065H
	DB	00H
?convert_yuv444_to_yuv444_16_avx2@@YAXPEAPEAXPEAPEBXHHHHHHHHPEAH@Z$rtcVarDesc DD 058H ; convert_yuv444_to_yuv444_16_avx2
	DD	0cH
	DQ	FLAT:?convert_yuv444_to_yuv444_16_avx2@@YAXPEAPEAXPEAPEBXHHHHHHHHPEAH@Z$rtcName$0
	ORG $+48
?convert_yuv444_to_yuv444_16_avx2@@YAXPEAPEAXPEAPEBXHHHHHHHHPEAH@Z$rtcFrameData DD 01H ; convert_yuv444_to_yuv444_16_avx2
	DD	00H
	DQ	FLAT:?convert_yuv444_to_yuv444_16_avx2@@YAXPEAPEAXPEAPEBXHHHHHHHHPEAH@Z$rtcVarDesc
??$convert_yuv444_high_to_yuv444_avx2_base@$0BA@@@YAXPEAPEAXPEAPEBXHHHHHHHHPEAH@Z$rtcVarDesc DD 058H ; convert_yuv444_high_to_yuv444_avx2_base<16>
	DD	0cH
	DQ	FLAT:??$convert_yuv444_high_to_yuv444_avx2_base@$0BA@@@YAXPEAPEAXPEAPEBXHHHHHHHHPEAH@Z$rtcName$0
	ORG $+48
??$convert_yuv444_high_to_yuv444_avx2_base@$0BA@@@YAXPEAPEAXPEAPEBXHHHHHHHHPEAH@Z$rtcFrameData DD 01H ; convert_yuv444_high_to_yuv444_avx2_base<16>
	DD	00H
	DQ	FLAT:??$convert_yuv444_high_to_yuv444_avx2_base@$0BA@@@YAXPEAPEAXPEAPEBXHHHHHHHHPEAH@Z$rtcVarDesc
??$convert_yuv444_high_to_yuv444_avx2_base@$0O@@@YAXPEAPEAXPEAPEBXHHHHHHHHPEAH@Z$rtcName$0 DB 079H ; convert_yuv444_high_to_yuv444_avx2_base<14>
	DB	05fH
	DB	072H
	DB	061H
	DB	06eH
	DB	067H
	DB	065H
	DB	00H
??$convert_yuv444_high_to_yuv444_avx2_base@$0M@@@YAXPEAPEAXPEAPEBXHHHHHHHHPEAH@Z$rtcName$0 DB 079H ; convert_yuv444_high_to_yuv444_avx2_base<12>
	DB	05fH
	DB	072H
	DB	061H
	DB	06eH
	DB	067H
	DB	065H
	DB	00H
??$convert_yuv444_high_to_yuv444_avx2_base@$0O@@@YAXPEAPEAXPEAPEBXHHHHHHHHPEAH@Z$rtcVarDesc DD 058H ; convert_yuv444_high_to_yuv444_avx2_base<14>
	DD	0cH
	DQ	FLAT:??$convert_yuv444_high_to_yuv444_avx2_base@$0O@@@YAXPEAPEAXPEAPEBXHHHHHHHHPEAH@Z$rtcName$0
	ORG $+48
??$convert_yuv444_high_to_yuv444_avx2_base@$0O@@@YAXPEAPEAXPEAPEBXHHHHHHHHPEAH@Z$rtcFrameData DD 01H ; convert_yuv444_high_to_yuv444_avx2_base<14>
	DD	00H
	DQ	FLAT:??$convert_yuv444_high_to_yuv444_avx2_base@$0O@@@YAXPEAPEAXPEAPEBXHHHHHHHHPEAH@Z$rtcVarDesc
??$convert_yuv444_high_to_yuv444_avx2_base@$0M@@@YAXPEAPEAXPEAPEBXHHHHHHHHPEAH@Z$rtcVarDesc DD 058H ; convert_yuv444_high_to_yuv444_avx2_base<12>
	DD	0cH
	DQ	FLAT:??$convert_yuv444_high_to_yuv444_avx2_base@$0M@@@YAXPEAPEAXPEAPEBXHHHHHHHHPEAH@Z$rtcName$0
	ORG $+48
??$convert_yuv444_high_to_yuv444_avx2_base@$0M@@@YAXPEAPEAXPEAPEBXHHHHHHHHPEAH@Z$rtcFrameData DD 01H ; convert_yuv444_high_to_yuv444_avx2_base<12>
	DD	00H
	DQ	FLAT:??$convert_yuv444_high_to_yuv444_avx2_base@$0M@@@YAXPEAPEAXPEAPEBXHHHHHHHHPEAH@Z$rtcVarDesc
??$convert_yuv444_high_to_yuv444_avx2_base@$09@@YAXPEAPEAXPEAPEBXHHHHHHHHPEAH@Z$rtcName$0 DB 079H ; convert_yuv444_high_to_yuv444_avx2_base<10>
	DB	05fH
	DB	072H
	DB	061H
	DB	06eH
	DB	067H
	DB	065H
	DB	00H
??$convert_yuv444_high_to_yuv444_avx2_base@$08@@YAXPEAPEAXPEAPEBXHHHHHHHHPEAH@Z$rtcName$0 DB 079H ; convert_yuv444_high_to_yuv444_avx2_base<9>
	DB	05fH
	DB	072H
	DB	061H
	DB	06eH
	DB	067H
	DB	065H
	DB	00H
??$convert_yuv444_high_to_yuv444_avx2_base@$09@@YAXPEAPEAXPEAPEBXHHHHHHHHPEAH@Z$rtcVarDesc DD 058H ; convert_yuv444_high_to_yuv444_avx2_base<10>
	DD	0cH
	DQ	FLAT:??$convert_yuv444_high_to_yuv444_avx2_base@$09@@YAXPEAPEAXPEAPEBXHHHHHHHHPEAH@Z$rtcName$0
	ORG $+48
??$convert_yuv444_high_to_yuv444_avx2_base@$09@@YAXPEAPEAXPEAPEBXHHHHHHHHPEAH@Z$rtcFrameData DD 01H ; convert_yuv444_high_to_yuv444_avx2_base<10>
	DD	00H
	DQ	FLAT:??$convert_yuv444_high_to_yuv444_avx2_base@$09@@YAXPEAPEAXPEAPEBXHHHHHHHHPEAH@Z$rtcVarDesc
??$convert_yuv444_high_to_yuv444_avx2_base@$08@@YAXPEAPEAXPEAPEBXHHHHHHHHPEAH@Z$rtcVarDesc DD 058H ; convert_yuv444_high_to_yuv444_avx2_base<9>
	DD	0cH
	DQ	FLAT:??$convert_yuv444_high_to_yuv444_avx2_base@$08@@YAXPEAPEAXPEAPEBXHHHHHHHHPEAH@Z$rtcName$0
	ORG $+48
??$convert_yuv444_high_to_yuv444_avx2_base@$08@@YAXPEAPEAXPEAPEBXHHHHHHHHPEAH@Z$rtcFrameData DD 01H ; convert_yuv444_high_to_yuv444_avx2_base<9>
	DD	00H
	DQ	FLAT:??$convert_yuv444_high_to_yuv444_avx2_base@$08@@YAXPEAPEAXPEAPEBXHHHHHHHHPEAH@Z$rtcVarDesc
?convert_yc48_to_p010_avx2@@YAXPEAPEAXPEAPEBXHHHHHHHHPEAH@Z$rtcName$0 DB 079H ; convert_yc48_to_p010_avx2
	DB	043H
	DB	05fH
	DB	070H
	DB	077H
	DB	05fH
	DB	06fH
	DB	06eH
	DB	065H
	DB	00H
	ORG $+2
?convert_yc48_to_p010_avx2@@YAXPEAPEAXPEAPEBXHHHHHHHHPEAH@Z$rtcName$1 DB 079H ; convert_yc48_to_p010_avx2
	DB	043H
	DB	05fH
	DB	059H
	DB	043H
	DB	043H
	DB	00H
	ORG $+1
?convert_yc48_to_p010_avx2@@YAXPEAPEAXPEAPEBXHHHHHHHHPEAH@Z$rtcName$3 DB 079H ; convert_yc48_to_p010_avx2
	DB	031H
	DB	00H
	ORG $+1
?convert_yc48_to_p010_avx2@@YAXPEAPEAXPEAPEBXHHHHHHHHPEAH@Z$rtcName$2 DB 079H ; convert_yc48_to_p010_avx2
	DB	05fH
	DB	072H
	DB	061H
	DB	06eH
	DB	067H
	DB	065H
	DB	00H
?convert_yc48_to_p010_avx2@@YAXPEAPEAXPEAPEBXHHHHHHHHPEAH@Z$rtcName$4 DB 079H ; convert_yc48_to_p010_avx2
	DB	032H
	DB	00H
	ORG $+5
?convert_yc48_to_p010_avx2@@YAXPEAPEAXPEAPEBXHHHHHHHHPEAH@Z$rtcFrameData DD 05H ; convert_yc48_to_p010_avx2
	DD	00H
	DQ	FLAT:?convert_yc48_to_p010_avx2@@YAXPEAPEAXPEAPEBXHHHHHHHHPEAH@Z$rtcVarDesc
?convert_yc48_to_p010_i_avx2@@YAXPEAPEAXPEAPEBXHHHHHHHHPEAH@Z$rtcName$1 DB 079H ; convert_yc48_to_p010_i_avx2
	DB	043H
	DB	05fH
	DB	059H
	DB	043H
	DB	043H
	DB	00H
	ORG $+1
?convert_yc48_to_p010_avx2@@YAXPEAPEAXPEAPEBXHHHHHHHHPEAH@Z$rtcVarDesc DD 0260H ; convert_yc48_to_p010_avx2
	DD	020H
	DQ	FLAT:?convert_yc48_to_p010_avx2@@YAXPEAPEAXPEAPEBXHHHHHHHHPEAH@Z$rtcName$4
	DD	0220H
	DD	020H
	DQ	FLAT:?convert_yc48_to_p010_avx2@@YAXPEAPEAXPEAPEBXHHHHHHHHPEAH@Z$rtcName$3
	DD	0198H
	DD	0cH
	DQ	FLAT:?convert_yc48_to_p010_avx2@@YAXPEAPEAXPEAPEBXHHHHHHHHPEAH@Z$rtcName$2
	DD	0120H
	DD	020H
	DQ	FLAT:?convert_yc48_to_p010_avx2@@YAXPEAPEAXPEAPEBXHHHHHHHHPEAH@Z$rtcName$1
	DD	0a0H
	DD	020H
	DQ	FLAT:?convert_yc48_to_p010_avx2@@YAXPEAPEAXPEAPEBXHHHHHHHHPEAH@Z$rtcName$0
	ORG $+240
?convert_yc48_to_p010_i_avx2@@YAXPEAPEAXPEAPEBXHHHHHHHHPEAH@Z$rtcName$0 DB 079H ; convert_yc48_to_p010_i_avx2
	DB	043H
	DB	05fH
	DB	070H
	DB	077H
	DB	05fH
	DB	06fH
	DB	06eH
	DB	065H
	DB	00H
	ORG $+2
?convert_yc48_to_p010_i_avx2@@YAXPEAPEAXPEAPEBXHHHHHHHHPEAH@Z$rtcName$3 DB 079H ; convert_yc48_to_p010_i_avx2
	DB	031H
	DB	00H
	ORG $+1
?convert_yc48_to_p010_i_avx2@@YAXPEAPEAXPEAPEBXHHHHHHHHPEAH@Z$rtcName$2 DB 079H ; convert_yc48_to_p010_i_avx2
	DB	05fH
	DB	072H
	DB	061H
	DB	06eH
	DB	067H
	DB	065H
	DB	00H
?convert_yc48_to_p010_i_avx2@@YAXPEAPEAXPEAPEBXHHHHHHHHPEAH@Z$rtcName$4 DB 079H ; convert_yc48_to_p010_i_avx2
	DB	032H
	DB	00H
	ORG $+5
?convert_yc48_to_p010_i_avx2@@YAXPEAPEAXPEAPEBXHHHHHHHHPEAH@Z$rtcVarDesc DD 0260H ; convert_yc48_to_p010_i_avx2
	DD	020H
	DQ	FLAT:?convert_yc48_to_p010_i_avx2@@YAXPEAPEAXPEAPEBXHHHHHHHHPEAH@Z$rtcName$4
	DD	0220H
	DD	020H
	DQ	FLAT:?convert_yc48_to_p010_i_avx2@@YAXPEAPEAXPEAPEBXHHHHHHHHPEAH@Z$rtcName$3
	DD	0198H
	DD	0cH
	DQ	FLAT:?convert_yc48_to_p010_i_avx2@@YAXPEAPEAXPEAPEBXHHHHHHHHPEAH@Z$rtcName$2
	DD	0120H
	DD	020H
	DQ	FLAT:?convert_yc48_to_p010_i_avx2@@YAXPEAPEAXPEAPEBXHHHHHHHHPEAH@Z$rtcName$1
	DD	0a0H
	DD	020H
	DQ	FLAT:?convert_yc48_to_p010_i_avx2@@YAXPEAPEAXPEAPEBXHHHHHHHHPEAH@Z$rtcName$0
	ORG $+240
?convert_yc48_to_p010_i_avx2@@YAXPEAPEAXPEAPEBXHHHHHHHHPEAH@Z$rtcFrameData DD 05H ; convert_yc48_to_p010_i_avx2
	DD	00H
	DQ	FLAT:?convert_yc48_to_p010_i_avx2@@YAXPEAPEAXPEAPEBXHHHHHHHHPEAH@Z$rtcVarDesc
?convert_yc48_to_yuv444_16bit_avx2@@YAXPEAPEAXPEAPEBXHHHHHHHHPEAH@Z$rtcName$0 DB 079H ; convert_yc48_to_yuv444_16bit_avx2
	DB	05fH
	DB	072H
	DB	061H
	DB	06eH
	DB	067H
	DB	065H
	DB	00H
?convert_yc48_to_yuv444_16bit_avx2@@YAXPEAPEAXPEAPEBXHHHHHHHHPEAH@Z$rtcName$1 DB 079H ; convert_yc48_to_yuv444_16bit_avx2
	DB	043H
	DB	05fH
	DB	070H
	DB	077H
	DB	05fH
	DB	06fH
	DB	06eH
	DB	065H
	DB	00H
	ORG $+2
?convert_yc48_to_yuv444_16bit_avx2@@YAXPEAPEAXPEAPEBXHHHHHHHHPEAH@Z$rtcName$2 DB 079H ; convert_yc48_to_yuv444_16bit_avx2
	DB	043H
	DB	05fH
	DB	059H
	DB	043H
	DB	043H
	DB	00H
	ORG $+1
?convert_yc48_to_yuv444_16bit_avx2@@YAXPEAPEAXPEAPEBXHHHHHHHHPEAH@Z$rtcName$3 DB 079H ; convert_yc48_to_yuv444_16bit_avx2
	DB	031H
	DB	00H
	ORG $+1
?convert_yc48_to_yuv444_16bit_avx2@@YAXPEAPEAXPEAPEBXHHHHHHHHPEAH@Z$rtcName$4 DB 079H ; convert_yc48_to_yuv444_16bit_avx2
	DB	032H
	DB	00H
	ORG $+1
?convert_yc48_to_yuv444_16bit_avx2@@YAXPEAPEAXPEAPEBXHHHHHHHHPEAH@Z$rtcName$5 DB 079H ; convert_yc48_to_yuv444_16bit_avx2
	DB	033H
	DB	00H
	ORG $+1
?convert_yc48_to_yuv444_16bit_avx2@@YAXPEAPEAXPEAPEBXHHHHHHHHPEAH@Z$rtcFrameData DD 06H ; convert_yc48_to_yuv444_16bit_avx2
	DD	00H
	DQ	FLAT:?convert_yc48_to_yuv444_16bit_avx2@@YAXPEAPEAXPEAPEBXHHHHHHHHPEAH@Z$rtcVarDesc
?convert_yuv444_16bit_to_yc48_avx2@@YAXPEAPEAXPEAPEBXHHHHHHHHPEAH@Z$rtcName$0 DB 079H ; convert_yuv444_16bit_to_yc48_avx2
	DB	05fH
	DB	072H
	DB	061H
	DB	06eH
	DB	067H
	DB	065H
	DB	00H
?convert_yc48_to_yuv444_16bit_avx2@@YAXPEAPEAXPEAPEBXHHHHHHHHPEAH@Z$rtcVarDesc DD 0230H ; convert_yc48_to_yuv444_16bit_avx2
	DD	020H
	DQ	FLAT:?convert_yc48_to_yuv444_16bit_avx2@@YAXPEAPEAXPEAPEBXHHHHHHHHPEAH@Z$rtcName$5
	DD	01f0H
	DD	020H
	DQ	FLAT:?convert_yc48_to_yuv444_16bit_avx2@@YAXPEAPEAXPEAPEBXHHHHHHHHPEAH@Z$rtcName$4
	DD	01b0H
	DD	020H
	DQ	FLAT:?convert_yc48_to_yuv444_16bit_avx2@@YAXPEAPEAXPEAPEBXHHHHHHHHPEAH@Z$rtcName$3
	DD	0130H
	DD	020H
	DQ	FLAT:?convert_yc48_to_yuv444_16bit_avx2@@YAXPEAPEAXPEAPEBXHHHHHHHHPEAH@Z$rtcName$2
	DD	0b0H
	DD	020H
	DQ	FLAT:?convert_yc48_to_yuv444_16bit_avx2@@YAXPEAPEAXPEAPEBXHHHHHHHHPEAH@Z$rtcName$1
	DD	038H
	DD	0cH
	DQ	FLAT:?convert_yc48_to_yuv444_16bit_avx2@@YAXPEAPEAXPEAPEBXHHHHHHHHPEAH@Z$rtcName$0
	ORG $+288
?convert_yuv444_16bit_to_yc48_avx2@@YAXPEAPEAXPEAPEBXHHHHHHHHPEAH@Z$rtcName$1 DB 079H ; convert_yuv444_16bit_to_yc48_avx2
	DB	031H
	DB	00H
	ORG $+1
?convert_yuv444_16bit_to_yc48_avx2@@YAXPEAPEAXPEAPEBXHHHHHHHHPEAH@Z$rtcName$2 DB 079H ; convert_yuv444_16bit_to_yc48_avx2
	DB	032H
	DB	00H
	ORG $+1
?convert_yuv444_16bit_to_yc48_avx2@@YAXPEAPEAXPEAPEBXHHHHHHHHPEAH@Z$rtcName$3 DB 079H ; convert_yuv444_16bit_to_yc48_avx2
	DB	033H
	DB	00H
	ORG $+5
?convert_yuv444_16bit_to_yc48_avx2@@YAXPEAPEAXPEAPEBXHHHHHHHHPEAH@Z$rtcVarDesc DD 0130H ; convert_yuv444_16bit_to_yc48_avx2
	DD	020H
	DQ	FLAT:?convert_yuv444_16bit_to_yc48_avx2@@YAXPEAPEAXPEAPEBXHHHHHHHHPEAH@Z$rtcName$3
	DD	0f0H
	DD	020H
	DQ	FLAT:?convert_yuv444_16bit_to_yc48_avx2@@YAXPEAPEAXPEAPEBXHHHHHHHHPEAH@Z$rtcName$2
	DD	0b0H
	DD	020H
	DQ	FLAT:?convert_yuv444_16bit_to_yc48_avx2@@YAXPEAPEAXPEAPEBXHHHHHHHHPEAH@Z$rtcName$1
	DD	038H
	DD	0cH
	DQ	FLAT:?convert_yuv444_16bit_to_yc48_avx2@@YAXPEAPEAXPEAPEBXHHHHHHHHPEAH@Z$rtcName$0
	ORG $+192
?convert_yuv444_16bit_to_yc48_avx2@@YAXPEAPEAXPEAPEBXHHHHHHHHPEAH@Z$rtcFrameData DD 04H ; convert_yuv444_16bit_to_yc48_avx2
	DD	00H
	DQ	FLAT:?convert_yuv444_16bit_to_yc48_avx2@@YAXPEAPEAXPEAPEBXHHHHHHHHPEAH@Z$rtcVarDesc
CONST	ENDS
; Function compile flags: /Odtp /RTCsu
; File D:\work\intel\intel_codec\QSVPipeline\convert_csp_avx2.cpp
_TEXT	SEGMENT
y_range$ = 8
$T7 = 40
Y_line$ = 56
U_line$ = 64
V_line$ = 72
pixel$ = 80
y1$ = 128
y2$ = 192
y3$ = 256
y$8 = 292
Y$9 = 296
U$10 = 304
V$11 = 312
ycp_fin$12 = 320
ycp$13 = 328
$T14 = 352
$T15 = 384
$T16 = 416
$T17 = 448
$T18 = 480
$T19 = 512
$T20 = 552
$T21 = 576
$T22 = 608
$T23 = 640
__$ArrayPad$ = 672
dst$ = 800
src$ = 808
width$ = 816
src_y_pitch_byte$ = 824
src_uv_pitch_byte$ = 832
dst_y_pitch_byte$ = 840
height$ = 848
dst_height$ = 856
thread_id$ = 864
thread_n$ = 872
crop$ = 880
?convert_yuv444_16bit_to_yc48_avx2@@YAXPEAPEAXPEAPEBXHHHHHHHHPEAH@Z PROC ; convert_yuv444_16bit_to_yc48_avx2

; 1143 : void convert_yuv444_16bit_to_yc48_avx2(void **dst, const void **src, int width, int src_y_pitch_byte, int src_uv_pitch_byte, int dst_y_pitch_byte, int height, int dst_height, int thread_id, int thread_n, int *crop) {

$LN9:
  00000	44 89 4c 24 20	 mov	 DWORD PTR [rsp+32], r9d
  00005	44 89 44 24 18	 mov	 DWORD PTR [rsp+24], r8d
  0000a	48 89 54 24 10	 mov	 QWORD PTR [rsp+16], rdx
  0000f	48 89 4c 24 08	 mov	 QWORD PTR [rsp+8], rcx
  00014	55		 push	 rbp
  00015	56		 push	 rsi
  00016	57		 push	 rdi
  00017	48 81 ec 00 03
	00 00		 sub	 rsp, 768		; 00000300H
  0001e	48 8d 6c 24 50	 lea	 rbp, QWORD PTR [rsp+80]
  00023	48 83 e5 e0	 and	 rbp, -32		; ffffffffffffffe0H
  00027	48 8b fc	 mov	 rdi, rsp
  0002a	b9 c0 00 00 00	 mov	 ecx, 192		; 000000c0H
  0002f	b8 cc cc cc cc	 mov	 eax, -858993460		; ccccccccH
  00034	f3 ab		 rep stosd
  00036	48 8b 8c 24 20
	03 00 00	 mov	 rcx, QWORD PTR [rsp+800]
  0003e	48 8b 05 00 00
	00 00		 mov	 rax, QWORD PTR __security_cookie
  00045	48 33 c4	 xor	 rax, rsp
  00048	48 89 85 a0 02
	00 00		 mov	 QWORD PTR __$ArrayPad$[rbp], rax

; 1144 :     const auto y_range = thread_y_range(0, height, thread_id, thread_n);

  0004f	8b 84 24 68 03
	00 00		 mov	 eax, DWORD PTR thread_n$[rsp]
  00056	89 44 24 20	 mov	 DWORD PTR [rsp+32], eax
  0005a	44 8b 8c 24 60
	03 00 00	 mov	 r9d, DWORD PTR thread_id$[rsp]
  00062	44 8b 84 24 50
	03 00 00	 mov	 r8d, DWORD PTR height$[rsp]
  0006a	33 d2		 xor	 edx, edx
  0006c	48 8d 8d 28 02
	00 00		 lea	 rcx, QWORD PTR $T20[rbp]
  00073	e8 00 00 00 00	 call	 ?thread_y_range@@YA?AUTHREAD_Y_RANGE@@HHHH@Z ; thread_y_range
  00078	48 8d 4d 28	 lea	 rcx, QWORD PTR $T7[rbp]
  0007c	48 8b f9	 mov	 rdi, rcx
  0007f	48 8b f0	 mov	 rsi, rax
  00082	b9 0c 00 00 00	 mov	 ecx, 12
  00087	f3 a4		 rep movsb
  00089	48 8d 45 08	 lea	 rax, QWORD PTR y_range$[rbp]
  0008d	48 8d 4d 28	 lea	 rcx, QWORD PTR $T7[rbp]
  00091	48 8b f8	 mov	 rdi, rax
  00094	48 8b f1	 mov	 rsi, rcx
  00097	b9 0c 00 00 00	 mov	 ecx, 12
  0009c	f3 a4		 rep movsb

; 1145 :     char *Y_line = (char *)src[0] + src_y_pitch_byte * y_range.start_src;

  0009e	b8 08 00 00 00	 mov	 eax, 8
  000a3	48 6b c0 00	 imul	 rax, rax, 0
  000a7	8b 8c 24 38 03
	00 00		 mov	 ecx, DWORD PTR src_y_pitch_byte$[rsp]
  000ae	0f af 4d 08	 imul	 ecx, DWORD PTR y_range$[rbp]
  000b2	48 63 c9	 movsxd	 rcx, ecx
  000b5	48 8b 94 24 28
	03 00 00	 mov	 rdx, QWORD PTR src$[rsp]
  000bd	48 03 0c 02	 add	 rcx, QWORD PTR [rdx+rax]
  000c1	48 8b c1	 mov	 rax, rcx
  000c4	48 89 45 38	 mov	 QWORD PTR Y_line$[rbp], rax

; 1146 :     char *U_line = (char *)src[1] + src_y_pitch_byte * y_range.start_src;

  000c8	b8 08 00 00 00	 mov	 eax, 8
  000cd	48 6b c0 01	 imul	 rax, rax, 1
  000d1	8b 8c 24 38 03
	00 00		 mov	 ecx, DWORD PTR src_y_pitch_byte$[rsp]
  000d8	0f af 4d 08	 imul	 ecx, DWORD PTR y_range$[rbp]
  000dc	48 63 c9	 movsxd	 rcx, ecx
  000df	48 8b 94 24 28
	03 00 00	 mov	 rdx, QWORD PTR src$[rsp]
  000e7	48 03 0c 02	 add	 rcx, QWORD PTR [rdx+rax]
  000eb	48 8b c1	 mov	 rax, rcx
  000ee	48 89 45 40	 mov	 QWORD PTR U_line$[rbp], rax

; 1147 :     char *V_line = (char *)src[2] + src_y_pitch_byte * y_range.start_src;

  000f2	b8 08 00 00 00	 mov	 eax, 8
  000f7	48 6b c0 02	 imul	 rax, rax, 2
  000fb	8b 8c 24 38 03
	00 00		 mov	 ecx, DWORD PTR src_y_pitch_byte$[rsp]
  00102	0f af 4d 08	 imul	 ecx, DWORD PTR y_range$[rbp]
  00106	48 63 c9	 movsxd	 rcx, ecx
  00109	48 8b 94 24 28
	03 00 00	 mov	 rdx, QWORD PTR src$[rsp]
  00111	48 03 0c 02	 add	 rcx, QWORD PTR [rdx+rax]
  00115	48 8b c1	 mov	 rax, rcx
  00118	48 89 45 48	 mov	 QWORD PTR V_line$[rbp], rax

; 1148 :     char *pixel = (char *)dst[0] + dst_y_pitch_byte * y_range.start_dst;

  0011c	b8 08 00 00 00	 mov	 eax, 8
  00121	48 6b c0 00	 imul	 rax, rax, 0
  00125	8b 8c 24 48 03
	00 00		 mov	 ecx, DWORD PTR dst_y_pitch_byte$[rsp]
  0012c	0f af 4d 0c	 imul	 ecx, DWORD PTR y_range$[rbp+4]
  00130	48 63 c9	 movsxd	 rcx, ecx
  00133	48 8b 94 24 20
	03 00 00	 mov	 rdx, QWORD PTR dst$[rsp]
  0013b	48 03 0c 02	 add	 rcx, QWORD PTR [rdx+rax]
  0013f	48 8b c1	 mov	 rax, rcx
  00142	48 89 45 50	 mov	 QWORD PTR pixel$[rbp], rax

; 1149 :     __m256i y1, y2, y3;
; 1150 :     for (int y = 0; y < y_range.len; y++, pixel += dst_y_pitch_byte, Y_line += src_y_pitch_byte, U_line += src_y_pitch_byte, V_line += src_y_pitch_byte) {

  00146	c7 85 24 01 00
	00 00 00 00 00	 mov	 DWORD PTR y$8[rbp], 0
  00150	eb 66		 jmp	 SHORT $LN4@convert_yu
$LN2@convert_yu:
  00152	8b 85 24 01 00
	00		 mov	 eax, DWORD PTR y$8[rbp]
  00158	ff c0		 inc	 eax
  0015a	89 85 24 01 00
	00		 mov	 DWORD PTR y$8[rbp], eax
  00160	48 63 84 24 48
	03 00 00	 movsxd	 rax, DWORD PTR dst_y_pitch_byte$[rsp]
  00168	48 8b 4d 50	 mov	 rcx, QWORD PTR pixel$[rbp]
  0016c	48 03 c8	 add	 rcx, rax
  0016f	48 8b c1	 mov	 rax, rcx
  00172	48 89 45 50	 mov	 QWORD PTR pixel$[rbp], rax
  00176	48 63 84 24 38
	03 00 00	 movsxd	 rax, DWORD PTR src_y_pitch_byte$[rsp]
  0017e	48 8b 4d 38	 mov	 rcx, QWORD PTR Y_line$[rbp]
  00182	48 03 c8	 add	 rcx, rax
  00185	48 8b c1	 mov	 rax, rcx
  00188	48 89 45 38	 mov	 QWORD PTR Y_line$[rbp], rax
  0018c	48 63 84 24 38
	03 00 00	 movsxd	 rax, DWORD PTR src_y_pitch_byte$[rsp]
  00194	48 8b 4d 40	 mov	 rcx, QWORD PTR U_line$[rbp]
  00198	48 03 c8	 add	 rcx, rax
  0019b	48 8b c1	 mov	 rax, rcx
  0019e	48 89 45 40	 mov	 QWORD PTR U_line$[rbp], rax
  001a2	48 63 84 24 38
	03 00 00	 movsxd	 rax, DWORD PTR src_y_pitch_byte$[rsp]
  001aa	48 8b 4d 48	 mov	 rcx, QWORD PTR V_line$[rbp]
  001ae	48 03 c8	 add	 rcx, rax
  001b1	48 8b c1	 mov	 rax, rcx
  001b4	48 89 45 48	 mov	 QWORD PTR V_line$[rbp], rax
$LN4@convert_yu:
  001b8	8b 45 10	 mov	 eax, DWORD PTR y_range$[rbp+8]
  001bb	39 85 24 01 00
	00		 cmp	 DWORD PTR y$8[rbp], eax
  001c1	0f 8d 0d 02 00
	00		 jge	 $LN3@convert_yu

; 1151 :         short *Y = (short *)Y_line;

  001c7	48 8b 45 38	 mov	 rax, QWORD PTR Y_line$[rbp]
  001cb	48 89 85 28 01
	00 00		 mov	 QWORD PTR Y$9[rbp], rax

; 1152 :         short *U = (short *)U_line;

  001d2	48 8b 45 40	 mov	 rax, QWORD PTR U_line$[rbp]
  001d6	48 89 85 30 01
	00 00		 mov	 QWORD PTR U$10[rbp], rax

; 1153 :         short *V = (short *)V_line;

  001dd	48 8b 45 48	 mov	 rax, QWORD PTR V_line$[rbp]
  001e1	48 89 85 38 01
	00 00		 mov	 QWORD PTR V$11[rbp], rax

; 1154 :         short *const ycp_fin = (short *)pixel + width * 3;

  001e8	6b 84 24 30 03
	00 00 03	 imul	 eax, DWORD PTR width$[rsp], 3
  001f0	48 98		 cdqe
  001f2	48 8b 4d 50	 mov	 rcx, QWORD PTR pixel$[rbp]
  001f6	48 8d 04 41	 lea	 rax, QWORD PTR [rcx+rax*2]
  001fa	48 89 85 40 01
	00 00		 mov	 QWORD PTR ycp_fin$12[rbp], rax

; 1155 :         for (short *ycp = (short *)pixel; ycp < ycp_fin; ycp += 48, Y += 16, U += 16, V += 16) {

  00201	48 8b 45 50	 mov	 rax, QWORD PTR pixel$[rbp]
  00205	48 89 85 48 01
	00 00		 mov	 QWORD PTR ycp$13[rbp], rax
  0020c	eb 48		 jmp	 SHORT $LN7@convert_yu
$LN5@convert_yu:
  0020e	48 8b 85 48 01
	00 00		 mov	 rax, QWORD PTR ycp$13[rbp]
  00215	48 83 c0 60	 add	 rax, 96			; 00000060H
  00219	48 89 85 48 01
	00 00		 mov	 QWORD PTR ycp$13[rbp], rax
  00220	48 8b 85 28 01
	00 00		 mov	 rax, QWORD PTR Y$9[rbp]
  00227	48 83 c0 20	 add	 rax, 32			; 00000020H
  0022b	48 89 85 28 01
	00 00		 mov	 QWORD PTR Y$9[rbp], rax
  00232	48 8b 85 30 01
	00 00		 mov	 rax, QWORD PTR U$10[rbp]
  00239	48 83 c0 20	 add	 rax, 32			; 00000020H
  0023d	48 89 85 30 01
	00 00		 mov	 QWORD PTR U$10[rbp], rax
  00244	48 8b 85 38 01
	00 00		 mov	 rax, QWORD PTR V$11[rbp]
  0024b	48 83 c0 20	 add	 rax, 32			; 00000020H
  0024f	48 89 85 38 01
	00 00		 mov	 QWORD PTR V$11[rbp], rax
$LN7@convert_yu:
  00256	48 8b 85 40 01
	00 00		 mov	 rax, QWORD PTR ycp_fin$12[rbp]
  0025d	48 39 85 48 01
	00 00		 cmp	 QWORD PTR ycp$13[rbp], rax
  00264	0f 83 65 01 00
	00		 jae	 $LN6@convert_yu

; 1156 :             y1 = _mm256_loadu_si256((__m256i *)(Y));

  0026a	48 8b 85 28 01
	00 00		 mov	 rax, QWORD PTR Y$9[rbp]
  00271	c5 fe 6f 00	 vmovdqu ymm0, YMMWORD PTR [rax]
  00275	c5 fe 7f 85 60
	01 00 00	 vmovdqu YMMWORD PTR $T14[rbp], ymm0
  0027d	c5 fe 6f 85 60
	01 00 00	 vmovdqu ymm0, YMMWORD PTR $T14[rbp]
  00285	c5 fe 7f 85 80
	00 00 00	 vmovdqu YMMWORD PTR y1$[rbp], ymm0

; 1157 :             y2 = _mm256_loadu_si256((__m256i *)(U));

  0028d	48 8b 85 30 01
	00 00		 mov	 rax, QWORD PTR U$10[rbp]
  00294	c5 fe 6f 00	 vmovdqu ymm0, YMMWORD PTR [rax]
  00298	c5 fe 7f 85 80
	01 00 00	 vmovdqu YMMWORD PTR $T15[rbp], ymm0
  002a0	c5 fe 6f 85 80
	01 00 00	 vmovdqu ymm0, YMMWORD PTR $T15[rbp]
  002a8	c5 fe 7f 85 c0
	00 00 00	 vmovdqu YMMWORD PTR y2$[rbp], ymm0

; 1158 :             y3 = _mm256_loadu_si256((__m256i *)(V));

  002b0	48 8b 85 38 01
	00 00		 mov	 rax, QWORD PTR V$11[rbp]
  002b7	c5 fe 6f 00	 vmovdqu ymm0, YMMWORD PTR [rax]
  002bb	c5 fe 7f 85 a0
	01 00 00	 vmovdqu YMMWORD PTR $T16[rbp], ymm0
  002c3	c5 fe 6f 85 a0
	01 00 00	 vmovdqu ymm0, YMMWORD PTR $T16[rbp]
  002cb	c5 fe 7f 85 00
	01 00 00	 vmovdqu YMMWORD PTR y3$[rbp], ymm0

; 1159 :             y1 = convert_y_range_to_yc48(y1);

  002d3	c5 fe 6f 85 80
	00 00 00	 vmovdqu ymm0, YMMWORD PTR y1$[rbp]
  002db	c5 fe 7f 85 40
	02 00 00	 vmovdqu YMMWORD PTR $T21[rbp], ymm0
  002e3	48 8d 8d 40 02
	00 00		 lea	 rcx, QWORD PTR $T21[rbp]
  002ea	e8 00 00 00 00	 call	 ?convert_y_range_to_yc48@@YA?AT__m256i@@T1@@Z ; convert_y_range_to_yc48
  002ef	c5 fe 7f 85 c0
	01 00 00	 vmovdqu YMMWORD PTR $T17[rbp], ymm0
  002f7	c5 fe 6f 85 c0
	01 00 00	 vmovdqu ymm0, YMMWORD PTR $T17[rbp]
  002ff	c5 fe 7f 85 80
	00 00 00	 vmovdqu YMMWORD PTR y1$[rbp], ymm0

; 1160 :             y2 = convert_uv_range_to_yc48(y2);

  00307	c5 fe 6f 85 c0
	00 00 00	 vmovdqu ymm0, YMMWORD PTR y2$[rbp]
  0030f	c5 fe 7f 85 60
	02 00 00	 vmovdqu YMMWORD PTR $T22[rbp], ymm0
  00317	48 8d 8d 60 02
	00 00		 lea	 rcx, QWORD PTR $T22[rbp]
  0031e	e8 00 00 00 00	 call	 ?convert_uv_range_to_yc48@@YA?AT__m256i@@T1@@Z ; convert_uv_range_to_yc48
  00323	c5 fe 7f 85 e0
	01 00 00	 vmovdqu YMMWORD PTR $T18[rbp], ymm0
  0032b	c5 fe 6f 85 e0
	01 00 00	 vmovdqu ymm0, YMMWORD PTR $T18[rbp]
  00333	c5 fe 7f 85 c0
	00 00 00	 vmovdqu YMMWORD PTR y2$[rbp], ymm0

; 1161 :             y3 = convert_uv_range_to_yc48(y3);

  0033b	c5 fe 6f 85 00
	01 00 00	 vmovdqu ymm0, YMMWORD PTR y3$[rbp]
  00343	c5 fe 7f 85 80
	02 00 00	 vmovdqu YMMWORD PTR $T23[rbp], ymm0
  0034b	48 8d 8d 80 02
	00 00		 lea	 rcx, QWORD PTR $T23[rbp]
  00352	e8 00 00 00 00	 call	 ?convert_uv_range_to_yc48@@YA?AT__m256i@@T1@@Z ; convert_uv_range_to_yc48
  00357	c5 fe 7f 85 00
	02 00 00	 vmovdqu YMMWORD PTR $T19[rbp], ymm0
  0035f	c5 fe 6f 85 00
	02 00 00	 vmovdqu ymm0, YMMWORD PTR $T19[rbp]
  00367	c5 fe 7f 85 00
	01 00 00	 vmovdqu YMMWORD PTR y3$[rbp], ymm0

; 1162 :             gather_y_u_v_to_yc48(y1, y2, y3);

  0036f	4c 8d 85 00 01
	00 00		 lea	 r8, QWORD PTR y3$[rbp]
  00376	48 8d 95 c0 00
	00 00		 lea	 rdx, QWORD PTR y2$[rbp]
  0037d	48 8d 8d 80 00
	00 00		 lea	 rcx, QWORD PTR y1$[rbp]
  00384	e8 00 00 00 00	 call	 ?gather_y_u_v_to_yc48@@YAXAEAT__m256i@@00@Z ; gather_y_u_v_to_yc48

; 1163 :             _mm256_storeu_si256((__m256i *)(ycp +  0), y1);

  00389	48 8b 85 48 01
	00 00		 mov	 rax, QWORD PTR ycp$13[rbp]
  00390	c5 fe 6f 85 80
	00 00 00	 vmovdqu ymm0, YMMWORD PTR y1$[rbp]
  00398	c5 fe 7f 00	 vmovdqu YMMWORD PTR [rax], ymm0

; 1164 :             _mm256_storeu_si256((__m256i *)(ycp + 16), y2);

  0039c	48 8b 85 48 01
	00 00		 mov	 rax, QWORD PTR ycp$13[rbp]
  003a3	48 83 c0 20	 add	 rax, 32			; 00000020H
  003a7	c5 fe 6f 85 c0
	00 00 00	 vmovdqu ymm0, YMMWORD PTR y2$[rbp]
  003af	c5 fe 7f 00	 vmovdqu YMMWORD PTR [rax], ymm0

; 1165 :             _mm256_storeu_si256((__m256i *)(ycp + 32), y3);

  003b3	48 8b 85 48 01
	00 00		 mov	 rax, QWORD PTR ycp$13[rbp]
  003ba	48 83 c0 40	 add	 rax, 64			; 00000040H
  003be	c5 fe 6f 85 00
	01 00 00	 vmovdqu ymm0, YMMWORD PTR y3$[rbp]
  003c6	c5 fe 7f 00	 vmovdqu YMMWORD PTR [rax], ymm0

; 1166 :         }

  003ca	e9 3f fe ff ff	 jmp	 $LN5@convert_yu
$LN6@convert_yu:

; 1167 :     }

  003cf	e9 7e fd ff ff	 jmp	 $LN2@convert_yu
$LN3@convert_yu:

; 1168 : }

  003d4	48 8d 4d d0	 lea	 rcx, QWORD PTR [rbp-48]
  003d8	48 8d 15 00 00
	00 00		 lea	 rdx, OFFSET FLAT:?convert_yuv444_16bit_to_yc48_avx2@@YAXPEAPEAXPEAPEBXHHHHHHHHPEAH@Z$rtcFrameData
  003df	e8 00 00 00 00	 call	 _RTC_CheckStackVars
  003e4	48 8b 8d a0 02
	00 00		 mov	 rcx, QWORD PTR __$ArrayPad$[rbp]
  003eb	48 33 cc	 xor	 rcx, rsp
  003ee	e8 00 00 00 00	 call	 __security_check_cookie
  003f3	48 81 c4 00 03
	00 00		 add	 rsp, 768		; 00000300H
  003fa	5f		 pop	 rdi
  003fb	5e		 pop	 rsi
  003fc	5d		 pop	 rbp
  003fd	c3		 ret	 0
?convert_yuv444_16bit_to_yc48_avx2@@YAXPEAPEAXPEAPEBXHHHHHHHHPEAH@Z ENDP ; convert_yuv444_16bit_to_yc48_avx2
_TEXT	ENDS
; Function compile flags: /Odtp /RTCsu
; File D:\work\intel\intel_codec\QSVPipeline\convert_csp_avx2.cpp
_TEXT	SEGMENT
y_range$ = 8
$T9 = 40
Y_line$ = 56
U_line$ = 64
V_line$ = 72
pixel$ = 80
yC_pw_one$ = 128
$T10 = 192
yC_YCC$ = 256
$T11 = 320
y1$ = 384
y2$ = 448
y3$ = 512
y$12 = 548
Y$13 = 552
U$14 = 560
V$15 = 568
ycp_fin$16 = 576
ycp$17 = 584
$T18 = 608
$T19 = 640
$T20 = 672
$T21 = 704
$T22 = 736
$T23 = 768
$T24 = 800
$T25 = 832
$T26 = 864
$T27 = 896
$T28 = 928
$T29 = 968
$T30 = 992
$T31 = 1024
$T32 = 1056
$T33 = 1088
__$ArrayPad$ = 1120
dst$ = 1248
src$ = 1256
width$ = 1264
src_y_pitch_byte$ = 1272
src_uv_pitch_byte$ = 1280
dst_y_pitch_byte$ = 1288
height$ = 1296
dst_height$ = 1304
thread_id$ = 1312
thread_n$ = 1320
crop$ = 1328
?convert_yc48_to_yuv444_16bit_avx2@@YAXPEAPEAXPEAPEBXHHHHHHHHPEAH@Z PROC ; convert_yc48_to_yuv444_16bit_avx2

; 1114 : void convert_yc48_to_yuv444_16bit_avx2(void **dst, const void **src, int width, int src_y_pitch_byte, int src_uv_pitch_byte, int dst_y_pitch_byte, int height, int dst_height, int thread_id, int thread_n, int *crop) {

$LN9:
  00000	44 89 4c 24 20	 mov	 DWORD PTR [rsp+32], r9d
  00005	44 89 44 24 18	 mov	 DWORD PTR [rsp+24], r8d
  0000a	48 89 54 24 10	 mov	 QWORD PTR [rsp+16], rdx
  0000f	48 89 4c 24 08	 mov	 QWORD PTR [rsp+8], rcx
  00014	55		 push	 rbp
  00015	56		 push	 rsi
  00016	57		 push	 rdi
  00017	48 81 ec c0 04
	00 00		 sub	 rsp, 1216		; 000004c0H
  0001e	48 8d 6c 24 50	 lea	 rbp, QWORD PTR [rsp+80]
  00023	48 83 e5 e0	 and	 rbp, -32		; ffffffffffffffe0H
  00027	48 8b fc	 mov	 rdi, rsp
  0002a	b9 30 01 00 00	 mov	 ecx, 304		; 00000130H
  0002f	b8 cc cc cc cc	 mov	 eax, -858993460		; ccccccccH
  00034	f3 ab		 rep stosd
  00036	48 8b 8c 24 e0
	04 00 00	 mov	 rcx, QWORD PTR [rsp+1248]
  0003e	48 8b 05 00 00
	00 00		 mov	 rax, QWORD PTR __security_cookie
  00045	48 33 c4	 xor	 rax, rsp
  00048	48 89 85 60 04
	00 00		 mov	 QWORD PTR __$ArrayPad$[rbp], rax

; 1115 :     const auto y_range = thread_y_range(0, height, thread_id, thread_n);

  0004f	8b 84 24 28 05
	00 00		 mov	 eax, DWORD PTR thread_n$[rsp]
  00056	89 44 24 20	 mov	 DWORD PTR [rsp+32], eax
  0005a	44 8b 8c 24 20
	05 00 00	 mov	 r9d, DWORD PTR thread_id$[rsp]
  00062	44 8b 84 24 10
	05 00 00	 mov	 r8d, DWORD PTR height$[rsp]
  0006a	33 d2		 xor	 edx, edx
  0006c	48 8d 8d c8 03
	00 00		 lea	 rcx, QWORD PTR $T29[rbp]
  00073	e8 00 00 00 00	 call	 ?thread_y_range@@YA?AUTHREAD_Y_RANGE@@HHHH@Z ; thread_y_range
  00078	48 8d 4d 28	 lea	 rcx, QWORD PTR $T9[rbp]
  0007c	48 8b f9	 mov	 rdi, rcx
  0007f	48 8b f0	 mov	 rsi, rax
  00082	b9 0c 00 00 00	 mov	 ecx, 12
  00087	f3 a4		 rep movsb
  00089	48 8d 45 08	 lea	 rax, QWORD PTR y_range$[rbp]
  0008d	48 8d 4d 28	 lea	 rcx, QWORD PTR $T9[rbp]
  00091	48 8b f8	 mov	 rdi, rax
  00094	48 8b f1	 mov	 rsi, rcx
  00097	b9 0c 00 00 00	 mov	 ecx, 12
  0009c	f3 a4		 rep movsb

; 1116 :     char *Y_line = (char *)dst[0] + dst_y_pitch_byte * y_range.start_dst;

  0009e	b8 08 00 00 00	 mov	 eax, 8
  000a3	48 6b c0 00	 imul	 rax, rax, 0
  000a7	8b 8c 24 08 05
	00 00		 mov	 ecx, DWORD PTR dst_y_pitch_byte$[rsp]
  000ae	0f af 4d 0c	 imul	 ecx, DWORD PTR y_range$[rbp+4]
  000b2	48 63 c9	 movsxd	 rcx, ecx
  000b5	48 8b 94 24 e0
	04 00 00	 mov	 rdx, QWORD PTR dst$[rsp]
  000bd	48 03 0c 02	 add	 rcx, QWORD PTR [rdx+rax]
  000c1	48 8b c1	 mov	 rax, rcx
  000c4	48 89 45 38	 mov	 QWORD PTR Y_line$[rbp], rax

; 1117 :     char *U_line = (char *)dst[1] + dst_y_pitch_byte * y_range.start_dst;

  000c8	b8 08 00 00 00	 mov	 eax, 8
  000cd	48 6b c0 01	 imul	 rax, rax, 1
  000d1	8b 8c 24 08 05
	00 00		 mov	 ecx, DWORD PTR dst_y_pitch_byte$[rsp]
  000d8	0f af 4d 0c	 imul	 ecx, DWORD PTR y_range$[rbp+4]
  000dc	48 63 c9	 movsxd	 rcx, ecx
  000df	48 8b 94 24 e0
	04 00 00	 mov	 rdx, QWORD PTR dst$[rsp]
  000e7	48 03 0c 02	 add	 rcx, QWORD PTR [rdx+rax]
  000eb	48 8b c1	 mov	 rax, rcx
  000ee	48 89 45 40	 mov	 QWORD PTR U_line$[rbp], rax

; 1118 :     char *V_line = (char *)dst[2] + dst_y_pitch_byte * y_range.start_dst;

  000f2	b8 08 00 00 00	 mov	 eax, 8
  000f7	48 6b c0 02	 imul	 rax, rax, 2
  000fb	8b 8c 24 08 05
	00 00		 mov	 ecx, DWORD PTR dst_y_pitch_byte$[rsp]
  00102	0f af 4d 0c	 imul	 ecx, DWORD PTR y_range$[rbp+4]
  00106	48 63 c9	 movsxd	 rcx, ecx
  00109	48 8b 94 24 e0
	04 00 00	 mov	 rdx, QWORD PTR dst$[rsp]
  00111	48 03 0c 02	 add	 rcx, QWORD PTR [rdx+rax]
  00115	48 8b c1	 mov	 rax, rcx
  00118	48 89 45 48	 mov	 QWORD PTR V_line$[rbp], rax

; 1119 :     char *pixel = (char *)src[0] + src_y_pitch_byte * y_range.start_src;

  0011c	b8 08 00 00 00	 mov	 eax, 8
  00121	48 6b c0 00	 imul	 rax, rax, 0
  00125	8b 8c 24 f8 04
	00 00		 mov	 ecx, DWORD PTR src_y_pitch_byte$[rsp]
  0012c	0f af 4d 08	 imul	 ecx, DWORD PTR y_range$[rbp]
  00130	48 63 c9	 movsxd	 rcx, ecx
  00133	48 8b 94 24 e8
	04 00 00	 mov	 rdx, QWORD PTR src$[rsp]
  0013b	48 03 0c 02	 add	 rcx, QWORD PTR [rdx+rax]
  0013f	48 8b c1	 mov	 rax, rcx
  00142	48 89 45 50	 mov	 QWORD PTR pixel$[rbp], rax

; 1120 :     const __m256i yC_pw_one = _mm256_set1_epi16(1);

  00146	c5 fe 6f 05 00
	00 00 00	 vmovdqu ymm0, YMMWORD PTR __ymm@0001000100010001000100010001000100010001000100010001000100010001
  0014e	c5 fe 7f 85 c0
	00 00 00	 vmovdqu YMMWORD PTR $T10[rbp], ymm0
  00156	c5 fe 6f 85 c0
	00 00 00	 vmovdqu ymm0, YMMWORD PTR $T10[rbp]
  0015e	c5 fe 7f 85 80
	00 00 00	 vmovdqu YMMWORD PTR yC_pw_one$[rbp], ymm0

; 1121 :     const __m256i yC_YCC = _mm256_set1_epi32(1<<LSFT_YCC_16);

  00166	c5 fe 6f 05 00
	00 00 00	 vmovdqu ymm0, YMMWORD PTR __ymm@0000100000001000000010000000100000001000000010000000100000001000
  0016e	c5 fe 7f 85 40
	01 00 00	 vmovdqu YMMWORD PTR $T11[rbp], ymm0
  00176	c5 fe 6f 85 40
	01 00 00	 vmovdqu ymm0, YMMWORD PTR $T11[rbp]
  0017e	c5 fe 7f 85 00
	01 00 00	 vmovdqu YMMWORD PTR yC_YCC$[rbp], ymm0

; 1122 :     __m256i y1, y2, y3;
; 1123 :     for (int y = 0; y < y_range.len; y++, pixel += src_y_pitch_byte, Y_line += dst_y_pitch_byte, U_line += dst_y_pitch_byte, V_line += dst_y_pitch_byte) {

  00186	c7 85 24 02 00
	00 00 00 00 00	 mov	 DWORD PTR y$12[rbp], 0
  00190	eb 66		 jmp	 SHORT $LN4@convert_yc
$LN2@convert_yc:
  00192	8b 85 24 02 00
	00		 mov	 eax, DWORD PTR y$12[rbp]
  00198	ff c0		 inc	 eax
  0019a	89 85 24 02 00
	00		 mov	 DWORD PTR y$12[rbp], eax
  001a0	48 63 84 24 f8
	04 00 00	 movsxd	 rax, DWORD PTR src_y_pitch_byte$[rsp]
  001a8	48 8b 4d 50	 mov	 rcx, QWORD PTR pixel$[rbp]
  001ac	48 03 c8	 add	 rcx, rax
  001af	48 8b c1	 mov	 rax, rcx
  001b2	48 89 45 50	 mov	 QWORD PTR pixel$[rbp], rax
  001b6	48 63 84 24 08
	05 00 00	 movsxd	 rax, DWORD PTR dst_y_pitch_byte$[rsp]
  001be	48 8b 4d 38	 mov	 rcx, QWORD PTR Y_line$[rbp]
  001c2	48 03 c8	 add	 rcx, rax
  001c5	48 8b c1	 mov	 rax, rcx
  001c8	48 89 45 38	 mov	 QWORD PTR Y_line$[rbp], rax
  001cc	48 63 84 24 08
	05 00 00	 movsxd	 rax, DWORD PTR dst_y_pitch_byte$[rsp]
  001d4	48 8b 4d 40	 mov	 rcx, QWORD PTR U_line$[rbp]
  001d8	48 03 c8	 add	 rcx, rax
  001db	48 8b c1	 mov	 rax, rcx
  001de	48 89 45 40	 mov	 QWORD PTR U_line$[rbp], rax
  001e2	48 63 84 24 08
	05 00 00	 movsxd	 rax, DWORD PTR dst_y_pitch_byte$[rsp]
  001ea	48 8b 4d 48	 mov	 rcx, QWORD PTR V_line$[rbp]
  001ee	48 03 c8	 add	 rcx, rax
  001f1	48 8b c1	 mov	 rax, rcx
  001f4	48 89 45 48	 mov	 QWORD PTR V_line$[rbp], rax
$LN4@convert_yc:
  001f8	8b 45 10	 mov	 eax, DWORD PTR y_range$[rbp+8]
  001fb	39 85 24 02 00
	00		 cmp	 DWORD PTR y$12[rbp], eax
  00201	0f 8d af 02 00
	00		 jge	 $LN3@convert_yc

; 1124 :         short *Y = (short *)Y_line;

  00207	48 8b 45 38	 mov	 rax, QWORD PTR Y_line$[rbp]
  0020b	48 89 85 28 02
	00 00		 mov	 QWORD PTR Y$13[rbp], rax

; 1125 :         short *U = (short *)U_line;

  00212	48 8b 45 40	 mov	 rax, QWORD PTR U_line$[rbp]
  00216	48 89 85 30 02
	00 00		 mov	 QWORD PTR U$14[rbp], rax

; 1126 :         short *V = (short *)V_line;

  0021d	48 8b 45 48	 mov	 rax, QWORD PTR V_line$[rbp]
  00221	48 89 85 38 02
	00 00		 mov	 QWORD PTR V$15[rbp], rax

; 1127 :         short *const ycp_fin = (short *)pixel + width * 3;

  00228	6b 84 24 f0 04
	00 00 03	 imul	 eax, DWORD PTR width$[rsp], 3
  00230	48 98		 cdqe
  00232	48 8b 4d 50	 mov	 rcx, QWORD PTR pixel$[rbp]
  00236	48 8d 04 41	 lea	 rax, QWORD PTR [rcx+rax*2]
  0023a	48 89 85 40 02
	00 00		 mov	 QWORD PTR ycp_fin$16[rbp], rax

; 1128 :         for (short *ycp = (short *)pixel; ycp < ycp_fin; ycp += 48, Y += 16, U += 16, V += 16) {

  00241	48 8b 45 50	 mov	 rax, QWORD PTR pixel$[rbp]
  00245	48 89 85 48 02
	00 00		 mov	 QWORD PTR ycp$17[rbp], rax
  0024c	eb 48		 jmp	 SHORT $LN7@convert_yc
$LN5@convert_yc:
  0024e	48 8b 85 48 02
	00 00		 mov	 rax, QWORD PTR ycp$17[rbp]
  00255	48 83 c0 60	 add	 rax, 96			; 00000060H
  00259	48 89 85 48 02
	00 00		 mov	 QWORD PTR ycp$17[rbp], rax
  00260	48 8b 85 28 02
	00 00		 mov	 rax, QWORD PTR Y$13[rbp]
  00267	48 83 c0 20	 add	 rax, 32			; 00000020H
  0026b	48 89 85 28 02
	00 00		 mov	 QWORD PTR Y$13[rbp], rax
  00272	48 8b 85 30 02
	00 00		 mov	 rax, QWORD PTR U$14[rbp]
  00279	48 83 c0 20	 add	 rax, 32			; 00000020H
  0027d	48 89 85 30 02
	00 00		 mov	 QWORD PTR U$14[rbp], rax
  00284	48 8b 85 38 02
	00 00		 mov	 rax, QWORD PTR V$15[rbp]
  0028b	48 83 c0 20	 add	 rax, 32			; 00000020H
  0028f	48 89 85 38 02
	00 00		 mov	 QWORD PTR V$15[rbp], rax
$LN7@convert_yc:
  00296	48 8b 85 40 02
	00 00		 mov	 rax, QWORD PTR ycp_fin$16[rbp]
  0029d	48 39 85 48 02
	00 00		 cmp	 QWORD PTR ycp$17[rbp], rax
  002a4	0f 83 07 02 00
	00		 jae	 $LN6@convert_yc

; 1129 :             y1 = _mm256_loadu_si256((__m256i *)(ycp +  0));

  002aa	48 8b 85 48 02
	00 00		 mov	 rax, QWORD PTR ycp$17[rbp]
  002b1	c5 fe 6f 00	 vmovdqu ymm0, YMMWORD PTR [rax]
  002b5	c5 fe 7f 85 60
	02 00 00	 vmovdqu YMMWORD PTR $T18[rbp], ymm0
  002bd	c5 fe 6f 85 60
	02 00 00	 vmovdqu ymm0, YMMWORD PTR $T18[rbp]
  002c5	c5 fe 7f 85 80
	01 00 00	 vmovdqu YMMWORD PTR y1$[rbp], ymm0

; 1130 :             y2 = _mm256_loadu_si256((__m256i *)(ycp + 16));

  002cd	48 8b 85 48 02
	00 00		 mov	 rax, QWORD PTR ycp$17[rbp]
  002d4	48 83 c0 20	 add	 rax, 32			; 00000020H
  002d8	c5 fe 6f 00	 vmovdqu ymm0, YMMWORD PTR [rax]
  002dc	c5 fe 7f 85 80
	02 00 00	 vmovdqu YMMWORD PTR $T19[rbp], ymm0
  002e4	c5 fe 6f 85 80
	02 00 00	 vmovdqu ymm0, YMMWORD PTR $T19[rbp]
  002ec	c5 fe 7f 85 c0
	01 00 00	 vmovdqu YMMWORD PTR y2$[rbp], ymm0

; 1131 :             y3 = _mm256_loadu_si256((__m256i *)(ycp + 32));

  002f4	48 8b 85 48 02
	00 00		 mov	 rax, QWORD PTR ycp$17[rbp]
  002fb	48 83 c0 40	 add	 rax, 64			; 00000040H
  002ff	c5 fe 6f 00	 vmovdqu ymm0, YMMWORD PTR [rax]
  00303	c5 fe 7f 85 a0
	02 00 00	 vmovdqu YMMWORD PTR $T20[rbp], ymm0
  0030b	c5 fe 6f 85 a0
	02 00 00	 vmovdqu ymm0, YMMWORD PTR $T20[rbp]
  00313	c5 fe 7f 85 00
	02 00 00	 vmovdqu YMMWORD PTR y3$[rbp], ymm0

; 1132 : 
; 1133 :             gather_y_u_v_from_yc48(y1, y2, y3);

  0031b	4c 8d 85 00 02
	00 00		 lea	 r8, QWORD PTR y3$[rbp]
  00322	48 8d 95 c0 01
	00 00		 lea	 rdx, QWORD PTR y2$[rbp]
  00329	48 8d 8d 80 01
	00 00		 lea	 rcx, QWORD PTR y1$[rbp]
  00330	e8 00 00 00 00	 call	 ?gather_y_u_v_from_yc48@@YAXAEAT__m256i@@00@Z ; gather_y_u_v_from_yc48

; 1134 : 
; 1135 :             _mm256_storeu_si256((__m256i *)Y, convert_y_range_from_yc48(y1, yC_Y_L_MA_16, Y_L_RSH_16, yC_YCC, yC_pw_one));

  00335	c5 fd 6f 05 00
	00 00 00	 vmovdqa ymm0, YMMWORD PTR ?Array_Y_L_MA_16@@3QBFB
  0033d	c5 fe 7f 85 c0
	02 00 00	 vmovdqu YMMWORD PTR $T21[rbp], ymm0
  00345	c5 fe 6f 85 c0
	02 00 00	 vmovdqu ymm0, YMMWORD PTR $T21[rbp]
  0034d	c5 fe 7f 85 00
	04 00 00	 vmovdqu YMMWORD PTR $T31[rbp], ymm0
  00355	c5 fe 6f 85 80
	01 00 00	 vmovdqu ymm0, YMMWORD PTR y1$[rbp]
  0035d	c5 fe 7f 85 e0
	03 00 00	 vmovdqu YMMWORD PTR $T30[rbp], ymm0
  00365	48 8d 85 80 00
	00 00		 lea	 rax, QWORD PTR yC_pw_one$[rbp]
  0036c	48 89 44 24 20	 mov	 QWORD PTR [rsp+32], rax
  00371	4c 8d 8d 00 01
	00 00		 lea	 r9, QWORD PTR yC_YCC$[rbp]
  00378	41 b8 04 00 00
	00		 mov	 r8d, 4
  0037e	48 8d 95 00 04
	00 00		 lea	 rdx, QWORD PTR $T31[rbp]
  00385	48 8d 8d e0 03
	00 00		 lea	 rcx, QWORD PTR $T30[rbp]
  0038c	e8 00 00 00 00	 call	 ?convert_y_range_from_yc48@@YA?AT__m256i@@T1@0HAEBT1@1@Z ; convert_y_range_from_yc48
  00391	c5 fe 7f 85 e0
	02 00 00	 vmovdqu YMMWORD PTR $T22[rbp], ymm0
  00399	48 8b 85 28 02
	00 00		 mov	 rax, QWORD PTR Y$13[rbp]
  003a0	c5 fe 6f 85 e0
	02 00 00	 vmovdqu ymm0, YMMWORD PTR $T22[rbp]
  003a8	c5 fe 7f 00	 vmovdqu YMMWORD PTR [rax], ymm0

; 1136 :             _mm256_storeu_si256((__m256i *)U, convert_uv_range_from_yc48(y2, _mm256_set1_epi16(UV_OFFSET_x1), yC_UV_L_MA_16_444, UV_L_RSH_16_444, yC_YCC, yC_pw_one));

  003ac	c5 fd 6f 05 00
	00 00 00	 vmovdqa ymm0, YMMWORD PTR ?Array_UV_L_MA_16_444@@3QBFB
  003b4	c5 fe 7f 85 20
	03 00 00	 vmovdqu YMMWORD PTR $T24[rbp], ymm0
  003bc	c5 fe 6f 05 00
	00 00 00	 vmovdqu ymm0, YMMWORD PTR __ymm@0800080008000800080008000800080008000800080008000800080008000800
  003c4	c5 fe 7f 85 00
	03 00 00	 vmovdqu YMMWORD PTR $T23[rbp], ymm0
  003cc	c5 fe 6f 85 c0
	01 00 00	 vmovdqu ymm0, YMMWORD PTR y2$[rbp]
  003d4	c5 fe 7f 85 20
	04 00 00	 vmovdqu YMMWORD PTR $T32[rbp], ymm0
  003dc	48 8d 85 80 00
	00 00		 lea	 rax, QWORD PTR yC_pw_one$[rbp]
  003e3	48 89 44 24 28	 mov	 QWORD PTR [rsp+40], rax
  003e8	48 8d 85 00 01
	00 00		 lea	 rax, QWORD PTR yC_YCC$[rbp]
  003ef	48 89 44 24 20	 mov	 QWORD PTR [rsp+32], rax
  003f4	45 33 c9	 xor	 r9d, r9d
  003f7	4c 8d 85 20 03
	00 00		 lea	 r8, QWORD PTR $T24[rbp]
  003fe	48 8d 95 00 03
	00 00		 lea	 rdx, QWORD PTR $T23[rbp]
  00405	48 8d 8d 20 04
	00 00		 lea	 rcx, QWORD PTR $T32[rbp]
  0040c	e8 00 00 00 00	 call	 ?convert_uv_range_from_yc48@@YA?AT__m256i@@T1@AEBT1@1H11@Z ; convert_uv_range_from_yc48
  00411	c5 fe 7f 85 40
	03 00 00	 vmovdqu YMMWORD PTR $T25[rbp], ymm0
  00419	48 8b 85 30 02
	00 00		 mov	 rax, QWORD PTR U$14[rbp]
  00420	c5 fe 6f 85 40
	03 00 00	 vmovdqu ymm0, YMMWORD PTR $T25[rbp]
  00428	c5 fe 7f 00	 vmovdqu YMMWORD PTR [rax], ymm0

; 1137 :             _mm256_storeu_si256((__m256i *)V, convert_uv_range_from_yc48(y3, _mm256_set1_epi16(UV_OFFSET_x1), yC_UV_L_MA_16_444, UV_L_RSH_16_444, yC_YCC, yC_pw_one));

  0042c	c5 fd 6f 05 00
	00 00 00	 vmovdqa ymm0, YMMWORD PTR ?Array_UV_L_MA_16_444@@3QBFB
  00434	c5 fe 7f 85 80
	03 00 00	 vmovdqu YMMWORD PTR $T27[rbp], ymm0
  0043c	c5 fe 6f 05 00
	00 00 00	 vmovdqu ymm0, YMMWORD PTR __ymm@0800080008000800080008000800080008000800080008000800080008000800
  00444	c5 fe 7f 85 60
	03 00 00	 vmovdqu YMMWORD PTR $T26[rbp], ymm0
  0044c	c5 fe 6f 85 00
	02 00 00	 vmovdqu ymm0, YMMWORD PTR y3$[rbp]
  00454	c5 fe 7f 85 40
	04 00 00	 vmovdqu YMMWORD PTR $T33[rbp], ymm0
  0045c	48 8d 85 80 00
	00 00		 lea	 rax, QWORD PTR yC_pw_one$[rbp]
  00463	48 89 44 24 28	 mov	 QWORD PTR [rsp+40], rax
  00468	48 8d 85 00 01
	00 00		 lea	 rax, QWORD PTR yC_YCC$[rbp]
  0046f	48 89 44 24 20	 mov	 QWORD PTR [rsp+32], rax
  00474	45 33 c9	 xor	 r9d, r9d
  00477	4c 8d 85 80 03
	00 00		 lea	 r8, QWORD PTR $T27[rbp]
  0047e	48 8d 95 60 03
	00 00		 lea	 rdx, QWORD PTR $T26[rbp]
  00485	48 8d 8d 40 04
	00 00		 lea	 rcx, QWORD PTR $T33[rbp]
  0048c	e8 00 00 00 00	 call	 ?convert_uv_range_from_yc48@@YA?AT__m256i@@T1@AEBT1@1H11@Z ; convert_uv_range_from_yc48
  00491	c5 fe 7f 85 a0
	03 00 00	 vmovdqu YMMWORD PTR $T28[rbp], ymm0
  00499	48 8b 85 38 02
	00 00		 mov	 rax, QWORD PTR V$15[rbp]
  004a0	c5 fe 6f 85 a0
	03 00 00	 vmovdqu ymm0, YMMWORD PTR $T28[rbp]
  004a8	c5 fe 7f 00	 vmovdqu YMMWORD PTR [rax], ymm0

; 1138 :         }

  004ac	e9 9d fd ff ff	 jmp	 $LN5@convert_yc
$LN6@convert_yc:

; 1139 :     }

  004b1	e9 dc fc ff ff	 jmp	 $LN2@convert_yc
$LN3@convert_yc:

; 1140 :     _mm256_zeroupper();

  004b6	c5 f8 77	 vzeroupper

; 1141 : }

  004b9	48 8d 4d d0	 lea	 rcx, QWORD PTR [rbp-48]
  004bd	48 8d 15 00 00
	00 00		 lea	 rdx, OFFSET FLAT:?convert_yc48_to_yuv444_16bit_avx2@@YAXPEAPEAXPEAPEBXHHHHHHHHPEAH@Z$rtcFrameData
  004c4	e8 00 00 00 00	 call	 _RTC_CheckStackVars
  004c9	48 8b 8d 60 04
	00 00		 mov	 rcx, QWORD PTR __$ArrayPad$[rbp]
  004d0	48 33 cc	 xor	 rcx, rsp
  004d3	e8 00 00 00 00	 call	 __security_check_cookie
  004d8	48 81 c4 c0 04
	00 00		 add	 rsp, 1216		; 000004c0H
  004df	5f		 pop	 rdi
  004e0	5e		 pop	 rsi
  004e1	5d		 pop	 rbp
  004e2	c3		 ret	 0
?convert_yc48_to_yuv444_16bit_avx2@@YAXPEAPEAXPEAPEBXHHHHHHHHPEAH@Z ENDP ; convert_yc48_to_yuv444_16bit_avx2
_TEXT	ENDS
; Function compile flags: /Odtp /RTCsu
; File D:\work\intel\intel_codec\QSVPipeline\convert_csp_avx2.cpp
_TEXT	SEGMENT
x$ = 0
y$ = 4
i$ = 8
dst_Y$ = 16
dst_C$ = 24
pixel$ = 32
ycp$ = 40
ycpw$ = 48
Y$ = 56
C$ = 64
yC_pw_one$ = 96
$T8 = 160
yC_YCC$ = 224
$T9 = 288
dst_y_pitch$ = 320
y_range$ = 344
$T10 = 376
y0$ = 416
y1$ = 480
y2$ = 544
y3$ = 608
$T11 = 640
$T12 = 672
$T13 = 704
$T14 = 736
$T15 = 768
$T16 = 800
$T17 = 832
$T18 = 864
$T19 = 896
$T20 = 928
$T21 = 960
$T22 = 992
$T23 = 1024
$T24 = 1056
$T25 = 1096
$T26 = 1120
$T27 = 1152
$T28 = 1184
$T29 = 1216
$T30 = 1248
$T31 = 1280
$T32 = 1312
$T33 = 1344
__$ArrayPad$ = 1376
dst$ = 1520
src$ = 1528
width$ = 1536
src_y_pitch_byte$ = 1544
src_uv_pitch_byte$ = 1552
dst_y_pitch_byte$ = 1560
height$ = 1568
dst_height$ = 1576
thread_id$ = 1584
thread_n$ = 1592
crop$ = 1600
?convert_yc48_to_p010_i_avx2@@YAXPEAPEAXPEAPEBXHHHHHHHHPEAH@Z PROC ; convert_yc48_to_p010_i_avx2

; 1071 : void convert_yc48_to_p010_i_avx2(void **dst, const void **src, int width, int src_y_pitch_byte, int src_uv_pitch_byte, int dst_y_pitch_byte, int height, int dst_height, int thread_id, int thread_n, int *crop) {

$LN12:
  00000	44 89 4c 24 20	 mov	 DWORD PTR [rsp+32], r9d
  00005	44 89 44 24 18	 mov	 DWORD PTR [rsp+24], r8d
  0000a	48 89 54 24 10	 mov	 QWORD PTR [rsp+16], rdx
  0000f	48 89 4c 24 08	 mov	 QWORD PTR [rsp+8], rcx
  00014	55		 push	 rbp
  00015	56		 push	 rsi
  00016	57		 push	 rdi
  00017	48 81 ec d0 05
	00 00		 sub	 rsp, 1488		; 000005d0H
  0001e	48 8d 6c 24 60	 lea	 rbp, QWORD PTR [rsp+96]
  00023	48 83 e5 e0	 and	 rbp, -32		; ffffffffffffffe0H
  00027	48 8b fc	 mov	 rdi, rsp
  0002a	b9 74 01 00 00	 mov	 ecx, 372		; 00000174H
  0002f	b8 cc cc cc cc	 mov	 eax, -858993460		; ccccccccH
  00034	f3 ab		 rep stosd
  00036	48 8b 8c 24 f0
	05 00 00	 mov	 rcx, QWORD PTR [rsp+1520]
  0003e	48 8b 05 00 00
	00 00		 mov	 rax, QWORD PTR __security_cookie
  00045	48 33 c4	 xor	 rax, rsp
  00048	48 89 85 60 05
	00 00		 mov	 QWORD PTR __$ArrayPad$[rbp], rax

; 1072 :     int x, y, i;
; 1073 :     short *dst_Y = (short *)dst[0];

  0004f	b8 08 00 00 00	 mov	 eax, 8
  00054	48 6b c0 00	 imul	 rax, rax, 0
  00058	48 8b 8c 24 f0
	05 00 00	 mov	 rcx, QWORD PTR dst$[rsp]
  00060	48 8b 04 01	 mov	 rax, QWORD PTR [rcx+rax]
  00064	48 89 45 10	 mov	 QWORD PTR dst_Y$[rbp], rax

; 1074 :     short *dst_C = (short *)dst[1];

  00068	b8 08 00 00 00	 mov	 eax, 8
  0006d	48 6b c0 01	 imul	 rax, rax, 1
  00071	48 8b 8c 24 f0
	05 00 00	 mov	 rcx, QWORD PTR dst$[rsp]
  00079	48 8b 04 01	 mov	 rax, QWORD PTR [rcx+rax]
  0007d	48 89 45 18	 mov	 QWORD PTR dst_C$[rbp], rax

; 1075 :     const void  *pixel = src[0];

  00081	b8 08 00 00 00	 mov	 eax, 8
  00086	48 6b c0 00	 imul	 rax, rax, 0
  0008a	48 8b 8c 24 f8
	05 00 00	 mov	 rcx, QWORD PTR src$[rsp]
  00092	48 8b 04 01	 mov	 rax, QWORD PTR [rcx+rax]
  00096	48 89 45 20	 mov	 QWORD PTR pixel$[rbp], rax

; 1076 :     const short *ycp, *ycpw;
; 1077 :     short *Y = NULL, *C = NULL;

  0009a	48 c7 45 38 00
	00 00 00	 mov	 QWORD PTR Y$[rbp], 0
  000a2	48 c7 45 40 00
	00 00 00	 mov	 QWORD PTR C$[rbp], 0

; 1078 :     const __m256i yC_pw_one = _mm256_set1_epi16(1);

  000aa	c5 fe 6f 05 00
	00 00 00	 vmovdqu ymm0, YMMWORD PTR __ymm@0001000100010001000100010001000100010001000100010001000100010001
  000b2	c5 fe 7f 85 a0
	00 00 00	 vmovdqu YMMWORD PTR $T8[rbp], ymm0
  000ba	c5 fe 6f 85 a0
	00 00 00	 vmovdqu ymm0, YMMWORD PTR $T8[rbp]
  000c2	c5 fe 7f 45 60	 vmovdqu YMMWORD PTR yC_pw_one$[rbp], ymm0

; 1079 :     const __m256i yC_YCC = _mm256_set1_epi32(1<<LSFT_YCC_16);

  000c7	c5 fe 6f 05 00
	00 00 00	 vmovdqu ymm0, YMMWORD PTR __ymm@0000100000001000000010000000100000001000000010000000100000001000
  000cf	c5 fe 7f 85 20
	01 00 00	 vmovdqu YMMWORD PTR $T9[rbp], ymm0
  000d7	c5 fe 6f 85 20
	01 00 00	 vmovdqu ymm0, YMMWORD PTR $T9[rbp]
  000df	c5 fe 7f 85 e0
	00 00 00	 vmovdqu YMMWORD PTR yC_YCC$[rbp], ymm0

; 1080 :     const int dst_y_pitch = dst_y_pitch_byte >> 1;

  000e7	8b 84 24 18 06
	00 00		 mov	 eax, DWORD PTR dst_y_pitch_byte$[rsp]
  000ee	d1 f8		 sar	 eax, 1
  000f0	89 85 40 01 00
	00		 mov	 DWORD PTR dst_y_pitch$[rbp], eax

; 1081 :     const auto y_range = thread_y_range(0, height, thread_id, thread_n);

  000f6	8b 84 24 38 06
	00 00		 mov	 eax, DWORD PTR thread_n$[rsp]
  000fd	89 44 24 20	 mov	 DWORD PTR [rsp+32], eax
  00101	44 8b 8c 24 30
	06 00 00	 mov	 r9d, DWORD PTR thread_id$[rsp]
  00109	44 8b 84 24 20
	06 00 00	 mov	 r8d, DWORD PTR height$[rsp]
  00111	33 d2		 xor	 edx, edx
  00113	48 8d 8d 48 04
	00 00		 lea	 rcx, QWORD PTR $T25[rbp]
  0011a	e8 00 00 00 00	 call	 ?thread_y_range@@YA?AUTHREAD_Y_RANGE@@HHHH@Z ; thread_y_range
  0011f	48 8d 8d 78 01
	00 00		 lea	 rcx, QWORD PTR $T10[rbp]
  00126	48 8b f9	 mov	 rdi, rcx
  00129	48 8b f0	 mov	 rsi, rax
  0012c	b9 0c 00 00 00	 mov	 ecx, 12
  00131	f3 a4		 rep movsb
  00133	48 8d 85 58 01
	00 00		 lea	 rax, QWORD PTR y_range$[rbp]
  0013a	48 8d 8d 78 01
	00 00		 lea	 rcx, QWORD PTR $T10[rbp]
  00141	48 8b f8	 mov	 rdi, rax
  00144	48 8b f1	 mov	 rsi, rcx
  00147	b9 0c 00 00 00	 mov	 ecx, 12
  0014c	f3 a4		 rep movsb

; 1082 :     __m256i y0, y1, y2, y3;
; 1083 :     for (y = y_range.start_src; y < (y_range.start_src + y_range.len); y += 4) {

  0014e	8b 85 58 01 00
	00		 mov	 eax, DWORD PTR y_range$[rbp]
  00154	89 45 04	 mov	 DWORD PTR y$[rbp], eax
  00157	eb 09		 jmp	 SHORT $LN4@convert_yc
$LN2@convert_yc:
  00159	8b 45 04	 mov	 eax, DWORD PTR y$[rbp]
  0015c	83 c0 04	 add	 eax, 4
  0015f	89 45 04	 mov	 DWORD PTR y$[rbp], eax
$LN4@convert_yc:
  00162	8b 85 60 01 00
	00		 mov	 eax, DWORD PTR y_range$[rbp+8]
  00168	8b 8d 58 01 00
	00		 mov	 ecx, DWORD PTR y_range$[rbp]
  0016e	03 c8		 add	 ecx, eax
  00170	8b c1		 mov	 eax, ecx
  00172	39 45 04	 cmp	 DWORD PTR y$[rbp], eax
  00175	0f 8d 06 04 00
	00		 jge	 $LN3@convert_yc

; 1084 :         for (i = 0; i < 2; i++) {

  0017b	c7 45 08 00 00
	00 00		 mov	 DWORD PTR i$[rbp], 0
  00182	eb 08		 jmp	 SHORT $LN7@convert_yc
$LN5@convert_yc:
  00184	8b 45 08	 mov	 eax, DWORD PTR i$[rbp]
  00187	ff c0		 inc	 eax
  00189	89 45 08	 mov	 DWORD PTR i$[rbp], eax
$LN7@convert_yc:
  0018c	83 7d 08 02	 cmp	 DWORD PTR i$[rbp], 2
  00190	0f 8d e6 03 00
	00		 jge	 $LN6@convert_yc

; 1085 :             ycp = (short*)pixel + width * (y + i) * 3;

  00196	8b 45 08	 mov	 eax, DWORD PTR i$[rbp]
  00199	8b 4d 04	 mov	 ecx, DWORD PTR y$[rbp]
  0019c	03 c8		 add	 ecx, eax
  0019e	8b c1		 mov	 eax, ecx
  001a0	8b 8c 24 00 06
	00 00		 mov	 ecx, DWORD PTR width$[rsp]
  001a7	0f af c8	 imul	 ecx, eax
  001aa	8b c1		 mov	 eax, ecx
  001ac	6b c0 03	 imul	 eax, eax, 3
  001af	48 98		 cdqe
  001b1	48 8b 4d 20	 mov	 rcx, QWORD PTR pixel$[rbp]
  001b5	48 8d 04 41	 lea	 rax, QWORD PTR [rcx+rax*2]
  001b9	48 89 45 28	 mov	 QWORD PTR ycp$[rbp], rax

; 1086 :             ycpw= ycp + width*2*3;

  001bd	8b 84 24 00 06
	00 00		 mov	 eax, DWORD PTR width$[rsp]
  001c4	d1 e0		 shl	 eax, 1
  001c6	6b c0 03	 imul	 eax, eax, 3
  001c9	48 98		 cdqe
  001cb	48 8b 4d 28	 mov	 rcx, QWORD PTR ycp$[rbp]
  001cf	48 8d 04 41	 lea	 rax, QWORD PTR [rcx+rax*2]
  001d3	48 89 45 30	 mov	 QWORD PTR ycpw$[rbp], rax

; 1087 :             Y   = (short*)dst_Y + dst_y_pitch * (y + i);

  001d7	8b 45 08	 mov	 eax, DWORD PTR i$[rbp]
  001da	8b 4d 04	 mov	 ecx, DWORD PTR y$[rbp]
  001dd	03 c8		 add	 ecx, eax
  001df	8b c1		 mov	 eax, ecx
  001e1	8b 8d 40 01 00
	00		 mov	 ecx, DWORD PTR dst_y_pitch$[rbp]
  001e7	0f af c8	 imul	 ecx, eax
  001ea	8b c1		 mov	 eax, ecx
  001ec	48 98		 cdqe
  001ee	48 8b 4d 10	 mov	 rcx, QWORD PTR dst_Y$[rbp]
  001f2	48 8d 04 41	 lea	 rax, QWORD PTR [rcx+rax*2]
  001f6	48 89 45 38	 mov	 QWORD PTR Y$[rbp], rax

; 1088 :             C   = (short*)dst_C + dst_y_pitch * (y + i*2) / 2;

  001fa	8b 45 04	 mov	 eax, DWORD PTR y$[rbp]
  001fd	8b 4d 08	 mov	 ecx, DWORD PTR i$[rbp]
  00200	8d 04 48	 lea	 eax, DWORD PTR [rax+rcx*2]
  00203	8b 8d 40 01 00
	00		 mov	 ecx, DWORD PTR dst_y_pitch$[rbp]
  00209	0f af c8	 imul	 ecx, eax
  0020c	8b c1		 mov	 eax, ecx
  0020e	99		 cdq
  0020f	2b c2		 sub	 eax, edx
  00211	d1 f8		 sar	 eax, 1
  00213	48 98		 cdqe
  00215	48 8b 4d 18	 mov	 rcx, QWORD PTR dst_C$[rbp]
  00219	48 8d 04 41	 lea	 rax, QWORD PTR [rcx+rax*2]
  0021d	48 89 45 40	 mov	 QWORD PTR C$[rbp], rax

; 1089 :             for (x = 0; x < width; x += 16, ycp += 48, ycpw += 48) {

  00221	c7 45 00 00 00
	00 00		 mov	 DWORD PTR x$[rbp], 0
  00228	eb 21		 jmp	 SHORT $LN10@convert_yc
$LN8@convert_yc:
  0022a	8b 45 00	 mov	 eax, DWORD PTR x$[rbp]
  0022d	83 c0 10	 add	 eax, 16
  00230	89 45 00	 mov	 DWORD PTR x$[rbp], eax
  00233	48 8b 45 28	 mov	 rax, QWORD PTR ycp$[rbp]
  00237	48 83 c0 60	 add	 rax, 96			; 00000060H
  0023b	48 89 45 28	 mov	 QWORD PTR ycp$[rbp], rax
  0023f	48 8b 45 30	 mov	 rax, QWORD PTR ycpw$[rbp]
  00243	48 83 c0 60	 add	 rax, 96			; 00000060H
  00247	48 89 45 30	 mov	 QWORD PTR ycpw$[rbp], rax
$LN10@convert_yc:
  0024b	8b 84 24 00 06
	00 00		 mov	 eax, DWORD PTR width$[rsp]
  00252	39 45 00	 cmp	 DWORD PTR x$[rbp], eax
  00255	0f 8d 1c 03 00
	00		 jge	 $LN9@convert_yc

; 1090 :                 y1 = _mm256_loadu_si256((__m256i *)(ycp +  0)); // 128, 0

  0025b	48 8b 45 28	 mov	 rax, QWORD PTR ycp$[rbp]
  0025f	c5 fe 6f 00	 vmovdqu ymm0, YMMWORD PTR [rax]
  00263	c5 fe 7f 85 80
	02 00 00	 vmovdqu YMMWORD PTR $T11[rbp], ymm0
  0026b	c5 fe 6f 85 80
	02 00 00	 vmovdqu ymm0, YMMWORD PTR $T11[rbp]
  00273	c5 fe 7f 85 e0
	01 00 00	 vmovdqu YMMWORD PTR y1$[rbp], ymm0

; 1091 :                 y2 = _mm256_loadu_si256((__m256i *)(ycp + 16)); // 384, 256

  0027b	48 8b 45 28	 mov	 rax, QWORD PTR ycp$[rbp]
  0027f	48 83 c0 20	 add	 rax, 32			; 00000020H
  00283	c5 fe 6f 00	 vmovdqu ymm0, YMMWORD PTR [rax]
  00287	c5 fe 7f 85 a0
	02 00 00	 vmovdqu YMMWORD PTR $T12[rbp], ymm0
  0028f	c5 fe 6f 85 a0
	02 00 00	 vmovdqu ymm0, YMMWORD PTR $T12[rbp]
  00297	c5 fe 7f 85 20
	02 00 00	 vmovdqu YMMWORD PTR y2$[rbp], ymm0

; 1092 :                 y3 = _mm256_loadu_si256((__m256i *)(ycp + 32)); // 640, 512

  0029f	48 8b 45 28	 mov	 rax, QWORD PTR ycp$[rbp]
  002a3	48 83 c0 40	 add	 rax, 64			; 00000040H
  002a7	c5 fe 6f 00	 vmovdqu ymm0, YMMWORD PTR [rax]
  002ab	c5 fe 7f 85 c0
	02 00 00	 vmovdqu YMMWORD PTR $T13[rbp], ymm0
  002b3	c5 fe 6f 85 c0
	02 00 00	 vmovdqu ymm0, YMMWORD PTR $T13[rbp]
  002bb	c5 fe 7f 85 60
	02 00 00	 vmovdqu YMMWORD PTR y3$[rbp], ymm0

; 1093 : 
; 1094 :                 gather_y_uv_from_yc48(y1, y2, y3);

  002c3	c5 fe 6f 85 60
	02 00 00	 vmovdqu ymm0, YMMWORD PTR y3$[rbp]
  002cb	c5 fe 7f 85 60
	04 00 00	 vmovdqu YMMWORD PTR $T26[rbp], ymm0
  002d3	4c 8d 85 60 04
	00 00		 lea	 r8, QWORD PTR $T26[rbp]
  002da	48 8d 95 20 02
	00 00		 lea	 rdx, QWORD PTR y2$[rbp]
  002e1	48 8d 8d e0 01
	00 00		 lea	 rcx, QWORD PTR y1$[rbp]
  002e8	e8 00 00 00 00	 call	 ?gather_y_uv_from_yc48@@YAXAEAT__m256i@@0T1@@Z ; gather_y_uv_from_yc48

; 1095 :                 y0 = y2;

  002ed	c5 fe 6f 85 20
	02 00 00	 vmovdqu ymm0, YMMWORD PTR y2$[rbp]
  002f5	c5 fe 7f 85 a0
	01 00 00	 vmovdqu YMMWORD PTR y0$[rbp], ymm0

; 1096 : 
; 1097 :                 _mm256_storeu_si256((__m256i *)(Y + x), convert_y_range_from_yc48(y1, yC_Y_L_MA_16, Y_L_RSH_16, yC_YCC, yC_pw_one));

  002fd	c5 fd 6f 05 00
	00 00 00	 vmovdqa ymm0, YMMWORD PTR ?Array_Y_L_MA_16@@3QBFB
  00305	c5 fe 7f 85 e0
	02 00 00	 vmovdqu YMMWORD PTR $T14[rbp], ymm0
  0030d	c5 fe 6f 85 e0
	02 00 00	 vmovdqu ymm0, YMMWORD PTR $T14[rbp]
  00315	c5 fe 7f 85 a0
	04 00 00	 vmovdqu YMMWORD PTR $T28[rbp], ymm0
  0031d	c5 fe 6f 85 e0
	01 00 00	 vmovdqu ymm0, YMMWORD PTR y1$[rbp]
  00325	c5 fe 7f 85 80
	04 00 00	 vmovdqu YMMWORD PTR $T27[rbp], ymm0
  0032d	48 8d 45 60	 lea	 rax, QWORD PTR yC_pw_one$[rbp]
  00331	48 89 44 24 20	 mov	 QWORD PTR [rsp+32], rax
  00336	4c 8d 8d e0 00
	00 00		 lea	 r9, QWORD PTR yC_YCC$[rbp]
  0033d	41 b8 04 00 00
	00		 mov	 r8d, 4
  00343	48 8d 95 a0 04
	00 00		 lea	 rdx, QWORD PTR $T28[rbp]
  0034a	48 8d 8d 80 04
	00 00		 lea	 rcx, QWORD PTR $T27[rbp]
  00351	e8 00 00 00 00	 call	 ?convert_y_range_from_yc48@@YA?AT__m256i@@T1@0HAEBT1@1@Z ; convert_y_range_from_yc48
  00356	c5 fe 7f 85 00
	03 00 00	 vmovdqu YMMWORD PTR $T15[rbp], ymm0
  0035e	48 63 45 00	 movsxd	 rax, DWORD PTR x$[rbp]
  00362	48 8b 4d 38	 mov	 rcx, QWORD PTR Y$[rbp]
  00366	48 8d 04 41	 lea	 rax, QWORD PTR [rcx+rax*2]
  0036a	c5 fe 6f 85 00
	03 00 00	 vmovdqu ymm0, YMMWORD PTR $T15[rbp]
  00372	c5 fe 7f 00	 vmovdqu YMMWORD PTR [rax], ymm0

; 1098 : 
; 1099 :                 y1 = _mm256_loadu_si256((__m256i *)(ycpw +  0));

  00376	48 8b 45 30	 mov	 rax, QWORD PTR ycpw$[rbp]
  0037a	c5 fe 6f 00	 vmovdqu ymm0, YMMWORD PTR [rax]
  0037e	c5 fe 7f 85 20
	03 00 00	 vmovdqu YMMWORD PTR $T16[rbp], ymm0
  00386	c5 fe 6f 85 20
	03 00 00	 vmovdqu ymm0, YMMWORD PTR $T16[rbp]
  0038e	c5 fe 7f 85 e0
	01 00 00	 vmovdqu YMMWORD PTR y1$[rbp], ymm0

; 1100 :                 y2 = _mm256_loadu_si256((__m256i *)(ycpw + 16));

  00396	48 8b 45 30	 mov	 rax, QWORD PTR ycpw$[rbp]
  0039a	48 83 c0 20	 add	 rax, 32			; 00000020H
  0039e	c5 fe 6f 00	 vmovdqu ymm0, YMMWORD PTR [rax]
  003a2	c5 fe 7f 85 40
	03 00 00	 vmovdqu YMMWORD PTR $T17[rbp], ymm0
  003aa	c5 fe 6f 85 40
	03 00 00	 vmovdqu ymm0, YMMWORD PTR $T17[rbp]
  003b2	c5 fe 7f 85 20
	02 00 00	 vmovdqu YMMWORD PTR y2$[rbp], ymm0

; 1101 :                 y3 = _mm256_loadu_si256((__m256i *)(ycpw + 32));

  003ba	48 8b 45 30	 mov	 rax, QWORD PTR ycpw$[rbp]
  003be	48 83 c0 40	 add	 rax, 64			; 00000040H
  003c2	c5 fe 6f 00	 vmovdqu ymm0, YMMWORD PTR [rax]
  003c6	c5 fe 7f 85 60
	03 00 00	 vmovdqu YMMWORD PTR $T18[rbp], ymm0
  003ce	c5 fe 6f 85 60
	03 00 00	 vmovdqu ymm0, YMMWORD PTR $T18[rbp]
  003d6	c5 fe 7f 85 60
	02 00 00	 vmovdqu YMMWORD PTR y3$[rbp], ymm0

; 1102 : 
; 1103 :                 gather_y_uv_from_yc48(y1, y2, y3);

  003de	c5 fe 6f 85 60
	02 00 00	 vmovdqu ymm0, YMMWORD PTR y3$[rbp]
  003e6	c5 fe 7f 85 c0
	04 00 00	 vmovdqu YMMWORD PTR $T29[rbp], ymm0
  003ee	4c 8d 85 c0 04
	00 00		 lea	 r8, QWORD PTR $T29[rbp]
  003f5	48 8d 95 20 02
	00 00		 lea	 rdx, QWORD PTR y2$[rbp]
  003fc	48 8d 8d e0 01
	00 00		 lea	 rcx, QWORD PTR y1$[rbp]
  00403	e8 00 00 00 00	 call	 ?gather_y_uv_from_yc48@@YAXAEAT__m256i@@0T1@@Z ; gather_y_uv_from_yc48

; 1104 : 
; 1105 :                 _mm256_storeu_si256((__m256i *)(Y + x + dst_y_pitch*2), convert_y_range_from_yc48(y1, yC_Y_L_MA_16, Y_L_RSH_16, yC_YCC, yC_pw_one));

  00408	c5 fd 6f 05 00
	00 00 00	 vmovdqa ymm0, YMMWORD PTR ?Array_Y_L_MA_16@@3QBFB
  00410	c5 fe 7f 85 80
	03 00 00	 vmovdqu YMMWORD PTR $T19[rbp], ymm0
  00418	c5 fe 6f 85 80
	03 00 00	 vmovdqu ymm0, YMMWORD PTR $T19[rbp]
  00420	c5 fe 7f 85 00
	05 00 00	 vmovdqu YMMWORD PTR $T31[rbp], ymm0
  00428	c5 fe 6f 85 e0
	01 00 00	 vmovdqu ymm0, YMMWORD PTR y1$[rbp]
  00430	c5 fe 7f 85 e0
	04 00 00	 vmovdqu YMMWORD PTR $T30[rbp], ymm0
  00438	48 8d 45 60	 lea	 rax, QWORD PTR yC_pw_one$[rbp]
  0043c	48 89 44 24 20	 mov	 QWORD PTR [rsp+32], rax
  00441	4c 8d 8d e0 00
	00 00		 lea	 r9, QWORD PTR yC_YCC$[rbp]
  00448	41 b8 04 00 00
	00		 mov	 r8d, 4
  0044e	48 8d 95 00 05
	00 00		 lea	 rdx, QWORD PTR $T31[rbp]
  00455	48 8d 8d e0 04
	00 00		 lea	 rcx, QWORD PTR $T30[rbp]
  0045c	e8 00 00 00 00	 call	 ?convert_y_range_from_yc48@@YA?AT__m256i@@T1@0HAEBT1@1@Z ; convert_y_range_from_yc48
  00461	c5 fe 7f 85 a0
	03 00 00	 vmovdqu YMMWORD PTR $T20[rbp], ymm0
  00469	48 63 45 00	 movsxd	 rax, DWORD PTR x$[rbp]
  0046d	48 8b 4d 38	 mov	 rcx, QWORD PTR Y$[rbp]
  00471	48 8d 04 41	 lea	 rax, QWORD PTR [rcx+rax*2]
  00475	8b 8d 40 01 00
	00		 mov	 ecx, DWORD PTR dst_y_pitch$[rbp]
  0047b	d1 e1		 shl	 ecx, 1
  0047d	48 63 c9	 movsxd	 rcx, ecx
  00480	48 8d 04 48	 lea	 rax, QWORD PTR [rax+rcx*2]
  00484	c5 fe 6f 85 a0
	03 00 00	 vmovdqu ymm0, YMMWORD PTR $T20[rbp]
  0048c	c5 fe 7f 00	 vmovdqu YMMWORD PTR [rax], ymm0

; 1106 : 
; 1107 :                 _mm256_storeu_si256((__m256i *)(C + x), convert_uv_range_from_yc48_420i(y0, y2, _mm256_set1_epi16(UV_OFFSET_x1), yC_UV_L_MA_16_420I(i), yC_UV_L_MA_16_420I((i+1)&0x01), UV_L_RSH_16_420I, yC_YCC, yC_pw_one));

  00490	8b 45 08	 mov	 eax, DWORD PTR i$[rbp]
  00493	ff c0		 inc	 eax
  00495	83 e0 01	 and	 eax, 1
  00498	48 98		 cdqe
  0049a	48 6b c0 20	 imul	 rax, rax, 32		; 00000020H
  0049e	48 8d 0d 00 00
	00 00		 lea	 rcx, OFFSET FLAT:?Array_UV_L_MA_16_420I@@3QAY0BA@$$CBFA
  004a5	48 03 c8	 add	 rcx, rax
  004a8	48 8b c1	 mov	 rax, rcx
  004ab	c5 fe 6f 00	 vmovdqu ymm0, YMMWORD PTR [rax]
  004af	c5 fe 7f 85 00
	04 00 00	 vmovdqu YMMWORD PTR $T23[rbp], ymm0
  004b7	48 63 45 08	 movsxd	 rax, DWORD PTR i$[rbp]
  004bb	48 6b c0 20	 imul	 rax, rax, 32		; 00000020H
  004bf	48 8d 0d 00 00
	00 00		 lea	 rcx, OFFSET FLAT:?Array_UV_L_MA_16_420I@@3QAY0BA@$$CBFA
  004c6	48 03 c8	 add	 rcx, rax
  004c9	48 8b c1	 mov	 rax, rcx
  004cc	c5 fe 6f 00	 vmovdqu ymm0, YMMWORD PTR [rax]
  004d0	c5 fe 7f 85 e0
	03 00 00	 vmovdqu YMMWORD PTR $T22[rbp], ymm0
  004d8	c5 fe 6f 05 00
	00 00 00	 vmovdqu ymm0, YMMWORD PTR __ymm@0800080008000800080008000800080008000800080008000800080008000800
  004e0	c5 fe 7f 85 c0
	03 00 00	 vmovdqu YMMWORD PTR $T21[rbp], ymm0
  004e8	c5 fe 6f 85 20
	02 00 00	 vmovdqu ymm0, YMMWORD PTR y2$[rbp]
  004f0	c5 fe 7f 85 40
	05 00 00	 vmovdqu YMMWORD PTR $T33[rbp], ymm0
  004f8	c5 fe 6f 85 a0
	01 00 00	 vmovdqu ymm0, YMMWORD PTR y0$[rbp]
  00500	c5 fe 7f 85 20
	05 00 00	 vmovdqu YMMWORD PTR $T32[rbp], ymm0
  00508	48 8d 45 60	 lea	 rax, QWORD PTR yC_pw_one$[rbp]
  0050c	48 89 44 24 38	 mov	 QWORD PTR [rsp+56], rax
  00511	48 8d 85 e0 00
	00 00		 lea	 rax, QWORD PTR yC_YCC$[rbp]
  00518	48 89 44 24 30	 mov	 QWORD PTR [rsp+48], rax
  0051d	c7 44 24 28 02
	00 00 00	 mov	 DWORD PTR [rsp+40], 2
  00525	48 8d 85 00 04
	00 00		 lea	 rax, QWORD PTR $T23[rbp]
  0052c	48 89 44 24 20	 mov	 QWORD PTR [rsp+32], rax
  00531	4c 8d 8d e0 03
	00 00		 lea	 r9, QWORD PTR $T22[rbp]
  00538	4c 8d 85 c0 03
	00 00		 lea	 r8, QWORD PTR $T21[rbp]
  0053f	48 8d 95 40 05
	00 00		 lea	 rdx, QWORD PTR $T33[rbp]
  00546	48 8d 8d 20 05
	00 00		 lea	 rcx, QWORD PTR $T32[rbp]
  0054d	e8 00 00 00 00	 call	 ?convert_uv_range_from_yc48_420i@@YA?AT__m256i@@T1@0AEBT1@11H11@Z ; convert_uv_range_from_yc48_420i
  00552	c5 fe 7f 85 20
	04 00 00	 vmovdqu YMMWORD PTR $T24[rbp], ymm0
  0055a	48 63 45 00	 movsxd	 rax, DWORD PTR x$[rbp]
  0055e	48 8b 4d 40	 mov	 rcx, QWORD PTR C$[rbp]
  00562	48 8d 04 41	 lea	 rax, QWORD PTR [rcx+rax*2]
  00566	c5 fe 6f 85 20
	04 00 00	 vmovdqu ymm0, YMMWORD PTR $T24[rbp]
  0056e	c5 fe 7f 00	 vmovdqu YMMWORD PTR [rax], ymm0

; 1108 :             }

  00572	e9 b3 fc ff ff	 jmp	 $LN8@convert_yc
$LN9@convert_yc:

; 1109 :         }

  00577	e9 08 fc ff ff	 jmp	 $LN5@convert_yc
$LN6@convert_yc:

; 1110 :     }

  0057c	e9 d8 fb ff ff	 jmp	 $LN2@convert_yc
$LN3@convert_yc:

; 1111 :     _mm256_zeroupper();

  00581	c5 f8 77	 vzeroupper

; 1112 : }

  00584	48 8d 4d c0	 lea	 rcx, QWORD PTR [rbp-64]
  00588	48 8d 15 00 00
	00 00		 lea	 rdx, OFFSET FLAT:?convert_yc48_to_p010_i_avx2@@YAXPEAPEAXPEAPEBXHHHHHHHHPEAH@Z$rtcFrameData
  0058f	e8 00 00 00 00	 call	 _RTC_CheckStackVars
  00594	48 8b 8d 60 05
	00 00		 mov	 rcx, QWORD PTR __$ArrayPad$[rbp]
  0059b	48 33 cc	 xor	 rcx, rsp
  0059e	e8 00 00 00 00	 call	 __security_check_cookie
  005a3	48 81 c4 d0 05
	00 00		 add	 rsp, 1488		; 000005d0H
  005aa	5f		 pop	 rdi
  005ab	5e		 pop	 rsi
  005ac	5d		 pop	 rbp
  005ad	c3		 ret	 0
?convert_yc48_to_p010_i_avx2@@YAXPEAPEAXPEAPEBXHHHHHHHHPEAH@Z ENDP ; convert_yc48_to_p010_i_avx2
_TEXT	ENDS
; Function compile flags: /Odtp /RTCsu
; File D:\work\intel\intel_codec\QSVPipeline\convert_csp_avx2.cpp
_TEXT	SEGMENT
x$ = 0
y$ = 4
dst_Y$ = 8
dst_C$ = 16
pixel$ = 24
ycp$ = 32
ycpw$ = 40
Y$ = 48
C$ = 56
yC_pw_one$ = 96
$T8 = 160
yC_YCC$ = 224
$T9 = 288
dst_y_pitch$ = 320
y_range$ = 344
$T10 = 376
y0$ = 416
y1$ = 480
y2$ = 544
y3$ = 608
$T11 = 640
$T12 = 672
$T13 = 704
$T14 = 736
$T15 = 768
$T16 = 800
$T17 = 832
$T18 = 864
$T19 = 896
$T20 = 928
$T21 = 960
$T22 = 992
$T23 = 1024
$T24 = 1064
$T25 = 1088
$T26 = 1120
$T27 = 1152
$T28 = 1184
$T29 = 1216
$T30 = 1248
$T31 = 1280
$T32 = 1312
$T33 = 1344
__$ArrayPad$ = 1376
dst$ = 1520
src$ = 1528
width$ = 1536
src_y_pitch_byte$ = 1544
src_uv_pitch_byte$ = 1552
dst_y_pitch_byte$ = 1560
height$ = 1568
dst_height$ = 1576
thread_id$ = 1584
thread_n$ = 1592
crop$ = 1600
?convert_yc48_to_p010_avx2@@YAXPEAPEAXPEAPEBXHHHHHHHHPEAH@Z PROC ; convert_yc48_to_p010_avx2

; 1030 : void convert_yc48_to_p010_avx2(void **dst, const void **src, int width, int src_y_pitch_byte, int src_uv_pitch_byte, int dst_y_pitch_byte, int height, int dst_height, int thread_id, int thread_n, int *crop) {

$LN9:
  00000	44 89 4c 24 20	 mov	 DWORD PTR [rsp+32], r9d
  00005	44 89 44 24 18	 mov	 DWORD PTR [rsp+24], r8d
  0000a	48 89 54 24 10	 mov	 QWORD PTR [rsp+16], rdx
  0000f	48 89 4c 24 08	 mov	 QWORD PTR [rsp+8], rcx
  00014	55		 push	 rbp
  00015	56		 push	 rsi
  00016	57		 push	 rdi
  00017	48 81 ec d0 05
	00 00		 sub	 rsp, 1488		; 000005d0H
  0001e	48 8d 6c 24 60	 lea	 rbp, QWORD PTR [rsp+96]
  00023	48 83 e5 e0	 and	 rbp, -32		; ffffffffffffffe0H
  00027	48 8b fc	 mov	 rdi, rsp
  0002a	b9 74 01 00 00	 mov	 ecx, 372		; 00000174H
  0002f	b8 cc cc cc cc	 mov	 eax, -858993460		; ccccccccH
  00034	f3 ab		 rep stosd
  00036	48 8b 8c 24 f0
	05 00 00	 mov	 rcx, QWORD PTR [rsp+1520]
  0003e	48 8b 05 00 00
	00 00		 mov	 rax, QWORD PTR __security_cookie
  00045	48 33 c4	 xor	 rax, rsp
  00048	48 89 85 60 05
	00 00		 mov	 QWORD PTR __$ArrayPad$[rbp], rax

; 1031 :     int x, y;
; 1032 :     short *dst_Y = (short *)dst[0];

  0004f	b8 08 00 00 00	 mov	 eax, 8
  00054	48 6b c0 00	 imul	 rax, rax, 0
  00058	48 8b 8c 24 f0
	05 00 00	 mov	 rcx, QWORD PTR dst$[rsp]
  00060	48 8b 04 01	 mov	 rax, QWORD PTR [rcx+rax]
  00064	48 89 45 08	 mov	 QWORD PTR dst_Y$[rbp], rax

; 1033 :     short *dst_C = (short *)dst[1];

  00068	b8 08 00 00 00	 mov	 eax, 8
  0006d	48 6b c0 01	 imul	 rax, rax, 1
  00071	48 8b 8c 24 f0
	05 00 00	 mov	 rcx, QWORD PTR dst$[rsp]
  00079	48 8b 04 01	 mov	 rax, QWORD PTR [rcx+rax]
  0007d	48 89 45 10	 mov	 QWORD PTR dst_C$[rbp], rax

; 1034 :     const void  *pixel = src[0];

  00081	b8 08 00 00 00	 mov	 eax, 8
  00086	48 6b c0 00	 imul	 rax, rax, 0
  0008a	48 8b 8c 24 f8
	05 00 00	 mov	 rcx, QWORD PTR src$[rsp]
  00092	48 8b 04 01	 mov	 rax, QWORD PTR [rcx+rax]
  00096	48 89 45 18	 mov	 QWORD PTR pixel$[rbp], rax

; 1035 :     const short *ycp, *ycpw;
; 1036 :     short *Y = NULL, *C = NULL;

  0009a	48 c7 45 30 00
	00 00 00	 mov	 QWORD PTR Y$[rbp], 0
  000a2	48 c7 45 38 00
	00 00 00	 mov	 QWORD PTR C$[rbp], 0

; 1037 :     const __m256i yC_pw_one = _mm256_set1_epi16(1);

  000aa	c5 fe 6f 05 00
	00 00 00	 vmovdqu ymm0, YMMWORD PTR __ymm@0001000100010001000100010001000100010001000100010001000100010001
  000b2	c5 fe 7f 85 a0
	00 00 00	 vmovdqu YMMWORD PTR $T8[rbp], ymm0
  000ba	c5 fe 6f 85 a0
	00 00 00	 vmovdqu ymm0, YMMWORD PTR $T8[rbp]
  000c2	c5 fe 7f 45 60	 vmovdqu YMMWORD PTR yC_pw_one$[rbp], ymm0

; 1038 :     const __m256i yC_YCC = _mm256_set1_epi32(1<<LSFT_YCC_16);

  000c7	c5 fe 6f 05 00
	00 00 00	 vmovdqu ymm0, YMMWORD PTR __ymm@0000100000001000000010000000100000001000000010000000100000001000
  000cf	c5 fe 7f 85 20
	01 00 00	 vmovdqu YMMWORD PTR $T9[rbp], ymm0
  000d7	c5 fe 6f 85 20
	01 00 00	 vmovdqu ymm0, YMMWORD PTR $T9[rbp]
  000df	c5 fe 7f 85 e0
	00 00 00	 vmovdqu YMMWORD PTR yC_YCC$[rbp], ymm0

; 1039 :     const int dst_y_pitch = dst_y_pitch_byte >> 1;

  000e7	8b 84 24 18 06
	00 00		 mov	 eax, DWORD PTR dst_y_pitch_byte$[rsp]
  000ee	d1 f8		 sar	 eax, 1
  000f0	89 85 40 01 00
	00		 mov	 DWORD PTR dst_y_pitch$[rbp], eax

; 1040 :     const auto y_range = thread_y_range(0, height, thread_id, thread_n);

  000f6	8b 84 24 38 06
	00 00		 mov	 eax, DWORD PTR thread_n$[rsp]
  000fd	89 44 24 20	 mov	 DWORD PTR [rsp+32], eax
  00101	44 8b 8c 24 30
	06 00 00	 mov	 r9d, DWORD PTR thread_id$[rsp]
  00109	44 8b 84 24 20
	06 00 00	 mov	 r8d, DWORD PTR height$[rsp]
  00111	33 d2		 xor	 edx, edx
  00113	48 8d 8d 28 04
	00 00		 lea	 rcx, QWORD PTR $T24[rbp]
  0011a	e8 00 00 00 00	 call	 ?thread_y_range@@YA?AUTHREAD_Y_RANGE@@HHHH@Z ; thread_y_range
  0011f	48 8d 8d 78 01
	00 00		 lea	 rcx, QWORD PTR $T10[rbp]
  00126	48 8b f9	 mov	 rdi, rcx
  00129	48 8b f0	 mov	 rsi, rax
  0012c	b9 0c 00 00 00	 mov	 ecx, 12
  00131	f3 a4		 rep movsb
  00133	48 8d 85 58 01
	00 00		 lea	 rax, QWORD PTR y_range$[rbp]
  0013a	48 8d 8d 78 01
	00 00		 lea	 rcx, QWORD PTR $T10[rbp]
  00141	48 8b f8	 mov	 rdi, rax
  00144	48 8b f1	 mov	 rsi, rcx
  00147	b9 0c 00 00 00	 mov	 ecx, 12
  0014c	f3 a4		 rep movsb

; 1041 :     __m256i y0, y1, y2, y3;
; 1042 :     for (y = y_range.start_src; y < (y_range.start_src + y_range.len); y += 2) {

  0014e	8b 85 58 01 00
	00		 mov	 eax, DWORD PTR y_range$[rbp]
  00154	89 45 04	 mov	 DWORD PTR y$[rbp], eax
  00157	eb 09		 jmp	 SHORT $LN4@convert_yc
$LN2@convert_yc:
  00159	8b 45 04	 mov	 eax, DWORD PTR y$[rbp]
  0015c	83 c0 02	 add	 eax, 2
  0015f	89 45 04	 mov	 DWORD PTR y$[rbp], eax
$LN4@convert_yc:
  00162	8b 85 60 01 00
	00		 mov	 eax, DWORD PTR y_range$[rbp+8]
  00168	8b 8d 58 01 00
	00		 mov	 ecx, DWORD PTR y_range$[rbp]
  0016e	03 c8		 add	 ecx, eax
  00170	8b c1		 mov	 eax, ecx
  00172	39 45 04	 cmp	 DWORD PTR y$[rbp], eax
  00175	0f 8d 8a 03 00
	00		 jge	 $LN3@convert_yc

; 1043 :         ycp = (short*)pixel + width * y * 3;

  0017b	8b 84 24 00 06
	00 00		 mov	 eax, DWORD PTR width$[rsp]
  00182	0f af 45 04	 imul	 eax, DWORD PTR y$[rbp]
  00186	6b c0 03	 imul	 eax, eax, 3
  00189	48 98		 cdqe
  0018b	48 8b 4d 18	 mov	 rcx, QWORD PTR pixel$[rbp]
  0018f	48 8d 04 41	 lea	 rax, QWORD PTR [rcx+rax*2]
  00193	48 89 45 20	 mov	 QWORD PTR ycp$[rbp], rax

; 1044 :         ycpw= ycp + width*3;

  00197	6b 84 24 00 06
	00 00 03	 imul	 eax, DWORD PTR width$[rsp], 3
  0019f	48 98		 cdqe
  001a1	48 8b 4d 20	 mov	 rcx, QWORD PTR ycp$[rbp]
  001a5	48 8d 04 41	 lea	 rax, QWORD PTR [rcx+rax*2]
  001a9	48 89 45 28	 mov	 QWORD PTR ycpw$[rbp], rax

; 1045 :         Y   = (short*)dst_Y + dst_y_pitch * y;

  001ad	8b 85 40 01 00
	00		 mov	 eax, DWORD PTR dst_y_pitch$[rbp]
  001b3	0f af 45 04	 imul	 eax, DWORD PTR y$[rbp]
  001b7	48 98		 cdqe
  001b9	48 8b 4d 08	 mov	 rcx, QWORD PTR dst_Y$[rbp]
  001bd	48 8d 04 41	 lea	 rax, QWORD PTR [rcx+rax*2]
  001c1	48 89 45 30	 mov	 QWORD PTR Y$[rbp], rax

; 1046 :         C   = (short*)dst_C + dst_y_pitch * y / 2;

  001c5	8b 85 40 01 00
	00		 mov	 eax, DWORD PTR dst_y_pitch$[rbp]
  001cb	0f af 45 04	 imul	 eax, DWORD PTR y$[rbp]
  001cf	99		 cdq
  001d0	2b c2		 sub	 eax, edx
  001d2	d1 f8		 sar	 eax, 1
  001d4	48 98		 cdqe
  001d6	48 8b 4d 10	 mov	 rcx, QWORD PTR dst_C$[rbp]
  001da	48 8d 04 41	 lea	 rax, QWORD PTR [rcx+rax*2]
  001de	48 89 45 38	 mov	 QWORD PTR C$[rbp], rax

; 1047 :         for (x = 0; x < width; x += 16, ycp += 48, ycpw += 48) {

  001e2	c7 45 00 00 00
	00 00		 mov	 DWORD PTR x$[rbp], 0
  001e9	eb 21		 jmp	 SHORT $LN7@convert_yc
$LN5@convert_yc:
  001eb	8b 45 00	 mov	 eax, DWORD PTR x$[rbp]
  001ee	83 c0 10	 add	 eax, 16
  001f1	89 45 00	 mov	 DWORD PTR x$[rbp], eax
  001f4	48 8b 45 20	 mov	 rax, QWORD PTR ycp$[rbp]
  001f8	48 83 c0 60	 add	 rax, 96			; 00000060H
  001fc	48 89 45 20	 mov	 QWORD PTR ycp$[rbp], rax
  00200	48 8b 45 28	 mov	 rax, QWORD PTR ycpw$[rbp]
  00204	48 83 c0 60	 add	 rax, 96			; 00000060H
  00208	48 89 45 28	 mov	 QWORD PTR ycpw$[rbp], rax
$LN7@convert_yc:
  0020c	8b 84 24 00 06
	00 00		 mov	 eax, DWORD PTR width$[rsp]
  00213	39 45 00	 cmp	 DWORD PTR x$[rbp], eax
  00216	0f 8d e4 02 00
	00		 jge	 $LN6@convert_yc

; 1048 :             y1 = _mm256_loadu_si256((__m256i *)(ycp +  0)); // 128, 0

  0021c	48 8b 45 20	 mov	 rax, QWORD PTR ycp$[rbp]
  00220	c5 fe 6f 00	 vmovdqu ymm0, YMMWORD PTR [rax]
  00224	c5 fe 7f 85 80
	02 00 00	 vmovdqu YMMWORD PTR $T11[rbp], ymm0
  0022c	c5 fe 6f 85 80
	02 00 00	 vmovdqu ymm0, YMMWORD PTR $T11[rbp]
  00234	c5 fe 7f 85 e0
	01 00 00	 vmovdqu YMMWORD PTR y1$[rbp], ymm0

; 1049 :             y2 = _mm256_loadu_si256((__m256i *)(ycp + 16)); // 384, 256

  0023c	48 8b 45 20	 mov	 rax, QWORD PTR ycp$[rbp]
  00240	48 83 c0 20	 add	 rax, 32			; 00000020H
  00244	c5 fe 6f 00	 vmovdqu ymm0, YMMWORD PTR [rax]
  00248	c5 fe 7f 85 a0
	02 00 00	 vmovdqu YMMWORD PTR $T12[rbp], ymm0
  00250	c5 fe 6f 85 a0
	02 00 00	 vmovdqu ymm0, YMMWORD PTR $T12[rbp]
  00258	c5 fe 7f 85 20
	02 00 00	 vmovdqu YMMWORD PTR y2$[rbp], ymm0

; 1050 :             y3 = _mm256_loadu_si256((__m256i *)(ycp + 32)); // 640, 512

  00260	48 8b 45 20	 mov	 rax, QWORD PTR ycp$[rbp]
  00264	48 83 c0 40	 add	 rax, 64			; 00000040H
  00268	c5 fe 6f 00	 vmovdqu ymm0, YMMWORD PTR [rax]
  0026c	c5 fe 7f 85 c0
	02 00 00	 vmovdqu YMMWORD PTR $T13[rbp], ymm0
  00274	c5 fe 6f 85 c0
	02 00 00	 vmovdqu ymm0, YMMWORD PTR $T13[rbp]
  0027c	c5 fe 7f 85 60
	02 00 00	 vmovdqu YMMWORD PTR y3$[rbp], ymm0

; 1051 : 
; 1052 :             gather_y_uv_from_yc48(y1, y2, y3);

  00284	c5 fe 6f 85 60
	02 00 00	 vmovdqu ymm0, YMMWORD PTR y3$[rbp]
  0028c	c5 fe 7f 85 40
	04 00 00	 vmovdqu YMMWORD PTR $T25[rbp], ymm0
  00294	4c 8d 85 40 04
	00 00		 lea	 r8, QWORD PTR $T25[rbp]
  0029b	48 8d 95 20 02
	00 00		 lea	 rdx, QWORD PTR y2$[rbp]
  002a2	48 8d 8d e0 01
	00 00		 lea	 rcx, QWORD PTR y1$[rbp]
  002a9	e8 00 00 00 00	 call	 ?gather_y_uv_from_yc48@@YAXAEAT__m256i@@0T1@@Z ; gather_y_uv_from_yc48

; 1053 :             y0 = y2;

  002ae	c5 fe 6f 85 20
	02 00 00	 vmovdqu ymm0, YMMWORD PTR y2$[rbp]
  002b6	c5 fe 7f 85 a0
	01 00 00	 vmovdqu YMMWORD PTR y0$[rbp], ymm0

; 1054 : 
; 1055 :             _mm256_storeu_si256((__m256i *)(Y + x), convert_y_range_from_yc48(y1, yC_Y_L_MA_16, Y_L_RSH_16, yC_YCC, yC_pw_one));

  002be	c5 fd 6f 05 00
	00 00 00	 vmovdqa ymm0, YMMWORD PTR ?Array_Y_L_MA_16@@3QBFB
  002c6	c5 fe 7f 85 e0
	02 00 00	 vmovdqu YMMWORD PTR $T14[rbp], ymm0
  002ce	c5 fe 6f 85 e0
	02 00 00	 vmovdqu ymm0, YMMWORD PTR $T14[rbp]
  002d6	c5 fe 7f 85 80
	04 00 00	 vmovdqu YMMWORD PTR $T27[rbp], ymm0
  002de	c5 fe 6f 85 e0
	01 00 00	 vmovdqu ymm0, YMMWORD PTR y1$[rbp]
  002e6	c5 fe 7f 85 60
	04 00 00	 vmovdqu YMMWORD PTR $T26[rbp], ymm0
  002ee	48 8d 45 60	 lea	 rax, QWORD PTR yC_pw_one$[rbp]
  002f2	48 89 44 24 20	 mov	 QWORD PTR [rsp+32], rax
  002f7	4c 8d 8d e0 00
	00 00		 lea	 r9, QWORD PTR yC_YCC$[rbp]
  002fe	41 b8 04 00 00
	00		 mov	 r8d, 4
  00304	48 8d 95 80 04
	00 00		 lea	 rdx, QWORD PTR $T27[rbp]
  0030b	48 8d 8d 60 04
	00 00		 lea	 rcx, QWORD PTR $T26[rbp]
  00312	e8 00 00 00 00	 call	 ?convert_y_range_from_yc48@@YA?AT__m256i@@T1@0HAEBT1@1@Z ; convert_y_range_from_yc48
  00317	c5 fe 7f 85 00
	03 00 00	 vmovdqu YMMWORD PTR $T15[rbp], ymm0
  0031f	48 63 45 00	 movsxd	 rax, DWORD PTR x$[rbp]
  00323	48 8b 4d 30	 mov	 rcx, QWORD PTR Y$[rbp]
  00327	48 8d 04 41	 lea	 rax, QWORD PTR [rcx+rax*2]
  0032b	c5 fe 6f 85 00
	03 00 00	 vmovdqu ymm0, YMMWORD PTR $T15[rbp]
  00333	c5 fe 7f 00	 vmovdqu YMMWORD PTR [rax], ymm0

; 1056 : 
; 1057 :             y1 = _mm256_loadu_si256((__m256i *)(ycpw +  0));

  00337	48 8b 45 28	 mov	 rax, QWORD PTR ycpw$[rbp]
  0033b	c5 fe 6f 00	 vmovdqu ymm0, YMMWORD PTR [rax]
  0033f	c5 fe 7f 85 20
	03 00 00	 vmovdqu YMMWORD PTR $T16[rbp], ymm0
  00347	c5 fe 6f 85 20
	03 00 00	 vmovdqu ymm0, YMMWORD PTR $T16[rbp]
  0034f	c5 fe 7f 85 e0
	01 00 00	 vmovdqu YMMWORD PTR y1$[rbp], ymm0

; 1058 :             y2 = _mm256_loadu_si256((__m256i *)(ycpw + 16));

  00357	48 8b 45 28	 mov	 rax, QWORD PTR ycpw$[rbp]
  0035b	48 83 c0 20	 add	 rax, 32			; 00000020H
  0035f	c5 fe 6f 00	 vmovdqu ymm0, YMMWORD PTR [rax]
  00363	c5 fe 7f 85 40
	03 00 00	 vmovdqu YMMWORD PTR $T17[rbp], ymm0
  0036b	c5 fe 6f 85 40
	03 00 00	 vmovdqu ymm0, YMMWORD PTR $T17[rbp]
  00373	c5 fe 7f 85 20
	02 00 00	 vmovdqu YMMWORD PTR y2$[rbp], ymm0

; 1059 :             y3 = _mm256_loadu_si256((__m256i *)(ycpw + 32));

  0037b	48 8b 45 28	 mov	 rax, QWORD PTR ycpw$[rbp]
  0037f	48 83 c0 40	 add	 rax, 64			; 00000040H
  00383	c5 fe 6f 00	 vmovdqu ymm0, YMMWORD PTR [rax]
  00387	c5 fe 7f 85 60
	03 00 00	 vmovdqu YMMWORD PTR $T18[rbp], ymm0
  0038f	c5 fe 6f 85 60
	03 00 00	 vmovdqu ymm0, YMMWORD PTR $T18[rbp]
  00397	c5 fe 7f 85 60
	02 00 00	 vmovdqu YMMWORD PTR y3$[rbp], ymm0

; 1060 : 
; 1061 :             gather_y_uv_from_yc48(y1, y2, y3);

  0039f	c5 fe 6f 85 60
	02 00 00	 vmovdqu ymm0, YMMWORD PTR y3$[rbp]
  003a7	c5 fe 7f 85 a0
	04 00 00	 vmovdqu YMMWORD PTR $T28[rbp], ymm0
  003af	4c 8d 85 a0 04
	00 00		 lea	 r8, QWORD PTR $T28[rbp]
  003b6	48 8d 95 20 02
	00 00		 lea	 rdx, QWORD PTR y2$[rbp]
  003bd	48 8d 8d e0 01
	00 00		 lea	 rcx, QWORD PTR y1$[rbp]
  003c4	e8 00 00 00 00	 call	 ?gather_y_uv_from_yc48@@YAXAEAT__m256i@@0T1@@Z ; gather_y_uv_from_yc48

; 1062 : 
; 1063 :             _mm256_storeu_si256((__m256i *)(Y + x + dst_y_pitch), convert_y_range_from_yc48(y1, yC_Y_L_MA_16, Y_L_RSH_16, yC_YCC, yC_pw_one));

  003c9	c5 fd 6f 05 00
	00 00 00	 vmovdqa ymm0, YMMWORD PTR ?Array_Y_L_MA_16@@3QBFB
  003d1	c5 fe 7f 85 80
	03 00 00	 vmovdqu YMMWORD PTR $T19[rbp], ymm0
  003d9	c5 fe 6f 85 80
	03 00 00	 vmovdqu ymm0, YMMWORD PTR $T19[rbp]
  003e1	c5 fe 7f 85 e0
	04 00 00	 vmovdqu YMMWORD PTR $T30[rbp], ymm0
  003e9	c5 fe 6f 85 e0
	01 00 00	 vmovdqu ymm0, YMMWORD PTR y1$[rbp]
  003f1	c5 fe 7f 85 c0
	04 00 00	 vmovdqu YMMWORD PTR $T29[rbp], ymm0
  003f9	48 8d 45 60	 lea	 rax, QWORD PTR yC_pw_one$[rbp]
  003fd	48 89 44 24 20	 mov	 QWORD PTR [rsp+32], rax
  00402	4c 8d 8d e0 00
	00 00		 lea	 r9, QWORD PTR yC_YCC$[rbp]
  00409	41 b8 04 00 00
	00		 mov	 r8d, 4
  0040f	48 8d 95 e0 04
	00 00		 lea	 rdx, QWORD PTR $T30[rbp]
  00416	48 8d 8d c0 04
	00 00		 lea	 rcx, QWORD PTR $T29[rbp]
  0041d	e8 00 00 00 00	 call	 ?convert_y_range_from_yc48@@YA?AT__m256i@@T1@0HAEBT1@1@Z ; convert_y_range_from_yc48
  00422	c5 fe 7f 85 a0
	03 00 00	 vmovdqu YMMWORD PTR $T20[rbp], ymm0
  0042a	48 63 45 00	 movsxd	 rax, DWORD PTR x$[rbp]
  0042e	48 8b 4d 30	 mov	 rcx, QWORD PTR Y$[rbp]
  00432	48 8d 04 41	 lea	 rax, QWORD PTR [rcx+rax*2]
  00436	48 63 8d 40 01
	00 00		 movsxd	 rcx, DWORD PTR dst_y_pitch$[rbp]
  0043d	48 8d 04 48	 lea	 rax, QWORD PTR [rax+rcx*2]
  00441	c5 fe 6f 85 a0
	03 00 00	 vmovdqu ymm0, YMMWORD PTR $T20[rbp]
  00449	c5 fe 7f 00	 vmovdqu YMMWORD PTR [rax], ymm0

; 1064 : 
; 1065 :             _mm256_storeu_si256((__m256i *)(C + x), convert_uv_range_from_yc48_yuv420p(y0, y2,  _mm256_set1_epi16(UV_OFFSET_x2), yC_UV_L_MA_16_420P, UV_L_RSH_16_420P, yC_YCC, yC_pw_one));

  0044d	c5 fd 6f 05 00
	00 00 00	 vmovdqa ymm0, YMMWORD PTR ?Array_UV_L_MA_16_420P@@3QBFB
  00455	c5 fe 7f 85 e0
	03 00 00	 vmovdqu YMMWORD PTR $T22[rbp], ymm0
  0045d	c5 fe 6f 05 00
	00 00 00	 vmovdqu ymm0, YMMWORD PTR __ymm@1000100010001000100010001000100010001000100010001000100010001000
  00465	c5 fe 7f 85 c0
	03 00 00	 vmovdqu YMMWORD PTR $T21[rbp], ymm0
  0046d	c5 fe 6f 85 e0
	03 00 00	 vmovdqu ymm0, YMMWORD PTR $T22[rbp]
  00475	c5 fe 7f 85 40
	05 00 00	 vmovdqu YMMWORD PTR $T33[rbp], ymm0
  0047d	c5 fe 6f 85 20
	02 00 00	 vmovdqu ymm0, YMMWORD PTR y2$[rbp]
  00485	c5 fe 7f 85 20
	05 00 00	 vmovdqu YMMWORD PTR $T32[rbp], ymm0
  0048d	c5 fe 6f 85 a0
	01 00 00	 vmovdqu ymm0, YMMWORD PTR y0$[rbp]
  00495	c5 fe 7f 85 00
	05 00 00	 vmovdqu YMMWORD PTR $T31[rbp], ymm0
  0049d	48 8d 45 60	 lea	 rax, QWORD PTR yC_pw_one$[rbp]
  004a1	48 89 44 24 30	 mov	 QWORD PTR [rsp+48], rax
  004a6	48 8d 85 e0 00
	00 00		 lea	 rax, QWORD PTR yC_YCC$[rbp]
  004ad	48 89 44 24 28	 mov	 QWORD PTR [rsp+40], rax
  004b2	c7 44 24 20 01
	00 00 00	 mov	 DWORD PTR [rsp+32], 1
  004ba	4c 8d 8d 40 05
	00 00		 lea	 r9, QWORD PTR $T33[rbp]
  004c1	4c 8d 85 c0 03
	00 00		 lea	 r8, QWORD PTR $T21[rbp]
  004c8	48 8d 95 20 05
	00 00		 lea	 rdx, QWORD PTR $T32[rbp]
  004cf	48 8d 8d 00 05
	00 00		 lea	 rcx, QWORD PTR $T31[rbp]
  004d6	e8 00 00 00 00	 call	 ?convert_uv_range_from_yc48_yuv420p@@YA?AT__m256i@@T1@0AEBT1@0H11@Z ; convert_uv_range_from_yc48_yuv420p
  004db	c5 fe 7f 85 00
	04 00 00	 vmovdqu YMMWORD PTR $T23[rbp], ymm0
  004e3	48 63 45 00	 movsxd	 rax, DWORD PTR x$[rbp]
  004e7	48 8b 4d 38	 mov	 rcx, QWORD PTR C$[rbp]
  004eb	48 8d 04 41	 lea	 rax, QWORD PTR [rcx+rax*2]
  004ef	c5 fe 6f 85 00
	04 00 00	 vmovdqu ymm0, YMMWORD PTR $T23[rbp]
  004f7	c5 fe 7f 00	 vmovdqu YMMWORD PTR [rax], ymm0

; 1066 :         }

  004fb	e9 eb fc ff ff	 jmp	 $LN5@convert_yc
$LN6@convert_yc:

; 1067 :     }

  00500	e9 54 fc ff ff	 jmp	 $LN2@convert_yc
$LN3@convert_yc:

; 1068 :     _mm256_zeroupper();

  00505	c5 f8 77	 vzeroupper

; 1069 : }

  00508	48 8d 4d c0	 lea	 rcx, QWORD PTR [rbp-64]
  0050c	48 8d 15 00 00
	00 00		 lea	 rdx, OFFSET FLAT:?convert_yc48_to_p010_avx2@@YAXPEAPEAXPEAPEBXHHHHHHHHPEAH@Z$rtcFrameData
  00513	e8 00 00 00 00	 call	 _RTC_CheckStackVars
  00518	48 8b 8d 60 05
	00 00		 mov	 rcx, QWORD PTR __$ArrayPad$[rbp]
  0051f	48 33 cc	 xor	 rcx, rsp
  00522	e8 00 00 00 00	 call	 __security_check_cookie
  00527	48 81 c4 d0 05
	00 00		 add	 rsp, 1488		; 000005d0H
  0052e	5f		 pop	 rdi
  0052f	5e		 pop	 rsi
  00530	5d		 pop	 rbp
  00531	c3		 ret	 0
?convert_yc48_to_p010_avx2@@YAXPEAPEAXPEAPEBXHHHHHHHHPEAH@Z ENDP ; convert_yc48_to_p010_avx2
_TEXT	ENDS
; Function compile flags: /Odtp /RTCsu
; File D:\work\intel\intel_codec\QSVPipeline\convert_csp_avx2.cpp
_TEXT	SEGMENT
y3$ = 0
y4$ = 32
y5$ = 64
$T1 = 96
$T2 = 128
$T3 = 160
$T4 = 192
$T5 = 224
$T6 = 256
$T7 = 288
$T8 = 320
$T9 = 352
$T10 = 384
$T11 = 416
$T12 = 448
$T13 = 480
$T14 = 512
$T15 = 544
y0$ = 640
y1$ = 648
y2$ = 656
?gather_y_u_v_to_yc48@@YAXAEAT__m256i@@00@Z PROC	; gather_y_u_v_to_yc48

; 1001 : static __forceinline void gather_y_u_v_to_yc48(__m256i& y0, __m256i& y1, __m256i& y2) {

  00000	4c 89 44 24 18	 mov	 QWORD PTR [rsp+24], r8
  00005	48 89 54 24 10	 mov	 QWORD PTR [rsp+16], rdx
  0000a	48 89 4c 24 08	 mov	 QWORD PTR [rsp+8], rcx
  0000f	55		 push	 rbp
  00010	57		 push	 rdi
  00011	48 81 ec 68 02
	00 00		 sub	 rsp, 616		; 00000268H
  00018	48 8d 6c 24 20	 lea	 rbp, QWORD PTR [rsp+32]
  0001d	48 83 e5 e0	 and	 rbp, -32		; ffffffffffffffe0H
  00021	48 8b fc	 mov	 rdi, rsp
  00024	b9 9a 00 00 00	 mov	 ecx, 154		; 0000009aH
  00029	b8 cc cc cc cc	 mov	 eax, -858993460		; ccccccccH
  0002e	f3 ab		 rep stosd
  00030	48 8b 8c 24 80
	02 00 00	 mov	 rcx, QWORD PTR [rsp+640]

; 1002 :     __m256i y3, y4, y5;
; 1003 : 
; 1004 :     alignas(16) static const uint8_t shuffle_yc48[32] = {
; 1005 :         0x00, 0x01, 0x06, 0x07, 0x0C, 0x0D, 0x02, 0x03, 0x08, 0x09, 0x0E, 0x0F, 0x04, 0x05, 0x0A, 0x0B,
; 1006 :         0x00, 0x01, 0x06, 0x07, 0x0C, 0x0D, 0x02, 0x03, 0x08, 0x09, 0x0E, 0x0F, 0x04, 0x05, 0x0A, 0x0B
; 1007 :     };
; 1008 :     y5 = _mm256_load_si256((__m256i *)shuffle_yc48);

  00038	c5 fe 6f 05 00
	00 00 00	 vmovdqu ymm0, YMMWORD PTR ?shuffle_yc48@?1??gather_y_u_v_to_yc48@@YAXAEAT__m256i@@00@Z@4QBEB
  00040	c5 fe 7f 45 60	 vmovdqu YMMWORD PTR $T1[rbp], ymm0
  00045	c5 fe 6f 45 60	 vmovdqu ymm0, YMMWORD PTR $T1[rbp]
  0004a	c5 fe 7f 45 40	 vmovdqu YMMWORD PTR y5$[rbp], ymm0

; 1009 :     y0 = _mm256_shuffle_epi8(y0, y5);                             //5,2,7,4,1,6,3,0

  0004f	48 8b 84 24 80
	02 00 00	 mov	 rax, QWORD PTR y0$[rsp]
  00057	c5 fe 6f 00	 vmovdqu ymm0, YMMWORD PTR [rax]
  0005b	c4 e2 7d 00 45
	40		 vpshufb ymm0, ymm0, YMMWORD PTR y5$[rbp]
  00061	c5 fe 7f 85 80
	00 00 00	 vmovdqu YMMWORD PTR $T2[rbp], ymm0
  00069	48 8b 84 24 80
	02 00 00	 mov	 rax, QWORD PTR y0$[rsp]
  00071	c5 fe 6f 85 80
	00 00 00	 vmovdqu ymm0, YMMWORD PTR $T2[rbp]
  00079	c5 fe 7f 00	 vmovdqu YMMWORD PTR [rax], ymm0

; 1010 :     y1 = _mm256_shuffle_epi8(y1, _mm256_alignr_epi8(y5, y5, 14)); //2,7,4,1,6,3,0,5

  0007d	c5 fe 6f 45 40	 vmovdqu ymm0, YMMWORD PTR y5$[rbp]
  00082	c4 e3 7d 0f 45
	40 0e		 vpalignr ymm0, ymm0, YMMWORD PTR y5$[rbp], 14
  00089	c5 fe 7f 85 a0
	00 00 00	 vmovdqu YMMWORD PTR $T3[rbp], ymm0
  00091	48 8b 84 24 88
	02 00 00	 mov	 rax, QWORD PTR y1$[rsp]
  00099	c5 fe 6f 00	 vmovdqu ymm0, YMMWORD PTR [rax]
  0009d	c4 e2 7d 00 85
	a0 00 00 00	 vpshufb ymm0, ymm0, YMMWORD PTR $T3[rbp]
  000a6	c5 fe 7f 85 c0
	00 00 00	 vmovdqu YMMWORD PTR $T4[rbp], ymm0
  000ae	48 8b 84 24 88
	02 00 00	 mov	 rax, QWORD PTR y1$[rsp]
  000b6	c5 fe 6f 85 c0
	00 00 00	 vmovdqu ymm0, YMMWORD PTR $T4[rbp]
  000be	c5 fe 7f 00	 vmovdqu YMMWORD PTR [rax], ymm0

; 1011 :     y2 = _mm256_shuffle_epi8(y2, _mm256_alignr_epi8(y5, y5, 12)); //7,4,1,6,3,0,5,2

  000c2	c5 fe 6f 45 40	 vmovdqu ymm0, YMMWORD PTR y5$[rbp]
  000c7	c4 e3 7d 0f 45
	40 0c		 vpalignr ymm0, ymm0, YMMWORD PTR y5$[rbp], 12
  000ce	c5 fe 7f 85 e0
	00 00 00	 vmovdqu YMMWORD PTR $T5[rbp], ymm0
  000d6	48 8b 84 24 90
	02 00 00	 mov	 rax, QWORD PTR y2$[rsp]
  000de	c5 fe 6f 00	 vmovdqu ymm0, YMMWORD PTR [rax]
  000e2	c4 e2 7d 00 85
	e0 00 00 00	 vpshufb ymm0, ymm0, YMMWORD PTR $T5[rbp]
  000eb	c5 fe 7f 85 00
	01 00 00	 vmovdqu YMMWORD PTR $T6[rbp], ymm0
  000f3	48 8b 84 24 90
	02 00 00	 mov	 rax, QWORD PTR y2$[rsp]
  000fb	c5 fe 6f 85 00
	01 00 00	 vmovdqu ymm0, YMMWORD PTR $T6[rbp]
  00103	c5 fe 7f 00	 vmovdqu YMMWORD PTR [rax], ymm0

; 1012 : 
; 1013 :     y3 = _mm256_blend_epi16(y0, y1, 0x80 + 0x10 + 0x02);

  00107	48 8b 84 24 80
	02 00 00	 mov	 rax, QWORD PTR y0$[rsp]
  0010f	48 8b 8c 24 88
	02 00 00	 mov	 rcx, QWORD PTR y1$[rsp]
  00117	c5 fe 6f 00	 vmovdqu ymm0, YMMWORD PTR [rax]
  0011b	c4 e3 7d 0e 01
	92		 vpblendw ymm0, ymm0, YMMWORD PTR [rcx], 146 ; 00000092H
  00121	c5 fe 7f 85 20
	01 00 00	 vmovdqu YMMWORD PTR $T7[rbp], ymm0
  00129	c5 fe 6f 85 20
	01 00 00	 vmovdqu ymm0, YMMWORD PTR $T7[rbp]
  00131	c5 fe 7f 45 00	 vmovdqu YMMWORD PTR y3$[rbp], ymm0

; 1014 :     y3 = _mm256_blend_epi16(y3, y2, 0x20 + 0x04);        //384, 0

  00136	48 8b 84 24 90
	02 00 00	 mov	 rax, QWORD PTR y2$[rsp]
  0013e	c5 fe 6f 45 00	 vmovdqu ymm0, YMMWORD PTR y3$[rbp]
  00143	c4 e3 7d 0e 00
	24		 vpblendw ymm0, ymm0, YMMWORD PTR [rax], 36 ; 00000024H
  00149	c5 fe 7f 85 40
	01 00 00	 vmovdqu YMMWORD PTR $T8[rbp], ymm0
  00151	c5 fe 6f 85 40
	01 00 00	 vmovdqu ymm0, YMMWORD PTR $T8[rbp]
  00159	c5 fe 7f 45 00	 vmovdqu YMMWORD PTR y3$[rbp], ymm0

; 1015 : 
; 1016 :     y4 = _mm256_blend_epi16(y2, y1, 0x20 + 0x04);

  0015e	48 8b 84 24 90
	02 00 00	 mov	 rax, QWORD PTR y2$[rsp]
  00166	48 8b 8c 24 88
	02 00 00	 mov	 rcx, QWORD PTR y1$[rsp]
  0016e	c5 fe 6f 00	 vmovdqu ymm0, YMMWORD PTR [rax]
  00172	c4 e3 7d 0e 01
	24		 vpblendw ymm0, ymm0, YMMWORD PTR [rcx], 36 ; 00000024H
  00178	c5 fe 7f 85 60
	01 00 00	 vmovdqu YMMWORD PTR $T9[rbp], ymm0
  00180	c5 fe 6f 85 60
	01 00 00	 vmovdqu ymm0, YMMWORD PTR $T9[rbp]
  00188	c5 fe 7f 45 20	 vmovdqu YMMWORD PTR y4$[rbp], ymm0

; 1017 :     y4 = _mm256_blend_epi16(y4, y0, 0x80 + 0x10 + 0x02); //512, 128

  0018d	48 8b 84 24 80
	02 00 00	 mov	 rax, QWORD PTR y0$[rsp]
  00195	c5 fe 6f 45 20	 vmovdqu ymm0, YMMWORD PTR y4$[rbp]
  0019a	c4 e3 7d 0e 00
	92		 vpblendw ymm0, ymm0, YMMWORD PTR [rax], 146 ; 00000092H
  001a0	c5 fe 7f 85 80
	01 00 00	 vmovdqu YMMWORD PTR $T10[rbp], ymm0
  001a8	c5 fe 6f 85 80
	01 00 00	 vmovdqu ymm0, YMMWORD PTR $T10[rbp]
  001b0	c5 fe 7f 45 20	 vmovdqu YMMWORD PTR y4$[rbp], ymm0

; 1018 : 
; 1019 :     y2 = _mm256_blend_epi16(y2, y0, 0x20 + 0x04);

  001b5	48 8b 84 24 90
	02 00 00	 mov	 rax, QWORD PTR y2$[rsp]
  001bd	48 8b 8c 24 80
	02 00 00	 mov	 rcx, QWORD PTR y0$[rsp]
  001c5	c5 fe 6f 00	 vmovdqu ymm0, YMMWORD PTR [rax]
  001c9	c4 e3 7d 0e 01
	24		 vpblendw ymm0, ymm0, YMMWORD PTR [rcx], 36 ; 00000024H
  001cf	c5 fe 7f 85 a0
	01 00 00	 vmovdqu YMMWORD PTR $T11[rbp], ymm0
  001d7	48 8b 84 24 90
	02 00 00	 mov	 rax, QWORD PTR y2$[rsp]
  001df	c5 fe 6f 85 a0
	01 00 00	 vmovdqu ymm0, YMMWORD PTR $T11[rbp]
  001e7	c5 fe 7f 00	 vmovdqu YMMWORD PTR [rax], ymm0

; 1020 :     y2 = _mm256_blend_epi16(y2, y1, 0x40 + 0x08 + 0x01); //640, 256

  001eb	48 8b 84 24 90
	02 00 00	 mov	 rax, QWORD PTR y2$[rsp]
  001f3	48 8b 8c 24 88
	02 00 00	 mov	 rcx, QWORD PTR y1$[rsp]
  001fb	c5 fe 6f 00	 vmovdqu ymm0, YMMWORD PTR [rax]
  001ff	c4 e3 7d 0e 01
	49		 vpblendw ymm0, ymm0, YMMWORD PTR [rcx], 73 ; 00000049H
  00205	c5 fe 7f 85 c0
	01 00 00	 vmovdqu YMMWORD PTR $T12[rbp], ymm0
  0020d	48 8b 84 24 90
	02 00 00	 mov	 rax, QWORD PTR y2$[rsp]
  00215	c5 fe 6f 85 c0
	01 00 00	 vmovdqu ymm0, YMMWORD PTR $T12[rbp]
  0021d	c5 fe 7f 00	 vmovdqu YMMWORD PTR [rax], ymm0

; 1021 : 
; 1022 :     y0 = _mm256_permute2x128_si256(y3, y4, (0x02<<4) + 0x00); // 128, 0

  00221	c5 fe 6f 45 00	 vmovdqu ymm0, YMMWORD PTR y3$[rbp]
  00226	c4 e3 7d 46 45
	20 20		 vperm2i128 ymm0, ymm0, YMMWORD PTR y4$[rbp], 32 ; 00000020H
  0022d	c5 fe 7f 85 e0
	01 00 00	 vmovdqu YMMWORD PTR $T13[rbp], ymm0
  00235	48 8b 84 24 80
	02 00 00	 mov	 rax, QWORD PTR y0$[rsp]
  0023d	c5 fe 6f 85 e0
	01 00 00	 vmovdqu ymm0, YMMWORD PTR $T13[rbp]
  00245	c5 fe 7f 00	 vmovdqu YMMWORD PTR [rax], ymm0

; 1023 :     y1 = _mm256_blend_epi32(y2, y3, 0xf0);                    // 384, 256

  00249	48 8b 84 24 90
	02 00 00	 mov	 rax, QWORD PTR y2$[rsp]
  00251	c5 fe 6f 00	 vmovdqu ymm0, YMMWORD PTR [rax]
  00255	c4 e3 7d 02 45
	00 f0		 vpblendd ymm0, ymm0, YMMWORD PTR y3$[rbp], 240 ; 000000f0H
  0025c	c5 fe 7f 85 00
	02 00 00	 vmovdqu YMMWORD PTR $T14[rbp], ymm0
  00264	48 8b 84 24 88
	02 00 00	 mov	 rax, QWORD PTR y1$[rsp]
  0026c	c5 fe 6f 85 00
	02 00 00	 vmovdqu ymm0, YMMWORD PTR $T14[rbp]
  00274	c5 fe 7f 00	 vmovdqu YMMWORD PTR [rax], ymm0

; 1024 :     y2 = _mm256_permute2x128_si256(y4, y2, (0x03<<4) + 0x01); // 640, 512

  00278	48 8b 84 24 90
	02 00 00	 mov	 rax, QWORD PTR y2$[rsp]
  00280	c5 fe 6f 45 20	 vmovdqu ymm0, YMMWORD PTR y4$[rbp]
  00285	c4 e3 7d 46 00
	31		 vperm2i128 ymm0, ymm0, YMMWORD PTR [rax], 49 ; 00000031H
  0028b	c5 fe 7f 85 20
	02 00 00	 vmovdqu YMMWORD PTR $T15[rbp], ymm0
  00293	48 8b 84 24 90
	02 00 00	 mov	 rax, QWORD PTR y2$[rsp]
  0029b	c5 fe 6f 85 20
	02 00 00	 vmovdqu ymm0, YMMWORD PTR $T15[rbp]
  002a3	c5 fe 7f 00	 vmovdqu YMMWORD PTR [rax], ymm0

; 1025 : }

  002a7	48 81 c4 68 02
	00 00		 add	 rsp, 616		; 00000268H
  002ae	5f		 pop	 rdi
  002af	5d		 pop	 rbp
  002b0	c3		 ret	 0
?gather_y_u_v_to_yc48@@YAXAEAT__m256i@@00@Z ENDP	; gather_y_u_v_to_yc48
_TEXT	ENDS
; Function compile flags: /Odtp /RTCsu
; File D:\work\intel\intel_codec\QSVPipeline\convert_csp_avx2.cpp
_TEXT	SEGMENT
y3$ = 0
y4$ = 32
y5$ = 64
MASK_INT$ = 96
$T1 = 128
$T2 = 160
$T3 = 192
$T4 = 224
$T5 = 256
$T6 = 288
$T7 = 320
$T8 = 352
$T9 = 384
$T10 = 416
$T11 = 448
$T12 = 480
$T13 = 512
$T14 = 544
$T15 = 576
$T16 = 608
$T17 = 640
$T18 = 672
$T19 = 704
y0$ = 800
y1$ = 808
y2$ = 816
?gather_y_u_v_from_yc48@@YAXAEAT__m256i@@00@Z PROC	; gather_y_u_v_from_yc48

; 980  : static __forceinline void gather_y_u_v_from_yc48(__m256i& y0, __m256i& y1, __m256i& y2) {

  00000	4c 89 44 24 18	 mov	 QWORD PTR [rsp+24], r8
  00005	48 89 54 24 10	 mov	 QWORD PTR [rsp+16], rdx
  0000a	48 89 4c 24 08	 mov	 QWORD PTR [rsp+8], rcx
  0000f	55		 push	 rbp
  00010	57		 push	 rdi
  00011	48 81 ec 08 03
	00 00		 sub	 rsp, 776		; 00000308H
  00018	48 8d 6c 24 20	 lea	 rbp, QWORD PTR [rsp+32]
  0001d	48 83 e5 e0	 and	 rbp, -32		; ffffffffffffffe0H
  00021	48 8b fc	 mov	 rdi, rsp
  00024	b9 c2 00 00 00	 mov	 ecx, 194		; 000000c2H
  00029	b8 cc cc cc cc	 mov	 eax, -858993460		; ccccccccH
  0002e	f3 ab		 rep stosd
  00030	48 8b 8c 24 20
	03 00 00	 mov	 rcx, QWORD PTR [rsp+800]

; 981  :     __m256i y3, y4, y5;
; 982  :     const int MASK_INT = 0x40 + 0x08 + 0x01;

  00038	c7 45 60 49 00
	00 00		 mov	 DWORD PTR MASK_INT$[rbp], 73 ; 00000049H

; 983  :     y3 = _mm256_blend_epi32(y0, y1, 0xf0);                    // 384, 0

  0003f	48 8b 84 24 20
	03 00 00	 mov	 rax, QWORD PTR y0$[rsp]
  00047	48 8b 8c 24 28
	03 00 00	 mov	 rcx, QWORD PTR y1$[rsp]
  0004f	c5 fe 6f 00	 vmovdqu ymm0, YMMWORD PTR [rax]
  00053	c4 e3 7d 02 01
	f0		 vpblendd ymm0, ymm0, YMMWORD PTR [rcx], 240 ; 000000f0H
  00059	c5 fe 7f 85 80
	00 00 00	 vmovdqu YMMWORD PTR $T1[rbp], ymm0
  00061	c5 fe 6f 85 80
	00 00 00	 vmovdqu ymm0, YMMWORD PTR $T1[rbp]
  00069	c5 fe 7f 45 00	 vmovdqu YMMWORD PTR y3$[rbp], ymm0

; 984  :     y4 = _mm256_permute2x128_si256(y0, y2, (0x02<<4) + 0x01); // 512, 128

  0006e	48 8b 84 24 20
	03 00 00	 mov	 rax, QWORD PTR y0$[rsp]
  00076	48 8b 8c 24 30
	03 00 00	 mov	 rcx, QWORD PTR y2$[rsp]
  0007e	c5 fe 6f 00	 vmovdqu ymm0, YMMWORD PTR [rax]
  00082	c4 e3 7d 46 01
	21		 vperm2i128 ymm0, ymm0, YMMWORD PTR [rcx], 33 ; 00000021H
  00088	c5 fe 7f 85 a0
	00 00 00	 vmovdqu YMMWORD PTR $T2[rbp], ymm0
  00090	c5 fe 6f 85 a0
	00 00 00	 vmovdqu ymm0, YMMWORD PTR $T2[rbp]
  00098	c5 fe 7f 45 20	 vmovdqu YMMWORD PTR y4$[rbp], ymm0

; 985  :     y5 = _mm256_blend_epi32(y1, y2, 0xf0);                    // 640, 256

  0009d	48 8b 84 24 28
	03 00 00	 mov	 rax, QWORD PTR y1$[rsp]
  000a5	48 8b 8c 24 30
	03 00 00	 mov	 rcx, QWORD PTR y2$[rsp]
  000ad	c5 fe 6f 00	 vmovdqu ymm0, YMMWORD PTR [rax]
  000b1	c4 e3 7d 02 01
	f0		 vpblendd ymm0, ymm0, YMMWORD PTR [rcx], 240 ; 000000f0H
  000b7	c5 fe 7f 85 c0
	00 00 00	 vmovdqu YMMWORD PTR $T3[rbp], ymm0
  000bf	c5 fe 6f 85 c0
	00 00 00	 vmovdqu ymm0, YMMWORD PTR $T3[rbp]
  000c7	c5 fe 7f 45 40	 vmovdqu YMMWORD PTR y5$[rbp], ymm0

; 986  : 
; 987  :     y0 = _mm256_blend_epi16(y5, y3, MASK_INT);

  000cc	c5 fe 6f 45 40	 vmovdqu ymm0, YMMWORD PTR y5$[rbp]
  000d1	c4 e3 7d 0e 45
	00 49		 vpblendw ymm0, ymm0, YMMWORD PTR y3$[rbp], 73 ; 00000049H
  000d8	c5 fe 7f 85 e0
	00 00 00	 vmovdqu YMMWORD PTR $T4[rbp], ymm0
  000e0	48 8b 84 24 20
	03 00 00	 mov	 rax, QWORD PTR y0$[rsp]
  000e8	c5 fe 6f 85 e0
	00 00 00	 vmovdqu ymm0, YMMWORD PTR $T4[rbp]
  000f0	c5 fe 7f 00	 vmovdqu YMMWORD PTR [rax], ymm0

; 988  :     y1 = _mm256_blend_epi16(y4, y5, MASK_INT);

  000f4	c5 fe 6f 45 20	 vmovdqu ymm0, YMMWORD PTR y4$[rbp]
  000f9	c4 e3 7d 0e 45
	40 49		 vpblendw ymm0, ymm0, YMMWORD PTR y5$[rbp], 73 ; 00000049H
  00100	c5 fe 7f 85 00
	01 00 00	 vmovdqu YMMWORD PTR $T5[rbp], ymm0
  00108	48 8b 84 24 28
	03 00 00	 mov	 rax, QWORD PTR y1$[rsp]
  00110	c5 fe 6f 85 00
	01 00 00	 vmovdqu ymm0, YMMWORD PTR $T5[rbp]
  00118	c5 fe 7f 00	 vmovdqu YMMWORD PTR [rax], ymm0

; 989  :     y2 = _mm256_blend_epi16(y3, y4, MASK_INT);

  0011c	c5 fe 6f 45 00	 vmovdqu ymm0, YMMWORD PTR y3$[rbp]
  00121	c4 e3 7d 0e 45
	20 49		 vpblendw ymm0, ymm0, YMMWORD PTR y4$[rbp], 73 ; 00000049H
  00128	c5 fe 7f 85 20
	01 00 00	 vmovdqu YMMWORD PTR $T6[rbp], ymm0
  00130	48 8b 84 24 30
	03 00 00	 mov	 rax, QWORD PTR y2$[rsp]
  00138	c5 fe 6f 85 20
	01 00 00	 vmovdqu ymm0, YMMWORD PTR $T6[rbp]
  00140	c5 fe 7f 00	 vmovdqu YMMWORD PTR [rax], ymm0

; 990  : 
; 991  :     y0 = _mm256_blend_epi16(y0, y4, MASK_INT<<1);

  00144	48 8b 84 24 20
	03 00 00	 mov	 rax, QWORD PTR y0$[rsp]
  0014c	c5 fe 6f 00	 vmovdqu ymm0, YMMWORD PTR [rax]
  00150	c4 e3 7d 0e 45
	20 92		 vpblendw ymm0, ymm0, YMMWORD PTR y4$[rbp], 146 ; 00000092H
  00157	c5 fe 7f 85 40
	01 00 00	 vmovdqu YMMWORD PTR $T7[rbp], ymm0
  0015f	48 8b 84 24 20
	03 00 00	 mov	 rax, QWORD PTR y0$[rsp]
  00167	c5 fe 6f 85 40
	01 00 00	 vmovdqu ymm0, YMMWORD PTR $T7[rbp]
  0016f	c5 fe 7f 00	 vmovdqu YMMWORD PTR [rax], ymm0

; 992  :     y1 = _mm256_blend_epi16(y1, y3, MASK_INT<<1);

  00173	48 8b 84 24 28
	03 00 00	 mov	 rax, QWORD PTR y1$[rsp]
  0017b	c5 fe 6f 00	 vmovdqu ymm0, YMMWORD PTR [rax]
  0017f	c4 e3 7d 0e 45
	00 92		 vpblendw ymm0, ymm0, YMMWORD PTR y3$[rbp], 146 ; 00000092H
  00186	c5 fe 7f 85 60
	01 00 00	 vmovdqu YMMWORD PTR $T8[rbp], ymm0
  0018e	48 8b 84 24 28
	03 00 00	 mov	 rax, QWORD PTR y1$[rsp]
  00196	c5 fe 6f 85 60
	01 00 00	 vmovdqu ymm0, YMMWORD PTR $T8[rbp]
  0019e	c5 fe 7f 00	 vmovdqu YMMWORD PTR [rax], ymm0

; 993  :     y2 = _mm256_blend_epi16(y2, y5, MASK_INT<<1);

  001a2	48 8b 84 24 30
	03 00 00	 mov	 rax, QWORD PTR y2$[rsp]
  001aa	c5 fe 6f 00	 vmovdqu ymm0, YMMWORD PTR [rax]
  001ae	c4 e3 7d 0e 45
	40 92		 vpblendw ymm0, ymm0, YMMWORD PTR y5$[rbp], 146 ; 00000092H
  001b5	c5 fe 7f 85 80
	01 00 00	 vmovdqu YMMWORD PTR $T9[rbp], ymm0
  001bd	48 8b 84 24 30
	03 00 00	 mov	 rax, QWORD PTR y2$[rsp]
  001c5	c5 fe 6f 85 80
	01 00 00	 vmovdqu ymm0, YMMWORD PTR $T9[rbp]
  001cd	c5 fe 7f 00	 vmovdqu YMMWORD PTR [rax], ymm0

; 994  : 
; 995  :     y0 = _mm256_shuffle_epi8(y0, yC_SUFFLE_YCP_Y);

  001d1	c5 fd 6f 05 00
	00 00 00	 vmovdqa ymm0, YMMWORD PTR ?Array_SUFFLE_YCP_Y@@3QBEB
  001d9	c5 fe 7f 85 a0
	01 00 00	 vmovdqu YMMWORD PTR $T10[rbp], ymm0
  001e1	48 8b 84 24 20
	03 00 00	 mov	 rax, QWORD PTR y0$[rsp]
  001e9	c5 fe 6f 00	 vmovdqu ymm0, YMMWORD PTR [rax]
  001ed	c4 e2 7d 00 85
	a0 01 00 00	 vpshufb ymm0, ymm0, YMMWORD PTR $T10[rbp]
  001f6	c5 fe 7f 85 c0
	01 00 00	 vmovdqu YMMWORD PTR $T11[rbp], ymm0
  001fe	48 8b 84 24 20
	03 00 00	 mov	 rax, QWORD PTR y0$[rsp]
  00206	c5 fe 6f 85 c0
	01 00 00	 vmovdqu ymm0, YMMWORD PTR $T11[rbp]
  0020e	c5 fe 7f 00	 vmovdqu YMMWORD PTR [rax], ymm0

; 996  :     y1 = _mm256_shuffle_epi8(y1, _mm256_alignr_epi8(yC_SUFFLE_YCP_Y, yC_SUFFLE_YCP_Y, 6));

  00212	c5 fd 6f 05 00
	00 00 00	 vmovdqa ymm0, YMMWORD PTR ?Array_SUFFLE_YCP_Y@@3QBEB
  0021a	c5 fe 7f 85 00
	02 00 00	 vmovdqu YMMWORD PTR $T13[rbp], ymm0
  00222	c5 fd 6f 05 00
	00 00 00	 vmovdqa ymm0, YMMWORD PTR ?Array_SUFFLE_YCP_Y@@3QBEB
  0022a	c5 fe 7f 85 e0
	01 00 00	 vmovdqu YMMWORD PTR $T12[rbp], ymm0
  00232	c5 fe 6f 85 e0
	01 00 00	 vmovdqu ymm0, YMMWORD PTR $T12[rbp]
  0023a	c4 e3 7d 0f 85
	00 02 00 00 06	 vpalignr ymm0, ymm0, YMMWORD PTR $T13[rbp], 6
  00244	c5 fe 7f 85 20
	02 00 00	 vmovdqu YMMWORD PTR $T14[rbp], ymm0
  0024c	48 8b 84 24 28
	03 00 00	 mov	 rax, QWORD PTR y1$[rsp]
  00254	c5 fe 6f 00	 vmovdqu ymm0, YMMWORD PTR [rax]
  00258	c4 e2 7d 00 85
	20 02 00 00	 vpshufb ymm0, ymm0, YMMWORD PTR $T14[rbp]
  00261	c5 fe 7f 85 40
	02 00 00	 vmovdqu YMMWORD PTR $T15[rbp], ymm0
  00269	48 8b 84 24 28
	03 00 00	 mov	 rax, QWORD PTR y1$[rsp]
  00271	c5 fe 6f 85 40
	02 00 00	 vmovdqu ymm0, YMMWORD PTR $T15[rbp]
  00279	c5 fe 7f 00	 vmovdqu YMMWORD PTR [rax], ymm0

; 997  :     y2 = _mm256_shuffle_epi8(y2, _mm256_alignr_epi8(yC_SUFFLE_YCP_Y, yC_SUFFLE_YCP_Y, 12));

  0027d	c5 fd 6f 05 00
	00 00 00	 vmovdqa ymm0, YMMWORD PTR ?Array_SUFFLE_YCP_Y@@3QBEB
  00285	c5 fe 7f 85 80
	02 00 00	 vmovdqu YMMWORD PTR $T17[rbp], ymm0
  0028d	c5 fd 6f 05 00
	00 00 00	 vmovdqa ymm0, YMMWORD PTR ?Array_SUFFLE_YCP_Y@@3QBEB
  00295	c5 fe 7f 85 60
	02 00 00	 vmovdqu YMMWORD PTR $T16[rbp], ymm0
  0029d	c5 fe 6f 85 60
	02 00 00	 vmovdqu ymm0, YMMWORD PTR $T16[rbp]
  002a5	c4 e3 7d 0f 85
	80 02 00 00 0c	 vpalignr ymm0, ymm0, YMMWORD PTR $T17[rbp], 12
  002af	c5 fe 7f 85 a0
	02 00 00	 vmovdqu YMMWORD PTR $T18[rbp], ymm0
  002b7	48 8b 84 24 30
	03 00 00	 mov	 rax, QWORD PTR y2$[rsp]
  002bf	c5 fe 6f 00	 vmovdqu ymm0, YMMWORD PTR [rax]
  002c3	c4 e2 7d 00 85
	a0 02 00 00	 vpshufb ymm0, ymm0, YMMWORD PTR $T18[rbp]
  002cc	c5 fe 7f 85 c0
	02 00 00	 vmovdqu YMMWORD PTR $T19[rbp], ymm0
  002d4	48 8b 84 24 30
	03 00 00	 mov	 rax, QWORD PTR y2$[rsp]
  002dc	c5 fe 6f 85 c0
	02 00 00	 vmovdqu ymm0, YMMWORD PTR $T19[rbp]
  002e4	c5 fe 7f 00	 vmovdqu YMMWORD PTR [rax], ymm0

; 998  : }

  002e8	48 81 c4 08 03
	00 00		 add	 rsp, 776		; 00000308H
  002ef	5f		 pop	 rdi
  002f0	5d		 pop	 rbp
  002f1	c3		 ret	 0
?gather_y_u_v_from_yc48@@YAXAEAT__m256i@@00@Z ENDP	; gather_y_u_v_from_yc48
_TEXT	ENDS
; Function compile flags: /Odtp /RTCsu
; File D:\work\intel\intel_codec\QSVPipeline\convert_csp_avx2.cpp
_TEXT	SEGMENT
yC_coeff$ = 0
$T1 = 32
$T2 = 64
$T3 = 96
yC_0x8000$ = 128
$T4 = 160
$T5 = 192
y1$ = 224
$T6 = 256
$T7 = 288
$T8 = 320
$T9 = 352
$T10 = 384
$T11 = 416
$T12 = 448
$T13 = 480
y0$ = 608
?convert_uv_range_to_yc48@@YA?AT__m256i@@T1@@Z PROC	; convert_uv_range_to_yc48

; 963  : static __forceinline __m256i convert_uv_range_to_yc48(__m256i y0) {

  00000	48 89 4c 24 08	 mov	 QWORD PTR [rsp+8], rcx
  00005	55		 push	 rbp
  00006	57		 push	 rdi
  00007	48 81 ec 48 02
	00 00		 sub	 rsp, 584		; 00000248H
  0000e	48 8d 6c 24 40	 lea	 rbp, QWORD PTR [rsp+64]
  00013	48 83 e5 e0	 and	 rbp, -32		; ffffffffffffffe0H
  00017	48 8b fc	 mov	 rdi, rsp
  0001a	b9 92 00 00 00	 mov	 ecx, 146		; 00000092H
  0001f	b8 cc cc cc cc	 mov	 eax, -858993460		; ccccccccH
  00024	f3 ab		 rep stosd
  00026	48 8b 8c 24 60
	02 00 00	 mov	 rcx, QWORD PTR [rsp+608]

; 964  :     //coeff = 4682
; 965  :     //UV = (( uv - 32768 ) * coef + (1<<15) ) >> 16
; 966  :     const __m256i yC_coeff = _mm256_unpacklo_epi16(_mm256_set1_epi16(4682), _mm256_set1_epi16(-1));

  0002e	c5 fe 6f 05 00
	00 00 00	 vmovdqu ymm0, YMMWORD PTR __ymm@ffffffffffffffffffffffffffffffffffffffffffffffffffffffffffffffff
  00036	c5 fe 7f 45 40	 vmovdqu YMMWORD PTR $T2[rbp], ymm0
  0003b	c5 fe 6f 05 00
	00 00 00	 vmovdqu ymm0, YMMWORD PTR __ymm@124a124a124a124a124a124a124a124a124a124a124a124a124a124a124a124a
  00043	c5 fe 7f 45 20	 vmovdqu YMMWORD PTR $T1[rbp], ymm0
  00048	c5 fe 6f 45 20	 vmovdqu ymm0, YMMWORD PTR $T1[rbp]
  0004d	c5 fd 61 45 40	 vpunpcklwd ymm0, ymm0, YMMWORD PTR $T2[rbp]
  00052	c5 fe 7f 45 60	 vmovdqu YMMWORD PTR $T3[rbp], ymm0
  00057	c5 fe 6f 45 60	 vmovdqu ymm0, YMMWORD PTR $T3[rbp]
  0005c	c5 fe 7f 45 00	 vmovdqu YMMWORD PTR yC_coeff$[rbp], ymm0

; 967  :     const __m256i yC_0x8000 = _mm256_slli_epi16(_mm256_cmpeq_epi32(y0, y0), 15);

  00061	48 8b 84 24 60
	02 00 00	 mov	 rax, QWORD PTR y0$[rsp]
  00069	48 8b 8c 24 60
	02 00 00	 mov	 rcx, QWORD PTR y0$[rsp]
  00071	c5 fe 6f 00	 vmovdqu ymm0, YMMWORD PTR [rax]
  00075	c5 fd 76 01	 vpcmpeqd ymm0, ymm0, YMMWORD PTR [rcx]
  00079	c5 fe 7f 85 a0
	00 00 00	 vmovdqu YMMWORD PTR $T4[rbp], ymm0
  00081	c5 fe 6f 85 a0
	00 00 00	 vmovdqu ymm0, YMMWORD PTR $T4[rbp]
  00089	c5 fd 71 f0 0f	 vpsllw	 ymm0, ymm0, 15
  0008e	c5 fe 7f 85 c0
	00 00 00	 vmovdqu YMMWORD PTR $T5[rbp], ymm0
  00096	c5 fe 6f 85 c0
	00 00 00	 vmovdqu ymm0, YMMWORD PTR $T5[rbp]
  0009e	c5 fe 7f 85 80
	00 00 00	 vmovdqu YMMWORD PTR yC_0x8000$[rbp], ymm0

; 968  :     __m256i y1;
; 969  :     y0 = _mm256_add_epi16(y0, yC_0x8000); // -32768

  000a6	48 8b 84 24 60
	02 00 00	 mov	 rax, QWORD PTR y0$[rsp]
  000ae	c5 fe 6f 00	 vmovdqu ymm0, YMMWORD PTR [rax]
  000b2	c5 fd fd 85 80
	00 00 00	 vpaddw	 ymm0, ymm0, YMMWORD PTR yC_0x8000$[rbp]
  000ba	c5 fe 7f 85 00
	01 00 00	 vmovdqu YMMWORD PTR $T6[rbp], ymm0
  000c2	48 8b 84 24 60
	02 00 00	 mov	 rax, QWORD PTR y0$[rsp]
  000ca	c5 fe 6f 85 00
	01 00 00	 vmovdqu ymm0, YMMWORD PTR $T6[rbp]
  000d2	c5 fe 7f 00	 vmovdqu YMMWORD PTR [rax], ymm0

; 970  :     y1 = _mm256_unpackhi_epi16(y0, yC_0x8000);

  000d6	48 8b 84 24 60
	02 00 00	 mov	 rax, QWORD PTR y0$[rsp]
  000de	c5 fe 6f 00	 vmovdqu ymm0, YMMWORD PTR [rax]
  000e2	c5 fd 69 85 80
	00 00 00	 vpunpckhwd ymm0, ymm0, YMMWORD PTR yC_0x8000$[rbp]
  000ea	c5 fe 7f 85 20
	01 00 00	 vmovdqu YMMWORD PTR $T7[rbp], ymm0
  000f2	c5 fe 6f 85 20
	01 00 00	 vmovdqu ymm0, YMMWORD PTR $T7[rbp]
  000fa	c5 fe 7f 85 e0
	00 00 00	 vmovdqu YMMWORD PTR y1$[rbp], ymm0

; 971  :     y0 = _mm256_unpacklo_epi16(y0, yC_0x8000);

  00102	48 8b 84 24 60
	02 00 00	 mov	 rax, QWORD PTR y0$[rsp]
  0010a	c5 fe 6f 00	 vmovdqu ymm0, YMMWORD PTR [rax]
  0010e	c5 fd 61 85 80
	00 00 00	 vpunpcklwd ymm0, ymm0, YMMWORD PTR yC_0x8000$[rbp]
  00116	c5 fe 7f 85 40
	01 00 00	 vmovdqu YMMWORD PTR $T8[rbp], ymm0
  0011e	48 8b 84 24 60
	02 00 00	 mov	 rax, QWORD PTR y0$[rsp]
  00126	c5 fe 6f 85 40
	01 00 00	 vmovdqu ymm0, YMMWORD PTR $T8[rbp]
  0012e	c5 fe 7f 00	 vmovdqu YMMWORD PTR [rax], ymm0

; 972  :     y0 = _mm256_madd_epi16(y0, yC_coeff);

  00132	48 8b 84 24 60
	02 00 00	 mov	 rax, QWORD PTR y0$[rsp]
  0013a	c5 fe 6f 00	 vmovdqu ymm0, YMMWORD PTR [rax]
  0013e	c5 fd f5 45 00	 vpmaddwd ymm0, ymm0, YMMWORD PTR yC_coeff$[rbp]
  00143	c5 fe 7f 85 60
	01 00 00	 vmovdqu YMMWORD PTR $T9[rbp], ymm0
  0014b	48 8b 84 24 60
	02 00 00	 mov	 rax, QWORD PTR y0$[rsp]
  00153	c5 fe 6f 85 60
	01 00 00	 vmovdqu ymm0, YMMWORD PTR $T9[rbp]
  0015b	c5 fe 7f 00	 vmovdqu YMMWORD PTR [rax], ymm0

; 973  :     y1 = _mm256_madd_epi16(y1, yC_coeff);

  0015f	c5 fe 6f 85 e0
	00 00 00	 vmovdqu ymm0, YMMWORD PTR y1$[rbp]
  00167	c5 fd f5 45 00	 vpmaddwd ymm0, ymm0, YMMWORD PTR yC_coeff$[rbp]
  0016c	c5 fe 7f 85 80
	01 00 00	 vmovdqu YMMWORD PTR $T10[rbp], ymm0
  00174	c5 fe 6f 85 80
	01 00 00	 vmovdqu ymm0, YMMWORD PTR $T10[rbp]
  0017c	c5 fe 7f 85 e0
	00 00 00	 vmovdqu YMMWORD PTR y1$[rbp], ymm0

; 974  :     y0 = _mm256_srai_epi32(y0, 16);

  00184	48 8b 84 24 60
	02 00 00	 mov	 rax, QWORD PTR y0$[rsp]
  0018c	c5 fe 6f 00	 vmovdqu ymm0, YMMWORD PTR [rax]
  00190	c5 fd 72 e0 10	 vpsrad	 ymm0, ymm0, 16
  00195	c5 fe 7f 85 a0
	01 00 00	 vmovdqu YMMWORD PTR $T11[rbp], ymm0
  0019d	48 8b 84 24 60
	02 00 00	 mov	 rax, QWORD PTR y0$[rsp]
  001a5	c5 fe 6f 85 a0
	01 00 00	 vmovdqu ymm0, YMMWORD PTR $T11[rbp]
  001ad	c5 fe 7f 00	 vmovdqu YMMWORD PTR [rax], ymm0

; 975  :     y1 = _mm256_srai_epi32(y1, 16);

  001b1	c5 fe 6f 85 e0
	00 00 00	 vmovdqu ymm0, YMMWORD PTR y1$[rbp]
  001b9	c5 fd 72 e0 10	 vpsrad	 ymm0, ymm0, 16
  001be	c5 fe 7f 85 c0
	01 00 00	 vmovdqu YMMWORD PTR $T12[rbp], ymm0
  001c6	c5 fe 6f 85 c0
	01 00 00	 vmovdqu ymm0, YMMWORD PTR $T12[rbp]
  001ce	c5 fe 7f 85 e0
	00 00 00	 vmovdqu YMMWORD PTR y1$[rbp], ymm0

; 976  :     y0 = _mm256_packs_epi32(y0, y1);

  001d6	48 8b 84 24 60
	02 00 00	 mov	 rax, QWORD PTR y0$[rsp]
  001de	c5 fe 6f 00	 vmovdqu ymm0, YMMWORD PTR [rax]
  001e2	c5 fd 6b 85 e0
	00 00 00	 vpackssdw ymm0, ymm0, YMMWORD PTR y1$[rbp]
  001ea	c5 fe 7f 85 e0
	01 00 00	 vmovdqu YMMWORD PTR $T13[rbp], ymm0
  001f2	48 8b 84 24 60
	02 00 00	 mov	 rax, QWORD PTR y0$[rsp]
  001fa	c5 fe 6f 85 e0
	01 00 00	 vmovdqu ymm0, YMMWORD PTR $T13[rbp]
  00202	c5 fe 7f 00	 vmovdqu YMMWORD PTR [rax], ymm0

; 977  :     return y0;

  00206	48 8b 84 24 60
	02 00 00	 mov	 rax, QWORD PTR y0$[rsp]
  0020e	c5 fe 6f 00	 vmovdqu ymm0, YMMWORD PTR [rax]

; 978  : }

  00212	48 81 c4 48 02
	00 00		 add	 rsp, 584		; 00000248H
  00219	5f		 pop	 rdi
  0021a	5d		 pop	 rbp
  0021b	c3		 ret	 0
?convert_uv_range_to_yc48@@YA?AT__m256i@@T1@@Z ENDP	; convert_uv_range_to_yc48
_TEXT	ENDS
; Function compile flags: /Odtp /RTCsu
; File D:\work\intel\intel_codec\QSVPipeline\convert_csp_avx2.cpp
_TEXT	SEGMENT
yC_0x8000$ = 0
$T1 = 32
$T2 = 64
$T3 = 96
$T4 = 128
$T5 = 160
$T6 = 192
$T7 = 224
y0$ = 352
?convert_y_range_to_yc48@@YA?AT__m256i@@T1@@Z PROC	; convert_y_range_to_yc48

; 953  : static __forceinline __m256i convert_y_range_to_yc48(__m256i y0) {

  00000	48 89 4c 24 08	 mov	 QWORD PTR [rsp+8], rcx
  00005	55		 push	 rbp
  00006	57		 push	 rdi
  00007	48 81 ec 48 01
	00 00		 sub	 rsp, 328		; 00000148H
  0000e	48 8d 6c 24 40	 lea	 rbp, QWORD PTR [rsp+64]
  00013	48 83 e5 e0	 and	 rbp, -32		; ffffffffffffffe0H
  00017	48 8b fc	 mov	 rdi, rsp
  0001a	b9 52 00 00 00	 mov	 ecx, 82			; 00000052H
  0001f	b8 cc cc cc cc	 mov	 eax, -858993460		; ccccccccH
  00024	f3 ab		 rep stosd
  00026	48 8b 8c 24 60
	01 00 00	 mov	 rcx, QWORD PTR [rsp+352]

; 954  :     //coef = 4788
; 955  :     //((( y - 32768 ) * coef) >> 16 ) + (coef/2 - 299)
; 956  :     const __m256i yC_0x8000 = _mm256_slli_epi16(_mm256_cmpeq_epi32(y0, y0), 15);

  0002e	48 8b 84 24 60
	01 00 00	 mov	 rax, QWORD PTR y0$[rsp]
  00036	48 8b 8c 24 60
	01 00 00	 mov	 rcx, QWORD PTR y0$[rsp]
  0003e	c5 fe 6f 00	 vmovdqu ymm0, YMMWORD PTR [rax]
  00042	c5 fd 76 01	 vpcmpeqd ymm0, ymm0, YMMWORD PTR [rcx]
  00046	c5 fe 7f 45 20	 vmovdqu YMMWORD PTR $T1[rbp], ymm0
  0004b	c5 fe 6f 45 20	 vmovdqu ymm0, YMMWORD PTR $T1[rbp]
  00050	c5 fd 71 f0 0f	 vpsllw	 ymm0, ymm0, 15
  00055	c5 fe 7f 45 40	 vmovdqu YMMWORD PTR $T2[rbp], ymm0
  0005a	c5 fe 6f 45 40	 vmovdqu ymm0, YMMWORD PTR $T2[rbp]
  0005f	c5 fe 7f 45 00	 vmovdqu YMMWORD PTR yC_0x8000$[rbp], ymm0

; 957  :     y0 = _mm256_add_epi16(y0, yC_0x8000); // -32768

  00064	48 8b 84 24 60
	01 00 00	 mov	 rax, QWORD PTR y0$[rsp]
  0006c	c5 fe 6f 00	 vmovdqu ymm0, YMMWORD PTR [rax]
  00070	c5 fd fd 45 00	 vpaddw	 ymm0, ymm0, YMMWORD PTR yC_0x8000$[rbp]
  00075	c5 fe 7f 45 60	 vmovdqu YMMWORD PTR $T3[rbp], ymm0
  0007a	48 8b 84 24 60
	01 00 00	 mov	 rax, QWORD PTR y0$[rsp]
  00082	c5 fe 6f 45 60	 vmovdqu ymm0, YMMWORD PTR $T3[rbp]
  00087	c5 fe 7f 00	 vmovdqu YMMWORD PTR [rax], ymm0

; 958  :     y0 = _mm256_mulhi_epi16(y0, _mm256_set1_epi16(4788));

  0008b	c5 fe 6f 05 00
	00 00 00	 vmovdqu ymm0, YMMWORD PTR __ymm@12b412b412b412b412b412b412b412b412b412b412b412b412b412b412b412b4
  00093	c5 fe 7f 85 80
	00 00 00	 vmovdqu YMMWORD PTR $T4[rbp], ymm0
  0009b	48 8b 84 24 60
	01 00 00	 mov	 rax, QWORD PTR y0$[rsp]
  000a3	c5 fe 6f 00	 vmovdqu ymm0, YMMWORD PTR [rax]
  000a7	c5 fd e5 85 80
	00 00 00	 vpmulhw ymm0, ymm0, YMMWORD PTR $T4[rbp]
  000af	c5 fe 7f 85 a0
	00 00 00	 vmovdqu YMMWORD PTR $T5[rbp], ymm0
  000b7	48 8b 84 24 60
	01 00 00	 mov	 rax, QWORD PTR y0$[rsp]
  000bf	c5 fe 6f 85 a0
	00 00 00	 vmovdqu ymm0, YMMWORD PTR $T5[rbp]
  000c7	c5 fe 7f 00	 vmovdqu YMMWORD PTR [rax], ymm0

; 959  :     y0 = _mm256_adds_epi16(y0, _mm256_set1_epi16(4788/2 - 299));

  000cb	c5 fe 6f 05 00
	00 00 00	 vmovdqu ymm0, YMMWORD PTR __ymm@082f082f082f082f082f082f082f082f082f082f082f082f082f082f082f082f
  000d3	c5 fe 7f 85 c0
	00 00 00	 vmovdqu YMMWORD PTR $T6[rbp], ymm0
  000db	48 8b 84 24 60
	01 00 00	 mov	 rax, QWORD PTR y0$[rsp]
  000e3	c5 fe 6f 00	 vmovdqu ymm0, YMMWORD PTR [rax]
  000e7	c5 fd ed 85 c0
	00 00 00	 vpaddsw ymm0, ymm0, YMMWORD PTR $T6[rbp]
  000ef	c5 fe 7f 85 e0
	00 00 00	 vmovdqu YMMWORD PTR $T7[rbp], ymm0
  000f7	48 8b 84 24 60
	01 00 00	 mov	 rax, QWORD PTR y0$[rsp]
  000ff	c5 fe 6f 85 e0
	00 00 00	 vmovdqu ymm0, YMMWORD PTR $T7[rbp]
  00107	c5 fe 7f 00	 vmovdqu YMMWORD PTR [rax], ymm0

; 960  :     return y0;

  0010b	48 8b 84 24 60
	01 00 00	 mov	 rax, QWORD PTR y0$[rsp]
  00113	c5 fe 6f 00	 vmovdqu ymm0, YMMWORD PTR [rax]

; 961  : }

  00117	48 81 c4 48 01
	00 00		 add	 rsp, 328		; 00000148H
  0011e	5f		 pop	 rdi
  0011f	5d		 pop	 rbp
  00120	c3		 ret	 0
?convert_y_range_to_yc48@@YA?AT__m256i@@T1@@Z ENDP	; convert_y_range_to_yc48
_TEXT	ENDS
; Function compile flags: /Odtp /RTCsu
; File D:\work\intel\intel_codec\QSVPipeline\convert_csp_avx2.cpp
_TEXT	SEGMENT
y2$ = 0
y3$ = 32
y6$ = 64
y7$ = 96
$T1 = 128
$T2 = 160
$T3 = 192
$T4 = 224
$T5 = 256
$T6 = 288
$T7 = 320
$T8 = 352
$T9 = 384
$T10 = 416
$T11 = 448
$T12 = 480
$T13 = 512
$T14 = 544
$T15 = 576
$T16 = 608
$T17 = 640
y0$ = 768
y1$ = 776
yC_UV_OFFSET_x1$ = 784
yC_UV_MA_16_0$ = 792
yC_UV_MA_16_1$ = 800
UV_RSH_16$ = 808
yC_YCC$ = 816
yC_pw_one$ = 824
?convert_uv_range_from_yc48_420i@@YA?AT__m256i@@T1@0AEBT1@11H11@Z PROC ; convert_uv_range_from_yc48_420i

; 926  : static __forceinline __m256i convert_uv_range_from_yc48_420i(__m256i y0, __m256i y1, const __m256i& yC_UV_OFFSET_x1, const __m256i& yC_UV_MA_16_0, const __m256i& yC_UV_MA_16_1, int UV_RSH_16, const __m256i& yC_YCC, const __m256i& yC_pw_one) {

  00000	4c 89 4c 24 20	 mov	 QWORD PTR [rsp+32], r9
  00005	4c 89 44 24 18	 mov	 QWORD PTR [rsp+24], r8
  0000a	48 89 54 24 10	 mov	 QWORD PTR [rsp+16], rdx
  0000f	48 89 4c 24 08	 mov	 QWORD PTR [rsp+8], rcx
  00014	55		 push	 rbp
  00015	57		 push	 rdi
  00016	48 81 ec e8 02
	00 00		 sub	 rsp, 744		; 000002e8H
  0001d	48 8d 6c 24 40	 lea	 rbp, QWORD PTR [rsp+64]
  00022	48 83 e5 e0	 and	 rbp, -32		; ffffffffffffffe0H
  00026	48 8b fc	 mov	 rdi, rsp
  00029	b9 ba 00 00 00	 mov	 ecx, 186		; 000000baH
  0002e	b8 cc cc cc cc	 mov	 eax, -858993460		; ccccccccH
  00033	f3 ab		 rep stosd
  00035	48 8b 8c 24 00
	03 00 00	 mov	 rcx, QWORD PTR [rsp+768]

; 927  :     __m256i y2, y3, y6, y7;
; 928  : 
; 929  :     y0 = _mm256_add_epi16(y0, yC_UV_OFFSET_x1);

  0003d	48 8b 84 24 00
	03 00 00	 mov	 rax, QWORD PTR y0$[rsp]
  00045	48 8b 8c 24 10
	03 00 00	 mov	 rcx, QWORD PTR yC_UV_OFFSET_x1$[rsp]
  0004d	c5 fe 6f 00	 vmovdqu ymm0, YMMWORD PTR [rax]
  00051	c5 fd fd 01	 vpaddw	 ymm0, ymm0, YMMWORD PTR [rcx]
  00055	c5 fe 7f 85 80
	00 00 00	 vmovdqu YMMWORD PTR $T1[rbp], ymm0
  0005d	48 8b 84 24 00
	03 00 00	 mov	 rax, QWORD PTR y0$[rsp]
  00065	c5 fe 6f 85 80
	00 00 00	 vmovdqu ymm0, YMMWORD PTR $T1[rbp]
  0006d	c5 fe 7f 00	 vmovdqu YMMWORD PTR [rax], ymm0

; 930  :     y1 = _mm256_add_epi16(y1, yC_UV_OFFSET_x1);

  00071	48 8b 84 24 08
	03 00 00	 mov	 rax, QWORD PTR y1$[rsp]
  00079	48 8b 8c 24 10
	03 00 00	 mov	 rcx, QWORD PTR yC_UV_OFFSET_x1$[rsp]
  00081	c5 fe 6f 00	 vmovdqu ymm0, YMMWORD PTR [rax]
  00085	c5 fd fd 01	 vpaddw	 ymm0, ymm0, YMMWORD PTR [rcx]
  00089	c5 fe 7f 85 a0
	00 00 00	 vmovdqu YMMWORD PTR $T2[rbp], ymm0
  00091	48 8b 84 24 08
	03 00 00	 mov	 rax, QWORD PTR y1$[rsp]
  00099	c5 fe 6f 85 a0
	00 00 00	 vmovdqu ymm0, YMMWORD PTR $T2[rbp]
  000a1	c5 fe 7f 00	 vmovdqu YMMWORD PTR [rax], ymm0

; 931  : 
; 932  :     y7 = _mm256_unpackhi_epi16(y0, yC_pw_one);

  000a5	48 8b 84 24 00
	03 00 00	 mov	 rax, QWORD PTR y0$[rsp]
  000ad	48 8b 8c 24 38
	03 00 00	 mov	 rcx, QWORD PTR yC_pw_one$[rsp]
  000b5	c5 fe 6f 00	 vmovdqu ymm0, YMMWORD PTR [rax]
  000b9	c5 fd 69 01	 vpunpckhwd ymm0, ymm0, YMMWORD PTR [rcx]
  000bd	c5 fe 7f 85 c0
	00 00 00	 vmovdqu YMMWORD PTR $T3[rbp], ymm0
  000c5	c5 fe 6f 85 c0
	00 00 00	 vmovdqu ymm0, YMMWORD PTR $T3[rbp]
  000cd	c5 fe 7f 45 60	 vmovdqu YMMWORD PTR y7$[rbp], ymm0

; 933  :     y6 = _mm256_unpacklo_epi16(y0, yC_pw_one);

  000d2	48 8b 84 24 00
	03 00 00	 mov	 rax, QWORD PTR y0$[rsp]
  000da	48 8b 8c 24 38
	03 00 00	 mov	 rcx, QWORD PTR yC_pw_one$[rsp]
  000e2	c5 fe 6f 00	 vmovdqu ymm0, YMMWORD PTR [rax]
  000e6	c5 fd 61 01	 vpunpcklwd ymm0, ymm0, YMMWORD PTR [rcx]
  000ea	c5 fe 7f 85 e0
	00 00 00	 vmovdqu YMMWORD PTR $T4[rbp], ymm0
  000f2	c5 fe 6f 85 e0
	00 00 00	 vmovdqu ymm0, YMMWORD PTR $T4[rbp]
  000fa	c5 fe 7f 45 40	 vmovdqu YMMWORD PTR y6$[rbp], ymm0

; 934  :     y3 = _mm256_unpackhi_epi16(y1, yC_pw_one);

  000ff	48 8b 84 24 08
	03 00 00	 mov	 rax, QWORD PTR y1$[rsp]
  00107	48 8b 8c 24 38
	03 00 00	 mov	 rcx, QWORD PTR yC_pw_one$[rsp]
  0010f	c5 fe 6f 00	 vmovdqu ymm0, YMMWORD PTR [rax]
  00113	c5 fd 69 01	 vpunpckhwd ymm0, ymm0, YMMWORD PTR [rcx]
  00117	c5 fe 7f 85 00
	01 00 00	 vmovdqu YMMWORD PTR $T5[rbp], ymm0
  0011f	c5 fe 6f 85 00
	01 00 00	 vmovdqu ymm0, YMMWORD PTR $T5[rbp]
  00127	c5 fe 7f 45 20	 vmovdqu YMMWORD PTR y3$[rbp], ymm0

; 935  :     y2 = _mm256_unpacklo_epi16(y1, yC_pw_one);

  0012c	48 8b 84 24 08
	03 00 00	 mov	 rax, QWORD PTR y1$[rsp]
  00134	48 8b 8c 24 38
	03 00 00	 mov	 rcx, QWORD PTR yC_pw_one$[rsp]
  0013c	c5 fe 6f 00	 vmovdqu ymm0, YMMWORD PTR [rax]
  00140	c5 fd 61 01	 vpunpcklwd ymm0, ymm0, YMMWORD PTR [rcx]
  00144	c5 fe 7f 85 20
	01 00 00	 vmovdqu YMMWORD PTR $T6[rbp], ymm0
  0014c	c5 fe 6f 85 20
	01 00 00	 vmovdqu ymm0, YMMWORD PTR $T6[rbp]
  00154	c5 fe 7f 45 00	 vmovdqu YMMWORD PTR y2$[rbp], ymm0

; 936  : 
; 937  :     y6 = _mm256_madd_epi16(y6, yC_UV_MA_16_0);

  00159	48 8b 84 24 18
	03 00 00	 mov	 rax, QWORD PTR yC_UV_MA_16_0$[rsp]
  00161	c5 fe 6f 45 40	 vmovdqu ymm0, YMMWORD PTR y6$[rbp]
  00166	c5 fd f5 00	 vpmaddwd ymm0, ymm0, YMMWORD PTR [rax]
  0016a	c5 fe 7f 85 40
	01 00 00	 vmovdqu YMMWORD PTR $T7[rbp], ymm0
  00172	c5 fe 6f 85 40
	01 00 00	 vmovdqu ymm0, YMMWORD PTR $T7[rbp]
  0017a	c5 fe 7f 45 40	 vmovdqu YMMWORD PTR y6$[rbp], ymm0

; 938  :     y7 = _mm256_madd_epi16(y7, yC_UV_MA_16_0);

  0017f	48 8b 84 24 18
	03 00 00	 mov	 rax, QWORD PTR yC_UV_MA_16_0$[rsp]
  00187	c5 fe 6f 45 60	 vmovdqu ymm0, YMMWORD PTR y7$[rbp]
  0018c	c5 fd f5 00	 vpmaddwd ymm0, ymm0, YMMWORD PTR [rax]
  00190	c5 fe 7f 85 60
	01 00 00	 vmovdqu YMMWORD PTR $T8[rbp], ymm0
  00198	c5 fe 6f 85 60
	01 00 00	 vmovdqu ymm0, YMMWORD PTR $T8[rbp]
  001a0	c5 fe 7f 45 60	 vmovdqu YMMWORD PTR y7$[rbp], ymm0

; 939  :     y2 = _mm256_madd_epi16(y2, yC_UV_MA_16_1);

  001a5	48 8b 84 24 20
	03 00 00	 mov	 rax, QWORD PTR yC_UV_MA_16_1$[rsp]
  001ad	c5 fe 6f 45 00	 vmovdqu ymm0, YMMWORD PTR y2$[rbp]
  001b2	c5 fd f5 00	 vpmaddwd ymm0, ymm0, YMMWORD PTR [rax]
  001b6	c5 fe 7f 85 80
	01 00 00	 vmovdqu YMMWORD PTR $T9[rbp], ymm0
  001be	c5 fe 6f 85 80
	01 00 00	 vmovdqu ymm0, YMMWORD PTR $T9[rbp]
  001c6	c5 fe 7f 45 00	 vmovdqu YMMWORD PTR y2$[rbp], ymm0

; 940  :     y3 = _mm256_madd_epi16(y3, yC_UV_MA_16_1);

  001cb	48 8b 84 24 20
	03 00 00	 mov	 rax, QWORD PTR yC_UV_MA_16_1$[rsp]
  001d3	c5 fe 6f 45 20	 vmovdqu ymm0, YMMWORD PTR y3$[rbp]
  001d8	c5 fd f5 00	 vpmaddwd ymm0, ymm0, YMMWORD PTR [rax]
  001dc	c5 fe 7f 85 a0
	01 00 00	 vmovdqu YMMWORD PTR $T10[rbp], ymm0
  001e4	c5 fe 6f 85 a0
	01 00 00	 vmovdqu ymm0, YMMWORD PTR $T10[rbp]
  001ec	c5 fe 7f 45 20	 vmovdqu YMMWORD PTR y3$[rbp], ymm0

; 941  :     y0 = _mm256_add_epi32(y6, y2);

  001f1	c5 fe 6f 45 40	 vmovdqu ymm0, YMMWORD PTR y6$[rbp]
  001f6	c5 fd fe 45 00	 vpaddd	 ymm0, ymm0, YMMWORD PTR y2$[rbp]
  001fb	c5 fe 7f 85 c0
	01 00 00	 vmovdqu YMMWORD PTR $T11[rbp], ymm0
  00203	48 8b 84 24 00
	03 00 00	 mov	 rax, QWORD PTR y0$[rsp]
  0020b	c5 fe 6f 85 c0
	01 00 00	 vmovdqu ymm0, YMMWORD PTR $T11[rbp]
  00213	c5 fe 7f 00	 vmovdqu YMMWORD PTR [rax], ymm0

; 942  :     y7 = _mm256_add_epi32(y7, y3);

  00217	c5 fe 6f 45 60	 vmovdqu ymm0, YMMWORD PTR y7$[rbp]
  0021c	c5 fd fe 45 20	 vpaddd	 ymm0, ymm0, YMMWORD PTR y3$[rbp]
  00221	c5 fe 7f 85 e0
	01 00 00	 vmovdqu YMMWORD PTR $T12[rbp], ymm0
  00229	c5 fe 6f 85 e0
	01 00 00	 vmovdqu ymm0, YMMWORD PTR $T12[rbp]
  00231	c5 fe 7f 45 60	 vmovdqu YMMWORD PTR y7$[rbp], ymm0

; 943  :     y0 = _mm256_srai_epi32(y0, UV_RSH_16);

  00236	66 0f 6e 84 24
	28 03 00 00	 movd	 xmm0, DWORD PTR UV_RSH_16$[rsp]
  0023f	48 8b 84 24 00
	03 00 00	 mov	 rax, QWORD PTR y0$[rsp]
  00247	c5 fe 6f 08	 vmovdqu ymm1, YMMWORD PTR [rax]
  0024b	c5 f5 e2 c0	 vpsrad	 ymm0, ymm1, xmm0
  0024f	c5 fe 7f 85 00
	02 00 00	 vmovdqu YMMWORD PTR $T13[rbp], ymm0
  00257	48 8b 84 24 00
	03 00 00	 mov	 rax, QWORD PTR y0$[rsp]
  0025f	c5 fe 6f 85 00
	02 00 00	 vmovdqu ymm0, YMMWORD PTR $T13[rbp]
  00267	c5 fe 7f 00	 vmovdqu YMMWORD PTR [rax], ymm0

; 944  :     y7 = _mm256_srai_epi32(y7, UV_RSH_16);

  0026b	66 0f 6e 84 24
	28 03 00 00	 movd	 xmm0, DWORD PTR UV_RSH_16$[rsp]
  00274	c5 fe 6f 4d 60	 vmovdqu ymm1, YMMWORD PTR y7$[rbp]
  00279	c5 f5 e2 c0	 vpsrad	 ymm0, ymm1, xmm0
  0027d	c5 fe 7f 85 20
	02 00 00	 vmovdqu YMMWORD PTR $T14[rbp], ymm0
  00285	c5 fe 6f 85 20
	02 00 00	 vmovdqu ymm0, YMMWORD PTR $T14[rbp]
  0028d	c5 fe 7f 45 60	 vmovdqu YMMWORD PTR y7$[rbp], ymm0

; 945  :     y0 = _mm256_add_epi32(y0, yC_YCC);

  00292	48 8b 84 24 00
	03 00 00	 mov	 rax, QWORD PTR y0$[rsp]
  0029a	48 8b 8c 24 30
	03 00 00	 mov	 rcx, QWORD PTR yC_YCC$[rsp]
  002a2	c5 fe 6f 00	 vmovdqu ymm0, YMMWORD PTR [rax]
  002a6	c5 fd fe 01	 vpaddd	 ymm0, ymm0, YMMWORD PTR [rcx]
  002aa	c5 fe 7f 85 40
	02 00 00	 vmovdqu YMMWORD PTR $T15[rbp], ymm0
  002b2	48 8b 84 24 00
	03 00 00	 mov	 rax, QWORD PTR y0$[rsp]
  002ba	c5 fe 6f 85 40
	02 00 00	 vmovdqu ymm0, YMMWORD PTR $T15[rbp]
  002c2	c5 fe 7f 00	 vmovdqu YMMWORD PTR [rax], ymm0

; 946  :     y7 = _mm256_add_epi32(y7, yC_YCC);

  002c6	48 8b 84 24 30
	03 00 00	 mov	 rax, QWORD PTR yC_YCC$[rsp]
  002ce	c5 fe 6f 45 60	 vmovdqu ymm0, YMMWORD PTR y7$[rbp]
  002d3	c5 fd fe 00	 vpaddd	 ymm0, ymm0, YMMWORD PTR [rax]
  002d7	c5 fe 7f 85 60
	02 00 00	 vmovdqu YMMWORD PTR $T16[rbp], ymm0
  002df	c5 fe 6f 85 60
	02 00 00	 vmovdqu ymm0, YMMWORD PTR $T16[rbp]
  002e7	c5 fe 7f 45 60	 vmovdqu YMMWORD PTR y7$[rbp], ymm0

; 947  : 
; 948  :     y0 = _mm256_packus_epi32(y0, y7);

  002ec	48 8b 84 24 00
	03 00 00	 mov	 rax, QWORD PTR y0$[rsp]
  002f4	c5 fe 6f 00	 vmovdqu ymm0, YMMWORD PTR [rax]
  002f8	c4 e2 7d 2b 45
	60		 vpackusdw ymm0, ymm0, YMMWORD PTR y7$[rbp]
  002fe	c5 fe 7f 85 80
	02 00 00	 vmovdqu YMMWORD PTR $T17[rbp], ymm0
  00306	48 8b 84 24 00
	03 00 00	 mov	 rax, QWORD PTR y0$[rsp]
  0030e	c5 fe 6f 85 80
	02 00 00	 vmovdqu ymm0, YMMWORD PTR $T17[rbp]
  00316	c5 fe 7f 00	 vmovdqu YMMWORD PTR [rax], ymm0

; 949  : 
; 950  :     return y0;

  0031a	48 8b 84 24 00
	03 00 00	 mov	 rax, QWORD PTR y0$[rsp]
  00322	c5 fe 6f 00	 vmovdqu ymm0, YMMWORD PTR [rax]

; 951  : }

  00326	48 81 c4 e8 02
	00 00		 add	 rsp, 744		; 000002e8H
  0032d	5f		 pop	 rdi
  0032e	5d		 pop	 rbp
  0032f	c3		 ret	 0
?convert_uv_range_from_yc48_420i@@YA?AT__m256i@@T1@0AEBT1@11H11@Z ENDP ; convert_uv_range_from_yc48_420i
_TEXT	ENDS
; Function compile flags: /Odtp /RTCsu
; File D:\work\intel\intel_codec\QSVPipeline\convert_csp_avx2.cpp
_TEXT	SEGMENT
$T1 = 0
$T2 = 32
$T3 = 64
$T4 = 96
y0$ = 272
y1$ = 280
yC_UV_OFFSET_x2$ = 288
yC_UV_MA_16$ = 296
UV_RSH_16$ = 304
yC_YCC$ = 312
yC_pw_one$ = 320
?convert_uv_range_from_yc48_yuv420p@@YA?AT__m256i@@T1@0AEBT1@0H11@Z PROC ; convert_uv_range_from_yc48_yuv420p

; 920  : static __forceinline __m256i convert_uv_range_from_yc48_yuv420p(__m256i y0, __m256i y1, const __m256i& yC_UV_OFFSET_x2, __m256i yC_UV_MA_16, int UV_RSH_16, const __m256i& yC_YCC, const __m256i& yC_pw_one) {

  00000	4c 89 4c 24 20	 mov	 QWORD PTR [rsp+32], r9
  00005	4c 89 44 24 18	 mov	 QWORD PTR [rsp+24], r8
  0000a	48 89 54 24 10	 mov	 QWORD PTR [rsp+16], rdx
  0000f	48 89 4c 24 08	 mov	 QWORD PTR [rsp+8], rcx
  00014	55		 push	 rbp
  00015	57		 push	 rdi
  00016	48 81 ec f8 00
	00 00		 sub	 rsp, 248		; 000000f8H
  0001d	48 8d 6c 24 70	 lea	 rbp, QWORD PTR [rsp+112]
  00022	48 83 e5 e0	 and	 rbp, -32		; ffffffffffffffe0H
  00026	48 8b fc	 mov	 rdi, rsp
  00029	b9 3e 00 00 00	 mov	 ecx, 62			; 0000003eH
  0002e	b8 cc cc cc cc	 mov	 eax, -858993460		; ccccccccH
  00033	f3 ab		 rep stosd
  00035	48 8b 8c 24 10
	01 00 00	 mov	 rcx, QWORD PTR [rsp+272]

; 921  :     y0 = _mm256_add_epi16(y0, y1);

  0003d	48 8b 84 24 10
	01 00 00	 mov	 rax, QWORD PTR y0$[rsp]
  00045	48 8b 8c 24 18
	01 00 00	 mov	 rcx, QWORD PTR y1$[rsp]
  0004d	c5 fe 6f 00	 vmovdqu ymm0, YMMWORD PTR [rax]
  00051	c5 fd fd 01	 vpaddw	 ymm0, ymm0, YMMWORD PTR [rcx]
  00055	c5 fe 7f 45 00	 vmovdqu YMMWORD PTR $T1[rbp], ymm0
  0005a	48 8b 84 24 10
	01 00 00	 mov	 rax, QWORD PTR y0$[rsp]
  00062	c5 fe 6f 45 00	 vmovdqu ymm0, YMMWORD PTR $T1[rbp]
  00067	c5 fe 7f 00	 vmovdqu YMMWORD PTR [rax], ymm0

; 922  :     y0 = _mm256_add_epi16(y0, yC_UV_OFFSET_x2);

  0006b	48 8b 84 24 10
	01 00 00	 mov	 rax, QWORD PTR y0$[rsp]
  00073	48 8b 8c 24 20
	01 00 00	 mov	 rcx, QWORD PTR yC_UV_OFFSET_x2$[rsp]
  0007b	c5 fe 6f 00	 vmovdqu ymm0, YMMWORD PTR [rax]
  0007f	c5 fd fd 01	 vpaddw	 ymm0, ymm0, YMMWORD PTR [rcx]
  00083	c5 fe 7f 45 20	 vmovdqu YMMWORD PTR $T2[rbp], ymm0
  00088	48 8b 84 24 10
	01 00 00	 mov	 rax, QWORD PTR y0$[rsp]
  00090	c5 fe 6f 45 20	 vmovdqu ymm0, YMMWORD PTR $T2[rbp]
  00095	c5 fe 7f 00	 vmovdqu YMMWORD PTR [rax], ymm0

; 923  : 
; 924  :     return convert_uv_range_after_adding_offset(y0, yC_UV_MA_16, UV_RSH_16, yC_YCC, yC_pw_one);

  00099	48 8b 84 24 10
	01 00 00	 mov	 rax, QWORD PTR y0$[rsp]
  000a1	c5 fe 6f 00	 vmovdqu ymm0, YMMWORD PTR [rax]
  000a5	c5 fe 7f 45 60	 vmovdqu YMMWORD PTR $T4[rbp], ymm0
  000aa	48 8b 84 24 40
	01 00 00	 mov	 rax, QWORD PTR yC_pw_one$[rsp]
  000b2	48 89 44 24 20	 mov	 QWORD PTR [rsp+32], rax
  000b7	4c 8b 8c 24 38
	01 00 00	 mov	 r9, QWORD PTR yC_YCC$[rsp]
  000bf	44 8b 84 24 30
	01 00 00	 mov	 r8d, DWORD PTR UV_RSH_16$[rsp]
  000c7	48 8b 94 24 28
	01 00 00	 mov	 rdx, QWORD PTR yC_UV_MA_16$[rsp]
  000cf	48 8d 4d 60	 lea	 rcx, QWORD PTR $T4[rbp]
  000d3	e8 00 00 00 00	 call	 ?convert_uv_range_after_adding_offset@@YA?AT__m256i@@T1@AEBT1@H11@Z ; convert_uv_range_after_adding_offset
  000d8	c5 fe 7f 45 40	 vmovdqu YMMWORD PTR $T3[rbp], ymm0
  000dd	c5 fe 6f 45 40	 vmovdqu ymm0, YMMWORD PTR $T3[rbp]

; 925  : }

  000e2	48 81 c4 f8 00
	00 00		 add	 rsp, 248		; 000000f8H
  000e9	5f		 pop	 rdi
  000ea	5d		 pop	 rbp
  000eb	c3		 ret	 0
?convert_uv_range_from_yc48_yuv420p@@YA?AT__m256i@@T1@0AEBT1@0H11@Z ENDP ; convert_uv_range_from_yc48_yuv420p
_TEXT	ENDS
; Function compile flags: /Odtp /RTCsu
; File D:\work\intel\intel_codec\QSVPipeline\convert_csp_avx2.cpp
_TEXT	SEGMENT
$T1 = 0
$T2 = 32
$T3 = 64
y0$ = 240
yC_UV_OFFSET_x1$ = 248
yC_UV_MA_16$ = 256
UV_RSH_16$ = 264
yC_YCC$ = 272
yC_pw_one$ = 280
?convert_uv_range_from_yc48@@YA?AT__m256i@@T1@AEBT1@1H11@Z PROC ; convert_uv_range_from_yc48

; 915  : static __forceinline __m256i convert_uv_range_from_yc48(__m256i y0, const __m256i& yC_UV_OFFSET_x1, const __m256i& yC_UV_MA_16, int UV_RSH_16, const __m256i& yC_YCC, const __m256i& yC_pw_one) {

  00000	44 89 4c 24 20	 mov	 DWORD PTR [rsp+32], r9d
  00005	4c 89 44 24 18	 mov	 QWORD PTR [rsp+24], r8
  0000a	48 89 54 24 10	 mov	 QWORD PTR [rsp+16], rdx
  0000f	48 89 4c 24 08	 mov	 QWORD PTR [rsp+8], rcx
  00014	55		 push	 rbp
  00015	57		 push	 rdi
  00016	48 81 ec d8 00
	00 00		 sub	 rsp, 216		; 000000d8H
  0001d	48 8d 6c 24 70	 lea	 rbp, QWORD PTR [rsp+112]
  00022	48 83 e5 e0	 and	 rbp, -32		; ffffffffffffffe0H
  00026	48 8b fc	 mov	 rdi, rsp
  00029	b9 36 00 00 00	 mov	 ecx, 54			; 00000036H
  0002e	b8 cc cc cc cc	 mov	 eax, -858993460		; ccccccccH
  00033	f3 ab		 rep stosd
  00035	48 8b 8c 24 f0
	00 00 00	 mov	 rcx, QWORD PTR [rsp+240]

; 916  :     y0 = _mm256_add_epi16(y0, yC_UV_OFFSET_x1);

  0003d	48 8b 84 24 f0
	00 00 00	 mov	 rax, QWORD PTR y0$[rsp]
  00045	48 8b 8c 24 f8
	00 00 00	 mov	 rcx, QWORD PTR yC_UV_OFFSET_x1$[rsp]
  0004d	c5 fe 6f 00	 vmovdqu ymm0, YMMWORD PTR [rax]
  00051	c5 fd fd 01	 vpaddw	 ymm0, ymm0, YMMWORD PTR [rcx]
  00055	c5 fe 7f 45 00	 vmovdqu YMMWORD PTR $T1[rbp], ymm0
  0005a	48 8b 84 24 f0
	00 00 00	 mov	 rax, QWORD PTR y0$[rsp]
  00062	c5 fe 6f 45 00	 vmovdqu ymm0, YMMWORD PTR $T1[rbp]
  00067	c5 fe 7f 00	 vmovdqu YMMWORD PTR [rax], ymm0

; 917  : 
; 918  :     return convert_uv_range_after_adding_offset(y0, yC_UV_MA_16, UV_RSH_16, yC_YCC, yC_pw_one);

  0006b	48 8b 84 24 f0
	00 00 00	 mov	 rax, QWORD PTR y0$[rsp]
  00073	c5 fe 6f 00	 vmovdqu ymm0, YMMWORD PTR [rax]
  00077	c5 fe 7f 45 40	 vmovdqu YMMWORD PTR $T3[rbp], ymm0
  0007c	48 8b 84 24 18
	01 00 00	 mov	 rax, QWORD PTR yC_pw_one$[rsp]
  00084	48 89 44 24 20	 mov	 QWORD PTR [rsp+32], rax
  00089	4c 8b 8c 24 10
	01 00 00	 mov	 r9, QWORD PTR yC_YCC$[rsp]
  00091	44 8b 84 24 08
	01 00 00	 mov	 r8d, DWORD PTR UV_RSH_16$[rsp]
  00099	48 8b 94 24 00
	01 00 00	 mov	 rdx, QWORD PTR yC_UV_MA_16$[rsp]
  000a1	48 8d 4d 40	 lea	 rcx, QWORD PTR $T3[rbp]
  000a5	e8 00 00 00 00	 call	 ?convert_uv_range_after_adding_offset@@YA?AT__m256i@@T1@AEBT1@H11@Z ; convert_uv_range_after_adding_offset
  000aa	c5 fe 7f 45 20	 vmovdqu YMMWORD PTR $T2[rbp], ymm0
  000af	c5 fe 6f 45 20	 vmovdqu ymm0, YMMWORD PTR $T2[rbp]

; 919  : }

  000b4	48 81 c4 d8 00
	00 00		 add	 rsp, 216		; 000000d8H
  000bb	5f		 pop	 rdi
  000bc	5d		 pop	 rbp
  000bd	c3		 ret	 0
?convert_uv_range_from_yc48@@YA?AT__m256i@@T1@AEBT1@1H11@Z ENDP ; convert_uv_range_from_yc48
_TEXT	ENDS
; Function compile flags: /Odtp /RTCsu
; File D:\work\intel\intel_codec\QSVPipeline\convert_csp_avx2.cpp
_TEXT	SEGMENT
y7$ = 0
$T1 = 32
$T2 = 64
$T3 = 96
$T4 = 128
$T5 = 160
$T6 = 192
$T7 = 224
$T8 = 256
$T9 = 288
y0$ = 416
yC_UV_MA_16$ = 424
UV_RSH_16$ = 432
yC_YCC$ = 440
yC_pw_one$ = 448
?convert_uv_range_after_adding_offset@@YA?AT__m256i@@T1@AEBT1@H11@Z PROC ; convert_uv_range_after_adding_offset

; 899  : static __forceinline __m256i convert_uv_range_after_adding_offset(__m256i y0, const __m256i& yC_UV_MA_16, int UV_RSH_16, const __m256i& yC_YCC, const __m256i& yC_pw_one) {

  00000	4c 89 4c 24 20	 mov	 QWORD PTR [rsp+32], r9
  00005	44 89 44 24 18	 mov	 DWORD PTR [rsp+24], r8d
  0000a	48 89 54 24 10	 mov	 QWORD PTR [rsp+16], rdx
  0000f	48 89 4c 24 08	 mov	 QWORD PTR [rsp+8], rcx
  00014	55		 push	 rbp
  00015	57		 push	 rdi
  00016	48 81 ec 88 01
	00 00		 sub	 rsp, 392		; 00000188H
  0001d	48 8d 6c 24 40	 lea	 rbp, QWORD PTR [rsp+64]
  00022	48 83 e5 e0	 and	 rbp, -32		; ffffffffffffffe0H
  00026	48 8b fc	 mov	 rdi, rsp
  00029	b9 62 00 00 00	 mov	 ecx, 98			; 00000062H
  0002e	b8 cc cc cc cc	 mov	 eax, -858993460		; ccccccccH
  00033	f3 ab		 rep stosd
  00035	48 8b 8c 24 a0
	01 00 00	 mov	 rcx, QWORD PTR [rsp+416]

; 900  :     __m256i y7;
; 901  :     y7 = _mm256_unpackhi_epi16(y0, yC_pw_one);

  0003d	48 8b 84 24 a0
	01 00 00	 mov	 rax, QWORD PTR y0$[rsp]
  00045	48 8b 8c 24 c0
	01 00 00	 mov	 rcx, QWORD PTR yC_pw_one$[rsp]
  0004d	c5 fe 6f 00	 vmovdqu ymm0, YMMWORD PTR [rax]
  00051	c5 fd 69 01	 vpunpckhwd ymm0, ymm0, YMMWORD PTR [rcx]
  00055	c5 fe 7f 45 20	 vmovdqu YMMWORD PTR $T1[rbp], ymm0
  0005a	c5 fe 6f 45 20	 vmovdqu ymm0, YMMWORD PTR $T1[rbp]
  0005f	c5 fe 7f 45 00	 vmovdqu YMMWORD PTR y7$[rbp], ymm0

; 902  :     y0 = _mm256_unpacklo_epi16(y0, yC_pw_one);

  00064	48 8b 84 24 a0
	01 00 00	 mov	 rax, QWORD PTR y0$[rsp]
  0006c	48 8b 8c 24 c0
	01 00 00	 mov	 rcx, QWORD PTR yC_pw_one$[rsp]
  00074	c5 fe 6f 00	 vmovdqu ymm0, YMMWORD PTR [rax]
  00078	c5 fd 61 01	 vpunpcklwd ymm0, ymm0, YMMWORD PTR [rcx]
  0007c	c5 fe 7f 45 40	 vmovdqu YMMWORD PTR $T2[rbp], ymm0
  00081	48 8b 84 24 a0
	01 00 00	 mov	 rax, QWORD PTR y0$[rsp]
  00089	c5 fe 6f 45 40	 vmovdqu ymm0, YMMWORD PTR $T2[rbp]
  0008e	c5 fe 7f 00	 vmovdqu YMMWORD PTR [rax], ymm0

; 903  : 
; 904  :     y0 = _mm256_madd_epi16(y0, yC_UV_MA_16);

  00092	48 8b 84 24 a0
	01 00 00	 mov	 rax, QWORD PTR y0$[rsp]
  0009a	48 8b 8c 24 a8
	01 00 00	 mov	 rcx, QWORD PTR yC_UV_MA_16$[rsp]
  000a2	c5 fe 6f 00	 vmovdqu ymm0, YMMWORD PTR [rax]
  000a6	c5 fd f5 01	 vpmaddwd ymm0, ymm0, YMMWORD PTR [rcx]
  000aa	c5 fe 7f 45 60	 vmovdqu YMMWORD PTR $T3[rbp], ymm0
  000af	48 8b 84 24 a0
	01 00 00	 mov	 rax, QWORD PTR y0$[rsp]
  000b7	c5 fe 6f 45 60	 vmovdqu ymm0, YMMWORD PTR $T3[rbp]
  000bc	c5 fe 7f 00	 vmovdqu YMMWORD PTR [rax], ymm0

; 905  :     y7 = _mm256_madd_epi16(y7, yC_UV_MA_16);

  000c0	48 8b 84 24 a8
	01 00 00	 mov	 rax, QWORD PTR yC_UV_MA_16$[rsp]
  000c8	c5 fe 6f 45 00	 vmovdqu ymm0, YMMWORD PTR y7$[rbp]
  000cd	c5 fd f5 00	 vpmaddwd ymm0, ymm0, YMMWORD PTR [rax]
  000d1	c5 fe 7f 85 80
	00 00 00	 vmovdqu YMMWORD PTR $T4[rbp], ymm0
  000d9	c5 fe 6f 85 80
	00 00 00	 vmovdqu ymm0, YMMWORD PTR $T4[rbp]
  000e1	c5 fe 7f 45 00	 vmovdqu YMMWORD PTR y7$[rbp], ymm0

; 906  :     y0 = _mm256_srai_epi32(y0, UV_RSH_16);

  000e6	66 0f 6e 84 24
	b0 01 00 00	 movd	 xmm0, DWORD PTR UV_RSH_16$[rsp]
  000ef	48 8b 84 24 a0
	01 00 00	 mov	 rax, QWORD PTR y0$[rsp]
  000f7	c5 fe 6f 08	 vmovdqu ymm1, YMMWORD PTR [rax]
  000fb	c5 f5 e2 c0	 vpsrad	 ymm0, ymm1, xmm0
  000ff	c5 fe 7f 85 a0
	00 00 00	 vmovdqu YMMWORD PTR $T5[rbp], ymm0
  00107	48 8b 84 24 a0
	01 00 00	 mov	 rax, QWORD PTR y0$[rsp]
  0010f	c5 fe 6f 85 a0
	00 00 00	 vmovdqu ymm0, YMMWORD PTR $T5[rbp]
  00117	c5 fe 7f 00	 vmovdqu YMMWORD PTR [rax], ymm0

; 907  :     y7 = _mm256_srai_epi32(y7, UV_RSH_16);

  0011b	66 0f 6e 84 24
	b0 01 00 00	 movd	 xmm0, DWORD PTR UV_RSH_16$[rsp]
  00124	c5 fe 6f 4d 00	 vmovdqu ymm1, YMMWORD PTR y7$[rbp]
  00129	c5 f5 e2 c0	 vpsrad	 ymm0, ymm1, xmm0
  0012d	c5 fe 7f 85 c0
	00 00 00	 vmovdqu YMMWORD PTR $T6[rbp], ymm0
  00135	c5 fe 6f 85 c0
	00 00 00	 vmovdqu ymm0, YMMWORD PTR $T6[rbp]
  0013d	c5 fe 7f 45 00	 vmovdqu YMMWORD PTR y7$[rbp], ymm0

; 908  :     y0 = _mm256_add_epi32(y0, yC_YCC);

  00142	48 8b 84 24 a0
	01 00 00	 mov	 rax, QWORD PTR y0$[rsp]
  0014a	48 8b 8c 24 b8
	01 00 00	 mov	 rcx, QWORD PTR yC_YCC$[rsp]
  00152	c5 fe 6f 00	 vmovdqu ymm0, YMMWORD PTR [rax]
  00156	c5 fd fe 01	 vpaddd	 ymm0, ymm0, YMMWORD PTR [rcx]
  0015a	c5 fe 7f 85 e0
	00 00 00	 vmovdqu YMMWORD PTR $T7[rbp], ymm0
  00162	48 8b 84 24 a0
	01 00 00	 mov	 rax, QWORD PTR y0$[rsp]
  0016a	c5 fe 6f 85 e0
	00 00 00	 vmovdqu ymm0, YMMWORD PTR $T7[rbp]
  00172	c5 fe 7f 00	 vmovdqu YMMWORD PTR [rax], ymm0

; 909  :     y7 = _mm256_add_epi32(y7, yC_YCC);

  00176	48 8b 84 24 b8
	01 00 00	 mov	 rax, QWORD PTR yC_YCC$[rsp]
  0017e	c5 fe 6f 45 00	 vmovdqu ymm0, YMMWORD PTR y7$[rbp]
  00183	c5 fd fe 00	 vpaddd	 ymm0, ymm0, YMMWORD PTR [rax]
  00187	c5 fe 7f 85 00
	01 00 00	 vmovdqu YMMWORD PTR $T8[rbp], ymm0
  0018f	c5 fe 6f 85 00
	01 00 00	 vmovdqu ymm0, YMMWORD PTR $T8[rbp]
  00197	c5 fe 7f 45 00	 vmovdqu YMMWORD PTR y7$[rbp], ymm0

; 910  : 
; 911  :     y0 = _mm256_packus_epi32(y0, y7);

  0019c	48 8b 84 24 a0
	01 00 00	 mov	 rax, QWORD PTR y0$[rsp]
  001a4	c5 fe 6f 00	 vmovdqu ymm0, YMMWORD PTR [rax]
  001a8	c4 e2 7d 2b 45
	00		 vpackusdw ymm0, ymm0, YMMWORD PTR y7$[rbp]
  001ae	c5 fe 7f 85 20
	01 00 00	 vmovdqu YMMWORD PTR $T9[rbp], ymm0
  001b6	48 8b 84 24 a0
	01 00 00	 mov	 rax, QWORD PTR y0$[rsp]
  001be	c5 fe 6f 85 20
	01 00 00	 vmovdqu ymm0, YMMWORD PTR $T9[rbp]
  001c6	c5 fe 7f 00	 vmovdqu YMMWORD PTR [rax], ymm0

; 912  : 
; 913  :     return y0;

  001ca	48 8b 84 24 a0
	01 00 00	 mov	 rax, QWORD PTR y0$[rsp]
  001d2	c5 fe 6f 00	 vmovdqu ymm0, YMMWORD PTR [rax]

; 914  : }

  001d6	48 81 c4 88 01
	00 00		 add	 rsp, 392		; 00000188H
  001dd	5f		 pop	 rdi
  001de	5d		 pop	 rbp
  001df	c3		 ret	 0
?convert_uv_range_after_adding_offset@@YA?AT__m256i@@T1@AEBT1@H11@Z ENDP ; convert_uv_range_after_adding_offset
_TEXT	ENDS
; Function compile flags: /Odtp /RTCsu
; File D:\work\intel\intel_codec\QSVPipeline\convert_csp_avx2.cpp
_TEXT	SEGMENT
y7$ = 0
$T1 = 32
$T2 = 64
$T3 = 96
$T4 = 128
$T5 = 160
$T6 = 192
$T7 = 224
$T8 = 256
$T9 = 288
y0$ = 416
yC_Y_MA_16$ = 424
Y_RSH_16$ = 432
yC_YCC$ = 440
yC_pw_one$ = 448
?convert_y_range_from_yc48@@YA?AT__m256i@@T1@0HAEBT1@1@Z PROC ; convert_y_range_from_yc48

; 882  : static __forceinline __m256i convert_y_range_from_yc48(__m256i y0, __m256i yC_Y_MA_16, int Y_RSH_16, const __m256i& yC_YCC, const __m256i& yC_pw_one) {

  00000	4c 89 4c 24 20	 mov	 QWORD PTR [rsp+32], r9
  00005	44 89 44 24 18	 mov	 DWORD PTR [rsp+24], r8d
  0000a	48 89 54 24 10	 mov	 QWORD PTR [rsp+16], rdx
  0000f	48 89 4c 24 08	 mov	 QWORD PTR [rsp+8], rcx
  00014	55		 push	 rbp
  00015	57		 push	 rdi
  00016	48 81 ec 88 01
	00 00		 sub	 rsp, 392		; 00000188H
  0001d	48 8d 6c 24 40	 lea	 rbp, QWORD PTR [rsp+64]
  00022	48 83 e5 e0	 and	 rbp, -32		; ffffffffffffffe0H
  00026	48 8b fc	 mov	 rdi, rsp
  00029	b9 62 00 00 00	 mov	 ecx, 98			; 00000062H
  0002e	b8 cc cc cc cc	 mov	 eax, -858993460		; ccccccccH
  00033	f3 ab		 rep stosd
  00035	48 8b 8c 24 a0
	01 00 00	 mov	 rcx, QWORD PTR [rsp+416]

; 883  :     __m256i y7;
; 884  : 
; 885  :     y7 = _mm256_unpackhi_epi16(y0, yC_pw_one);

  0003d	48 8b 84 24 a0
	01 00 00	 mov	 rax, QWORD PTR y0$[rsp]
  00045	48 8b 8c 24 c0
	01 00 00	 mov	 rcx, QWORD PTR yC_pw_one$[rsp]
  0004d	c5 fe 6f 00	 vmovdqu ymm0, YMMWORD PTR [rax]
  00051	c5 fd 69 01	 vpunpckhwd ymm0, ymm0, YMMWORD PTR [rcx]
  00055	c5 fe 7f 45 20	 vmovdqu YMMWORD PTR $T1[rbp], ymm0
  0005a	c5 fe 6f 45 20	 vmovdqu ymm0, YMMWORD PTR $T1[rbp]
  0005f	c5 fe 7f 45 00	 vmovdqu YMMWORD PTR y7$[rbp], ymm0

; 886  :     y0 = _mm256_unpacklo_epi16(y0, yC_pw_one);

  00064	48 8b 84 24 a0
	01 00 00	 mov	 rax, QWORD PTR y0$[rsp]
  0006c	48 8b 8c 24 c0
	01 00 00	 mov	 rcx, QWORD PTR yC_pw_one$[rsp]
  00074	c5 fe 6f 00	 vmovdqu ymm0, YMMWORD PTR [rax]
  00078	c5 fd 61 01	 vpunpcklwd ymm0, ymm0, YMMWORD PTR [rcx]
  0007c	c5 fe 7f 45 40	 vmovdqu YMMWORD PTR $T2[rbp], ymm0
  00081	48 8b 84 24 a0
	01 00 00	 mov	 rax, QWORD PTR y0$[rsp]
  00089	c5 fe 6f 45 40	 vmovdqu ymm0, YMMWORD PTR $T2[rbp]
  0008e	c5 fe 7f 00	 vmovdqu YMMWORD PTR [rax], ymm0

; 887  : 
; 888  :     y0 = _mm256_madd_epi16(y0, yC_Y_MA_16);

  00092	48 8b 84 24 a0
	01 00 00	 mov	 rax, QWORD PTR y0$[rsp]
  0009a	48 8b 8c 24 a8
	01 00 00	 mov	 rcx, QWORD PTR yC_Y_MA_16$[rsp]
  000a2	c5 fe 6f 00	 vmovdqu ymm0, YMMWORD PTR [rax]
  000a6	c5 fd f5 01	 vpmaddwd ymm0, ymm0, YMMWORD PTR [rcx]
  000aa	c5 fe 7f 45 60	 vmovdqu YMMWORD PTR $T3[rbp], ymm0
  000af	48 8b 84 24 a0
	01 00 00	 mov	 rax, QWORD PTR y0$[rsp]
  000b7	c5 fe 6f 45 60	 vmovdqu ymm0, YMMWORD PTR $T3[rbp]
  000bc	c5 fe 7f 00	 vmovdqu YMMWORD PTR [rax], ymm0

; 889  :     y7 = _mm256_madd_epi16(y7, yC_Y_MA_16);

  000c0	48 8b 84 24 a8
	01 00 00	 mov	 rax, QWORD PTR yC_Y_MA_16$[rsp]
  000c8	c5 fe 6f 45 00	 vmovdqu ymm0, YMMWORD PTR y7$[rbp]
  000cd	c5 fd f5 00	 vpmaddwd ymm0, ymm0, YMMWORD PTR [rax]
  000d1	c5 fe 7f 85 80
	00 00 00	 vmovdqu YMMWORD PTR $T4[rbp], ymm0
  000d9	c5 fe 6f 85 80
	00 00 00	 vmovdqu ymm0, YMMWORD PTR $T4[rbp]
  000e1	c5 fe 7f 45 00	 vmovdqu YMMWORD PTR y7$[rbp], ymm0

; 890  :     y0 = _mm256_srai_epi32(y0, Y_RSH_16);

  000e6	66 0f 6e 84 24
	b0 01 00 00	 movd	 xmm0, DWORD PTR Y_RSH_16$[rsp]
  000ef	48 8b 84 24 a0
	01 00 00	 mov	 rax, QWORD PTR y0$[rsp]
  000f7	c5 fe 6f 08	 vmovdqu ymm1, YMMWORD PTR [rax]
  000fb	c5 f5 e2 c0	 vpsrad	 ymm0, ymm1, xmm0
  000ff	c5 fe 7f 85 a0
	00 00 00	 vmovdqu YMMWORD PTR $T5[rbp], ymm0
  00107	48 8b 84 24 a0
	01 00 00	 mov	 rax, QWORD PTR y0$[rsp]
  0010f	c5 fe 6f 85 a0
	00 00 00	 vmovdqu ymm0, YMMWORD PTR $T5[rbp]
  00117	c5 fe 7f 00	 vmovdqu YMMWORD PTR [rax], ymm0

; 891  :     y7 = _mm256_srai_epi32(y7, Y_RSH_16);

  0011b	66 0f 6e 84 24
	b0 01 00 00	 movd	 xmm0, DWORD PTR Y_RSH_16$[rsp]
  00124	c5 fe 6f 4d 00	 vmovdqu ymm1, YMMWORD PTR y7$[rbp]
  00129	c5 f5 e2 c0	 vpsrad	 ymm0, ymm1, xmm0
  0012d	c5 fe 7f 85 c0
	00 00 00	 vmovdqu YMMWORD PTR $T6[rbp], ymm0
  00135	c5 fe 6f 85 c0
	00 00 00	 vmovdqu ymm0, YMMWORD PTR $T6[rbp]
  0013d	c5 fe 7f 45 00	 vmovdqu YMMWORD PTR y7$[rbp], ymm0

; 892  :     y0 = _mm256_add_epi32(y0, yC_YCC);

  00142	48 8b 84 24 a0
	01 00 00	 mov	 rax, QWORD PTR y0$[rsp]
  0014a	48 8b 8c 24 b8
	01 00 00	 mov	 rcx, QWORD PTR yC_YCC$[rsp]
  00152	c5 fe 6f 00	 vmovdqu ymm0, YMMWORD PTR [rax]
  00156	c5 fd fe 01	 vpaddd	 ymm0, ymm0, YMMWORD PTR [rcx]
  0015a	c5 fe 7f 85 e0
	00 00 00	 vmovdqu YMMWORD PTR $T7[rbp], ymm0
  00162	48 8b 84 24 a0
	01 00 00	 mov	 rax, QWORD PTR y0$[rsp]
  0016a	c5 fe 6f 85 e0
	00 00 00	 vmovdqu ymm0, YMMWORD PTR $T7[rbp]
  00172	c5 fe 7f 00	 vmovdqu YMMWORD PTR [rax], ymm0

; 893  :     y7 = _mm256_add_epi32(y7, yC_YCC);

  00176	48 8b 84 24 b8
	01 00 00	 mov	 rax, QWORD PTR yC_YCC$[rsp]
  0017e	c5 fe 6f 45 00	 vmovdqu ymm0, YMMWORD PTR y7$[rbp]
  00183	c5 fd fe 00	 vpaddd	 ymm0, ymm0, YMMWORD PTR [rax]
  00187	c5 fe 7f 85 00
	01 00 00	 vmovdqu YMMWORD PTR $T8[rbp], ymm0
  0018f	c5 fe 6f 85 00
	01 00 00	 vmovdqu ymm0, YMMWORD PTR $T8[rbp]
  00197	c5 fe 7f 45 00	 vmovdqu YMMWORD PTR y7$[rbp], ymm0

; 894  : 
; 895  :     y0 = _mm256_packus_epi32(y0, y7);

  0019c	48 8b 84 24 a0
	01 00 00	 mov	 rax, QWORD PTR y0$[rsp]
  001a4	c5 fe 6f 00	 vmovdqu ymm0, YMMWORD PTR [rax]
  001a8	c4 e2 7d 2b 45
	00		 vpackusdw ymm0, ymm0, YMMWORD PTR y7$[rbp]
  001ae	c5 fe 7f 85 20
	01 00 00	 vmovdqu YMMWORD PTR $T9[rbp], ymm0
  001b6	48 8b 84 24 a0
	01 00 00	 mov	 rax, QWORD PTR y0$[rsp]
  001be	c5 fe 6f 85 20
	01 00 00	 vmovdqu ymm0, YMMWORD PTR $T9[rbp]
  001c6	c5 fe 7f 00	 vmovdqu YMMWORD PTR [rax], ymm0

; 896  : 
; 897  :     return y0;

  001ca	48 8b 84 24 a0
	01 00 00	 mov	 rax, QWORD PTR y0$[rsp]
  001d2	c5 fe 6f 00	 vmovdqu ymm0, YMMWORD PTR [rax]

; 898  : }

  001d6	48 81 c4 88 01
	00 00		 add	 rsp, 392		; 00000188H
  001dd	5f		 pop	 rdi
  001de	5d		 pop	 rbp
  001df	c3		 ret	 0
?convert_y_range_from_yc48@@YA?AT__m256i@@T1@0HAEBT1@1@Z ENDP ; convert_y_range_from_yc48
_TEXT	ENDS
; Function compile flags: /Odtp /RTCsu
; File D:\work\intel\intel_codec\QSVPipeline\convert_csp_avx2.cpp
_TEXT	SEGMENT
MASK_INT_Y$ = 0
MASK_INT_UV$ = 4
y3$ = 32
y4$ = 64
y5$ = 96
$T1 = 128
$T2 = 160
$T3 = 192
$T4 = 224
$T5 = 256
$T6 = 288
$T7 = 320
$T8 = 352
$T9 = 384
$T10 = 416
$T11 = 448
y0$ = 544
y1$ = 552
y2$ = 560
?gather_y_uv_from_yc48@@YAXAEAT__m256i@@0T1@@Z PROC	; gather_y_uv_from_yc48

; 860  : static __forceinline void gather_y_uv_from_yc48(__m256i& y0, __m256i& y1, __m256i y2) {

  00000	4c 89 44 24 18	 mov	 QWORD PTR [rsp+24], r8
  00005	48 89 54 24 10	 mov	 QWORD PTR [rsp+16], rdx
  0000a	48 89 4c 24 08	 mov	 QWORD PTR [rsp+8], rcx
  0000f	55		 push	 rbp
  00010	57		 push	 rdi
  00011	48 81 ec 08 02
	00 00		 sub	 rsp, 520		; 00000208H
  00018	48 8d 6c 24 20	 lea	 rbp, QWORD PTR [rsp+32]
  0001d	48 83 e5 e0	 and	 rbp, -32		; ffffffffffffffe0H
  00021	48 8b fc	 mov	 rdi, rsp
  00024	b9 82 00 00 00	 mov	 ecx, 130		; 00000082H
  00029	b8 cc cc cc cc	 mov	 eax, -858993460		; ccccccccH
  0002e	f3 ab		 rep stosd
  00030	48 8b 8c 24 20
	02 00 00	 mov	 rcx, QWORD PTR [rsp+544]

; 861  :     const int MASK_INT_Y  = 0x80 + 0x10 + 0x02;

  00038	c7 45 00 92 00
	00 00		 mov	 DWORD PTR MASK_INT_Y$[rbp], 146 ; 00000092H

; 862  :     const int MASK_INT_UV = 0x40 + 0x20 + 0x01;

  0003f	c7 45 04 61 00
	00 00		 mov	 DWORD PTR MASK_INT_UV$[rbp], 97 ; 00000061H

; 863  :     __m256i y3 = y0;

  00046	48 8b 84 24 20
	02 00 00	 mov	 rax, QWORD PTR y0$[rsp]
  0004e	c5 fe 6f 00	 vmovdqu ymm0, YMMWORD PTR [rax]
  00052	c5 fe 7f 45 20	 vmovdqu YMMWORD PTR y3$[rbp], ymm0

; 864  :     __m256i y4 = y1;

  00057	48 8b 84 24 28
	02 00 00	 mov	 rax, QWORD PTR y1$[rsp]
  0005f	c5 fe 6f 00	 vmovdqu ymm0, YMMWORD PTR [rax]
  00063	c5 fe 7f 45 40	 vmovdqu YMMWORD PTR y4$[rbp], ymm0

; 865  :     __m256i y5 = y2;

  00068	48 8b 84 24 30
	02 00 00	 mov	 rax, QWORD PTR y2$[rsp]
  00070	c5 fe 6f 00	 vmovdqu ymm0, YMMWORD PTR [rax]
  00074	c5 fe 7f 45 60	 vmovdqu YMMWORD PTR y5$[rbp], ymm0

; 866  : 
; 867  :     y0 = _mm256_blend_epi32(y3, y4, 0xf0);                    // 384, 0

  00079	c5 fe 6f 45 20	 vmovdqu ymm0, YMMWORD PTR y3$[rbp]
  0007e	c4 e3 7d 02 45
	40 f0		 vpblendd ymm0, ymm0, YMMWORD PTR y4$[rbp], 240 ; 000000f0H
  00085	c5 fe 7f 85 80
	00 00 00	 vmovdqu YMMWORD PTR $T1[rbp], ymm0
  0008d	48 8b 84 24 20
	02 00 00	 mov	 rax, QWORD PTR y0$[rsp]
  00095	c5 fe 6f 85 80
	00 00 00	 vmovdqu ymm0, YMMWORD PTR $T1[rbp]
  0009d	c5 fe 7f 00	 vmovdqu YMMWORD PTR [rax], ymm0

; 868  :     y1 = _mm256_permute2x128_si256(y3, y5, (0x02<<4) + 0x01); // 512, 128

  000a1	c5 fe 6f 45 20	 vmovdqu ymm0, YMMWORD PTR y3$[rbp]
  000a6	c4 e3 7d 46 45
	60 21		 vperm2i128 ymm0, ymm0, YMMWORD PTR y5$[rbp], 33 ; 00000021H
  000ad	c5 fe 7f 85 a0
	00 00 00	 vmovdqu YMMWORD PTR $T2[rbp], ymm0
  000b5	48 8b 84 24 28
	02 00 00	 mov	 rax, QWORD PTR y1$[rsp]
  000bd	c5 fe 6f 85 a0
	00 00 00	 vmovdqu ymm0, YMMWORD PTR $T2[rbp]
  000c5	c5 fe 7f 00	 vmovdqu YMMWORD PTR [rax], ymm0

; 869  :     y2 = _mm256_blend_epi32(y4, y5, 0xf0);                    // 640, 256

  000c9	c5 fe 6f 45 40	 vmovdqu ymm0, YMMWORD PTR y4$[rbp]
  000ce	c4 e3 7d 02 45
	60 f0		 vpblendd ymm0, ymm0, YMMWORD PTR y5$[rbp], 240 ; 000000f0H
  000d5	c5 fe 7f 85 c0
	00 00 00	 vmovdqu YMMWORD PTR $T3[rbp], ymm0
  000dd	48 8b 84 24 30
	02 00 00	 mov	 rax, QWORD PTR y2$[rsp]
  000e5	c5 fe 6f 85 c0
	00 00 00	 vmovdqu ymm0, YMMWORD PTR $T3[rbp]
  000ed	c5 fe 7f 00	 vmovdqu YMMWORD PTR [rax], ymm0

; 870  : 
; 871  :     y3 = _mm256_blend_epi16(y0, y1, MASK_INT_Y);

  000f1	48 8b 84 24 20
	02 00 00	 mov	 rax, QWORD PTR y0$[rsp]
  000f9	48 8b 8c 24 28
	02 00 00	 mov	 rcx, QWORD PTR y1$[rsp]
  00101	c5 fe 6f 00	 vmovdqu ymm0, YMMWORD PTR [rax]
  00105	c4 e3 7d 0e 01
	92		 vpblendw ymm0, ymm0, YMMWORD PTR [rcx], 146 ; 00000092H
  0010b	c5 fe 7f 85 e0
	00 00 00	 vmovdqu YMMWORD PTR $T4[rbp], ymm0
  00113	c5 fe 6f 85 e0
	00 00 00	 vmovdqu ymm0, YMMWORD PTR $T4[rbp]
  0011b	c5 fe 7f 45 20	 vmovdqu YMMWORD PTR y3$[rbp], ymm0

; 872  :     y3 = _mm256_blend_epi16(y3, y2, MASK_INT_Y>>2);

  00120	48 8b 84 24 30
	02 00 00	 mov	 rax, QWORD PTR y2$[rsp]
  00128	c5 fe 6f 45 20	 vmovdqu ymm0, YMMWORD PTR y3$[rbp]
  0012d	c4 e3 7d 0e 00
	24		 vpblendw ymm0, ymm0, YMMWORD PTR [rax], 36 ; 00000024H
  00133	c5 fe 7f 85 00
	01 00 00	 vmovdqu YMMWORD PTR $T5[rbp], ymm0
  0013b	c5 fe 6f 85 00
	01 00 00	 vmovdqu ymm0, YMMWORD PTR $T5[rbp]
  00143	c5 fe 7f 45 20	 vmovdqu YMMWORD PTR y3$[rbp], ymm0

; 873  : 
; 874  :     y1 = _mm256_blend_epi16(y0, y1, MASK_INT_UV);

  00148	48 8b 84 24 20
	02 00 00	 mov	 rax, QWORD PTR y0$[rsp]
  00150	48 8b 8c 24 28
	02 00 00	 mov	 rcx, QWORD PTR y1$[rsp]
  00158	c5 fe 6f 00	 vmovdqu ymm0, YMMWORD PTR [rax]
  0015c	c4 e3 7d 0e 01
	61		 vpblendw ymm0, ymm0, YMMWORD PTR [rcx], 97 ; 00000061H
  00162	c5 fe 7f 85 20
	01 00 00	 vmovdqu YMMWORD PTR $T6[rbp], ymm0
  0016a	48 8b 84 24 28
	02 00 00	 mov	 rax, QWORD PTR y1$[rsp]
  00172	c5 fe 6f 85 20
	01 00 00	 vmovdqu ymm0, YMMWORD PTR $T6[rbp]
  0017a	c5 fe 7f 00	 vmovdqu YMMWORD PTR [rax], ymm0

; 875  :     y1 = _mm256_blend_epi16(y1, y2, MASK_INT_UV>>2);

  0017e	48 8b 84 24 28
	02 00 00	 mov	 rax, QWORD PTR y1$[rsp]
  00186	48 8b 8c 24 30
	02 00 00	 mov	 rcx, QWORD PTR y2$[rsp]
  0018e	c5 fe 6f 00	 vmovdqu ymm0, YMMWORD PTR [rax]
  00192	c4 e3 7d 0e 01
	18		 vpblendw ymm0, ymm0, YMMWORD PTR [rcx], 24
  00198	c5 fe 7f 85 40
	01 00 00	 vmovdqu YMMWORD PTR $T7[rbp], ymm0
  001a0	48 8b 84 24 28
	02 00 00	 mov	 rax, QWORD PTR y1$[rsp]
  001a8	c5 fe 6f 85 40
	01 00 00	 vmovdqu ymm0, YMMWORD PTR $T7[rbp]
  001b0	c5 fe 7f 00	 vmovdqu YMMWORD PTR [rax], ymm0

; 876  :     y1 = _mm256_alignr_epi8(y1, y1, 2);

  001b4	48 8b 84 24 28
	02 00 00	 mov	 rax, QWORD PTR y1$[rsp]
  001bc	48 8b 8c 24 28
	02 00 00	 mov	 rcx, QWORD PTR y1$[rsp]
  001c4	c5 fe 6f 00	 vmovdqu ymm0, YMMWORD PTR [rax]
  001c8	c4 e3 7d 0f 01
	02		 vpalignr ymm0, ymm0, YMMWORD PTR [rcx], 2
  001ce	c5 fe 7f 85 60
	01 00 00	 vmovdqu YMMWORD PTR $T8[rbp], ymm0
  001d6	48 8b 84 24 28
	02 00 00	 mov	 rax, QWORD PTR y1$[rsp]
  001de	c5 fe 6f 85 60
	01 00 00	 vmovdqu ymm0, YMMWORD PTR $T8[rbp]
  001e6	c5 fe 7f 00	 vmovdqu YMMWORD PTR [rax], ymm0

; 877  :     y1 = _mm256_shuffle_epi32(y1, _MM_SHUFFLE(1, 2, 3, 0));//UV1

  001ea	48 8b 84 24 28
	02 00 00	 mov	 rax, QWORD PTR y1$[rsp]
  001f2	c5 fd 70 00 6c	 vpshufd ymm0, YMMWORD PTR [rax], 108 ; 0000006cH
  001f7	c5 fe 7f 85 80
	01 00 00	 vmovdqu YMMWORD PTR $T9[rbp], ymm0
  001ff	48 8b 84 24 28
	02 00 00	 mov	 rax, QWORD PTR y1$[rsp]
  00207	c5 fe 6f 85 80
	01 00 00	 vmovdqu ymm0, YMMWORD PTR $T9[rbp]
  0020f	c5 fe 7f 00	 vmovdqu YMMWORD PTR [rax], ymm0

; 878  : 
; 879  :     y0 = _mm256_shuffle_epi8(y3, yC_SUFFLE_YCP_Y);

  00213	c5 fd 6f 05 00
	00 00 00	 vmovdqa ymm0, YMMWORD PTR ?Array_SUFFLE_YCP_Y@@3QBEB
  0021b	c5 fe 7f 85 a0
	01 00 00	 vmovdqu YMMWORD PTR $T10[rbp], ymm0
  00223	c5 fe 6f 45 20	 vmovdqu ymm0, YMMWORD PTR y3$[rbp]
  00228	c4 e2 7d 00 85
	a0 01 00 00	 vpshufb ymm0, ymm0, YMMWORD PTR $T10[rbp]
  00231	c5 fe 7f 85 c0
	01 00 00	 vmovdqu YMMWORD PTR $T11[rbp], ymm0
  00239	48 8b 84 24 20
	02 00 00	 mov	 rax, QWORD PTR y0$[rsp]
  00241	c5 fe 6f 85 c0
	01 00 00	 vmovdqu ymm0, YMMWORD PTR $T11[rbp]
  00249	c5 fe 7f 00	 vmovdqu YMMWORD PTR [rax], ymm0

; 880  : }

  0024d	48 81 c4 08 02
	00 00		 add	 rsp, 520		; 00000208H
  00254	5f		 pop	 rdi
  00255	5d		 pop	 rbp
  00256	c3		 ret	 0
?gather_y_uv_from_yc48@@YAXAEAT__m256i@@0T1@@Z ENDP	; gather_y_uv_from_yc48
_TEXT	ENDS
; Function compile flags: /Odtp /RTCsu
; File D:\work\intel\intel_codec\QSVPipeline\convert_csp_avx2.cpp
_TEXT	SEGMENT
crop_left$ = 0
crop_up$ = 4
crop_right$ = 8
crop_bottom$ = 12
src_y_pitch$ = 16
y_range$ = 40
$T4 = 72
i$5 = 88
srcYLine$6 = 96
dstLine$7 = 104
y_width$8 = 112
y$9 = 116
src_ptr$10 = 120
dst_ptr$11 = 128
x$12 = 136
y0$13 = 160
$T14 = 192
$T15 = 224
$T16 = 256
$T17 = 288
y1$18 = 320
$T19 = 352
$T20 = 384
$T21 = 416
$T22 = 448
$T23 = 480
$T24 = 512
$T25 = 544
$T26 = 584
__$ArrayPad$ = 600
dst$ = 720
src$ = 728
width$ = 736
src_y_pitch_byte$ = 744
src_uv_pitch_byte$ = 752
dst_y_pitch_byte$ = 760
height$ = 768
dst_height$ = 776
thread_id$ = 784
thread_n$ = 792
crop$ = 800
??$convert_yuv444_high_to_yuv444_avx2_base@$08@@YAXPEAPEAXPEAPEBXHHHHHHHHPEAH@Z PROC ; convert_yuv444_high_to_yuv444_avx2_base<9>

; 810  : static void __forceinline convert_yuv444_high_to_yuv444_avx2_base(void **dst, const void **src, int width, int src_y_pitch_byte, int src_uv_pitch_byte, int dst_y_pitch_byte, int height, int dst_height, int thread_id, int thread_n, int *crop) {

  00000	44 89 4c 24 20	 mov	 DWORD PTR [rsp+32], r9d
  00005	44 89 44 24 18	 mov	 DWORD PTR [rsp+24], r8d
  0000a	48 89 54 24 10	 mov	 QWORD PTR [rsp+16], rdx
  0000f	48 89 4c 24 08	 mov	 QWORD PTR [rsp+8], rcx
  00014	55		 push	 rbp
  00015	56		 push	 rsi
  00016	57		 push	 rdi
  00017	48 81 ec b0 02
	00 00		 sub	 rsp, 688		; 000002b0H
  0001e	48 8d 6c 24 50	 lea	 rbp, QWORD PTR [rsp+80]
  00023	48 83 e5 e0	 and	 rbp, -32		; ffffffffffffffe0H
  00027	48 8b fc	 mov	 rdi, rsp
  0002a	b9 ac 00 00 00	 mov	 ecx, 172		; 000000acH
  0002f	b8 cc cc cc cc	 mov	 eax, -858993460		; ccccccccH
  00034	f3 ab		 rep stosd
  00036	48 8b 8c 24 d0
	02 00 00	 mov	 rcx, QWORD PTR [rsp+720]
  0003e	48 8b 05 00 00
	00 00		 mov	 rax, QWORD PTR __security_cookie
  00045	48 33 c4	 xor	 rax, rsp
  00048	48 89 85 58 02
	00 00		 mov	 QWORD PTR __$ArrayPad$[rbp], rax

; 811  :     static_assert(8 < in_bit_depth && in_bit_depth <= 16, "in_bit_depth must be 9-16.");
; 812  :     const int crop_left   = crop[0];

  0004f	b8 04 00 00 00	 mov	 eax, 4
  00054	48 6b c0 00	 imul	 rax, rax, 0
  00058	48 8b 8c 24 20
	03 00 00	 mov	 rcx, QWORD PTR crop$[rsp]
  00060	8b 04 01	 mov	 eax, DWORD PTR [rcx+rax]
  00063	89 45 00	 mov	 DWORD PTR crop_left$[rbp], eax

; 813  :     const int crop_up     = crop[1];

  00066	b8 04 00 00 00	 mov	 eax, 4
  0006b	48 6b c0 01	 imul	 rax, rax, 1
  0006f	48 8b 8c 24 20
	03 00 00	 mov	 rcx, QWORD PTR crop$[rsp]
  00077	8b 04 01	 mov	 eax, DWORD PTR [rcx+rax]
  0007a	89 45 04	 mov	 DWORD PTR crop_up$[rbp], eax

; 814  :     const int crop_right  = crop[2];

  0007d	b8 04 00 00 00	 mov	 eax, 4
  00082	48 6b c0 02	 imul	 rax, rax, 2
  00086	48 8b 8c 24 20
	03 00 00	 mov	 rcx, QWORD PTR crop$[rsp]
  0008e	8b 04 01	 mov	 eax, DWORD PTR [rcx+rax]
  00091	89 45 08	 mov	 DWORD PTR crop_right$[rbp], eax

; 815  :     const int crop_bottom = crop[3];

  00094	b8 04 00 00 00	 mov	 eax, 4
  00099	48 6b c0 03	 imul	 rax, rax, 3
  0009d	48 8b 8c 24 20
	03 00 00	 mov	 rcx, QWORD PTR crop$[rsp]
  000a5	8b 04 01	 mov	 eax, DWORD PTR [rcx+rax]
  000a8	89 45 0c	 mov	 DWORD PTR crop_bottom$[rbp], eax

; 816  :     const int src_y_pitch = src_y_pitch_byte >> 1;

  000ab	8b 84 24 e8 02
	00 00		 mov	 eax, DWORD PTR src_y_pitch_byte$[rsp]
  000b2	d1 f8		 sar	 eax, 1
  000b4	89 45 10	 mov	 DWORD PTR src_y_pitch$[rbp], eax

; 817  :     const auto y_range = thread_y_range(crop_up, height - crop_bottom, thread_id, thread_n);

  000b7	8b 45 0c	 mov	 eax, DWORD PTR crop_bottom$[rbp]
  000ba	8b 8c 24 00 03
	00 00		 mov	 ecx, DWORD PTR height$[rsp]
  000c1	2b c8		 sub	 ecx, eax
  000c3	8b c1		 mov	 eax, ecx
  000c5	8b 8c 24 18 03
	00 00		 mov	 ecx, DWORD PTR thread_n$[rsp]
  000cc	89 4c 24 20	 mov	 DWORD PTR [rsp+32], ecx
  000d0	44 8b 8c 24 10
	03 00 00	 mov	 r9d, DWORD PTR thread_id$[rsp]
  000d8	44 8b c0	 mov	 r8d, eax
  000db	8b 55 04	 mov	 edx, DWORD PTR crop_up$[rbp]
  000de	48 8d 8d 48 02
	00 00		 lea	 rcx, QWORD PTR $T26[rbp]
  000e5	e8 00 00 00 00	 call	 ?thread_y_range@@YA?AUTHREAD_Y_RANGE@@HHHH@Z ; thread_y_range
  000ea	48 8d 4d 48	 lea	 rcx, QWORD PTR $T4[rbp]
  000ee	48 8b f9	 mov	 rdi, rcx
  000f1	48 8b f0	 mov	 rsi, rax
  000f4	b9 0c 00 00 00	 mov	 ecx, 12
  000f9	f3 a4		 rep movsb
  000fb	48 8d 45 28	 lea	 rax, QWORD PTR y_range$[rbp]
  000ff	48 8d 4d 48	 lea	 rcx, QWORD PTR $T4[rbp]
  00103	48 8b f8	 mov	 rdi, rax
  00106	48 8b f1	 mov	 rsi, rcx
  00109	b9 0c 00 00 00	 mov	 ecx, 12
  0010e	f3 a4		 rep movsb

; 818  :     for (int i = 0; i < 3; i++) {

  00110	c7 45 58 00 00
	00 00		 mov	 DWORD PTR i$5[rbp], 0
  00117	eb 08		 jmp	 SHORT $LN4@convert_yu
$LN2@convert_yu:
  00119	8b 45 58	 mov	 eax, DWORD PTR i$5[rbp]
  0011c	ff c0		 inc	 eax
  0011e	89 45 58	 mov	 DWORD PTR i$5[rbp], eax
$LN4@convert_yu:
  00121	83 7d 58 03	 cmp	 DWORD PTR i$5[rbp], 3
  00125	0f 8d 55 02 00
	00		 jge	 $LN3@convert_yu

; 819  :         uint16_t *srcYLine = (uint16_t *)src[i] + src_y_pitch * y_range.start_src + crop_left;

  0012b	48 63 45 58	 movsxd	 rax, DWORD PTR i$5[rbp]
  0012f	8b 4d 10	 mov	 ecx, DWORD PTR src_y_pitch$[rbp]
  00132	0f af 4d 28	 imul	 ecx, DWORD PTR y_range$[rbp]
  00136	48 63 c9	 movsxd	 rcx, ecx
  00139	48 8b 94 24 d8
	02 00 00	 mov	 rdx, QWORD PTR src$[rsp]
  00141	48 8b 04 c2	 mov	 rax, QWORD PTR [rdx+rax*8]
  00145	48 8d 04 48	 lea	 rax, QWORD PTR [rax+rcx*2]
  00149	48 63 4d 00	 movsxd	 rcx, DWORD PTR crop_left$[rbp]
  0014d	48 8d 04 48	 lea	 rax, QWORD PTR [rax+rcx*2]
  00151	48 89 45 60	 mov	 QWORD PTR srcYLine$6[rbp], rax

; 820  :         uint8_t *dstLine = (uint8_t *)dst[i] + dst_y_pitch_byte * y_range.start_dst;

  00155	48 63 45 58	 movsxd	 rax, DWORD PTR i$5[rbp]
  00159	8b 8c 24 f8 02
	00 00		 mov	 ecx, DWORD PTR dst_y_pitch_byte$[rsp]
  00160	0f af 4d 2c	 imul	 ecx, DWORD PTR y_range$[rbp+4]
  00164	48 63 c9	 movsxd	 rcx, ecx
  00167	48 8b 94 24 d0
	02 00 00	 mov	 rdx, QWORD PTR dst$[rsp]
  0016f	48 03 0c c2	 add	 rcx, QWORD PTR [rdx+rax*8]
  00173	48 8b c1	 mov	 rax, rcx
  00176	48 89 45 68	 mov	 QWORD PTR dstLine$7[rbp], rax

; 821  :         const int y_width = width - crop_right - crop_left;

  0017a	8b 45 08	 mov	 eax, DWORD PTR crop_right$[rbp]
  0017d	8b 8c 24 e0 02
	00 00		 mov	 ecx, DWORD PTR width$[rsp]
  00184	2b c8		 sub	 ecx, eax
  00186	8b c1		 mov	 eax, ecx
  00188	2b 45 00	 sub	 eax, DWORD PTR crop_left$[rbp]
  0018b	89 45 70	 mov	 DWORD PTR y_width$8[rbp], eax

; 822  :         for (int y = 0; y < y_range.len; y++, srcYLine += src_y_pitch, dstLine += dst_y_pitch_byte) {

  0018e	c7 45 74 00 00
	00 00		 mov	 DWORD PTR y$9[rbp], 0
  00195	eb 2e		 jmp	 SHORT $LN7@convert_yu
$LN5@convert_yu:
  00197	8b 45 74	 mov	 eax, DWORD PTR y$9[rbp]
  0019a	ff c0		 inc	 eax
  0019c	89 45 74	 mov	 DWORD PTR y$9[rbp], eax
  0019f	48 63 45 10	 movsxd	 rax, DWORD PTR src_y_pitch$[rbp]
  001a3	48 8b 4d 60	 mov	 rcx, QWORD PTR srcYLine$6[rbp]
  001a7	48 8d 04 41	 lea	 rax, QWORD PTR [rcx+rax*2]
  001ab	48 89 45 60	 mov	 QWORD PTR srcYLine$6[rbp], rax
  001af	48 63 84 24 f8
	02 00 00	 movsxd	 rax, DWORD PTR dst_y_pitch_byte$[rsp]
  001b7	48 8b 4d 68	 mov	 rcx, QWORD PTR dstLine$7[rbp]
  001bb	48 03 c8	 add	 rcx, rax
  001be	48 8b c1	 mov	 rax, rcx
  001c1	48 89 45 68	 mov	 QWORD PTR dstLine$7[rbp], rax
$LN7@convert_yu:
  001c5	8b 45 30	 mov	 eax, DWORD PTR y_range$[rbp+8]
  001c8	39 45 74	 cmp	 DWORD PTR y$9[rbp], eax
  001cb	0f 8d aa 01 00
	00		 jge	 $LN6@convert_yu

; 823  :             uint16_t *src_ptr = srcYLine;

  001d1	48 8b 45 60	 mov	 rax, QWORD PTR srcYLine$6[rbp]
  001d5	48 89 45 78	 mov	 QWORD PTR src_ptr$10[rbp], rax

; 824  :             uint8_t *dst_ptr = dstLine;

  001d9	48 8b 45 68	 mov	 rax, QWORD PTR dstLine$7[rbp]
  001dd	48 89 85 80 00
	00 00		 mov	 QWORD PTR dst_ptr$11[rbp], rax

; 825  :             for (int x = 0; x < y_width; x += 32, dst_ptr += 32, src_ptr += 32) {

  001e4	c7 85 88 00 00
	00 00 00 00 00	 mov	 DWORD PTR x$12[rbp], 0
  001ee	eb 2d		 jmp	 SHORT $LN10@convert_yu
$LN8@convert_yu:
  001f0	8b 85 88 00 00
	00		 mov	 eax, DWORD PTR x$12[rbp]
  001f6	83 c0 20	 add	 eax, 32			; 00000020H
  001f9	89 85 88 00 00
	00		 mov	 DWORD PTR x$12[rbp], eax
  001ff	48 8b 85 80 00
	00 00		 mov	 rax, QWORD PTR dst_ptr$11[rbp]
  00206	48 83 c0 20	 add	 rax, 32			; 00000020H
  0020a	48 89 85 80 00
	00 00		 mov	 QWORD PTR dst_ptr$11[rbp], rax
  00211	48 8b 45 78	 mov	 rax, QWORD PTR src_ptr$10[rbp]
  00215	48 83 c0 40	 add	 rax, 64			; 00000040H
  00219	48 89 45 78	 mov	 QWORD PTR src_ptr$10[rbp], rax
$LN10@convert_yu:
  0021d	8b 45 70	 mov	 eax, DWORD PTR y_width$8[rbp]
  00220	39 85 88 00 00
	00		 cmp	 DWORD PTR x$12[rbp], eax
  00226	0f 8d 4a 01 00
	00		 jge	 $LN9@convert_yu

; 826  :                 __m256i y0 = _mm256_loadu2_m128i((const __m128i *)(src_ptr + 16), (const __m128i *)(src_ptr +  0));

  0022c	48 8b 45 78	 mov	 rax, QWORD PTR src_ptr$10[rbp]
  00230	48 83 c0 20	 add	 rax, 32			; 00000020H
  00234	f3 0f 6f 00	 movdqu	 xmm0, XMMWORD PTR [rax]
  00238	66 0f 7f 85 00
	01 00 00	 movdqa	 XMMWORD PTR $T16[rbp], xmm0
  00240	48 8b 45 78	 mov	 rax, QWORD PTR src_ptr$10[rbp]
  00244	f3 0f 6f 00	 movdqu	 xmm0, XMMWORD PTR [rax]
  00248	66 0f 7f 85 c0
	00 00 00	 movdqa	 XMMWORD PTR $T14[rbp], xmm0
  00250	c5 f8 10 85 c0
	00 00 00	 vmovups xmm0, XMMWORD PTR $T14[rbp]
  00258	c5 fe 7f 85 e0
	00 00 00	 vmovdqu YMMWORD PTR $T15[rbp], ymm0
  00260	c5 fe 6f 85 e0
	00 00 00	 vmovdqu ymm0, YMMWORD PTR $T15[rbp]
  00268	c4 e3 7d 18 85
	00 01 00 00 01	 vinsertf128 ymm0, ymm0, XMMWORD PTR $T16[rbp], 1
  00272	c5 fe 7f 85 20
	01 00 00	 vmovdqu YMMWORD PTR $T17[rbp], ymm0
  0027a	c5 fe 6f 85 20
	01 00 00	 vmovdqu ymm0, YMMWORD PTR $T17[rbp]
  00282	c5 fe 7f 85 a0
	00 00 00	 vmovdqu YMMWORD PTR y0$13[rbp], ymm0

; 827  :                 __m256i y1 = _mm256_loadu2_m128i((const __m128i *)(src_ptr + 24), (const __m128i *)(src_ptr +  8));

  0028a	48 8b 45 78	 mov	 rax, QWORD PTR src_ptr$10[rbp]
  0028e	48 83 c0 30	 add	 rax, 48			; 00000030H
  00292	f3 0f 6f 00	 movdqu	 xmm0, XMMWORD PTR [rax]
  00296	66 0f 7f 85 a0
	01 00 00	 movdqa	 XMMWORD PTR $T21[rbp], xmm0
  0029e	48 8b 45 78	 mov	 rax, QWORD PTR src_ptr$10[rbp]
  002a2	48 83 c0 10	 add	 rax, 16
  002a6	f3 0f 6f 00	 movdqu	 xmm0, XMMWORD PTR [rax]
  002aa	66 0f 7f 85 60
	01 00 00	 movdqa	 XMMWORD PTR $T19[rbp], xmm0
  002b2	c5 f8 10 85 60
	01 00 00	 vmovups xmm0, XMMWORD PTR $T19[rbp]
  002ba	c5 fe 7f 85 80
	01 00 00	 vmovdqu YMMWORD PTR $T20[rbp], ymm0
  002c2	c5 fe 6f 85 80
	01 00 00	 vmovdqu ymm0, YMMWORD PTR $T20[rbp]
  002ca	c4 e3 7d 18 85
	a0 01 00 00 01	 vinsertf128 ymm0, ymm0, XMMWORD PTR $T21[rbp], 1
  002d4	c5 fe 7f 85 c0
	01 00 00	 vmovdqu YMMWORD PTR $T22[rbp], ymm0
  002dc	c5 fe 6f 85 c0
	01 00 00	 vmovdqu ymm0, YMMWORD PTR $T22[rbp]
  002e4	c5 fe 7f 85 40
	01 00 00	 vmovdqu YMMWORD PTR y1$18[rbp], ymm0

; 828  :                 y0 = _mm256_srli_epi16(y0, in_bit_depth - 8);

  002ec	c5 fe 6f 85 a0
	00 00 00	 vmovdqu ymm0, YMMWORD PTR y0$13[rbp]
  002f4	c5 fd 71 d0 01	 vpsrlw	 ymm0, ymm0, 1
  002f9	c5 fe 7f 85 e0
	01 00 00	 vmovdqu YMMWORD PTR $T23[rbp], ymm0
  00301	c5 fe 6f 85 e0
	01 00 00	 vmovdqu ymm0, YMMWORD PTR $T23[rbp]
  00309	c5 fe 7f 85 a0
	00 00 00	 vmovdqu YMMWORD PTR y0$13[rbp], ymm0

; 829  :                 y1 = _mm256_srli_epi16(y1, in_bit_depth - 8);

  00311	c5 fe 6f 85 40
	01 00 00	 vmovdqu ymm0, YMMWORD PTR y1$18[rbp]
  00319	c5 fd 71 d0 01	 vpsrlw	 ymm0, ymm0, 1
  0031e	c5 fe 7f 85 00
	02 00 00	 vmovdqu YMMWORD PTR $T24[rbp], ymm0
  00326	c5 fe 6f 85 00
	02 00 00	 vmovdqu ymm0, YMMWORD PTR $T24[rbp]
  0032e	c5 fe 7f 85 40
	01 00 00	 vmovdqu YMMWORD PTR y1$18[rbp], ymm0

; 830  :                 y0 = _mm256_packus_epi16(y0, y1);

  00336	c5 fe 6f 85 a0
	00 00 00	 vmovdqu ymm0, YMMWORD PTR y0$13[rbp]
  0033e	c5 fd 67 85 40
	01 00 00	 vpackuswb ymm0, ymm0, YMMWORD PTR y1$18[rbp]
  00346	c5 fe 7f 85 20
	02 00 00	 vmovdqu YMMWORD PTR $T25[rbp], ymm0
  0034e	c5 fe 6f 85 20
	02 00 00	 vmovdqu ymm0, YMMWORD PTR $T25[rbp]
  00356	c5 fe 7f 85 a0
	00 00 00	 vmovdqu YMMWORD PTR y0$13[rbp], ymm0

; 831  :                 _mm256_storeu_si256((__m256i *)dst_ptr, y0);

  0035e	48 8b 85 80 00
	00 00		 mov	 rax, QWORD PTR dst_ptr$11[rbp]
  00365	c5 fe 6f 85 a0
	00 00 00	 vmovdqu ymm0, YMMWORD PTR y0$13[rbp]
  0036d	c5 fe 7f 00	 vmovdqu YMMWORD PTR [rax], ymm0

; 832  :             }

  00371	e9 7a fe ff ff	 jmp	 $LN8@convert_yu
$LN9@convert_yu:

; 833  :         }

  00376	e9 1c fe ff ff	 jmp	 $LN5@convert_yu
$LN6@convert_yu:

; 834  :     }

  0037b	e9 99 fd ff ff	 jmp	 $LN2@convert_yu
$LN3@convert_yu:

; 835  : }

  00380	48 8d 4d d0	 lea	 rcx, QWORD PTR [rbp-48]
  00384	48 8d 15 00 00
	00 00		 lea	 rdx, OFFSET FLAT:??$convert_yuv444_high_to_yuv444_avx2_base@$08@@YAXPEAPEAXPEAPEBXHHHHHHHHPEAH@Z$rtcFrameData
  0038b	e8 00 00 00 00	 call	 _RTC_CheckStackVars
  00390	48 8b 8d 58 02
	00 00		 mov	 rcx, QWORD PTR __$ArrayPad$[rbp]
  00397	48 33 cc	 xor	 rcx, rsp
  0039a	e8 00 00 00 00	 call	 __security_check_cookie
  0039f	48 81 c4 b0 02
	00 00		 add	 rsp, 688		; 000002b0H
  003a6	5f		 pop	 rdi
  003a7	5e		 pop	 rsi
  003a8	5d		 pop	 rbp
  003a9	c3		 ret	 0
??$convert_yuv444_high_to_yuv444_avx2_base@$08@@YAXPEAPEAXPEAPEBXHHHHHHHHPEAH@Z ENDP ; convert_yuv444_high_to_yuv444_avx2_base<9>
_TEXT	ENDS
; Function compile flags: /Odtp /RTCsu
; File D:\work\intel\intel_codec\QSVPipeline\convert_csp_avx2.cpp
_TEXT	SEGMENT
dst$ = 112
src$ = 120
width$ = 128
src_y_pitch_byte$ = 136
src_uv_pitch_byte$ = 144
dst_y_pitch_byte$ = 152
height$ = 160
dst_height$ = 168
thread_id$ = 176
thread_n$ = 184
crop$ = 192
?convert_yuv444_09_to_yuv444_avx2@@YAXPEAPEAXPEAPEBXHHHHHHHHPEAH@Z PROC ; convert_yuv444_09_to_yuv444_avx2

; 854  : void convert_yuv444_09_to_yuv444_avx2(void **dst, const void **src, int width, int src_y_pitch_byte, int src_uv_pitch_byte, int dst_y_pitch_byte, int height, int dst_height, int thread_id, int thread_n, int *crop) {

$LN3:
  00000	44 89 4c 24 20	 mov	 DWORD PTR [rsp+32], r9d
  00005	44 89 44 24 18	 mov	 DWORD PTR [rsp+24], r8d
  0000a	48 89 54 24 10	 mov	 QWORD PTR [rsp+16], rdx
  0000f	48 89 4c 24 08	 mov	 QWORD PTR [rsp+8], rcx
  00014	57		 push	 rdi
  00015	48 83 ec 60	 sub	 rsp, 96			; 00000060H
  00019	48 8b fc	 mov	 rdi, rsp
  0001c	b9 18 00 00 00	 mov	 ecx, 24
  00021	b8 cc cc cc cc	 mov	 eax, -858993460		; ccccccccH
  00026	f3 ab		 rep stosd
  00028	48 8b 4c 24 70	 mov	 rcx, QWORD PTR [rsp+112]

; 855  :     convert_yuv444_high_to_yuv444_avx2_base<9>(dst, src, width, src_y_pitch_byte, src_uv_pitch_byte, dst_y_pitch_byte, height, dst_height, thread_id, thread_n, crop);

  0002d	48 8b 84 24 c0
	00 00 00	 mov	 rax, QWORD PTR crop$[rsp]
  00035	48 89 44 24 50	 mov	 QWORD PTR [rsp+80], rax
  0003a	8b 84 24 b8 00
	00 00		 mov	 eax, DWORD PTR thread_n$[rsp]
  00041	89 44 24 48	 mov	 DWORD PTR [rsp+72], eax
  00045	8b 84 24 b0 00
	00 00		 mov	 eax, DWORD PTR thread_id$[rsp]
  0004c	89 44 24 40	 mov	 DWORD PTR [rsp+64], eax
  00050	8b 84 24 a8 00
	00 00		 mov	 eax, DWORD PTR dst_height$[rsp]
  00057	89 44 24 38	 mov	 DWORD PTR [rsp+56], eax
  0005b	8b 84 24 a0 00
	00 00		 mov	 eax, DWORD PTR height$[rsp]
  00062	89 44 24 30	 mov	 DWORD PTR [rsp+48], eax
  00066	8b 84 24 98 00
	00 00		 mov	 eax, DWORD PTR dst_y_pitch_byte$[rsp]
  0006d	89 44 24 28	 mov	 DWORD PTR [rsp+40], eax
  00071	8b 84 24 90 00
	00 00		 mov	 eax, DWORD PTR src_uv_pitch_byte$[rsp]
  00078	89 44 24 20	 mov	 DWORD PTR [rsp+32], eax
  0007c	44 8b 8c 24 88
	00 00 00	 mov	 r9d, DWORD PTR src_y_pitch_byte$[rsp]
  00084	44 8b 84 24 80
	00 00 00	 mov	 r8d, DWORD PTR width$[rsp]
  0008c	48 8b 54 24 78	 mov	 rdx, QWORD PTR src$[rsp]
  00091	48 8b 4c 24 70	 mov	 rcx, QWORD PTR dst$[rsp]
  00096	e8 00 00 00 00	 call	 ??$convert_yuv444_high_to_yuv444_avx2_base@$08@@YAXPEAPEAXPEAPEBXHHHHHHHHPEAH@Z ; convert_yuv444_high_to_yuv444_avx2_base<9>

; 856  : }

  0009b	48 83 c4 60	 add	 rsp, 96			; 00000060H
  0009f	5f		 pop	 rdi
  000a0	c3		 ret	 0
?convert_yuv444_09_to_yuv444_avx2@@YAXPEAPEAXPEAPEBXHHHHHHHHPEAH@Z ENDP ; convert_yuv444_09_to_yuv444_avx2
_TEXT	ENDS
; Function compile flags: /Odtp /RTCsu
; File D:\work\intel\intel_codec\QSVPipeline\convert_csp_avx2.cpp
_TEXT	SEGMENT
crop_left$ = 0
crop_up$ = 4
crop_right$ = 8
crop_bottom$ = 12
src_y_pitch$ = 16
y_range$ = 40
$T4 = 72
i$5 = 88
srcYLine$6 = 96
dstLine$7 = 104
y_width$8 = 112
y$9 = 116
src_ptr$10 = 120
dst_ptr$11 = 128
x$12 = 136
y0$13 = 160
$T14 = 192
$T15 = 224
$T16 = 256
$T17 = 288
y1$18 = 320
$T19 = 352
$T20 = 384
$T21 = 416
$T22 = 448
$T23 = 480
$T24 = 512
$T25 = 544
$T26 = 584
__$ArrayPad$ = 600
dst$ = 720
src$ = 728
width$ = 736
src_y_pitch_byte$ = 744
src_uv_pitch_byte$ = 752
dst_y_pitch_byte$ = 760
height$ = 768
dst_height$ = 776
thread_id$ = 784
thread_n$ = 792
crop$ = 800
??$convert_yuv444_high_to_yuv444_avx2_base@$09@@YAXPEAPEAXPEAPEBXHHHHHHHHPEAH@Z PROC ; convert_yuv444_high_to_yuv444_avx2_base<10>

; 810  : static void __forceinline convert_yuv444_high_to_yuv444_avx2_base(void **dst, const void **src, int width, int src_y_pitch_byte, int src_uv_pitch_byte, int dst_y_pitch_byte, int height, int dst_height, int thread_id, int thread_n, int *crop) {

  00000	44 89 4c 24 20	 mov	 DWORD PTR [rsp+32], r9d
  00005	44 89 44 24 18	 mov	 DWORD PTR [rsp+24], r8d
  0000a	48 89 54 24 10	 mov	 QWORD PTR [rsp+16], rdx
  0000f	48 89 4c 24 08	 mov	 QWORD PTR [rsp+8], rcx
  00014	55		 push	 rbp
  00015	56		 push	 rsi
  00016	57		 push	 rdi
  00017	48 81 ec b0 02
	00 00		 sub	 rsp, 688		; 000002b0H
  0001e	48 8d 6c 24 50	 lea	 rbp, QWORD PTR [rsp+80]
  00023	48 83 e5 e0	 and	 rbp, -32		; ffffffffffffffe0H
  00027	48 8b fc	 mov	 rdi, rsp
  0002a	b9 ac 00 00 00	 mov	 ecx, 172		; 000000acH
  0002f	b8 cc cc cc cc	 mov	 eax, -858993460		; ccccccccH
  00034	f3 ab		 rep stosd
  00036	48 8b 8c 24 d0
	02 00 00	 mov	 rcx, QWORD PTR [rsp+720]
  0003e	48 8b 05 00 00
	00 00		 mov	 rax, QWORD PTR __security_cookie
  00045	48 33 c4	 xor	 rax, rsp
  00048	48 89 85 58 02
	00 00		 mov	 QWORD PTR __$ArrayPad$[rbp], rax

; 811  :     static_assert(8 < in_bit_depth && in_bit_depth <= 16, "in_bit_depth must be 9-16.");
; 812  :     const int crop_left   = crop[0];

  0004f	b8 04 00 00 00	 mov	 eax, 4
  00054	48 6b c0 00	 imul	 rax, rax, 0
  00058	48 8b 8c 24 20
	03 00 00	 mov	 rcx, QWORD PTR crop$[rsp]
  00060	8b 04 01	 mov	 eax, DWORD PTR [rcx+rax]
  00063	89 45 00	 mov	 DWORD PTR crop_left$[rbp], eax

; 813  :     const int crop_up     = crop[1];

  00066	b8 04 00 00 00	 mov	 eax, 4
  0006b	48 6b c0 01	 imul	 rax, rax, 1
  0006f	48 8b 8c 24 20
	03 00 00	 mov	 rcx, QWORD PTR crop$[rsp]
  00077	8b 04 01	 mov	 eax, DWORD PTR [rcx+rax]
  0007a	89 45 04	 mov	 DWORD PTR crop_up$[rbp], eax

; 814  :     const int crop_right  = crop[2];

  0007d	b8 04 00 00 00	 mov	 eax, 4
  00082	48 6b c0 02	 imul	 rax, rax, 2
  00086	48 8b 8c 24 20
	03 00 00	 mov	 rcx, QWORD PTR crop$[rsp]
  0008e	8b 04 01	 mov	 eax, DWORD PTR [rcx+rax]
  00091	89 45 08	 mov	 DWORD PTR crop_right$[rbp], eax

; 815  :     const int crop_bottom = crop[3];

  00094	b8 04 00 00 00	 mov	 eax, 4
  00099	48 6b c0 03	 imul	 rax, rax, 3
  0009d	48 8b 8c 24 20
	03 00 00	 mov	 rcx, QWORD PTR crop$[rsp]
  000a5	8b 04 01	 mov	 eax, DWORD PTR [rcx+rax]
  000a8	89 45 0c	 mov	 DWORD PTR crop_bottom$[rbp], eax

; 816  :     const int src_y_pitch = src_y_pitch_byte >> 1;

  000ab	8b 84 24 e8 02
	00 00		 mov	 eax, DWORD PTR src_y_pitch_byte$[rsp]
  000b2	d1 f8		 sar	 eax, 1
  000b4	89 45 10	 mov	 DWORD PTR src_y_pitch$[rbp], eax

; 817  :     const auto y_range = thread_y_range(crop_up, height - crop_bottom, thread_id, thread_n);

  000b7	8b 45 0c	 mov	 eax, DWORD PTR crop_bottom$[rbp]
  000ba	8b 8c 24 00 03
	00 00		 mov	 ecx, DWORD PTR height$[rsp]
  000c1	2b c8		 sub	 ecx, eax
  000c3	8b c1		 mov	 eax, ecx
  000c5	8b 8c 24 18 03
	00 00		 mov	 ecx, DWORD PTR thread_n$[rsp]
  000cc	89 4c 24 20	 mov	 DWORD PTR [rsp+32], ecx
  000d0	44 8b 8c 24 10
	03 00 00	 mov	 r9d, DWORD PTR thread_id$[rsp]
  000d8	44 8b c0	 mov	 r8d, eax
  000db	8b 55 04	 mov	 edx, DWORD PTR crop_up$[rbp]
  000de	48 8d 8d 48 02
	00 00		 lea	 rcx, QWORD PTR $T26[rbp]
  000e5	e8 00 00 00 00	 call	 ?thread_y_range@@YA?AUTHREAD_Y_RANGE@@HHHH@Z ; thread_y_range
  000ea	48 8d 4d 48	 lea	 rcx, QWORD PTR $T4[rbp]
  000ee	48 8b f9	 mov	 rdi, rcx
  000f1	48 8b f0	 mov	 rsi, rax
  000f4	b9 0c 00 00 00	 mov	 ecx, 12
  000f9	f3 a4		 rep movsb
  000fb	48 8d 45 28	 lea	 rax, QWORD PTR y_range$[rbp]
  000ff	48 8d 4d 48	 lea	 rcx, QWORD PTR $T4[rbp]
  00103	48 8b f8	 mov	 rdi, rax
  00106	48 8b f1	 mov	 rsi, rcx
  00109	b9 0c 00 00 00	 mov	 ecx, 12
  0010e	f3 a4		 rep movsb

; 818  :     for (int i = 0; i < 3; i++) {

  00110	c7 45 58 00 00
	00 00		 mov	 DWORD PTR i$5[rbp], 0
  00117	eb 08		 jmp	 SHORT $LN4@convert_yu
$LN2@convert_yu:
  00119	8b 45 58	 mov	 eax, DWORD PTR i$5[rbp]
  0011c	ff c0		 inc	 eax
  0011e	89 45 58	 mov	 DWORD PTR i$5[rbp], eax
$LN4@convert_yu:
  00121	83 7d 58 03	 cmp	 DWORD PTR i$5[rbp], 3
  00125	0f 8d 55 02 00
	00		 jge	 $LN3@convert_yu

; 819  :         uint16_t *srcYLine = (uint16_t *)src[i] + src_y_pitch * y_range.start_src + crop_left;

  0012b	48 63 45 58	 movsxd	 rax, DWORD PTR i$5[rbp]
  0012f	8b 4d 10	 mov	 ecx, DWORD PTR src_y_pitch$[rbp]
  00132	0f af 4d 28	 imul	 ecx, DWORD PTR y_range$[rbp]
  00136	48 63 c9	 movsxd	 rcx, ecx
  00139	48 8b 94 24 d8
	02 00 00	 mov	 rdx, QWORD PTR src$[rsp]
  00141	48 8b 04 c2	 mov	 rax, QWORD PTR [rdx+rax*8]
  00145	48 8d 04 48	 lea	 rax, QWORD PTR [rax+rcx*2]
  00149	48 63 4d 00	 movsxd	 rcx, DWORD PTR crop_left$[rbp]
  0014d	48 8d 04 48	 lea	 rax, QWORD PTR [rax+rcx*2]
  00151	48 89 45 60	 mov	 QWORD PTR srcYLine$6[rbp], rax

; 820  :         uint8_t *dstLine = (uint8_t *)dst[i] + dst_y_pitch_byte * y_range.start_dst;

  00155	48 63 45 58	 movsxd	 rax, DWORD PTR i$5[rbp]
  00159	8b 8c 24 f8 02
	00 00		 mov	 ecx, DWORD PTR dst_y_pitch_byte$[rsp]
  00160	0f af 4d 2c	 imul	 ecx, DWORD PTR y_range$[rbp+4]
  00164	48 63 c9	 movsxd	 rcx, ecx
  00167	48 8b 94 24 d0
	02 00 00	 mov	 rdx, QWORD PTR dst$[rsp]
  0016f	48 03 0c c2	 add	 rcx, QWORD PTR [rdx+rax*8]
  00173	48 8b c1	 mov	 rax, rcx
  00176	48 89 45 68	 mov	 QWORD PTR dstLine$7[rbp], rax

; 821  :         const int y_width = width - crop_right - crop_left;

  0017a	8b 45 08	 mov	 eax, DWORD PTR crop_right$[rbp]
  0017d	8b 8c 24 e0 02
	00 00		 mov	 ecx, DWORD PTR width$[rsp]
  00184	2b c8		 sub	 ecx, eax
  00186	8b c1		 mov	 eax, ecx
  00188	2b 45 00	 sub	 eax, DWORD PTR crop_left$[rbp]
  0018b	89 45 70	 mov	 DWORD PTR y_width$8[rbp], eax

; 822  :         for (int y = 0; y < y_range.len; y++, srcYLine += src_y_pitch, dstLine += dst_y_pitch_byte) {

  0018e	c7 45 74 00 00
	00 00		 mov	 DWORD PTR y$9[rbp], 0
  00195	eb 2e		 jmp	 SHORT $LN7@convert_yu
$LN5@convert_yu:
  00197	8b 45 74	 mov	 eax, DWORD PTR y$9[rbp]
  0019a	ff c0		 inc	 eax
  0019c	89 45 74	 mov	 DWORD PTR y$9[rbp], eax
  0019f	48 63 45 10	 movsxd	 rax, DWORD PTR src_y_pitch$[rbp]
  001a3	48 8b 4d 60	 mov	 rcx, QWORD PTR srcYLine$6[rbp]
  001a7	48 8d 04 41	 lea	 rax, QWORD PTR [rcx+rax*2]
  001ab	48 89 45 60	 mov	 QWORD PTR srcYLine$6[rbp], rax
  001af	48 63 84 24 f8
	02 00 00	 movsxd	 rax, DWORD PTR dst_y_pitch_byte$[rsp]
  001b7	48 8b 4d 68	 mov	 rcx, QWORD PTR dstLine$7[rbp]
  001bb	48 03 c8	 add	 rcx, rax
  001be	48 8b c1	 mov	 rax, rcx
  001c1	48 89 45 68	 mov	 QWORD PTR dstLine$7[rbp], rax
$LN7@convert_yu:
  001c5	8b 45 30	 mov	 eax, DWORD PTR y_range$[rbp+8]
  001c8	39 45 74	 cmp	 DWORD PTR y$9[rbp], eax
  001cb	0f 8d aa 01 00
	00		 jge	 $LN6@convert_yu

; 823  :             uint16_t *src_ptr = srcYLine;

  001d1	48 8b 45 60	 mov	 rax, QWORD PTR srcYLine$6[rbp]
  001d5	48 89 45 78	 mov	 QWORD PTR src_ptr$10[rbp], rax

; 824  :             uint8_t *dst_ptr = dstLine;

  001d9	48 8b 45 68	 mov	 rax, QWORD PTR dstLine$7[rbp]
  001dd	48 89 85 80 00
	00 00		 mov	 QWORD PTR dst_ptr$11[rbp], rax

; 825  :             for (int x = 0; x < y_width; x += 32, dst_ptr += 32, src_ptr += 32) {

  001e4	c7 85 88 00 00
	00 00 00 00 00	 mov	 DWORD PTR x$12[rbp], 0
  001ee	eb 2d		 jmp	 SHORT $LN10@convert_yu
$LN8@convert_yu:
  001f0	8b 85 88 00 00
	00		 mov	 eax, DWORD PTR x$12[rbp]
  001f6	83 c0 20	 add	 eax, 32			; 00000020H
  001f9	89 85 88 00 00
	00		 mov	 DWORD PTR x$12[rbp], eax
  001ff	48 8b 85 80 00
	00 00		 mov	 rax, QWORD PTR dst_ptr$11[rbp]
  00206	48 83 c0 20	 add	 rax, 32			; 00000020H
  0020a	48 89 85 80 00
	00 00		 mov	 QWORD PTR dst_ptr$11[rbp], rax
  00211	48 8b 45 78	 mov	 rax, QWORD PTR src_ptr$10[rbp]
  00215	48 83 c0 40	 add	 rax, 64			; 00000040H
  00219	48 89 45 78	 mov	 QWORD PTR src_ptr$10[rbp], rax
$LN10@convert_yu:
  0021d	8b 45 70	 mov	 eax, DWORD PTR y_width$8[rbp]
  00220	39 85 88 00 00
	00		 cmp	 DWORD PTR x$12[rbp], eax
  00226	0f 8d 4a 01 00
	00		 jge	 $LN9@convert_yu

; 826  :                 __m256i y0 = _mm256_loadu2_m128i((const __m128i *)(src_ptr + 16), (const __m128i *)(src_ptr +  0));

  0022c	48 8b 45 78	 mov	 rax, QWORD PTR src_ptr$10[rbp]
  00230	48 83 c0 20	 add	 rax, 32			; 00000020H
  00234	f3 0f 6f 00	 movdqu	 xmm0, XMMWORD PTR [rax]
  00238	66 0f 7f 85 00
	01 00 00	 movdqa	 XMMWORD PTR $T16[rbp], xmm0
  00240	48 8b 45 78	 mov	 rax, QWORD PTR src_ptr$10[rbp]
  00244	f3 0f 6f 00	 movdqu	 xmm0, XMMWORD PTR [rax]
  00248	66 0f 7f 85 c0
	00 00 00	 movdqa	 XMMWORD PTR $T14[rbp], xmm0
  00250	c5 f8 10 85 c0
	00 00 00	 vmovups xmm0, XMMWORD PTR $T14[rbp]
  00258	c5 fe 7f 85 e0
	00 00 00	 vmovdqu YMMWORD PTR $T15[rbp], ymm0
  00260	c5 fe 6f 85 e0
	00 00 00	 vmovdqu ymm0, YMMWORD PTR $T15[rbp]
  00268	c4 e3 7d 18 85
	00 01 00 00 01	 vinsertf128 ymm0, ymm0, XMMWORD PTR $T16[rbp], 1
  00272	c5 fe 7f 85 20
	01 00 00	 vmovdqu YMMWORD PTR $T17[rbp], ymm0
  0027a	c5 fe 6f 85 20
	01 00 00	 vmovdqu ymm0, YMMWORD PTR $T17[rbp]
  00282	c5 fe 7f 85 a0
	00 00 00	 vmovdqu YMMWORD PTR y0$13[rbp], ymm0

; 827  :                 __m256i y1 = _mm256_loadu2_m128i((const __m128i *)(src_ptr + 24), (const __m128i *)(src_ptr +  8));

  0028a	48 8b 45 78	 mov	 rax, QWORD PTR src_ptr$10[rbp]
  0028e	48 83 c0 30	 add	 rax, 48			; 00000030H
  00292	f3 0f 6f 00	 movdqu	 xmm0, XMMWORD PTR [rax]
  00296	66 0f 7f 85 a0
	01 00 00	 movdqa	 XMMWORD PTR $T21[rbp], xmm0
  0029e	48 8b 45 78	 mov	 rax, QWORD PTR src_ptr$10[rbp]
  002a2	48 83 c0 10	 add	 rax, 16
  002a6	f3 0f 6f 00	 movdqu	 xmm0, XMMWORD PTR [rax]
  002aa	66 0f 7f 85 60
	01 00 00	 movdqa	 XMMWORD PTR $T19[rbp], xmm0
  002b2	c5 f8 10 85 60
	01 00 00	 vmovups xmm0, XMMWORD PTR $T19[rbp]
  002ba	c5 fe 7f 85 80
	01 00 00	 vmovdqu YMMWORD PTR $T20[rbp], ymm0
  002c2	c5 fe 6f 85 80
	01 00 00	 vmovdqu ymm0, YMMWORD PTR $T20[rbp]
  002ca	c4 e3 7d 18 85
	a0 01 00 00 01	 vinsertf128 ymm0, ymm0, XMMWORD PTR $T21[rbp], 1
  002d4	c5 fe 7f 85 c0
	01 00 00	 vmovdqu YMMWORD PTR $T22[rbp], ymm0
  002dc	c5 fe 6f 85 c0
	01 00 00	 vmovdqu ymm0, YMMWORD PTR $T22[rbp]
  002e4	c5 fe 7f 85 40
	01 00 00	 vmovdqu YMMWORD PTR y1$18[rbp], ymm0

; 828  :                 y0 = _mm256_srli_epi16(y0, in_bit_depth - 8);

  002ec	c5 fe 6f 85 a0
	00 00 00	 vmovdqu ymm0, YMMWORD PTR y0$13[rbp]
  002f4	c5 fd 71 d0 02	 vpsrlw	 ymm0, ymm0, 2
  002f9	c5 fe 7f 85 e0
	01 00 00	 vmovdqu YMMWORD PTR $T23[rbp], ymm0
  00301	c5 fe 6f 85 e0
	01 00 00	 vmovdqu ymm0, YMMWORD PTR $T23[rbp]
  00309	c5 fe 7f 85 a0
	00 00 00	 vmovdqu YMMWORD PTR y0$13[rbp], ymm0

; 829  :                 y1 = _mm256_srli_epi16(y1, in_bit_depth - 8);

  00311	c5 fe 6f 85 40
	01 00 00	 vmovdqu ymm0, YMMWORD PTR y1$18[rbp]
  00319	c5 fd 71 d0 02	 vpsrlw	 ymm0, ymm0, 2
  0031e	c5 fe 7f 85 00
	02 00 00	 vmovdqu YMMWORD PTR $T24[rbp], ymm0
  00326	c5 fe 6f 85 00
	02 00 00	 vmovdqu ymm0, YMMWORD PTR $T24[rbp]
  0032e	c5 fe 7f 85 40
	01 00 00	 vmovdqu YMMWORD PTR y1$18[rbp], ymm0

; 830  :                 y0 = _mm256_packus_epi16(y0, y1);

  00336	c5 fe 6f 85 a0
	00 00 00	 vmovdqu ymm0, YMMWORD PTR y0$13[rbp]
  0033e	c5 fd 67 85 40
	01 00 00	 vpackuswb ymm0, ymm0, YMMWORD PTR y1$18[rbp]
  00346	c5 fe 7f 85 20
	02 00 00	 vmovdqu YMMWORD PTR $T25[rbp], ymm0
  0034e	c5 fe 6f 85 20
	02 00 00	 vmovdqu ymm0, YMMWORD PTR $T25[rbp]
  00356	c5 fe 7f 85 a0
	00 00 00	 vmovdqu YMMWORD PTR y0$13[rbp], ymm0

; 831  :                 _mm256_storeu_si256((__m256i *)dst_ptr, y0);

  0035e	48 8b 85 80 00
	00 00		 mov	 rax, QWORD PTR dst_ptr$11[rbp]
  00365	c5 fe 6f 85 a0
	00 00 00	 vmovdqu ymm0, YMMWORD PTR y0$13[rbp]
  0036d	c5 fe 7f 00	 vmovdqu YMMWORD PTR [rax], ymm0

; 832  :             }

  00371	e9 7a fe ff ff	 jmp	 $LN8@convert_yu
$LN9@convert_yu:

; 833  :         }

  00376	e9 1c fe ff ff	 jmp	 $LN5@convert_yu
$LN6@convert_yu:

; 834  :     }

  0037b	e9 99 fd ff ff	 jmp	 $LN2@convert_yu
$LN3@convert_yu:

; 835  : }

  00380	48 8d 4d d0	 lea	 rcx, QWORD PTR [rbp-48]
  00384	48 8d 15 00 00
	00 00		 lea	 rdx, OFFSET FLAT:??$convert_yuv444_high_to_yuv444_avx2_base@$09@@YAXPEAPEAXPEAPEBXHHHHHHHHPEAH@Z$rtcFrameData
  0038b	e8 00 00 00 00	 call	 _RTC_CheckStackVars
  00390	48 8b 8d 58 02
	00 00		 mov	 rcx, QWORD PTR __$ArrayPad$[rbp]
  00397	48 33 cc	 xor	 rcx, rsp
  0039a	e8 00 00 00 00	 call	 __security_check_cookie
  0039f	48 81 c4 b0 02
	00 00		 add	 rsp, 688		; 000002b0H
  003a6	5f		 pop	 rdi
  003a7	5e		 pop	 rsi
  003a8	5d		 pop	 rbp
  003a9	c3		 ret	 0
??$convert_yuv444_high_to_yuv444_avx2_base@$09@@YAXPEAPEAXPEAPEBXHHHHHHHHPEAH@Z ENDP ; convert_yuv444_high_to_yuv444_avx2_base<10>
_TEXT	ENDS
; Function compile flags: /Odtp /RTCsu
; File D:\work\intel\intel_codec\QSVPipeline\convert_csp_avx2.cpp
_TEXT	SEGMENT
dst$ = 112
src$ = 120
width$ = 128
src_y_pitch_byte$ = 136
src_uv_pitch_byte$ = 144
dst_y_pitch_byte$ = 152
height$ = 160
dst_height$ = 168
thread_id$ = 176
thread_n$ = 184
crop$ = 192
?convert_yuv444_10_to_yuv444_avx2@@YAXPEAPEAXPEAPEBXHHHHHHHHPEAH@Z PROC ; convert_yuv444_10_to_yuv444_avx2

; 850  : void convert_yuv444_10_to_yuv444_avx2(void **dst, const void **src, int width, int src_y_pitch_byte, int src_uv_pitch_byte, int dst_y_pitch_byte, int height, int dst_height, int thread_id, int thread_n, int *crop) {

$LN3:
  00000	44 89 4c 24 20	 mov	 DWORD PTR [rsp+32], r9d
  00005	44 89 44 24 18	 mov	 DWORD PTR [rsp+24], r8d
  0000a	48 89 54 24 10	 mov	 QWORD PTR [rsp+16], rdx
  0000f	48 89 4c 24 08	 mov	 QWORD PTR [rsp+8], rcx
  00014	57		 push	 rdi
  00015	48 83 ec 60	 sub	 rsp, 96			; 00000060H
  00019	48 8b fc	 mov	 rdi, rsp
  0001c	b9 18 00 00 00	 mov	 ecx, 24
  00021	b8 cc cc cc cc	 mov	 eax, -858993460		; ccccccccH
  00026	f3 ab		 rep stosd
  00028	48 8b 4c 24 70	 mov	 rcx, QWORD PTR [rsp+112]

; 851  :     convert_yuv444_high_to_yuv444_avx2_base<10>(dst, src, width, src_y_pitch_byte, src_uv_pitch_byte, dst_y_pitch_byte, height, dst_height, thread_id, thread_n, crop);

  0002d	48 8b 84 24 c0
	00 00 00	 mov	 rax, QWORD PTR crop$[rsp]
  00035	48 89 44 24 50	 mov	 QWORD PTR [rsp+80], rax
  0003a	8b 84 24 b8 00
	00 00		 mov	 eax, DWORD PTR thread_n$[rsp]
  00041	89 44 24 48	 mov	 DWORD PTR [rsp+72], eax
  00045	8b 84 24 b0 00
	00 00		 mov	 eax, DWORD PTR thread_id$[rsp]
  0004c	89 44 24 40	 mov	 DWORD PTR [rsp+64], eax
  00050	8b 84 24 a8 00
	00 00		 mov	 eax, DWORD PTR dst_height$[rsp]
  00057	89 44 24 38	 mov	 DWORD PTR [rsp+56], eax
  0005b	8b 84 24 a0 00
	00 00		 mov	 eax, DWORD PTR height$[rsp]
  00062	89 44 24 30	 mov	 DWORD PTR [rsp+48], eax
  00066	8b 84 24 98 00
	00 00		 mov	 eax, DWORD PTR dst_y_pitch_byte$[rsp]
  0006d	89 44 24 28	 mov	 DWORD PTR [rsp+40], eax
  00071	8b 84 24 90 00
	00 00		 mov	 eax, DWORD PTR src_uv_pitch_byte$[rsp]
  00078	89 44 24 20	 mov	 DWORD PTR [rsp+32], eax
  0007c	44 8b 8c 24 88
	00 00 00	 mov	 r9d, DWORD PTR src_y_pitch_byte$[rsp]
  00084	44 8b 84 24 80
	00 00 00	 mov	 r8d, DWORD PTR width$[rsp]
  0008c	48 8b 54 24 78	 mov	 rdx, QWORD PTR src$[rsp]
  00091	48 8b 4c 24 70	 mov	 rcx, QWORD PTR dst$[rsp]
  00096	e8 00 00 00 00	 call	 ??$convert_yuv444_high_to_yuv444_avx2_base@$09@@YAXPEAPEAXPEAPEBXHHHHHHHHPEAH@Z ; convert_yuv444_high_to_yuv444_avx2_base<10>

; 852  : }

  0009b	48 83 c4 60	 add	 rsp, 96			; 00000060H
  0009f	5f		 pop	 rdi
  000a0	c3		 ret	 0
?convert_yuv444_10_to_yuv444_avx2@@YAXPEAPEAXPEAPEBXHHHHHHHHPEAH@Z ENDP ; convert_yuv444_10_to_yuv444_avx2
_TEXT	ENDS
; Function compile flags: /Odtp /RTCsu
; File D:\work\intel\intel_codec\QSVPipeline\convert_csp_avx2.cpp
_TEXT	SEGMENT
crop_left$ = 0
crop_up$ = 4
crop_right$ = 8
crop_bottom$ = 12
src_y_pitch$ = 16
y_range$ = 40
$T4 = 72
i$5 = 88
srcYLine$6 = 96
dstLine$7 = 104
y_width$8 = 112
y$9 = 116
src_ptr$10 = 120
dst_ptr$11 = 128
x$12 = 136
y0$13 = 160
$T14 = 192
$T15 = 224
$T16 = 256
$T17 = 288
y1$18 = 320
$T19 = 352
$T20 = 384
$T21 = 416
$T22 = 448
$T23 = 480
$T24 = 512
$T25 = 544
$T26 = 584
__$ArrayPad$ = 600
dst$ = 720
src$ = 728
width$ = 736
src_y_pitch_byte$ = 744
src_uv_pitch_byte$ = 752
dst_y_pitch_byte$ = 760
height$ = 768
dst_height$ = 776
thread_id$ = 784
thread_n$ = 792
crop$ = 800
??$convert_yuv444_high_to_yuv444_avx2_base@$0M@@@YAXPEAPEAXPEAPEBXHHHHHHHHPEAH@Z PROC ; convert_yuv444_high_to_yuv444_avx2_base<12>

; 810  : static void __forceinline convert_yuv444_high_to_yuv444_avx2_base(void **dst, const void **src, int width, int src_y_pitch_byte, int src_uv_pitch_byte, int dst_y_pitch_byte, int height, int dst_height, int thread_id, int thread_n, int *crop) {

  00000	44 89 4c 24 20	 mov	 DWORD PTR [rsp+32], r9d
  00005	44 89 44 24 18	 mov	 DWORD PTR [rsp+24], r8d
  0000a	48 89 54 24 10	 mov	 QWORD PTR [rsp+16], rdx
  0000f	48 89 4c 24 08	 mov	 QWORD PTR [rsp+8], rcx
  00014	55		 push	 rbp
  00015	56		 push	 rsi
  00016	57		 push	 rdi
  00017	48 81 ec b0 02
	00 00		 sub	 rsp, 688		; 000002b0H
  0001e	48 8d 6c 24 50	 lea	 rbp, QWORD PTR [rsp+80]
  00023	48 83 e5 e0	 and	 rbp, -32		; ffffffffffffffe0H
  00027	48 8b fc	 mov	 rdi, rsp
  0002a	b9 ac 00 00 00	 mov	 ecx, 172		; 000000acH
  0002f	b8 cc cc cc cc	 mov	 eax, -858993460		; ccccccccH
  00034	f3 ab		 rep stosd
  00036	48 8b 8c 24 d0
	02 00 00	 mov	 rcx, QWORD PTR [rsp+720]
  0003e	48 8b 05 00 00
	00 00		 mov	 rax, QWORD PTR __security_cookie
  00045	48 33 c4	 xor	 rax, rsp
  00048	48 89 85 58 02
	00 00		 mov	 QWORD PTR __$ArrayPad$[rbp], rax

; 811  :     static_assert(8 < in_bit_depth && in_bit_depth <= 16, "in_bit_depth must be 9-16.");
; 812  :     const int crop_left   = crop[0];

  0004f	b8 04 00 00 00	 mov	 eax, 4
  00054	48 6b c0 00	 imul	 rax, rax, 0
  00058	48 8b 8c 24 20
	03 00 00	 mov	 rcx, QWORD PTR crop$[rsp]
  00060	8b 04 01	 mov	 eax, DWORD PTR [rcx+rax]
  00063	89 45 00	 mov	 DWORD PTR crop_left$[rbp], eax

; 813  :     const int crop_up     = crop[1];

  00066	b8 04 00 00 00	 mov	 eax, 4
  0006b	48 6b c0 01	 imul	 rax, rax, 1
  0006f	48 8b 8c 24 20
	03 00 00	 mov	 rcx, QWORD PTR crop$[rsp]
  00077	8b 04 01	 mov	 eax, DWORD PTR [rcx+rax]
  0007a	89 45 04	 mov	 DWORD PTR crop_up$[rbp], eax

; 814  :     const int crop_right  = crop[2];

  0007d	b8 04 00 00 00	 mov	 eax, 4
  00082	48 6b c0 02	 imul	 rax, rax, 2
  00086	48 8b 8c 24 20
	03 00 00	 mov	 rcx, QWORD PTR crop$[rsp]
  0008e	8b 04 01	 mov	 eax, DWORD PTR [rcx+rax]
  00091	89 45 08	 mov	 DWORD PTR crop_right$[rbp], eax

; 815  :     const int crop_bottom = crop[3];

  00094	b8 04 00 00 00	 mov	 eax, 4
  00099	48 6b c0 03	 imul	 rax, rax, 3
  0009d	48 8b 8c 24 20
	03 00 00	 mov	 rcx, QWORD PTR crop$[rsp]
  000a5	8b 04 01	 mov	 eax, DWORD PTR [rcx+rax]
  000a8	89 45 0c	 mov	 DWORD PTR crop_bottom$[rbp], eax

; 816  :     const int src_y_pitch = src_y_pitch_byte >> 1;

  000ab	8b 84 24 e8 02
	00 00		 mov	 eax, DWORD PTR src_y_pitch_byte$[rsp]
  000b2	d1 f8		 sar	 eax, 1
  000b4	89 45 10	 mov	 DWORD PTR src_y_pitch$[rbp], eax

; 817  :     const auto y_range = thread_y_range(crop_up, height - crop_bottom, thread_id, thread_n);

  000b7	8b 45 0c	 mov	 eax, DWORD PTR crop_bottom$[rbp]
  000ba	8b 8c 24 00 03
	00 00		 mov	 ecx, DWORD PTR height$[rsp]
  000c1	2b c8		 sub	 ecx, eax
  000c3	8b c1		 mov	 eax, ecx
  000c5	8b 8c 24 18 03
	00 00		 mov	 ecx, DWORD PTR thread_n$[rsp]
  000cc	89 4c 24 20	 mov	 DWORD PTR [rsp+32], ecx
  000d0	44 8b 8c 24 10
	03 00 00	 mov	 r9d, DWORD PTR thread_id$[rsp]
  000d8	44 8b c0	 mov	 r8d, eax
  000db	8b 55 04	 mov	 edx, DWORD PTR crop_up$[rbp]
  000de	48 8d 8d 48 02
	00 00		 lea	 rcx, QWORD PTR $T26[rbp]
  000e5	e8 00 00 00 00	 call	 ?thread_y_range@@YA?AUTHREAD_Y_RANGE@@HHHH@Z ; thread_y_range
  000ea	48 8d 4d 48	 lea	 rcx, QWORD PTR $T4[rbp]
  000ee	48 8b f9	 mov	 rdi, rcx
  000f1	48 8b f0	 mov	 rsi, rax
  000f4	b9 0c 00 00 00	 mov	 ecx, 12
  000f9	f3 a4		 rep movsb
  000fb	48 8d 45 28	 lea	 rax, QWORD PTR y_range$[rbp]
