; Listing generated by Microsoft (R) Optimizing Compiler Version 19.23.28106.4 

include listing.inc

INCLUDELIB MSVCRTD
INCLUDELIB OLDNAMES

CONST	SEGMENT
?Array_INTERLACE_WEIGHT@@3QAY0CA@$$CBEA DB 01H		; Array_INTERLACE_WEIGHT
	DB	03H
	DB	01H
	DB	03H
	DB	01H
	DB	03H
	DB	01H
	DB	03H
	DB	01H
	DB	03H
	DB	01H
	DB	03H
	DB	01H
	DB	03H
	DB	01H
	DB	03H
	DB	01H
	DB	03H
	DB	01H
	DB	03H
	DB	01H
	DB	03H
	DB	01H
	DB	03H
	DB	01H
	DB	03H
	DB	01H
	DB	03H
	DB	01H
	DB	03H
	DB	01H
	DB	03H
	DB	03H
	DB	01H
	DB	03H
	DB	01H
	DB	03H
	DB	01H
	DB	03H
	DB	01H
	DB	03H
	DB	01H
	DB	03H
	DB	01H
	DB	03H
	DB	01H
	DB	03H
	DB	01H
	DB	03H
	DB	01H
	DB	03H
	DB	01H
	DB	03H
	DB	01H
	DB	03H
	DB	01H
	DB	03H
	DB	01H
	DB	03H
	DB	01H
	DB	03H
	DB	01H
	DB	03H
	DB	01H
$SG6775	DB	'Invalid', 00H
$SG6776	DB	'nv12', 00H
	ORG $+3
$SG6777	DB	'yv12', 00H
	ORG $+3
$SG6778	DB	'yuy2', 00H
	ORG $+3
$SG6779	DB	'yuv422', 00H
	ORG $+1
$SG6780	DB	'nv16', 00H
	ORG $+3
$SG6781	DB	'yuv444', 00H
	ORG $+1
$SG6782	DB	'yv12(9bit)', 00H
	ORG $+1
$SG6807	DB	'rgb', 00H
$SG6783	DB	'yv12(10bit)', 00H
$SG6809	DB	'gbr', 00H
$SG6784	DB	'yv12(12bit)', 00H
$SG6812	DB	'y8', 00H
	ORG $+1
$SG6785	DB	'yv12(14bit)', 00H
	ORG $+4
$SG6786	DB	'yv12(16bit)', 00H
$SG6787	DB	'p010', 00H
	ORG $+7
$SG6788	DB	'yuv422(9bit)', 00H
	ORG $+3
$SG6789	DB	'yuv422(10bit)', 00H
	ORG $+2
$SG6790	DB	'yuv422(12bit)', 00H
	ORG $+2
$SG6791	DB	'yuv422(14bit)', 00H
	ORG $+2
$SG6792	DB	'yuv422(16bit)', 00H
	ORG $+2
$SG6793	DB	'p210', 00H
	ORG $+3
$SG6794	DB	'yuv444(9bit)', 00H
	ORG $+3
$SG6795	DB	'yuv444(10bit)', 00H
	ORG $+2
$SG6796	DB	'yuv444(12bit)', 00H
	ORG $+2
$SG6797	DB	'yuv444(14bit)', 00H
	ORG $+2
$SG6798	DB	'yuv444(16bit)', 00H
	ORG $+2
$SG6799	DB	'yuva444', 00H
$SG6800	DB	'yuva444(16bit)', 00H
	ORG $+1
$SG6801	DB	'rgb24r', 00H
	ORG $+1
$SG6802	DB	'rgb32r', 00H
	ORG $+1
$SG6803	DB	'rgb24', 00H
	ORG $+2
$SG6804	DB	'rgb32', 00H
	ORG $+2
$SG6805	DB	'bgr24', 00H
	ORG $+2
$SG6806	DB	'bgr32', 00H
	ORG $+2
$SG6808	DB	'rgba', 00H
	ORG $+3
$SG6810	DB	'gbra', 00H
	ORG $+3
$SG6811	DB	'yc48', 00H
	ORG $+3
$SG6813	DB	'yc16', 00H
	ORG $+3
?Array_Y_L_MA_16@@3QBFB DW 0dbH				; Array_Y_L_MA_16
	DW	01H
	DW	0dbH
	DW	01H
	DW	0dbH
	DW	01H
	DW	0dbH
	DW	01H
	DW	0dbH
	DW	01H
	DW	0dbH
	DW	01H
	DW	0dbH
	DW	01H
	DW	0dbH
	DW	01H
?Array_UV_L_MA_16_420P@@3QBFB DW 0eH			; Array_UV_L_MA_16_420P
	DW	00H
	DW	0eH
	DW	00H
	DW	0eH
	DW	00H
	DW	0eH
	DW	00H
	DW	0eH
	DW	00H
	DW	0eH
	DW	00H
	DW	0eH
	DW	00H
	DW	0eH
	DW	00H
?Array_UV_L_MA_16_420I@@3QAY0BA@$$CBFA DW 02aH		; Array_UV_L_MA_16_420I
	DW	00H
	DW	02aH
	DW	00H
	DW	02aH
	DW	00H
	DW	02aH
	DW	00H
	DW	02aH
	DW	00H
	DW	02aH
	DW	00H
	DW	02aH
	DW	00H
	DW	02aH
	DW	00H
	DW	0eH
	DW	00H
	DW	0eH
	DW	00H
	DW	0eH
	DW	00H
	DW	0eH
	DW	00H
	DW	0eH
	DW	00H
	DW	0eH
	DW	00H
	DW	0eH
	DW	00H
	DW	0eH
	DW	00H
?Array_UV_L_MA_16_444@@3QBFB DW 0eH			; Array_UV_L_MA_16_444
	DW	00H
	DW	0eH
	DW	00H
	DW	0eH
	DW	00H
	DW	0eH
	DW	00H
	DW	0eH
	DW	00H
	DW	0eH
	DW	00H
	DW	0eH
	DW	00H
	DW	0eH
	DW	00H
?Array_MASK_YCP2Y@@3QAY0BA@$$CBFA DW 00H		; Array_MASK_YCP2Y
	DW	0ffffH
	DW	00H
	DW	00H
	DW	0ffffH
	DW	00H
	DW	00H
	DW	0ffffH
	DW	00H
	DW	0ffffH
	DW	00H
	DW	00H
	DW	0ffffH
	DW	00H
	DW	00H
	DW	0ffffH
	DW	00H
	DW	00H
	DW	0ffffH
	DW	00H
	DW	00H
	DW	0ffffH
	DW	00H
	DW	00H
	DW	00H
	DW	00H
	DW	0ffffH
	DW	00H
	DW	00H
	DW	0ffffH
	DW	00H
	DW	00H
?Array_MASK_YCP2UV@@3QAY0BA@$$CBFA DW 0ffffH		; Array_MASK_YCP2UV
	DW	00H
	DW	00H
	DW	00H
	DW	00H
	DW	0ffffH
	DW	0ffffH
	DW	00H
	DW	0ffffH
	DW	00H
	DW	00H
	DW	00H
	DW	00H
	DW	0ffffH
	DW	0ffffH
	DW	00H
	DW	00H
	DW	00H
	DW	00H
	DW	0ffffH
	DW	0ffffH
	DW	00H
	DW	00H
	DW	00H
	DW	00H
	DW	00H
	DW	00H
	DW	0ffffH
	DW	0ffffH
	DW	00H
	DW	00H
	DW	00H
?Array_SUFFLE_YCP_Y@@3QBEB DB 00H			; Array_SUFFLE_YCP_Y
	DB	01H
	DB	06H
	DB	07H
	DB	0cH
	DB	0dH
	DB	02H
	DB	03H
	DB	08H
	DB	09H
	DB	0eH
	DB	0fH
	DB	04H
	DB	05H
	DB	0aH
	DB	0bH
	DB	00H
	DB	01H
	DB	06H
	DB	07H
	DB	0cH
	DB	0dH
	DB	02H
	DB	03H
	DB	08H
	DB	09H
	DB	0eH
	DB	0fH
	DB	04H
	DB	05H
	DB	0aH
	DB	0bH
CONST	ENDS
PUBLIC	?convert_yc48_to_p010_ssse3@@YAXPEAPEAXPEAPEBXHHHHHHHHPEAH@Z ; convert_yc48_to_p010_ssse3
PUBLIC	?convert_yc48_to_p010_i_ssse3@@YAXPEAPEAXPEAPEBXHHHHHHHHPEAH@Z ; convert_yc48_to_p010_i_ssse3
PUBLIC	?convert_yuy2_to_nv12_i_ssse3@@YAXPEAPEAXPEAPEBXHHHHHHHHPEAH@Z ; convert_yuy2_to_nv12_i_ssse3
PUBLIC	?convert_bgr24_to_rgb24_ssse3@@YAXPEAPEAXPEAPEBXHHHHHHHHPEAH@Z ; convert_bgr24_to_rgb24_ssse3
PUBLIC	??$convert_rgb24_to_rgb24_simd@$0BO@@@YAXPEAPEAXPEAPEBXHHHHHHHHPEAH@Z ; convert_rgb24_to_rgb24_simd<30>
PUBLIC	?convert_bgr32_to_rgb32_ssse3@@YAXPEAPEAXPEAPEBXHHHHHHHHPEAH@Z ; convert_bgr32_to_rgb32_ssse3
PUBLIC	??$convert_rgb32_to_rgb32_simd@$0BP@@@YAXPEAPEAXPEAPEBXHHHHHHHHPEAH@Z ; convert_rgb32_to_rgb32_simd<31>
PUBLIC	?convert_rgb24_to_rgb32_ssse3@@YAXPEAPEAXPEAPEBXHHHHHHHHPEAH@Z ; convert_rgb24_to_rgb32_ssse3
PUBLIC	?convert_rgb24r_to_rgb32_ssse3@@YAXPEAPEAXPEAPEBXHHHHHHHHPEAH@Z ; convert_rgb24r_to_rgb32_ssse3
PUBLIC	?convert_gbr_to_rgb24_ssse3@@YAXPEAPEAXPEAPEBXHHHHHHHHPEAH@Z ; convert_gbr_to_rgb24_ssse3
PUBLIC	?convert_rgb24_to_rgb_ssse3@@YAXPEAPEAXPEAPEBXHHHHHHHHPEAH@Z ; convert_rgb24_to_rgb_ssse3
PUBLIC	?convert_bgr24_to_rgb_ssse3@@YAXPEAPEAXPEAPEBXHHHHHHHHPEAH@Z ; convert_bgr24_to_rgb_ssse3
PUBLIC	?convert_rgb24r_to_rgb_ssse3@@YAXPEAPEAXPEAPEBXHHHHHHHHPEAH@Z ; convert_rgb24r_to_rgb_ssse3
PUBLIC	?convert_yc48_to_yuv444_16bit_ssse3@@YAXPEAPEAXPEAPEBXHHHHHHHHPEAH@Z ; convert_yc48_to_yuv444_16bit_ssse3
PUBLIC	__xmm@00001000000010000000100000001000
PUBLIC	__xmm@00010001000100010001000100010001
PUBLIC	__xmm@00020002000200020002000200020002
PUBLIC	__xmm@08000800080008000800080008000800
PUBLIC	__xmm@10001000100010001000100010001000
PUBLIC	__xmm@ffffffffffffffffffffffffffffffff
EXTRN	_RTC_CheckStackVars:PROC
EXTRN	_RTC_InitBase:PROC
EXTRN	_RTC_Shutdown:PROC
EXTRN	__GSHandlerCheck:PROC
EXTRN	__security_check_cookie:PROC
EXTRN	__security_cookie:QWORD
pdata	SEGMENT
$pdata$?thread_y_range@@YA?AUTHREAD_Y_RANGE@@HHHH@Z DD imagerel ?thread_y_range@@YA?AUTHREAD_Y_RANGE@@HHHH@Z
	DD	imagerel ?thread_y_range@@YA?AUTHREAD_Y_RANGE@@HHHH@Z+284
	DD	imagerel $unwind$?thread_y_range@@YA?AUTHREAD_Y_RANGE@@HHHH@Z
$pdata$?memcpy_sse@@YAXPEAEPEBEH@Z DD imagerel ?memcpy_sse@@YAXPEAEPEBEH@Z
	DD	imagerel ?memcpy_sse@@YAXPEAEPEBEH@Z+872
	DD	imagerel $unwind$?memcpy_sse@@YAXPEAEPEBEH@Z
$pdata$?select_by_mask@@YA?AT__m128i@@T1@00@Z DD imagerel ?select_by_mask@@YA?AT__m128i@@T1@00@Z
	DD	imagerel ?select_by_mask@@YA?AT__m128i@@T1@00@Z+118
	DD	imagerel $unwind$?select_by_mask@@YA?AT__m128i@@T1@00@Z
$pdata$?_mm_packus_epi32_simd@@YA?AT__m128i@@T1@0@Z DD imagerel ?_mm_packus_epi32_simd@@YA?AT__m128i@@T1@0@Z
	DD	imagerel ?_mm_packus_epi32_simd@@YA?AT__m128i@@T1@0@Z+308
	DD	imagerel $unwind$?_mm_packus_epi32_simd@@YA?AT__m128i@@T1@0@Z
$pdata$?separate_low_up@@YAXAEAT__m128i@@0@Z DD imagerel ?separate_low_up@@YAXAEAT__m128i@@0@Z
	DD	imagerel ?separate_low_up@@YAXAEAT__m128i@@0@Z+383
	DD	imagerel $unwind$?separate_low_up@@YAXAEAT__m128i@@0@Z
$pdata$?yuv422_to_420_i_interpolate@@YA?AT__m128i@@T1@0H@Z DD imagerel ?yuv422_to_420_i_interpolate@@YA?AT__m128i@@T1@0H@Z
	DD	imagerel ?yuv422_to_420_i_interpolate@@YA?AT__m128i@@T1@0H@Z+501
	DD	imagerel $unwind$?yuv422_to_420_i_interpolate@@YA?AT__m128i@@T1@0H@Z
$pdata$?convert_yuy2_to_nv12_i_simd@@YAXPEAPEAXPEAPEBXHHHHHHHHPEAH@Z DD imagerel ?convert_yuy2_to_nv12_i_simd@@YAXPEAPEAXPEAPEBXHHHHHHHHPEAH@Z
	DD	imagerel ?convert_yuy2_to_nv12_i_simd@@YAXPEAPEAXPEAPEBXHHHHHHHHPEAH@Z+1300
	DD	imagerel $unwind$?convert_yuy2_to_nv12_i_simd@@YAXPEAPEAXPEAPEBXHHHHHHHHPEAH@Z
$pdata$?convert_rgb24_to_rgb32_simd@@YAXPEAPEAXPEAPEBXHHHHHHHHPEAH@Z DD imagerel ?convert_rgb24_to_rgb32_simd@@YAXPEAPEAXPEAPEBXHHHHHHHHPEAH@Z
	DD	imagerel ?convert_rgb24_to_rgb32_simd@@YAXPEAPEAXPEAPEBXHHHHHHHHPEAH@Z+1509
	DD	imagerel $unwind$?convert_rgb24_to_rgb32_simd@@YAXPEAPEAXPEAPEBXHHHHHHHHPEAH@Z
$pdata$?convert_rgb24r_to_rgb32_simd@@YAXPEAPEAXPEAPEBXHHHHHHHHPEAH@Z DD imagerel ?convert_rgb24r_to_rgb32_simd@@YAXPEAPEAXPEAPEBXHHHHHHHHPEAH@Z
	DD	imagerel ?convert_rgb24r_to_rgb32_simd@@YAXPEAPEAXPEAPEBXHHHHHHHHPEAH@Z+1521
	DD	imagerel $unwind$?convert_rgb24r_to_rgb32_simd@@YAXPEAPEAXPEAPEBXHHHHHHHHPEAH@Z
$pdata$?gather_y_uv_from_yc48@@YAXAEAT__m128i@@0T1@@Z DD imagerel ?gather_y_uv_from_yc48@@YAXAEAT__m128i@@0T1@@Z
	DD	imagerel ?gather_y_uv_from_yc48@@YAXAEAT__m128i@@0T1@@Z+789
	DD	imagerel $unwind$?gather_y_uv_from_yc48@@YAXAEAT__m128i@@0T1@@Z
$pdata$?convert_y_range_from_yc48@@YA?AT__m128i@@T1@AEBT1@H11@Z DD imagerel ?convert_y_range_from_yc48@@YA?AT__m128i@@T1@AEBT1@H11@Z
	DD	imagerel ?convert_y_range_from_yc48@@YA?AT__m128i@@T1@AEBT1@H11@Z+535
	DD	imagerel $unwind$?convert_y_range_from_yc48@@YA?AT__m128i@@T1@AEBT1@H11@Z
$pdata$?convert_uv_range_after_adding_offset@@YA?AT__m128i@@T1@AEBT1@H11@Z DD imagerel ?convert_uv_range_after_adding_offset@@YA?AT__m128i@@T1@AEBT1@H11@Z
	DD	imagerel ?convert_uv_range_after_adding_offset@@YA?AT__m128i@@T1@AEBT1@H11@Z+535
	DD	imagerel $unwind$?convert_uv_range_after_adding_offset@@YA?AT__m128i@@T1@AEBT1@H11@Z
$pdata$?convert_uv_range_from_yc48@@YA?AT__m128i@@T1@AEBT1@1H01@Z DD imagerel ?convert_uv_range_from_yc48@@YA?AT__m128i@@T1@AEBT1@1H01@Z
	DD	imagerel ?convert_uv_range_from_yc48@@YA?AT__m128i@@T1@AEBT1@1H01@Z+179
	DD	imagerel $unwind$?convert_uv_range_from_yc48@@YA?AT__m128i@@T1@AEBT1@1H01@Z
$pdata$?convert_uv_range_from_yc48_yuv420p@@YA?AT__m128i@@T1@0AEBT1@1H11@Z DD imagerel ?convert_uv_range_from_yc48_yuv420p@@YA?AT__m128i@@T1@0AEBT1@1H11@Z
	DD	imagerel ?convert_uv_range_from_yc48_yuv420p@@YA?AT__m128i@@T1@0AEBT1@1H11@Z+233
	DD	imagerel $unwind$?convert_uv_range_from_yc48_yuv420p@@YA?AT__m128i@@T1@0AEBT1@1H11@Z
$pdata$?convert_uv_range_from_yc48_420i@@YA?AT__m128i@@T1@0AEBT1@11H11@Z DD imagerel ?convert_uv_range_from_yc48_420i@@YA?AT__m128i@@T1@0AEBT1@11H11@Z
	DD	imagerel ?convert_uv_range_from_yc48_420i@@YA?AT__m128i@@T1@0AEBT1@11H11@Z+901
	DD	imagerel $unwind$?convert_uv_range_from_yc48_420i@@YA?AT__m128i@@T1@0AEBT1@11H11@Z
$pdata$?gather_y_u_v_from_yc48@@YAXAEAT__m128i@@00@Z DD imagerel ?gather_y_u_v_from_yc48@@YAXAEAT__m128i@@00@Z
	DD	imagerel ?gather_y_u_v_from_yc48@@YAXAEAT__m128i@@00@Z+1715
	DD	imagerel $unwind$?gather_y_u_v_from_yc48@@YAXAEAT__m128i@@00@Z
$pdata$?convert_yc48_to_p010_ssse3@@YAXPEAPEAXPEAPEBXHHHHHHHHPEAH@Z DD imagerel $LN3
	DD	imagerel $LN3+161
	DD	imagerel $unwind$?convert_yc48_to_p010_ssse3@@YAXPEAPEAXPEAPEBXHHHHHHHHPEAH@Z
$pdata$??$convert_yc48_to_p010_simd@$0A@@@YAXPEAPEAXPEAPEBXHHHHHHHHPEAH@Z DD imagerel ??$convert_yc48_to_p010_simd@$0A@@@YAXPEAPEAXPEAPEBXHHHHHHHHPEAH@Z
	DD	imagerel ??$convert_yc48_to_p010_simd@$0A@@@YAXPEAPEAXPEAPEBXHHHHHHHHPEAH@Z+1879
	DD	imagerel $unwind$??$convert_yc48_to_p010_simd@$0A@@@YAXPEAPEAXPEAPEBXHHHHHHHHPEAH@Z
$pdata$?convert_yc48_to_p010_i_ssse3@@YAXPEAPEAXPEAPEBXHHHHHHHHPEAH@Z DD imagerel $LN3
	DD	imagerel $LN3+161
	DD	imagerel $unwind$?convert_yc48_to_p010_i_ssse3@@YAXPEAPEAXPEAPEBXHHHHHHHHPEAH@Z
$pdata$??$convert_yc48_to_p010_i_simd@$0A@@@YAXPEAPEAXPEAPEBXHHHHHHHHPEAH@Z DD imagerel ??$convert_yc48_to_p010_i_simd@$0A@@@YAXPEAPEAXPEAPEBXHHHHHHHHPEAH@Z
	DD	imagerel ??$convert_yc48_to_p010_i_simd@$0A@@@YAXPEAPEAXPEAPEBXHHHHHHHHPEAH@Z+2185
	DD	imagerel $unwind$??$convert_yc48_to_p010_i_simd@$0A@@@YAXPEAPEAXPEAPEBXHHHHHHHHPEAH@Z
$pdata$?convert_yuy2_to_nv12_i_ssse3@@YAXPEAPEAXPEAPEBXHHHHHHHHPEAH@Z DD imagerel $LN3
	DD	imagerel $LN3+161
	DD	imagerel $unwind$?convert_yuy2_to_nv12_i_ssse3@@YAXPEAPEAXPEAPEBXHHHHHHHHPEAH@Z
$pdata$?convert_bgr24_to_rgb24_ssse3@@YAXPEAPEAXPEAPEBXHHHHHHHHPEAH@Z DD imagerel $LN3
	DD	imagerel $LN3+161
	DD	imagerel $unwind$?convert_bgr24_to_rgb24_ssse3@@YAXPEAPEAXPEAPEBXHHHHHHHHPEAH@Z
pdata	ENDS
;	COMDAT pdata
pdata	SEGMENT
$pdata$??$convert_rgb24_to_rgb24_simd@$0BO@@@YAXPEAPEAXPEAPEBXHHHHHHHHPEAH@Z DD imagerel $LN18
	DD	imagerel $LN18+3441
	DD	imagerel $unwind$??$convert_rgb24_to_rgb24_simd@$0BO@@@YAXPEAPEAXPEAPEBXHHHHHHHHPEAH@Z
pdata	ENDS
pdata	SEGMENT
$pdata$?convert_bgr32_to_rgb32_ssse3@@YAXPEAPEAXPEAPEBXHHHHHHHHPEAH@Z DD imagerel $LN3
	DD	imagerel $LN3+161
	DD	imagerel $unwind$?convert_bgr32_to_rgb32_ssse3@@YAXPEAPEAXPEAPEBXHHHHHHHHPEAH@Z
pdata	ENDS
;	COMDAT pdata
pdata	SEGMENT
$pdata$??$convert_rgb32_to_rgb32_simd@$0BP@@@YAXPEAPEAXPEAPEBXHHHHHHHHPEAH@Z DD imagerel $LN18
	DD	imagerel $LN18+1481
	DD	imagerel $unwind$??$convert_rgb32_to_rgb32_simd@$0BP@@@YAXPEAPEAXPEAPEBXHHHHHHHHPEAH@Z
pdata	ENDS
pdata	SEGMENT
$pdata$?convert_rgb24_to_rgb32_ssse3@@YAXPEAPEAXPEAPEBXHHHHHHHHPEAH@Z DD imagerel $LN3
	DD	imagerel $LN3+161
	DD	imagerel $unwind$?convert_rgb24_to_rgb32_ssse3@@YAXPEAPEAXPEAPEBXHHHHHHHHPEAH@Z
$pdata$?convert_rgb24r_to_rgb32_ssse3@@YAXPEAPEAXPEAPEBXHHHHHHHHPEAH@Z DD imagerel $LN3
	DD	imagerel $LN3+161
	DD	imagerel $unwind$?convert_rgb24r_to_rgb32_ssse3@@YAXPEAPEAXPEAPEBXHHHHHHHHPEAH@Z
$pdata$?convert_gbr_to_rgb24_ssse3@@YAXPEAPEAXPEAPEBXHHHHHHHHPEAH@Z DD imagerel $LN3
	DD	imagerel $LN3+161
	DD	imagerel $unwind$?convert_gbr_to_rgb24_ssse3@@YAXPEAPEAXPEAPEBXHHHHHHHHPEAH@Z
$pdata$??$convert_rgb_to_rgb24_simd@$0PPACAAAB@@@YAXPEAPEAXPEAPEBXHHHHHHHHPEAH@Z DD imagerel ??$convert_rgb_to_rgb24_simd@$0PPACAAAB@@@YAXPEAPEAXPEAPEBXHHHHHHHHPEAH@Z
	DD	imagerel ??$convert_rgb_to_rgb24_simd@$0PPACAAAB@@@YAXPEAPEAXPEAPEBXHHHHHHHHPEAH@Z+3474
	DD	imagerel $unwind$??$convert_rgb_to_rgb24_simd@$0PPACAAAB@@@YAXPEAPEAXPEAPEBXHHHHHHHHPEAH@Z
$pdata$?convert_rgb24_to_rgb_ssse3@@YAXPEAPEAXPEAPEBXHHHHHHHHPEAH@Z DD imagerel $LN3
	DD	imagerel $LN3+161
	DD	imagerel $unwind$?convert_rgb24_to_rgb_ssse3@@YAXPEAPEAXPEAPEBXHHHHHHHHPEAH@Z
$pdata$??$convert_rgb24_to_rgb_simd@$0PPAAABAC@$0A@@@YAXPEAPEAXPEAPEBXHHHHHHHHPEAH@Z DD imagerel ??$convert_rgb24_to_rgb_simd@$0PPAAABAC@$0A@@@YAXPEAPEAXPEAPEBXHHHHHHHHPEAH@Z
	DD	imagerel ??$convert_rgb24_to_rgb_simd@$0PPAAABAC@$0A@@@YAXPEAPEAXPEAPEBXHHHHHHHHPEAH@Z+3567
	DD	imagerel $unwind$??$convert_rgb24_to_rgb_simd@$0PPAAABAC@$0A@@@YAXPEAPEAXPEAPEBXHHHHHHHHPEAH@Z
$pdata$?convert_bgr24_to_rgb_ssse3@@YAXPEAPEAXPEAPEBXHHHHHHHHPEAH@Z DD imagerel $LN3
	DD	imagerel $LN3+161
	DD	imagerel $unwind$?convert_bgr24_to_rgb_ssse3@@YAXPEAPEAXPEAPEBXHHHHHHHHPEAH@Z
$pdata$??$convert_rgb24_to_rgb_simd@$0PPACABAA@$0A@@@YAXPEAPEAXPEAPEBXHHHHHHHHPEAH@Z DD imagerel ??$convert_rgb24_to_rgb_simd@$0PPACABAA@$0A@@@YAXPEAPEAXPEAPEBXHHHHHHHHPEAH@Z
	DD	imagerel ??$convert_rgb24_to_rgb_simd@$0PPACABAA@$0A@@@YAXPEAPEAXPEAPEBXHHHHHHHHPEAH@Z+3567
	DD	imagerel $unwind$??$convert_rgb24_to_rgb_simd@$0PPACABAA@$0A@@@YAXPEAPEAXPEAPEBXHHHHHHHHPEAH@Z
$pdata$?convert_rgb24r_to_rgb_ssse3@@YAXPEAPEAXPEAPEBXHHHHHHHHPEAH@Z DD imagerel $LN3
	DD	imagerel $LN3+161
	DD	imagerel $unwind$?convert_rgb24r_to_rgb_ssse3@@YAXPEAPEAXPEAPEBXHHHHHHHHPEAH@Z
$pdata$??$convert_rgb24_to_rgb_simd@$0PPAAABAC@$00@@YAXPEAPEAXPEAPEBXHHHHHHHHPEAH@Z DD imagerel ??$convert_rgb24_to_rgb_simd@$0PPAAABAC@$00@@YAXPEAPEAXPEAPEBXHHHHHHHHPEAH@Z
	DD	imagerel ??$convert_rgb24_to_rgb_simd@$0PPAAABAC@$00@@YAXPEAPEAXPEAPEBXHHHHHHHHPEAH@Z+3569
	DD	imagerel $unwind$??$convert_rgb24_to_rgb_simd@$0PPAAABAC@$00@@YAXPEAPEAXPEAPEBXHHHHHHHHPEAH@Z
$pdata$?convert_yc48_to_yuv444_16bit_ssse3@@YAXPEAPEAXPEAPEBXHHHHHHHHPEAH@Z DD imagerel $LN3
	DD	imagerel $LN3+161
	DD	imagerel $unwind$?convert_yc48_to_yuv444_16bit_ssse3@@YAXPEAPEAXPEAPEBXHHHHHHHHPEAH@Z
$pdata$??$convert_yc48_to_yuv444_16bit_simd@$0A@@@YAXPEAPEAXPEAPEBXHHHHHHHHPEAH@Z DD imagerel ??$convert_yc48_to_yuv444_16bit_simd@$0A@@@YAXPEAPEAXPEAPEBXHHHHHHHHPEAH@Z
	DD	imagerel ??$convert_yc48_to_yuv444_16bit_simd@$0A@@@YAXPEAPEAXPEAPEBXHHHHHHHHPEAH@Z+1909
	DD	imagerel $unwind$??$convert_yc48_to_yuv444_16bit_simd@$0A@@@YAXPEAPEAXPEAPEBXHHHHHHHHPEAH@Z
pdata	ENDS
;	COMDAT __xmm@ffffffffffffffffffffffffffffffff
CONST	SEGMENT
__xmm@ffffffffffffffffffffffffffffffff DB 0ffH, 0ffH, 0ffH, 0ffH, 0ffH, 0ffH
	DB	0ffH, 0ffH, 0ffH, 0ffH, 0ffH, 0ffH, 0ffH, 0ffH, 0ffH, 0ffH
CONST	ENDS
;	COMDAT __xmm@10001000100010001000100010001000
CONST	SEGMENT
__xmm@10001000100010001000100010001000 DB 00H, 010H, 00H, 010H, 00H, 010H
	DB	00H, 010H, 00H, 010H, 00H, 010H, 00H, 010H, 00H, 010H
CONST	ENDS
;	COMDAT __xmm@08000800080008000800080008000800
CONST	SEGMENT
__xmm@08000800080008000800080008000800 DB 00H, 08H, 00H, 08H, 00H, 08H, 00H
	DB	08H, 00H, 08H, 00H, 08H, 00H, 08H, 00H, 08H
CONST	ENDS
;	COMDAT __xmm@00020002000200020002000200020002
CONST	SEGMENT
__xmm@00020002000200020002000200020002 DB 02H, 00H, 02H, 00H, 02H, 00H, 02H
	DB	00H, 02H, 00H, 02H, 00H, 02H, 00H, 02H, 00H
CONST	ENDS
;	COMDAT __xmm@00010001000100010001000100010001
CONST	SEGMENT
__xmm@00010001000100010001000100010001 DB 01H, 00H, 01H, 00H, 01H, 00H, 01H
	DB	00H, 01H, 00H, 01H, 00H, 01H, 00H, 01H, 00H
CONST	ENDS
;	COMDAT __xmm@00001000000010000000100000001000
CONST	SEGMENT
__xmm@00001000000010000000100000001000 DB 00H, 010H, 00H, 00H, 00H, 010H, 00H
	DB	00H, 00H, 010H, 00H, 00H, 00H, 010H, 00H, 00H
CONST	ENDS
;	COMDAT rtc$TMZ
rtc$TMZ	SEGMENT
_RTC_Shutdown.rtc$TMZ DQ FLAT:_RTC_Shutdown
rtc$TMZ	ENDS
;	COMDAT rtc$IMZ
rtc$IMZ	SEGMENT
_RTC_InitBase.rtc$IMZ DQ FLAT:_RTC_InitBase
rtc$IMZ	ENDS
;	COMDAT ?maskY_shuffle@?1??gather_y_u_v_from_yc48@@YAXAEAT__m128i@@00@Z@4QBGB
CONST	SEGMENT
?maskY_shuffle@?1??gather_y_u_v_from_yc48@@YAXAEAT__m128i@@00@Z@4QBGB DW 0ffffH ; `gather_y_u_v_from_yc48'::`2'::maskY_shuffle
	DW	00H
	DW	0ffffH
	DW	00H
	DW	00H
	DW	0ffffH
	DW	0ffffH
	DW	00H
CONST	ENDS
;	COMDAT ?maskY_select@?1??gather_y_u_v_from_yc48@@YAXAEAT__m128i@@00@Z@4QBGB
CONST	SEGMENT
?maskY_select@?1??gather_y_u_v_from_yc48@@YAXAEAT__m128i@@00@Z@4QBGB DW 0ffffH ; `gather_y_u_v_from_yc48'::`2'::maskY_select
	DW	00H
	DW	00H
	DW	0ffffH
	DW	00H
	DW	00H
	DW	0ffffH
	DW	00H
CONST	ENDS
;	COMDAT ?VAL@?1??_mm_packus_epi32_simd@@YA?AT__m128i@@T2@0@Z@4QAY03$$CBIA
CONST	SEGMENT
?VAL@?1??_mm_packus_epi32_simd@@YA?AT__m128i@@T2@0@Z@4QAY03$$CBIA DD 08000H ; `_mm_packus_epi32_simd'::`2'::VAL
	DD	08000H
	DD	08000H
	DD	08000H
	DD	080008000H
	DD	080008000H
	DD	080008000H
	DD	080008000H
CONST	ENDS
;	COMDAT xdata
xdata	SEGMENT
$unwind$??$convert_rgb32_to_rgb32_simd@$0BP@@@YAXPEAPEAXPEAPEBXHHHHHHHHPEAH@Z DD 044619H
	DD	03f011dH
	DD	060157016H
	DD	imagerel __GSHandlerCheck
	DD	01e0H
xdata	ENDS
;	COMDAT CONST
CONST	SEGMENT
??$convert_rgb32_to_rgb32_simd@$0BP@@@YAXPEAPEAXPEAPEBXHHHHHHHHPEAH@Z$rtcName$0 DB 079H ; convert_rgb32_to_rgb32_simd<31>
	DB	05fH
	DB	072H
	DB	061H
	DB	06eH
	DB	067H
	DB	065H
	DB	00H
??$convert_rgb32_to_rgb32_simd@$0BP@@@YAXPEAPEAXPEAPEBXHHHHHHHHPEAH@Z$rtcName$1 DB 04dH ; convert_rgb32_to_rgb32_simd<31>
	DB	041H
	DB	053H
	DB	04bH
	DB	05fH
	DB	042H
	DB	047H
	DB	052H
	DB	034H
	DB	05fH
	DB	054H
	DB	04fH
	DB	05fH
	DB	052H
	DB	047H
	DB	042H
	DB	034H
	DB	00H
	ORG $+6
??$convert_rgb32_to_rgb32_simd@$0BP@@@YAXPEAPEAXPEAPEBXHHHHHHHHPEAH@Z$rtcName$2 DB 04dH ; convert_rgb32_to_rgb32_simd<31>
	DB	041H
	DB	053H
	DB	04bH
	DB	05fH
	DB	047H
	DB	042H
	DB	052H
	DB	034H
	DB	05fH
	DB	054H
	DB	04fH
	DB	05fH
	DB	052H
	DB	047H
	DB	042H
	DB	034H
	DB	00H
	ORG $+14
??$convert_rgb32_to_rgb32_simd@$0BP@@@YAXPEAPEAXPEAPEBXHHHHHHHHPEAH@Z$rtcVarDesc DD 0d0H ; convert_rgb32_to_rgb32_simd<31>
	DD	010H
	DQ	FLAT:??$convert_rgb32_to_rgb32_simd@$0BP@@@YAXPEAPEAXPEAPEBXHHHHHHHHPEAH@Z$rtcName$2
	DD	0a0H
	DD	010H
	DQ	FLAT:??$convert_rgb32_to_rgb32_simd@$0BP@@@YAXPEAPEAXPEAPEBXHHHHHHHHPEAH@Z$rtcName$1
	DD	048H
	DD	0cH
	DQ	FLAT:??$convert_rgb32_to_rgb32_simd@$0BP@@@YAXPEAPEAXPEAPEBXHHHHHHHHPEAH@Z$rtcName$0
	ORG $+144
??$convert_rgb32_to_rgb32_simd@$0BP@@@YAXPEAPEAXPEAPEBXHHHHHHHHPEAH@Z$rtcFrameData DD 03H ; convert_rgb32_to_rgb32_simd<31>
	DD	00H
	DQ	FLAT:??$convert_rgb32_to_rgb32_simd@$0BP@@@YAXPEAPEAXPEAPEBXHHHHHHHHPEAH@Z$rtcVarDesc
CONST	ENDS
;	COMDAT xdata
xdata	SEGMENT
$unwind$??$convert_rgb24_to_rgb24_simd@$0BO@@@YAXPEAPEAXPEAPEBXHHHHHHHHPEAH@Z DD 044619H
	DD	09d011dH
	DD	060157016H
	DD	imagerel __GSHandlerCheck
	DD	04d0H
xdata	ENDS
;	COMDAT CONST
CONST	SEGMENT
??$convert_rgb24_to_rgb24_simd@$0BO@@@YAXPEAPEAXPEAPEBXHHHHHHHHPEAH@Z$rtcName$0 DB 079H ; convert_rgb24_to_rgb24_simd<30>
	DB	05fH
	DB	072H
	DB	061H
	DB	06eH
	DB	067H
	DB	065H
	DB	00H
??$convert_rgb24_to_rgb24_simd@$0BO@@@YAXPEAPEAXPEAPEBXHHHHHHHHPEAH@Z$rtcName$1 DB 04dH ; convert_rgb24_to_rgb24_simd<30>
	DB	041H
	DB	053H
	DB	04bH
	DB	05fH
	DB	042H
	DB	047H
	DB	052H
	DB	033H
	DB	05fH
	DB	054H
	DB	04fH
	DB	05fH
	DB	052H
	DB	047H
	DB	042H
	DB	033H
	DB	00H
	ORG $+6
??$convert_rgb24_to_rgb24_simd@$0BO@@@YAXPEAPEAXPEAPEBXHHHHHHHHPEAH@Z$rtcVarDesc DD 0a0H ; convert_rgb24_to_rgb24_simd<30>
	DD	070H
	DQ	FLAT:??$convert_rgb24_to_rgb24_simd@$0BO@@@YAXPEAPEAXPEAPEBXHHHHHHHHPEAH@Z$rtcName$1
	DD	048H
	DD	0cH
	DQ	FLAT:??$convert_rgb24_to_rgb24_simd@$0BO@@@YAXPEAPEAXPEAPEBXHHHHHHHHPEAH@Z$rtcName$0
	ORG $+96
??$convert_rgb24_to_rgb24_simd@$0BO@@@YAXPEAPEAXPEAPEBXHHHHHHHHPEAH@Z$rtcFrameData DD 02H ; convert_rgb24_to_rgb24_simd<30>
	DD	00H
	DQ	FLAT:??$convert_rgb24_to_rgb24_simd@$0BO@@@YAXPEAPEAXPEAPEBXHHHHHHHHPEAH@Z$rtcVarDesc
CONST	ENDS
xdata	SEGMENT
$unwind$?thread_y_range@@YA?AUTHREAD_Y_RANGE@@HHHH@Z DD 033f19H
	DD	07015e219H
	DD	06014H
	DD	imagerel __GSHandlerCheck
	DD	068H
$unwind$?memcpy_sse@@YAXPEAEPEBEH@Z DD 032e01H
	DD	0220117H
	DD	07010H
$unwind$?select_by_mask@@YA?AT__m128i@@T1@00@Z DD 022801H
	DD	070107214H
$unwind$?_mm_packus_epi32_simd@@YA?AT__m128i@@T1@0@Z DD 022901H
	DD	0700bf212H
$unwind$?separate_low_up@@YAXAEAT__m128i@@0@Z DD 032901H
	DD	01a0112H
	DD	0700bH
$unwind$?yuv422_to_420_i_interpolate@@YA?AT__m128i@@T1@0H@Z DD 032e01H
	DD	0200117H
	DD	07010H
$unwind$?convert_yuy2_to_nv12_i_simd@@YAXPEAPEAXPEAPEBXHHHHHHHHPEAH@Z DD 044619H
	DD	03b011dH
	DD	060157016H
	DD	imagerel __GSHandlerCheck
	DD	01c0H
$unwind$?convert_rgb24_to_rgb32_simd@@YAXPEAPEAXPEAPEBXHHHHHHHHPEAH@Z DD 044619H
	DD	041011dH
	DD	060157016H
	DD	imagerel __GSHandlerCheck
	DD	01f8H
$unwind$?convert_rgb24r_to_rgb32_simd@@YAXPEAPEAXPEAPEBXHHHHHHHHPEAH@Z DD 044619H
	DD	041011dH
	DD	060157016H
	DD	imagerel __GSHandlerCheck
	DD	01f8H
$unwind$?gather_y_uv_from_yc48@@YAXAEAT__m128i@@0T1@@Z DD 032e01H
	DD	0360117H
	DD	07010H
$unwind$?convert_y_range_from_yc48@@YA?AT__m128i@@T1@AEBT1@H11@Z DD 033301H
	DD	01e011cH
	DD	07015H
$unwind$?convert_uv_range_after_adding_offset@@YA?AT__m128i@@T1@AEBT1@H11@Z DD 033301H
	DD	01e011cH
	DD	07015H
$unwind$?convert_uv_range_from_yc48@@YA?AT__m128i@@T1@AEBT1@1H01@Z DD 023001H
	DD	07015d219H
$unwind$?convert_uv_range_from_yc48_yuv420p@@YA?AT__m128i@@T1@0AEBT1@1H11@Z DD 023301H
	DD	07015f21cH
$unwind$?convert_uv_range_from_yc48_420i@@YA?AT__m128i@@T1@0AEBT1@11H11@Z DD 033301H
	DD	034011cH
	DD	07015H
$unwind$?gather_y_u_v_from_yc48@@YAXAEAT__m128i@@00@Z DD 032e01H
	DD	0740117H
	DD	07010H
$unwind$?convert_yc48_to_p010_ssse3@@YAXPEAPEAXPEAPEBXHHHHHHHHPEAH@Z DD 022d01H
	DD	07015b219H
$unwind$??$convert_yc48_to_p010_simd@$0A@@@YAXPEAPEAXPEAPEBXHHHHHHHHPEAH@Z DD 044619H
	DD	075011dH
	DD	060157016H
	DD	imagerel __GSHandlerCheck
	DD	0390H
$unwind$?convert_yc48_to_p010_i_ssse3@@YAXPEAPEAXPEAPEBXHHHHHHHHPEAH@Z DD 022d01H
	DD	07015b219H
$unwind$??$convert_yc48_to_p010_i_simd@$0A@@@YAXPEAPEAXPEAPEBXHHHHHHHHPEAH@Z DD 044619H
	DD	085011dH
	DD	060157016H
	DD	imagerel __GSHandlerCheck
	DD	0410H
$unwind$?convert_yuy2_to_nv12_i_ssse3@@YAXPEAPEAXPEAPEBXHHHHHHHHPEAH@Z DD 022d01H
	DD	07015b219H
$unwind$?convert_bgr24_to_rgb24_ssse3@@YAXPEAPEAXPEAPEBXHHHHHHHHPEAH@Z DD 022d01H
	DD	07015b219H
$unwind$?convert_bgr32_to_rgb32_ssse3@@YAXPEAPEAXPEAPEBXHHHHHHHHPEAH@Z DD 022d01H
	DD	07015b219H
$unwind$?convert_rgb24_to_rgb32_ssse3@@YAXPEAPEAXPEAPEBXHHHHHHHHPEAH@Z DD 022d01H
	DD	07015b219H
$unwind$?convert_rgb24r_to_rgb32_ssse3@@YAXPEAPEAXPEAPEBXHHHHHHHHPEAH@Z DD 022d01H
	DD	07015b219H
$unwind$?convert_gbr_to_rgb24_ssse3@@YAXPEAPEAXPEAPEBXHHHHHHHHPEAH@Z DD 022d01H
	DD	07015b219H
$unwind$??$convert_rgb_to_rgb24_simd@$0PPACAAAB@@@YAXPEAPEAXPEAPEBXHHHHHHHHPEAH@Z DD 044619H
	DD	0af011dH
	DD	060157016H
	DD	imagerel __GSHandlerCheck
	DD	0568H
$unwind$?convert_rgb24_to_rgb_ssse3@@YAXPEAPEAXPEAPEBXHHHHHHHHPEAH@Z DD 022d01H
	DD	07015b219H
$unwind$??$convert_rgb24_to_rgb_simd@$0PPAAABAC@$0A@@@YAXPEAPEAXPEAPEBXHHHHHHHHPEAH@Z DD 044619H
	DD	0b5011dH
	DD	060157016H
	DD	imagerel __GSHandlerCheck
	DD	0590H
$unwind$?convert_bgr24_to_rgb_ssse3@@YAXPEAPEAXPEAPEBXHHHHHHHHPEAH@Z DD 022d01H
	DD	07015b219H
$unwind$??$convert_rgb24_to_rgb_simd@$0PPACABAA@$0A@@@YAXPEAPEAXPEAPEBXHHHHHHHHPEAH@Z DD 044619H
	DD	0b5011dH
	DD	060157016H
	DD	imagerel __GSHandlerCheck
	DD	0590H
$unwind$?convert_rgb24r_to_rgb_ssse3@@YAXPEAPEAXPEAPEBXHHHHHHHHPEAH@Z DD 022d01H
	DD	07015b219H
$unwind$??$convert_rgb24_to_rgb_simd@$0PPAAABAC@$00@@YAXPEAPEAXPEAPEBXHHHHHHHHPEAH@Z DD 044619H
	DD	0b5011dH
	DD	060157016H
	DD	imagerel __GSHandlerCheck
	DD	0590H
$unwind$?convert_yc48_to_yuv444_16bit_ssse3@@YAXPEAPEAXPEAPEBXHHHHHHHHPEAH@Z DD 022d01H
	DD	07015b219H
$unwind$??$convert_yc48_to_yuv444_16bit_simd@$0A@@@YAXPEAPEAXPEAPEBXHHHHHHHHPEAH@Z DD 044619H
	DD	07b011dH
	DD	060157016H
	DD	imagerel __GSHandlerCheck
	DD	03c0H
xdata	ENDS
CONST	SEGMENT
?thread_y_range@@YA?AUTHREAD_Y_RANGE@@HHHH@Z$rtcName$0 DB 079H ; thread_y_range
	DB	05fH
	DB	072H
	DB	061H
	DB	06eH
	DB	067H
	DB	065H
	DB	00H
?convert_yuy2_to_nv12_i_simd@@YAXPEAPEAXPEAPEBXHHHHHHHHPEAH@Z$rtcName$0 DB 079H ; convert_yuy2_to_nv12_i_simd
	DB	05fH
	DB	072H
	DB	061H
	DB	06eH
	DB	067H
	DB	065H
	DB	00H
?thread_y_range@@YA?AUTHREAD_Y_RANGE@@HHHH@Z$rtcVarDesc DD 038H ; thread_y_range
	DD	0cH
	DQ	FLAT:?thread_y_range@@YA?AUTHREAD_Y_RANGE@@HHHH@Z$rtcName$0
	ORG $+48
?thread_y_range@@YA?AUTHREAD_Y_RANGE@@HHHH@Z$rtcFrameData DD 01H ; thread_y_range
	DD	00H
	DQ	FLAT:?thread_y_range@@YA?AUTHREAD_Y_RANGE@@HHHH@Z$rtcVarDesc
?convert_yuy2_to_nv12_i_simd@@YAXPEAPEAXPEAPEBXHHHHHHHHPEAH@Z$rtcName$1 DB 078H ; convert_yuy2_to_nv12_i_simd
	DB	030H
	DB	00H
	ORG $+1
?convert_yuy2_to_nv12_i_simd@@YAXPEAPEAXPEAPEBXHHHHHHHHPEAH@Z$rtcName$2 DB 078H ; convert_yuy2_to_nv12_i_simd
	DB	031H
	DB	00H
	ORG $+1
?convert_yuy2_to_nv12_i_simd@@YAXPEAPEAXPEAPEBXHHHHHHHHPEAH@Z$rtcFrameData DD 03H ; convert_yuy2_to_nv12_i_simd
	DD	00H
	DQ	FLAT:?convert_yuy2_to_nv12_i_simd@@YAXPEAPEAXPEAPEBXHHHHHHHHPEAH@Z$rtcVarDesc
?convert_rgb24_to_rgb32_simd@@YAXPEAPEAXPEAPEBXHHHHHHHHPEAH@Z$rtcName$0 DB 079H ; convert_rgb24_to_rgb32_simd
	DB	05fH
	DB	072H
	DB	061H
	DB	06eH
	DB	067H
	DB	065H
	DB	00H
?convert_yuy2_to_nv12_i_simd@@YAXPEAPEAXPEAPEBXHHHHHHHHPEAH@Z$rtcVarDesc DD 0f0H ; convert_yuy2_to_nv12_i_simd
	DD	010H
	DQ	FLAT:?convert_yuy2_to_nv12_i_simd@@YAXPEAPEAXPEAPEBXHHHHHHHHPEAH@Z$rtcName$2
	DD	0c0H
	DD	010H
	DQ	FLAT:?convert_yuy2_to_nv12_i_simd@@YAXPEAPEAXPEAPEBXHHHHHHHHPEAH@Z$rtcName$1
	DD	048H
	DD	0cH
	DQ	FLAT:?convert_yuy2_to_nv12_i_simd@@YAXPEAPEAXPEAPEBXHHHHHHHHPEAH@Z$rtcName$0
	ORG $+144
?convert_rgb24_to_rgb32_simd@@YAXPEAPEAXPEAPEBXHHHHHHHHPEAH@Z$rtcName$1 DB 04dH ; convert_rgb24_to_rgb32_simd
	DB	041H
	DB	053H
	DB	04bH
	DB	05fH
	DB	052H
	DB	047H
	DB	042H
	DB	033H
	DB	05fH
	DB	054H
	DB	04fH
	DB	05fH
	DB	052H
	DB	047H
	DB	042H
	DB	034H
	DB	00H
	ORG $+6
?convert_rgb24_to_rgb32_simd@@YAXPEAPEAXPEAPEBXHHHHHHHHPEAH@Z$rtcFrameData DD 02H ; convert_rgb24_to_rgb32_simd
	DD	00H
	DQ	FLAT:?convert_rgb24_to_rgb32_simd@@YAXPEAPEAXPEAPEBXHHHHHHHHPEAH@Z$rtcVarDesc
?convert_rgb24r_to_rgb32_simd@@YAXPEAPEAXPEAPEBXHHHHHHHHPEAH@Z$rtcName$0 DB 079H ; convert_rgb24r_to_rgb32_simd
	DB	05fH
	DB	072H
	DB	061H
	DB	06eH
	DB	067H
	DB	065H
	DB	00H
?convert_rgb24_to_rgb32_simd@@YAXPEAPEAXPEAPEBXHHHHHHHHPEAH@Z$rtcVarDesc DD 0a0H ; convert_rgb24_to_rgb32_simd
	DD	010H
	DQ	FLAT:?convert_rgb24_to_rgb32_simd@@YAXPEAPEAXPEAPEBXHHHHHHHHPEAH@Z$rtcName$1
	DD	048H
	DD	0cH
	DQ	FLAT:?convert_rgb24_to_rgb32_simd@@YAXPEAPEAXPEAPEBXHHHHHHHHPEAH@Z$rtcName$0
	ORG $+96
?convert_rgb24r_to_rgb32_simd@@YAXPEAPEAXPEAPEBXHHHHHHHHPEAH@Z$rtcName$1 DB 04dH ; convert_rgb24r_to_rgb32_simd
	DB	041H
	DB	053H
	DB	04bH
	DB	05fH
	DB	052H
	DB	047H
	DB	042H
	DB	033H
	DB	05fH
	DB	054H
	DB	04fH
	DB	05fH
	DB	052H
	DB	047H
	DB	042H
	DB	034H
	DB	00H
	ORG $+6
?convert_rgb24r_to_rgb32_simd@@YAXPEAPEAXPEAPEBXHHHHHHHHPEAH@Z$rtcFrameData DD 02H ; convert_rgb24r_to_rgb32_simd
	DD	00H
	DQ	FLAT:?convert_rgb24r_to_rgb32_simd@@YAXPEAPEAXPEAPEBXHHHHHHHHPEAH@Z$rtcVarDesc
??$convert_yc48_to_p010_simd@$0A@@@YAXPEAPEAXPEAPEBXHHHHHHHHPEAH@Z$rtcName$0 DB 079H ; convert_yc48_to_p010_simd<0>
	DB	05fH
	DB	072H
	DB	061H
	DB	06eH
	DB	067H
	DB	065H
	DB	00H
?convert_rgb24r_to_rgb32_simd@@YAXPEAPEAXPEAPEBXHHHHHHHHPEAH@Z$rtcVarDesc DD 0a0H ; convert_rgb24r_to_rgb32_simd
	DD	010H
	DQ	FLAT:?convert_rgb24r_to_rgb32_simd@@YAXPEAPEAXPEAPEBXHHHHHHHHPEAH@Z$rtcName$1
	DD	048H
	DD	0cH
	DQ	FLAT:?convert_rgb24r_to_rgb32_simd@@YAXPEAPEAXPEAPEBXHHHHHHHHPEAH@Z$rtcName$0
	ORG $+96
??$convert_yc48_to_p010_simd@$0A@@@YAXPEAPEAXPEAPEBXHHHHHHHHPEAH@Z$rtcName$1 DB 078H ; convert_yc48_to_p010_simd<0>
	DB	043H
	DB	05fH
	DB	070H
	DB	077H
	DB	05fH
	DB	06fH
	DB	06eH
	DB	065H
	DB	00H
	ORG $+2
??$convert_yc48_to_p010_simd@$0A@@@YAXPEAPEAXPEAPEBXHHHHHHHHPEAH@Z$rtcName$2 DB 078H ; convert_yc48_to_p010_simd<0>
	DB	043H
	DB	05fH
	DB	059H
	DB	043H
	DB	043H
	DB	00H
	ORG $+1
??$convert_yc48_to_p010_simd@$0A@@@YAXPEAPEAXPEAPEBXHHHHHHHHPEAH@Z$rtcName$3 DB 078H ; convert_yc48_to_p010_simd<0>
	DB	031H
	DB	00H
	ORG $+1
??$convert_yc48_to_p010_simd@$0A@@@YAXPEAPEAXPEAPEBXHHHHHHHHPEAH@Z$rtcName$4 DB 078H ; convert_yc48_to_p010_simd<0>
	DB	032H
	DB	00H
	ORG $+5
??$convert_yc48_to_p010_simd@$0A@@@YAXPEAPEAXPEAPEBXHHHHHHHHPEAH@Z$rtcVarDesc DD 01a0H ; convert_yc48_to_p010_simd<0>
	DD	010H
	DQ	FLAT:??$convert_yc48_to_p010_simd@$0A@@@YAXPEAPEAXPEAPEBXHHHHHHHHPEAH@Z$rtcName$4
	DD	0170H
	DD	010H
	DQ	FLAT:??$convert_yc48_to_p010_simd@$0A@@@YAXPEAPEAXPEAPEBXHHHHHHHHPEAH@Z$rtcName$3
	DD	0110H
	DD	010H
	DQ	FLAT:??$convert_yc48_to_p010_simd@$0A@@@YAXPEAPEAXPEAPEBXHHHHHHHHPEAH@Z$rtcName$2
	DD	0d0H
	DD	010H
	DQ	FLAT:??$convert_yc48_to_p010_simd@$0A@@@YAXPEAPEAXPEAPEBXHHHHHHHHPEAH@Z$rtcName$1
	DD	058H
	DD	0cH
	DQ	FLAT:??$convert_yc48_to_p010_simd@$0A@@@YAXPEAPEAXPEAPEBXHHHHHHHHPEAH@Z$rtcName$0
	ORG $+240
??$convert_yc48_to_p010_simd@$0A@@@YAXPEAPEAXPEAPEBXHHHHHHHHPEAH@Z$rtcFrameData DD 05H ; convert_yc48_to_p010_simd<0>
	DD	00H
	DQ	FLAT:??$convert_yc48_to_p010_simd@$0A@@@YAXPEAPEAXPEAPEBXHHHHHHHHPEAH@Z$rtcVarDesc
??$convert_yc48_to_p010_i_simd@$0A@@@YAXPEAPEAXPEAPEBXHHHHHHHHPEAH@Z$rtcName$0 DB 078H ; convert_yc48_to_p010_i_simd<0>
	DB	043H
	DB	05fH
	DB	070H
	DB	077H
	DB	05fH
	DB	06fH
	DB	06eH
	DB	065H
	DB	00H
	ORG $+2
??$convert_yc48_to_p010_i_simd@$0A@@@YAXPEAPEAXPEAPEBXHHHHHHHHPEAH@Z$rtcName$1 DB 078H ; convert_yc48_to_p010_i_simd<0>
	DB	043H
	DB	05fH
	DB	059H
	DB	043H
	DB	043H
	DB	00H
	ORG $+1
??$convert_yc48_to_p010_i_simd@$0A@@@YAXPEAPEAXPEAPEBXHHHHHHHHPEAH@Z$rtcName$3 DB 078H ; convert_yc48_to_p010_i_simd<0>
	DB	031H
	DB	00H
	ORG $+1
??$convert_yc48_to_p010_i_simd@$0A@@@YAXPEAPEAXPEAPEBXHHHHHHHHPEAH@Z$rtcName$2 DB 079H ; convert_yc48_to_p010_i_simd<0>
	DB	05fH
	DB	072H
	DB	061H
	DB	06eH
	DB	067H
	DB	065H
	DB	00H
??$convert_yc48_to_p010_i_simd@$0A@@@YAXPEAPEAXPEAPEBXHHHHHHHHPEAH@Z$rtcName$4 DB 078H ; convert_yc48_to_p010_i_simd<0>
	DB	032H
	DB	00H
	ORG $+5
??$convert_yc48_to_p010_i_simd@$0A@@@YAXPEAPEAXPEAPEBXHHHHHHHHPEAH@Z$rtcFrameData DD 05H ; convert_yc48_to_p010_i_simd<0>
	DD	00H
	DQ	FLAT:??$convert_yc48_to_p010_i_simd@$0A@@@YAXPEAPEAXPEAPEBXHHHHHHHHPEAH@Z$rtcVarDesc
??$convert_rgb_to_rgb24_simd@$0PPACAAAB@@@YAXPEAPEAXPEAPEBXHHHHHHHHPEAH@Z$rtcName$0 DB 079H ; convert_rgb_to_rgb24_simd<4278321153>
	DB	05fH
	DB	072H
	DB	061H
	DB	06eH
	DB	067H
	DB	065H
	DB	00H
??$convert_yc48_to_p010_i_simd@$0A@@@YAXPEAPEAXPEAPEBXHHHHHHHHPEAH@Z$rtcVarDesc DD 01b0H ; convert_yc48_to_p010_i_simd<0>
	DD	010H
	DQ	FLAT:??$convert_yc48_to_p010_i_simd@$0A@@@YAXPEAPEAXPEAPEBXHHHHHHHHPEAH@Z$rtcName$4
	DD	0180H
	DD	010H
	DQ	FLAT:??$convert_yc48_to_p010_i_simd@$0A@@@YAXPEAPEAXPEAPEBXHHHHHHHHPEAH@Z$rtcName$3
	DD	0128H
	DD	0cH
	DQ	FLAT:??$convert_yc48_to_p010_i_simd@$0A@@@YAXPEAPEAXPEAPEBXHHHHHHHHPEAH@Z$rtcName$2
	DD	0e0H
	DD	010H
	DQ	FLAT:??$convert_yc48_to_p010_i_simd@$0A@@@YAXPEAPEAXPEAPEBXHHHHHHHHPEAH@Z$rtcName$1
	DD	0a0H
	DD	010H
	DQ	FLAT:??$convert_yc48_to_p010_i_simd@$0A@@@YAXPEAPEAXPEAPEBXHHHHHHHHPEAH@Z$rtcName$0
	ORG $+240
??$convert_rgb_to_rgb24_simd@$0PPACAAAB@@@YAXPEAPEAXPEAPEBXHHHHHHHHPEAH@Z$rtcName$1 DB 04dH ; convert_rgb_to_rgb24_simd<4278321153>
	DB	041H
	DB	053H
	DB	04bH
	DB	05fH
	DB	052H
	DB	047H
	DB	042H
	DB	05fH
	DB	054H
	DB	04fH
	DB	05fH
	DB	052H
	DB	047H
	DB	042H
	DB	032H
	DB	034H
	DB	00H
	ORG $+6
??$convert_rgb_to_rgb24_simd@$0PPACAAAB@@@YAXPEAPEAXPEAPEBXHHHHHHHHPEAH@Z$rtcFrameData DD 02H ; convert_rgb_to_rgb24_simd<4278321153>
	DD	00H
	DQ	FLAT:??$convert_rgb_to_rgb24_simd@$0PPACAAAB@@@YAXPEAPEAXPEAPEBXHHHHHHHHPEAH@Z$rtcVarDesc
??$convert_rgb24_to_rgb_simd@$0PPAAABAC@$0A@@@YAXPEAPEAXPEAPEBXHHHHHHHHPEAH@Z$rtcName$0 DB 079H ; convert_rgb24_to_rgb_simd<4278190338,0>
	DB	05fH
	DB	072H
	DB	061H
	DB	06eH
	DB	067H
	DB	065H
	DB	00H
??$convert_rgb_to_rgb24_simd@$0PPACAAAB@@@YAXPEAPEAXPEAPEBXHHHHHHHHPEAH@Z$rtcVarDesc DD 0a0H ; convert_rgb_to_rgb24_simd<4278321153>
	DD	030H
	DQ	FLAT:??$convert_rgb_to_rgb24_simd@$0PPACAAAB@@@YAXPEAPEAXPEAPEBXHHHHHHHHPEAH@Z$rtcName$1
	DD	048H
	DD	0cH
	DQ	FLAT:??$convert_rgb_to_rgb24_simd@$0PPACAAAB@@@YAXPEAPEAXPEAPEBXHHHHHHHHPEAH@Z$rtcName$0
	ORG $+96
??$convert_rgb24_to_rgb_simd@$0PPAAABAC@$0A@@@YAXPEAPEAXPEAPEBXHHHHHHHHPEAH@Z$rtcName$1 DB 04dH ; convert_rgb24_to_rgb_simd<4278190338,0>
	DB	041H
	DB	053H
	DB	04bH
	DB	05fH
	DB	052H
	DB	047H
	DB	042H
	DB	05fH
	DB	054H
	DB	04fH
	DB	05fH
	DB	052H
	DB	047H
	DB	042H
	DB	032H
	DB	034H
	DB	00H
	ORG $+6
??$convert_rgb24_to_rgb_simd@$0PPAAABAC@$0A@@@YAXPEAPEAXPEAPEBXHHHHHHHHPEAH@Z$rtcFrameData DD 02H ; convert_rgb24_to_rgb_simd<4278190338,0>
	DD	00H
	DQ	FLAT:??$convert_rgb24_to_rgb_simd@$0PPAAABAC@$0A@@@YAXPEAPEAXPEAPEBXHHHHHHHHPEAH@Z$rtcVarDesc
??$convert_rgb24_to_rgb_simd@$0PPACABAA@$0A@@@YAXPEAPEAXPEAPEBXHHHHHHHHPEAH@Z$rtcName$0 DB 079H ; convert_rgb24_to_rgb_simd<4278321408,0>
	DB	05fH
	DB	072H
	DB	061H
	DB	06eH
	DB	067H
	DB	065H
	DB	00H
??$convert_rgb24_to_rgb_simd@$0PPAAABAC@$0A@@@YAXPEAPEAXPEAPEBXHHHHHHHHPEAH@Z$rtcVarDesc DD 0b0H ; convert_rgb24_to_rgb_simd<4278190338,0>
	DD	030H
	DQ	FLAT:??$convert_rgb24_to_rgb_simd@$0PPAAABAC@$0A@@@YAXPEAPEAXPEAPEBXHHHHHHHHPEAH@Z$rtcName$1
	DD	048H
	DD	0cH
	DQ	FLAT:??$convert_rgb24_to_rgb_simd@$0PPAAABAC@$0A@@@YAXPEAPEAXPEAPEBXHHHHHHHHPEAH@Z$rtcName$0
	ORG $+96
??$convert_rgb24_to_rgb_simd@$0PPACABAA@$0A@@@YAXPEAPEAXPEAPEBXHHHHHHHHPEAH@Z$rtcName$1 DB 04dH ; convert_rgb24_to_rgb_simd<4278321408,0>
	DB	041H
	DB	053H
	DB	04bH
	DB	05fH
	DB	052H
	DB	047H
	DB	042H
	DB	05fH
	DB	054H
	DB	04fH
	DB	05fH
	DB	052H
	DB	047H
	DB	042H
	DB	032H
	DB	034H
	DB	00H
	ORG $+6
??$convert_rgb24_to_rgb_simd@$0PPACABAA@$0A@@@YAXPEAPEAXPEAPEBXHHHHHHHHPEAH@Z$rtcFrameData DD 02H ; convert_rgb24_to_rgb_simd<4278321408,0>
	DD	00H
	DQ	FLAT:??$convert_rgb24_to_rgb_simd@$0PPACABAA@$0A@@@YAXPEAPEAXPEAPEBXHHHHHHHHPEAH@Z$rtcVarDesc
??$convert_rgb24_to_rgb_simd@$0PPAAABAC@$00@@YAXPEAPEAXPEAPEBXHHHHHHHHPEAH@Z$rtcName$0 DB 079H ; convert_rgb24_to_rgb_simd<4278190338,1>
	DB	05fH
	DB	072H
	DB	061H
	DB	06eH
	DB	067H
	DB	065H
	DB	00H
??$convert_rgb24_to_rgb_simd@$0PPACABAA@$0A@@@YAXPEAPEAXPEAPEBXHHHHHHHHPEAH@Z$rtcVarDesc DD 0b0H ; convert_rgb24_to_rgb_simd<4278321408,0>
	DD	030H
	DQ	FLAT:??$convert_rgb24_to_rgb_simd@$0PPACABAA@$0A@@@YAXPEAPEAXPEAPEBXHHHHHHHHPEAH@Z$rtcName$1
	DD	048H
	DD	0cH
	DQ	FLAT:??$convert_rgb24_to_rgb_simd@$0PPACABAA@$0A@@@YAXPEAPEAXPEAPEBXHHHHHHHHPEAH@Z$rtcName$0
	ORG $+96
??$convert_rgb24_to_rgb_simd@$0PPAAABAC@$00@@YAXPEAPEAXPEAPEBXHHHHHHHHPEAH@Z$rtcName$1 DB 04dH ; convert_rgb24_to_rgb_simd<4278190338,1>
	DB	041H
	DB	053H
	DB	04bH
	DB	05fH
	DB	052H
	DB	047H
	DB	042H
	DB	05fH
	DB	054H
	DB	04fH
	DB	05fH
	DB	052H
	DB	047H
	DB	042H
	DB	032H
	DB	034H
	DB	00H
	ORG $+6
??$convert_rgb24_to_rgb_simd@$0PPAAABAC@$00@@YAXPEAPEAXPEAPEBXHHHHHHHHPEAH@Z$rtcFrameData DD 02H ; convert_rgb24_to_rgb_simd<4278190338,1>
	DD	00H
	DQ	FLAT:??$convert_rgb24_to_rgb_simd@$0PPAAABAC@$00@@YAXPEAPEAXPEAPEBXHHHHHHHHPEAH@Z$rtcVarDesc
??$convert_yc48_to_yuv444_16bit_simd@$0A@@@YAXPEAPEAXPEAPEBXHHHHHHHHPEAH@Z$rtcName$0 DB 079H ; convert_yc48_to_yuv444_16bit_simd<0>
	DB	05fH
	DB	072H
	DB	061H
	DB	06eH
	DB	067H
	DB	065H
	DB	00H
??$convert_rgb24_to_rgb_simd@$0PPAAABAC@$00@@YAXPEAPEAXPEAPEBXHHHHHHHHPEAH@Z$rtcVarDesc DD 0b0H ; convert_rgb24_to_rgb_simd<4278190338,1>
	DD	030H
	DQ	FLAT:??$convert_rgb24_to_rgb_simd@$0PPAAABAC@$00@@YAXPEAPEAXPEAPEBXHHHHHHHHPEAH@Z$rtcName$1
	DD	048H
	DD	0cH
	DQ	FLAT:??$convert_rgb24_to_rgb_simd@$0PPAAABAC@$00@@YAXPEAPEAXPEAPEBXHHHHHHHHPEAH@Z$rtcName$0
	ORG $+96
??$convert_yc48_to_yuv444_16bit_simd@$0A@@@YAXPEAPEAXPEAPEBXHHHHHHHHPEAH@Z$rtcName$1 DB 078H ; convert_yc48_to_yuv444_16bit_simd<0>
	DB	043H
	DB	05fH
	DB	070H
	DB	077H
	DB	05fH
	DB	06fH
	DB	06eH
	DB	065H
	DB	00H
	ORG $+2
??$convert_yc48_to_yuv444_16bit_simd@$0A@@@YAXPEAPEAXPEAPEBXHHHHHHHHPEAH@Z$rtcName$2 DB 078H ; convert_yc48_to_yuv444_16bit_simd<0>
	DB	043H
	DB	05fH
	DB	059H
	DB	043H
	DB	043H
	DB	00H
	ORG $+1
??$convert_yc48_to_yuv444_16bit_simd@$0A@@@YAXPEAPEAXPEAPEBXHHHHHHHHPEAH@Z$rtcName$3 DB 078H ; convert_yc48_to_yuv444_16bit_simd<0>
	DB	031H
	DB	00H
	ORG $+1
??$convert_yc48_to_yuv444_16bit_simd@$0A@@@YAXPEAPEAXPEAPEBXHHHHHHHHPEAH@Z$rtcName$4 DB 078H ; convert_yc48_to_yuv444_16bit_simd<0>
	DB	032H
	DB	00H
	ORG $+1
??$convert_yc48_to_yuv444_16bit_simd@$0A@@@YAXPEAPEAXPEAPEBXHHHHHHHHPEAH@Z$rtcName$5 DB 078H ; convert_yc48_to_yuv444_16bit_simd<0>
	DB	033H
	DB	00H
	ORG $+1
??$convert_yc48_to_yuv444_16bit_simd@$0A@@@YAXPEAPEAXPEAPEBXHHHHHHHHPEAH@Z$rtcVarDesc DD 0180H ; convert_yc48_to_yuv444_16bit_simd<0>
	DD	010H
	DQ	FLAT:??$convert_yc48_to_yuv444_16bit_simd@$0A@@@YAXPEAPEAXPEAPEBXHHHHHHHHPEAH@Z$rtcName$5
	DD	0150H
	DD	010H
	DQ	FLAT:??$convert_yc48_to_yuv444_16bit_simd@$0A@@@YAXPEAPEAXPEAPEBXHHHHHHHHPEAH@Z$rtcName$4
	DD	0120H
	DD	010H
	DQ	FLAT:??$convert_yc48_to_yuv444_16bit_simd@$0A@@@YAXPEAPEAXPEAPEBXHHHHHHHHPEAH@Z$rtcName$3
	DD	0e0H
	DD	010H
	DQ	FLAT:??$convert_yc48_to_yuv444_16bit_simd@$0A@@@YAXPEAPEAXPEAPEBXHHHHHHHHPEAH@Z$rtcName$2
	DD	0a0H
	DD	010H
	DQ	FLAT:??$convert_yc48_to_yuv444_16bit_simd@$0A@@@YAXPEAPEAXPEAPEBXHHHHHHHHPEAH@Z$rtcName$1
	DD	038H
	DD	0cH
	DQ	FLAT:??$convert_yc48_to_yuv444_16bit_simd@$0A@@@YAXPEAPEAXPEAPEBXHHHHHHHHPEAH@Z$rtcName$0
	ORG $+288
??$convert_yc48_to_yuv444_16bit_simd@$0A@@@YAXPEAPEAXPEAPEBXHHHHHHHHPEAH@Z$rtcFrameData DD 06H ; convert_yc48_to_yuv444_16bit_simd<0>
	DD	00H
	DQ	FLAT:??$convert_yc48_to_yuv444_16bit_simd@$0A@@@YAXPEAPEAXPEAPEBXHHHHHHHHPEAH@Z$rtcVarDesc
CONST	ENDS
; Function compile flags: /Odtp /RTCsu
; File D:\work\intel\intel_codec\QSVPipeline\convert_csp_simd.h
_TEXT	SEGMENT
y_range$ = 56
$T9 = 88
Y_line$ = 104
U_line$ = 112
V_line$ = 120
pixel$ = 128
xC_pw_one$ = 160
$T10 = 192
xC_YCC$ = 224
$T11 = 256
x1$ = 288
x2$ = 336
x3$ = 384
y$12 = 404
Y$13 = 408
U$14 = 416
V$15 = 424
ycp_fin$16 = 432
ycp$17 = 440
$T18 = 448
$T19 = 464
$T20 = 480
$T21 = 496
$T22 = 512
$T23 = 528
$T24 = 544
$T25 = 560
$T26 = 576
$T27 = 592
$T28 = 608
$T29 = 624
$T30 = 640
$T31 = 656
$T32 = 672
$T33 = 688
$T34 = 704
$T35 = 720
$T36 = 736
$T37 = 760
$T38 = 784
$T39 = 800
$T40 = 816
$T41 = 832
$T42 = 848
$T43 = 864
$T44 = 880
$T45 = 896
$T46 = 912
$T47 = 928
tv213 = 944
tv241 = 948
tv269 = 952
__$ArrayPad$ = 960
dst$ = 1008
src$ = 1016
width$ = 1024
src_y_pitch_byte$ = 1032
src_uv_pitch_byte$ = 1040
dst_y_pitch_byte$ = 1048
height$ = 1056
dst_height$ = 1064
thread_id$ = 1072
thread_n$ = 1080
crop$ = 1088
??$convert_yc48_to_yuv444_16bit_simd@$0A@@@YAXPEAPEAXPEAPEBXHHHHHHHHPEAH@Z PROC ; convert_yc48_to_yuv444_16bit_simd<0>

; 1724 : static __forceinline void convert_yc48_to_yuv444_16bit_simd(void **dst, const void **src, int width, int src_y_pitch_byte, int src_uv_pitch_byte, int dst_y_pitch_byte, int height, int dst_height, int thread_id, int thread_n, int *crop) {

  00000	44 89 4c 24 20	 mov	 DWORD PTR [rsp+32], r9d
  00005	44 89 44 24 18	 mov	 DWORD PTR [rsp+24], r8d
  0000a	48 89 54 24 10	 mov	 QWORD PTR [rsp+16], rdx
  0000f	48 89 4c 24 08	 mov	 QWORD PTR [rsp+8], rcx
  00014	56		 push	 rsi
  00015	57		 push	 rdi
  00016	48 81 ec d8 03
	00 00		 sub	 rsp, 984		; 000003d8H
  0001d	48 8b fc	 mov	 rdi, rsp
  00020	b9 f6 00 00 00	 mov	 ecx, 246		; 000000f6H
  00025	b8 cc cc cc cc	 mov	 eax, -858993460		; ccccccccH
  0002a	f3 ab		 rep stosd
  0002c	48 8b 8c 24 f0
	03 00 00	 mov	 rcx, QWORD PTR [rsp+1008]
  00034	48 8b 05 00 00
	00 00		 mov	 rax, QWORD PTR __security_cookie
  0003b	48 33 c4	 xor	 rax, rsp
  0003e	48 89 84 24 c0
	03 00 00	 mov	 QWORD PTR __$ArrayPad$[rsp], rax

; 1725 :     const auto y_range = thread_y_range(0, height, thread_id, thread_n);

  00046	8b 84 24 38 04
	00 00		 mov	 eax, DWORD PTR thread_n$[rsp]
  0004d	89 44 24 20	 mov	 DWORD PTR [rsp+32], eax
  00051	44 8b 8c 24 30
	04 00 00	 mov	 r9d, DWORD PTR thread_id$[rsp]
  00059	44 8b 84 24 20
	04 00 00	 mov	 r8d, DWORD PTR height$[rsp]
  00061	33 d2		 xor	 edx, edx
  00063	48 8d 8c 24 f8
	02 00 00	 lea	 rcx, QWORD PTR $T37[rsp]
  0006b	e8 00 00 00 00	 call	 ?thread_y_range@@YA?AUTHREAD_Y_RANGE@@HHHH@Z ; thread_y_range
  00070	48 8d 4c 24 58	 lea	 rcx, QWORD PTR $T9[rsp]
  00075	48 8b f9	 mov	 rdi, rcx
  00078	48 8b f0	 mov	 rsi, rax
  0007b	b9 0c 00 00 00	 mov	 ecx, 12
  00080	f3 a4		 rep movsb
  00082	48 8d 44 24 38	 lea	 rax, QWORD PTR y_range$[rsp]
  00087	48 8d 4c 24 58	 lea	 rcx, QWORD PTR $T9[rsp]
  0008c	48 8b f8	 mov	 rdi, rax
  0008f	48 8b f1	 mov	 rsi, rcx
  00092	b9 0c 00 00 00	 mov	 ecx, 12
  00097	f3 a4		 rep movsb

; 1726 :     char *Y_line = (char *)dst[0] + dst_y_pitch_byte + y_range.start_dst;

  00099	b8 08 00 00 00	 mov	 eax, 8
  0009e	48 6b c0 00	 imul	 rax, rax, 0
  000a2	48 63 8c 24 18
	04 00 00	 movsxd	 rcx, DWORD PTR dst_y_pitch_byte$[rsp]
  000aa	48 8b 94 24 f0
	03 00 00	 mov	 rdx, QWORD PTR dst$[rsp]
  000b2	48 8b 04 02	 mov	 rax, QWORD PTR [rdx+rax]
  000b6	48 03 c1	 add	 rax, rcx
  000b9	48 63 4c 24 3c	 movsxd	 rcx, DWORD PTR y_range$[rsp+4]
  000be	48 03 c1	 add	 rax, rcx
  000c1	48 89 44 24 68	 mov	 QWORD PTR Y_line$[rsp], rax

; 1727 :     char *U_line = (char *)dst[1] + dst_y_pitch_byte + y_range.start_dst;

  000c6	b8 08 00 00 00	 mov	 eax, 8
  000cb	48 6b c0 01	 imul	 rax, rax, 1
  000cf	48 63 8c 24 18
	04 00 00	 movsxd	 rcx, DWORD PTR dst_y_pitch_byte$[rsp]
  000d7	48 8b 94 24 f0
	03 00 00	 mov	 rdx, QWORD PTR dst$[rsp]
  000df	48 8b 04 02	 mov	 rax, QWORD PTR [rdx+rax]
  000e3	48 03 c1	 add	 rax, rcx
  000e6	48 63 4c 24 3c	 movsxd	 rcx, DWORD PTR y_range$[rsp+4]
  000eb	48 03 c1	 add	 rax, rcx
  000ee	48 89 44 24 70	 mov	 QWORD PTR U_line$[rsp], rax

; 1728 :     char *V_line = (char *)dst[2] + dst_y_pitch_byte + y_range.start_dst;

  000f3	b8 08 00 00 00	 mov	 eax, 8
  000f8	48 6b c0 02	 imul	 rax, rax, 2
  000fc	48 63 8c 24 18
	04 00 00	 movsxd	 rcx, DWORD PTR dst_y_pitch_byte$[rsp]
  00104	48 8b 94 24 f0
	03 00 00	 mov	 rdx, QWORD PTR dst$[rsp]
  0010c	48 8b 04 02	 mov	 rax, QWORD PTR [rdx+rax]
  00110	48 03 c1	 add	 rax, rcx
  00113	48 63 4c 24 3c	 movsxd	 rcx, DWORD PTR y_range$[rsp+4]
  00118	48 03 c1	 add	 rax, rcx
  0011b	48 89 44 24 78	 mov	 QWORD PTR V_line$[rsp], rax

; 1729 :     char *pixel = (char *)src[0] + src_y_pitch_byte * y_range.start_src;

  00120	b8 08 00 00 00	 mov	 eax, 8
  00125	48 6b c0 00	 imul	 rax, rax, 0
  00129	8b 8c 24 08 04
	00 00		 mov	 ecx, DWORD PTR src_y_pitch_byte$[rsp]
  00130	0f af 4c 24 38	 imul	 ecx, DWORD PTR y_range$[rsp]
  00135	48 63 c9	 movsxd	 rcx, ecx
  00138	48 8b 94 24 f8
	03 00 00	 mov	 rdx, QWORD PTR src$[rsp]
  00140	48 03 0c 02	 add	 rcx, QWORD PTR [rdx+rax]
  00144	48 8b c1	 mov	 rax, rcx
  00147	48 89 84 24 80
	00 00 00	 mov	 QWORD PTR pixel$[rsp], rax

; 1730 :     const __m128i xC_pw_one = _mm_set1_epi16(1);

  0014f	66 0f 6f 05 00
	00 00 00	 movdqa	 xmm0, XMMWORD PTR __xmm@00010001000100010001000100010001
  00157	66 0f 7f 84 24
	c0 00 00 00	 movdqa	 XMMWORD PTR $T10[rsp], xmm0
  00160	66 0f 6f 84 24
	c0 00 00 00	 movdqa	 xmm0, XMMWORD PTR $T10[rsp]
  00169	66 0f 7f 84 24
	a0 00 00 00	 movdqa	 XMMWORD PTR xC_pw_one$[rsp], xmm0

; 1731 :     const __m128i xC_YCC = _mm_set1_epi32(1<<LSFT_YCC_16);

  00172	66 0f 6f 05 00
	00 00 00	 movdqa	 xmm0, XMMWORD PTR __xmm@00001000000010000000100000001000
  0017a	66 0f 7f 84 24
	00 01 00 00	 movdqa	 XMMWORD PTR $T11[rsp], xmm0
  00183	66 0f 6f 84 24
	00 01 00 00	 movdqa	 xmm0, XMMWORD PTR $T11[rsp]
  0018c	66 0f 7f 84 24
	e0 00 00 00	 movdqa	 XMMWORD PTR xC_YCC$[rsp], xmm0

; 1732 :     __m128i x1, x2, x3;
; 1733 :     for (int y = 0; y < y_range.len; y++, pixel += src_y_pitch_byte, Y_line += dst_y_pitch_byte, U_line += dst_y_pitch_byte, V_line += dst_y_pitch_byte) {

  00195	c7 84 24 94 01
	00 00 00 00 00
	00		 mov	 DWORD PTR y$12[rsp], 0
  001a0	eb 76		 jmp	 SHORT $LN4@convert_yc
$LN2@convert_yc:
  001a2	8b 84 24 94 01
	00 00		 mov	 eax, DWORD PTR y$12[rsp]
  001a9	ff c0		 inc	 eax
  001ab	89 84 24 94 01
	00 00		 mov	 DWORD PTR y$12[rsp], eax
  001b2	48 63 84 24 08
	04 00 00	 movsxd	 rax, DWORD PTR src_y_pitch_byte$[rsp]
  001ba	48 8b 8c 24 80
	00 00 00	 mov	 rcx, QWORD PTR pixel$[rsp]
  001c2	48 03 c8	 add	 rcx, rax
  001c5	48 8b c1	 mov	 rax, rcx
  001c8	48 89 84 24 80
	00 00 00	 mov	 QWORD PTR pixel$[rsp], rax
  001d0	48 63 84 24 18
	04 00 00	 movsxd	 rax, DWORD PTR dst_y_pitch_byte$[rsp]
  001d8	48 8b 4c 24 68	 mov	 rcx, QWORD PTR Y_line$[rsp]
  001dd	48 03 c8	 add	 rcx, rax
  001e0	48 8b c1	 mov	 rax, rcx
  001e3	48 89 44 24 68	 mov	 QWORD PTR Y_line$[rsp], rax
  001e8	48 63 84 24 18
	04 00 00	 movsxd	 rax, DWORD PTR dst_y_pitch_byte$[rsp]
  001f0	48 8b 4c 24 70	 mov	 rcx, QWORD PTR U_line$[rsp]
  001f5	48 03 c8	 add	 rcx, rax
  001f8	48 8b c1	 mov	 rax, rcx
  001fb	48 89 44 24 70	 mov	 QWORD PTR U_line$[rsp], rax
  00200	48 63 84 24 18
	04 00 00	 movsxd	 rax, DWORD PTR dst_y_pitch_byte$[rsp]
  00208	48 8b 4c 24 78	 mov	 rcx, QWORD PTR V_line$[rsp]
  0020d	48 03 c8	 add	 rcx, rax
  00210	48 8b c1	 mov	 rax, rcx
  00213	48 89 44 24 78	 mov	 QWORD PTR V_line$[rsp], rax
$LN4@convert_yc:
  00218	8b 44 24 40	 mov	 eax, DWORD PTR y_range$[rsp+8]
  0021c	39 84 24 94 01
	00 00		 cmp	 DWORD PTR y$12[rsp], eax
  00223	0f 8d 23 05 00
	00		 jge	 $LN3@convert_yc

; 1734 :         short *Y = (short *)Y_line;

  00229	48 8b 44 24 68	 mov	 rax, QWORD PTR Y_line$[rsp]
  0022e	48 89 84 24 98
	01 00 00	 mov	 QWORD PTR Y$13[rsp], rax

; 1735 :         short *U = (short *)U_line;

  00236	48 8b 44 24 70	 mov	 rax, QWORD PTR U_line$[rsp]
  0023b	48 89 84 24 a0
	01 00 00	 mov	 QWORD PTR U$14[rsp], rax

; 1736 :         short *V = (short *)V_line;

  00243	48 8b 44 24 78	 mov	 rax, QWORD PTR V_line$[rsp]
  00248	48 89 84 24 a8
	01 00 00	 mov	 QWORD PTR V$15[rsp], rax

; 1737 :         short *const ycp_fin = (short *)pixel + width * 3;

  00250	6b 84 24 00 04
	00 00 03	 imul	 eax, DWORD PTR width$[rsp], 3
  00258	48 98		 cdqe
  0025a	48 8b 8c 24 80
	00 00 00	 mov	 rcx, QWORD PTR pixel$[rsp]
  00262	48 8d 04 41	 lea	 rax, QWORD PTR [rcx+rax*2]
  00266	48 89 84 24 b0
	01 00 00	 mov	 QWORD PTR ycp_fin$16[rsp], rax

; 1738 :         for (short *ycp = (short *)pixel; ycp < ycp_fin; ycp += 24, Y += 8, U += 8, V += 8) {

  0026e	48 8b 84 24 80
	00 00 00	 mov	 rax, QWORD PTR pixel$[rsp]
  00276	48 89 84 24 b8
	01 00 00	 mov	 QWORD PTR ycp$17[rsp], rax
  0027e	eb 50		 jmp	 SHORT $LN7@convert_yc
$LN5@convert_yc:
  00280	48 8b 84 24 b8
	01 00 00	 mov	 rax, QWORD PTR ycp$17[rsp]
  00288	48 83 c0 30	 add	 rax, 48			; 00000030H
  0028c	48 89 84 24 b8
	01 00 00	 mov	 QWORD PTR ycp$17[rsp], rax
  00294	48 8b 84 24 98
	01 00 00	 mov	 rax, QWORD PTR Y$13[rsp]
  0029c	48 83 c0 10	 add	 rax, 16
  002a0	48 89 84 24 98
	01 00 00	 mov	 QWORD PTR Y$13[rsp], rax
  002a8	48 8b 84 24 a0
	01 00 00	 mov	 rax, QWORD PTR U$14[rsp]
  002b0	48 83 c0 10	 add	 rax, 16
  002b4	48 89 84 24 a0
	01 00 00	 mov	 QWORD PTR U$14[rsp], rax
  002bc	48 8b 84 24 a8
	01 00 00	 mov	 rax, QWORD PTR V$15[rsp]
  002c4	48 83 c0 10	 add	 rax, 16
  002c8	48 89 84 24 a8
	01 00 00	 mov	 QWORD PTR V$15[rsp], rax
$LN7@convert_yc:
  002d0	48 8b 84 24 b0
	01 00 00	 mov	 rax, QWORD PTR ycp_fin$16[rsp]
  002d8	48 39 84 24 b8
	01 00 00	 cmp	 QWORD PTR ycp$17[rsp], rax
  002e0	0f 83 61 04 00
	00		 jae	 $LN6@convert_yc

; 1739 :             x1 = _mm_loadu_si128((__m128i *)(ycp +  0));

  002e6	48 8b 84 24 b8
	01 00 00	 mov	 rax, QWORD PTR ycp$17[rsp]
  002ee	f3 0f 6f 00	 movdqu	 xmm0, XMMWORD PTR [rax]
  002f2	66 0f 7f 84 24
	c0 01 00 00	 movdqa	 XMMWORD PTR $T18[rsp], xmm0
  002fb	66 0f 6f 84 24
	c0 01 00 00	 movdqa	 xmm0, XMMWORD PTR $T18[rsp]
  00304	66 0f 7f 84 24
	20 01 00 00	 movdqa	 XMMWORD PTR x1$[rsp], xmm0

; 1740 :             x2 = _mm_loadu_si128((__m128i *)(ycp +  8));

  0030d	48 8b 84 24 b8
	01 00 00	 mov	 rax, QWORD PTR ycp$17[rsp]
  00315	48 83 c0 10	 add	 rax, 16
  00319	f3 0f 6f 00	 movdqu	 xmm0, XMMWORD PTR [rax]
  0031d	66 0f 7f 84 24
	d0 01 00 00	 movdqa	 XMMWORD PTR $T19[rsp], xmm0
  00326	66 0f 6f 84 24
	d0 01 00 00	 movdqa	 xmm0, XMMWORD PTR $T19[rsp]
  0032f	66 0f 7f 84 24
	50 01 00 00	 movdqa	 XMMWORD PTR x2$[rsp], xmm0

; 1741 :             x3 = _mm_loadu_si128((__m128i *)(ycp + 16));

  00338	48 8b 84 24 b8
	01 00 00	 mov	 rax, QWORD PTR ycp$17[rsp]
  00340	48 83 c0 20	 add	 rax, 32			; 00000020H
  00344	f3 0f 6f 00	 movdqu	 xmm0, XMMWORD PTR [rax]
  00348	66 0f 7f 84 24
	e0 01 00 00	 movdqa	 XMMWORD PTR $T20[rsp], xmm0
  00351	66 0f 6f 84 24
	e0 01 00 00	 movdqa	 xmm0, XMMWORD PTR $T20[rsp]
  0035a	66 0f 7f 84 24
	80 01 00 00	 movdqa	 XMMWORD PTR x3$[rsp], xmm0

; 1742 :             gather_y_u_v_from_yc48(x1, x2, x3);

  00363	4c 8d 84 24 80
	01 00 00	 lea	 r8, QWORD PTR x3$[rsp]
  0036b	48 8d 94 24 50
	01 00 00	 lea	 rdx, QWORD PTR x2$[rsp]
  00373	48 8d 8c 24 20
	01 00 00	 lea	 rcx, QWORD PTR x1$[rsp]
  0037b	e8 00 00 00 00	 call	 ?gather_y_u_v_from_yc48@@YAXAEAT__m128i@@00@Z ; gather_y_u_v_from_yc48

; 1743 :             _mm_store_switch_si128((__m128i *)Y, convert_y_range_from_yc48(x1, xC_Y_L_MA_16, Y_L_RSH_16, xC_YCC, xC_pw_one));

  00380	33 c0		 xor	 eax, eax
  00382	85 c0		 test	 eax, eax
  00384	74 7e		 je	 SHORT $LN9@convert_yc
  00386	66 0f 6f 05 00
	00 00 00	 movdqa	 xmm0, XMMWORD PTR ?Array_Y_L_MA_16@@3QBFB
  0038e	66 0f 7f 84 24
	f0 01 00 00	 movdqa	 XMMWORD PTR $T21[rsp], xmm0
  00397	66 0f 6f 84 24
	20 01 00 00	 movdqa	 xmm0, XMMWORD PTR x1$[rsp]
  003a0	66 0f 7f 84 24
	10 03 00 00	 movdqa	 XMMWORD PTR $T38[rsp], xmm0
  003a9	48 8d 84 24 a0
	00 00 00	 lea	 rax, QWORD PTR xC_pw_one$[rsp]
  003b1	48 89 44 24 20	 mov	 QWORD PTR [rsp+32], rax
  003b6	4c 8d 8c 24 e0
	00 00 00	 lea	 r9, QWORD PTR xC_YCC$[rsp]
  003be	41 b8 04 00 00
	00		 mov	 r8d, 4
  003c4	48 8d 94 24 f0
	01 00 00	 lea	 rdx, QWORD PTR $T21[rsp]
  003cc	48 8d 8c 24 10
	03 00 00	 lea	 rcx, QWORD PTR $T38[rsp]
  003d4	e8 00 00 00 00	 call	 ?convert_y_range_from_yc48@@YA?AT__m128i@@T1@AEBT1@H11@Z ; convert_y_range_from_yc48
  003d9	66 0f 7f 84 24
	00 02 00 00	 movdqa	 XMMWORD PTR $T22[rsp], xmm0
  003e2	48 8b 84 24 98
	01 00 00	 mov	 rax, QWORD PTR Y$13[rsp]
  003ea	66 0f 6f 84 24
	00 02 00 00	 movdqa	 xmm0, XMMWORD PTR $T22[rsp]
  003f3	f3 0f 7f 00	 movdqu	 XMMWORD PTR [rax], xmm0
  003f7	c7 84 24 b0 03
	00 00 00 00 00
	00		 mov	 DWORD PTR tv213[rsp], 0
  00402	eb 7c		 jmp	 SHORT $LN10@convert_yc
$LN9@convert_yc:
  00404	66 0f 6f 05 00
	00 00 00	 movdqa	 xmm0, XMMWORD PTR ?Array_Y_L_MA_16@@3QBFB
  0040c	66 0f 7f 84 24
	10 02 00 00	 movdqa	 XMMWORD PTR $T23[rsp], xmm0
  00415	66 0f 6f 84 24
	20 01 00 00	 movdqa	 xmm0, XMMWORD PTR x1$[rsp]
  0041e	66 0f 7f 84 24
	20 03 00 00	 movdqa	 XMMWORD PTR $T39[rsp], xmm0
  00427	48 8d 84 24 a0
	00 00 00	 lea	 rax, QWORD PTR xC_pw_one$[rsp]
  0042f	48 89 44 24 20	 mov	 QWORD PTR [rsp+32], rax
  00434	4c 8d 8c 24 e0
	00 00 00	 lea	 r9, QWORD PTR xC_YCC$[rsp]
  0043c	41 b8 04 00 00
	00		 mov	 r8d, 4
  00442	48 8d 94 24 10
	02 00 00	 lea	 rdx, QWORD PTR $T23[rsp]
  0044a	48 8d 8c 24 20
	03 00 00	 lea	 rcx, QWORD PTR $T39[rsp]
  00452	e8 00 00 00 00	 call	 ?convert_y_range_from_yc48@@YA?AT__m128i@@T1@AEBT1@H11@Z ; convert_y_range_from_yc48
  00457	66 0f 7f 84 24
	20 02 00 00	 movdqa	 XMMWORD PTR $T24[rsp], xmm0
  00460	48 8b 84 24 98
	01 00 00	 mov	 rax, QWORD PTR Y$13[rsp]
  00468	66 0f 6f 84 24
	20 02 00 00	 movdqa	 xmm0, XMMWORD PTR $T24[rsp]
  00471	f3 0f 7f 00	 movdqu	 XMMWORD PTR [rax], xmm0
  00475	c7 84 24 b0 03
	00 00 00 00 00
	00		 mov	 DWORD PTR tv213[rsp], 0
$LN10@convert_yc:

; 1744 :             _mm_store_switch_si128((__m128i *)U, convert_uv_range_from_yc48(x2, _mm_set1_epi16(UV_OFFSET_x1), xC_UV_L_MA_16_444, UV_L_RSH_16_444, xC_YCC, xC_pw_one));

  00480	33 c0		 xor	 eax, eax
  00482	85 c0		 test	 eax, eax
  00484	0f 84 ae 00 00
	00		 je	 $LN11@convert_yc
  0048a	66 0f 6f 05 00
	00 00 00	 movdqa	 xmm0, XMMWORD PTR ?Array_UV_L_MA_16_444@@3QBFB
  00492	66 0f 7f 84 24
	40 02 00 00	 movdqa	 XMMWORD PTR $T26[rsp], xmm0
  0049b	66 0f 6f 05 00
	00 00 00	 movdqa	 xmm0, XMMWORD PTR __xmm@08000800080008000800080008000800
  004a3	66 0f 7f 84 24
	30 02 00 00	 movdqa	 XMMWORD PTR $T25[rsp], xmm0
  004ac	66 0f 6f 84 24
	e0 00 00 00	 movdqa	 xmm0, XMMWORD PTR xC_YCC$[rsp]
  004b5	66 0f 7f 84 24
	40 03 00 00	 movdqa	 XMMWORD PTR $T41[rsp], xmm0
  004be	66 0f 6f 84 24
	50 01 00 00	 movdqa	 xmm0, XMMWORD PTR x2$[rsp]
  004c7	66 0f 7f 84 24
	30 03 00 00	 movdqa	 XMMWORD PTR $T40[rsp], xmm0
  004d0	48 8d 84 24 a0
	00 00 00	 lea	 rax, QWORD PTR xC_pw_one$[rsp]
  004d8	48 89 44 24 28	 mov	 QWORD PTR [rsp+40], rax
  004dd	48 8d 84 24 40
	03 00 00	 lea	 rax, QWORD PTR $T41[rsp]
  004e5	48 89 44 24 20	 mov	 QWORD PTR [rsp+32], rax
  004ea	45 33 c9	 xor	 r9d, r9d
  004ed	4c 8d 84 24 40
	02 00 00	 lea	 r8, QWORD PTR $T26[rsp]
  004f5	48 8d 94 24 30
	02 00 00	 lea	 rdx, QWORD PTR $T25[rsp]
  004fd	48 8d 8c 24 30
	03 00 00	 lea	 rcx, QWORD PTR $T40[rsp]
  00505	e8 00 00 00 00	 call	 ?convert_uv_range_from_yc48@@YA?AT__m128i@@T1@AEBT1@1H01@Z ; convert_uv_range_from_yc48
  0050a	66 0f 7f 84 24
	50 02 00 00	 movdqa	 XMMWORD PTR $T27[rsp], xmm0
  00513	48 8b 84 24 a0
	01 00 00	 mov	 rax, QWORD PTR U$14[rsp]
  0051b	66 0f 6f 84 24
	50 02 00 00	 movdqa	 xmm0, XMMWORD PTR $T27[rsp]
  00524	f3 0f 7f 00	 movdqu	 XMMWORD PTR [rax], xmm0
  00528	c7 84 24 b4 03
	00 00 00 00 00
	00		 mov	 DWORD PTR tv241[rsp], 0
  00533	e9 a9 00 00 00	 jmp	 $LN12@convert_yc
$LN11@convert_yc:
  00538	66 0f 6f 05 00
	00 00 00	 movdqa	 xmm0, XMMWORD PTR ?Array_UV_L_MA_16_444@@3QBFB
  00540	66 0f 7f 84 24
	70 02 00 00	 movdqa	 XMMWORD PTR $T29[rsp], xmm0
  00549	66 0f 6f 05 00
	00 00 00	 movdqa	 xmm0, XMMWORD PTR __xmm@08000800080008000800080008000800
  00551	66 0f 7f 84 24
	60 02 00 00	 movdqa	 XMMWORD PTR $T28[rsp], xmm0
  0055a	66 0f 6f 84 24
	e0 00 00 00	 movdqa	 xmm0, XMMWORD PTR xC_YCC$[rsp]
  00563	66 0f 7f 84 24
	60 03 00 00	 movdqa	 XMMWORD PTR $T43[rsp], xmm0
  0056c	66 0f 6f 84 24
	50 01 00 00	 movdqa	 xmm0, XMMWORD PTR x2$[rsp]
  00575	66 0f 7f 84 24
	50 03 00 00	 movdqa	 XMMWORD PTR $T42[rsp], xmm0
  0057e	48 8d 84 24 a0
	00 00 00	 lea	 rax, QWORD PTR xC_pw_one$[rsp]
  00586	48 89 44 24 28	 mov	 QWORD PTR [rsp+40], rax
  0058b	48 8d 84 24 60
	03 00 00	 lea	 rax, QWORD PTR $T43[rsp]
  00593	48 89 44 24 20	 mov	 QWORD PTR [rsp+32], rax
  00598	45 33 c9	 xor	 r9d, r9d
  0059b	4c 8d 84 24 70
	02 00 00	 lea	 r8, QWORD PTR $T29[rsp]
  005a3	48 8d 94 24 60
	02 00 00	 lea	 rdx, QWORD PTR $T28[rsp]
  005ab	48 8d 8c 24 50
	03 00 00	 lea	 rcx, QWORD PTR $T42[rsp]
  005b3	e8 00 00 00 00	 call	 ?convert_uv_range_from_yc48@@YA?AT__m128i@@T1@AEBT1@1H01@Z ; convert_uv_range_from_yc48
  005b8	66 0f 7f 84 24
	80 02 00 00	 movdqa	 XMMWORD PTR $T30[rsp], xmm0
  005c1	48 8b 84 24 a0
	01 00 00	 mov	 rax, QWORD PTR U$14[rsp]
  005c9	66 0f 6f 84 24
	80 02 00 00	 movdqa	 xmm0, XMMWORD PTR $T30[rsp]
  005d2	f3 0f 7f 00	 movdqu	 XMMWORD PTR [rax], xmm0
  005d6	c7 84 24 b4 03
	00 00 00 00 00
	00		 mov	 DWORD PTR tv241[rsp], 0
$LN12@convert_yc:

; 1745 :             _mm_store_switch_si128((__m128i *)V, convert_uv_range_from_yc48(x3, _mm_set1_epi16(UV_OFFSET_x1), xC_UV_L_MA_16_444, UV_L_RSH_16_444, xC_YCC, xC_pw_one));

  005e1	33 c0		 xor	 eax, eax
  005e3	85 c0		 test	 eax, eax
  005e5	0f 84 ae 00 00
	00		 je	 $LN13@convert_yc
  005eb	66 0f 6f 05 00
	00 00 00	 movdqa	 xmm0, XMMWORD PTR ?Array_UV_L_MA_16_444@@3QBFB
  005f3	66 0f 7f 84 24
	a0 02 00 00	 movdqa	 XMMWORD PTR $T32[rsp], xmm0
  005fc	66 0f 6f 05 00
	00 00 00	 movdqa	 xmm0, XMMWORD PTR __xmm@08000800080008000800080008000800
  00604	66 0f 7f 84 24
	90 02 00 00	 movdqa	 XMMWORD PTR $T31[rsp], xmm0
  0060d	66 0f 6f 84 24
	e0 00 00 00	 movdqa	 xmm0, XMMWORD PTR xC_YCC$[rsp]
  00616	66 0f 7f 84 24
	80 03 00 00	 movdqa	 XMMWORD PTR $T45[rsp], xmm0
  0061f	66 0f 6f 84 24
	80 01 00 00	 movdqa	 xmm0, XMMWORD PTR x3$[rsp]
  00628	66 0f 7f 84 24
	70 03 00 00	 movdqa	 XMMWORD PTR $T44[rsp], xmm0
  00631	48 8d 84 24 a0
	00 00 00	 lea	 rax, QWORD PTR xC_pw_one$[rsp]
  00639	48 89 44 24 28	 mov	 QWORD PTR [rsp+40], rax
  0063e	48 8d 84 24 80
	03 00 00	 lea	 rax, QWORD PTR $T45[rsp]
  00646	48 89 44 24 20	 mov	 QWORD PTR [rsp+32], rax
  0064b	45 33 c9	 xor	 r9d, r9d
  0064e	4c 8d 84 24 a0
	02 00 00	 lea	 r8, QWORD PTR $T32[rsp]
  00656	48 8d 94 24 90
	02 00 00	 lea	 rdx, QWORD PTR $T31[rsp]
  0065e	48 8d 8c 24 70
	03 00 00	 lea	 rcx, QWORD PTR $T44[rsp]
  00666	e8 00 00 00 00	 call	 ?convert_uv_range_from_yc48@@YA?AT__m128i@@T1@AEBT1@1H01@Z ; convert_uv_range_from_yc48
  0066b	66 0f 7f 84 24
	b0 02 00 00	 movdqa	 XMMWORD PTR $T33[rsp], xmm0
  00674	48 8b 84 24 a8
	01 00 00	 mov	 rax, QWORD PTR V$15[rsp]
  0067c	66 0f 6f 84 24
	b0 02 00 00	 movdqa	 xmm0, XMMWORD PTR $T33[rsp]
  00685	f3 0f 7f 00	 movdqu	 XMMWORD PTR [rax], xmm0
  00689	c7 84 24 b8 03
	00 00 00 00 00
	00		 mov	 DWORD PTR tv269[rsp], 0
  00694	e9 a9 00 00 00	 jmp	 $LN14@convert_yc
$LN13@convert_yc:
  00699	66 0f 6f 05 00
	00 00 00	 movdqa	 xmm0, XMMWORD PTR ?Array_UV_L_MA_16_444@@3QBFB
  006a1	66 0f 7f 84 24
	d0 02 00 00	 movdqa	 XMMWORD PTR $T35[rsp], xmm0
  006aa	66 0f 6f 05 00
	00 00 00	 movdqa	 xmm0, XMMWORD PTR __xmm@08000800080008000800080008000800
  006b2	66 0f 7f 84 24
	c0 02 00 00	 movdqa	 XMMWORD PTR $T34[rsp], xmm0
  006bb	66 0f 6f 84 24
	e0 00 00 00	 movdqa	 xmm0, XMMWORD PTR xC_YCC$[rsp]
  006c4	66 0f 7f 84 24
	a0 03 00 00	 movdqa	 XMMWORD PTR $T47[rsp], xmm0
  006cd	66 0f 6f 84 24
	80 01 00 00	 movdqa	 xmm0, XMMWORD PTR x3$[rsp]
  006d6	66 0f 7f 84 24
	90 03 00 00	 movdqa	 XMMWORD PTR $T46[rsp], xmm0
  006df	48 8d 84 24 a0
	00 00 00	 lea	 rax, QWORD PTR xC_pw_one$[rsp]
  006e7	48 89 44 24 28	 mov	 QWORD PTR [rsp+40], rax
  006ec	48 8d 84 24 a0
	03 00 00	 lea	 rax, QWORD PTR $T47[rsp]
  006f4	48 89 44 24 20	 mov	 QWORD PTR [rsp+32], rax
  006f9	45 33 c9	 xor	 r9d, r9d
  006fc	4c 8d 84 24 d0
	02 00 00	 lea	 r8, QWORD PTR $T35[rsp]
  00704	48 8d 94 24 c0
	02 00 00	 lea	 rdx, QWORD PTR $T34[rsp]
  0070c	48 8d 8c 24 90
	03 00 00	 lea	 rcx, QWORD PTR $T46[rsp]
  00714	e8 00 00 00 00	 call	 ?convert_uv_range_from_yc48@@YA?AT__m128i@@T1@AEBT1@1H01@Z ; convert_uv_range_from_yc48
  00719	66 0f 7f 84 24
	e0 02 00 00	 movdqa	 XMMWORD PTR $T36[rsp], xmm0
  00722	48 8b 84 24 a8
	01 00 00	 mov	 rax, QWORD PTR V$15[rsp]
  0072a	66 0f 6f 84 24
	e0 02 00 00	 movdqa	 xmm0, XMMWORD PTR $T36[rsp]
  00733	f3 0f 7f 00	 movdqu	 XMMWORD PTR [rax], xmm0
  00737	c7 84 24 b8 03
	00 00 00 00 00
	00		 mov	 DWORD PTR tv269[rsp], 0
$LN14@convert_yc:

; 1746 :         }

  00742	e9 39 fb ff ff	 jmp	 $LN5@convert_yc
$LN6@convert_yc:

; 1747 :     }

  00747	e9 56 fa ff ff	 jmp	 $LN2@convert_yc
$LN3@convert_yc:

; 1748 : }

  0074c	48 8b cc	 mov	 rcx, rsp
  0074f	48 8d 15 00 00
	00 00		 lea	 rdx, OFFSET FLAT:??$convert_yc48_to_yuv444_16bit_simd@$0A@@@YAXPEAPEAXPEAPEBXHHHHHHHHPEAH@Z$rtcFrameData
  00756	e8 00 00 00 00	 call	 _RTC_CheckStackVars
  0075b	48 8b 8c 24 c0
	03 00 00	 mov	 rcx, QWORD PTR __$ArrayPad$[rsp]
  00763	48 33 cc	 xor	 rcx, rsp
  00766	e8 00 00 00 00	 call	 __security_check_cookie
  0076b	48 81 c4 d8 03
	00 00		 add	 rsp, 984		; 000003d8H
  00772	5f		 pop	 rdi
  00773	5e		 pop	 rsi
  00774	c3		 ret	 0
??$convert_yc48_to_yuv444_16bit_simd@$0A@@@YAXPEAPEAXPEAPEBXHHHHHHHHPEAH@Z ENDP ; convert_yc48_to_yuv444_16bit_simd<0>
_TEXT	ENDS
; Function compile flags: /Odtp /RTCsu
; File D:\work\intel\intel_codec\QSVPipeline\convert_csp_ssse3.cpp
_TEXT	SEGMENT
dst$ = 112
src$ = 120
width$ = 128
src_y_pitch_byte$ = 136
src_uv_pitch_byte$ = 144
dst_y_pitch_byte$ = 152
height$ = 160
dst_height$ = 168
thread_id$ = 176
thread_n$ = 184
crop$ = 192
?convert_yc48_to_yuv444_16bit_ssse3@@YAXPEAPEAXPEAPEBXHHHHHHHHPEAH@Z PROC ; convert_yc48_to_yuv444_16bit_ssse3

; 82   : void convert_yc48_to_yuv444_16bit_ssse3(void **dst, const void **src, int width, int src_y_pitch_byte, int src_uv_pitch_byte, int dst_y_pitch_byte, int height, int dst_height, int thread_id, int thread_n, int *crop) {

$LN3:
  00000	44 89 4c 24 20	 mov	 DWORD PTR [rsp+32], r9d
  00005	44 89 44 24 18	 mov	 DWORD PTR [rsp+24], r8d
  0000a	48 89 54 24 10	 mov	 QWORD PTR [rsp+16], rdx
  0000f	48 89 4c 24 08	 mov	 QWORD PTR [rsp+8], rcx
  00014	57		 push	 rdi
  00015	48 83 ec 60	 sub	 rsp, 96			; 00000060H
  00019	48 8b fc	 mov	 rdi, rsp
  0001c	b9 18 00 00 00	 mov	 ecx, 24
  00021	b8 cc cc cc cc	 mov	 eax, -858993460		; ccccccccH
  00026	f3 ab		 rep stosd
  00028	48 8b 4c 24 70	 mov	 rcx, QWORD PTR [rsp+112]

; 83   :     convert_yc48_to_yuv444_16bit_simd<false>(dst, src, width, src_y_pitch_byte, src_uv_pitch_byte, dst_y_pitch_byte, height, dst_height, thread_id, thread_n, crop);

  0002d	48 8b 84 24 c0
	00 00 00	 mov	 rax, QWORD PTR crop$[rsp]
  00035	48 89 44 24 50	 mov	 QWORD PTR [rsp+80], rax
  0003a	8b 84 24 b8 00
	00 00		 mov	 eax, DWORD PTR thread_n$[rsp]
  00041	89 44 24 48	 mov	 DWORD PTR [rsp+72], eax
  00045	8b 84 24 b0 00
	00 00		 mov	 eax, DWORD PTR thread_id$[rsp]
  0004c	89 44 24 40	 mov	 DWORD PTR [rsp+64], eax
  00050	8b 84 24 a8 00
	00 00		 mov	 eax, DWORD PTR dst_height$[rsp]
  00057	89 44 24 38	 mov	 DWORD PTR [rsp+56], eax
  0005b	8b 84 24 a0 00
	00 00		 mov	 eax, DWORD PTR height$[rsp]
  00062	89 44 24 30	 mov	 DWORD PTR [rsp+48], eax
  00066	8b 84 24 98 00
	00 00		 mov	 eax, DWORD PTR dst_y_pitch_byte$[rsp]
  0006d	89 44 24 28	 mov	 DWORD PTR [rsp+40], eax
  00071	8b 84 24 90 00
	00 00		 mov	 eax, DWORD PTR src_uv_pitch_byte$[rsp]
  00078	89 44 24 20	 mov	 DWORD PTR [rsp+32], eax
  0007c	44 8b 8c 24 88
	00 00 00	 mov	 r9d, DWORD PTR src_y_pitch_byte$[rsp]
  00084	44 8b 84 24 80
	00 00 00	 mov	 r8d, DWORD PTR width$[rsp]
  0008c	48 8b 54 24 78	 mov	 rdx, QWORD PTR src$[rsp]
  00091	48 8b 4c 24 70	 mov	 rcx, QWORD PTR dst$[rsp]
  00096	e8 00 00 00 00	 call	 ??$convert_yc48_to_yuv444_16bit_simd@$0A@@@YAXPEAPEAXPEAPEBXHHHHHHHHPEAH@Z ; convert_yc48_to_yuv444_16bit_simd<0>

; 84   : }

  0009b	48 83 c4 60	 add	 rsp, 96			; 00000060H
  0009f	5f		 pop	 rdi
  000a0	c3		 ret	 0
?convert_yc48_to_yuv444_16bit_ssse3@@YAXPEAPEAXPEAPEBXHHHHHHHHPEAH@Z ENDP ; convert_yc48_to_yuv444_16bit_ssse3
_TEXT	ENDS
; Function compile flags: /Odtp /RTCsu
; File D:\work\intel\intel_codec\QSVPipeline\convert_csp_simd.h
_TEXT	SEGMENT
crop_left$ = 48
crop_up$ = 52
crop_right$ = 56
crop_bottom$ = 60
y_range$ = 72
$T5 = 104
dst0Line$ = 120
dst1Line$ = 128
dst2Line$ = 136
srcLine$ = 144
MASK_RGB_TO_RGB24$ = 176
xmask0$ = 240
$T6 = 256
xmask1$ = 272
$T7 = 288
xmask2$ = 304
$T8 = 320
xmask3$ = 336
$T9 = 352
y$10 = 368
ptr_src$11 = 376
ptr_dst0$12 = 384
ptr_dst1$13 = 392
ptr_dst2$14 = 400
x$15 = 408
x_fin$16 = 412
xSrc0$17 = 416
$T18 = 432
xSrc1$19 = 448
$T20 = 464
xSrc2$21 = 480
$T22 = 496
x0$23 = 512
$T24 = 528
x1$25 = 544
$T26 = 560
x2$27 = 576
$T28 = 592
$T29 = 608
$T30 = 624
$T31 = 640
$T32 = 656
$T33 = 672
$T34 = 688
$T35 = 704
$T36 = 720
$T37 = 736
$T38 = 752
$T39 = 768
$T40 = 784
$T41 = 800
$T42 = 816
$T43 = 832
$T44 = 848
$T45 = 864
$T46 = 880
x_offset$47 = 896
xSrc0$48 = 912
$T49 = 928
xSrc1$50 = 944
$T51 = 960
xSrc2$52 = 976
$T53 = 992
x0$54 = 1008
$T55 = 1024
x1$56 = 1040
$T57 = 1056
x2$58 = 1072
$T59 = 1088
$T60 = 1104
$T61 = 1120
$T62 = 1136
$T63 = 1152
$T64 = 1168
$T65 = 1184
$T66 = 1200
$T67 = 1216
$T68 = 1232
$T69 = 1248
$T70 = 1264
$T71 = 1280
$T72 = 1296
$T73 = 1312
$T74 = 1328
$T75 = 1344
$T76 = 1360
$T77 = 1376
$T78 = 1400
tv133 = 1416
__$ArrayPad$ = 1424
dst$ = 1472
src$ = 1480
width$ = 1488
src_y_pitch_byte$ = 1496
src_uv_pitch_byte$ = 1504
dst_y_pitch_byte$ = 1512
height$ = 1520
dst_height$ = 1528
thread_id$ = 1536
thread_n$ = 1544
crop$ = 1552
??$convert_rgb24_to_rgb_simd@$0PPAAABAC@$00@@YAXPEAPEAXPEAPEBXHHHHHHHHPEAH@Z PROC ; convert_rgb24_to_rgb_simd<4278190338,1>

; 468  : static void __forceinline convert_rgb24_to_rgb_simd(void **dst, const void **src, int width, int src_y_pitch_byte, int src_uv_pitch_byte, int dst_y_pitch_byte, int height, int dst_height, int thread_id, int thread_n, int *crop) {

  00000	44 89 4c 24 20	 mov	 DWORD PTR [rsp+32], r9d
  00005	44 89 44 24 18	 mov	 DWORD PTR [rsp+24], r8d
  0000a	48 89 54 24 10	 mov	 QWORD PTR [rsp+16], rdx
  0000f	48 89 4c 24 08	 mov	 QWORD PTR [rsp+8], rcx
  00014	56		 push	 rsi
  00015	57		 push	 rdi
  00016	48 81 ec a8 05
	00 00		 sub	 rsp, 1448		; 000005a8H
  0001d	48 8b fc	 mov	 rdi, rsp
  00020	b9 6a 01 00 00	 mov	 ecx, 362		; 0000016aH
  00025	b8 cc cc cc cc	 mov	 eax, -858993460		; ccccccccH
  0002a	f3 ab		 rep stosd
  0002c	48 8b 8c 24 c0
	05 00 00	 mov	 rcx, QWORD PTR [rsp+1472]
  00034	48 8b 05 00 00
	00 00		 mov	 rax, QWORD PTR __security_cookie
  0003b	48 33 c4	 xor	 rax, rsp
  0003e	48 89 84 24 90
	05 00 00	 mov	 QWORD PTR __$ArrayPad$[rsp], rax

; 469  :     const int crop_left   = crop[0];

  00046	b8 04 00 00 00	 mov	 eax, 4
  0004b	48 6b c0 00	 imul	 rax, rax, 0
  0004f	48 8b 8c 24 10
	06 00 00	 mov	 rcx, QWORD PTR crop$[rsp]
  00057	8b 04 01	 mov	 eax, DWORD PTR [rcx+rax]
  0005a	89 44 24 30	 mov	 DWORD PTR crop_left$[rsp], eax

; 470  :     const int crop_up     = crop[1];

  0005e	b8 04 00 00 00	 mov	 eax, 4
  00063	48 6b c0 01	 imul	 rax, rax, 1
  00067	48 8b 8c 24 10
	06 00 00	 mov	 rcx, QWORD PTR crop$[rsp]
  0006f	8b 04 01	 mov	 eax, DWORD PTR [rcx+rax]
  00072	89 44 24 34	 mov	 DWORD PTR crop_up$[rsp], eax

; 471  :     const int crop_right  = crop[2];

  00076	b8 04 00 00 00	 mov	 eax, 4
  0007b	48 6b c0 02	 imul	 rax, rax, 2
  0007f	48 8b 8c 24 10
	06 00 00	 mov	 rcx, QWORD PTR crop$[rsp]
  00087	8b 04 01	 mov	 eax, DWORD PTR [rcx+rax]
  0008a	89 44 24 38	 mov	 DWORD PTR crop_right$[rsp], eax

; 472  :     const int crop_bottom = crop[3];

  0008e	b8 04 00 00 00	 mov	 eax, 4
  00093	48 6b c0 03	 imul	 rax, rax, 3
  00097	48 8b 8c 24 10
	06 00 00	 mov	 rcx, QWORD PTR crop$[rsp]
  0009f	8b 04 01	 mov	 eax, DWORD PTR [rcx+rax]
  000a2	89 44 24 3c	 mov	 DWORD PTR crop_bottom$[rsp], eax

; 473  :     const auto y_range = thread_y_range(crop_up, height - crop_bottom, thread_id, thread_n);

  000a6	8b 44 24 3c	 mov	 eax, DWORD PTR crop_bottom$[rsp]
  000aa	8b 8c 24 f0 05
	00 00		 mov	 ecx, DWORD PTR height$[rsp]
  000b1	2b c8		 sub	 ecx, eax
  000b3	8b c1		 mov	 eax, ecx
  000b5	8b 8c 24 08 06
	00 00		 mov	 ecx, DWORD PTR thread_n$[rsp]
  000bc	89 4c 24 20	 mov	 DWORD PTR [rsp+32], ecx
  000c0	44 8b 8c 24 00
	06 00 00	 mov	 r9d, DWORD PTR thread_id$[rsp]
  000c8	44 8b c0	 mov	 r8d, eax
  000cb	8b 54 24 34	 mov	 edx, DWORD PTR crop_up$[rsp]
  000cf	48 8d 8c 24 78
	05 00 00	 lea	 rcx, QWORD PTR $T78[rsp]
  000d7	e8 00 00 00 00	 call	 ?thread_y_range@@YA?AUTHREAD_Y_RANGE@@HHHH@Z ; thread_y_range
  000dc	48 8d 4c 24 68	 lea	 rcx, QWORD PTR $T5[rsp]
  000e1	48 8b f9	 mov	 rdi, rcx
  000e4	48 8b f0	 mov	 rsi, rax
  000e7	b9 0c 00 00 00	 mov	 ecx, 12
  000ec	f3 a4		 rep movsb
  000ee	48 8d 44 24 48	 lea	 rax, QWORD PTR y_range$[rsp]
  000f3	48 8d 4c 24 68	 lea	 rcx, QWORD PTR $T5[rsp]
  000f8	48 8b f8	 mov	 rdi, rax
  000fb	48 8b f1	 mov	 rsi, rcx
  000fe	b9 0c 00 00 00	 mov	 ecx, 12
  00103	f3 a4		 rep movsb

; 474  :     uint8_t *dst0Line = (uint8_t *)dst[(plane_from >>  0) & 0xff] + dst_y_pitch_byte * y_range.start_dst;

  00105	b8 08 00 00 00	 mov	 eax, 8
  0010a	48 6b c0 02	 imul	 rax, rax, 2
  0010e	8b 8c 24 e8 05
	00 00		 mov	 ecx, DWORD PTR dst_y_pitch_byte$[rsp]
  00115	0f af 4c 24 4c	 imul	 ecx, DWORD PTR y_range$[rsp+4]
  0011a	48 63 c9	 movsxd	 rcx, ecx
  0011d	48 8b 94 24 c0
	05 00 00	 mov	 rdx, QWORD PTR dst$[rsp]
  00125	48 03 0c 02	 add	 rcx, QWORD PTR [rdx+rax]
  00129	48 8b c1	 mov	 rax, rcx
  0012c	48 89 44 24 78	 mov	 QWORD PTR dst0Line$[rsp], rax

; 475  :     uint8_t *dst1Line = (uint8_t *)dst[(plane_from >>  8) & 0xff] + dst_y_pitch_byte * y_range.start_dst;

  00131	b8 08 00 00 00	 mov	 eax, 8
  00136	48 6b c0 01	 imul	 rax, rax, 1
  0013a	8b 8c 24 e8 05
	00 00		 mov	 ecx, DWORD PTR dst_y_pitch_byte$[rsp]
  00141	0f af 4c 24 4c	 imul	 ecx, DWORD PTR y_range$[rsp+4]
  00146	48 63 c9	 movsxd	 rcx, ecx
  00149	48 8b 94 24 c0
	05 00 00	 mov	 rdx, QWORD PTR dst$[rsp]
  00151	48 03 0c 02	 add	 rcx, QWORD PTR [rdx+rax]
  00155	48 8b c1	 mov	 rax, rcx
  00158	48 89 84 24 80
	00 00 00	 mov	 QWORD PTR dst1Line$[rsp], rax

; 476  :     uint8_t *dst2Line = (uint8_t *)dst[(plane_from >> 16) & 0xff] + dst_y_pitch_byte * y_range.start_dst;

  00160	b8 08 00 00 00	 mov	 eax, 8
  00165	48 6b c0 00	 imul	 rax, rax, 0
  00169	8b 8c 24 e8 05
	00 00		 mov	 ecx, DWORD PTR dst_y_pitch_byte$[rsp]
  00170	0f af 4c 24 4c	 imul	 ecx, DWORD PTR y_range$[rsp+4]
  00175	48 63 c9	 movsxd	 rcx, ecx
  00178	48 8b 94 24 c0
	05 00 00	 mov	 rdx, QWORD PTR dst$[rsp]
  00180	48 03 0c 02	 add	 rcx, QWORD PTR [rdx+rax]
  00184	48 8b c1	 mov	 rax, rcx
  00187	48 89 84 24 88
	00 00 00	 mov	 QWORD PTR dst2Line$[rsp], rax

; 477  :     uint8_t *srcLine  = (uint8_t *)src[0] + src_y_pitch_byte * ((source_reverse) ? (height - crop_bottom - y_range.start_src - 1) : y_range.start_src) + crop_left * 3;

  0018f	33 c0		 xor	 eax, eax
  00191	83 f8 01	 cmp	 eax, 1
  00194	74 1e		 je	 SHORT $LN11@convert_rg
  00196	8b 44 24 3c	 mov	 eax, DWORD PTR crop_bottom$[rsp]
  0019a	8b 8c 24 f0 05
	00 00		 mov	 ecx, DWORD PTR height$[rsp]
  001a1	2b c8		 sub	 ecx, eax
  001a3	8b c1		 mov	 eax, ecx
  001a5	2b 44 24 48	 sub	 eax, DWORD PTR y_range$[rsp]
  001a9	ff c8		 dec	 eax
  001ab	89 84 24 88 05
	00 00		 mov	 DWORD PTR tv133[rsp], eax
  001b2	eb 0b		 jmp	 SHORT $LN12@convert_rg
$LN11@convert_rg:
  001b4	8b 44 24 48	 mov	 eax, DWORD PTR y_range$[rsp]
  001b8	89 84 24 88 05
	00 00		 mov	 DWORD PTR tv133[rsp], eax
$LN12@convert_rg:
  001bf	b8 08 00 00 00	 mov	 eax, 8
  001c4	48 6b c0 00	 imul	 rax, rax, 0
  001c8	8b 8c 24 d8 05
	00 00		 mov	 ecx, DWORD PTR src_y_pitch_byte$[rsp]
  001cf	0f af 8c 24 88
	05 00 00	 imul	 ecx, DWORD PTR tv133[rsp]
  001d7	48 63 c9	 movsxd	 rcx, ecx
  001da	48 8b 94 24 c8
	05 00 00	 mov	 rdx, QWORD PTR src$[rsp]
  001e2	48 8b 04 02	 mov	 rax, QWORD PTR [rdx+rax]
  001e6	48 03 c1	 add	 rax, rcx
  001e9	6b 4c 24 30 03	 imul	 ecx, DWORD PTR crop_left$[rsp], 3
  001ee	48 63 c9	 movsxd	 rcx, ecx
  001f1	48 03 c1	 add	 rax, rcx
  001f4	48 89 84 24 90
	00 00 00	 mov	 QWORD PTR srcLine$[rsp], rax

; 478  :     alignas(16) const char MASK_RGB_TO_RGB24[] = {
; 479  :         0,  3,  6,  9, 12, 15, -1, -1, -1, -1, -1, -1, -1, -1, -1, -1,

  001fc	c6 84 24 b0 00
	00 00 00	 mov	 BYTE PTR MASK_RGB_TO_RGB24$[rsp], 0
  00204	c6 84 24 b1 00
	00 00 03	 mov	 BYTE PTR MASK_RGB_TO_RGB24$[rsp+1], 3
  0020c	c6 84 24 b2 00
	00 00 06	 mov	 BYTE PTR MASK_RGB_TO_RGB24$[rsp+2], 6
  00214	c6 84 24 b3 00
	00 00 09	 mov	 BYTE PTR MASK_RGB_TO_RGB24$[rsp+3], 9
  0021c	c6 84 24 b4 00
	00 00 0c	 mov	 BYTE PTR MASK_RGB_TO_RGB24$[rsp+4], 12
  00224	c6 84 24 b5 00
	00 00 0f	 mov	 BYTE PTR MASK_RGB_TO_RGB24$[rsp+5], 15
  0022c	c6 84 24 b6 00
	00 00 ff	 mov	 BYTE PTR MASK_RGB_TO_RGB24$[rsp+6], -1
  00234	c6 84 24 b7 00
	00 00 ff	 mov	 BYTE PTR MASK_RGB_TO_RGB24$[rsp+7], -1
  0023c	c6 84 24 b8 00
	00 00 ff	 mov	 BYTE PTR MASK_RGB_TO_RGB24$[rsp+8], -1
  00244	c6 84 24 b9 00
	00 00 ff	 mov	 BYTE PTR MASK_RGB_TO_RGB24$[rsp+9], -1
  0024c	c6 84 24 ba 00
	00 00 ff	 mov	 BYTE PTR MASK_RGB_TO_RGB24$[rsp+10], -1
  00254	c6 84 24 bb 00
	00 00 ff	 mov	 BYTE PTR MASK_RGB_TO_RGB24$[rsp+11], -1
  0025c	c6 84 24 bc 00
	00 00 ff	 mov	 BYTE PTR MASK_RGB_TO_RGB24$[rsp+12], -1
  00264	c6 84 24 bd 00
	00 00 ff	 mov	 BYTE PTR MASK_RGB_TO_RGB24$[rsp+13], -1
  0026c	c6 84 24 be 00
	00 00 ff	 mov	 BYTE PTR MASK_RGB_TO_RGB24$[rsp+14], -1
  00274	c6 84 24 bf 00
	00 00 ff	 mov	 BYTE PTR MASK_RGB_TO_RGB24$[rsp+15], -1

; 480  :         1,  4,  7, 10, 13, -1, -1, -1, -1, -1, -1, -1, -1, -1, -1, -1,

  0027c	c6 84 24 c0 00
	00 00 01	 mov	 BYTE PTR MASK_RGB_TO_RGB24$[rsp+16], 1
  00284	c6 84 24 c1 00
	00 00 04	 mov	 BYTE PTR MASK_RGB_TO_RGB24$[rsp+17], 4
  0028c	c6 84 24 c2 00
	00 00 07	 mov	 BYTE PTR MASK_RGB_TO_RGB24$[rsp+18], 7
  00294	c6 84 24 c3 00
	00 00 0a	 mov	 BYTE PTR MASK_RGB_TO_RGB24$[rsp+19], 10
  0029c	c6 84 24 c4 00
	00 00 0d	 mov	 BYTE PTR MASK_RGB_TO_RGB24$[rsp+20], 13
  002a4	c6 84 24 c5 00
	00 00 ff	 mov	 BYTE PTR MASK_RGB_TO_RGB24$[rsp+21], -1
  002ac	c6 84 24 c6 00
	00 00 ff	 mov	 BYTE PTR MASK_RGB_TO_RGB24$[rsp+22], -1
  002b4	c6 84 24 c7 00
	00 00 ff	 mov	 BYTE PTR MASK_RGB_TO_RGB24$[rsp+23], -1
  002bc	c6 84 24 c8 00
	00 00 ff	 mov	 BYTE PTR MASK_RGB_TO_RGB24$[rsp+24], -1
  002c4	c6 84 24 c9 00
	00 00 ff	 mov	 BYTE PTR MASK_RGB_TO_RGB24$[rsp+25], -1
  002cc	c6 84 24 ca 00
	00 00 ff	 mov	 BYTE PTR MASK_RGB_TO_RGB24$[rsp+26], -1
  002d4	c6 84 24 cb 00
	00 00 ff	 mov	 BYTE PTR MASK_RGB_TO_RGB24$[rsp+27], -1
  002dc	c6 84 24 cc 00
	00 00 ff	 mov	 BYTE PTR MASK_RGB_TO_RGB24$[rsp+28], -1
  002e4	c6 84 24 cd 00
	00 00 ff	 mov	 BYTE PTR MASK_RGB_TO_RGB24$[rsp+29], -1
  002ec	c6 84 24 ce 00
	00 00 ff	 mov	 BYTE PTR MASK_RGB_TO_RGB24$[rsp+30], -1
  002f4	c6 84 24 cf 00
	00 00 ff	 mov	 BYTE PTR MASK_RGB_TO_RGB24$[rsp+31], -1

; 481  :         2,  5,  8, 11, 14, -1, -1, -1, -1, -1, -1, -1, -1, -1, -1, -1,

  002fc	c6 84 24 d0 00
	00 00 02	 mov	 BYTE PTR MASK_RGB_TO_RGB24$[rsp+32], 2
  00304	c6 84 24 d1 00
	00 00 05	 mov	 BYTE PTR MASK_RGB_TO_RGB24$[rsp+33], 5
  0030c	c6 84 24 d2 00
	00 00 08	 mov	 BYTE PTR MASK_RGB_TO_RGB24$[rsp+34], 8
  00314	c6 84 24 d3 00
	00 00 0b	 mov	 BYTE PTR MASK_RGB_TO_RGB24$[rsp+35], 11
  0031c	c6 84 24 d4 00
	00 00 0e	 mov	 BYTE PTR MASK_RGB_TO_RGB24$[rsp+36], 14
  00324	c6 84 24 d5 00
	00 00 ff	 mov	 BYTE PTR MASK_RGB_TO_RGB24$[rsp+37], -1
  0032c	c6 84 24 d6 00
	00 00 ff	 mov	 BYTE PTR MASK_RGB_TO_RGB24$[rsp+38], -1
  00334	c6 84 24 d7 00
	00 00 ff	 mov	 BYTE PTR MASK_RGB_TO_RGB24$[rsp+39], -1
  0033c	c6 84 24 d8 00
	00 00 ff	 mov	 BYTE PTR MASK_RGB_TO_RGB24$[rsp+40], -1
  00344	c6 84 24 d9 00
	00 00 ff	 mov	 BYTE PTR MASK_RGB_TO_RGB24$[rsp+41], -1
  0034c	c6 84 24 da 00
	00 00 ff	 mov	 BYTE PTR MASK_RGB_TO_RGB24$[rsp+42], -1
  00354	c6 84 24 db 00
	00 00 ff	 mov	 BYTE PTR MASK_RGB_TO_RGB24$[rsp+43], -1
  0035c	c6 84 24 dc 00
	00 00 ff	 mov	 BYTE PTR MASK_RGB_TO_RGB24$[rsp+44], -1
  00364	c6 84 24 dd 00
	00 00 ff	 mov	 BYTE PTR MASK_RGB_TO_RGB24$[rsp+45], -1
  0036c	c6 84 24 de 00
	00 00 ff	 mov	 BYTE PTR MASK_RGB_TO_RGB24$[rsp+46], -1
  00374	c6 84 24 df 00
	00 00 ff	 mov	 BYTE PTR MASK_RGB_TO_RGB24$[rsp+47], -1

; 482  :     };
; 483  :     __m128i xmask0 = _mm_load_si128((__m128i *)&MASK_RGB_TO_RGB24[0]);

  0037c	b8 01 00 00 00	 mov	 eax, 1
  00381	48 6b c0 00	 imul	 rax, rax, 0
  00385	48 8d 84 04 b0
	00 00 00	 lea	 rax, QWORD PTR MASK_RGB_TO_RGB24$[rsp+rax]
  0038d	f3 0f 6f 00	 movdqu	 xmm0, XMMWORD PTR [rax]
  00391	66 0f 7f 84 24
	00 01 00 00	 movdqa	 XMMWORD PTR $T6[rsp], xmm0
  0039a	66 0f 6f 84 24
	00 01 00 00	 movdqa	 xmm0, XMMWORD PTR $T6[rsp]
  003a3	66 0f 7f 84 24
	f0 00 00 00	 movdqa	 XMMWORD PTR xmask0$[rsp], xmm0

; 484  :     __m128i xmask1 = _mm_load_si128((__m128i *)&MASK_RGB_TO_RGB24[16]);

  003ac	b8 01 00 00 00	 mov	 eax, 1
  003b1	48 6b c0 10	 imul	 rax, rax, 16
  003b5	48 8d 84 04 b0
	00 00 00	 lea	 rax, QWORD PTR MASK_RGB_TO_RGB24$[rsp+rax]
  003bd	f3 0f 6f 00	 movdqu	 xmm0, XMMWORD PTR [rax]
  003c1	66 0f 7f 84 24
	20 01 00 00	 movdqa	 XMMWORD PTR $T7[rsp], xmm0
  003ca	66 0f 6f 84 24
	20 01 00 00	 movdqa	 xmm0, XMMWORD PTR $T7[rsp]
  003d3	66 0f 7f 84 24
	10 01 00 00	 movdqa	 XMMWORD PTR xmask1$[rsp], xmm0

; 485  :     __m128i xmask2 = _mm_load_si128((__m128i *)&MASK_RGB_TO_RGB24[32]);

  003dc	b8 01 00 00 00	 mov	 eax, 1
  003e1	48 6b c0 20	 imul	 rax, rax, 32		; 00000020H
  003e5	48 8d 84 04 b0
	00 00 00	 lea	 rax, QWORD PTR MASK_RGB_TO_RGB24$[rsp+rax]
  003ed	f3 0f 6f 00	 movdqu	 xmm0, XMMWORD PTR [rax]
  003f1	66 0f 7f 84 24
	40 01 00 00	 movdqa	 XMMWORD PTR $T8[rsp], xmm0
  003fa	66 0f 6f 84 24
	40 01 00 00	 movdqa	 xmm0, XMMWORD PTR $T8[rsp]
  00403	66 0f 7f 84 24
	30 01 00 00	 movdqa	 XMMWORD PTR xmask2$[rsp], xmm0

; 486  :     __m128i xmask3 = _mm_set1_epi8(-1);

  0040c	66 0f 6f 05 00
	00 00 00	 movdqa	 xmm0, XMMWORD PTR __xmm@ffffffffffffffffffffffffffffffff
  00414	66 0f 7f 84 24
	60 01 00 00	 movdqa	 XMMWORD PTR $T9[rsp], xmm0
  0041d	66 0f 6f 84 24
	60 01 00 00	 movdqa	 xmm0, XMMWORD PTR $T9[rsp]
  00426	66 0f 7f 84 24
	50 01 00 00	 movdqa	 XMMWORD PTR xmask3$[rsp], xmm0

; 487  :     if (source_reverse) {

  0042f	33 c0		 xor	 eax, eax
  00431	83 f8 01	 cmp	 eax, 1
  00434	74 0f		 je	 SHORT $LN8@convert_rg

; 488  :         src_y_pitch_byte = -1 * src_y_pitch_byte;

  00436	6b 84 24 d8 05
	00 00 ff	 imul	 eax, DWORD PTR src_y_pitch_byte$[rsp], -1
  0043e	89 84 24 d8 05
	00 00		 mov	 DWORD PTR src_y_pitch_byte$[rsp], eax
$LN8@convert_rg:

; 489  :     }
; 490  :     for (int y = 0; y < y_range.len; y++, srcLine += src_y_pitch_byte, dst0Line += dst_y_pitch_byte, dst1Line += dst_y_pitch_byte, dst2Line += dst_y_pitch_byte) {

  00445	c7 84 24 70 01
	00 00 00 00 00
	00		 mov	 DWORD PTR y$10[rsp], 0
  00450	e9 82 00 00 00	 jmp	 $LN4@convert_rg
$LN2@convert_rg:
  00455	8b 84 24 70 01
	00 00		 mov	 eax, DWORD PTR y$10[rsp]
  0045c	ff c0		 inc	 eax
  0045e	89 84 24 70 01
	00 00		 mov	 DWORD PTR y$10[rsp], eax
  00465	48 63 84 24 d8
	05 00 00	 movsxd	 rax, DWORD PTR src_y_pitch_byte$[rsp]
  0046d	48 8b 8c 24 90
	00 00 00	 mov	 rcx, QWORD PTR srcLine$[rsp]
  00475	48 03 c8	 add	 rcx, rax
  00478	48 8b c1	 mov	 rax, rcx
  0047b	48 89 84 24 90
	00 00 00	 mov	 QWORD PTR srcLine$[rsp], rax
  00483	48 63 84 24 e8
	05 00 00	 movsxd	 rax, DWORD PTR dst_y_pitch_byte$[rsp]
  0048b	48 8b 4c 24 78	 mov	 rcx, QWORD PTR dst0Line$[rsp]
  00490	48 03 c8	 add	 rcx, rax
  00493	48 8b c1	 mov	 rax, rcx
  00496	48 89 44 24 78	 mov	 QWORD PTR dst0Line$[rsp], rax
  0049b	48 63 84 24 e8
	05 00 00	 movsxd	 rax, DWORD PTR dst_y_pitch_byte$[rsp]
  004a3	48 8b 8c 24 80
	00 00 00	 mov	 rcx, QWORD PTR dst1Line$[rsp]
  004ab	48 03 c8	 add	 rcx, rax
  004ae	48 8b c1	 mov	 rax, rcx
  004b1	48 89 84 24 80
	00 00 00	 mov	 QWORD PTR dst1Line$[rsp], rax
  004b9	48 63 84 24 e8
	05 00 00	 movsxd	 rax, DWORD PTR dst_y_pitch_byte$[rsp]
  004c1	48 8b 8c 24 88
	00 00 00	 mov	 rcx, QWORD PTR dst2Line$[rsp]
  004c9	48 03 c8	 add	 rcx, rax
  004cc	48 8b c1	 mov	 rax, rcx
  004cf	48 89 84 24 88
	00 00 00	 mov	 QWORD PTR dst2Line$[rsp], rax
$LN4@convert_rg:
  004d7	8b 44 24 50	 mov	 eax, DWORD PTR y_range$[rsp+8]
  004db	39 84 24 70 01
	00 00		 cmp	 DWORD PTR y$10[rsp], eax
  004e2	0f 8d e0 08 00
	00		 jge	 $LN3@convert_rg

; 491  :         uint8_t *ptr_src  = srcLine;

  004e8	48 8b 84 24 90
	00 00 00	 mov	 rax, QWORD PTR srcLine$[rsp]
  004f0	48 89 84 24 78
	01 00 00	 mov	 QWORD PTR ptr_src$11[rsp], rax

; 492  :         uint8_t *ptr_dst0 = dst0Line;

  004f8	48 8b 44 24 78	 mov	 rax, QWORD PTR dst0Line$[rsp]
  004fd	48 89 84 24 80
	01 00 00	 mov	 QWORD PTR ptr_dst0$12[rsp], rax

; 493  :         uint8_t *ptr_dst1 = dst1Line;

  00505	48 8b 84 24 80
	00 00 00	 mov	 rax, QWORD PTR dst1Line$[rsp]
  0050d	48 89 84 24 88
	01 00 00	 mov	 QWORD PTR ptr_dst1$13[rsp], rax

; 494  :         uint8_t *ptr_dst2 = dst2Line;

  00515	48 8b 84 24 88
	00 00 00	 mov	 rax, QWORD PTR dst2Line$[rsp]
  0051d	48 89 84 24 90
	01 00 00	 mov	 QWORD PTR ptr_dst2$14[rsp], rax

; 495  :         int x = 0, x_fin = width - crop_left - crop_right - 16;

  00525	c7 84 24 98 01
	00 00 00 00 00
	00		 mov	 DWORD PTR x$15[rsp], 0
  00530	8b 44 24 30	 mov	 eax, DWORD PTR crop_left$[rsp]
  00534	8b 8c 24 d0 05
	00 00		 mov	 ecx, DWORD PTR width$[rsp]
  0053b	2b c8		 sub	 ecx, eax
  0053d	8b c1		 mov	 eax, ecx
  0053f	2b 44 24 38	 sub	 eax, DWORD PTR crop_right$[rsp]
  00543	83 e8 10	 sub	 eax, 16
  00546	89 84 24 9c 01
	00 00		 mov	 DWORD PTR x_fin$16[rsp], eax

; 496  :         for (; x < x_fin; x += 16, ptr_src += 48, ptr_dst0 += 16, ptr_dst1 += 16, ptr_dst2 += 16) {

  0054d	eb 61		 jmp	 SHORT $LN7@convert_rg
$LN5@convert_rg:
  0054f	8b 84 24 98 01
	00 00		 mov	 eax, DWORD PTR x$15[rsp]
  00556	83 c0 10	 add	 eax, 16
  00559	89 84 24 98 01
	00 00		 mov	 DWORD PTR x$15[rsp], eax
  00560	48 8b 84 24 78
	01 00 00	 mov	 rax, QWORD PTR ptr_src$11[rsp]
  00568	48 83 c0 30	 add	 rax, 48			; 00000030H
  0056c	48 89 84 24 78
	01 00 00	 mov	 QWORD PTR ptr_src$11[rsp], rax
  00574	48 8b 84 24 80
	01 00 00	 mov	 rax, QWORD PTR ptr_dst0$12[rsp]
  0057c	48 83 c0 10	 add	 rax, 16
  00580	48 89 84 24 80
	01 00 00	 mov	 QWORD PTR ptr_dst0$12[rsp], rax
  00588	48 8b 84 24 88
	01 00 00	 mov	 rax, QWORD PTR ptr_dst1$13[rsp]
  00590	48 83 c0 10	 add	 rax, 16
  00594	48 89 84 24 88
	01 00 00	 mov	 QWORD PTR ptr_dst1$13[rsp], rax
  0059c	48 8b 84 24 90
	01 00 00	 mov	 rax, QWORD PTR ptr_dst2$14[rsp]
  005a4	48 83 c0 10	 add	 rax, 16
  005a8	48 89 84 24 90
	01 00 00	 mov	 QWORD PTR ptr_dst2$14[rsp], rax
$LN7@convert_rg:
  005b0	8b 84 24 9c 01
	00 00		 mov	 eax, DWORD PTR x_fin$16[rsp]
  005b7	39 84 24 98 01
	00 00		 cmp	 DWORD PTR x$15[rsp], eax
  005be	0f 8d af 03 00
	00		 jge	 $LN6@convert_rg

; 497  :             __m128i xSrc0 = _mm_loadu_si128((__m128i *)(ptr_src +  0));

  005c4	48 8b 84 24 78
	01 00 00	 mov	 rax, QWORD PTR ptr_src$11[rsp]
  005cc	f3 0f 6f 00	 movdqu	 xmm0, XMMWORD PTR [rax]
  005d0	66 0f 7f 84 24
	b0 01 00 00	 movdqa	 XMMWORD PTR $T18[rsp], xmm0
  005d9	66 0f 6f 84 24
	b0 01 00 00	 movdqa	 xmm0, XMMWORD PTR $T18[rsp]
  005e2	66 0f 7f 84 24
	a0 01 00 00	 movdqa	 XMMWORD PTR xSrc0$17[rsp], xmm0

; 498  :             __m128i xSrc1 = _mm_loadu_si128((__m128i *)(ptr_src + 16));

  005eb	48 8b 84 24 78
	01 00 00	 mov	 rax, QWORD PTR ptr_src$11[rsp]
  005f3	48 83 c0 10	 add	 rax, 16
  005f7	f3 0f 6f 00	 movdqu	 xmm0, XMMWORD PTR [rax]
  005fb	66 0f 7f 84 24
	d0 01 00 00	 movdqa	 XMMWORD PTR $T20[rsp], xmm0
  00604	66 0f 6f 84 24
	d0 01 00 00	 movdqa	 xmm0, XMMWORD PTR $T20[rsp]
  0060d	66 0f 7f 84 24
	c0 01 00 00	 movdqa	 XMMWORD PTR xSrc1$19[rsp], xmm0

; 499  :             __m128i xSrc2 = _mm_loadu_si128((__m128i *)(ptr_src + 32));

  00616	48 8b 84 24 78
	01 00 00	 mov	 rax, QWORD PTR ptr_src$11[rsp]
  0061e	48 83 c0 20	 add	 rax, 32			; 00000020H
  00622	f3 0f 6f 00	 movdqu	 xmm0, XMMWORD PTR [rax]
  00626	66 0f 7f 84 24
	f0 01 00 00	 movdqa	 XMMWORD PTR $T22[rsp], xmm0
  0062f	66 0f 6f 84 24
	f0 01 00 00	 movdqa	 xmm0, XMMWORD PTR $T22[rsp]
  00638	66 0f 7f 84 24
	e0 01 00 00	 movdqa	 XMMWORD PTR xSrc2$21[rsp], xmm0

; 500  :             __m128i x0 = _mm_shuffle_epi8(xSrc0, xmask0);

  00641	66 0f 6f 84 24
	a0 01 00 00	 movdqa	 xmm0, XMMWORD PTR xSrc0$17[rsp]
  0064a	66 0f 38 00 84
	24 f0 00 00 00	 pshufb	 xmm0, XMMWORD PTR xmask0$[rsp]
  00654	66 0f 7f 84 24
	10 02 00 00	 movdqa	 XMMWORD PTR $T24[rsp], xmm0
  0065d	66 0f 6f 84 24
	10 02 00 00	 movdqa	 xmm0, XMMWORD PTR $T24[rsp]
  00666	66 0f 7f 84 24
	00 02 00 00	 movdqa	 XMMWORD PTR x0$23[rsp], xmm0

; 501  :             __m128i x1 = _mm_shuffle_epi8(xSrc0, xmask1);

  0066f	66 0f 6f 84 24
	a0 01 00 00	 movdqa	 xmm0, XMMWORD PTR xSrc0$17[rsp]
  00678	66 0f 38 00 84
	24 10 01 00 00	 pshufb	 xmm0, XMMWORD PTR xmask1$[rsp]
  00682	66 0f 7f 84 24
	30 02 00 00	 movdqa	 XMMWORD PTR $T26[rsp], xmm0
  0068b	66 0f 6f 84 24
	30 02 00 00	 movdqa	 xmm0, XMMWORD PTR $T26[rsp]
  00694	66 0f 7f 84 24
	20 02 00 00	 movdqa	 XMMWORD PTR x1$25[rsp], xmm0

; 502  :             __m128i x2 = _mm_shuffle_epi8(xSrc0, xmask2);

  0069d	66 0f 6f 84 24
	a0 01 00 00	 movdqa	 xmm0, XMMWORD PTR xSrc0$17[rsp]
  006a6	66 0f 38 00 84
	24 30 01 00 00	 pshufb	 xmm0, XMMWORD PTR xmask2$[rsp]
  006b0	66 0f 7f 84 24
	50 02 00 00	 movdqa	 XMMWORD PTR $T28[rsp], xmm0
  006b9	66 0f 6f 84 24
	50 02 00 00	 movdqa	 xmm0, XMMWORD PTR $T28[rsp]
  006c2	66 0f 7f 84 24
	40 02 00 00	 movdqa	 XMMWORD PTR x2$27[rsp], xmm0

; 503  :             x0 = _mm_or_si128(x0, _mm_shuffle_epi8(xSrc1, _mm_alignr_epi8(xmask2, xmask3, 10)));

  006cb	66 0f 6f 84 24
	30 01 00 00	 movdqa	 xmm0, XMMWORD PTR xmask2$[rsp]
  006d4	66 0f 3a 0f 84
	24 50 01 00 00
	0a		 palignr xmm0, XMMWORD PTR xmask3$[rsp], 10
  006df	66 0f 7f 84 24
	60 02 00 00	 movdqa	 XMMWORD PTR $T29[rsp], xmm0
  006e8	66 0f 6f 84 24
	c0 01 00 00	 movdqa	 xmm0, XMMWORD PTR xSrc1$19[rsp]
  006f1	66 0f 38 00 84
	24 60 02 00 00	 pshufb	 xmm0, XMMWORD PTR $T29[rsp]
  006fb	66 0f 7f 84 24
	70 02 00 00	 movdqa	 XMMWORD PTR $T30[rsp], xmm0
  00704	66 0f 6f 84 24
	00 02 00 00	 movdqa	 xmm0, XMMWORD PTR x0$23[rsp]
  0070d	66 0f eb 84 24
	70 02 00 00	 por	 xmm0, XMMWORD PTR $T30[rsp]
  00716	66 0f 7f 84 24
	80 02 00 00	 movdqa	 XMMWORD PTR $T31[rsp], xmm0
  0071f	66 0f 6f 84 24
	80 02 00 00	 movdqa	 xmm0, XMMWORD PTR $T31[rsp]
  00728	66 0f 7f 84 24
	00 02 00 00	 movdqa	 XMMWORD PTR x0$23[rsp], xmm0

; 504  :             x1 = _mm_or_si128(x1, _mm_shuffle_epi8(xSrc1, _mm_alignr_epi8(xmask0, xmask3, 11)));

  00731	66 0f 6f 84 24
	f0 00 00 00	 movdqa	 xmm0, XMMWORD PTR xmask0$[rsp]
  0073a	66 0f 3a 0f 84
	24 50 01 00 00
	0b		 palignr xmm0, XMMWORD PTR xmask3$[rsp], 11
  00745	66 0f 7f 84 24
	90 02 00 00	 movdqa	 XMMWORD PTR $T32[rsp], xmm0
  0074e	66 0f 6f 84 24
	c0 01 00 00	 movdqa	 xmm0, XMMWORD PTR xSrc1$19[rsp]
  00757	66 0f 38 00 84
	24 90 02 00 00	 pshufb	 xmm0, XMMWORD PTR $T32[rsp]
  00761	66 0f 7f 84 24
	a0 02 00 00	 movdqa	 XMMWORD PTR $T33[rsp], xmm0
  0076a	66 0f 6f 84 24
	20 02 00 00	 movdqa	 xmm0, XMMWORD PTR x1$25[rsp]
  00773	66 0f eb 84 24
	a0 02 00 00	 por	 xmm0, XMMWORD PTR $T33[rsp]
  0077c	66 0f 7f 84 24
	b0 02 00 00	 movdqa	 XMMWORD PTR $T34[rsp], xmm0
  00785	66 0f 6f 84 24
	b0 02 00 00	 movdqa	 xmm0, XMMWORD PTR $T34[rsp]
  0078e	66 0f 7f 84 24
	20 02 00 00	 movdqa	 XMMWORD PTR x1$25[rsp], xmm0

; 505  :             x2 = _mm_or_si128(x2, _mm_shuffle_epi8(xSrc1, _mm_alignr_epi8(xmask1, xmask3, 11)));

  00797	66 0f 6f 84 24
	10 01 00 00	 movdqa	 xmm0, XMMWORD PTR xmask1$[rsp]
  007a0	66 0f 3a 0f 84
	24 50 01 00 00
	0b		 palignr xmm0, XMMWORD PTR xmask3$[rsp], 11
  007ab	66 0f 7f 84 24
	c0 02 00 00	 movdqa	 XMMWORD PTR $T35[rsp], xmm0
  007b4	66 0f 6f 84 24
	c0 01 00 00	 movdqa	 xmm0, XMMWORD PTR xSrc1$19[rsp]
  007bd	66 0f 38 00 84
	24 c0 02 00 00	 pshufb	 xmm0, XMMWORD PTR $T35[rsp]
  007c7	66 0f 7f 84 24
	d0 02 00 00	 movdqa	 XMMWORD PTR $T36[rsp], xmm0
  007d0	66 0f 6f 84 24
	40 02 00 00	 movdqa	 xmm0, XMMWORD PTR x2$27[rsp]
  007d9	66 0f eb 84 24
	d0 02 00 00	 por	 xmm0, XMMWORD PTR $T36[rsp]
  007e2	66 0f 7f 84 24
	e0 02 00 00	 movdqa	 XMMWORD PTR $T37[rsp], xmm0
  007eb	66 0f 6f 84 24
	e0 02 00 00	 movdqa	 xmm0, XMMWORD PTR $T37[rsp]
  007f4	66 0f 7f 84 24
	40 02 00 00	 movdqa	 XMMWORD PTR x2$27[rsp], xmm0

; 506  :             x0 = _mm_or_si128(x0, _mm_shuffle_epi8(xSrc2, _mm_alignr_epi8(xmask1, xmask3,  5)));

  007fd	66 0f 6f 84 24
	10 01 00 00	 movdqa	 xmm0, XMMWORD PTR xmask1$[rsp]
  00806	66 0f 3a 0f 84
	24 50 01 00 00
	05		 palignr xmm0, XMMWORD PTR xmask3$[rsp], 5
  00811	66 0f 7f 84 24
	f0 02 00 00	 movdqa	 XMMWORD PTR $T38[rsp], xmm0
  0081a	66 0f 6f 84 24
	e0 01 00 00	 movdqa	 xmm0, XMMWORD PTR xSrc2$21[rsp]
  00823	66 0f 38 00 84
	24 f0 02 00 00	 pshufb	 xmm0, XMMWORD PTR $T38[rsp]
  0082d	66 0f 7f 84 24
	00 03 00 00	 movdqa	 XMMWORD PTR $T39[rsp], xmm0
  00836	66 0f 6f 84 24
	00 02 00 00	 movdqa	 xmm0, XMMWORD PTR x0$23[rsp]
  0083f	66 0f eb 84 24
	00 03 00 00	 por	 xmm0, XMMWORD PTR $T39[rsp]
  00848	66 0f 7f 84 24
	10 03 00 00	 movdqa	 XMMWORD PTR $T40[rsp], xmm0
  00851	66 0f 6f 84 24
	10 03 00 00	 movdqa	 xmm0, XMMWORD PTR $T40[rsp]
  0085a	66 0f 7f 84 24
	00 02 00 00	 movdqa	 XMMWORD PTR x0$23[rsp], xmm0

; 507  :             x1 = _mm_or_si128(x1, _mm_shuffle_epi8(xSrc2, _mm_alignr_epi8(xmask2, xmask3,  5)));

  00863	66 0f 6f 84 24
	30 01 00 00	 movdqa	 xmm0, XMMWORD PTR xmask2$[rsp]
  0086c	66 0f 3a 0f 84
	24 50 01 00 00
	05		 palignr xmm0, XMMWORD PTR xmask3$[rsp], 5
  00877	66 0f 7f 84 24
	20 03 00 00	 movdqa	 XMMWORD PTR $T41[rsp], xmm0
  00880	66 0f 6f 84 24
	e0 01 00 00	 movdqa	 xmm0, XMMWORD PTR xSrc2$21[rsp]
  00889	66 0f 38 00 84
	24 20 03 00 00	 pshufb	 xmm0, XMMWORD PTR $T41[rsp]
  00893	66 0f 7f 84 24
	30 03 00 00	 movdqa	 XMMWORD PTR $T42[rsp], xmm0
  0089c	66 0f 6f 84 24
	20 02 00 00	 movdqa	 xmm0, XMMWORD PTR x1$25[rsp]
  008a5	66 0f eb 84 24
	30 03 00 00	 por	 xmm0, XMMWORD PTR $T42[rsp]
  008ae	66 0f 7f 84 24
	40 03 00 00	 movdqa	 XMMWORD PTR $T43[rsp], xmm0
  008b7	66 0f 6f 84 24
	40 03 00 00	 movdqa	 xmm0, XMMWORD PTR $T43[rsp]
  008c0	66 0f 7f 84 24
	20 02 00 00	 movdqa	 XMMWORD PTR x1$25[rsp], xmm0

; 508  :             x2 = _mm_or_si128(x2, _mm_shuffle_epi8(xSrc2, _mm_alignr_epi8(xmask0, xmask3,  6)));

  008c9	66 0f 6f 84 24
	f0 00 00 00	 movdqa	 xmm0, XMMWORD PTR xmask0$[rsp]
  008d2	66 0f 3a 0f 84
	24 50 01 00 00
	06		 palignr xmm0, XMMWORD PTR xmask3$[rsp], 6
  008dd	66 0f 7f 84 24
	50 03 00 00	 movdqa	 XMMWORD PTR $T44[rsp], xmm0
  008e6	66 0f 6f 84 24
	e0 01 00 00	 movdqa	 xmm0, XMMWORD PTR xSrc2$21[rsp]
  008ef	66 0f 38 00 84
	24 50 03 00 00	 pshufb	 xmm0, XMMWORD PTR $T44[rsp]
  008f9	66 0f 7f 84 24
	60 03 00 00	 movdqa	 XMMWORD PTR $T45[rsp], xmm0
  00902	66 0f 6f 84 24
	40 02 00 00	 movdqa	 xmm0, XMMWORD PTR x2$27[rsp]
  0090b	66 0f eb 84 24
	60 03 00 00	 por	 xmm0, XMMWORD PTR $T45[rsp]
  00914	66 0f 7f 84 24
	70 03 00 00	 movdqa	 XMMWORD PTR $T46[rsp], xmm0
  0091d	66 0f 6f 84 24
	70 03 00 00	 movdqa	 xmm0, XMMWORD PTR $T46[rsp]
  00926	66 0f 7f 84 24
	40 02 00 00	 movdqa	 XMMWORD PTR x2$27[rsp], xmm0

; 509  :             _mm_storeu_si128((__m128i *)ptr_dst0, x0);

  0092f	48 8b 84 24 80
	01 00 00	 mov	 rax, QWORD PTR ptr_dst0$12[rsp]
  00937	66 0f 6f 84 24
	00 02 00 00	 movdqa	 xmm0, XMMWORD PTR x0$23[rsp]
  00940	f3 0f 7f 00	 movdqu	 XMMWORD PTR [rax], xmm0

; 510  :             _mm_storeu_si128((__m128i *)ptr_dst1, x1);

  00944	48 8b 84 24 88
	01 00 00	 mov	 rax, QWORD PTR ptr_dst1$13[rsp]
  0094c	66 0f 6f 84 24
	20 02 00 00	 movdqa	 xmm0, XMMWORD PTR x1$25[rsp]
  00955	f3 0f 7f 00	 movdqu	 XMMWORD PTR [rax], xmm0

; 511  :             _mm_storeu_si128((__m128i *)ptr_dst2, x2);

  00959	48 8b 84 24 90
	01 00 00	 mov	 rax, QWORD PTR ptr_dst2$14[rsp]
  00961	66 0f 6f 84 24
	40 02 00 00	 movdqa	 xmm0, XMMWORD PTR x2$27[rsp]
  0096a	f3 0f 7f 00	 movdqu	 XMMWORD PTR [rax], xmm0

; 512  :         }

  0096e	e9 dc fb ff ff	 jmp	 $LN5@convert_rg
$LN6@convert_rg:

; 513  :         if (width & 15) {

  00973	8b 84 24 d0 05
	00 00		 mov	 eax, DWORD PTR width$[rsp]
  0097a	83 e0 0f	 and	 eax, 15
  0097d	85 c0		 test	 eax, eax
  0097f	0f 84 94 00 00
	00		 je	 $LN9@convert_rg

; 514  :             int x_offset = (16 - (width & 15));

  00985	8b 84 24 d0 05
	00 00		 mov	 eax, DWORD PTR width$[rsp]
  0098c	83 e0 0f	 and	 eax, 15
  0098f	b9 10 00 00 00	 mov	 ecx, 16
  00994	2b c8		 sub	 ecx, eax
  00996	8b c1		 mov	 eax, ecx
  00998	89 84 24 80 03
	00 00		 mov	 DWORD PTR x_offset$47[rsp], eax

; 515  :             ptr_src -= x_offset * 3;

  0099f	6b 84 24 80 03
	00 00 03	 imul	 eax, DWORD PTR x_offset$47[rsp], 3
  009a7	48 98		 cdqe
  009a9	48 8b 8c 24 78
	01 00 00	 mov	 rcx, QWORD PTR ptr_src$11[rsp]
  009b1	48 2b c8	 sub	 rcx, rax
  009b4	48 8b c1	 mov	 rax, rcx
  009b7	48 89 84 24 78
	01 00 00	 mov	 QWORD PTR ptr_src$11[rsp], rax

; 516  :             ptr_dst0 -= x_offset;

  009bf	48 63 84 24 80
	03 00 00	 movsxd	 rax, DWORD PTR x_offset$47[rsp]
  009c7	48 8b 8c 24 80
	01 00 00	 mov	 rcx, QWORD PTR ptr_dst0$12[rsp]
  009cf	48 2b c8	 sub	 rcx, rax
  009d2	48 8b c1	 mov	 rax, rcx
  009d5	48 89 84 24 80
	01 00 00	 mov	 QWORD PTR ptr_dst0$12[rsp], rax

; 517  :             ptr_dst1 -= x_offset;

  009dd	48 63 84 24 80
	03 00 00	 movsxd	 rax, DWORD PTR x_offset$47[rsp]
  009e5	48 8b 8c 24 88
	01 00 00	 mov	 rcx, QWORD PTR ptr_dst1$13[rsp]
  009ed	48 2b c8	 sub	 rcx, rax
  009f0	48 8b c1	 mov	 rax, rcx
  009f3	48 89 84 24 88
	01 00 00	 mov	 QWORD PTR ptr_dst1$13[rsp], rax

; 518  :             ptr_dst2 -= x_offset;

  009fb	48 63 84 24 80
	03 00 00	 movsxd	 rax, DWORD PTR x_offset$47[rsp]
  00a03	48 8b 8c 24 90
	01 00 00	 mov	 rcx, QWORD PTR ptr_dst2$14[rsp]
  00a0b	48 2b c8	 sub	 rcx, rax
  00a0e	48 8b c1	 mov	 rax, rcx
  00a11	48 89 84 24 90
	01 00 00	 mov	 QWORD PTR ptr_dst2$14[rsp], rax
$LN9@convert_rg:

; 519  :         }
; 520  :         __m128i xSrc0 = _mm_loadu_si128((__m128i *)(ptr_src +  0));

  00a19	48 8b 84 24 78
	01 00 00	 mov	 rax, QWORD PTR ptr_src$11[rsp]
  00a21	f3 0f 6f 00	 movdqu	 xmm0, XMMWORD PTR [rax]
  00a25	66 0f 7f 84 24
	a0 03 00 00	 movdqa	 XMMWORD PTR $T49[rsp], xmm0
  00a2e	66 0f 6f 84 24
	a0 03 00 00	 movdqa	 xmm0, XMMWORD PTR $T49[rsp]
  00a37	66 0f 7f 84 24
	90 03 00 00	 movdqa	 XMMWORD PTR xSrc0$48[rsp], xmm0

; 521  :         __m128i xSrc1 = _mm_loadu_si128((__m128i *)(ptr_src + 16));

  00a40	48 8b 84 24 78
	01 00 00	 mov	 rax, QWORD PTR ptr_src$11[rsp]
  00a48	48 83 c0 10	 add	 rax, 16
  00a4c	f3 0f 6f 00	 movdqu	 xmm0, XMMWORD PTR [rax]
  00a50	66 0f 7f 84 24
	c0 03 00 00	 movdqa	 XMMWORD PTR $T51[rsp], xmm0
  00a59	66 0f 6f 84 24
	c0 03 00 00	 movdqa	 xmm0, XMMWORD PTR $T51[rsp]
  00a62	66 0f 7f 84 24
	b0 03 00 00	 movdqa	 XMMWORD PTR xSrc1$50[rsp], xmm0

; 522  :         __m128i xSrc2 = _mm_loadu_si128((__m128i *)(ptr_src + 32));

  00a6b	48 8b 84 24 78
	01 00 00	 mov	 rax, QWORD PTR ptr_src$11[rsp]
  00a73	48 83 c0 20	 add	 rax, 32			; 00000020H
  00a77	f3 0f 6f 00	 movdqu	 xmm0, XMMWORD PTR [rax]
  00a7b	66 0f 7f 84 24
	e0 03 00 00	 movdqa	 XMMWORD PTR $T53[rsp], xmm0
  00a84	66 0f 6f 84 24
	e0 03 00 00	 movdqa	 xmm0, XMMWORD PTR $T53[rsp]
  00a8d	66 0f 7f 84 24
	d0 03 00 00	 movdqa	 XMMWORD PTR xSrc2$52[rsp], xmm0

; 523  :         __m128i x0 = _mm_shuffle_epi8(xSrc0, xmask0);

  00a96	66 0f 6f 84 24
	90 03 00 00	 movdqa	 xmm0, XMMWORD PTR xSrc0$48[rsp]
  00a9f	66 0f 38 00 84
	24 f0 00 00 00	 pshufb	 xmm0, XMMWORD PTR xmask0$[rsp]
  00aa9	66 0f 7f 84 24
	00 04 00 00	 movdqa	 XMMWORD PTR $T55[rsp], xmm0
  00ab2	66 0f 6f 84 24
	00 04 00 00	 movdqa	 xmm0, XMMWORD PTR $T55[rsp]
  00abb	66 0f 7f 84 24
	f0 03 00 00	 movdqa	 XMMWORD PTR x0$54[rsp], xmm0

; 524  :         __m128i x1 = _mm_shuffle_epi8(xSrc0, xmask1);

  00ac4	66 0f 6f 84 24
	90 03 00 00	 movdqa	 xmm0, XMMWORD PTR xSrc0$48[rsp]
  00acd	66 0f 38 00 84
	24 10 01 00 00	 pshufb	 xmm0, XMMWORD PTR xmask1$[rsp]
  00ad7	66 0f 7f 84 24
	20 04 00 00	 movdqa	 XMMWORD PTR $T57[rsp], xmm0
  00ae0	66 0f 6f 84 24
	20 04 00 00	 movdqa	 xmm0, XMMWORD PTR $T57[rsp]
  00ae9	66 0f 7f 84 24
	10 04 00 00	 movdqa	 XMMWORD PTR x1$56[rsp], xmm0

; 525  :         __m128i x2 = _mm_shuffle_epi8(xSrc0, xmask2);

  00af2	66 0f 6f 84 24
	90 03 00 00	 movdqa	 xmm0, XMMWORD PTR xSrc0$48[rsp]
  00afb	66 0f 38 00 84
	24 30 01 00 00	 pshufb	 xmm0, XMMWORD PTR xmask2$[rsp]
  00b05	66 0f 7f 84 24
	40 04 00 00	 movdqa	 XMMWORD PTR $T59[rsp], xmm0
  00b0e	66 0f 6f 84 24
	40 04 00 00	 movdqa	 xmm0, XMMWORD PTR $T59[rsp]
  00b17	66 0f 7f 84 24
	30 04 00 00	 movdqa	 XMMWORD PTR x2$58[rsp], xmm0

; 526  :         x0 = _mm_or_si128(x0, _mm_shuffle_epi8(xSrc1, _mm_alignr_epi8(xmask2, xmask3, 10)));

  00b20	66 0f 6f 84 24
	30 01 00 00	 movdqa	 xmm0, XMMWORD PTR xmask2$[rsp]
  00b29	66 0f 3a 0f 84
	24 50 01 00 00
	0a		 palignr xmm0, XMMWORD PTR xmask3$[rsp], 10
  00b34	66 0f 7f 84 24
	50 04 00 00	 movdqa	 XMMWORD PTR $T60[rsp], xmm0
  00b3d	66 0f 6f 84 24
	b0 03 00 00	 movdqa	 xmm0, XMMWORD PTR xSrc1$50[rsp]
  00b46	66 0f 38 00 84
	24 50 04 00 00	 pshufb	 xmm0, XMMWORD PTR $T60[rsp]
  00b50	66 0f 7f 84 24
	60 04 00 00	 movdqa	 XMMWORD PTR $T61[rsp], xmm0
  00b59	66 0f 6f 84 24
	f0 03 00 00	 movdqa	 xmm0, XMMWORD PTR x0$54[rsp]
  00b62	66 0f eb 84 24
	60 04 00 00	 por	 xmm0, XMMWORD PTR $T61[rsp]
  00b6b	66 0f 7f 84 24
	70 04 00 00	 movdqa	 XMMWORD PTR $T62[rsp], xmm0
  00b74	66 0f 6f 84 24
	70 04 00 00	 movdqa	 xmm0, XMMWORD PTR $T62[rsp]
  00b7d	66 0f 7f 84 24
	f0 03 00 00	 movdqa	 XMMWORD PTR x0$54[rsp], xmm0

; 527  :         x1 = _mm_or_si128(x1, _mm_shuffle_epi8(xSrc1, _mm_alignr_epi8(xmask0, xmask3, 11)));

  00b86	66 0f 6f 84 24
	f0 00 00 00	 movdqa	 xmm0, XMMWORD PTR xmask0$[rsp]
  00b8f	66 0f 3a 0f 84
	24 50 01 00 00
	0b		 palignr xmm0, XMMWORD PTR xmask3$[rsp], 11
  00b9a	66 0f 7f 84 24
	80 04 00 00	 movdqa	 XMMWORD PTR $T63[rsp], xmm0
  00ba3	66 0f 6f 84 24
	b0 03 00 00	 movdqa	 xmm0, XMMWORD PTR xSrc1$50[rsp]
  00bac	66 0f 38 00 84
	24 80 04 00 00	 pshufb	 xmm0, XMMWORD PTR $T63[rsp]
  00bb6	66 0f 7f 84 24
	90 04 00 00	 movdqa	 XMMWORD PTR $T64[rsp], xmm0
  00bbf	66 0f 6f 84 24
	10 04 00 00	 movdqa	 xmm0, XMMWORD PTR x1$56[rsp]
  00bc8	66 0f eb 84 24
	90 04 00 00	 por	 xmm0, XMMWORD PTR $T64[rsp]
  00bd1	66 0f 7f 84 24
	a0 04 00 00	 movdqa	 XMMWORD PTR $T65[rsp], xmm0
  00bda	66 0f 6f 84 24
	a0 04 00 00	 movdqa	 xmm0, XMMWORD PTR $T65[rsp]
  00be3	66 0f 7f 84 24
	10 04 00 00	 movdqa	 XMMWORD PTR x1$56[rsp], xmm0

; 528  :         x2 = _mm_or_si128(x2, _mm_shuffle_epi8(xSrc1, _mm_alignr_epi8(xmask1, xmask3, 11)));

  00bec	66 0f 6f 84 24
	10 01 00 00	 movdqa	 xmm0, XMMWORD PTR xmask1$[rsp]
  00bf5	66 0f 3a 0f 84
	24 50 01 00 00
	0b		 palignr xmm0, XMMWORD PTR xmask3$[rsp], 11
  00c00	66 0f 7f 84 24
	b0 04 00 00	 movdqa	 XMMWORD PTR $T66[rsp], xmm0
  00c09	66 0f 6f 84 24
	b0 03 00 00	 movdqa	 xmm0, XMMWORD PTR xSrc1$50[rsp]
  00c12	66 0f 38 00 84
	24 b0 04 00 00	 pshufb	 xmm0, XMMWORD PTR $T66[rsp]
  00c1c	66 0f 7f 84 24
	c0 04 00 00	 movdqa	 XMMWORD PTR $T67[rsp], xmm0
  00c25	66 0f 6f 84 24
	30 04 00 00	 movdqa	 xmm0, XMMWORD PTR x2$58[rsp]
  00c2e	66 0f eb 84 24
	c0 04 00 00	 por	 xmm0, XMMWORD PTR $T67[rsp]
  00c37	66 0f 7f 84 24
	d0 04 00 00	 movdqa	 XMMWORD PTR $T68[rsp], xmm0
  00c40	66 0f 6f 84 24
	d0 04 00 00	 movdqa	 xmm0, XMMWORD PTR $T68[rsp]
  00c49	66 0f 7f 84 24
	30 04 00 00	 movdqa	 XMMWORD PTR x2$58[rsp], xmm0

; 529  :         x0 = _mm_or_si128(x0, _mm_shuffle_epi8(xSrc2, _mm_alignr_epi8(xmask1, xmask3, 5)));

  00c52	66 0f 6f 84 24
	10 01 00 00	 movdqa	 xmm0, XMMWORD PTR xmask1$[rsp]
  00c5b	66 0f 3a 0f 84
	24 50 01 00 00
	05		 palignr xmm0, XMMWORD PTR xmask3$[rsp], 5
  00c66	66 0f 7f 84 24
	e0 04 00 00	 movdqa	 XMMWORD PTR $T69[rsp], xmm0
  00c6f	66 0f 6f 84 24
	d0 03 00 00	 movdqa	 xmm0, XMMWORD PTR xSrc2$52[rsp]
  00c78	66 0f 38 00 84
	24 e0 04 00 00	 pshufb	 xmm0, XMMWORD PTR $T69[rsp]
  00c82	66 0f 7f 84 24
	f0 04 00 00	 movdqa	 XMMWORD PTR $T70[rsp], xmm0
  00c8b	66 0f 6f 84 24
	f0 03 00 00	 movdqa	 xmm0, XMMWORD PTR x0$54[rsp]
  00c94	66 0f eb 84 24
	f0 04 00 00	 por	 xmm0, XMMWORD PTR $T70[rsp]
  00c9d	66 0f 7f 84 24
	00 05 00 00	 movdqa	 XMMWORD PTR $T71[rsp], xmm0
  00ca6	66 0f 6f 84 24
	00 05 00 00	 movdqa	 xmm0, XMMWORD PTR $T71[rsp]
  00caf	66 0f 7f 84 24
	f0 03 00 00	 movdqa	 XMMWORD PTR x0$54[rsp], xmm0

; 530  :         x1 = _mm_or_si128(x1, _mm_shuffle_epi8(xSrc2, _mm_alignr_epi8(xmask2, xmask3, 5)));

  00cb8	66 0f 6f 84 24
	30 01 00 00	 movdqa	 xmm0, XMMWORD PTR xmask2$[rsp]
  00cc1	66 0f 3a 0f 84
	24 50 01 00 00
	05		 palignr xmm0, XMMWORD PTR xmask3$[rsp], 5
  00ccc	66 0f 7f 84 24
	10 05 00 00	 movdqa	 XMMWORD PTR $T72[rsp], xmm0
  00cd5	66 0f 6f 84 24
	d0 03 00 00	 movdqa	 xmm0, XMMWORD PTR xSrc2$52[rsp]
  00cde	66 0f 38 00 84
	24 10 05 00 00	 pshufb	 xmm0, XMMWORD PTR $T72[rsp]
  00ce8	66 0f 7f 84 24
	20 05 00 00	 movdqa	 XMMWORD PTR $T73[rsp], xmm0
  00cf1	66 0f 6f 84 24
	10 04 00 00	 movdqa	 xmm0, XMMWORD PTR x1$56[rsp]
  00cfa	66 0f eb 84 24
	20 05 00 00	 por	 xmm0, XMMWORD PTR $T73[rsp]
  00d03	66 0f 7f 84 24
	30 05 00 00	 movdqa	 XMMWORD PTR $T74[rsp], xmm0
  00d0c	66 0f 6f 84 24
	30 05 00 00	 movdqa	 xmm0, XMMWORD PTR $T74[rsp]
  00d15	66 0f 7f 84 24
	10 04 00 00	 movdqa	 XMMWORD PTR x1$56[rsp], xmm0

; 531  :         x2 = _mm_or_si128(x2, _mm_shuffle_epi8(xSrc2, _mm_alignr_epi8(xmask0, xmask3, 6)));

  00d1e	66 0f 6f 84 24
	f0 00 00 00	 movdqa	 xmm0, XMMWORD PTR xmask0$[rsp]
  00d27	66 0f 3a 0f 84
	24 50 01 00 00
	06		 palignr xmm0, XMMWORD PTR xmask3$[rsp], 6
  00d32	66 0f 7f 84 24
	40 05 00 00	 movdqa	 XMMWORD PTR $T75[rsp], xmm0
  00d3b	66 0f 6f 84 24
	d0 03 00 00	 movdqa	 xmm0, XMMWORD PTR xSrc2$52[rsp]
  00d44	66 0f 38 00 84
	24 40 05 00 00	 pshufb	 xmm0, XMMWORD PTR $T75[rsp]
  00d4e	66 0f 7f 84 24
	50 05 00 00	 movdqa	 XMMWORD PTR $T76[rsp], xmm0
  00d57	66 0f 6f 84 24
	30 04 00 00	 movdqa	 xmm0, XMMWORD PTR x2$58[rsp]
  00d60	66 0f eb 84 24
	50 05 00 00	 por	 xmm0, XMMWORD PTR $T76[rsp]
  00d69	66 0f 7f 84 24
	60 05 00 00	 movdqa	 XMMWORD PTR $T77[rsp], xmm0
  00d72	66 0f 6f 84 24
	60 05 00 00	 movdqa	 xmm0, XMMWORD PTR $T77[rsp]
  00d7b	66 0f 7f 84 24
	30 04 00 00	 movdqa	 XMMWORD PTR x2$58[rsp], xmm0

; 532  :         _mm_storeu_si128((__m128i *)ptr_dst0, x0);

  00d84	48 8b 84 24 80
	01 00 00	 mov	 rax, QWORD PTR ptr_dst0$12[rsp]
  00d8c	66 0f 6f 84 24
	f0 03 00 00	 movdqa	 xmm0, XMMWORD PTR x0$54[rsp]
  00d95	f3 0f 7f 00	 movdqu	 XMMWORD PTR [rax], xmm0

; 533  :         _mm_storeu_si128((__m128i *)ptr_dst1, x1);

  00d99	48 8b 84 24 88
	01 00 00	 mov	 rax, QWORD PTR ptr_dst1$13[rsp]
  00da1	66 0f 6f 84 24
	10 04 00 00	 movdqa	 xmm0, XMMWORD PTR x1$56[rsp]
  00daa	f3 0f 7f 00	 movdqu	 XMMWORD PTR [rax], xmm0

; 534  :         _mm_storeu_si128((__m128i *)ptr_dst2, x2);

  00dae	48 8b 84 24 90
	01 00 00	 mov	 rax, QWORD PTR ptr_dst2$14[rsp]
  00db6	66 0f 6f 84 24
	30 04 00 00	 movdqa	 xmm0, XMMWORD PTR x2$58[rsp]
  00dbf	f3 0f 7f 00	 movdqu	 XMMWORD PTR [rax], xmm0

; 535  :     }

  00dc3	e9 8d f6 ff ff	 jmp	 $LN2@convert_rg
$LN3@convert_rg:

; 536  : }

  00dc8	48 8b cc	 mov	 rcx, rsp
  00dcb	48 8d 15 00 00
	00 00		 lea	 rdx, OFFSET FLAT:??$convert_rgb24_to_rgb_simd@$0PPAAABAC@$00@@YAXPEAPEAXPEAPEBXHHHHHHHHPEAH@Z$rtcFrameData
  00dd2	e8 00 00 00 00	 call	 _RTC_CheckStackVars
  00dd7	48 8b 8c 24 90
	05 00 00	 mov	 rcx, QWORD PTR __$ArrayPad$[rsp]
  00ddf	48 33 cc	 xor	 rcx, rsp
  00de2	e8 00 00 00 00	 call	 __security_check_cookie
  00de7	48 81 c4 a8 05
	00 00		 add	 rsp, 1448		; 000005a8H
  00dee	5f		 pop	 rdi
  00def	5e		 pop	 rsi
  00df0	c3		 ret	 0
??$convert_rgb24_to_rgb_simd@$0PPAAABAC@$00@@YAXPEAPEAXPEAPEBXHHHHHHHHPEAH@Z ENDP ; convert_rgb24_to_rgb_simd<4278190338,1>
_TEXT	ENDS
; Function compile flags: /Odtp /RTCsu
; File D:\work\intel\intel_codec\QSVPipeline\convert_csp_ssse3.cpp
_TEXT	SEGMENT
dst$ = 112
src$ = 120
width$ = 128
src_y_pitch_byte$ = 136
src_uv_pitch_byte$ = 144
dst_y_pitch_byte$ = 152
height$ = 160
dst_height$ = 168
thread_id$ = 176
thread_n$ = 184
crop$ = 192
?convert_rgb24r_to_rgb_ssse3@@YAXPEAPEAXPEAPEBXHHHHHHHHPEAH@Z PROC ; convert_rgb24r_to_rgb_ssse3

; 78   : void convert_rgb24r_to_rgb_ssse3(void **dst, const void **src, int width, int src_y_pitch_byte, int src_uv_pitch_byte, int dst_y_pitch_byte, int height, int dst_height, int thread_id, int thread_n, int *crop) {

$LN3:
  00000	44 89 4c 24 20	 mov	 DWORD PTR [rsp+32], r9d
  00005	44 89 44 24 18	 mov	 DWORD PTR [rsp+24], r8d
  0000a	48 89 54 24 10	 mov	 QWORD PTR [rsp+16], rdx
  0000f	48 89 4c 24 08	 mov	 QWORD PTR [rsp+8], rcx
  00014	57		 push	 rdi
  00015	48 83 ec 60	 sub	 rsp, 96			; 00000060H
  00019	48 8b fc	 mov	 rdi, rsp
  0001c	b9 18 00 00 00	 mov	 ecx, 24
  00021	b8 cc cc cc cc	 mov	 eax, -858993460		; ccccccccH
  00026	f3 ab		 rep stosd
  00028	48 8b 4c 24 70	 mov	 rcx, QWORD PTR [rsp+112]

; 79   :     convert_rgb24_to_rgb_simd<RGB_PLANE(2, 1, 0, -1), true>(dst, src, width, src_y_pitch_byte, src_uv_pitch_byte, dst_y_pitch_byte, height, dst_height, thread_id, thread_n, crop);

  0002d	48 8b 84 24 c0
	00 00 00	 mov	 rax, QWORD PTR crop$[rsp]
  00035	48 89 44 24 50	 mov	 QWORD PTR [rsp+80], rax
  0003a	8b 84 24 b8 00
	00 00		 mov	 eax, DWORD PTR thread_n$[rsp]
  00041	89 44 24 48	 mov	 DWORD PTR [rsp+72], eax
  00045	8b 84 24 b0 00
	00 00		 mov	 eax, DWORD PTR thread_id$[rsp]
  0004c	89 44 24 40	 mov	 DWORD PTR [rsp+64], eax
  00050	8b 84 24 a8 00
	00 00		 mov	 eax, DWORD PTR dst_height$[rsp]
  00057	89 44 24 38	 mov	 DWORD PTR [rsp+56], eax
  0005b	8b 84 24 a0 00
	00 00		 mov	 eax, DWORD PTR height$[rsp]
  00062	89 44 24 30	 mov	 DWORD PTR [rsp+48], eax
  00066	8b 84 24 98 00
	00 00		 mov	 eax, DWORD PTR dst_y_pitch_byte$[rsp]
  0006d	89 44 24 28	 mov	 DWORD PTR [rsp+40], eax
  00071	8b 84 24 90 00
	00 00		 mov	 eax, DWORD PTR src_uv_pitch_byte$[rsp]
  00078	89 44 24 20	 mov	 DWORD PTR [rsp+32], eax
  0007c	44 8b 8c 24 88
	00 00 00	 mov	 r9d, DWORD PTR src_y_pitch_byte$[rsp]
  00084	44 8b 84 24 80
	00 00 00	 mov	 r8d, DWORD PTR width$[rsp]
  0008c	48 8b 54 24 78	 mov	 rdx, QWORD PTR src$[rsp]
  00091	48 8b 4c 24 70	 mov	 rcx, QWORD PTR dst$[rsp]
  00096	e8 00 00 00 00	 call	 ??$convert_rgb24_to_rgb_simd@$0PPAAABAC@$00@@YAXPEAPEAXPEAPEBXHHHHHHHHPEAH@Z ; convert_rgb24_to_rgb_simd<4278190338,1>

; 80   : }

  0009b	48 83 c4 60	 add	 rsp, 96			; 00000060H
  0009f	5f		 pop	 rdi
  000a0	c3		 ret	 0
?convert_rgb24r_to_rgb_ssse3@@YAXPEAPEAXPEAPEBXHHHHHHHHPEAH@Z ENDP ; convert_rgb24r_to_rgb_ssse3
_TEXT	ENDS
; Function compile flags: /Odtp /RTCsu
; File D:\work\intel\intel_codec\QSVPipeline\convert_csp_simd.h
_TEXT	SEGMENT
crop_left$ = 48
crop_up$ = 52
crop_right$ = 56
crop_bottom$ = 60
y_range$ = 72
$T5 = 104
dst0Line$ = 120
dst1Line$ = 128
dst2Line$ = 136
srcLine$ = 144
MASK_RGB_TO_RGB24$ = 176
xmask0$ = 240
$T6 = 256
xmask1$ = 272
$T7 = 288
xmask2$ = 304
$T8 = 320
xmask3$ = 336
$T9 = 352
y$10 = 368
ptr_src$11 = 376
ptr_dst0$12 = 384
ptr_dst1$13 = 392
ptr_dst2$14 = 400
x$15 = 408
x_fin$16 = 412
xSrc0$17 = 416
$T18 = 432
xSrc1$19 = 448
$T20 = 464
xSrc2$21 = 480
$T22 = 496
x0$23 = 512
$T24 = 528
x1$25 = 544
$T26 = 560
x2$27 = 576
$T28 = 592
$T29 = 608
$T30 = 624
$T31 = 640
$T32 = 656
$T33 = 672
$T34 = 688
$T35 = 704
$T36 = 720
$T37 = 736
$T38 = 752
$T39 = 768
$T40 = 784
$T41 = 800
$T42 = 816
$T43 = 832
$T44 = 848
$T45 = 864
$T46 = 880
x_offset$47 = 896
xSrc0$48 = 912
$T49 = 928
xSrc1$50 = 944
$T51 = 960
xSrc2$52 = 976
$T53 = 992
x0$54 = 1008
$T55 = 1024
x1$56 = 1040
$T57 = 1056
x2$58 = 1072
$T59 = 1088
$T60 = 1104
$T61 = 1120
$T62 = 1136
$T63 = 1152
$T64 = 1168
$T65 = 1184
$T66 = 1200
$T67 = 1216
$T68 = 1232
$T69 = 1248
$T70 = 1264
$T71 = 1280
$T72 = 1296
$T73 = 1312
$T74 = 1328
$T75 = 1344
$T76 = 1360
$T77 = 1376
$T78 = 1400
tv133 = 1416
__$ArrayPad$ = 1424
dst$ = 1472
src$ = 1480
width$ = 1488
src_y_pitch_byte$ = 1496
src_uv_pitch_byte$ = 1504
dst_y_pitch_byte$ = 1512
height$ = 1520
dst_height$ = 1528
thread_id$ = 1536
thread_n$ = 1544
crop$ = 1552
??$convert_rgb24_to_rgb_simd@$0PPACABAA@$0A@@@YAXPEAPEAXPEAPEBXHHHHHHHHPEAH@Z PROC ; convert_rgb24_to_rgb_simd<4278321408,0>

; 468  : static void __forceinline convert_rgb24_to_rgb_simd(void **dst, const void **src, int width, int src_y_pitch_byte, int src_uv_pitch_byte, int dst_y_pitch_byte, int height, int dst_height, int thread_id, int thread_n, int *crop) {

  00000	44 89 4c 24 20	 mov	 DWORD PTR [rsp+32], r9d
  00005	44 89 44 24 18	 mov	 DWORD PTR [rsp+24], r8d
  0000a	48 89 54 24 10	 mov	 QWORD PTR [rsp+16], rdx
  0000f	48 89 4c 24 08	 mov	 QWORD PTR [rsp+8], rcx
  00014	56		 push	 rsi
  00015	57		 push	 rdi
  00016	48 81 ec a8 05
	00 00		 sub	 rsp, 1448		; 000005a8H
  0001d	48 8b fc	 mov	 rdi, rsp
  00020	b9 6a 01 00 00	 mov	 ecx, 362		; 0000016aH
  00025	b8 cc cc cc cc	 mov	 eax, -858993460		; ccccccccH
  0002a	f3 ab		 rep stosd
  0002c	48 8b 8c 24 c0
	05 00 00	 mov	 rcx, QWORD PTR [rsp+1472]
  00034	48 8b 05 00 00
	00 00		 mov	 rax, QWORD PTR __security_cookie
  0003b	48 33 c4	 xor	 rax, rsp
  0003e	48 89 84 24 90
	05 00 00	 mov	 QWORD PTR __$ArrayPad$[rsp], rax

; 469  :     const int crop_left   = crop[0];

  00046	b8 04 00 00 00	 mov	 eax, 4
  0004b	48 6b c0 00	 imul	 rax, rax, 0
  0004f	48 8b 8c 24 10
	06 00 00	 mov	 rcx, QWORD PTR crop$[rsp]
  00057	8b 04 01	 mov	 eax, DWORD PTR [rcx+rax]
  0005a	89 44 24 30	 mov	 DWORD PTR crop_left$[rsp], eax

; 470  :     const int crop_up     = crop[1];

  0005e	b8 04 00 00 00	 mov	 eax, 4
  00063	48 6b c0 01	 imul	 rax, rax, 1
  00067	48 8b 8c 24 10
	06 00 00	 mov	 rcx, QWORD PTR crop$[rsp]
  0006f	8b 04 01	 mov	 eax, DWORD PTR [rcx+rax]
  00072	89 44 24 34	 mov	 DWORD PTR crop_up$[rsp], eax

; 471  :     const int crop_right  = crop[2];

  00076	b8 04 00 00 00	 mov	 eax, 4
  0007b	48 6b c0 02	 imul	 rax, rax, 2
  0007f	48 8b 8c 24 10
	06 00 00	 mov	 rcx, QWORD PTR crop$[rsp]
  00087	8b 04 01	 mov	 eax, DWORD PTR [rcx+rax]
  0008a	89 44 24 38	 mov	 DWORD PTR crop_right$[rsp], eax

; 472  :     const int crop_bottom = crop[3];

  0008e	b8 04 00 00 00	 mov	 eax, 4
  00093	48 6b c0 03	 imul	 rax, rax, 3
  00097	48 8b 8c 24 10
	06 00 00	 mov	 rcx, QWORD PTR crop$[rsp]
  0009f	8b 04 01	 mov	 eax, DWORD PTR [rcx+rax]
  000a2	89 44 24 3c	 mov	 DWORD PTR crop_bottom$[rsp], eax

; 473  :     const auto y_range = thread_y_range(crop_up, height - crop_bottom, thread_id, thread_n);

  000a6	8b 44 24 3c	 mov	 eax, DWORD PTR crop_bottom$[rsp]
  000aa	8b 8c 24 f0 05
	00 00		 mov	 ecx, DWORD PTR height$[rsp]
  000b1	2b c8		 sub	 ecx, eax
  000b3	8b c1		 mov	 eax, ecx
  000b5	8b 8c 24 08 06
	00 00		 mov	 ecx, DWORD PTR thread_n$[rsp]
  000bc	89 4c 24 20	 mov	 DWORD PTR [rsp+32], ecx
  000c0	44 8b 8c 24 00
	06 00 00	 mov	 r9d, DWORD PTR thread_id$[rsp]
  000c8	44 8b c0	 mov	 r8d, eax
  000cb	8b 54 24 34	 mov	 edx, DWORD PTR crop_up$[rsp]
  000cf	48 8d 8c 24 78
	05 00 00	 lea	 rcx, QWORD PTR $T78[rsp]
  000d7	e8 00 00 00 00	 call	 ?thread_y_range@@YA?AUTHREAD_Y_RANGE@@HHHH@Z ; thread_y_range
  000dc	48 8d 4c 24 68	 lea	 rcx, QWORD PTR $T5[rsp]
  000e1	48 8b f9	 mov	 rdi, rcx
  000e4	48 8b f0	 mov	 rsi, rax
  000e7	b9 0c 00 00 00	 mov	 ecx, 12
  000ec	f3 a4		 rep movsb
  000ee	48 8d 44 24 48	 lea	 rax, QWORD PTR y_range$[rsp]
  000f3	48 8d 4c 24 68	 lea	 rcx, QWORD PTR $T5[rsp]
  000f8	48 8b f8	 mov	 rdi, rax
  000fb	48 8b f1	 mov	 rsi, rcx
  000fe	b9 0c 00 00 00	 mov	 ecx, 12
  00103	f3 a4		 rep movsb

; 474  :     uint8_t *dst0Line = (uint8_t *)dst[(plane_from >>  0) & 0xff] + dst_y_pitch_byte * y_range.start_dst;

  00105	b8 08 00 00 00	 mov	 eax, 8
  0010a	48 6b c0 00	 imul	 rax, rax, 0
  0010e	8b 8c 24 e8 05
	00 00		 mov	 ecx, DWORD PTR dst_y_pitch_byte$[rsp]
  00115	0f af 4c 24 4c	 imul	 ecx, DWORD PTR y_range$[rsp+4]
  0011a	48 63 c9	 movsxd	 rcx, ecx
  0011d	48 8b 94 24 c0
	05 00 00	 mov	 rdx, QWORD PTR dst$[rsp]
  00125	48 03 0c 02	 add	 rcx, QWORD PTR [rdx+rax]
  00129	48 8b c1	 mov	 rax, rcx
  0012c	48 89 44 24 78	 mov	 QWORD PTR dst0Line$[rsp], rax

; 475  :     uint8_t *dst1Line = (uint8_t *)dst[(plane_from >>  8) & 0xff] + dst_y_pitch_byte * y_range.start_dst;

  00131	b8 08 00 00 00	 mov	 eax, 8
  00136	48 6b c0 01	 imul	 rax, rax, 1
  0013a	8b 8c 24 e8 05
	00 00		 mov	 ecx, DWORD PTR dst_y_pitch_byte$[rsp]
  00141	0f af 4c 24 4c	 imul	 ecx, DWORD PTR y_range$[rsp+4]
  00146	48 63 c9	 movsxd	 rcx, ecx
  00149	48 8b 94 24 c0
	05 00 00	 mov	 rdx, QWORD PTR dst$[rsp]
  00151	48 03 0c 02	 add	 rcx, QWORD PTR [rdx+rax]
  00155	48 8b c1	 mov	 rax, rcx
  00158	48 89 84 24 80
	00 00 00	 mov	 QWORD PTR dst1Line$[rsp], rax

; 476  :     uint8_t *dst2Line = (uint8_t *)dst[(plane_from >> 16) & 0xff] + dst_y_pitch_byte * y_range.start_dst;

  00160	b8 08 00 00 00	 mov	 eax, 8
  00165	48 6b c0 02	 imul	 rax, rax, 2
  00169	8b 8c 24 e8 05
	00 00		 mov	 ecx, DWORD PTR dst_y_pitch_byte$[rsp]
  00170	0f af 4c 24 4c	 imul	 ecx, DWORD PTR y_range$[rsp+4]
  00175	48 63 c9	 movsxd	 rcx, ecx
  00178	48 8b 94 24 c0
	05 00 00	 mov	 rdx, QWORD PTR dst$[rsp]
  00180	48 03 0c 02	 add	 rcx, QWORD PTR [rdx+rax]
  00184	48 8b c1	 mov	 rax, rcx
  00187	48 89 84 24 88
	00 00 00	 mov	 QWORD PTR dst2Line$[rsp], rax

; 477  :     uint8_t *srcLine  = (uint8_t *)src[0] + src_y_pitch_byte * ((source_reverse) ? (height - crop_bottom - y_range.start_src - 1) : y_range.start_src) + crop_left * 3;

  0018f	33 c0		 xor	 eax, eax
  00191	85 c0		 test	 eax, eax
  00193	74 1e		 je	 SHORT $LN11@convert_rg
  00195	8b 44 24 3c	 mov	 eax, DWORD PTR crop_bottom$[rsp]
  00199	8b 8c 24 f0 05
	00 00		 mov	 ecx, DWORD PTR height$[rsp]
  001a0	2b c8		 sub	 ecx, eax
  001a2	8b c1		 mov	 eax, ecx
  001a4	2b 44 24 48	 sub	 eax, DWORD PTR y_range$[rsp]
  001a8	ff c8		 dec	 eax
  001aa	89 84 24 88 05
	00 00		 mov	 DWORD PTR tv133[rsp], eax
  001b1	eb 0b		 jmp	 SHORT $LN12@convert_rg
$LN11@convert_rg:
  001b3	8b 44 24 48	 mov	 eax, DWORD PTR y_range$[rsp]
  001b7	89 84 24 88 05
	00 00		 mov	 DWORD PTR tv133[rsp], eax
$LN12@convert_rg:
  001be	b8 08 00 00 00	 mov	 eax, 8
  001c3	48 6b c0 00	 imul	 rax, rax, 0
  001c7	8b 8c 24 d8 05
	00 00		 mov	 ecx, DWORD PTR src_y_pitch_byte$[rsp]
  001ce	0f af 8c 24 88
	05 00 00	 imul	 ecx, DWORD PTR tv133[rsp]
  001d6	48 63 c9	 movsxd	 rcx, ecx
  001d9	48 8b 94 24 c8
	05 00 00	 mov	 rdx, QWORD PTR src$[rsp]
  001e1	48 8b 04 02	 mov	 rax, QWORD PTR [rdx+rax]
  001e5	48 03 c1	 add	 rax, rcx
  001e8	6b 4c 24 30 03	 imul	 ecx, DWORD PTR crop_left$[rsp], 3
  001ed	48 63 c9	 movsxd	 rcx, ecx
  001f0	48 03 c1	 add	 rax, rcx
  001f3	48 89 84 24 90
	00 00 00	 mov	 QWORD PTR srcLine$[rsp], rax

; 478  :     alignas(16) const char MASK_RGB_TO_RGB24[] = {
; 479  :         0,  3,  6,  9, 12, 15, -1, -1, -1, -1, -1, -1, -1, -1, -1, -1,

  001fb	c6 84 24 b0 00
	00 00 00	 mov	 BYTE PTR MASK_RGB_TO_RGB24$[rsp], 0
  00203	c6 84 24 b1 00
	00 00 03	 mov	 BYTE PTR MASK_RGB_TO_RGB24$[rsp+1], 3
  0020b	c6 84 24 b2 00
	00 00 06	 mov	 BYTE PTR MASK_RGB_TO_RGB24$[rsp+2], 6
  00213	c6 84 24 b3 00
	00 00 09	 mov	 BYTE PTR MASK_RGB_TO_RGB24$[rsp+3], 9
  0021b	c6 84 24 b4 00
	00 00 0c	 mov	 BYTE PTR MASK_RGB_TO_RGB24$[rsp+4], 12
  00223	c6 84 24 b5 00
	00 00 0f	 mov	 BYTE PTR MASK_RGB_TO_RGB24$[rsp+5], 15
  0022b	c6 84 24 b6 00
	00 00 ff	 mov	 BYTE PTR MASK_RGB_TO_RGB24$[rsp+6], -1
  00233	c6 84 24 b7 00
	00 00 ff	 mov	 BYTE PTR MASK_RGB_TO_RGB24$[rsp+7], -1
  0023b	c6 84 24 b8 00
	00 00 ff	 mov	 BYTE PTR MASK_RGB_TO_RGB24$[rsp+8], -1
  00243	c6 84 24 b9 00
	00 00 ff	 mov	 BYTE PTR MASK_RGB_TO_RGB24$[rsp+9], -1
  0024b	c6 84 24 ba 00
	00 00 ff	 mov	 BYTE PTR MASK_RGB_TO_RGB24$[rsp+10], -1
  00253	c6 84 24 bb 00
	00 00 ff	 mov	 BYTE PTR MASK_RGB_TO_RGB24$[rsp+11], -1
  0025b	c6 84 24 bc 00
	00 00 ff	 mov	 BYTE PTR MASK_RGB_TO_RGB24$[rsp+12], -1
  00263	c6 84 24 bd 00
	00 00 ff	 mov	 BYTE PTR MASK_RGB_TO_RGB24$[rsp+13], -1
  0026b	c6 84 24 be 00
	00 00 ff	 mov	 BYTE PTR MASK_RGB_TO_RGB24$[rsp+14], -1
  00273	c6 84 24 bf 00
	00 00 ff	 mov	 BYTE PTR MASK_RGB_TO_RGB24$[rsp+15], -1

; 480  :         1,  4,  7, 10, 13, -1, -1, -1, -1, -1, -1, -1, -1, -1, -1, -1,

  0027b	c6 84 24 c0 00
	00 00 01	 mov	 BYTE PTR MASK_RGB_TO_RGB24$[rsp+16], 1
  00283	c6 84 24 c1 00
	00 00 04	 mov	 BYTE PTR MASK_RGB_TO_RGB24$[rsp+17], 4
  0028b	c6 84 24 c2 00
	00 00 07	 mov	 BYTE PTR MASK_RGB_TO_RGB24$[rsp+18], 7
  00293	c6 84 24 c3 00
	00 00 0a	 mov	 BYTE PTR MASK_RGB_TO_RGB24$[rsp+19], 10
  0029b	c6 84 24 c4 00
	00 00 0d	 mov	 BYTE PTR MASK_RGB_TO_RGB24$[rsp+20], 13
  002a3	c6 84 24 c5 00
	00 00 ff	 mov	 BYTE PTR MASK_RGB_TO_RGB24$[rsp+21], -1
  002ab	c6 84 24 c6 00
	00 00 ff	 mov	 BYTE PTR MASK_RGB_TO_RGB24$[rsp+22], -1
  002b3	c6 84 24 c7 00
	00 00 ff	 mov	 BYTE PTR MASK_RGB_TO_RGB24$[rsp+23], -1
  002bb	c6 84 24 c8 00
	00 00 ff	 mov	 BYTE PTR MASK_RGB_TO_RGB24$[rsp+24], -1
  002c3	c6 84 24 c9 00
	00 00 ff	 mov	 BYTE PTR MASK_RGB_TO_RGB24$[rsp+25], -1
  002cb	c6 84 24 ca 00
	00 00 ff	 mov	 BYTE PTR MASK_RGB_TO_RGB24$[rsp+26], -1
  002d3	c6 84 24 cb 00
	00 00 ff	 mov	 BYTE PTR MASK_RGB_TO_RGB24$[rsp+27], -1
  002db	c6 84 24 cc 00
	00 00 ff	 mov	 BYTE PTR MASK_RGB_TO_RGB24$[rsp+28], -1
  002e3	c6 84 24 cd 00
	00 00 ff	 mov	 BYTE PTR MASK_RGB_TO_RGB24$[rsp+29], -1
  002eb	c6 84 24 ce 00
	00 00 ff	 mov	 BYTE PTR MASK_RGB_TO_RGB24$[rsp+30], -1
  002f3	c6 84 24 cf 00
	00 00 ff	 mov	 BYTE PTR MASK_RGB_TO_RGB24$[rsp+31], -1

; 481  :         2,  5,  8, 11, 14, -1, -1, -1, -1, -1, -1, -1, -1, -1, -1, -1,

  002fb	c6 84 24 d0 00
	00 00 02	 mov	 BYTE PTR MASK_RGB_TO_RGB24$[rsp+32], 2
  00303	c6 84 24 d1 00
	00 00 05	 mov	 BYTE PTR MASK_RGB_TO_RGB24$[rsp+33], 5
  0030b	c6 84 24 d2 00
	00 00 08	 mov	 BYTE PTR MASK_RGB_TO_RGB24$[rsp+34], 8
  00313	c6 84 24 d3 00
	00 00 0b	 mov	 BYTE PTR MASK_RGB_TO_RGB24$[rsp+35], 11
  0031b	c6 84 24 d4 00
	00 00 0e	 mov	 BYTE PTR MASK_RGB_TO_RGB24$[rsp+36], 14
  00323	c6 84 24 d5 00
	00 00 ff	 mov	 BYTE PTR MASK_RGB_TO_RGB24$[rsp+37], -1
  0032b	c6 84 24 d6 00
	00 00 ff	 mov	 BYTE PTR MASK_RGB_TO_RGB24$[rsp+38], -1
  00333	c6 84 24 d7 00
	00 00 ff	 mov	 BYTE PTR MASK_RGB_TO_RGB24$[rsp+39], -1
  0033b	c6 84 24 d8 00
	00 00 ff	 mov	 BYTE PTR MASK_RGB_TO_RGB24$[rsp+40], -1
  00343	c6 84 24 d9 00
	00 00 ff	 mov	 BYTE PTR MASK_RGB_TO_RGB24$[rsp+41], -1
  0034b	c6 84 24 da 00
	00 00 ff	 mov	 BYTE PTR MASK_RGB_TO_RGB24$[rsp+42], -1
  00353	c6 84 24 db 00
	00 00 ff	 mov	 BYTE PTR MASK_RGB_TO_RGB24$[rsp+43], -1
  0035b	c6 84 24 dc 00
	00 00 ff	 mov	 BYTE PTR MASK_RGB_TO_RGB24$[rsp+44], -1
  00363	c6 84 24 dd 00
	00 00 ff	 mov	 BYTE PTR MASK_RGB_TO_RGB24$[rsp+45], -1
  0036b	c6 84 24 de 00
	00 00 ff	 mov	 BYTE PTR MASK_RGB_TO_RGB24$[rsp+46], -1
  00373	c6 84 24 df 00
	00 00 ff	 mov	 BYTE PTR MASK_RGB_TO_RGB24$[rsp+47], -1

; 482  :     };
; 483  :     __m128i xmask0 = _mm_load_si128((__m128i *)&MASK_RGB_TO_RGB24[0]);

  0037b	b8 01 00 00 00	 mov	 eax, 1
  00380	48 6b c0 00	 imul	 rax, rax, 0
  00384	48 8d 84 04 b0
	00 00 00	 lea	 rax, QWORD PTR MASK_RGB_TO_RGB24$[rsp+rax]
  0038c	f3 0f 6f 00	 movdqu	 xmm0, XMMWORD PTR [rax]
  00390	66 0f 7f 84 24
	00 01 00 00	 movdqa	 XMMWORD PTR $T6[rsp], xmm0
  00399	66 0f 6f 84 24
	00 01 00 00	 movdqa	 xmm0, XMMWORD PTR $T6[rsp]
  003a2	66 0f 7f 84 24
	f0 00 00 00	 movdqa	 XMMWORD PTR xmask0$[rsp], xmm0

; 484  :     __m128i xmask1 = _mm_load_si128((__m128i *)&MASK_RGB_TO_RGB24[16]);

  003ab	b8 01 00 00 00	 mov	 eax, 1
  003b0	48 6b c0 10	 imul	 rax, rax, 16
  003b4	48 8d 84 04 b0
	00 00 00	 lea	 rax, QWORD PTR MASK_RGB_TO_RGB24$[rsp+rax]
  003bc	f3 0f 6f 00	 movdqu	 xmm0, XMMWORD PTR [rax]
  003c0	66 0f 7f 84 24
	20 01 00 00	 movdqa	 XMMWORD PTR $T7[rsp], xmm0
  003c9	66 0f 6f 84 24
	20 01 00 00	 movdqa	 xmm0, XMMWORD PTR $T7[rsp]
  003d2	66 0f 7f 84 24
	10 01 00 00	 movdqa	 XMMWORD PTR xmask1$[rsp], xmm0

; 485  :     __m128i xmask2 = _mm_load_si128((__m128i *)&MASK_RGB_TO_RGB24[32]);

  003db	b8 01 00 00 00	 mov	 eax, 1
  003e0	48 6b c0 20	 imul	 rax, rax, 32		; 00000020H
  003e4	48 8d 84 04 b0
	00 00 00	 lea	 rax, QWORD PTR MASK_RGB_TO_RGB24$[rsp+rax]
  003ec	f3 0f 6f 00	 movdqu	 xmm0, XMMWORD PTR [rax]
  003f0	66 0f 7f 84 24
	40 01 00 00	 movdqa	 XMMWORD PTR $T8[rsp], xmm0
  003f9	66 0f 6f 84 24
	40 01 00 00	 movdqa	 xmm0, XMMWORD PTR $T8[rsp]
  00402	66 0f 7f 84 24
	30 01 00 00	 movdqa	 XMMWORD PTR xmask2$[rsp], xmm0

; 486  :     __m128i xmask3 = _mm_set1_epi8(-1);

  0040b	66 0f 6f 05 00
	00 00 00	 movdqa	 xmm0, XMMWORD PTR __xmm@ffffffffffffffffffffffffffffffff
  00413	66 0f 7f 84 24
	60 01 00 00	 movdqa	 XMMWORD PTR $T9[rsp], xmm0
  0041c	66 0f 6f 84 24
	60 01 00 00	 movdqa	 xmm0, XMMWORD PTR $T9[rsp]
  00425	66 0f 7f 84 24
	50 01 00 00	 movdqa	 XMMWORD PTR xmask3$[rsp], xmm0

; 487  :     if (source_reverse) {

  0042e	33 c0		 xor	 eax, eax
  00430	85 c0		 test	 eax, eax
  00432	74 0f		 je	 SHORT $LN8@convert_rg

; 488  :         src_y_pitch_byte = -1 * src_y_pitch_byte;

  00434	6b 84 24 d8 05
	00 00 ff	 imul	 eax, DWORD PTR src_y_pitch_byte$[rsp], -1
  0043c	89 84 24 d8 05
	00 00		 mov	 DWORD PTR src_y_pitch_byte$[rsp], eax
$LN8@convert_rg:

; 489  :     }
; 490  :     for (int y = 0; y < y_range.len; y++, srcLine += src_y_pitch_byte, dst0Line += dst_y_pitch_byte, dst1Line += dst_y_pitch_byte, dst2Line += dst_y_pitch_byte) {

  00443	c7 84 24 70 01
	00 00 00 00 00
	00		 mov	 DWORD PTR y$10[rsp], 0
  0044e	e9 82 00 00 00	 jmp	 $LN4@convert_rg
$LN2@convert_rg:
  00453	8b 84 24 70 01
	00 00		 mov	 eax, DWORD PTR y$10[rsp]
  0045a	ff c0		 inc	 eax
  0045c	89 84 24 70 01
	00 00		 mov	 DWORD PTR y$10[rsp], eax
  00463	48 63 84 24 d8
	05 00 00	 movsxd	 rax, DWORD PTR src_y_pitch_byte$[rsp]
  0046b	48 8b 8c 24 90
	00 00 00	 mov	 rcx, QWORD PTR srcLine$[rsp]
  00473	48 03 c8	 add	 rcx, rax
  00476	48 8b c1	 mov	 rax, rcx
  00479	48 89 84 24 90
	00 00 00	 mov	 QWORD PTR srcLine$[rsp], rax
  00481	48 63 84 24 e8
	05 00 00	 movsxd	 rax, DWORD PTR dst_y_pitch_byte$[rsp]
  00489	48 8b 4c 24 78	 mov	 rcx, QWORD PTR dst0Line$[rsp]
  0048e	48 03 c8	 add	 rcx, rax
  00491	48 8b c1	 mov	 rax, rcx
  00494	48 89 44 24 78	 mov	 QWORD PTR dst0Line$[rsp], rax
  00499	48 63 84 24 e8
	05 00 00	 movsxd	 rax, DWORD PTR dst_y_pitch_byte$[rsp]
  004a1	48 8b 8c 24 80
	00 00 00	 mov	 rcx, QWORD PTR dst1Line$[rsp]
  004a9	48 03 c8	 add	 rcx, rax
  004ac	48 8b c1	 mov	 rax, rcx
  004af	48 89 84 24 80
	00 00 00	 mov	 QWORD PTR dst1Line$[rsp], rax
  004b7	48 63 84 24 e8
	05 00 00	 movsxd	 rax, DWORD PTR dst_y_pitch_byte$[rsp]
  004bf	48 8b 8c 24 88
	00 00 00	 mov	 rcx, QWORD PTR dst2Line$[rsp]
  004c7	48 03 c8	 add	 rcx, rax
  004ca	48 8b c1	 mov	 rax, rcx
  004cd	48 89 84 24 88
	00 00 00	 mov	 QWORD PTR dst2Line$[rsp], rax
$LN4@convert_rg:
  004d5	8b 44 24 50	 mov	 eax, DWORD PTR y_range$[rsp+8]
  004d9	39 84 24 70 01
	00 00		 cmp	 DWORD PTR y$10[rsp], eax
  004e0	0f 8d e0 08 00
	00		 jge	 $LN3@convert_rg

; 491  :         uint8_t *ptr_src  = srcLine;

  004e6	48 8b 84 24 90
	00 00 00	 mov	 rax, QWORD PTR srcLine$[rsp]
  004ee	48 89 84 24 78
	01 00 00	 mov	 QWORD PTR ptr_src$11[rsp], rax

; 492  :         uint8_t *ptr_dst0 = dst0Line;

  004f6	48 8b 44 24 78	 mov	 rax, QWORD PTR dst0Line$[rsp]
  004fb	48 89 84 24 80
	01 00 00	 mov	 QWORD PTR ptr_dst0$12[rsp], rax

; 493  :         uint8_t *ptr_dst1 = dst1Line;

  00503	48 8b 84 24 80
	00 00 00	 mov	 rax, QWORD PTR dst1Line$[rsp]
  0050b	48 89 84 24 88
	01 00 00	 mov	 QWORD PTR ptr_dst1$13[rsp], rax

; 494  :         uint8_t *ptr_dst2 = dst2Line;

  00513	48 8b 84 24 88
	00 00 00	 mov	 rax, QWORD PTR dst2Line$[rsp]
  0051b	48 89 84 24 90
	01 00 00	 mov	 QWORD PTR ptr_dst2$14[rsp], rax

; 495  :         int x = 0, x_fin = width - crop_left - crop_right - 16;

  00523	c7 84 24 98 01
	00 00 00 00 00
	00		 mov	 DWORD PTR x$15[rsp], 0
  0052e	8b 44 24 30	 mov	 eax, DWORD PTR crop_left$[rsp]
  00532	8b 8c 24 d0 05
	00 00		 mov	 ecx, DWORD PTR width$[rsp]
  00539	2b c8		 sub	 ecx, eax
  0053b	8b c1		 mov	 eax, ecx
  0053d	2b 44 24 38	 sub	 eax, DWORD PTR crop_right$[rsp]
  00541	83 e8 10	 sub	 eax, 16
  00544	89 84 24 9c 01
	00 00		 mov	 DWORD PTR x_fin$16[rsp], eax

; 496  :         for (; x < x_fin; x += 16, ptr_src += 48, ptr_dst0 += 16, ptr_dst1 += 16, ptr_dst2 += 16) {

  0054b	eb 61		 jmp	 SHORT $LN7@convert_rg
$LN5@convert_rg:
  0054d	8b 84 24 98 01
	00 00		 mov	 eax, DWORD PTR x$15[rsp]
  00554	83 c0 10	 add	 eax, 16
  00557	89 84 24 98 01
	00 00		 mov	 DWORD PTR x$15[rsp], eax
  0055e	48 8b 84 24 78
	01 00 00	 mov	 rax, QWORD PTR ptr_src$11[rsp]
  00566	48 83 c0 30	 add	 rax, 48			; 00000030H
  0056a	48 89 84 24 78
	01 00 00	 mov	 QWORD PTR ptr_src$11[rsp], rax
  00572	48 8b 84 24 80
	01 00 00	 mov	 rax, QWORD PTR ptr_dst0$12[rsp]
  0057a	48 83 c0 10	 add	 rax, 16
  0057e	48 89 84 24 80
	01 00 00	 mov	 QWORD PTR ptr_dst0$12[rsp], rax
  00586	48 8b 84 24 88
	01 00 00	 mov	 rax, QWORD PTR ptr_dst1$13[rsp]
  0058e	48 83 c0 10	 add	 rax, 16
  00592	48 89 84 24 88
	01 00 00	 mov	 QWORD PTR ptr_dst1$13[rsp], rax
  0059a	48 8b 84 24 90
	01 00 00	 mov	 rax, QWORD PTR ptr_dst2$14[rsp]
  005a2	48 83 c0 10	 add	 rax, 16
  005a6	48 89 84 24 90
	01 00 00	 mov	 QWORD PTR ptr_dst2$14[rsp], rax
$LN7@convert_rg:
  005ae	8b 84 24 9c 01
	00 00		 mov	 eax, DWORD PTR x_fin$16[rsp]
  005b5	39 84 24 98 01
	00 00		 cmp	 DWORD PTR x$15[rsp], eax
  005bc	0f 8d af 03 00
	00		 jge	 $LN6@convert_rg

; 497  :             __m128i xSrc0 = _mm_loadu_si128((__m128i *)(ptr_src +  0));

  005c2	48 8b 84 24 78
	01 00 00	 mov	 rax, QWORD PTR ptr_src$11[rsp]
  005ca	f3 0f 6f 00	 movdqu	 xmm0, XMMWORD PTR [rax]
  005ce	66 0f 7f 84 24
	b0 01 00 00	 movdqa	 XMMWORD PTR $T18[rsp], xmm0
  005d7	66 0f 6f 84 24
	b0 01 00 00	 movdqa	 xmm0, XMMWORD PTR $T18[rsp]
  005e0	66 0f 7f 84 24
	a0 01 00 00	 movdqa	 XMMWORD PTR xSrc0$17[rsp], xmm0

; 498  :             __m128i xSrc1 = _mm_loadu_si128((__m128i *)(ptr_src + 16));

  005e9	48 8b 84 24 78
	01 00 00	 mov	 rax, QWORD PTR ptr_src$11[rsp]
  005f1	48 83 c0 10	 add	 rax, 16
  005f5	f3 0f 6f 00	 movdqu	 xmm0, XMMWORD PTR [rax]
  005f9	66 0f 7f 84 24
	d0 01 00 00	 movdqa	 XMMWORD PTR $T20[rsp], xmm0
  00602	66 0f 6f 84 24
	d0 01 00 00	 movdqa	 xmm0, XMMWORD PTR $T20[rsp]
  0060b	66 0f 7f 84 24
	c0 01 00 00	 movdqa	 XMMWORD PTR xSrc1$19[rsp], xmm0

; 499  :             __m128i xSrc2 = _mm_loadu_si128((__m128i *)(ptr_src + 32));

  00614	48 8b 84 24 78
	01 00 00	 mov	 rax, QWORD PTR ptr_src$11[rsp]
  0061c	48 83 c0 20	 add	 rax, 32			; 00000020H
  00620	f3 0f 6f 00	 movdqu	 xmm0, XMMWORD PTR [rax]
  00624	66 0f 7f 84 24
	f0 01 00 00	 movdqa	 XMMWORD PTR $T22[rsp], xmm0
  0062d	66 0f 6f 84 24
	f0 01 00 00	 movdqa	 xmm0, XMMWORD PTR $T22[rsp]
  00636	66 0f 7f 84 24
	e0 01 00 00	 movdqa	 XMMWORD PTR xSrc2$21[rsp], xmm0

; 500  :             __m128i x0 = _mm_shuffle_epi8(xSrc0, xmask0);

  0063f	66 0f 6f 84 24
	a0 01 00 00	 movdqa	 xmm0, XMMWORD PTR xSrc0$17[rsp]
  00648	66 0f 38 00 84
	24 f0 00 00 00	 pshufb	 xmm0, XMMWORD PTR xmask0$[rsp]
  00652	66 0f 7f 84 24
	10 02 00 00	 movdqa	 XMMWORD PTR $T24[rsp], xmm0
  0065b	66 0f 6f 84 24
	10 02 00 00	 movdqa	 xmm0, XMMWORD PTR $T24[rsp]
  00664	66 0f 7f 84 24
	00 02 00 00	 movdqa	 XMMWORD PTR x0$23[rsp], xmm0

; 501  :             __m128i x1 = _mm_shuffle_epi8(xSrc0, xmask1);

  0066d	66 0f 6f 84 24
	a0 01 00 00	 movdqa	 xmm0, XMMWORD PTR xSrc0$17[rsp]
  00676	66 0f 38 00 84
	24 10 01 00 00	 pshufb	 xmm0, XMMWORD PTR xmask1$[rsp]
  00680	66 0f 7f 84 24
	30 02 00 00	 movdqa	 XMMWORD PTR $T26[rsp], xmm0
  00689	66 0f 6f 84 24
	30 02 00 00	 movdqa	 xmm0, XMMWORD PTR $T26[rsp]
  00692	66 0f 7f 84 24
	20 02 00 00	 movdqa	 XMMWORD PTR x1$25[rsp], xmm0

; 502  :             __m128i x2 = _mm_shuffle_epi8(xSrc0, xmask2);

  0069b	66 0f 6f 84 24
	a0 01 00 00	 movdqa	 xmm0, XMMWORD PTR xSrc0$17[rsp]
  006a4	66 0f 38 00 84
	24 30 01 00 00	 pshufb	 xmm0, XMMWORD PTR xmask2$[rsp]
  006ae	66 0f 7f 84 24
	50 02 00 00	 movdqa	 XMMWORD PTR $T28[rsp], xmm0
  006b7	66 0f 6f 84 24
	50 02 00 00	 movdqa	 xmm0, XMMWORD PTR $T28[rsp]
  006c0	66 0f 7f 84 24
	40 02 00 00	 movdqa	 XMMWORD PTR x2$27[rsp], xmm0

; 503  :             x0 = _mm_or_si128(x0, _mm_shuffle_epi8(xSrc1, _mm_alignr_epi8(xmask2, xmask3, 10)));

  006c9	66 0f 6f 84 24
	30 01 00 00	 movdqa	 xmm0, XMMWORD PTR xmask2$[rsp]
  006d2	66 0f 3a 0f 84
	24 50 01 00 00
	0a		 palignr xmm0, XMMWORD PTR xmask3$[rsp], 10
  006dd	66 0f 7f 84 24
	60 02 00 00	 movdqa	 XMMWORD PTR $T29[rsp], xmm0
  006e6	66 0f 6f 84 24
	c0 01 00 00	 movdqa	 xmm0, XMMWORD PTR xSrc1$19[rsp]
  006ef	66 0f 38 00 84
	24 60 02 00 00	 pshufb	 xmm0, XMMWORD PTR $T29[rsp]
  006f9	66 0f 7f 84 24
	70 02 00 00	 movdqa	 XMMWORD PTR $T30[rsp], xmm0
  00702	66 0f 6f 84 24
	00 02 00 00	 movdqa	 xmm0, XMMWORD PTR x0$23[rsp]
  0070b	66 0f eb 84 24
	70 02 00 00	 por	 xmm0, XMMWORD PTR $T30[rsp]
  00714	66 0f 7f 84 24
	80 02 00 00	 movdqa	 XMMWORD PTR $T31[rsp], xmm0
  0071d	66 0f 6f 84 24
	80 02 00 00	 movdqa	 xmm0, XMMWORD PTR $T31[rsp]
  00726	66 0f 7f 84 24
	00 02 00 00	 movdqa	 XMMWORD PTR x0$23[rsp], xmm0

; 504  :             x1 = _mm_or_si128(x1, _mm_shuffle_epi8(xSrc1, _mm_alignr_epi8(xmask0, xmask3, 11)));

  0072f	66 0f 6f 84 24
	f0 00 00 00	 movdqa	 xmm0, XMMWORD PTR xmask0$[rsp]
  00738	66 0f 3a 0f 84
	24 50 01 00 00
	0b		 palignr xmm0, XMMWORD PTR xmask3$[rsp], 11
  00743	66 0f 7f 84 24
	90 02 00 00	 movdqa	 XMMWORD PTR $T32[rsp], xmm0
  0074c	66 0f 6f 84 24
	c0 01 00 00	 movdqa	 xmm0, XMMWORD PTR xSrc1$19[rsp]
  00755	66 0f 38 00 84
	24 90 02 00 00	 pshufb	 xmm0, XMMWORD PTR $T32[rsp]
  0075f	66 0f 7f 84 24
	a0 02 00 00	 movdqa	 XMMWORD PTR $T33[rsp], xmm0
  00768	66 0f 6f 84 24
	20 02 00 00	 movdqa	 xmm0, XMMWORD PTR x1$25[rsp]
  00771	66 0f eb 84 24
	a0 02 00 00	 por	 xmm0, XMMWORD PTR $T33[rsp]
  0077a	66 0f 7f 84 24
	b0 02 00 00	 movdqa	 XMMWORD PTR $T34[rsp], xmm0
  00783	66 0f 6f 84 24
	b0 02 00 00	 movdqa	 xmm0, XMMWORD PTR $T34[rsp]
  0078c	66 0f 7f 84 24
	20 02 00 00	 movdqa	 XMMWORD PTR x1$25[rsp], xmm0

; 505  :             x2 = _mm_or_si128(x2, _mm_shuffle_epi8(xSrc1, _mm_alignr_epi8(xmask1, xmask3, 11)));

  00795	66 0f 6f 84 24
	10 01 00 00	 movdqa	 xmm0, XMMWORD PTR xmask1$[rsp]
  0079e	66 0f 3a 0f 84
	24 50 01 00 00
	0b		 palignr xmm0, XMMWORD PTR xmask3$[rsp], 11
  007a9	66 0f 7f 84 24
	c0 02 00 00	 movdqa	 XMMWORD PTR $T35[rsp], xmm0
  007b2	66 0f 6f 84 24
	c0 01 00 00	 movdqa	 xmm0, XMMWORD PTR xSrc1$19[rsp]
  007bb	66 0f 38 00 84
	24 c0 02 00 00	 pshufb	 xmm0, XMMWORD PTR $T35[rsp]
  007c5	66 0f 7f 84 24
	d0 02 00 00	 movdqa	 XMMWORD PTR $T36[rsp], xmm0
  007ce	66 0f 6f 84 24
	40 02 00 00	 movdqa	 xmm0, XMMWORD PTR x2$27[rsp]
  007d7	66 0f eb 84 24
	d0 02 00 00	 por	 xmm0, XMMWORD PTR $T36[rsp]
  007e0	66 0f 7f 84 24
	e0 02 00 00	 movdqa	 XMMWORD PTR $T37[rsp], xmm0
  007e9	66 0f 6f 84 24
	e0 02 00 00	 movdqa	 xmm0, XMMWORD PTR $T37[rsp]
  007f2	66 0f 7f 84 24
	40 02 00 00	 movdqa	 XMMWORD PTR x2$27[rsp], xmm0

; 506  :             x0 = _mm_or_si128(x0, _mm_shuffle_epi8(xSrc2, _mm_alignr_epi8(xmask1, xmask3,  5)));

  007fb	66 0f 6f 84 24
	10 01 00 00	 movdqa	 xmm0, XMMWORD PTR xmask1$[rsp]
  00804	66 0f 3a 0f 84
	24 50 01 00 00
	05		 palignr xmm0, XMMWORD PTR xmask3$[rsp], 5
  0080f	66 0f 7f 84 24
	f0 02 00 00	 movdqa	 XMMWORD PTR $T38[rsp], xmm0
  00818	66 0f 6f 84 24
	e0 01 00 00	 movdqa	 xmm0, XMMWORD PTR xSrc2$21[rsp]
  00821	66 0f 38 00 84
	24 f0 02 00 00	 pshufb	 xmm0, XMMWORD PTR $T38[rsp]
  0082b	66 0f 7f 84 24
	00 03 00 00	 movdqa	 XMMWORD PTR $T39[rsp], xmm0
  00834	66 0f 6f 84 24
	00 02 00 00	 movdqa	 xmm0, XMMWORD PTR x0$23[rsp]
  0083d	66 0f eb 84 24
	00 03 00 00	 por	 xmm0, XMMWORD PTR $T39[rsp]
  00846	66 0f 7f 84 24
	10 03 00 00	 movdqa	 XMMWORD PTR $T40[rsp], xmm0
  0084f	66 0f 6f 84 24
	10 03 00 00	 movdqa	 xmm0, XMMWORD PTR $T40[rsp]
  00858	66 0f 7f 84 24
	00 02 00 00	 movdqa	 XMMWORD PTR x0$23[rsp], xmm0

; 507  :             x1 = _mm_or_si128(x1, _mm_shuffle_epi8(xSrc2, _mm_alignr_epi8(xmask2, xmask3,  5)));

  00861	66 0f 6f 84 24
	30 01 00 00	 movdqa	 xmm0, XMMWORD PTR xmask2$[rsp]
  0086a	66 0f 3a 0f 84
	24 50 01 00 00
	05		 palignr xmm0, XMMWORD PTR xmask3$[rsp], 5
  00875	66 0f 7f 84 24
	20 03 00 00	 movdqa	 XMMWORD PTR $T41[rsp], xmm0
  0087e	66 0f 6f 84 24
	e0 01 00 00	 movdqa	 xmm0, XMMWORD PTR xSrc2$21[rsp]
  00887	66 0f 38 00 84
	24 20 03 00 00	 pshufb	 xmm0, XMMWORD PTR $T41[rsp]
  00891	66 0f 7f 84 24
	30 03 00 00	 movdqa	 XMMWORD PTR $T42[rsp], xmm0
  0089a	66 0f 6f 84 24
	20 02 00 00	 movdqa	 xmm0, XMMWORD PTR x1$25[rsp]
  008a3	66 0f eb 84 24
	30 03 00 00	 por	 xmm0, XMMWORD PTR $T42[rsp]
  008ac	66 0f 7f 84 24
	40 03 00 00	 movdqa	 XMMWORD PTR $T43[rsp], xmm0
  008b5	66 0f 6f 84 24
	40 03 00 00	 movdqa	 xmm0, XMMWORD PTR $T43[rsp]
  008be	66 0f 7f 84 24
	20 02 00 00	 movdqa	 XMMWORD PTR x1$25[rsp], xmm0

; 508  :             x2 = _mm_or_si128(x2, _mm_shuffle_epi8(xSrc2, _mm_alignr_epi8(xmask0, xmask3,  6)));

  008c7	66 0f 6f 84 24
	f0 00 00 00	 movdqa	 xmm0, XMMWORD PTR xmask0$[rsp]
  008d0	66 0f 3a 0f 84
	24 50 01 00 00
	06		 palignr xmm0, XMMWORD PTR xmask3$[rsp], 6
  008db	66 0f 7f 84 24
	50 03 00 00	 movdqa	 XMMWORD PTR $T44[rsp], xmm0
  008e4	66 0f 6f 84 24
	e0 01 00 00	 movdqa	 xmm0, XMMWORD PTR xSrc2$21[rsp]
  008ed	66 0f 38 00 84
	24 50 03 00 00	 pshufb	 xmm0, XMMWORD PTR $T44[rsp]
  008f7	66 0f 7f 84 24
	60 03 00 00	 movdqa	 XMMWORD PTR $T45[rsp], xmm0
  00900	66 0f 6f 84 24
	40 02 00 00	 movdqa	 xmm0, XMMWORD PTR x2$27[rsp]
  00909	66 0f eb 84 24
	60 03 00 00	 por	 xmm0, XMMWORD PTR $T45[rsp]
  00912	66 0f 7f 84 24
	70 03 00 00	 movdqa	 XMMWORD PTR $T46[rsp], xmm0
  0091b	66 0f 6f 84 24
	70 03 00 00	 movdqa	 xmm0, XMMWORD PTR $T46[rsp]
  00924	66 0f 7f 84 24
	40 02 00 00	 movdqa	 XMMWORD PTR x2$27[rsp], xmm0

; 509  :             _mm_storeu_si128((__m128i *)ptr_dst0, x0);

  0092d	48 8b 84 24 80
	01 00 00	 mov	 rax, QWORD PTR ptr_dst0$12[rsp]
  00935	66 0f 6f 84 24
	00 02 00 00	 movdqa	 xmm0, XMMWORD PTR x0$23[rsp]
  0093e	f3 0f 7f 00	 movdqu	 XMMWORD PTR [rax], xmm0

; 510  :             _mm_storeu_si128((__m128i *)ptr_dst1, x1);

  00942	48 8b 84 24 88
	01 00 00	 mov	 rax, QWORD PTR ptr_dst1$13[rsp]
  0094a	66 0f 6f 84 24
	20 02 00 00	 movdqa	 xmm0, XMMWORD PTR x1$25[rsp]
  00953	f3 0f 7f 00	 movdqu	 XMMWORD PTR [rax], xmm0

; 511  :             _mm_storeu_si128((__m128i *)ptr_dst2, x2);

  00957	48 8b 84 24 90
	01 00 00	 mov	 rax, QWORD PTR ptr_dst2$14[rsp]
  0095f	66 0f 6f 84 24
	40 02 00 00	 movdqa	 xmm0, XMMWORD PTR x2$27[rsp]
  00968	f3 0f 7f 00	 movdqu	 XMMWORD PTR [rax], xmm0

; 512  :         }

  0096c	e9 dc fb ff ff	 jmp	 $LN5@convert_rg
$LN6@convert_rg:

; 513  :         if (width & 15) {

  00971	8b 84 24 d0 05
	00 00		 mov	 eax, DWORD PTR width$[rsp]
  00978	83 e0 0f	 and	 eax, 15
  0097b	85 c0		 test	 eax, eax
  0097d	0f 84 94 00 00
	00		 je	 $LN9@convert_rg

; 514  :             int x_offset = (16 - (width & 15));

  00983	8b 84 24 d0 05
	00 00		 mov	 eax, DWORD PTR width$[rsp]
  0098a	83 e0 0f	 and	 eax, 15
  0098d	b9 10 00 00 00	 mov	 ecx, 16
  00992	2b c8		 sub	 ecx, eax
  00994	8b c1		 mov	 eax, ecx
  00996	89 84 24 80 03
	00 00		 mov	 DWORD PTR x_offset$47[rsp], eax

; 515  :             ptr_src -= x_offset * 3;

  0099d	6b 84 24 80 03
	00 00 03	 imul	 eax, DWORD PTR x_offset$47[rsp], 3
  009a5	48 98		 cdqe
  009a7	48 8b 8c 24 78
	01 00 00	 mov	 rcx, QWORD PTR ptr_src$11[rsp]
  009af	48 2b c8	 sub	 rcx, rax
  009b2	48 8b c1	 mov	 rax, rcx
  009b5	48 89 84 24 78
	01 00 00	 mov	 QWORD PTR ptr_src$11[rsp], rax

; 516  :             ptr_dst0 -= x_offset;

  009bd	48 63 84 24 80
	03 00 00	 movsxd	 rax, DWORD PTR x_offset$47[rsp]
  009c5	48 8b 8c 24 80
	01 00 00	 mov	 rcx, QWORD PTR ptr_dst0$12[rsp]
  009cd	48 2b c8	 sub	 rcx, rax
  009d0	48 8b c1	 mov	 rax, rcx
  009d3	48 89 84 24 80
	01 00 00	 mov	 QWORD PTR ptr_dst0$12[rsp], rax

; 517  :             ptr_dst1 -= x_offset;

  009db	48 63 84 24 80
	03 00 00	 movsxd	 rax, DWORD PTR x_offset$47[rsp]
  009e3	48 8b 8c 24 88
	01 00 00	 mov	 rcx, QWORD PTR ptr_dst1$13[rsp]
  009eb	48 2b c8	 sub	 rcx, rax
  009ee	48 8b c1	 mov	 rax, rcx
  009f1	48 89 84 24 88
	01 00 00	 mov	 QWORD PTR ptr_dst1$13[rsp], rax

; 518  :             ptr_dst2 -= x_offset;

  009f9	48 63 84 24 80
	03 00 00	 movsxd	 rax, DWORD PTR x_offset$47[rsp]
  00a01	48 8b 8c 24 90
	01 00 00	 mov	 rcx, QWORD PTR ptr_dst2$14[rsp]
  00a09	48 2b c8	 sub	 rcx, rax
  00a0c	48 8b c1	 mov	 rax, rcx
  00a0f	48 89 84 24 90
	01 00 00	 mov	 QWORD PTR ptr_dst2$14[rsp], rax
$LN9@convert_rg:

; 519  :         }
; 520  :         __m128i xSrc0 = _mm_loadu_si128((__m128i *)(ptr_src +  0));

  00a17	48 8b 84 24 78
	01 00 00	 mov	 rax, QWORD PTR ptr_src$11[rsp]
  00a1f	f3 0f 6f 00	 movdqu	 xmm0, XMMWORD PTR [rax]
  00a23	66 0f 7f 84 24
	a0 03 00 00	 movdqa	 XMMWORD PTR $T49[rsp], xmm0
  00a2c	66 0f 6f 84 24
	a0 03 00 00	 movdqa	 xmm0, XMMWORD PTR $T49[rsp]
  00a35	66 0f 7f 84 24
	90 03 00 00	 movdqa	 XMMWORD PTR xSrc0$48[rsp], xmm0

; 521  :         __m128i xSrc1 = _mm_loadu_si128((__m128i *)(ptr_src + 16));

  00a3e	48 8b 84 24 78
	01 00 00	 mov	 rax, QWORD PTR ptr_src$11[rsp]
  00a46	48 83 c0 10	 add	 rax, 16
  00a4a	f3 0f 6f 00	 movdqu	 xmm0, XMMWORD PTR [rax]
  00a4e	66 0f 7f 84 24
	c0 03 00 00	 movdqa	 XMMWORD PTR $T51[rsp], xmm0
  00a57	66 0f 6f 84 24
	c0 03 00 00	 movdqa	 xmm0, XMMWORD PTR $T51[rsp]
  00a60	66 0f 7f 84 24
	b0 03 00 00	 movdqa	 XMMWORD PTR xSrc1$50[rsp], xmm0

; 522  :         __m128i xSrc2 = _mm_loadu_si128((__m128i *)(ptr_src + 32));

  00a69	48 8b 84 24 78
	01 00 00	 mov	 rax, QWORD PTR ptr_src$11[rsp]
  00a71	48 83 c0 20	 add	 rax, 32			; 00000020H
  00a75	f3 0f 6f 00	 movdqu	 xmm0, XMMWORD PTR [rax]
  00a79	66 0f 7f 84 24
	e0 03 00 00	 movdqa	 XMMWORD PTR $T53[rsp], xmm0
  00a82	66 0f 6f 84 24
	e0 03 00 00	 movdqa	 xmm0, XMMWORD PTR $T53[rsp]
  00a8b	66 0f 7f 84 24
	d0 03 00 00	 movdqa	 XMMWORD PTR xSrc2$52[rsp], xmm0

; 523  :         __m128i x0 = _mm_shuffle_epi8(xSrc0, xmask0);

  00a94	66 0f 6f 84 24
	90 03 00 00	 movdqa	 xmm0, XMMWORD PTR xSrc0$48[rsp]
  00a9d	66 0f 38 00 84
	24 f0 00 00 00	 pshufb	 xmm0, XMMWORD PTR xmask0$[rsp]
  00aa7	66 0f 7f 84 24
	00 04 00 00	 movdqa	 XMMWORD PTR $T55[rsp], xmm0
  00ab0	66 0f 6f 84 24
	00 04 00 00	 movdqa	 xmm0, XMMWORD PTR $T55[rsp]
  00ab9	66 0f 7f 84 24
	f0 03 00 00	 movdqa	 XMMWORD PTR x0$54[rsp], xmm0

; 524  :         __m128i x1 = _mm_shuffle_epi8(xSrc0, xmask1);

  00ac2	66 0f 6f 84 24
	90 03 00 00	 movdqa	 xmm0, XMMWORD PTR xSrc0$48[rsp]
  00acb	66 0f 38 00 84
	24 10 01 00 00	 pshufb	 xmm0, XMMWORD PTR xmask1$[rsp]
  00ad5	66 0f 7f 84 24
	20 04 00 00	 movdqa	 XMMWORD PTR $T57[rsp], xmm0
  00ade	66 0f 6f 84 24
	20 04 00 00	 movdqa	 xmm0, XMMWORD PTR $T57[rsp]
  00ae7	66 0f 7f 84 24
	10 04 00 00	 movdqa	 XMMWORD PTR x1$56[rsp], xmm0

; 525  :         __m128i x2 = _mm_shuffle_epi8(xSrc0, xmask2);

  00af0	66 0f 6f 84 24
	90 03 00 00	 movdqa	 xmm0, XMMWORD PTR xSrc0$48[rsp]
  00af9	66 0f 38 00 84
	24 30 01 00 00	 pshufb	 xmm0, XMMWORD PTR xmask2$[rsp]
  00b03	66 0f 7f 84 24
	40 04 00 00	 movdqa	 XMMWORD PTR $T59[rsp], xmm0
  00b0c	66 0f 6f 84 24
	40 04 00 00	 movdqa	 xmm0, XMMWORD PTR $T59[rsp]
  00b15	66 0f 7f 84 24
	30 04 00 00	 movdqa	 XMMWORD PTR x2$58[rsp], xmm0

; 526  :         x0 = _mm_or_si128(x0, _mm_shuffle_epi8(xSrc1, _mm_alignr_epi8(xmask2, xmask3, 10)));

  00b1e	66 0f 6f 84 24
	30 01 00 00	 movdqa	 xmm0, XMMWORD PTR xmask2$[rsp]
  00b27	66 0f 3a 0f 84
	24 50 01 00 00
	0a		 palignr xmm0, XMMWORD PTR xmask3$[rsp], 10
  00b32	66 0f 7f 84 24
	50 04 00 00	 movdqa	 XMMWORD PTR $T60[rsp], xmm0
  00b3b	66 0f 6f 84 24
	b0 03 00 00	 movdqa	 xmm0, XMMWORD PTR xSrc1$50[rsp]
  00b44	66 0f 38 00 84
	24 50 04 00 00	 pshufb	 xmm0, XMMWORD PTR $T60[rsp]
  00b4e	66 0f 7f 84 24
	60 04 00 00	 movdqa	 XMMWORD PTR $T61[rsp], xmm0
  00b57	66 0f 6f 84 24
	f0 03 00 00	 movdqa	 xmm0, XMMWORD PTR x0$54[rsp]
  00b60	66 0f eb 84 24
	60 04 00 00	 por	 xmm0, XMMWORD PTR $T61[rsp]
  00b69	66 0f 7f 84 24
	70 04 00 00	 movdqa	 XMMWORD PTR $T62[rsp], xmm0
  00b72	66 0f 6f 84 24
	70 04 00 00	 movdqa	 xmm0, XMMWORD PTR $T62[rsp]
  00b7b	66 0f 7f 84 24
	f0 03 00 00	 movdqa	 XMMWORD PTR x0$54[rsp], xmm0

; 527  :         x1 = _mm_or_si128(x1, _mm_shuffle_epi8(xSrc1, _mm_alignr_epi8(xmask0, xmask3, 11)));

  00b84	66 0f 6f 84 24
	f0 00 00 00	 movdqa	 xmm0, XMMWORD PTR xmask0$[rsp]
  00b8d	66 0f 3a 0f 84
	24 50 01 00 00
	0b		 palignr xmm0, XMMWORD PTR xmask3$[rsp], 11
  00b98	66 0f 7f 84 24
	80 04 00 00	 movdqa	 XMMWORD PTR $T63[rsp], xmm0
  00ba1	66 0f 6f 84 24
	b0 03 00 00	 movdqa	 xmm0, XMMWORD PTR xSrc1$50[rsp]
  00baa	66 0f 38 00 84
	24 80 04 00 00	 pshufb	 xmm0, XMMWORD PTR $T63[rsp]
  00bb4	66 0f 7f 84 24
	90 04 00 00	 movdqa	 XMMWORD PTR $T64[rsp], xmm0
  00bbd	66 0f 6f 84 24
	10 04 00 00	 movdqa	 xmm0, XMMWORD PTR x1$56[rsp]
  00bc6	66 0f eb 84 24
	90 04 00 00	 por	 xmm0, XMMWORD PTR $T64[rsp]
  00bcf	66 0f 7f 84 24
	a0 04 00 00	 movdqa	 XMMWORD PTR $T65[rsp], xmm0
  00bd8	66 0f 6f 84 24
	a0 04 00 00	 movdqa	 xmm0, XMMWORD PTR $T65[rsp]
  00be1	66 0f 7f 84 24
	10 04 00 00	 movdqa	 XMMWORD PTR x1$56[rsp], xmm0

; 528  :         x2 = _mm_or_si128(x2, _mm_shuffle_epi8(xSrc1, _mm_alignr_epi8(xmask1, xmask3, 11)));

  00bea	66 0f 6f 84 24
	10 01 00 00	 movdqa	 xmm0, XMMWORD PTR xmask1$[rsp]
  00bf3	66 0f 3a 0f 84
	24 50 01 00 00
	0b		 palignr xmm0, XMMWORD PTR xmask3$[rsp], 11
  00bfe	66 0f 7f 84 24
	b0 04 00 00	 movdqa	 XMMWORD PTR $T66[rsp], xmm0
  00c07	66 0f 6f 84 24
	b0 03 00 00	 movdqa	 xmm0, XMMWORD PTR xSrc1$50[rsp]
  00c10	66 0f 38 00 84
	24 b0 04 00 00	 pshufb	 xmm0, XMMWORD PTR $T66[rsp]
  00c1a	66 0f 7f 84 24
	c0 04 00 00	 movdqa	 XMMWORD PTR $T67[rsp], xmm0
  00c23	66 0f 6f 84 24
	30 04 00 00	 movdqa	 xmm0, XMMWORD PTR x2$58[rsp]
  00c2c	66 0f eb 84 24
	c0 04 00 00	 por	 xmm0, XMMWORD PTR $T67[rsp]
  00c35	66 0f 7f 84 24
	d0 04 00 00	 movdqa	 XMMWORD PTR $T68[rsp], xmm0
  00c3e	66 0f 6f 84 24
	d0 04 00 00	 movdqa	 xmm0, XMMWORD PTR $T68[rsp]
  00c47	66 0f 7f 84 24
	30 04 00 00	 movdqa	 XMMWORD PTR x2$58[rsp], xmm0

; 529  :         x0 = _mm_or_si128(x0, _mm_shuffle_epi8(xSrc2, _mm_alignr_epi8(xmask1, xmask3, 5)));

  00c50	66 0f 6f 84 24
	10 01 00 00	 movdqa	 xmm0, XMMWORD PTR xmask1$[rsp]
  00c59	66 0f 3a 0f 84
	24 50 01 00 00
	05		 palignr xmm0, XMMWORD PTR xmask3$[rsp], 5
  00c64	66 0f 7f 84 24
	e0 04 00 00	 movdqa	 XMMWORD PTR $T69[rsp], xmm0
  00c6d	66 0f 6f 84 24
	d0 03 00 00	 movdqa	 xmm0, XMMWORD PTR xSrc2$52[rsp]
  00c76	66 0f 38 00 84
	24 e0 04 00 00	 pshufb	 xmm0, XMMWORD PTR $T69[rsp]
  00c80	66 0f 7f 84 24
	f0 04 00 00	 movdqa	 XMMWORD PTR $T70[rsp], xmm0
  00c89	66 0f 6f 84 24
	f0 03 00 00	 movdqa	 xmm0, XMMWORD PTR x0$54[rsp]
  00c92	66 0f eb 84 24
	f0 04 00 00	 por	 xmm0, XMMWORD PTR $T70[rsp]
  00c9b	66 0f 7f 84 24
	00 05 00 00	 movdqa	 XMMWORD PTR $T71[rsp], xmm0
  00ca4	66 0f 6f 84 24
	00 05 00 00	 movdqa	 xmm0, XMMWORD PTR $T71[rsp]
  00cad	66 0f 7f 84 24
	f0 03 00 00	 movdqa	 XMMWORD PTR x0$54[rsp], xmm0

; 530  :         x1 = _mm_or_si128(x1, _mm_shuffle_epi8(xSrc2, _mm_alignr_epi8(xmask2, xmask3, 5)));

  00cb6	66 0f 6f 84 24
	30 01 00 00	 movdqa	 xmm0, XMMWORD PTR xmask2$[rsp]
  00cbf	66 0f 3a 0f 84
	24 50 01 00 00
	05		 palignr xmm0, XMMWORD PTR xmask3$[rsp], 5
  00cca	66 0f 7f 84 24
	10 05 00 00	 movdqa	 XMMWORD PTR $T72[rsp], xmm0
  00cd3	66 0f 6f 84 24
	d0 03 00 00	 movdqa	 xmm0, XMMWORD PTR xSrc2$52[rsp]
  00cdc	66 0f 38 00 84
	24 10 05 00 00	 pshufb	 xmm0, XMMWORD PTR $T72[rsp]
  00ce6	66 0f 7f 84 24
	20 05 00 00	 movdqa	 XMMWORD PTR $T73[rsp], xmm0
  00cef	66 0f 6f 84 24
	10 04 00 00	 movdqa	 xmm0, XMMWORD PTR x1$56[rsp]
  00cf8	66 0f eb 84 24
	20 05 00 00	 por	 xmm0, XMMWORD PTR $T73[rsp]
  00d01	66 0f 7f 84 24
	30 05 00 00	 movdqa	 XMMWORD PTR $T74[rsp], xmm0
  00d0a	66 0f 6f 84 24
	30 05 00 00	 movdqa	 xmm0, XMMWORD PTR $T74[rsp]
  00d13	66 0f 7f 84 24
	10 04 00 00	 movdqa	 XMMWORD PTR x1$56[rsp], xmm0

; 531  :         x2 = _mm_or_si128(x2, _mm_shuffle_epi8(xSrc2, _mm_alignr_epi8(xmask0, xmask3, 6)));

  00d1c	66 0f 6f 84 24
	f0 00 00 00	 movdqa	 xmm0, XMMWORD PTR xmask0$[rsp]
  00d25	66 0f 3a 0f 84
	24 50 01 00 00
	06		 palignr xmm0, XMMWORD PTR xmask3$[rsp], 6
  00d30	66 0f 7f 84 24
	40 05 00 00	 movdqa	 XMMWORD PTR $T75[rsp], xmm0
  00d39	66 0f 6f 84 24
	d0 03 00 00	 movdqa	 xmm0, XMMWORD PTR xSrc2$52[rsp]
  00d42	66 0f 38 00 84
	24 40 05 00 00	 pshufb	 xmm0, XMMWORD PTR $T75[rsp]
  00d4c	66 0f 7f 84 24
	50 05 00 00	 movdqa	 XMMWORD PTR $T76[rsp], xmm0
  00d55	66 0f 6f 84 24
	30 04 00 00	 movdqa	 xmm0, XMMWORD PTR x2$58[rsp]
  00d5e	66 0f eb 84 24
	50 05 00 00	 por	 xmm0, XMMWORD PTR $T76[rsp]
  00d67	66 0f 7f 84 24
	60 05 00 00	 movdqa	 XMMWORD PTR $T77[rsp], xmm0
  00d70	66 0f 6f 84 24
	60 05 00 00	 movdqa	 xmm0, XMMWORD PTR $T77[rsp]
  00d79	66 0f 7f 84 24
	30 04 00 00	 movdqa	 XMMWORD PTR x2$58[rsp], xmm0

; 532  :         _mm_storeu_si128((__m128i *)ptr_dst0, x0);

  00d82	48 8b 84 24 80
	01 00 00	 mov	 rax, QWORD PTR ptr_dst0$12[rsp]
  00d8a	66 0f 6f 84 24
	f0 03 00 00	 movdqa	 xmm0, XMMWORD PTR x0$54[rsp]
  00d93	f3 0f 7f 00	 movdqu	 XMMWORD PTR [rax], xmm0

; 533  :         _mm_storeu_si128((__m128i *)ptr_dst1, x1);

  00d97	48 8b 84 24 88
	01 00 00	 mov	 rax, QWORD PTR ptr_dst1$13[rsp]
  00d9f	66 0f 6f 84 24
	10 04 00 00	 movdqa	 xmm0, XMMWORD PTR x1$56[rsp]
  00da8	f3 0f 7f 00	 movdqu	 XMMWORD PTR [rax], xmm0

; 534  :         _mm_storeu_si128((__m128i *)ptr_dst2, x2);

  00dac	48 8b 84 24 90
	01 00 00	 mov	 rax, QWORD PTR ptr_dst2$14[rsp]
  00db4	66 0f 6f 84 24
	30 04 00 00	 movdqa	 xmm0, XMMWORD PTR x2$58[rsp]
  00dbd	f3 0f 7f 00	 movdqu	 XMMWORD PTR [rax], xmm0

; 535  :     }

  00dc1	e9 8d f6 ff ff	 jmp	 $LN2@convert_rg
$LN3@convert_rg:

; 536  : }

  00dc6	48 8b cc	 mov	 rcx, rsp
  00dc9	48 8d 15 00 00
	00 00		 lea	 rdx, OFFSET FLAT:??$convert_rgb24_to_rgb_simd@$0PPACABAA@$0A@@@YAXPEAPEAXPEAPEBXHHHHHHHHPEAH@Z$rtcFrameData
  00dd0	e8 00 00 00 00	 call	 _RTC_CheckStackVars
  00dd5	48 8b 8c 24 90
	05 00 00	 mov	 rcx, QWORD PTR __$ArrayPad$[rsp]
  00ddd	48 33 cc	 xor	 rcx, rsp
  00de0	e8 00 00 00 00	 call	 __security_check_cookie
  00de5	48 81 c4 a8 05
	00 00		 add	 rsp, 1448		; 000005a8H
  00dec	5f		 pop	 rdi
  00ded	5e		 pop	 rsi
  00dee	c3		 ret	 0
??$convert_rgb24_to_rgb_simd@$0PPACABAA@$0A@@@YAXPEAPEAXPEAPEBXHHHHHHHHPEAH@Z ENDP ; convert_rgb24_to_rgb_simd<4278321408,0>
_TEXT	ENDS
; Function compile flags: /Odtp /RTCsu
; File D:\work\intel\intel_codec\QSVPipeline\convert_csp_ssse3.cpp
_TEXT	SEGMENT
dst$ = 112
src$ = 120
width$ = 128
src_y_pitch_byte$ = 136
src_uv_pitch_byte$ = 144
dst_y_pitch_byte$ = 152
height$ = 160
dst_height$ = 168
thread_id$ = 176
thread_n$ = 184
crop$ = 192
?convert_bgr24_to_rgb_ssse3@@YAXPEAPEAXPEAPEBXHHHHHHHHPEAH@Z PROC ; convert_bgr24_to_rgb_ssse3

; 74   : void convert_bgr24_to_rgb_ssse3(void **dst, const void **src, int width, int src_y_pitch_byte, int src_uv_pitch_byte, int dst_y_pitch_byte, int height, int dst_height, int thread_id, int thread_n, int *crop) {

$LN3:
  00000	44 89 4c 24 20	 mov	 DWORD PTR [rsp+32], r9d
  00005	44 89 44 24 18	 mov	 DWORD PTR [rsp+24], r8d
  0000a	48 89 54 24 10	 mov	 QWORD PTR [rsp+16], rdx
  0000f	48 89 4c 24 08	 mov	 QWORD PTR [rsp+8], rcx
  00014	57		 push	 rdi
  00015	48 83 ec 60	 sub	 rsp, 96			; 00000060H
  00019	48 8b fc	 mov	 rdi, rsp
  0001c	b9 18 00 00 00	 mov	 ecx, 24
  00021	b8 cc cc cc cc	 mov	 eax, -858993460		; ccccccccH
  00026	f3 ab		 rep stosd
  00028	48 8b 4c 24 70	 mov	 rcx, QWORD PTR [rsp+112]

; 75   :     convert_rgb24_to_rgb_simd<RGB_PLANE(0, 1, 2, -1), false>(dst, src, width, src_y_pitch_byte, src_uv_pitch_byte, dst_y_pitch_byte, height, dst_height, thread_id, thread_n, crop);

  0002d	48 8b 84 24 c0
	00 00 00	 mov	 rax, QWORD PTR crop$[rsp]
  00035	48 89 44 24 50	 mov	 QWORD PTR [rsp+80], rax
  0003a	8b 84 24 b8 00
	00 00		 mov	 eax, DWORD PTR thread_n$[rsp]
  00041	89 44 24 48	 mov	 DWORD PTR [rsp+72], eax
  00045	8b 84 24 b0 00
	00 00		 mov	 eax, DWORD PTR thread_id$[rsp]
  0004c	89 44 24 40	 mov	 DWORD PTR [rsp+64], eax
  00050	8b 84 24 a8 00
	00 00		 mov	 eax, DWORD PTR dst_height$[rsp]
  00057	89 44 24 38	 mov	 DWORD PTR [rsp+56], eax
  0005b	8b 84 24 a0 00
	00 00		 mov	 eax, DWORD PTR height$[rsp]
  00062	89 44 24 30	 mov	 DWORD PTR [rsp+48], eax
  00066	8b 84 24 98 00
	00 00		 mov	 eax, DWORD PTR dst_y_pitch_byte$[rsp]
  0006d	89 44 24 28	 mov	 DWORD PTR [rsp+40], eax
  00071	8b 84 24 90 00
	00 00		 mov	 eax, DWORD PTR src_uv_pitch_byte$[rsp]
  00078	89 44 24 20	 mov	 DWORD PTR [rsp+32], eax
  0007c	44 8b 8c 24 88
	00 00 00	 mov	 r9d, DWORD PTR src_y_pitch_byte$[rsp]
  00084	44 8b 84 24 80
	00 00 00	 mov	 r8d, DWORD PTR width$[rsp]
  0008c	48 8b 54 24 78	 mov	 rdx, QWORD PTR src$[rsp]
  00091	48 8b 4c 24 70	 mov	 rcx, QWORD PTR dst$[rsp]
  00096	e8 00 00 00 00	 call	 ??$convert_rgb24_to_rgb_simd@$0PPACABAA@$0A@@@YAXPEAPEAXPEAPEBXHHHHHHHHPEAH@Z ; convert_rgb24_to_rgb_simd<4278321408,0>

; 76   : }

  0009b	48 83 c4 60	 add	 rsp, 96			; 00000060H
  0009f	5f		 pop	 rdi
  000a0	c3		 ret	 0
?convert_bgr24_to_rgb_ssse3@@YAXPEAPEAXPEAPEBXHHHHHHHHPEAH@Z ENDP ; convert_bgr24_to_rgb_ssse3
_TEXT	ENDS
; Function compile flags: /Odtp /RTCsu
; File D:\work\intel\intel_codec\QSVPipeline\convert_csp_simd.h
_TEXT	SEGMENT
crop_left$ = 48
crop_up$ = 52
crop_right$ = 56
crop_bottom$ = 60
y_range$ = 72
$T5 = 104
dst0Line$ = 120
dst1Line$ = 128
dst2Line$ = 136
srcLine$ = 144
MASK_RGB_TO_RGB24$ = 176
xmask0$ = 240
$T6 = 256
xmask1$ = 272
$T7 = 288
xmask2$ = 304
$T8 = 320
xmask3$ = 336
$T9 = 352
y$10 = 368
ptr_src$11 = 376
ptr_dst0$12 = 384
ptr_dst1$13 = 392
ptr_dst2$14 = 400
x$15 = 408
x_fin$16 = 412
xSrc0$17 = 416
$T18 = 432
xSrc1$19 = 448
$T20 = 464
xSrc2$21 = 480
$T22 = 496
x0$23 = 512
$T24 = 528
x1$25 = 544
$T26 = 560
x2$27 = 576
$T28 = 592
$T29 = 608
$T30 = 624
$T31 = 640
$T32 = 656
$T33 = 672
$T34 = 688
$T35 = 704
$T36 = 720
$T37 = 736
$T38 = 752
$T39 = 768
$T40 = 784
$T41 = 800
$T42 = 816
$T43 = 832
$T44 = 848
$T45 = 864
$T46 = 880
x_offset$47 = 896
xSrc0$48 = 912
$T49 = 928
xSrc1$50 = 944
$T51 = 960
xSrc2$52 = 976
$T53 = 992
x0$54 = 1008
$T55 = 1024
x1$56 = 1040
$T57 = 1056
x2$58 = 1072
$T59 = 1088
$T60 = 1104
$T61 = 1120
$T62 = 1136
$T63 = 1152
$T64 = 1168
$T65 = 1184
$T66 = 1200
$T67 = 1216
$T68 = 1232
$T69 = 1248
$T70 = 1264
$T71 = 1280
$T72 = 1296
$T73 = 1312
$T74 = 1328
$T75 = 1344
$T76 = 1360
$T77 = 1376
$T78 = 1400
tv133 = 1416
__$ArrayPad$ = 1424
dst$ = 1472
src$ = 1480
width$ = 1488
src_y_pitch_byte$ = 1496
src_uv_pitch_byte$ = 1504
dst_y_pitch_byte$ = 1512
height$ = 1520
dst_height$ = 1528
thread_id$ = 1536
thread_n$ = 1544
crop$ = 1552
??$convert_rgb24_to_rgb_simd@$0PPAAABAC@$0A@@@YAXPEAPEAXPEAPEBXHHHHHHHHPEAH@Z PROC ; convert_rgb24_to_rgb_simd<4278190338,0>

; 468  : static void __forceinline convert_rgb24_to_rgb_simd(void **dst, const void **src, int width, int src_y_pitch_byte, int src_uv_pitch_byte, int dst_y_pitch_byte, int height, int dst_height, int thread_id, int thread_n, int *crop) {

  00000	44 89 4c 24 20	 mov	 DWORD PTR [rsp+32], r9d
  00005	44 89 44 24 18	 mov	 DWORD PTR [rsp+24], r8d
  0000a	48 89 54 24 10	 mov	 QWORD PTR [rsp+16], rdx
  0000f	48 89 4c 24 08	 mov	 QWORD PTR [rsp+8], rcx
  00014	56		 push	 rsi
  00015	57		 push	 rdi
  00016	48 81 ec a8 05
	00 00		 sub	 rsp, 1448		; 000005a8H
  0001d	48 8b fc	 mov	 rdi, rsp
  00020	b9 6a 01 00 00	 mov	 ecx, 362		; 0000016aH
  00025	b8 cc cc cc cc	 mov	 eax, -858993460		; ccccccccH
  0002a	f3 ab		 rep stosd
  0002c	48 8b 8c 24 c0
	05 00 00	 mov	 rcx, QWORD PTR [rsp+1472]
  00034	48 8b 05 00 00
	00 00		 mov	 rax, QWORD PTR __security_cookie
  0003b	48 33 c4	 xor	 rax, rsp
  0003e	48 89 84 24 90
	05 00 00	 mov	 QWORD PTR __$ArrayPad$[rsp], rax

; 469  :     const int crop_left   = crop[0];

  00046	b8 04 00 00 00	 mov	 eax, 4
  0004b	48 6b c0 00	 imul	 rax, rax, 0
  0004f	48 8b 8c 24 10
	06 00 00	 mov	 rcx, QWORD PTR crop$[rsp]
  00057	8b 04 01	 mov	 eax, DWORD PTR [rcx+rax]
  0005a	89 44 24 30	 mov	 DWORD PTR crop_left$[rsp], eax

; 470  :     const int crop_up     = crop[1];

  0005e	b8 04 00 00 00	 mov	 eax, 4
  00063	48 6b c0 01	 imul	 rax, rax, 1
  00067	48 8b 8c 24 10
	06 00 00	 mov	 rcx, QWORD PTR crop$[rsp]
  0006f	8b 04 01	 mov	 eax, DWORD PTR [rcx+rax]
  00072	89 44 24 34	 mov	 DWORD PTR crop_up$[rsp], eax

; 471  :     const int crop_right  = crop[2];

  00076	b8 04 00 00 00	 mov	 eax, 4
  0007b	48 6b c0 02	 imul	 rax, rax, 2
  0007f	48 8b 8c 24 10
	06 00 00	 mov	 rcx, QWORD PTR crop$[rsp]
  00087	8b 04 01	 mov	 eax, DWORD PTR [rcx+rax]
  0008a	89 44 24 38	 mov	 DWORD PTR crop_right$[rsp], eax

; 472  :     const int crop_bottom = crop[3];

  0008e	b8 04 00 00 00	 mov	 eax, 4
  00093	48 6b c0 03	 imul	 rax, rax, 3
  00097	48 8b 8c 24 10
	06 00 00	 mov	 rcx, QWORD PTR crop$[rsp]
  0009f	8b 04 01	 mov	 eax, DWORD PTR [rcx+rax]
  000a2	89 44 24 3c	 mov	 DWORD PTR crop_bottom$[rsp], eax

; 473  :     const auto y_range = thread_y_range(crop_up, height - crop_bottom, thread_id, thread_n);

  000a6	8b 44 24 3c	 mov	 eax, DWORD PTR crop_bottom$[rsp]
  000aa	8b 8c 24 f0 05
	00 00		 mov	 ecx, DWORD PTR height$[rsp]
  000b1	2b c8		 sub	 ecx, eax
  000b3	8b c1		 mov	 eax, ecx
  000b5	8b 8c 24 08 06
	00 00		 mov	 ecx, DWORD PTR thread_n$[rsp]
  000bc	89 4c 24 20	 mov	 DWORD PTR [rsp+32], ecx
  000c0	44 8b 8c 24 00
	06 00 00	 mov	 r9d, DWORD PTR thread_id$[rsp]
  000c8	44 8b c0	 mov	 r8d, eax
  000cb	8b 54 24 34	 mov	 edx, DWORD PTR crop_up$[rsp]
  000cf	48 8d 8c 24 78
	05 00 00	 lea	 rcx, QWORD PTR $T78[rsp]
  000d7	e8 00 00 00 00	 call	 ?thread_y_range@@YA?AUTHREAD_Y_RANGE@@HHHH@Z ; thread_y_range
  000dc	48 8d 4c 24 68	 lea	 rcx, QWORD PTR $T5[rsp]
  000e1	48 8b f9	 mov	 rdi, rcx
  000e4	48 8b f0	 mov	 rsi, rax
  000e7	b9 0c 00 00 00	 mov	 ecx, 12
  000ec	f3 a4		 rep movsb
  000ee	48 8d 44 24 48	 lea	 rax, QWORD PTR y_range$[rsp]
  000f3	48 8d 4c 24 68	 lea	 rcx, QWORD PTR $T5[rsp]
  000f8	48 8b f8	 mov	 rdi, rax
  000fb	48 8b f1	 mov	 rsi, rcx
  000fe	b9 0c 00 00 00	 mov	 ecx, 12
  00103	f3 a4		 rep movsb

; 474  :     uint8_t *dst0Line = (uint8_t *)dst[(plane_from >>  0) & 0xff] + dst_y_pitch_byte * y_range.start_dst;

  00105	b8 08 00 00 00	 mov	 eax, 8
  0010a	48 6b c0 02	 imul	 rax, rax, 2
  0010e	8b 8c 24 e8 05
	00 00		 mov	 ecx, DWORD PTR dst_y_pitch_byte$[rsp]
  00115	0f af 4c 24 4c	 imul	 ecx, DWORD PTR y_range$[rsp+4]
  0011a	48 63 c9	 movsxd	 rcx, ecx
  0011d	48 8b 94 24 c0
	05 00 00	 mov	 rdx, QWORD PTR dst$[rsp]
  00125	48 03 0c 02	 add	 rcx, QWORD PTR [rdx+rax]
  00129	48 8b c1	 mov	 rax, rcx
  0012c	48 89 44 24 78	 mov	 QWORD PTR dst0Line$[rsp], rax

; 475  :     uint8_t *dst1Line = (uint8_t *)dst[(plane_from >>  8) & 0xff] + dst_y_pitch_byte * y_range.start_dst;

  00131	b8 08 00 00 00	 mov	 eax, 8
  00136	48 6b c0 01	 imul	 rax, rax, 1
  0013a	8b 8c 24 e8 05
	00 00		 mov	 ecx, DWORD PTR dst_y_pitch_byte$[rsp]
  00141	0f af 4c 24 4c	 imul	 ecx, DWORD PTR y_range$[rsp+4]
  00146	48 63 c9	 movsxd	 rcx, ecx
  00149	48 8b 94 24 c0
	05 00 00	 mov	 rdx, QWORD PTR dst$[rsp]
  00151	48 03 0c 02	 add	 rcx, QWORD PTR [rdx+rax]
  00155	48 8b c1	 mov	 rax, rcx
  00158	48 89 84 24 80
	00 00 00	 mov	 QWORD PTR dst1Line$[rsp], rax

; 476  :     uint8_t *dst2Line = (uint8_t *)dst[(plane_from >> 16) & 0xff] + dst_y_pitch_byte * y_range.start_dst;

  00160	b8 08 00 00 00	 mov	 eax, 8
  00165	48 6b c0 00	 imul	 rax, rax, 0
  00169	8b 8c 24 e8 05
	00 00		 mov	 ecx, DWORD PTR dst_y_pitch_byte$[rsp]
  00170	0f af 4c 24 4c	 imul	 ecx, DWORD PTR y_range$[rsp+4]
  00175	48 63 c9	 movsxd	 rcx, ecx
  00178	48 8b 94 24 c0
	05 00 00	 mov	 rdx, QWORD PTR dst$[rsp]
  00180	48 03 0c 02	 add	 rcx, QWORD PTR [rdx+rax]
  00184	48 8b c1	 mov	 rax, rcx
  00187	48 89 84 24 88
	00 00 00	 mov	 QWORD PTR dst2Line$[rsp], rax

; 477  :     uint8_t *srcLine  = (uint8_t *)src[0] + src_y_pitch_byte * ((source_reverse) ? (height - crop_bottom - y_range.start_src - 1) : y_range.start_src) + crop_left * 3;

  0018f	33 c0		 xor	 eax, eax
  00191	85 c0		 test	 eax, eax
  00193	74 1e		 je	 SHORT $LN11@convert_rg
  00195	8b 44 24 3c	 mov	 eax, DWORD PTR crop_bottom$[rsp]
  00199	8b 8c 24 f0 05
	00 00		 mov	 ecx, DWORD PTR height$[rsp]
  001a0	2b c8		 sub	 ecx, eax
  001a2	8b c1		 mov	 eax, ecx
  001a4	2b 44 24 48	 sub	 eax, DWORD PTR y_range$[rsp]
  001a8	ff c8		 dec	 eax
  001aa	89 84 24 88 05
	00 00		 mov	 DWORD PTR tv133[rsp], eax
  001b1	eb 0b		 jmp	 SHORT $LN12@convert_rg
$LN11@convert_rg:
  001b3	8b 44 24 48	 mov	 eax, DWORD PTR y_range$[rsp]
  001b7	89 84 24 88 05
	00 00		 mov	 DWORD PTR tv133[rsp], eax
$LN12@convert_rg:
  001be	b8 08 00 00 00	 mov	 eax, 8
  001c3	48 6b c0 00	 imul	 rax, rax, 0
  001c7	8b 8c 24 d8 05
	00 00		 mov	 ecx, DWORD PTR src_y_pitch_byte$[rsp]
  001ce	0f af 8c 24 88
	05 00 00	 imul	 ecx, DWORD PTR tv133[rsp]
  001d6	48 63 c9	 movsxd	 rcx, ecx
  001d9	48 8b 94 24 c8
	05 00 00	 mov	 rdx, QWORD PTR src$[rsp]
  001e1	48 8b 04 02	 mov	 rax, QWORD PTR [rdx+rax]
  001e5	48 03 c1	 add	 rax, rcx
  001e8	6b 4c 24 30 03	 imul	 ecx, DWORD PTR crop_left$[rsp], 3
  001ed	48 63 c9	 movsxd	 rcx, ecx
  001f0	48 03 c1	 add	 rax, rcx
  001f3	48 89 84 24 90
	00 00 00	 mov	 QWORD PTR srcLine$[rsp], rax

; 478  :     alignas(16) const char MASK_RGB_TO_RGB24[] = {
; 479  :         0,  3,  6,  9, 12, 15, -1, -1, -1, -1, -1, -1, -1, -1, -1, -1,

  001fb	c6 84 24 b0 00
	00 00 00	 mov	 BYTE PTR MASK_RGB_TO_RGB24$[rsp], 0
  00203	c6 84 24 b1 00
	00 00 03	 mov	 BYTE PTR MASK_RGB_TO_RGB24$[rsp+1], 3
  0020b	c6 84 24 b2 00
	00 00 06	 mov	 BYTE PTR MASK_RGB_TO_RGB24$[rsp+2], 6
  00213	c6 84 24 b3 00
	00 00 09	 mov	 BYTE PTR MASK_RGB_TO_RGB24$[rsp+3], 9
  0021b	c6 84 24 b4 00
	00 00 0c	 mov	 BYTE PTR MASK_RGB_TO_RGB24$[rsp+4], 12
  00223	c6 84 24 b5 00
	00 00 0f	 mov	 BYTE PTR MASK_RGB_TO_RGB24$[rsp+5], 15
  0022b	c6 84 24 b6 00
	00 00 ff	 mov	 BYTE PTR MASK_RGB_TO_RGB24$[rsp+6], -1
  00233	c6 84 24 b7 00
	00 00 ff	 mov	 BYTE PTR MASK_RGB_TO_RGB24$[rsp+7], -1
  0023b	c6 84 24 b8 00
	00 00 ff	 mov	 BYTE PTR MASK_RGB_TO_RGB24$[rsp+8], -1
  00243	c6 84 24 b9 00
	00 00 ff	 mov	 BYTE PTR MASK_RGB_TO_RGB24$[rsp+9], -1
  0024b	c6 84 24 ba 00
	00 00 ff	 mov	 BYTE PTR MASK_RGB_TO_RGB24$[rsp+10], -1
  00253	c6 84 24 bb 00
	00 00 ff	 mov	 BYTE PTR MASK_RGB_TO_RGB24$[rsp+11], -1
  0025b	c6 84 24 bc 00
	00 00 ff	 mov	 BYTE PTR MASK_RGB_TO_RGB24$[rsp+12], -1
  00263	c6 84 24 bd 00
	00 00 ff	 mov	 BYTE PTR MASK_RGB_TO_RGB24$[rsp+13], -1
  0026b	c6 84 24 be 00
	00 00 ff	 mov	 BYTE PTR MASK_RGB_TO_RGB24$[rsp+14], -1
  00273	c6 84 24 bf 00
	00 00 ff	 mov	 BYTE PTR MASK_RGB_TO_RGB24$[rsp+15], -1

; 480  :         1,  4,  7, 10, 13, -1, -1, -1, -1, -1, -1, -1, -1, -1, -1, -1,

  0027b	c6 84 24 c0 00
	00 00 01	 mov	 BYTE PTR MASK_RGB_TO_RGB24$[rsp+16], 1
  00283	c6 84 24 c1 00
	00 00 04	 mov	 BYTE PTR MASK_RGB_TO_RGB24$[rsp+17], 4
  0028b	c6 84 24 c2 00
	00 00 07	 mov	 BYTE PTR MASK_RGB_TO_RGB24$[rsp+18], 7
  00293	c6 84 24 c3 00
	00 00 0a	 mov	 BYTE PTR MASK_RGB_TO_RGB24$[rsp+19], 10
  0029b	c6 84 24 c4 00
	00 00 0d	 mov	 BYTE PTR MASK_RGB_TO_RGB24$[rsp+20], 13
  002a3	c6 84 24 c5 00
	00 00 ff	 mov	 BYTE PTR MASK_RGB_TO_RGB24$[rsp+21], -1
  002ab	c6 84 24 c6 00
	00 00 ff	 mov	 BYTE PTR MASK_RGB_TO_RGB24$[rsp+22], -1
  002b3	c6 84 24 c7 00
	00 00 ff	 mov	 BYTE PTR MASK_RGB_TO_RGB24$[rsp+23], -1
  002bb	c6 84 24 c8 00
	00 00 ff	 mov	 BYTE PTR MASK_RGB_TO_RGB24$[rsp+24], -1
  002c3	c6 84 24 c9 00
	00 00 ff	 mov	 BYTE PTR MASK_RGB_TO_RGB24$[rsp+25], -1
  002cb	c6 84 24 ca 00
	00 00 ff	 mov	 BYTE PTR MASK_RGB_TO_RGB24$[rsp+26], -1
  002d3	c6 84 24 cb 00
	00 00 ff	 mov	 BYTE PTR MASK_RGB_TO_RGB24$[rsp+27], -1
  002db	c6 84 24 cc 00
	00 00 ff	 mov	 BYTE PTR MASK_RGB_TO_RGB24$[rsp+28], -1
  002e3	c6 84 24 cd 00
	00 00 ff	 mov	 BYTE PTR MASK_RGB_TO_RGB24$[rsp+29], -1
  002eb	c6 84 24 ce 00
	00 00 ff	 mov	 BYTE PTR MASK_RGB_TO_RGB24$[rsp+30], -1
  002f3	c6 84 24 cf 00
	00 00 ff	 mov	 BYTE PTR MASK_RGB_TO_RGB24$[rsp+31], -1

; 481  :         2,  5,  8, 11, 14, -1, -1, -1, -1, -1, -1, -1, -1, -1, -1, -1,

  002fb	c6 84 24 d0 00
	00 00 02	 mov	 BYTE PTR MASK_RGB_TO_RGB24$[rsp+32], 2
  00303	c6 84 24 d1 00
	00 00 05	 mov	 BYTE PTR MASK_RGB_TO_RGB24$[rsp+33], 5
  0030b	c6 84 24 d2 00
	00 00 08	 mov	 BYTE PTR MASK_RGB_TO_RGB24$[rsp+34], 8
  00313	c6 84 24 d3 00
	00 00 0b	 mov	 BYTE PTR MASK_RGB_TO_RGB24$[rsp+35], 11
  0031b	c6 84 24 d4 00
	00 00 0e	 mov	 BYTE PTR MASK_RGB_TO_RGB24$[rsp+36], 14
  00323	c6 84 24 d5 00
	00 00 ff	 mov	 BYTE PTR MASK_RGB_TO_RGB24$[rsp+37], -1
  0032b	c6 84 24 d6 00
	00 00 ff	 mov	 BYTE PTR MASK_RGB_TO_RGB24$[rsp+38], -1
  00333	c6 84 24 d7 00
	00 00 ff	 mov	 BYTE PTR MASK_RGB_TO_RGB24$[rsp+39], -1
  0033b	c6 84 24 d8 00
	00 00 ff	 mov	 BYTE PTR MASK_RGB_TO_RGB24$[rsp+40], -1
  00343	c6 84 24 d9 00
	00 00 ff	 mov	 BYTE PTR MASK_RGB_TO_RGB24$[rsp+41], -1
  0034b	c6 84 24 da 00
	00 00 ff	 mov	 BYTE PTR MASK_RGB_TO_RGB24$[rsp+42], -1
  00353	c6 84 24 db 00
	00 00 ff	 mov	 BYTE PTR MASK_RGB_TO_RGB24$[rsp+43], -1
  0035b	c6 84 24 dc 00
	00 00 ff	 mov	 BYTE PTR MASK_RGB_TO_RGB24$[rsp+44], -1
  00363	c6 84 24 dd 00
	00 00 ff	 mov	 BYTE PTR MASK_RGB_TO_RGB24$[rsp+45], -1
  0036b	c6 84 24 de 00
	00 00 ff	 mov	 BYTE PTR MASK_RGB_TO_RGB24$[rsp+46], -1
  00373	c6 84 24 df 00
	00 00 ff	 mov	 BYTE PTR MASK_RGB_TO_RGB24$[rsp+47], -1

; 482  :     };
; 483  :     __m128i xmask0 = _mm_load_si128((__m128i *)&MASK_RGB_TO_RGB24[0]);

  0037b	b8 01 00 00 00	 mov	 eax, 1
  00380	48 6b c0 00	 imul	 rax, rax, 0
  00384	48 8d 84 04 b0
	00 00 00	 lea	 rax, QWORD PTR MASK_RGB_TO_RGB24$[rsp+rax]
  0038c	f3 0f 6f 00	 movdqu	 xmm0, XMMWORD PTR [rax]
  00390	66 0f 7f 84 24
	00 01 00 00	 movdqa	 XMMWORD PTR $T6[rsp], xmm0
  00399	66 0f 6f 84 24
	00 01 00 00	 movdqa	 xmm0, XMMWORD PTR $T6[rsp]
  003a2	66 0f 7f 84 24
	f0 00 00 00	 movdqa	 XMMWORD PTR xmask0$[rsp], xmm0

; 484  :     __m128i xmask1 = _mm_load_si128((__m128i *)&MASK_RGB_TO_RGB24[16]);

  003ab	b8 01 00 00 00	 mov	 eax, 1
  003b0	48 6b c0 10	 imul	 rax, rax, 16
  003b4	48 8d 84 04 b0
	00 00 00	 lea	 rax, QWORD PTR MASK_RGB_TO_RGB24$[rsp+rax]
  003bc	f3 0f 6f 00	 movdqu	 xmm0, XMMWORD PTR [rax]
  003c0	66 0f 7f 84 24
	20 01 00 00	 movdqa	 XMMWORD PTR $T7[rsp], xmm0
  003c9	66 0f 6f 84 24
	20 01 00 00	 movdqa	 xmm0, XMMWORD PTR $T7[rsp]
  003d2	66 0f 7f 84 24
	10 01 00 00	 movdqa	 XMMWORD PTR xmask1$[rsp], xmm0

; 485  :     __m128i xmask2 = _mm_load_si128((__m128i *)&MASK_RGB_TO_RGB24[32]);

  003db	b8 01 00 00 00	 mov	 eax, 1
  003e0	48 6b c0 20	 imul	 rax, rax, 32		; 00000020H
  003e4	48 8d 84 04 b0
	00 00 00	 lea	 rax, QWORD PTR MASK_RGB_TO_RGB24$[rsp+rax]
  003ec	f3 0f 6f 00	 movdqu	 xmm0, XMMWORD PTR [rax]
  003f0	66 0f 7f 84 24
	40 01 00 00	 movdqa	 XMMWORD PTR $T8[rsp], xmm0
  003f9	66 0f 6f 84 24
	40 01 00 00	 movdqa	 xmm0, XMMWORD PTR $T8[rsp]
  00402	66 0f 7f 84 24
	30 01 00 00	 movdqa	 XMMWORD PTR xmask2$[rsp], xmm0

; 486  :     __m128i xmask3 = _mm_set1_epi8(-1);

  0040b	66 0f 6f 05 00
	00 00 00	 movdqa	 xmm0, XMMWORD PTR __xmm@ffffffffffffffffffffffffffffffff
  00413	66 0f 7f 84 24
	60 01 00 00	 movdqa	 XMMWORD PTR $T9[rsp], xmm0
  0041c	66 0f 6f 84 24
	60 01 00 00	 movdqa	 xmm0, XMMWORD PTR $T9[rsp]
  00425	66 0f 7f 84 24
	50 01 00 00	 movdqa	 XMMWORD PTR xmask3$[rsp], xmm0

; 487  :     if (source_reverse) {

  0042e	33 c0		 xor	 eax, eax
  00430	85 c0		 test	 eax, eax
  00432	74 0f		 je	 SHORT $LN8@convert_rg

; 488  :         src_y_pitch_byte = -1 * src_y_pitch_byte;

  00434	6b 84 24 d8 05
	00 00 ff	 imul	 eax, DWORD PTR src_y_pitch_byte$[rsp], -1
  0043c	89 84 24 d8 05
	00 00		 mov	 DWORD PTR src_y_pitch_byte$[rsp], eax
$LN8@convert_rg:

; 489  :     }
; 490  :     for (int y = 0; y < y_range.len; y++, srcLine += src_y_pitch_byte, dst0Line += dst_y_pitch_byte, dst1Line += dst_y_pitch_byte, dst2Line += dst_y_pitch_byte) {

  00443	c7 84 24 70 01
	00 00 00 00 00
	00		 mov	 DWORD PTR y$10[rsp], 0
  0044e	e9 82 00 00 00	 jmp	 $LN4@convert_rg
$LN2@convert_rg:
  00453	8b 84 24 70 01
	00 00		 mov	 eax, DWORD PTR y$10[rsp]
  0045a	ff c0		 inc	 eax
  0045c	89 84 24 70 01
	00 00		 mov	 DWORD PTR y$10[rsp], eax
  00463	48 63 84 24 d8
	05 00 00	 movsxd	 rax, DWORD PTR src_y_pitch_byte$[rsp]
  0046b	48 8b 8c 24 90
	00 00 00	 mov	 rcx, QWORD PTR srcLine$[rsp]
  00473	48 03 c8	 add	 rcx, rax
  00476	48 8b c1	 mov	 rax, rcx
  00479	48 89 84 24 90
	00 00 00	 mov	 QWORD PTR srcLine$[rsp], rax
  00481	48 63 84 24 e8
	05 00 00	 movsxd	 rax, DWORD PTR dst_y_pitch_byte$[rsp]
  00489	48 8b 4c 24 78	 mov	 rcx, QWORD PTR dst0Line$[rsp]
  0048e	48 03 c8	 add	 rcx, rax
  00491	48 8b c1	 mov	 rax, rcx
  00494	48 89 44 24 78	 mov	 QWORD PTR dst0Line$[rsp], rax
  00499	48 63 84 24 e8
	05 00 00	 movsxd	 rax, DWORD PTR dst_y_pitch_byte$[rsp]
  004a1	48 8b 8c 24 80
	00 00 00	 mov	 rcx, QWORD PTR dst1Line$[rsp]
  004a9	48 03 c8	 add	 rcx, rax
  004ac	48 8b c1	 mov	 rax, rcx
  004af	48 89 84 24 80
	00 00 00	 mov	 QWORD PTR dst1Line$[rsp], rax
  004b7	48 63 84 24 e8
	05 00 00	 movsxd	 rax, DWORD PTR dst_y_pitch_byte$[rsp]
  004bf	48 8b 8c 24 88
	00 00 00	 mov	 rcx, QWORD PTR dst2Line$[rsp]
  004c7	48 03 c8	 add	 rcx, rax
  004ca	48 8b c1	 mov	 rax, rcx
  004cd	48 89 84 24 88
	00 00 00	 mov	 QWORD PTR dst2Line$[rsp], rax
$LN4@convert_rg:
  004d5	8b 44 24 50	 mov	 eax, DWORD PTR y_range$[rsp+8]
  004d9	39 84 24 70 01
	00 00		 cmp	 DWORD PTR y$10[rsp], eax
  004e0	0f 8d e0 08 00
	00		 jge	 $LN3@convert_rg

; 491  :         uint8_t *ptr_src  = srcLine;

  004e6	48 8b 84 24 90
	00 00 00	 mov	 rax, QWORD PTR srcLine$[rsp]
  004ee	48 89 84 24 78
	01 00 00	 mov	 QWORD PTR ptr_src$11[rsp], rax

; 492  :         uint8_t *ptr_dst0 = dst0Line;

  004f6	48 8b 44 24 78	 mov	 rax, QWORD PTR dst0Line$[rsp]
  004fb	48 89 84 24 80
	01 00 00	 mov	 QWORD PTR ptr_dst0$12[rsp], rax

; 493  :         uint8_t *ptr_dst1 = dst1Line;

  00503	48 8b 84 24 80
	00 00 00	 mov	 rax, QWORD PTR dst1Line$[rsp]
  0050b	48 89 84 24 88
	01 00 00	 mov	 QWORD PTR ptr_dst1$13[rsp], rax

; 494  :         uint8_t *ptr_dst2 = dst2Line;

  00513	48 8b 84 24 88
	00 00 00	 mov	 rax, QWORD PTR dst2Line$[rsp]
  0051b	48 89 84 24 90
	01 00 00	 mov	 QWORD PTR ptr_dst2$14[rsp], rax

; 495  :         int x = 0, x_fin = width - crop_left - crop_right - 16;

  00523	c7 84 24 98 01
	00 00 00 00 00
	00		 mov	 DWORD PTR x$15[rsp], 0
  0052e	8b 44 24 30	 mov	 eax, DWORD PTR crop_left$[rsp]
  00532	8b 8c 24 d0 05
	00 00		 mov	 ecx, DWORD PTR width$[rsp]
  00539	2b c8		 sub	 ecx, eax
  0053b	8b c1		 mov	 eax, ecx
  0053d	2b 44 24 38	 sub	 eax, DWORD PTR crop_right$[rsp]
  00541	83 e8 10	 sub	 eax, 16
  00544	89 84 24 9c 01
	00 00		 mov	 DWORD PTR x_fin$16[rsp], eax

; 496  :         for (; x < x_fin; x += 16, ptr_src += 48, ptr_dst0 += 16, ptr_dst1 += 16, ptr_dst2 += 16) {

  0054b	eb 61		 jmp	 SHORT $LN7@convert_rg
$LN5@convert_rg:
  0054d	8b 84 24 98 01
	00 00		 mov	 eax, DWORD PTR x$15[rsp]
  00554	83 c0 10	 add	 eax, 16
  00557	89 84 24 98 01
	00 00		 mov	 DWORD PTR x$15[rsp], eax
  0055e	48 8b 84 24 78
	01 00 00	 mov	 rax, QWORD PTR ptr_src$11[rsp]
  00566	48 83 c0 30	 add	 rax, 48			; 00000030H
  0056a	48 89 84 24 78
	01 00 00	 mov	 QWORD PTR ptr_src$11[rsp], rax
  00572	48 8b 84 24 80
	01 00 00	 mov	 rax, QWORD PTR ptr_dst0$12[rsp]
  0057a	48 83 c0 10	 add	 rax, 16
  0057e	48 89 84 24 80
	01 00 00	 mov	 QWORD PTR ptr_dst0$12[rsp], rax
  00586	48 8b 84 24 88
	01 00 00	 mov	 rax, QWORD PTR ptr_dst1$13[rsp]
  0058e	48 83 c0 10	 add	 rax, 16
  00592	48 89 84 24 88
	01 00 00	 mov	 QWORD PTR ptr_dst1$13[rsp], rax
  0059a	48 8b 84 24 90
	01 00 00	 mov	 rax, QWORD PTR ptr_dst2$14[rsp]
  005a2	48 83 c0 10	 add	 rax, 16
  005a6	48 89 84 24 90
	01 00 00	 mov	 QWORD PTR ptr_dst2$14[rsp], rax
$LN7@convert_rg:
  005ae	8b 84 24 9c 01
	00 00		 mov	 eax, DWORD PTR x_fin$16[rsp]
  005b5	39 84 24 98 01
	00 00		 cmp	 DWORD PTR x$15[rsp], eax
  005bc	0f 8d af 03 00
	00		 jge	 $LN6@convert_rg

; 497  :             __m128i xSrc0 = _mm_loadu_si128((__m128i *)(ptr_src +  0));

  005c2	48 8b 84 24 78
	01 00 00	 mov	 rax, QWORD PTR ptr_src$11[rsp]
  005ca	f3 0f 6f 00	 movdqu	 xmm0, XMMWORD PTR [rax]
  005ce	66 0f 7f 84 24
	b0 01 00 00	 movdqa	 XMMWORD PTR $T18[rsp], xmm0
  005d7	66 0f 6f 84 24
	b0 01 00 00	 movdqa	 xmm0, XMMWORD PTR $T18[rsp]
  005e0	66 0f 7f 84 24
	a0 01 00 00	 movdqa	 XMMWORD PTR xSrc0$17[rsp], xmm0

; 498  :             __m128i xSrc1 = _mm_loadu_si128((__m128i *)(ptr_src + 16));

  005e9	48 8b 84 24 78
	01 00 00	 mov	 rax, QWORD PTR ptr_src$11[rsp]
  005f1	48 83 c0 10	 add	 rax, 16
  005f5	f3 0f 6f 00	 movdqu	 xmm0, XMMWORD PTR [rax]
  005f9	66 0f 7f 84 24
	d0 01 00 00	 movdqa	 XMMWORD PTR $T20[rsp], xmm0
  00602	66 0f 6f 84 24
	d0 01 00 00	 movdqa	 xmm0, XMMWORD PTR $T20[rsp]
  0060b	66 0f 7f 84 24
	c0 01 00 00	 movdqa	 XMMWORD PTR xSrc1$19[rsp], xmm0

; 499  :             __m128i xSrc2 = _mm_loadu_si128((__m128i *)(ptr_src + 32));

  00614	48 8b 84 24 78
	01 00 00	 mov	 rax, QWORD PTR ptr_src$11[rsp]
  0061c	48 83 c0 20	 add	 rax, 32			; 00000020H
  00620	f3 0f 6f 00	 movdqu	 xmm0, XMMWORD PTR [rax]
  00624	66 0f 7f 84 24
	f0 01 00 00	 movdqa	 XMMWORD PTR $T22[rsp], xmm0
  0062d	66 0f 6f 84 24
	f0 01 00 00	 movdqa	 xmm0, XMMWORD PTR $T22[rsp]
  00636	66 0f 7f 84 24
	e0 01 00 00	 movdqa	 XMMWORD PTR xSrc2$21[rsp], xmm0

; 500  :             __m128i x0 = _mm_shuffle_epi8(xSrc0, xmask0);

  0063f	66 0f 6f 84 24
	a0 01 00 00	 movdqa	 xmm0, XMMWORD PTR xSrc0$17[rsp]
  00648	66 0f 38 00 84
	24 f0 00 00 00	 pshufb	 xmm0, XMMWORD PTR xmask0$[rsp]
  00652	66 0f 7f 84 24
	10 02 00 00	 movdqa	 XMMWORD PTR $T24[rsp], xmm0
  0065b	66 0f 6f 84 24
	10 02 00 00	 movdqa	 xmm0, XMMWORD PTR $T24[rsp]
  00664	66 0f 7f 84 24
	00 02 00 00	 movdqa	 XMMWORD PTR x0$23[rsp], xmm0

; 501  :             __m128i x1 = _mm_shuffle_epi8(xSrc0, xmask1);

  0066d	66 0f 6f 84 24
	a0 01 00 00	 movdqa	 xmm0, XMMWORD PTR xSrc0$17[rsp]
  00676	66 0f 38 00 84
	24 10 01 00 00	 pshufb	 xmm0, XMMWORD PTR xmask1$[rsp]
  00680	66 0f 7f 84 24
	30 02 00 00	 movdqa	 XMMWORD PTR $T26[rsp], xmm0
  00689	66 0f 6f 84 24
	30 02 00 00	 movdqa	 xmm0, XMMWORD PTR $T26[rsp]
  00692	66 0f 7f 84 24
	20 02 00 00	 movdqa	 XMMWORD PTR x1$25[rsp], xmm0

; 502  :             __m128i x2 = _mm_shuffle_epi8(xSrc0, xmask2);

  0069b	66 0f 6f 84 24
	a0 01 00 00	 movdqa	 xmm0, XMMWORD PTR xSrc0$17[rsp]
  006a4	66 0f 38 00 84
	24 30 01 00 00	 pshufb	 xmm0, XMMWORD PTR xmask2$[rsp]
  006ae	66 0f 7f 84 24
	50 02 00 00	 movdqa	 XMMWORD PTR $T28[rsp], xmm0
  006b7	66 0f 6f 84 24
	50 02 00 00	 movdqa	 xmm0, XMMWORD PTR $T28[rsp]
  006c0	66 0f 7f 84 24
	40 02 00 00	 movdqa	 XMMWORD PTR x2$27[rsp], xmm0

; 503  :             x0 = _mm_or_si128(x0, _mm_shuffle_epi8(xSrc1, _mm_alignr_epi8(xmask2, xmask3, 10)));

  006c9	66 0f 6f 84 24
	30 01 00 00	 movdqa	 xmm0, XMMWORD PTR xmask2$[rsp]
  006d2	66 0f 3a 0f 84
	24 50 01 00 00
	0a		 palignr xmm0, XMMWORD PTR xmask3$[rsp], 10
  006dd	66 0f 7f 84 24
	60 02 00 00	 movdqa	 XMMWORD PTR $T29[rsp], xmm0
  006e6	66 0f 6f 84 24
	c0 01 00 00	 movdqa	 xmm0, XMMWORD PTR xSrc1$19[rsp]
  006ef	66 0f 38 00 84
	24 60 02 00 00	 pshufb	 xmm0, XMMWORD PTR $T29[rsp]
  006f9	66 0f 7f 84 24
	70 02 00 00	 movdqa	 XMMWORD PTR $T30[rsp], xmm0
  00702	66 0f 6f 84 24
	00 02 00 00	 movdqa	 xmm0, XMMWORD PTR x0$23[rsp]
  0070b	66 0f eb 84 24
	70 02 00 00	 por	 xmm0, XMMWORD PTR $T30[rsp]
  00714	66 0f 7f 84 24
	80 02 00 00	 movdqa	 XMMWORD PTR $T31[rsp], xmm0
  0071d	66 0f 6f 84 24
	80 02 00 00	 movdqa	 xmm0, XMMWORD PTR $T31[rsp]
  00726	66 0f 7f 84 24
	00 02 00 00	 movdqa	 XMMWORD PTR x0$23[rsp], xmm0

; 504  :             x1 = _mm_or_si128(x1, _mm_shuffle_epi8(xSrc1, _mm_alignr_epi8(xmask0, xmask3, 11)));

  0072f	66 0f 6f 84 24
	f0 00 00 00	 movdqa	 xmm0, XMMWORD PTR xmask0$[rsp]
  00738	66 0f 3a 0f 84
	24 50 01 00 00
	0b		 palignr xmm0, XMMWORD PTR xmask3$[rsp], 11
  00743	66 0f 7f 84 24
	90 02 00 00	 movdqa	 XMMWORD PTR $T32[rsp], xmm0
  0074c	66 0f 6f 84 24
	c0 01 00 00	 movdqa	 xmm0, XMMWORD PTR xSrc1$19[rsp]
  00755	66 0f 38 00 84
	24 90 02 00 00	 pshufb	 xmm0, XMMWORD PTR $T32[rsp]
  0075f	66 0f 7f 84 24
	a0 02 00 00	 movdqa	 XMMWORD PTR $T33[rsp], xmm0
  00768	66 0f 6f 84 24
	20 02 00 00	 movdqa	 xmm0, XMMWORD PTR x1$25[rsp]
  00771	66 0f eb 84 24
	a0 02 00 00	 por	 xmm0, XMMWORD PTR $T33[rsp]
  0077a	66 0f 7f 84 24
	b0 02 00 00	 movdqa	 XMMWORD PTR $T34[rsp], xmm0
  00783	66 0f 6f 84 24
	b0 02 00 00	 movdqa	 xmm0, XMMWORD PTR $T34[rsp]
  0078c	66 0f 7f 84 24
	20 02 00 00	 movdqa	 XMMWORD PTR x1$25[rsp], xmm0

; 505  :             x2 = _mm_or_si128(x2, _mm_shuffle_epi8(xSrc1, _mm_alignr_epi8(xmask1, xmask3, 11)));

  00795	66 0f 6f 84 24
	10 01 00 00	 movdqa	 xmm0, XMMWORD PTR xmask1$[rsp]
  0079e	66 0f 3a 0f 84
	24 50 01 00 00
	0b		 palignr xmm0, XMMWORD PTR xmask3$[rsp], 11
  007a9	66 0f 7f 84 24
	c0 02 00 00	 movdqa	 XMMWORD PTR $T35[rsp], xmm0
  007b2	66 0f 6f 84 24
	c0 01 00 00	 movdqa	 xmm0, XMMWORD PTR xSrc1$19[rsp]
  007bb	66 0f 38 00 84
	24 c0 02 00 00	 pshufb	 xmm0, XMMWORD PTR $T35[rsp]
  007c5	66 0f 7f 84 24
	d0 02 00 00	 movdqa	 XMMWORD PTR $T36[rsp], xmm0
  007ce	66 0f 6f 84 24
	40 02 00 00	 movdqa	 xmm0, XMMWORD PTR x2$27[rsp]
  007d7	66 0f eb 84 24
	d0 02 00 00	 por	 xmm0, XMMWORD PTR $T36[rsp]
  007e0	66 0f 7f 84 24
	e0 02 00 00	 movdqa	 XMMWORD PTR $T37[rsp], xmm0
  007e9	66 0f 6f 84 24
	e0 02 00 00	 movdqa	 xmm0, XMMWORD PTR $T37[rsp]
  007f2	66 0f 7f 84 24
	40 02 00 00	 movdqa	 XMMWORD PTR x2$27[rsp], xmm0

; 506  :             x0 = _mm_or_si128(x0, _mm_shuffle_epi8(xSrc2, _mm_alignr_epi8(xmask1, xmask3,  5)));

  007fb	66 0f 6f 84 24
	10 01 00 00	 movdqa	 xmm0, XMMWORD PTR xmask1$[rsp]
  00804	66 0f 3a 0f 84
	24 50 01 00 00
	05		 palignr xmm0, XMMWORD PTR xmask3$[rsp], 5
  0080f	66 0f 7f 84 24
	f0 02 00 00	 movdqa	 XMMWORD PTR $T38[rsp], xmm0
  00818	66 0f 6f 84 24
	e0 01 00 00	 movdqa	 xmm0, XMMWORD PTR xSrc2$21[rsp]
  00821	66 0f 38 00 84
	24 f0 02 00 00	 pshufb	 xmm0, XMMWORD PTR $T38[rsp]
  0082b	66 0f 7f 84 24
	00 03 00 00	 movdqa	 XMMWORD PTR $T39[rsp], xmm0
  00834	66 0f 6f 84 24
	00 02 00 00	 movdqa	 xmm0, XMMWORD PTR x0$23[rsp]
  0083d	66 0f eb 84 24
	00 03 00 00	 por	 xmm0, XMMWORD PTR $T39[rsp]
  00846	66 0f 7f 84 24
	10 03 00 00	 movdqa	 XMMWORD PTR $T40[rsp], xmm0
  0084f	66 0f 6f 84 24
	10 03 00 00	 movdqa	 xmm0, XMMWORD PTR $T40[rsp]
  00858	66 0f 7f 84 24
	00 02 00 00	 movdqa	 XMMWORD PTR x0$23[rsp], xmm0

; 507  :             x1 = _mm_or_si128(x1, _mm_shuffle_epi8(xSrc2, _mm_alignr_epi8(xmask2, xmask3,  5)));

  00861	66 0f 6f 84 24
	30 01 00 00	 movdqa	 xmm0, XMMWORD PTR xmask2$[rsp]
  0086a	66 0f 3a 0f 84
	24 50 01 00 00
	05		 palignr xmm0, XMMWORD PTR xmask3$[rsp], 5
  00875	66 0f 7f 84 24
	20 03 00 00	 movdqa	 XMMWORD PTR $T41[rsp], xmm0
  0087e	66 0f 6f 84 24
	e0 01 00 00	 movdqa	 xmm0, XMMWORD PTR xSrc2$21[rsp]
  00887	66 0f 38 00 84
	24 20 03 00 00	 pshufb	 xmm0, XMMWORD PTR $T41[rsp]
  00891	66 0f 7f 84 24
	30 03 00 00	 movdqa	 XMMWORD PTR $T42[rsp], xmm0
  0089a	66 0f 6f 84 24
	20 02 00 00	 movdqa	 xmm0, XMMWORD PTR x1$25[rsp]
  008a3	66 0f eb 84 24
	30 03 00 00	 por	 xmm0, XMMWORD PTR $T42[rsp]
  008ac	66 0f 7f 84 24
	40 03 00 00	 movdqa	 XMMWORD PTR $T43[rsp], xmm0
  008b5	66 0f 6f 84 24
	40 03 00 00	 movdqa	 xmm0, XMMWORD PTR $T43[rsp]
  008be	66 0f 7f 84 24
	20 02 00 00	 movdqa	 XMMWORD PTR x1$25[rsp], xmm0

; 508  :             x2 = _mm_or_si128(x2, _mm_shuffle_epi8(xSrc2, _mm_alignr_epi8(xmask0, xmask3,  6)));

  008c7	66 0f 6f 84 24
	f0 00 00 00	 movdqa	 xmm0, XMMWORD PTR xmask0$[rsp]
  008d0	66 0f 3a 0f 84
	24 50 01 00 00
	06		 palignr xmm0, XMMWORD PTR xmask3$[rsp], 6
  008db	66 0f 7f 84 24
	50 03 00 00	 movdqa	 XMMWORD PTR $T44[rsp], xmm0
  008e4	66 0f 6f 84 24
	e0 01 00 00	 movdqa	 xmm0, XMMWORD PTR xSrc2$21[rsp]
  008ed	66 0f 38 00 84
	24 50 03 00 00	 pshufb	 xmm0, XMMWORD PTR $T44[rsp]
  008f7	66 0f 7f 84 24
	60 03 00 00	 movdqa	 XMMWORD PTR $T45[rsp], xmm0
  00900	66 0f 6f 84 24
	40 02 00 00	 movdqa	 xmm0, XMMWORD PTR x2$27[rsp]
  00909	66 0f eb 84 24
	60 03 00 00	 por	 xmm0, XMMWORD PTR $T45[rsp]
  00912	66 0f 7f 84 24
	70 03 00 00	 movdqa	 XMMWORD PTR $T46[rsp], xmm0
  0091b	66 0f 6f 84 24
	70 03 00 00	 movdqa	 xmm0, XMMWORD PTR $T46[rsp]
  00924	66 0f 7f 84 24
	40 02 00 00	 movdqa	 XMMWORD PTR x2$27[rsp], xmm0

; 509  :             _mm_storeu_si128((__m128i *)ptr_dst0, x0);

  0092d	48 8b 84 24 80
	01 00 00	 mov	 rax, QWORD PTR ptr_dst0$12[rsp]
  00935	66 0f 6f 84 24
	00 02 00 00	 movdqa	 xmm0, XMMWORD PTR x0$23[rsp]
  0093e	f3 0f 7f 00	 movdqu	 XMMWORD PTR [rax], xmm0

; 510  :             _mm_storeu_si128((__m128i *)ptr_dst1, x1);

  00942	48 8b 84 24 88
	01 00 00	 mov	 rax, QWORD PTR ptr_dst1$13[rsp]
  0094a	66 0f 6f 84 24
	20 02 00 00	 movdqa	 xmm0, XMMWORD PTR x1$25[rsp]
  00953	f3 0f 7f 00	 movdqu	 XMMWORD PTR [rax], xmm0

; 511  :             _mm_storeu_si128((__m128i *)ptr_dst2, x2);

  00957	48 8b 84 24 90
	01 00 00	 mov	 rax, QWORD PTR ptr_dst2$14[rsp]
  0095f	66 0f 6f 84 24
	40 02 00 00	 movdqa	 xmm0, XMMWORD PTR x2$27[rsp]
  00968	f3 0f 7f 00	 movdqu	 XMMWORD PTR [rax], xmm0

; 512  :         }

  0096c	e9 dc fb ff ff	 jmp	 $LN5@convert_rg
$LN6@convert_rg:

; 513  :         if (width & 15) {

  00971	8b 84 24 d0 05
	00 00		 mov	 eax, DWORD PTR width$[rsp]
  00978	83 e0 0f	 and	 eax, 15
  0097b	85 c0		 test	 eax, eax
  0097d	0f 84 94 00 00
	00		 je	 $LN9@convert_rg

; 514  :             int x_offset = (16 - (width & 15));

  00983	8b 84 24 d0 05
	00 00		 mov	 eax, DWORD PTR width$[rsp]
  0098a	83 e0 0f	 and	 eax, 15
  0098d	b9 10 00 00 00	 mov	 ecx, 16
  00992	2b c8		 sub	 ecx, eax
  00994	8b c1		 mov	 eax, ecx
  00996	89 84 24 80 03
	00 00		 mov	 DWORD PTR x_offset$47[rsp], eax

; 515  :             ptr_src -= x_offset * 3;

  0099d	6b 84 24 80 03
	00 00 03	 imul	 eax, DWORD PTR x_offset$47[rsp], 3
  009a5	48 98		 cdqe
  009a7	48 8b 8c 24 78
	01 00 00	 mov	 rcx, QWORD PTR ptr_src$11[rsp]
  009af	48 2b c8	 sub	 rcx, rax
  009b2	48 8b c1	 mov	 rax, rcx
  009b5	48 89 84 24 78
	01 00 00	 mov	 QWORD PTR ptr_src$11[rsp], rax

; 516  :             ptr_dst0 -= x_offset;

  009bd	48 63 84 24 80
	03 00 00	 movsxd	 rax, DWORD PTR x_offset$47[rsp]
  009c5	48 8b 8c 24 80
	01 00 00	 mov	 rcx, QWORD PTR ptr_dst0$12[rsp]
  009cd	48 2b c8	 sub	 rcx, rax
  009d0	48 8b c1	 mov	 rax, rcx
  009d3	48 89 84 24 80
	01 00 00	 mov	 QWORD PTR ptr_dst0$12[rsp], rax

; 517  :             ptr_dst1 -= x_offset;

  009db	48 63 84 24 80
	03 00 00	 movsxd	 rax, DWORD PTR x_offset$47[rsp]
  009e3	48 8b 8c 24 88
	01 00 00	 mov	 rcx, QWORD PTR ptr_dst1$13[rsp]
  009eb	48 2b c8	 sub	 rcx, rax
  009ee	48 8b c1	 mov	 rax, rcx
  009f1	48 89 84 24 88
	01 00 00	 mov	 QWORD PTR ptr_dst1$13[rsp], rax

; 518  :             ptr_dst2 -= x_offset;

  009f9	48 63 84 24 80
	03 00 00	 movsxd	 rax, DWORD PTR x_offset$47[rsp]
  00a01	48 8b 8c 24 90
	01 00 00	 mov	 rcx, QWORD PTR ptr_dst2$14[rsp]
  00a09	48 2b c8	 sub	 rcx, rax
  00a0c	48 8b c1	 mov	 rax, rcx
  00a0f	48 89 84 24 90
	01 00 00	 mov	 QWORD PTR ptr_dst2$14[rsp], rax
$LN9@convert_rg:

; 519  :         }
; 520  :         __m128i xSrc0 = _mm_loadu_si128((__m128i *)(ptr_src +  0));

  00a17	48 8b 84 24 78
	01 00 00	 mov	 rax, QWORD PTR ptr_src$11[rsp]
  00a1f	f3 0f 6f 00	 movdqu	 xmm0, XMMWORD PTR [rax]
  00a23	66 0f 7f 84 24
	a0 03 00 00	 movdqa	 XMMWORD PTR $T49[rsp], xmm0
  00a2c	66 0f 6f 84 24
	a0 03 00 00	 movdqa	 xmm0, XMMWORD PTR $T49[rsp]
  00a35	66 0f 7f 84 24
	90 03 00 00	 movdqa	 XMMWORD PTR xSrc0$48[rsp], xmm0

; 521  :         __m128i xSrc1 = _mm_loadu_si128((__m128i *)(ptr_src + 16));

  00a3e	48 8b 84 24 78
	01 00 00	 mov	 rax, QWORD PTR ptr_src$11[rsp]
  00a46	48 83 c0 10	 add	 rax, 16
  00a4a	f3 0f 6f 00	 movdqu	 xmm0, XMMWORD PTR [rax]
  00a4e	66 0f 7f 84 24
	c0 03 00 00	 movdqa	 XMMWORD PTR $T51[rsp], xmm0
  00a57	66 0f 6f 84 24
	c0 03 00 00	 movdqa	 xmm0, XMMWORD PTR $T51[rsp]
  00a60	66 0f 7f 84 24
	b0 03 00 00	 movdqa	 XMMWORD PTR xSrc1$50[rsp], xmm0

; 522  :         __m128i xSrc2 = _mm_loadu_si128((__m128i *)(ptr_src + 32));

  00a69	48 8b 84 24 78
	01 00 00	 mov	 rax, QWORD PTR ptr_src$11[rsp]
  00a71	48 83 c0 20	 add	 rax, 32			; 00000020H
  00a75	f3 0f 6f 00	 movdqu	 xmm0, XMMWORD PTR [rax]
  00a79	66 0f 7f 84 24
	e0 03 00 00	 movdqa	 XMMWORD PTR $T53[rsp], xmm0
  00a82	66 0f 6f 84 24
	e0 03 00 00	 movdqa	 xmm0, XMMWORD PTR $T53[rsp]
  00a8b	66 0f 7f 84 24
	d0 03 00 00	 movdqa	 XMMWORD PTR xSrc2$52[rsp], xmm0

; 523  :         __m128i x0 = _mm_shuffle_epi8(xSrc0, xmask0);

  00a94	66 0f 6f 84 24
	90 03 00 00	 movdqa	 xmm0, XMMWORD PTR xSrc0$48[rsp]
  00a9d	66 0f 38 00 84
	24 f0 00 00 00	 pshufb	 xmm0, XMMWORD PTR xmask0$[rsp]
  00aa7	66 0f 7f 84 24
	00 04 00 00	 movdqa	 XMMWORD PTR $T55[rsp], xmm0
  00ab0	66 0f 6f 84 24
	00 04 00 00	 movdqa	 xmm0, XMMWORD PTR $T55[rsp]
  00ab9	66 0f 7f 84 24
	f0 03 00 00	 movdqa	 XMMWORD PTR x0$54[rsp], xmm0

; 524  :         __m128i x1 = _mm_shuffle_epi8(xSrc0, xmask1);

  00ac2	66 0f 6f 84 24
	90 03 00 00	 movdqa	 xmm0, XMMWORD PTR xSrc0$48[rsp]
  00acb	66 0f 38 00 84
	24 10 01 00 00	 pshufb	 xmm0, XMMWORD PTR xmask1$[rsp]
  00ad5	66 0f 7f 84 24
	20 04 00 00	 movdqa	 XMMWORD PTR $T57[rsp], xmm0
  00ade	66 0f 6f 84 24
	20 04 00 00	 movdqa	 xmm0, XMMWORD PTR $T57[rsp]
  00ae7	66 0f 7f 84 24
	10 04 00 00	 movdqa	 XMMWORD PTR x1$56[rsp], xmm0

; 525  :         __m128i x2 = _mm_shuffle_epi8(xSrc0, xmask2);

  00af0	66 0f 6f 84 24
	90 03 00 00	 movdqa	 xmm0, XMMWORD PTR xSrc0$48[rsp]
  00af9	66 0f 38 00 84
	24 30 01 00 00	 pshufb	 xmm0, XMMWORD PTR xmask2$[rsp]
  00b03	66 0f 7f 84 24
	40 04 00 00	 movdqa	 XMMWORD PTR $T59[rsp], xmm0
  00b0c	66 0f 6f 84 24
	40 04 00 00	 movdqa	 xmm0, XMMWORD PTR $T59[rsp]
  00b15	66 0f 7f 84 24
	30 04 00 00	 movdqa	 XMMWORD PTR x2$58[rsp], xmm0

; 526  :         x0 = _mm_or_si128(x0, _mm_shuffle_epi8(xSrc1, _mm_alignr_epi8(xmask2, xmask3, 10)));

  00b1e	66 0f 6f 84 24
	30 01 00 00	 movdqa	 xmm0, XMMWORD PTR xmask2$[rsp]
  00b27	66 0f 3a 0f 84
	24 50 01 00 00
	0a		 palignr xmm0, XMMWORD PTR xmask3$[rsp], 10
  00b32	66 0f 7f 84 24
	50 04 00 00	 movdqa	 XMMWORD PTR $T60[rsp], xmm0
  00b3b	66 0f 6f 84 24
	b0 03 00 00	 movdqa	 xmm0, XMMWORD PTR xSrc1$50[rsp]
  00b44	66 0f 38 00 84
	24 50 04 00 00	 pshufb	 xmm0, XMMWORD PTR $T60[rsp]
  00b4e	66 0f 7f 84 24
	60 04 00 00	 movdqa	 XMMWORD PTR $T61[rsp], xmm0
  00b57	66 0f 6f 84 24
	f0 03 00 00	 movdqa	 xmm0, XMMWORD PTR x0$54[rsp]
  00b60	66 0f eb 84 24
	60 04 00 00	 por	 xmm0, XMMWORD PTR $T61[rsp]
  00b69	66 0f 7f 84 24
	70 04 00 00	 movdqa	 XMMWORD PTR $T62[rsp], xmm0
  00b72	66 0f 6f 84 24
	70 04 00 00	 movdqa	 xmm0, XMMWORD PTR $T62[rsp]
  00b7b	66 0f 7f 84 24
	f0 03 00 00	 movdqa	 XMMWORD PTR x0$54[rsp], xmm0

; 527  :         x1 = _mm_or_si128(x1, _mm_shuffle_epi8(xSrc1, _mm_alignr_epi8(xmask0, xmask3, 11)));

  00b84	66 0f 6f 84 24
	f0 00 00 00	 movdqa	 xmm0, XMMWORD PTR xmask0$[rsp]
  00b8d	66 0f 3a 0f 84
	24 50 01 00 00
	0b		 palignr xmm0, XMMWORD PTR xmask3$[rsp], 11
  00b98	66 0f 7f 84 24
	80 04 00 00	 movdqa	 XMMWORD PTR $T63[rsp], xmm0
  00ba1	66 0f 6f 84 24
	b0 03 00 00	 movdqa	 xmm0, XMMWORD PTR xSrc1$50[rsp]
  00baa	66 0f 38 00 84
	24 80 04 00 00	 pshufb	 xmm0, XMMWORD PTR $T63[rsp]
  00bb4	66 0f 7f 84 24
	90 04 00 00	 movdqa	 XMMWORD PTR $T64[rsp], xmm0
  00bbd	66 0f 6f 84 24
	10 04 00 00	 movdqa	 xmm0, XMMWORD PTR x1$56[rsp]
  00bc6	66 0f eb 84 24
	90 04 00 00	 por	 xmm0, XMMWORD PTR $T64[rsp]
  00bcf	66 0f 7f 84 24
	a0 04 00 00	 movdqa	 XMMWORD PTR $T65[rsp], xmm0
  00bd8	66 0f 6f 84 24
	a0 04 00 00	 movdqa	 xmm0, XMMWORD PTR $T65[rsp]
  00be1	66 0f 7f 84 24
	10 04 00 00	 movdqa	 XMMWORD PTR x1$56[rsp], xmm0

; 528  :         x2 = _mm_or_si128(x2, _mm_shuffle_epi8(xSrc1, _mm_alignr_epi8(xmask1, xmask3, 11)));

  00bea	66 0f 6f 84 24
	10 01 00 00	 movdqa	 xmm0, XMMWORD PTR xmask1$[rsp]
  00bf3	66 0f 3a 0f 84
	24 50 01 00 00
	0b		 palignr xmm0, XMMWORD PTR xmask3$[rsp], 11
  00bfe	66 0f 7f 84 24
	b0 04 00 00	 movdqa	 XMMWORD PTR $T66[rsp], xmm0
  00c07	66 0f 6f 84 24
	b0 03 00 00	 movdqa	 xmm0, XMMWORD PTR xSrc1$50[rsp]
  00c10	66 0f 38 00 84
	24 b0 04 00 00	 pshufb	 xmm0, XMMWORD PTR $T66[rsp]
  00c1a	66 0f 7f 84 24
	c0 04 00 00	 movdqa	 XMMWORD PTR $T67[rsp], xmm0
  00c23	66 0f 6f 84 24
	30 04 00 00	 movdqa	 xmm0, XMMWORD PTR x2$58[rsp]
  00c2c	66 0f eb 84 24
	c0 04 00 00	 por	 xmm0, XMMWORD PTR $T67[rsp]
  00c35	66 0f 7f 84 24
	d0 04 00 00	 movdqa	 XMMWORD PTR $T68[rsp], xmm0
  00c3e	66 0f 6f 84 24
	d0 04 00 00	 movdqa	 xmm0, XMMWORD PTR $T68[rsp]
  00c47	66 0f 7f 84 24
	30 04 00 00	 movdqa	 XMMWORD PTR x2$58[rsp], xmm0

; 529  :         x0 = _mm_or_si128(x0, _mm_shuffle_epi8(xSrc2, _mm_alignr_epi8(xmask1, xmask3, 5)));

  00c50	66 0f 6f 84 24
	10 01 00 00	 movdqa	 xmm0, XMMWORD PTR xmask1$[rsp]
  00c59	66 0f 3a 0f 84
	24 50 01 00 00
	05		 palignr xmm0, XMMWORD PTR xmask3$[rsp], 5
  00c64	66 0f 7f 84 24
	e0 04 00 00	 movdqa	 XMMWORD PTR $T69[rsp], xmm0
  00c6d	66 0f 6f 84 24
	d0 03 00 00	 movdqa	 xmm0, XMMWORD PTR xSrc2$52[rsp]
  00c76	66 0f 38 00 84
	24 e0 04 00 00	 pshufb	 xmm0, XMMWORD PTR $T69[rsp]
  00c80	66 0f 7f 84 24
	f0 04 00 00	 movdqa	 XMMWORD PTR $T70[rsp], xmm0
  00c89	66 0f 6f 84 24
	f0 03 00 00	 movdqa	 xmm0, XMMWORD PTR x0$54[rsp]
  00c92	66 0f eb 84 24
	f0 04 00 00	 por	 xmm0, XMMWORD PTR $T70[rsp]
  00c9b	66 0f 7f 84 24
	00 05 00 00	 movdqa	 XMMWORD PTR $T71[rsp], xmm0
  00ca4	66 0f 6f 84 24
	00 05 00 00	 movdqa	 xmm0, XMMWORD PTR $T71[rsp]
  00cad	66 0f 7f 84 24
	f0 03 00 00	 movdqa	 XMMWORD PTR x0$54[rsp], xmm0

; 530  :         x1 = _mm_or_si128(x1, _mm_shuffle_epi8(xSrc2, _mm_alignr_epi8(xmask2, xmask3, 5)));

  00cb6	66 0f 6f 84 24
	30 01 00 00	 movdqa	 xmm0, XMMWORD PTR xmask2$[rsp]
  00cbf	66 0f 3a 0f 84
	24 50 01 00 00
	05		 palignr xmm0, XMMWORD PTR xmask3$[rsp], 5
  00cca	66 0f 7f 84 24
	10 05 00 00	 movdqa	 XMMWORD PTR $T72[rsp], xmm0
  00cd3	66 0f 6f 84 24
	d0 03 00 00	 movdqa	 xmm0, XMMWORD PTR xSrc2$52[rsp]
  00cdc	66 0f 38 00 84
	24 10 05 00 00	 pshufb	 xmm0, XMMWORD PTR $T72[rsp]
  00ce6	66 0f 7f 84 24
	20 05 00 00	 movdqa	 XMMWORD PTR $T73[rsp], xmm0
  00cef	66 0f 6f 84 24
	10 04 00 00	 movdqa	 xmm0, XMMWORD PTR x1$56[rsp]
  00cf8	66 0f eb 84 24
	20 05 00 00	 por	 xmm0, XMMWORD PTR $T73[rsp]
  00d01	66 0f 7f 84 24
	30 05 00 00	 movdqa	 XMMWORD PTR $T74[rsp], xmm0
  00d0a	66 0f 6f 84 24
	30 05 00 00	 movdqa	 xmm0, XMMWORD PTR $T74[rsp]
  00d13	66 0f 7f 84 24
	10 04 00 00	 movdqa	 XMMWORD PTR x1$56[rsp], xmm0

; 531  :         x2 = _mm_or_si128(x2, _mm_shuffle_epi8(xSrc2, _mm_alignr_epi8(xmask0, xmask3, 6)));

  00d1c	66 0f 6f 84 24
	f0 00 00 00	 movdqa	 xmm0, XMMWORD PTR xmask0$[rsp]
  00d25	66 0f 3a 0f 84
	24 50 01 00 00
	06		 palignr xmm0, XMMWORD PTR xmask3$[rsp], 6
  00d30	66 0f 7f 84 24
	40 05 00 00	 movdqa	 XMMWORD PTR $T75[rsp], xmm0
  00d39	66 0f 6f 84 24
	d0 03 00 00	 movdqa	 xmm0, XMMWORD PTR xSrc2$52[rsp]
  00d42	66 0f 38 00 84
	24 40 05 00 00	 pshufb	 xmm0, XMMWORD PTR $T75[rsp]
  00d4c	66 0f 7f 84 24
	50 05 00 00	 movdqa	 XMMWORD PTR $T76[rsp], xmm0
  00d55	66 0f 6f 84 24
	30 04 00 00	 movdqa	 xmm0, XMMWORD PTR x2$58[rsp]
  00d5e	66 0f eb 84 24
	50 05 00 00	 por	 xmm0, XMMWORD PTR $T76[rsp]
  00d67	66 0f 7f 84 24
	60 05 00 00	 movdqa	 XMMWORD PTR $T77[rsp], xmm0
  00d70	66 0f 6f 84 24
	60 05 00 00	 movdqa	 xmm0, XMMWORD PTR $T77[rsp]
  00d79	66 0f 7f 84 24
	30 04 00 00	 movdqa	 XMMWORD PTR x2$58[rsp], xmm0

; 532  :         _mm_storeu_si128((__m128i *)ptr_dst0, x0);

  00d82	48 8b 84 24 80
	01 00 00	 mov	 rax, QWORD PTR ptr_dst0$12[rsp]
  00d8a	66 0f 6f 84 24
	f0 03 00 00	 movdqa	 xmm0, XMMWORD PTR x0$54[rsp]
  00d93	f3 0f 7f 00	 movdqu	 XMMWORD PTR [rax], xmm0

; 533  :         _mm_storeu_si128((__m128i *)ptr_dst1, x1);

  00d97	48 8b 84 24 88
	01 00 00	 mov	 rax, QWORD PTR ptr_dst1$13[rsp]
  00d9f	66 0f 6f 84 24
	10 04 00 00	 movdqa	 xmm0, XMMWORD PTR x1$56[rsp]
  00da8	f3 0f 7f 00	 movdqu	 XMMWORD PTR [rax], xmm0

; 534  :         _mm_storeu_si128((__m128i *)ptr_dst2, x2);

  00dac	48 8b 84 24 90
	01 00 00	 mov	 rax, QWORD PTR ptr_dst2$14[rsp]
  00db4	66 0f 6f 84 24
	30 04 00 00	 movdqa	 xmm0, XMMWORD PTR x2$58[rsp]
  00dbd	f3 0f 7f 00	 movdqu	 XMMWORD PTR [rax], xmm0

; 535  :     }

  00dc1	e9 8d f6 ff ff	 jmp	 $LN2@convert_rg
$LN3@convert_rg:

; 536  : }

  00dc6	48 8b cc	 mov	 rcx, rsp
  00dc9	48 8d 15 00 00
	00 00		 lea	 rdx, OFFSET FLAT:??$convert_rgb24_to_rgb_simd@$0PPAAABAC@$0A@@@YAXPEAPEAXPEAPEBXHHHHHHHHPEAH@Z$rtcFrameData
  00dd0	e8 00 00 00 00	 call	 _RTC_CheckStackVars
  00dd5	48 8b 8c 24 90
	05 00 00	 mov	 rcx, QWORD PTR __$ArrayPad$[rsp]
  00ddd	48 33 cc	 xor	 rcx, rsp
  00de0	e8 00 00 00 00	 call	 __security_check_cookie
  00de5	48 81 c4 a8 05
	00 00		 add	 rsp, 1448		; 000005a8H
  00dec	5f		 pop	 rdi
  00ded	5e		 pop	 rsi
  00dee	c3		 ret	 0
??$convert_rgb24_to_rgb_simd@$0PPAAABAC@$0A@@@YAXPEAPEAXPEAPEBXHHHHHHHHPEAH@Z ENDP ; convert_rgb24_to_rgb_simd<4278190338,0>
_TEXT	ENDS
; Function compile flags: /Odtp /RTCsu
; File D:\work\intel\intel_codec\QSVPipeline\convert_csp_ssse3.cpp
_TEXT	SEGMENT
dst$ = 112
src$ = 120
width$ = 128
src_y_pitch_byte$ = 136
src_uv_pitch_byte$ = 144
dst_y_pitch_byte$ = 152
height$ = 160
dst_height$ = 168
thread_id$ = 176
thread_n$ = 184
crop$ = 192
?convert_rgb24_to_rgb_ssse3@@YAXPEAPEAXPEAPEBXHHHHHHHHPEAH@Z PROC ; convert_rgb24_to_rgb_ssse3

; 70   : void convert_rgb24_to_rgb_ssse3(void **dst, const void **src, int width, int src_y_pitch_byte, int src_uv_pitch_byte, int dst_y_pitch_byte, int height, int dst_height, int thread_id, int thread_n, int *crop) {

$LN3:
  00000	44 89 4c 24 20	 mov	 DWORD PTR [rsp+32], r9d
  00005	44 89 44 24 18	 mov	 DWORD PTR [rsp+24], r8d
  0000a	48 89 54 24 10	 mov	 QWORD PTR [rsp+16], rdx
  0000f	48 89 4c 24 08	 mov	 QWORD PTR [rsp+8], rcx
  00014	57		 push	 rdi
  00015	48 83 ec 60	 sub	 rsp, 96			; 00000060H
  00019	48 8b fc	 mov	 rdi, rsp
  0001c	b9 18 00 00 00	 mov	 ecx, 24
  00021	b8 cc cc cc cc	 mov	 eax, -858993460		; ccccccccH
  00026	f3 ab		 rep stosd
  00028	48 8b 4c 24 70	 mov	 rcx, QWORD PTR [rsp+112]

; 71   :     convert_rgb24_to_rgb_simd<RGB_PLANE(2, 1, 0, -1), false>(dst, src, width, src_y_pitch_byte, src_uv_pitch_byte, dst_y_pitch_byte, height, dst_height, thread_id, thread_n, crop);

  0002d	48 8b 84 24 c0
	00 00 00	 mov	 rax, QWORD PTR crop$[rsp]
  00035	48 89 44 24 50	 mov	 QWORD PTR [rsp+80], rax
  0003a	8b 84 24 b8 00
	00 00		 mov	 eax, DWORD PTR thread_n$[rsp]
  00041	89 44 24 48	 mov	 DWORD PTR [rsp+72], eax
  00045	8b 84 24 b0 00
	00 00		 mov	 eax, DWORD PTR thread_id$[rsp]
  0004c	89 44 24 40	 mov	 DWORD PTR [rsp+64], eax
  00050	8b 84 24 a8 00
	00 00		 mov	 eax, DWORD PTR dst_height$[rsp]
  00057	89 44 24 38	 mov	 DWORD PTR [rsp+56], eax
  0005b	8b 84 24 a0 00
	00 00		 mov	 eax, DWORD PTR height$[rsp]
  00062	89 44 24 30	 mov	 DWORD PTR [rsp+48], eax
  00066	8b 84 24 98 00
	00 00		 mov	 eax, DWORD PTR dst_y_pitch_byte$[rsp]
  0006d	89 44 24 28	 mov	 DWORD PTR [rsp+40], eax
  00071	8b 84 24 90 00
	00 00		 mov	 eax, DWORD PTR src_uv_pitch_byte$[rsp]
  00078	89 44 24 20	 mov	 DWORD PTR [rsp+32], eax
  0007c	44 8b 8c 24 88
	00 00 00	 mov	 r9d, DWORD PTR src_y_pitch_byte$[rsp]
  00084	44 8b 84 24 80
	00 00 00	 mov	 r8d, DWORD PTR width$[rsp]
  0008c	48 8b 54 24 78	 mov	 rdx, QWORD PTR src$[rsp]
  00091	48 8b 4c 24 70	 mov	 rcx, QWORD PTR dst$[rsp]
  00096	e8 00 00 00 00	 call	 ??$convert_rgb24_to_rgb_simd@$0PPAAABAC@$0A@@@YAXPEAPEAXPEAPEBXHHHHHHHHPEAH@Z ; convert_rgb24_to_rgb_simd<4278190338,0>

; 72   : }

  0009b	48 83 c4 60	 add	 rsp, 96			; 00000060H
  0009f	5f		 pop	 rdi
  000a0	c3		 ret	 0
?convert_rgb24_to_rgb_ssse3@@YAXPEAPEAXPEAPEBXHHHHHHHHPEAH@Z ENDP ; convert_rgb24_to_rgb_ssse3
_TEXT	ENDS
; Function compile flags: /Odtp /RTCsu
; File D:\work\intel\intel_codec\QSVPipeline\convert_csp_simd.h
_TEXT	SEGMENT
crop_left$ = 48
crop_up$ = 52
crop_right$ = 56
crop_bottom$ = 60
y_range$ = 72
$T5 = 104
srcRLine$ = 120
srcGLine$ = 128
srcBLine$ = 136
MASK_RGB_TO_RGB24$ = 160
dstLine$ = 216
y$6 = 224
ptr_srcR$7 = 232
ptr_srcG$8 = 240
ptr_srcB$9 = 248
ptr_dst$10 = 256
xmask0$11 = 272
$T12 = 288
xmask1$13 = 304
$T14 = 320
xmask2$15 = 336
$T16 = 352
x$17 = 368
x_fin$18 = 372
xR$19 = 384
$T20 = 400
xG$21 = 416
$T22 = 432
xB$23 = 448
$T24 = 464
x0$25 = 480
$T26 = 496
x1$27 = 512
$T28 = 528
x2$29 = 544
$T30 = 560
$T31 = 576
$T32 = 592
$T33 = 608
$T34 = 624
$T35 = 640
$T36 = 656
$T37 = 672
$T38 = 688
$T39 = 704
$T40 = 720
$T41 = 736
$T42 = 752
$T43 = 768
$T44 = 784
$T45 = 800
$T46 = 816
$T47 = 832
$T48 = 848
x_offset$49 = 864
xR$50 = 880
$T51 = 896
xG$52 = 912
$T53 = 928
xB$54 = 944
$T55 = 960
x0$56 = 976
$T57 = 992
x1$58 = 1008
$T59 = 1024
x2$60 = 1040
$T61 = 1056
$T62 = 1072
$T63 = 1088
$T64 = 1104
$T65 = 1120
$T66 = 1136
$T67 = 1152
$T68 = 1168
$T69 = 1184
$T70 = 1200
$T71 = 1216
$T72 = 1232
$T73 = 1248
$T74 = 1264
$T75 = 1280
$T76 = 1296
$T77 = 1312
$T78 = 1328
$T79 = 1344
$T80 = 1368
__$ArrayPad$ = 1384
dst$ = 1424
src$ = 1432
width$ = 1440
src_y_pitch_byte$ = 1448
src_uv_pitch_byte$ = 1456
dst_y_pitch_byte$ = 1464
height$ = 1472
dst_height$ = 1480
thread_id$ = 1488
thread_n$ = 1496
crop$ = 1504
??$convert_rgb_to_rgb24_simd@$0PPACAAAB@@@YAXPEAPEAXPEAPEBXHHHHHHHHPEAH@Z PROC ; convert_rgb_to_rgb24_simd<4278321153>

; 539  : static void __forceinline convert_rgb_to_rgb24_simd(void **dst, const void **src, int width, int src_y_pitch_byte, int src_uv_pitch_byte, int dst_y_pitch_byte, int height, int dst_height, int thread_id, int thread_n, int *crop) {

  00000	44 89 4c 24 20	 mov	 DWORD PTR [rsp+32], r9d
  00005	44 89 44 24 18	 mov	 DWORD PTR [rsp+24], r8d
  0000a	48 89 54 24 10	 mov	 QWORD PTR [rsp+16], rdx
  0000f	48 89 4c 24 08	 mov	 QWORD PTR [rsp+8], rcx
  00014	56		 push	 rsi
  00015	57		 push	 rdi
  00016	48 81 ec 78 05
	00 00		 sub	 rsp, 1400		; 00000578H
  0001d	48 8b fc	 mov	 rdi, rsp
  00020	b9 5e 01 00 00	 mov	 ecx, 350		; 0000015eH
  00025	b8 cc cc cc cc	 mov	 eax, -858993460		; ccccccccH
  0002a	f3 ab		 rep stosd
  0002c	48 8b 8c 24 90
	05 00 00	 mov	 rcx, QWORD PTR [rsp+1424]
  00034	48 8b 05 00 00
	00 00		 mov	 rax, QWORD PTR __security_cookie
  0003b	48 33 c4	 xor	 rax, rsp
  0003e	48 89 84 24 68
	05 00 00	 mov	 QWORD PTR __$ArrayPad$[rsp], rax

; 540  :     const int crop_left   = crop[0];

  00046	b8 04 00 00 00	 mov	 eax, 4
  0004b	48 6b c0 00	 imul	 rax, rax, 0
  0004f	48 8b 8c 24 e0
	05 00 00	 mov	 rcx, QWORD PTR crop$[rsp]
  00057	8b 04 01	 mov	 eax, DWORD PTR [rcx+rax]
  0005a	89 44 24 30	 mov	 DWORD PTR crop_left$[rsp], eax

; 541  :     const int crop_up     = crop[1];

  0005e	b8 04 00 00 00	 mov	 eax, 4
  00063	48 6b c0 01	 imul	 rax, rax, 1
  00067	48 8b 8c 24 e0
	05 00 00	 mov	 rcx, QWORD PTR crop$[rsp]
  0006f	8b 04 01	 mov	 eax, DWORD PTR [rcx+rax]
  00072	89 44 24 34	 mov	 DWORD PTR crop_up$[rsp], eax

; 542  :     const int crop_right  = crop[2];

  00076	b8 04 00 00 00	 mov	 eax, 4
  0007b	48 6b c0 02	 imul	 rax, rax, 2
  0007f	48 8b 8c 24 e0
	05 00 00	 mov	 rcx, QWORD PTR crop$[rsp]
  00087	8b 04 01	 mov	 eax, DWORD PTR [rcx+rax]
  0008a	89 44 24 38	 mov	 DWORD PTR crop_right$[rsp], eax

; 543  :     const int crop_bottom = crop[3];

  0008e	b8 04 00 00 00	 mov	 eax, 4
  00093	48 6b c0 03	 imul	 rax, rax, 3
  00097	48 8b 8c 24 e0
	05 00 00	 mov	 rcx, QWORD PTR crop$[rsp]
  0009f	8b 04 01	 mov	 eax, DWORD PTR [rcx+rax]
  000a2	89 44 24 3c	 mov	 DWORD PTR crop_bottom$[rsp], eax

; 544  :     const auto y_range = thread_y_range(crop_up, height - crop_bottom, thread_id, thread_n);

  000a6	8b 44 24 3c	 mov	 eax, DWORD PTR crop_bottom$[rsp]
  000aa	8b 8c 24 c0 05
	00 00		 mov	 ecx, DWORD PTR height$[rsp]
  000b1	2b c8		 sub	 ecx, eax
  000b3	8b c1		 mov	 eax, ecx
  000b5	8b 8c 24 d8 05
	00 00		 mov	 ecx, DWORD PTR thread_n$[rsp]
  000bc	89 4c 24 20	 mov	 DWORD PTR [rsp+32], ecx
  000c0	44 8b 8c 24 d0
	05 00 00	 mov	 r9d, DWORD PTR thread_id$[rsp]
  000c8	44 8b c0	 mov	 r8d, eax
  000cb	8b 54 24 34	 mov	 edx, DWORD PTR crop_up$[rsp]
  000cf	48 8d 8c 24 58
	05 00 00	 lea	 rcx, QWORD PTR $T80[rsp]
  000d7	e8 00 00 00 00	 call	 ?thread_y_range@@YA?AUTHREAD_Y_RANGE@@HHHH@Z ; thread_y_range
  000dc	48 8d 4c 24 68	 lea	 rcx, QWORD PTR $T5[rsp]
  000e1	48 8b f9	 mov	 rdi, rcx
  000e4	48 8b f0	 mov	 rsi, rax
  000e7	b9 0c 00 00 00	 mov	 ecx, 12
  000ec	f3 a4		 rep movsb
  000ee	48 8d 44 24 48	 lea	 rax, QWORD PTR y_range$[rsp]
  000f3	48 8d 4c 24 68	 lea	 rcx, QWORD PTR $T5[rsp]
  000f8	48 8b f8	 mov	 rdi, rax
  000fb	48 8b f1	 mov	 rsi, rcx
  000fe	b9 0c 00 00 00	 mov	 ecx, 12
  00103	f3 a4		 rep movsb

; 545  :     uint8_t *srcRLine = (uint8_t *)src[(plane_from >>  0) & 0xff] + src_y_pitch_byte * y_range.start_src + crop_left;

  00105	b8 08 00 00 00	 mov	 eax, 8
  0010a	48 6b c0 01	 imul	 rax, rax, 1
  0010e	8b 8c 24 a8 05
	00 00		 mov	 ecx, DWORD PTR src_y_pitch_byte$[rsp]
  00115	0f af 4c 24 48	 imul	 ecx, DWORD PTR y_range$[rsp]
  0011a	48 63 c9	 movsxd	 rcx, ecx
  0011d	48 8b 94 24 98
	05 00 00	 mov	 rdx, QWORD PTR src$[rsp]
  00125	48 8b 04 02	 mov	 rax, QWORD PTR [rdx+rax]
  00129	48 03 c1	 add	 rax, rcx
  0012c	48 63 4c 24 30	 movsxd	 rcx, DWORD PTR crop_left$[rsp]
  00131	48 03 c1	 add	 rax, rcx
  00134	48 89 44 24 78	 mov	 QWORD PTR srcRLine$[rsp], rax

; 546  :     uint8_t *srcGLine = (uint8_t *)src[(plane_from >>  8) & 0xff] + src_y_pitch_byte * y_range.start_src + crop_left;

  00139	b8 08 00 00 00	 mov	 eax, 8
  0013e	48 6b c0 00	 imul	 rax, rax, 0
  00142	8b 8c 24 a8 05
	00 00		 mov	 ecx, DWORD PTR src_y_pitch_byte$[rsp]
  00149	0f af 4c 24 48	 imul	 ecx, DWORD PTR y_range$[rsp]
  0014e	48 63 c9	 movsxd	 rcx, ecx
  00151	48 8b 94 24 98
	05 00 00	 mov	 rdx, QWORD PTR src$[rsp]
  00159	48 8b 04 02	 mov	 rax, QWORD PTR [rdx+rax]
  0015d	48 03 c1	 add	 rax, rcx
  00160	48 63 4c 24 30	 movsxd	 rcx, DWORD PTR crop_left$[rsp]
  00165	48 03 c1	 add	 rax, rcx
  00168	48 89 84 24 80
	00 00 00	 mov	 QWORD PTR srcGLine$[rsp], rax

; 547  :     uint8_t *srcBLine = (uint8_t *)src[(plane_from >> 16) & 0xff] + src_y_pitch_byte * y_range.start_src + crop_left;

  00170	b8 08 00 00 00	 mov	 eax, 8
  00175	48 6b c0 02	 imul	 rax, rax, 2
  00179	8b 8c 24 a8 05
	00 00		 mov	 ecx, DWORD PTR src_y_pitch_byte$[rsp]
  00180	0f af 4c 24 48	 imul	 ecx, DWORD PTR y_range$[rsp]
  00185	48 63 c9	 movsxd	 rcx, ecx
  00188	48 8b 94 24 98
	05 00 00	 mov	 rdx, QWORD PTR src$[rsp]
  00190	48 8b 04 02	 mov	 rax, QWORD PTR [rdx+rax]
  00194	48 03 c1	 add	 rax, rcx
  00197	48 63 4c 24 30	 movsxd	 rcx, DWORD PTR crop_left$[rsp]
  0019c	48 03 c1	 add	 rax, rcx
  0019f	48 89 84 24 88
	00 00 00	 mov	 QWORD PTR srcBLine$[rsp], rax

; 548  :     alignas(16) const char MASK_RGB_TO_RGB24[] = {
; 549  :          0, -1, -1,  1, -1, -1,  2, -1, -1,  3, -1, -1,  4, -1, -1,  5,

  001a7	c6 84 24 a0 00
	00 00 00	 mov	 BYTE PTR MASK_RGB_TO_RGB24$[rsp], 0
  001af	c6 84 24 a1 00
	00 00 ff	 mov	 BYTE PTR MASK_RGB_TO_RGB24$[rsp+1], -1
  001b7	c6 84 24 a2 00
	00 00 ff	 mov	 BYTE PTR MASK_RGB_TO_RGB24$[rsp+2], -1
  001bf	c6 84 24 a3 00
	00 00 01	 mov	 BYTE PTR MASK_RGB_TO_RGB24$[rsp+3], 1
  001c7	c6 84 24 a4 00
	00 00 ff	 mov	 BYTE PTR MASK_RGB_TO_RGB24$[rsp+4], -1
  001cf	c6 84 24 a5 00
	00 00 ff	 mov	 BYTE PTR MASK_RGB_TO_RGB24$[rsp+5], -1
  001d7	c6 84 24 a6 00
	00 00 02	 mov	 BYTE PTR MASK_RGB_TO_RGB24$[rsp+6], 2
  001df	c6 84 24 a7 00
	00 00 ff	 mov	 BYTE PTR MASK_RGB_TO_RGB24$[rsp+7], -1
  001e7	c6 84 24 a8 00
	00 00 ff	 mov	 BYTE PTR MASK_RGB_TO_RGB24$[rsp+8], -1
  001ef	c6 84 24 a9 00
	00 00 03	 mov	 BYTE PTR MASK_RGB_TO_RGB24$[rsp+9], 3
  001f7	c6 84 24 aa 00
	00 00 ff	 mov	 BYTE PTR MASK_RGB_TO_RGB24$[rsp+10], -1
  001ff	c6 84 24 ab 00
	00 00 ff	 mov	 BYTE PTR MASK_RGB_TO_RGB24$[rsp+11], -1
  00207	c6 84 24 ac 00
	00 00 04	 mov	 BYTE PTR MASK_RGB_TO_RGB24$[rsp+12], 4
  0020f	c6 84 24 ad 00
	00 00 ff	 mov	 BYTE PTR MASK_RGB_TO_RGB24$[rsp+13], -1
  00217	c6 84 24 ae 00
	00 00 ff	 mov	 BYTE PTR MASK_RGB_TO_RGB24$[rsp+14], -1
  0021f	c6 84 24 af 00
	00 00 05	 mov	 BYTE PTR MASK_RGB_TO_RGB24$[rsp+15], 5

; 550  :         -1, -1,  6, -1, -1,  7, -1, -1,  8, -1, -1,  9, -1, -1, 10, -1,

  00227	c6 84 24 b0 00
	00 00 ff	 mov	 BYTE PTR MASK_RGB_TO_RGB24$[rsp+16], -1
  0022f	c6 84 24 b1 00
	00 00 ff	 mov	 BYTE PTR MASK_RGB_TO_RGB24$[rsp+17], -1
  00237	c6 84 24 b2 00
	00 00 06	 mov	 BYTE PTR MASK_RGB_TO_RGB24$[rsp+18], 6
  0023f	c6 84 24 b3 00
	00 00 ff	 mov	 BYTE PTR MASK_RGB_TO_RGB24$[rsp+19], -1
  00247	c6 84 24 b4 00
	00 00 ff	 mov	 BYTE PTR MASK_RGB_TO_RGB24$[rsp+20], -1
  0024f	c6 84 24 b5 00
	00 00 07	 mov	 BYTE PTR MASK_RGB_TO_RGB24$[rsp+21], 7
  00257	c6 84 24 b6 00
	00 00 ff	 mov	 BYTE PTR MASK_RGB_TO_RGB24$[rsp+22], -1
  0025f	c6 84 24 b7 00
	00 00 ff	 mov	 BYTE PTR MASK_RGB_TO_RGB24$[rsp+23], -1
  00267	c6 84 24 b8 00
	00 00 08	 mov	 BYTE PTR MASK_RGB_TO_RGB24$[rsp+24], 8
  0026f	c6 84 24 b9 00
	00 00 ff	 mov	 BYTE PTR MASK_RGB_TO_RGB24$[rsp+25], -1
  00277	c6 84 24 ba 00
	00 00 ff	 mov	 BYTE PTR MASK_RGB_TO_RGB24$[rsp+26], -1
  0027f	c6 84 24 bb 00
	00 00 09	 mov	 BYTE PTR MASK_RGB_TO_RGB24$[rsp+27], 9
  00287	c6 84 24 bc 00
	00 00 ff	 mov	 BYTE PTR MASK_RGB_TO_RGB24$[rsp+28], -1
  0028f	c6 84 24 bd 00
	00 00 ff	 mov	 BYTE PTR MASK_RGB_TO_RGB24$[rsp+29], -1
  00297	c6 84 24 be 00
	00 00 0a	 mov	 BYTE PTR MASK_RGB_TO_RGB24$[rsp+30], 10
  0029f	c6 84 24 bf 00
	00 00 ff	 mov	 BYTE PTR MASK_RGB_TO_RGB24$[rsp+31], -1

; 551  :         -1, 11, -1, -1, 12, -1, -1, 13, -1, -1, 14, -1, -1, 15, -1, -1

  002a7	c6 84 24 c0 00
	00 00 ff	 mov	 BYTE PTR MASK_RGB_TO_RGB24$[rsp+32], -1
  002af	c6 84 24 c1 00
	00 00 0b	 mov	 BYTE PTR MASK_RGB_TO_RGB24$[rsp+33], 11
  002b7	c6 84 24 c2 00
	00 00 ff	 mov	 BYTE PTR MASK_RGB_TO_RGB24$[rsp+34], -1
  002bf	c6 84 24 c3 00
	00 00 ff	 mov	 BYTE PTR MASK_RGB_TO_RGB24$[rsp+35], -1
  002c7	c6 84 24 c4 00
	00 00 0c	 mov	 BYTE PTR MASK_RGB_TO_RGB24$[rsp+36], 12
  002cf	c6 84 24 c5 00
	00 00 ff	 mov	 BYTE PTR MASK_RGB_TO_RGB24$[rsp+37], -1
  002d7	c6 84 24 c6 00
	00 00 ff	 mov	 BYTE PTR MASK_RGB_TO_RGB24$[rsp+38], -1
  002df	c6 84 24 c7 00
	00 00 0d	 mov	 BYTE PTR MASK_RGB_TO_RGB24$[rsp+39], 13
  002e7	c6 84 24 c8 00
	00 00 ff	 mov	 BYTE PTR MASK_RGB_TO_RGB24$[rsp+40], -1
  002ef	c6 84 24 c9 00
	00 00 ff	 mov	 BYTE PTR MASK_RGB_TO_RGB24$[rsp+41], -1
  002f7	c6 84 24 ca 00
	00 00 0e	 mov	 BYTE PTR MASK_RGB_TO_RGB24$[rsp+42], 14
  002ff	c6 84 24 cb 00
	00 00 ff	 mov	 BYTE PTR MASK_RGB_TO_RGB24$[rsp+43], -1
  00307	c6 84 24 cc 00
	00 00 ff	 mov	 BYTE PTR MASK_RGB_TO_RGB24$[rsp+44], -1
  0030f	c6 84 24 cd 00
	00 00 0f	 mov	 BYTE PTR MASK_RGB_TO_RGB24$[rsp+45], 15
  00317	c6 84 24 ce 00
	00 00 ff	 mov	 BYTE PTR MASK_RGB_TO_RGB24$[rsp+46], -1
  0031f	c6 84 24 cf 00
	00 00 ff	 mov	 BYTE PTR MASK_RGB_TO_RGB24$[rsp+47], -1

; 552  :     };
; 553  :     uint8_t *dstLine = (uint8_t *)dst[0] + dst_y_pitch_byte * y_range.start_dst;

  00327	b8 08 00 00 00	 mov	 eax, 8
  0032c	48 6b c0 00	 imul	 rax, rax, 0
  00330	8b 8c 24 b8 05
	00 00		 mov	 ecx, DWORD PTR dst_y_pitch_byte$[rsp]
  00337	0f af 4c 24 4c	 imul	 ecx, DWORD PTR y_range$[rsp+4]
  0033c	48 63 c9	 movsxd	 rcx, ecx
  0033f	48 8b 94 24 90
	05 00 00	 mov	 rdx, QWORD PTR dst$[rsp]
  00347	48 03 0c 02	 add	 rcx, QWORD PTR [rdx+rax]
  0034b	48 8b c1	 mov	 rax, rcx
  0034e	48 89 84 24 d8
	00 00 00	 mov	 QWORD PTR dstLine$[rsp], rax

; 554  :     for (int y = 0; y < y_range.len; y++, dstLine += dst_y_pitch_byte, srcRLine += src_y_pitch_byte, srcGLine += src_y_pitch_byte, srcBLine += src_y_pitch_byte) {

  00356	c7 84 24 e0 00
	00 00 00 00 00
	00		 mov	 DWORD PTR y$6[rsp], 0
  00361	e9 82 00 00 00	 jmp	 $LN4@convert_rg
$LN2@convert_rg:
  00366	8b 84 24 e0 00
	00 00		 mov	 eax, DWORD PTR y$6[rsp]
  0036d	ff c0		 inc	 eax
  0036f	89 84 24 e0 00
	00 00		 mov	 DWORD PTR y$6[rsp], eax
  00376	48 63 84 24 b8
	05 00 00	 movsxd	 rax, DWORD PTR dst_y_pitch_byte$[rsp]
  0037e	48 8b 8c 24 d8
	00 00 00	 mov	 rcx, QWORD PTR dstLine$[rsp]
  00386	48 03 c8	 add	 rcx, rax
  00389	48 8b c1	 mov	 rax, rcx
  0038c	48 89 84 24 d8
	00 00 00	 mov	 QWORD PTR dstLine$[rsp], rax
  00394	48 63 84 24 a8
	05 00 00	 movsxd	 rax, DWORD PTR src_y_pitch_byte$[rsp]
  0039c	48 8b 4c 24 78	 mov	 rcx, QWORD PTR srcRLine$[rsp]
  003a1	48 03 c8	 add	 rcx, rax
  003a4	48 8b c1	 mov	 rax, rcx
  003a7	48 89 44 24 78	 mov	 QWORD PTR srcRLine$[rsp], rax
  003ac	48 63 84 24 a8
	05 00 00	 movsxd	 rax, DWORD PTR src_y_pitch_byte$[rsp]
  003b4	48 8b 8c 24 80
	00 00 00	 mov	 rcx, QWORD PTR srcGLine$[rsp]
  003bc	48 03 c8	 add	 rcx, rax
  003bf	48 8b c1	 mov	 rax, rcx
  003c2	48 89 84 24 80
	00 00 00	 mov	 QWORD PTR srcGLine$[rsp], rax
  003ca	48 63 84 24 a8
	05 00 00	 movsxd	 rax, DWORD PTR src_y_pitch_byte$[rsp]
  003d2	48 8b 8c 24 88
	00 00 00	 mov	 rcx, QWORD PTR srcBLine$[rsp]
  003da	48 03 c8	 add	 rcx, rax
  003dd	48 8b c1	 mov	 rax, rcx
  003e0	48 89 84 24 88
	00 00 00	 mov	 QWORD PTR srcBLine$[rsp], rax
$LN4@convert_rg:
  003e8	8b 44 24 50	 mov	 eax, DWORD PTR y_range$[rsp+8]
  003ec	39 84 24 e0 00
	00 00		 cmp	 DWORD PTR y$6[rsp], eax
  003f3	0f 8d 70 09 00
	00		 jge	 $LN3@convert_rg

; 555  :         uint8_t *ptr_srcR = srcRLine;

  003f9	48 8b 44 24 78	 mov	 rax, QWORD PTR srcRLine$[rsp]
  003fe	48 89 84 24 e8
	00 00 00	 mov	 QWORD PTR ptr_srcR$7[rsp], rax

; 556  :         uint8_t *ptr_srcG = srcGLine;

  00406	48 8b 84 24 80
	00 00 00	 mov	 rax, QWORD PTR srcGLine$[rsp]
  0040e	48 89 84 24 f0
	00 00 00	 mov	 QWORD PTR ptr_srcG$8[rsp], rax

; 557  :         uint8_t *ptr_srcB = srcBLine;

  00416	48 8b 84 24 88
	00 00 00	 mov	 rax, QWORD PTR srcBLine$[rsp]
  0041e	48 89 84 24 f8
	00 00 00	 mov	 QWORD PTR ptr_srcB$9[rsp], rax

; 558  :         uint8_t *ptr_dst = dstLine;

  00426	48 8b 84 24 d8
	00 00 00	 mov	 rax, QWORD PTR dstLine$[rsp]
  0042e	48 89 84 24 00
	01 00 00	 mov	 QWORD PTR ptr_dst$10[rsp], rax

; 559  :         __m128i xmask0 = _mm_load_si128((__m128i *)&MASK_RGB_TO_RGB24[0]);

  00436	b8 01 00 00 00	 mov	 eax, 1
  0043b	48 6b c0 00	 imul	 rax, rax, 0
  0043f	48 8d 84 04 a0
	00 00 00	 lea	 rax, QWORD PTR MASK_RGB_TO_RGB24$[rsp+rax]
  00447	f3 0f 6f 00	 movdqu	 xmm0, XMMWORD PTR [rax]
  0044b	66 0f 7f 84 24
	20 01 00 00	 movdqa	 XMMWORD PTR $T12[rsp], xmm0
  00454	66 0f 6f 84 24
	20 01 00 00	 movdqa	 xmm0, XMMWORD PTR $T12[rsp]
  0045d	66 0f 7f 84 24
	10 01 00 00	 movdqa	 XMMWORD PTR xmask0$11[rsp], xmm0

; 560  :         __m128i xmask1 = _mm_load_si128((__m128i *)&MASK_RGB_TO_RGB24[16]);

  00466	b8 01 00 00 00	 mov	 eax, 1
  0046b	48 6b c0 10	 imul	 rax, rax, 16
  0046f	48 8d 84 04 a0
	00 00 00	 lea	 rax, QWORD PTR MASK_RGB_TO_RGB24$[rsp+rax]
  00477	f3 0f 6f 00	 movdqu	 xmm0, XMMWORD PTR [rax]
  0047b	66 0f 7f 84 24
	40 01 00 00	 movdqa	 XMMWORD PTR $T14[rsp], xmm0
  00484	66 0f 6f 84 24
	40 01 00 00	 movdqa	 xmm0, XMMWORD PTR $T14[rsp]
  0048d	66 0f 7f 84 24
	30 01 00 00	 movdqa	 XMMWORD PTR xmask1$13[rsp], xmm0

; 561  :         __m128i xmask2 = _mm_load_si128((__m128i *)&MASK_RGB_TO_RGB24[32]);

  00496	b8 01 00 00 00	 mov	 eax, 1
  0049b	48 6b c0 20	 imul	 rax, rax, 32		; 00000020H
  0049f	48 8d 84 04 a0
	00 00 00	 lea	 rax, QWORD PTR MASK_RGB_TO_RGB24$[rsp+rax]
  004a7	f3 0f 6f 00	 movdqu	 xmm0, XMMWORD PTR [rax]
  004ab	66 0f 7f 84 24
	60 01 00 00	 movdqa	 XMMWORD PTR $T16[rsp], xmm0
  004b4	66 0f 6f 84 24
	60 01 00 00	 movdqa	 xmm0, XMMWORD PTR $T16[rsp]
  004bd	66 0f 7f 84 24
	50 01 00 00	 movdqa	 XMMWORD PTR xmask2$15[rsp], xmm0

; 562  :         int x = 0, x_fin = width - crop_left - crop_right - 16;

  004c6	c7 84 24 70 01
	00 00 00 00 00
	00		 mov	 DWORD PTR x$17[rsp], 0
  004d1	8b 44 24 30	 mov	 eax, DWORD PTR crop_left$[rsp]
  004d5	8b 8c 24 a0 05
	00 00		 mov	 ecx, DWORD PTR width$[rsp]
  004dc	2b c8		 sub	 ecx, eax
  004de	8b c1		 mov	 eax, ecx
  004e0	2b 44 24 38	 sub	 eax, DWORD PTR crop_right$[rsp]
  004e4	83 e8 10	 sub	 eax, 16
  004e7	89 84 24 74 01
	00 00		 mov	 DWORD PTR x_fin$18[rsp], eax

; 563  :         for (; x < x_fin; x += 16, ptr_dst += 48, ptr_srcR += 16, ptr_srcG += 16, ptr_srcB += 16) {

  004ee	eb 61		 jmp	 SHORT $LN7@convert_rg
$LN5@convert_rg:
  004f0	8b 84 24 70 01
	00 00		 mov	 eax, DWORD PTR x$17[rsp]
  004f7	83 c0 10	 add	 eax, 16
  004fa	89 84 24 70 01
	00 00		 mov	 DWORD PTR x$17[rsp], eax
  00501	48 8b 84 24 00
	01 00 00	 mov	 rax, QWORD PTR ptr_dst$10[rsp]
  00509	48 83 c0 30	 add	 rax, 48			; 00000030H
  0050d	48 89 84 24 00
	01 00 00	 mov	 QWORD PTR ptr_dst$10[rsp], rax
  00515	48 8b 84 24 e8
	00 00 00	 mov	 rax, QWORD PTR ptr_srcR$7[rsp]
  0051d	48 83 c0 10	 add	 rax, 16
  00521	48 89 84 24 e8
	00 00 00	 mov	 QWORD PTR ptr_srcR$7[rsp], rax
  00529	48 8b 84 24 f0
	00 00 00	 mov	 rax, QWORD PTR ptr_srcG$8[rsp]
  00531	48 83 c0 10	 add	 rax, 16
  00535	48 89 84 24 f0
	00 00 00	 mov	 QWORD PTR ptr_srcG$8[rsp], rax
  0053d	48 8b 84 24 f8
	00 00 00	 mov	 rax, QWORD PTR ptr_srcB$9[rsp]
  00545	48 83 c0 10	 add	 rax, 16
  00549	48 89 84 24 f8
	00 00 00	 mov	 QWORD PTR ptr_srcB$9[rsp], rax
$LN7@convert_rg:
  00551	8b 84 24 74 01
	00 00		 mov	 eax, DWORD PTR x_fin$18[rsp]
  00558	39 84 24 70 01
	00 00		 cmp	 DWORD PTR x$17[rsp], eax
  0055f	0f 8d af 03 00
	00		 jge	 $LN6@convert_rg

; 564  :             __m128i xR = _mm_loadu_si128((__m128i *)ptr_srcR);

  00565	48 8b 84 24 e8
	00 00 00	 mov	 rax, QWORD PTR ptr_srcR$7[rsp]
  0056d	f3 0f 6f 00	 movdqu	 xmm0, XMMWORD PTR [rax]
  00571	66 0f 7f 84 24
	90 01 00 00	 movdqa	 XMMWORD PTR $T20[rsp], xmm0
  0057a	66 0f 6f 84 24
	90 01 00 00	 movdqa	 xmm0, XMMWORD PTR $T20[rsp]
  00583	66 0f 7f 84 24
	80 01 00 00	 movdqa	 XMMWORD PTR xR$19[rsp], xmm0

; 565  :             __m128i xG = _mm_loadu_si128((__m128i *)ptr_srcG);

  0058c	48 8b 84 24 f0
	00 00 00	 mov	 rax, QWORD PTR ptr_srcG$8[rsp]
  00594	f3 0f 6f 00	 movdqu	 xmm0, XMMWORD PTR [rax]
  00598	66 0f 7f 84 24
	b0 01 00 00	 movdqa	 XMMWORD PTR $T22[rsp], xmm0
  005a1	66 0f 6f 84 24
	b0 01 00 00	 movdqa	 xmm0, XMMWORD PTR $T22[rsp]
  005aa	66 0f 7f 84 24
	a0 01 00 00	 movdqa	 XMMWORD PTR xG$21[rsp], xmm0

; 566  :             __m128i xB = _mm_loadu_si128((__m128i *)ptr_srcB);

  005b3	48 8b 84 24 f8
	00 00 00	 mov	 rax, QWORD PTR ptr_srcB$9[rsp]
  005bb	f3 0f 6f 00	 movdqu	 xmm0, XMMWORD PTR [rax]
  005bf	66 0f 7f 84 24
	d0 01 00 00	 movdqa	 XMMWORD PTR $T24[rsp], xmm0
  005c8	66 0f 6f 84 24
	d0 01 00 00	 movdqa	 xmm0, XMMWORD PTR $T24[rsp]
  005d1	66 0f 7f 84 24
	c0 01 00 00	 movdqa	 XMMWORD PTR xB$23[rsp], xmm0

; 567  :             __m128i x0 = _mm_shuffle_epi8(xR, xmask0);

  005da	66 0f 6f 84 24
	80 01 00 00	 movdqa	 xmm0, XMMWORD PTR xR$19[rsp]
  005e3	66 0f 38 00 84
	24 10 01 00 00	 pshufb	 xmm0, XMMWORD PTR xmask0$11[rsp]
  005ed	66 0f 7f 84 24
	f0 01 00 00	 movdqa	 XMMWORD PTR $T26[rsp], xmm0
  005f6	66 0f 6f 84 24
	f0 01 00 00	 movdqa	 xmm0, XMMWORD PTR $T26[rsp]
  005ff	66 0f 7f 84 24
	e0 01 00 00	 movdqa	 XMMWORD PTR x0$25[rsp], xmm0

; 568  :             __m128i x1 = _mm_shuffle_epi8(xR, xmask1);

  00608	66 0f 6f 84 24
	80 01 00 00	 movdqa	 xmm0, XMMWORD PTR xR$19[rsp]
  00611	66 0f 38 00 84
	24 30 01 00 00	 pshufb	 xmm0, XMMWORD PTR xmask1$13[rsp]
  0061b	66 0f 7f 84 24
	10 02 00 00	 movdqa	 XMMWORD PTR $T28[rsp], xmm0
  00624	66 0f 6f 84 24
	10 02 00 00	 movdqa	 xmm0, XMMWORD PTR $T28[rsp]
  0062d	66 0f 7f 84 24
	00 02 00 00	 movdqa	 XMMWORD PTR x1$27[rsp], xmm0

; 569  :             __m128i x2 = _mm_shuffle_epi8(xR, xmask2);

  00636	66 0f 6f 84 24
	80 01 00 00	 movdqa	 xmm0, XMMWORD PTR xR$19[rsp]
  0063f	66 0f 38 00 84
	24 50 01 00 00	 pshufb	 xmm0, XMMWORD PTR xmask2$15[rsp]
  00649	66 0f 7f 84 24
	30 02 00 00	 movdqa	 XMMWORD PTR $T30[rsp], xmm0
  00652	66 0f 6f 84 24
	30 02 00 00	 movdqa	 xmm0, XMMWORD PTR $T30[rsp]
  0065b	66 0f 7f 84 24
	20 02 00 00	 movdqa	 XMMWORD PTR x2$29[rsp], xmm0

; 570  :             x0 = _mm_or_si128(x0, _mm_shuffle_epi8(xG, _mm_alignr_epi8(xmask0, xmask2, 15)));

  00664	66 0f 6f 84 24
	10 01 00 00	 movdqa	 xmm0, XMMWORD PTR xmask0$11[rsp]
  0066d	66 0f 3a 0f 84
	24 50 01 00 00
	0f		 palignr xmm0, XMMWORD PTR xmask2$15[rsp], 15
  00678	66 0f 7f 84 24
	40 02 00 00	 movdqa	 XMMWORD PTR $T31[rsp], xmm0
  00681	66 0f 6f 84 24
	a0 01 00 00	 movdqa	 xmm0, XMMWORD PTR xG$21[rsp]
  0068a	66 0f 38 00 84
	24 40 02 00 00	 pshufb	 xmm0, XMMWORD PTR $T31[rsp]
  00694	66 0f 7f 84 24
	50 02 00 00	 movdqa	 XMMWORD PTR $T32[rsp], xmm0
  0069d	66 0f 6f 84 24
	e0 01 00 00	 movdqa	 xmm0, XMMWORD PTR x0$25[rsp]
  006a6	66 0f eb 84 24
	50 02 00 00	 por	 xmm0, XMMWORD PTR $T32[rsp]
  006af	66 0f 7f 84 24
	60 02 00 00	 movdqa	 XMMWORD PTR $T33[rsp], xmm0
  006b8	66 0f 6f 84 24
	60 02 00 00	 movdqa	 xmm0, XMMWORD PTR $T33[rsp]
  006c1	66 0f 7f 84 24
	e0 01 00 00	 movdqa	 XMMWORD PTR x0$25[rsp], xmm0

; 571  :             x1 = _mm_or_si128(x1, _mm_shuffle_epi8(xG, _mm_alignr_epi8(xmask1, xmask0, 15)));

  006ca	66 0f 6f 84 24
	30 01 00 00	 movdqa	 xmm0, XMMWORD PTR xmask1$13[rsp]
  006d3	66 0f 3a 0f 84
	24 10 01 00 00
	0f		 palignr xmm0, XMMWORD PTR xmask0$11[rsp], 15
  006de	66 0f 7f 84 24
	70 02 00 00	 movdqa	 XMMWORD PTR $T34[rsp], xmm0
  006e7	66 0f 6f 84 24
	a0 01 00 00	 movdqa	 xmm0, XMMWORD PTR xG$21[rsp]
  006f0	66 0f 38 00 84
	24 70 02 00 00	 pshufb	 xmm0, XMMWORD PTR $T34[rsp]
  006fa	66 0f 7f 84 24
	80 02 00 00	 movdqa	 XMMWORD PTR $T35[rsp], xmm0
  00703	66 0f 6f 84 24
	00 02 00 00	 movdqa	 xmm0, XMMWORD PTR x1$27[rsp]
  0070c	66 0f eb 84 24
	80 02 00 00	 por	 xmm0, XMMWORD PTR $T35[rsp]
  00715	66 0f 7f 84 24
	90 02 00 00	 movdqa	 XMMWORD PTR $T36[rsp], xmm0
  0071e	66 0f 6f 84 24
	90 02 00 00	 movdqa	 xmm0, XMMWORD PTR $T36[rsp]
  00727	66 0f 7f 84 24
	00 02 00 00	 movdqa	 XMMWORD PTR x1$27[rsp], xmm0

; 572  :             x2 = _mm_or_si128(x2, _mm_shuffle_epi8(xG, _mm_alignr_epi8(xmask2, xmask1, 15)));

  00730	66 0f 6f 84 24
	50 01 00 00	 movdqa	 xmm0, XMMWORD PTR xmask2$15[rsp]
  00739	66 0f 3a 0f 84
	24 30 01 00 00
	0f		 palignr xmm0, XMMWORD PTR xmask1$13[rsp], 15
  00744	66 0f 7f 84 24
	a0 02 00 00	 movdqa	 XMMWORD PTR $T37[rsp], xmm0
  0074d	66 0f 6f 84 24
	a0 01 00 00	 movdqa	 xmm0, XMMWORD PTR xG$21[rsp]
  00756	66 0f 38 00 84
	24 a0 02 00 00	 pshufb	 xmm0, XMMWORD PTR $T37[rsp]
  00760	66 0f 7f 84 24
	b0 02 00 00	 movdqa	 XMMWORD PTR $T38[rsp], xmm0
  00769	66 0f 6f 84 24
	20 02 00 00	 movdqa	 xmm0, XMMWORD PTR x2$29[rsp]
  00772	66 0f eb 84 24
	b0 02 00 00	 por	 xmm0, XMMWORD PTR $T38[rsp]
  0077b	66 0f 7f 84 24
	c0 02 00 00	 movdqa	 XMMWORD PTR $T39[rsp], xmm0
  00784	66 0f 6f 84 24
	c0 02 00 00	 movdqa	 xmm0, XMMWORD PTR $T39[rsp]
  0078d	66 0f 7f 84 24
	20 02 00 00	 movdqa	 XMMWORD PTR x2$29[rsp], xmm0

; 573  :             x0 = _mm_or_si128(x0, _mm_shuffle_epi8(xB, _mm_alignr_epi8(xmask0, xmask2, 14)));

  00796	66 0f 6f 84 24
	10 01 00 00	 movdqa	 xmm0, XMMWORD PTR xmask0$11[rsp]
  0079f	66 0f 3a 0f 84
	24 50 01 00 00
	0e		 palignr xmm0, XMMWORD PTR xmask2$15[rsp], 14
  007aa	66 0f 7f 84 24
	d0 02 00 00	 movdqa	 XMMWORD PTR $T40[rsp], xmm0
  007b3	66 0f 6f 84 24
	c0 01 00 00	 movdqa	 xmm0, XMMWORD PTR xB$23[rsp]
  007bc	66 0f 38 00 84
	24 d0 02 00 00	 pshufb	 xmm0, XMMWORD PTR $T40[rsp]
  007c6	66 0f 7f 84 24
	e0 02 00 00	 movdqa	 XMMWORD PTR $T41[rsp], xmm0
  007cf	66 0f 6f 84 24
	e0 01 00 00	 movdqa	 xmm0, XMMWORD PTR x0$25[rsp]
  007d8	66 0f eb 84 24
	e0 02 00 00	 por	 xmm0, XMMWORD PTR $T41[rsp]
  007e1	66 0f 7f 84 24
	f0 02 00 00	 movdqa	 XMMWORD PTR $T42[rsp], xmm0
  007ea	66 0f 6f 84 24
	f0 02 00 00	 movdqa	 xmm0, XMMWORD PTR $T42[rsp]
  007f3	66 0f 7f 84 24
	e0 01 00 00	 movdqa	 XMMWORD PTR x0$25[rsp], xmm0

; 574  :             x1 = _mm_or_si128(x1, _mm_shuffle_epi8(xB, _mm_alignr_epi8(xmask1, xmask0, 14)));

  007fc	66 0f 6f 84 24
	30 01 00 00	 movdqa	 xmm0, XMMWORD PTR xmask1$13[rsp]
  00805	66 0f 3a 0f 84
	24 10 01 00 00
	0e		 palignr xmm0, XMMWORD PTR xmask0$11[rsp], 14
  00810	66 0f 7f 84 24
	00 03 00 00	 movdqa	 XMMWORD PTR $T43[rsp], xmm0
  00819	66 0f 6f 84 24
	c0 01 00 00	 movdqa	 xmm0, XMMWORD PTR xB$23[rsp]
  00822	66 0f 38 00 84
	24 00 03 00 00	 pshufb	 xmm0, XMMWORD PTR $T43[rsp]
  0082c	66 0f 7f 84 24
	10 03 00 00	 movdqa	 XMMWORD PTR $T44[rsp], xmm0
  00835	66 0f 6f 84 24
	00 02 00 00	 movdqa	 xmm0, XMMWORD PTR x1$27[rsp]
  0083e	66 0f eb 84 24
	10 03 00 00	 por	 xmm0, XMMWORD PTR $T44[rsp]
  00847	66 0f 7f 84 24
	20 03 00 00	 movdqa	 XMMWORD PTR $T45[rsp], xmm0
  00850	66 0f 6f 84 24
	20 03 00 00	 movdqa	 xmm0, XMMWORD PTR $T45[rsp]
  00859	66 0f 7f 84 24
	00 02 00 00	 movdqa	 XMMWORD PTR x1$27[rsp], xmm0

; 575  :             x2 = _mm_or_si128(x2, _mm_shuffle_epi8(xB, _mm_alignr_epi8(xmask2, xmask1, 14)));

  00862	66 0f 6f 84 24
	50 01 00 00	 movdqa	 xmm0, XMMWORD PTR xmask2$15[rsp]
  0086b	66 0f 3a 0f 84
	24 30 01 00 00
	0e		 palignr xmm0, XMMWORD PTR xmask1$13[rsp], 14
  00876	66 0f 7f 84 24
	30 03 00 00	 movdqa	 XMMWORD PTR $T46[rsp], xmm0
  0087f	66 0f 6f 84 24
	c0 01 00 00	 movdqa	 xmm0, XMMWORD PTR xB$23[rsp]
  00888	66 0f 38 00 84
	24 30 03 00 00	 pshufb	 xmm0, XMMWORD PTR $T46[rsp]
  00892	66 0f 7f 84 24
	40 03 00 00	 movdqa	 XMMWORD PTR $T47[rsp], xmm0
  0089b	66 0f 6f 84 24
	20 02 00 00	 movdqa	 xmm0, XMMWORD PTR x2$29[rsp]
  008a4	66 0f eb 84 24
	40 03 00 00	 por	 xmm0, XMMWORD PTR $T47[rsp]
  008ad	66 0f 7f 84 24
	50 03 00 00	 movdqa	 XMMWORD PTR $T48[rsp], xmm0
  008b6	66 0f 6f 84 24
	50 03 00 00	 movdqa	 xmm0, XMMWORD PTR $T48[rsp]
  008bf	66 0f 7f 84 24
	20 02 00 00	 movdqa	 XMMWORD PTR x2$29[rsp], xmm0

; 576  :             _mm_storeu_si128((__m128i *)(ptr_dst +  0), x0);

  008c8	48 8b 84 24 00
	01 00 00	 mov	 rax, QWORD PTR ptr_dst$10[rsp]
  008d0	66 0f 6f 84 24
	e0 01 00 00	 movdqa	 xmm0, XMMWORD PTR x0$25[rsp]
  008d9	f3 0f 7f 00	 movdqu	 XMMWORD PTR [rax], xmm0

; 577  :             _mm_storeu_si128((__m128i *)(ptr_dst + 16), x1);

  008dd	48 8b 84 24 00
	01 00 00	 mov	 rax, QWORD PTR ptr_dst$10[rsp]
  008e5	48 83 c0 10	 add	 rax, 16
  008e9	66 0f 6f 84 24
	00 02 00 00	 movdqa	 xmm0, XMMWORD PTR x1$27[rsp]
  008f2	f3 0f 7f 00	 movdqu	 XMMWORD PTR [rax], xmm0

; 578  :             _mm_storeu_si128((__m128i *)(ptr_dst + 32), x2);

  008f6	48 8b 84 24 00
	01 00 00	 mov	 rax, QWORD PTR ptr_dst$10[rsp]
  008fe	48 83 c0 20	 add	 rax, 32			; 00000020H
  00902	66 0f 6f 84 24
	20 02 00 00	 movdqa	 xmm0, XMMWORD PTR x2$29[rsp]
  0090b	f3 0f 7f 00	 movdqu	 XMMWORD PTR [rax], xmm0

; 579  :         }

  0090f	e9 dc fb ff ff	 jmp	 $LN5@convert_rg
$LN6@convert_rg:

; 580  :         if (width & 15) {

  00914	8b 84 24 a0 05
	00 00		 mov	 eax, DWORD PTR width$[rsp]
  0091b	83 e0 0f	 and	 eax, 15
  0091e	85 c0		 test	 eax, eax
  00920	0f 84 94 00 00
	00		 je	 $LN8@convert_rg

; 581  :             int x_offset = (16 - (width & 15));

  00926	8b 84 24 a0 05
	00 00		 mov	 eax, DWORD PTR width$[rsp]
  0092d	83 e0 0f	 and	 eax, 15
  00930	b9 10 00 00 00	 mov	 ecx, 16
  00935	2b c8		 sub	 ecx, eax
  00937	8b c1		 mov	 eax, ecx
  00939	89 84 24 60 03
	00 00		 mov	 DWORD PTR x_offset$49[rsp], eax

; 582  :             ptr_dst -= x_offset * 3;

  00940	6b 84 24 60 03
	00 00 03	 imul	 eax, DWORD PTR x_offset$49[rsp], 3
  00948	48 98		 cdqe
  0094a	48 8b 8c 24 00
	01 00 00	 mov	 rcx, QWORD PTR ptr_dst$10[rsp]
  00952	48 2b c8	 sub	 rcx, rax
  00955	48 8b c1	 mov	 rax, rcx
  00958	48 89 84 24 00
	01 00 00	 mov	 QWORD PTR ptr_dst$10[rsp], rax

; 583  :             ptr_srcR -= x_offset;

  00960	48 63 84 24 60
	03 00 00	 movsxd	 rax, DWORD PTR x_offset$49[rsp]
  00968	48 8b 8c 24 e8
	00 00 00	 mov	 rcx, QWORD PTR ptr_srcR$7[rsp]
  00970	48 2b c8	 sub	 rcx, rax
  00973	48 8b c1	 mov	 rax, rcx
  00976	48 89 84 24 e8
	00 00 00	 mov	 QWORD PTR ptr_srcR$7[rsp], rax

; 584  :             ptr_srcG -= x_offset;

  0097e	48 63 84 24 60
	03 00 00	 movsxd	 rax, DWORD PTR x_offset$49[rsp]
  00986	48 8b 8c 24 f0
	00 00 00	 mov	 rcx, QWORD PTR ptr_srcG$8[rsp]
  0098e	48 2b c8	 sub	 rcx, rax
  00991	48 8b c1	 mov	 rax, rcx
  00994	48 89 84 24 f0
	00 00 00	 mov	 QWORD PTR ptr_srcG$8[rsp], rax

; 585  :             ptr_srcB -= x_offset;

  0099c	48 63 84 24 60
	03 00 00	 movsxd	 rax, DWORD PTR x_offset$49[rsp]
  009a4	48 8b 8c 24 f8
	00 00 00	 mov	 rcx, QWORD PTR ptr_srcB$9[rsp]
  009ac	48 2b c8	 sub	 rcx, rax
  009af	48 8b c1	 mov	 rax, rcx
  009b2	48 89 84 24 f8
	00 00 00	 mov	 QWORD PTR ptr_srcB$9[rsp], rax
$LN8@convert_rg:

; 586  :         }
; 587  :         __m128i xR = _mm_loadu_si128((__m128i *)ptr_srcR);

  009ba	48 8b 84 24 e8
	00 00 00	 mov	 rax, QWORD PTR ptr_srcR$7[rsp]
  009c2	f3 0f 6f 00	 movdqu	 xmm0, XMMWORD PTR [rax]
  009c6	66 0f 7f 84 24
	80 03 00 00	 movdqa	 XMMWORD PTR $T51[rsp], xmm0
  009cf	66 0f 6f 84 24
	80 03 00 00	 movdqa	 xmm0, XMMWORD PTR $T51[rsp]
  009d8	66 0f 7f 84 24
	70 03 00 00	 movdqa	 XMMWORD PTR xR$50[rsp], xmm0

; 588  :         __m128i xG = _mm_loadu_si128((__m128i *)ptr_srcG);

  009e1	48 8b 84 24 f0
	00 00 00	 mov	 rax, QWORD PTR ptr_srcG$8[rsp]
  009e9	f3 0f 6f 00	 movdqu	 xmm0, XMMWORD PTR [rax]
  009ed	66 0f 7f 84 24
	a0 03 00 00	 movdqa	 XMMWORD PTR $T53[rsp], xmm0
  009f6	66 0f 6f 84 24
	a0 03 00 00	 movdqa	 xmm0, XMMWORD PTR $T53[rsp]
  009ff	66 0f 7f 84 24
	90 03 00 00	 movdqa	 XMMWORD PTR xG$52[rsp], xmm0

; 589  :         __m128i xB = _mm_loadu_si128((__m128i *)ptr_srcB);

  00a08	48 8b 84 24 f8
	00 00 00	 mov	 rax, QWORD PTR ptr_srcB$9[rsp]
  00a10	f3 0f 6f 00	 movdqu	 xmm0, XMMWORD PTR [rax]
  00a14	66 0f 7f 84 24
	c0 03 00 00	 movdqa	 XMMWORD PTR $T55[rsp], xmm0
  00a1d	66 0f 6f 84 24
	c0 03 00 00	 movdqa	 xmm0, XMMWORD PTR $T55[rsp]
  00a26	66 0f 7f 84 24
	b0 03 00 00	 movdqa	 XMMWORD PTR xB$54[rsp], xmm0

; 590  :         __m128i x0 = _mm_shuffle_epi8(xR, xmask0);

  00a2f	66 0f 6f 84 24
	70 03 00 00	 movdqa	 xmm0, XMMWORD PTR xR$50[rsp]
  00a38	66 0f 38 00 84
	24 10 01 00 00	 pshufb	 xmm0, XMMWORD PTR xmask0$11[rsp]
  00a42	66 0f 7f 84 24
	e0 03 00 00	 movdqa	 XMMWORD PTR $T57[rsp], xmm0
  00a4b	66 0f 6f 84 24
	e0 03 00 00	 movdqa	 xmm0, XMMWORD PTR $T57[rsp]
  00a54	66 0f 7f 84 24
	d0 03 00 00	 movdqa	 XMMWORD PTR x0$56[rsp], xmm0

; 591  :         __m128i x1 = _mm_shuffle_epi8(xR, xmask1);

  00a5d	66 0f 6f 84 24
	70 03 00 00	 movdqa	 xmm0, XMMWORD PTR xR$50[rsp]
  00a66	66 0f 38 00 84
	24 30 01 00 00	 pshufb	 xmm0, XMMWORD PTR xmask1$13[rsp]
  00a70	66 0f 7f 84 24
	00 04 00 00	 movdqa	 XMMWORD PTR $T59[rsp], xmm0
  00a79	66 0f 6f 84 24
	00 04 00 00	 movdqa	 xmm0, XMMWORD PTR $T59[rsp]
  00a82	66 0f 7f 84 24
	f0 03 00 00	 movdqa	 XMMWORD PTR x1$58[rsp], xmm0

; 592  :         __m128i x2 = _mm_shuffle_epi8(xR, xmask2);

  00a8b	66 0f 6f 84 24
	70 03 00 00	 movdqa	 xmm0, XMMWORD PTR xR$50[rsp]
  00a94	66 0f 38 00 84
	24 50 01 00 00	 pshufb	 xmm0, XMMWORD PTR xmask2$15[rsp]
  00a9e	66 0f 7f 84 24
	20 04 00 00	 movdqa	 XMMWORD PTR $T61[rsp], xmm0
  00aa7	66 0f 6f 84 24
	20 04 00 00	 movdqa	 xmm0, XMMWORD PTR $T61[rsp]
  00ab0	66 0f 7f 84 24
	10 04 00 00	 movdqa	 XMMWORD PTR x2$60[rsp], xmm0

; 593  :         x0 = _mm_or_si128(x0, _mm_shuffle_epi8(xG, _mm_alignr_epi8(xmask0, xmask2, 15)));

  00ab9	66 0f 6f 84 24
	10 01 00 00	 movdqa	 xmm0, XMMWORD PTR xmask0$11[rsp]
  00ac2	66 0f 3a 0f 84
	24 50 01 00 00
	0f		 palignr xmm0, XMMWORD PTR xmask2$15[rsp], 15
  00acd	66 0f 7f 84 24
	30 04 00 00	 movdqa	 XMMWORD PTR $T62[rsp], xmm0
  00ad6	66 0f 6f 84 24
	90 03 00 00	 movdqa	 xmm0, XMMWORD PTR xG$52[rsp]
  00adf	66 0f 38 00 84
	24 30 04 00 00	 pshufb	 xmm0, XMMWORD PTR $T62[rsp]
  00ae9	66 0f 7f 84 24
	40 04 00 00	 movdqa	 XMMWORD PTR $T63[rsp], xmm0
  00af2	66 0f 6f 84 24
	d0 03 00 00	 movdqa	 xmm0, XMMWORD PTR x0$56[rsp]
  00afb	66 0f eb 84 24
	40 04 00 00	 por	 xmm0, XMMWORD PTR $T63[rsp]
  00b04	66 0f 7f 84 24
	50 04 00 00	 movdqa	 XMMWORD PTR $T64[rsp], xmm0
  00b0d	66 0f 6f 84 24
	50 04 00 00	 movdqa	 xmm0, XMMWORD PTR $T64[rsp]
  00b16	66 0f 7f 84 24
	d0 03 00 00	 movdqa	 XMMWORD PTR x0$56[rsp], xmm0

; 594  :         x1 = _mm_or_si128(x1, _mm_shuffle_epi8(xG, _mm_alignr_epi8(xmask1, xmask0, 15)));

  00b1f	66 0f 6f 84 24
	30 01 00 00	 movdqa	 xmm0, XMMWORD PTR xmask1$13[rsp]
  00b28	66 0f 3a 0f 84
	24 10 01 00 00
	0f		 palignr xmm0, XMMWORD PTR xmask0$11[rsp], 15
  00b33	66 0f 7f 84 24
	60 04 00 00	 movdqa	 XMMWORD PTR $T65[rsp], xmm0
  00b3c	66 0f 6f 84 24
	90 03 00 00	 movdqa	 xmm0, XMMWORD PTR xG$52[rsp]
  00b45	66 0f 38 00 84
	24 60 04 00 00	 pshufb	 xmm0, XMMWORD PTR $T65[rsp]
  00b4f	66 0f 7f 84 24
	70 04 00 00	 movdqa	 XMMWORD PTR $T66[rsp], xmm0
  00b58	66 0f 6f 84 24
	f0 03 00 00	 movdqa	 xmm0, XMMWORD PTR x1$58[rsp]
  00b61	66 0f eb 84 24
	70 04 00 00	 por	 xmm0, XMMWORD PTR $T66[rsp]
  00b6a	66 0f 7f 84 24
	80 04 00 00	 movdqa	 XMMWORD PTR $T67[rsp], xmm0
  00b73	66 0f 6f 84 24
	80 04 00 00	 movdqa	 xmm0, XMMWORD PTR $T67[rsp]
  00b7c	66 0f 7f 84 24
	f0 03 00 00	 movdqa	 XMMWORD PTR x1$58[rsp], xmm0

; 595  :         x2 = _mm_or_si128(x2, _mm_shuffle_epi8(xG, _mm_alignr_epi8(xmask2, xmask1, 15)));

  00b85	66 0f 6f 84 24
	50 01 00 00	 movdqa	 xmm0, XMMWORD PTR xmask2$15[rsp]
  00b8e	66 0f 3a 0f 84
	24 30 01 00 00
	0f		 palignr xmm0, XMMWORD PTR xmask1$13[rsp], 15
  00b99	66 0f 7f 84 24
	90 04 00 00	 movdqa	 XMMWORD PTR $T68[rsp], xmm0
  00ba2	66 0f 6f 84 24
	90 03 00 00	 movdqa	 xmm0, XMMWORD PTR xG$52[rsp]
  00bab	66 0f 38 00 84
	24 90 04 00 00	 pshufb	 xmm0, XMMWORD PTR $T68[rsp]
  00bb5	66 0f 7f 84 24
	a0 04 00 00	 movdqa	 XMMWORD PTR $T69[rsp], xmm0
  00bbe	66 0f 6f 84 24
	10 04 00 00	 movdqa	 xmm0, XMMWORD PTR x2$60[rsp]
  00bc7	66 0f eb 84 24
	a0 04 00 00	 por	 xmm0, XMMWORD PTR $T69[rsp]
  00bd0	66 0f 7f 84 24
	b0 04 00 00	 movdqa	 XMMWORD PTR $T70[rsp], xmm0
  00bd9	66 0f 6f 84 24
	b0 04 00 00	 movdqa	 xmm0, XMMWORD PTR $T70[rsp]
  00be2	66 0f 7f 84 24
	10 04 00 00	 movdqa	 XMMWORD PTR x2$60[rsp], xmm0

; 596  :         x0 = _mm_or_si128(x0, _mm_shuffle_epi8(xB, _mm_alignr_epi8(xmask0, xmask2, 14)));

  00beb	66 0f 6f 84 24
	10 01 00 00	 movdqa	 xmm0, XMMWORD PTR xmask0$11[rsp]
  00bf4	66 0f 3a 0f 84
	24 50 01 00 00
	0e		 palignr xmm0, XMMWORD PTR xmask2$15[rsp], 14
  00bff	66 0f 7f 84 24
	c0 04 00 00	 movdqa	 XMMWORD PTR $T71[rsp], xmm0
  00c08	66 0f 6f 84 24
	b0 03 00 00	 movdqa	 xmm0, XMMWORD PTR xB$54[rsp]
  00c11	66 0f 38 00 84
	24 c0 04 00 00	 pshufb	 xmm0, XMMWORD PTR $T71[rsp]
  00c1b	66 0f 7f 84 24
	d0 04 00 00	 movdqa	 XMMWORD PTR $T72[rsp], xmm0
  00c24	66 0f 6f 84 24
	d0 03 00 00	 movdqa	 xmm0, XMMWORD PTR x0$56[rsp]
  00c2d	66 0f eb 84 24
	d0 04 00 00	 por	 xmm0, XMMWORD PTR $T72[rsp]
  00c36	66 0f 7f 84 24
	e0 04 00 00	 movdqa	 XMMWORD PTR $T73[rsp], xmm0
  00c3f	66 0f 6f 84 24
	e0 04 00 00	 movdqa	 xmm0, XMMWORD PTR $T73[rsp]
  00c48	66 0f 7f 84 24
	d0 03 00 00	 movdqa	 XMMWORD PTR x0$56[rsp], xmm0

; 597  :         x1 = _mm_or_si128(x1, _mm_shuffle_epi8(xB, _mm_alignr_epi8(xmask1, xmask0, 14)));

  00c51	66 0f 6f 84 24
	30 01 00 00	 movdqa	 xmm0, XMMWORD PTR xmask1$13[rsp]
  00c5a	66 0f 3a 0f 84
	24 10 01 00 00
	0e		 palignr xmm0, XMMWORD PTR xmask0$11[rsp], 14
  00c65	66 0f 7f 84 24
	f0 04 00 00	 movdqa	 XMMWORD PTR $T74[rsp], xmm0
  00c6e	66 0f 6f 84 24
	b0 03 00 00	 movdqa	 xmm0, XMMWORD PTR xB$54[rsp]
  00c77	66 0f 38 00 84
	24 f0 04 00 00	 pshufb	 xmm0, XMMWORD PTR $T74[rsp]
  00c81	66 0f 7f 84 24
	00 05 00 00	 movdqa	 XMMWORD PTR $T75[rsp], xmm0
  00c8a	66 0f 6f 84 24
	f0 03 00 00	 movdqa	 xmm0, XMMWORD PTR x1$58[rsp]
  00c93	66 0f eb 84 24
	00 05 00 00	 por	 xmm0, XMMWORD PTR $T75[rsp]
  00c9c	66 0f 7f 84 24
	10 05 00 00	 movdqa	 XMMWORD PTR $T76[rsp], xmm0
  00ca5	66 0f 6f 84 24
	10 05 00 00	 movdqa	 xmm0, XMMWORD PTR $T76[rsp]
  00cae	66 0f 7f 84 24
	f0 03 00 00	 movdqa	 XMMWORD PTR x1$58[rsp], xmm0

; 598  :         x2 = _mm_or_si128(x2, _mm_shuffle_epi8(xB, _mm_alignr_epi8(xmask2, xmask1, 14)));

  00cb7	66 0f 6f 84 24
	50 01 00 00	 movdqa	 xmm0, XMMWORD PTR xmask2$15[rsp]
  00cc0	66 0f 3a 0f 84
	24 30 01 00 00
	0e		 palignr xmm0, XMMWORD PTR xmask1$13[rsp], 14
  00ccb	66 0f 7f 84 24
	20 05 00 00	 movdqa	 XMMWORD PTR $T77[rsp], xmm0
  00cd4	66 0f 6f 84 24
	b0 03 00 00	 movdqa	 xmm0, XMMWORD PTR xB$54[rsp]
  00cdd	66 0f 38 00 84
	24 20 05 00 00	 pshufb	 xmm0, XMMWORD PTR $T77[rsp]
  00ce7	66 0f 7f 84 24
	30 05 00 00	 movdqa	 XMMWORD PTR $T78[rsp], xmm0
  00cf0	66 0f 6f 84 24
	10 04 00 00	 movdqa	 xmm0, XMMWORD PTR x2$60[rsp]
  00cf9	66 0f eb 84 24
	30 05 00 00	 por	 xmm0, XMMWORD PTR $T78[rsp]
  00d02	66 0f 7f 84 24
	40 05 00 00	 movdqa	 XMMWORD PTR $T79[rsp], xmm0
  00d0b	66 0f 6f 84 24
	40 05 00 00	 movdqa	 xmm0, XMMWORD PTR $T79[rsp]
  00d14	66 0f 7f 84 24
	10 04 00 00	 movdqa	 XMMWORD PTR x2$60[rsp], xmm0

; 599  :         _mm_storeu_si128((__m128i *)(ptr_dst +  0), x0);

  00d1d	48 8b 84 24 00
	01 00 00	 mov	 rax, QWORD PTR ptr_dst$10[rsp]
  00d25	66 0f 6f 84 24
	d0 03 00 00	 movdqa	 xmm0, XMMWORD PTR x0$56[rsp]
  00d2e	f3 0f 7f 00	 movdqu	 XMMWORD PTR [rax], xmm0

; 600  :         _mm_storeu_si128((__m128i *)(ptr_dst + 16), x1);

  00d32	48 8b 84 24 00
	01 00 00	 mov	 rax, QWORD PTR ptr_dst$10[rsp]
  00d3a	48 83 c0 10	 add	 rax, 16
  00d3e	66 0f 6f 84 24
	f0 03 00 00	 movdqa	 xmm0, XMMWORD PTR x1$58[rsp]
  00d47	f3 0f 7f 00	 movdqu	 XMMWORD PTR [rax], xmm0

; 601  :         _mm_storeu_si128((__m128i *)(ptr_dst + 32), x2);

  00d4b	48 8b 84 24 00
	01 00 00	 mov	 rax, QWORD PTR ptr_dst$10[rsp]
  00d53	48 83 c0 20	 add	 rax, 32			; 00000020H
  00d57	66 0f 6f 84 24
	10 04 00 00	 movdqa	 xmm0, XMMWORD PTR x2$60[rsp]
  00d60	f3 0f 7f 00	 movdqu	 XMMWORD PTR [rax], xmm0

; 602  :     }

  00d64	e9 fd f5 ff ff	 jmp	 $LN2@convert_rg
$LN3@convert_rg:

; 603  : }

  00d69	48 8b cc	 mov	 rcx, rsp
  00d6c	48 8d 15 00 00
	00 00		 lea	 rdx, OFFSET FLAT:??$convert_rgb_to_rgb24_simd@$0PPACAAAB@@@YAXPEAPEAXPEAPEBXHHHHHHHHPEAH@Z$rtcFrameData
  00d73	e8 00 00 00 00	 call	 _RTC_CheckStackVars
  00d78	48 8b 8c 24 68
	05 00 00	 mov	 rcx, QWORD PTR __$ArrayPad$[rsp]
  00d80	48 33 cc	 xor	 rcx, rsp
  00d83	e8 00 00 00 00	 call	 __security_check_cookie
  00d88	48 81 c4 78 05
	00 00		 add	 rsp, 1400		; 00000578H
  00d8f	5f		 pop	 rdi
  00d90	5e		 pop	 rsi
  00d91	c3		 ret	 0
??$convert_rgb_to_rgb24_simd@$0PPACAAAB@@@YAXPEAPEAXPEAPEBXHHHHHHHHPEAH@Z ENDP ; convert_rgb_to_rgb24_simd<4278321153>
_TEXT	ENDS
; Function compile flags: /Odtp /RTCsu
; File D:\work\intel\intel_codec\QSVPipeline\convert_csp_ssse3.cpp
_TEXT	SEGMENT
dst$ = 112
src$ = 120
width$ = 128
src_y_pitch_byte$ = 136
src_uv_pitch_byte$ = 144
dst_y_pitch_byte$ = 152
height$ = 160
dst_height$ = 168
thread_id$ = 176
thread_n$ = 184
crop$ = 192
?convert_gbr_to_rgb24_ssse3@@YAXPEAPEAXPEAPEBXHHHHHHHHPEAH@Z PROC ; convert_gbr_to_rgb24_ssse3

; 66   : void convert_gbr_to_rgb24_ssse3(void **dst, const void **src, int width, int src_y_pitch_byte, int src_uv_pitch_byte, int dst_y_pitch_byte, int height, int dst_height, int thread_id, int thread_n, int *crop) {

$LN3:
  00000	44 89 4c 24 20	 mov	 DWORD PTR [rsp+32], r9d
  00005	44 89 44 24 18	 mov	 DWORD PTR [rsp+24], r8d
  0000a	48 89 54 24 10	 mov	 QWORD PTR [rsp+16], rdx
  0000f	48 89 4c 24 08	 mov	 QWORD PTR [rsp+8], rcx
  00014	57		 push	 rdi
  00015	48 83 ec 60	 sub	 rsp, 96			; 00000060H
  00019	48 8b fc	 mov	 rdi, rsp
  0001c	b9 18 00 00 00	 mov	 ecx, 24
  00021	b8 cc cc cc cc	 mov	 eax, -858993460		; ccccccccH
  00026	f3 ab		 rep stosd
  00028	48 8b 4c 24 70	 mov	 rcx, QWORD PTR [rsp+112]

; 67   :     convert_rgb_to_rgb24_simd<RGB_PLANE(1, 0, 2, -1)>(dst, src, width, src_y_pitch_byte, src_uv_pitch_byte, dst_y_pitch_byte, height, dst_height, thread_id, thread_n, crop);

  0002d	48 8b 84 24 c0
	00 00 00	 mov	 rax, QWORD PTR crop$[rsp]
  00035	48 89 44 24 50	 mov	 QWORD PTR [rsp+80], rax
  0003a	8b 84 24 b8 00
	00 00		 mov	 eax, DWORD PTR thread_n$[rsp]
  00041	89 44 24 48	 mov	 DWORD PTR [rsp+72], eax
  00045	8b 84 24 b0 00
	00 00		 mov	 eax, DWORD PTR thread_id$[rsp]
  0004c	89 44 24 40	 mov	 DWORD PTR [rsp+64], eax
  00050	8b 84 24 a8 00
	00 00		 mov	 eax, DWORD PTR dst_height$[rsp]
  00057	89 44 24 38	 mov	 DWORD PTR [rsp+56], eax
  0005b	8b 84 24 a0 00
	00 00		 mov	 eax, DWORD PTR height$[rsp]
  00062	89 44 24 30	 mov	 DWORD PTR [rsp+48], eax
  00066	8b 84 24 98 00
	00 00		 mov	 eax, DWORD PTR dst_y_pitch_byte$[rsp]
  0006d	89 44 24 28	 mov	 DWORD PTR [rsp+40], eax
  00071	8b 84 24 90 00
	00 00		 mov	 eax, DWORD PTR src_uv_pitch_byte$[rsp]
  00078	89 44 24 20	 mov	 DWORD PTR [rsp+32], eax
  0007c	44 8b 8c 24 88
	00 00 00	 mov	 r9d, DWORD PTR src_y_pitch_byte$[rsp]
  00084	44 8b 84 24 80
	00 00 00	 mov	 r8d, DWORD PTR width$[rsp]
  0008c	48 8b 54 24 78	 mov	 rdx, QWORD PTR src$[rsp]
  00091	48 8b 4c 24 70	 mov	 rcx, QWORD PTR dst$[rsp]
  00096	e8 00 00 00 00	 call	 ??$convert_rgb_to_rgb24_simd@$0PPACAAAB@@@YAXPEAPEAXPEAPEBXHHHHHHHHPEAH@Z ; convert_rgb_to_rgb24_simd<4278321153>

; 68   : }

  0009b	48 83 c4 60	 add	 rsp, 96			; 00000060H
  0009f	5f		 pop	 rdi
  000a0	c3		 ret	 0
?convert_gbr_to_rgb24_ssse3@@YAXPEAPEAXPEAPEBXHHHHHHHHPEAH@Z ENDP ; convert_gbr_to_rgb24_ssse3
_TEXT	ENDS
; Function compile flags: /Odtp /RTCsu
; File D:\work\intel\intel_codec\QSVPipeline\convert_csp_ssse3.cpp
_TEXT	SEGMENT
dst$ = 112
src$ = 120
width$ = 128
src_y_pitch_byte$ = 136
src_uv_pitch_byte$ = 144
dst_y_pitch_byte$ = 152
height$ = 160
dst_height$ = 168
thread_id$ = 176
thread_n$ = 184
crop$ = 192
?convert_rgb24r_to_rgb32_ssse3@@YAXPEAPEAXPEAPEBXHHHHHHHHPEAH@Z PROC ; convert_rgb24r_to_rgb32_ssse3

; 62   : void convert_rgb24r_to_rgb32_ssse3(void **dst, const void **src, int width, int src_y_pitch_byte, int src_uv_pitch_byte, int dst_y_pitch_byte, int height, int dst_height, int thread_id, int thread_n, int *crop) {

$LN3:
  00000	44 89 4c 24 20	 mov	 DWORD PTR [rsp+32], r9d
  00005	44 89 44 24 18	 mov	 DWORD PTR [rsp+24], r8d
  0000a	48 89 54 24 10	 mov	 QWORD PTR [rsp+16], rdx
  0000f	48 89 4c 24 08	 mov	 QWORD PTR [rsp+8], rcx
  00014	57		 push	 rdi
  00015	48 83 ec 60	 sub	 rsp, 96			; 00000060H
  00019	48 8b fc	 mov	 rdi, rsp
  0001c	b9 18 00 00 00	 mov	 ecx, 24
  00021	b8 cc cc cc cc	 mov	 eax, -858993460		; ccccccccH
  00026	f3 ab		 rep stosd
  00028	48 8b 4c 24 70	 mov	 rcx, QWORD PTR [rsp+112]

; 63   :     convert_rgb24r_to_rgb32_simd(dst, src, width, src_y_pitch_byte, src_uv_pitch_byte, dst_y_pitch_byte, height, dst_height, thread_id, thread_n, crop);

  0002d	48 8b 84 24 c0
	00 00 00	 mov	 rax, QWORD PTR crop$[rsp]
  00035	48 89 44 24 50	 mov	 QWORD PTR [rsp+80], rax
  0003a	8b 84 24 b8 00
	00 00		 mov	 eax, DWORD PTR thread_n$[rsp]
  00041	89 44 24 48	 mov	 DWORD PTR [rsp+72], eax
  00045	8b 84 24 b0 00
	00 00		 mov	 eax, DWORD PTR thread_id$[rsp]
  0004c	89 44 24 40	 mov	 DWORD PTR [rsp+64], eax
  00050	8b 84 24 a8 00
	00 00		 mov	 eax, DWORD PTR dst_height$[rsp]
  00057	89 44 24 38	 mov	 DWORD PTR [rsp+56], eax
  0005b	8b 84 24 a0 00
	00 00		 mov	 eax, DWORD PTR height$[rsp]
  00062	89 44 24 30	 mov	 DWORD PTR [rsp+48], eax
  00066	8b 84 24 98 00
	00 00		 mov	 eax, DWORD PTR dst_y_pitch_byte$[rsp]
  0006d	89 44 24 28	 mov	 DWORD PTR [rsp+40], eax
  00071	8b 84 24 90 00
	00 00		 mov	 eax, DWORD PTR src_uv_pitch_byte$[rsp]
  00078	89 44 24 20	 mov	 DWORD PTR [rsp+32], eax
  0007c	44 8b 8c 24 88
	00 00 00	 mov	 r9d, DWORD PTR src_y_pitch_byte$[rsp]
  00084	44 8b 84 24 80
	00 00 00	 mov	 r8d, DWORD PTR width$[rsp]
  0008c	48 8b 54 24 78	 mov	 rdx, QWORD PTR src$[rsp]
  00091	48 8b 4c 24 70	 mov	 rcx, QWORD PTR dst$[rsp]
  00096	e8 00 00 00 00	 call	 ?convert_rgb24r_to_rgb32_simd@@YAXPEAPEAXPEAPEBXHHHHHHHHPEAH@Z ; convert_rgb24r_to_rgb32_simd

; 64   : }

  0009b	48 83 c4 60	 add	 rsp, 96			; 00000060H
  0009f	5f		 pop	 rdi
  000a0	c3		 ret	 0
?convert_rgb24r_to_rgb32_ssse3@@YAXPEAPEAXPEAPEBXHHHHHHHHPEAH@Z ENDP ; convert_rgb24r_to_rgb32_ssse3
_TEXT	ENDS
; Function compile flags: /Odtp /RTCsu
; File D:\work\intel\intel_codec\QSVPipeline\convert_csp_ssse3.cpp
_TEXT	SEGMENT
dst$ = 112
src$ = 120
width$ = 128
src_y_pitch_byte$ = 136
src_uv_pitch_byte$ = 144
dst_y_pitch_byte$ = 152
height$ = 160
dst_height$ = 168
thread_id$ = 176
thread_n$ = 184
crop$ = 192
?convert_rgb24_to_rgb32_ssse3@@YAXPEAPEAXPEAPEBXHHHHHHHHPEAH@Z PROC ; convert_rgb24_to_rgb32_ssse3

; 58   : void convert_rgb24_to_rgb32_ssse3(void **dst, const void **src, int width, int src_y_pitch_byte, int src_uv_pitch_byte, int dst_y_pitch_byte, int height, int dst_height, int thread_id, int thread_n, int *crop) {

$LN3:
  00000	44 89 4c 24 20	 mov	 DWORD PTR [rsp+32], r9d
  00005	44 89 44 24 18	 mov	 DWORD PTR [rsp+24], r8d
  0000a	48 89 54 24 10	 mov	 QWORD PTR [rsp+16], rdx
  0000f	48 89 4c 24 08	 mov	 QWORD PTR [rsp+8], rcx
  00014	57		 push	 rdi
  00015	48 83 ec 60	 sub	 rsp, 96			; 00000060H
  00019	48 8b fc	 mov	 rdi, rsp
  0001c	b9 18 00 00 00	 mov	 ecx, 24
  00021	b8 cc cc cc cc	 mov	 eax, -858993460		; ccccccccH
  00026	f3 ab		 rep stosd
  00028	48 8b 4c 24 70	 mov	 rcx, QWORD PTR [rsp+112]

; 59   :     convert_rgb24_to_rgb32_simd(dst, src, width, src_y_pitch_byte, src_uv_pitch_byte, dst_y_pitch_byte, height, dst_height, thread_id, thread_n, crop);

  0002d	48 8b 84 24 c0
	00 00 00	 mov	 rax, QWORD PTR crop$[rsp]
  00035	48 89 44 24 50	 mov	 QWORD PTR [rsp+80], rax
  0003a	8b 84 24 b8 00
	00 00		 mov	 eax, DWORD PTR thread_n$[rsp]
  00041	89 44 24 48	 mov	 DWORD PTR [rsp+72], eax
  00045	8b 84 24 b0 00
	00 00		 mov	 eax, DWORD PTR thread_id$[rsp]
  0004c	89 44 24 40	 mov	 DWORD PTR [rsp+64], eax
  00050	8b 84 24 a8 00
	00 00		 mov	 eax, DWORD PTR dst_height$[rsp]
  00057	89 44 24 38	 mov	 DWORD PTR [rsp+56], eax
  0005b	8b 84 24 a0 00
	00 00		 mov	 eax, DWORD PTR height$[rsp]
  00062	89 44 24 30	 mov	 DWORD PTR [rsp+48], eax
  00066	8b 84 24 98 00
	00 00		 mov	 eax, DWORD PTR dst_y_pitch_byte$[rsp]
  0006d	89 44 24 28	 mov	 DWORD PTR [rsp+40], eax
  00071	8b 84 24 90 00
	00 00		 mov	 eax, DWORD PTR src_uv_pitch_byte$[rsp]
  00078	89 44 24 20	 mov	 DWORD PTR [rsp+32], eax
  0007c	44 8b 8c 24 88
	00 00 00	 mov	 r9d, DWORD PTR src_y_pitch_byte$[rsp]
  00084	44 8b 84 24 80
	00 00 00	 mov	 r8d, DWORD PTR width$[rsp]
  0008c	48 8b 54 24 78	 mov	 rdx, QWORD PTR src$[rsp]
  00091	48 8b 4c 24 70	 mov	 rcx, QWORD PTR dst$[rsp]
  00096	e8 00 00 00 00	 call	 ?convert_rgb24_to_rgb32_simd@@YAXPEAPEAXPEAPEBXHHHHHHHHPEAH@Z ; convert_rgb24_to_rgb32_simd

; 60   : }

  0009b	48 83 c4 60	 add	 rsp, 96			; 00000060H
  0009f	5f		 pop	 rdi
  000a0	c3		 ret	 0
?convert_rgb24_to_rgb32_ssse3@@YAXPEAPEAXPEAPEBXHHHHHHHHPEAH@Z ENDP ; convert_rgb24_to_rgb32_ssse3
_TEXT	ENDS
; Function compile flags: /Odtp /RTCsu
; File D:\work\intel\intel_codec\QSVPipeline\convert_csp_simd.h
;	COMDAT ??$convert_rgb32_to_rgb32_simd@$0BP@@@YAXPEAPEAXPEAPEBXHHHHHHHHPEAH@Z
_TEXT	SEGMENT
crop_left$ = 48
crop_up$ = 52
crop_right$ = 56
crop_bottom$ = 60
y_range$ = 72
$T6 = 104
srcLine$ = 120
dstLine$ = 128
x_width$ = 136
y$7 = 140
MASK_BGR4_TO_RGB4$8 = 160
MASK_GBR4_TO_RGB4$9 = 208
mask$10 = 232
y$11 = 240
ptr_dst$12 = 248
ptr_src$13 = 256
x$14 = 264
src0$15 = 272
$T16 = 288
x0$17 = 304
$T18 = 320
$T19 = 336
x_offest$20 = 352
src0$21 = 368
$T22 = 384
x0$23 = 400
$T24 = 416
$T25 = 432
$T26 = 456
tv138 = 472
__$ArrayPad$ = 480
dst$ = 528
src$ = 536
width$ = 544
src_y_pitch_byte$ = 552
src_uv_pitch_byte$ = 560
dst_y_pitch_byte$ = 568
height$ = 576
dst_height$ = 584
thread_id$ = 592
thread_n$ = 600
crop$ = 608
??$convert_rgb32_to_rgb32_simd@$0BP@@@YAXPEAPEAXPEAPEBXHHHHHHHHPEAH@Z PROC ; convert_rgb32_to_rgb32_simd<31>, COMDAT

; 829  : void convert_rgb32_to_rgb32_simd(void **dst, const void **src, int width, int src_y_pitch_byte, int src_uv_pitch_byte, int dst_y_pitch_byte, int height, int dst_height, int thread_id, int thread_n, int *crop) {

$LN18:
  00000	44 89 4c 24 20	 mov	 DWORD PTR [rsp+32], r9d
  00005	44 89 44 24 18	 mov	 DWORD PTR [rsp+24], r8d
  0000a	48 89 54 24 10	 mov	 QWORD PTR [rsp+16], rdx
  0000f	48 89 4c 24 08	 mov	 QWORD PTR [rsp+8], rcx
  00014	56		 push	 rsi
  00015	57		 push	 rdi
  00016	48 81 ec f8 01
	00 00		 sub	 rsp, 504		; 000001f8H
  0001d	48 8b fc	 mov	 rdi, rsp
  00020	b9 7e 00 00 00	 mov	 ecx, 126		; 0000007eH
  00025	b8 cc cc cc cc	 mov	 eax, -858993460		; ccccccccH
  0002a	f3 ab		 rep stosd
  0002c	48 8b 8c 24 10
	02 00 00	 mov	 rcx, QWORD PTR [rsp+528]
  00034	48 8b 05 00 00
	00 00		 mov	 rax, QWORD PTR __security_cookie
  0003b	48 33 c4	 xor	 rax, rsp
  0003e	48 89 84 24 e0
	01 00 00	 mov	 QWORD PTR __$ArrayPad$[rsp], rax

; 830  :     const int crop_left   = crop[0];

  00046	b8 04 00 00 00	 mov	 eax, 4
  0004b	48 6b c0 00	 imul	 rax, rax, 0
  0004f	48 8b 8c 24 60
	02 00 00	 mov	 rcx, QWORD PTR crop$[rsp]
  00057	8b 04 01	 mov	 eax, DWORD PTR [rcx+rax]
  0005a	89 44 24 30	 mov	 DWORD PTR crop_left$[rsp], eax

; 831  :     const int crop_up     = crop[1];

  0005e	b8 04 00 00 00	 mov	 eax, 4
  00063	48 6b c0 01	 imul	 rax, rax, 1
  00067	48 8b 8c 24 60
	02 00 00	 mov	 rcx, QWORD PTR crop$[rsp]
  0006f	8b 04 01	 mov	 eax, DWORD PTR [rcx+rax]
  00072	89 44 24 34	 mov	 DWORD PTR crop_up$[rsp], eax

; 832  :     const int crop_right  = crop[2];

  00076	b8 04 00 00 00	 mov	 eax, 4
  0007b	48 6b c0 02	 imul	 rax, rax, 2
  0007f	48 8b 8c 24 60
	02 00 00	 mov	 rcx, QWORD PTR crop$[rsp]
  00087	8b 04 01	 mov	 eax, DWORD PTR [rcx+rax]
  0008a	89 44 24 38	 mov	 DWORD PTR crop_right$[rsp], eax

; 833  :     const int crop_bottom = crop[3];

  0008e	b8 04 00 00 00	 mov	 eax, 4
  00093	48 6b c0 03	 imul	 rax, rax, 3
  00097	48 8b 8c 24 60
	02 00 00	 mov	 rcx, QWORD PTR crop$[rsp]
  0009f	8b 04 01	 mov	 eax, DWORD PTR [rcx+rax]
  000a2	89 44 24 3c	 mov	 DWORD PTR crop_bottom$[rsp], eax

; 834  :     const auto y_range = thread_y_range(crop_up, height - crop_bottom, thread_id, thread_n);

  000a6	8b 44 24 3c	 mov	 eax, DWORD PTR crop_bottom$[rsp]
  000aa	8b 8c 24 40 02
	00 00		 mov	 ecx, DWORD PTR height$[rsp]
  000b1	2b c8		 sub	 ecx, eax
  000b3	8b c1		 mov	 eax, ecx
  000b5	8b 8c 24 58 02
	00 00		 mov	 ecx, DWORD PTR thread_n$[rsp]
  000bc	89 4c 24 20	 mov	 DWORD PTR [rsp+32], ecx
  000c0	44 8b 8c 24 50
	02 00 00	 mov	 r9d, DWORD PTR thread_id$[rsp]
  000c8	44 8b c0	 mov	 r8d, eax
  000cb	8b 54 24 34	 mov	 edx, DWORD PTR crop_up$[rsp]
  000cf	48 8d 8c 24 c8
	01 00 00	 lea	 rcx, QWORD PTR $T26[rsp]
  000d7	e8 00 00 00 00	 call	 ?thread_y_range@@YA?AUTHREAD_Y_RANGE@@HHHH@Z ; thread_y_range
  000dc	48 8d 4c 24 68	 lea	 rcx, QWORD PTR $T6[rsp]
  000e1	48 8b f9	 mov	 rdi, rcx
  000e4	48 8b f0	 mov	 rsi, rax
  000e7	b9 0c 00 00 00	 mov	 ecx, 12
  000ec	f3 a4		 rep movsb
  000ee	48 8d 44 24 48	 lea	 rax, QWORD PTR y_range$[rsp]
  000f3	48 8d 4c 24 68	 lea	 rcx, QWORD PTR $T6[rsp]
  000f8	48 8b f8	 mov	 rdi, rax
  000fb	48 8b f1	 mov	 rsi, rcx
  000fe	b9 0c 00 00 00	 mov	 ecx, 12
  00103	f3 a4		 rep movsb

; 835  :     uint8_t *srcLine = (uint8_t *)src[0] + src_y_pitch_byte * y_range.start_src + crop_left * 4;

  00105	b8 08 00 00 00	 mov	 eax, 8
  0010a	48 6b c0 00	 imul	 rax, rax, 0
  0010e	8b 8c 24 28 02
	00 00		 mov	 ecx, DWORD PTR src_y_pitch_byte$[rsp]
  00115	0f af 4c 24 48	 imul	 ecx, DWORD PTR y_range$[rsp]
  0011a	48 63 c9	 movsxd	 rcx, ecx
  0011d	48 8b 94 24 18
	02 00 00	 mov	 rdx, QWORD PTR src$[rsp]
  00125	48 8b 04 02	 mov	 rax, QWORD PTR [rdx+rax]
  00129	48 03 c1	 add	 rax, rcx
  0012c	8b 4c 24 30	 mov	 ecx, DWORD PTR crop_left$[rsp]
  00130	c1 e1 02	 shl	 ecx, 2
  00133	48 63 c9	 movsxd	 rcx, ecx
  00136	48 03 c1	 add	 rax, rcx
  00139	48 89 44 24 78	 mov	 QWORD PTR srcLine$[rsp], rax

; 836  :     uint8_t *dstLine = (uint8_t *)dst[0] + dst_y_pitch_byte * y_range.start_dst;

  0013e	b8 08 00 00 00	 mov	 eax, 8
  00143	48 6b c0 00	 imul	 rax, rax, 0
  00147	8b 8c 24 38 02
	00 00		 mov	 ecx, DWORD PTR dst_y_pitch_byte$[rsp]
  0014e	0f af 4c 24 4c	 imul	 ecx, DWORD PTR y_range$[rsp+4]
  00153	48 63 c9	 movsxd	 rcx, ecx
  00156	48 8b 94 24 10
	02 00 00	 mov	 rdx, QWORD PTR dst$[rsp]
  0015e	48 03 0c 02	 add	 rcx, QWORD PTR [rdx+rax]
  00162	48 8b c1	 mov	 rax, rcx
  00165	48 89 84 24 80
	00 00 00	 mov	 QWORD PTR dstLine$[rsp], rax

; 837  :     const int x_width = width - crop_right - crop_left;

  0016d	8b 44 24 38	 mov	 eax, DWORD PTR crop_right$[rsp]
  00171	8b 8c 24 20 02
	00 00		 mov	 ecx, DWORD PTR width$[rsp]
  00178	2b c8		 sub	 ecx, eax
  0017a	8b c1		 mov	 eax, ecx
  0017c	2b 44 24 30	 sub	 eax, DWORD PTR crop_left$[rsp]
  00180	89 84 24 88 00
	00 00		 mov	 DWORD PTR x_width$[rsp], eax

; 838  :     if (csp_from == RGY_CSP_RGB24) {

  00187	33 c0		 xor	 eax, eax
  00189	85 c0		 test	 eax, eax
  0018b	0f 84 86 00 00
	00		 je	 $LN13@convert_rg

; 839  :     for (int y = 0; y < y_range.len; y++, dstLine += dst_y_pitch_byte, srcLine += src_y_pitch_byte) {

  00191	c7 84 24 8c 00
	00 00 00 00 00
	00		 mov	 DWORD PTR y$7[rsp], 0
  0019c	eb 46		 jmp	 SHORT $LN4@convert_rg
$LN2@convert_rg:
  0019e	8b 84 24 8c 00
	00 00		 mov	 eax, DWORD PTR y$7[rsp]
  001a5	ff c0		 inc	 eax
  001a7	89 84 24 8c 00
	00 00		 mov	 DWORD PTR y$7[rsp], eax
  001ae	48 63 84 24 38
	02 00 00	 movsxd	 rax, DWORD PTR dst_y_pitch_byte$[rsp]
  001b6	48 8b 8c 24 80
	00 00 00	 mov	 rcx, QWORD PTR dstLine$[rsp]
  001be	48 03 c8	 add	 rcx, rax
  001c1	48 8b c1	 mov	 rax, rcx
  001c4	48 89 84 24 80
	00 00 00	 mov	 QWORD PTR dstLine$[rsp], rax
  001cc	48 63 84 24 28
	02 00 00	 movsxd	 rax, DWORD PTR src_y_pitch_byte$[rsp]
  001d4	48 8b 4c 24 78	 mov	 rcx, QWORD PTR srcLine$[rsp]
  001d9	48 03 c8	 add	 rcx, rax
  001dc	48 8b c1	 mov	 rax, rcx
  001df	48 89 44 24 78	 mov	 QWORD PTR srcLine$[rsp], rax
$LN4@convert_rg:
  001e4	8b 44 24 50	 mov	 eax, DWORD PTR y_range$[rsp+8]
  001e8	39 84 24 8c 00
	00 00		 cmp	 DWORD PTR y$7[rsp], eax
  001ef	7d 21		 jge	 SHORT $LN3@convert_rg

; 840  :         memcpy_sse(dstLine, srcLine, x_width * 4);

  001f1	8b 84 24 88 00
	00 00		 mov	 eax, DWORD PTR x_width$[rsp]
  001f8	c1 e0 02	 shl	 eax, 2
  001fb	44 8b c0	 mov	 r8d, eax
  001fe	48 8b 54 24 78	 mov	 rdx, QWORD PTR srcLine$[rsp]
  00203	48 8b 8c 24 80
	00 00 00	 mov	 rcx, QWORD PTR dstLine$[rsp]
  0020b	e8 00 00 00 00	 call	 ?memcpy_sse@@YAXPEAEPEBEH@Z ; memcpy_sse

; 841  :     }

  00210	eb 8c		 jmp	 SHORT $LN2@convert_rg
$LN3@convert_rg:

; 842  :     } else {

  00212	e9 89 03 00 00	 jmp	 $LN14@convert_rg
$LN13@convert_rg:

; 843  : #if USE_SSSE3
; 844  :         static_assert(csp_from == RGY_CSP_BGR32 || csp_from == RGY_CSP_RGB32, "invalid csp");
; 845  :         alignas(16) const char MASK_BGR4_TO_RGB4[] = { 2, 1, 0, 3, 6, 5, 4, 7, 10, 9, 8, 11, 14, 13, 12, 15 };

  00217	c6 84 24 a0 00
	00 00 02	 mov	 BYTE PTR MASK_BGR4_TO_RGB4$8[rsp], 2
  0021f	c6 84 24 a1 00
	00 00 01	 mov	 BYTE PTR MASK_BGR4_TO_RGB4$8[rsp+1], 1
  00227	c6 84 24 a2 00
	00 00 00	 mov	 BYTE PTR MASK_BGR4_TO_RGB4$8[rsp+2], 0
  0022f	c6 84 24 a3 00
	00 00 03	 mov	 BYTE PTR MASK_BGR4_TO_RGB4$8[rsp+3], 3
  00237	c6 84 24 a4 00
	00 00 06	 mov	 BYTE PTR MASK_BGR4_TO_RGB4$8[rsp+4], 6
  0023f	c6 84 24 a5 00
	00 00 05	 mov	 BYTE PTR MASK_BGR4_TO_RGB4$8[rsp+5], 5
  00247	c6 84 24 a6 00
	00 00 04	 mov	 BYTE PTR MASK_BGR4_TO_RGB4$8[rsp+6], 4
  0024f	c6 84 24 a7 00
	00 00 07	 mov	 BYTE PTR MASK_BGR4_TO_RGB4$8[rsp+7], 7
  00257	c6 84 24 a8 00
	00 00 0a	 mov	 BYTE PTR MASK_BGR4_TO_RGB4$8[rsp+8], 10
  0025f	c6 84 24 a9 00
	00 00 09	 mov	 BYTE PTR MASK_BGR4_TO_RGB4$8[rsp+9], 9
  00267	c6 84 24 aa 00
	00 00 08	 mov	 BYTE PTR MASK_BGR4_TO_RGB4$8[rsp+10], 8
  0026f	c6 84 24 ab 00
	00 00 0b	 mov	 BYTE PTR MASK_BGR4_TO_RGB4$8[rsp+11], 11
  00277	c6 84 24 ac 00
	00 00 0e	 mov	 BYTE PTR MASK_BGR4_TO_RGB4$8[rsp+12], 14
  0027f	c6 84 24 ad 00
	00 00 0d	 mov	 BYTE PTR MASK_BGR4_TO_RGB4$8[rsp+13], 13
  00287	c6 84 24 ae 00
	00 00 0c	 mov	 BYTE PTR MASK_BGR4_TO_RGB4$8[rsp+14], 12
  0028f	c6 84 24 af 00
	00 00 0f	 mov	 BYTE PTR MASK_BGR4_TO_RGB4$8[rsp+15], 15

; 846  :         alignas(16) const char MASK_GBR4_TO_RGB4[] = { 2, 0, 1, 3, 6, 4, 5, 7, 10, 8, 9, 11, 14, 12, 13, 15 };

  00297	c6 84 24 d0 00
	00 00 02	 mov	 BYTE PTR MASK_GBR4_TO_RGB4$9[rsp], 2
  0029f	c6 84 24 d1 00
	00 00 00	 mov	 BYTE PTR MASK_GBR4_TO_RGB4$9[rsp+1], 0
  002a7	c6 84 24 d2 00
	00 00 01	 mov	 BYTE PTR MASK_GBR4_TO_RGB4$9[rsp+2], 1
  002af	c6 84 24 d3 00
	00 00 03	 mov	 BYTE PTR MASK_GBR4_TO_RGB4$9[rsp+3], 3
  002b7	c6 84 24 d4 00
	00 00 06	 mov	 BYTE PTR MASK_GBR4_TO_RGB4$9[rsp+4], 6
  002bf	c6 84 24 d5 00
	00 00 04	 mov	 BYTE PTR MASK_GBR4_TO_RGB4$9[rsp+5], 4
  002c7	c6 84 24 d6 00
	00 00 05	 mov	 BYTE PTR MASK_GBR4_TO_RGB4$9[rsp+6], 5
  002cf	c6 84 24 d7 00
	00 00 07	 mov	 BYTE PTR MASK_GBR4_TO_RGB4$9[rsp+7], 7
  002d7	c6 84 24 d8 00
	00 00 0a	 mov	 BYTE PTR MASK_GBR4_TO_RGB4$9[rsp+8], 10
  002df	c6 84 24 d9 00
	00 00 08	 mov	 BYTE PTR MASK_GBR4_TO_RGB4$9[rsp+9], 8
  002e7	c6 84 24 da 00
	00 00 09	 mov	 BYTE PTR MASK_GBR4_TO_RGB4$9[rsp+10], 9
  002ef	c6 84 24 db 00
	00 00 0b	 mov	 BYTE PTR MASK_GBR4_TO_RGB4$9[rsp+11], 11
  002f7	c6 84 24 dc 00
	00 00 0e	 mov	 BYTE PTR MASK_GBR4_TO_RGB4$9[rsp+12], 14
  002ff	c6 84 24 dd 00
	00 00 0c	 mov	 BYTE PTR MASK_GBR4_TO_RGB4$9[rsp+13], 12
  00307	c6 84 24 de 00
	00 00 0d	 mov	 BYTE PTR MASK_GBR4_TO_RGB4$9[rsp+14], 13
  0030f	c6 84 24 df 00
	00 00 0f	 mov	 BYTE PTR MASK_GBR4_TO_RGB4$9[rsp+15], 15

; 847  :         const char *mask = nullptr;

  00317	48 c7 84 24 e8
	00 00 00 00 00
	00 00		 mov	 QWORD PTR mask$10[rsp], 0

; 848  :         switch (csp_from) {

  00323	c7 84 24 d8 01
	00 00 1f 00 00
	00		 mov	 DWORD PTR tv138[rsp], 31

; 849  :         //case RGY_CSP_GBR32: mask = MASK_GBR4_TO_RGB4; break;
; 850  :         case RGY_CSP_BGR32:
; 851  :         default:            mask = MASK_BGR4_TO_RGB4; break;

  0032e	48 8d 84 24 a0
	00 00 00	 lea	 rax, QWORD PTR MASK_BGR4_TO_RGB4$8[rsp]
  00336	48 89 84 24 e8
	00 00 00	 mov	 QWORD PTR mask$10[rsp], rax

; 852  :         }
; 853  :         for (int y = 0; y < y_range.len; y++, dstLine += dst_y_pitch_byte, srcLine += src_y_pitch_byte) {

  0033e	c7 84 24 f0 00
	00 00 00 00 00
	00		 mov	 DWORD PTR y$11[rsp], 0
  00349	eb 46		 jmp	 SHORT $LN9@convert_rg
$LN7@convert_rg:
  0034b	8b 84 24 f0 00
	00 00		 mov	 eax, DWORD PTR y$11[rsp]
  00352	ff c0		 inc	 eax
  00354	89 84 24 f0 00
	00 00		 mov	 DWORD PTR y$11[rsp], eax
  0035b	48 63 84 24 38
	02 00 00	 movsxd	 rax, DWORD PTR dst_y_pitch_byte$[rsp]
  00363	48 8b 8c 24 80
	00 00 00	 mov	 rcx, QWORD PTR dstLine$[rsp]
  0036b	48 03 c8	 add	 rcx, rax
  0036e	48 8b c1	 mov	 rax, rcx
  00371	48 89 84 24 80
	00 00 00	 mov	 QWORD PTR dstLine$[rsp], rax
  00379	48 63 84 24 28
	02 00 00	 movsxd	 rax, DWORD PTR src_y_pitch_byte$[rsp]
  00381	48 8b 4c 24 78	 mov	 rcx, QWORD PTR srcLine$[rsp]
  00386	48 03 c8	 add	 rcx, rax
  00389	48 8b c1	 mov	 rax, rcx
  0038c	48 89 44 24 78	 mov	 QWORD PTR srcLine$[rsp], rax
$LN9@convert_rg:
  00391	8b 44 24 50	 mov	 eax, DWORD PTR y_range$[rsp+8]
  00395	39 84 24 f0 00
	00 00		 cmp	 DWORD PTR y$11[rsp], eax
  0039c	0f 8d fe 01 00
	00		 jge	 $LN8@convert_rg

; 854  :             uint8_t *ptr_dst = dstLine;

  003a2	48 8b 84 24 80
	00 00 00	 mov	 rax, QWORD PTR dstLine$[rsp]
  003aa	48 89 84 24 f8
	00 00 00	 mov	 QWORD PTR ptr_dst$12[rsp], rax

; 855  :             uint8_t *ptr_src = srcLine;

  003b2	48 8b 44 24 78	 mov	 rax, QWORD PTR srcLine$[rsp]
  003b7	48 89 84 24 00
	01 00 00	 mov	 QWORD PTR ptr_src$13[rsp], rax

; 856  :             for (int x = 0; x < x_width - 4; x += 4, ptr_dst += 16, ptr_src += 16) {

  003bf	c7 84 24 08 01
	00 00 00 00 00
	00		 mov	 DWORD PTR x$14[rsp], 0
  003ca	eb 39		 jmp	 SHORT $LN12@convert_rg
$LN10@convert_rg:
  003cc	8b 84 24 08 01
	00 00		 mov	 eax, DWORD PTR x$14[rsp]
  003d3	83 c0 04	 add	 eax, 4
  003d6	89 84 24 08 01
	00 00		 mov	 DWORD PTR x$14[rsp], eax
  003dd	48 8b 84 24 f8
	00 00 00	 mov	 rax, QWORD PTR ptr_dst$12[rsp]
  003e5	48 83 c0 10	 add	 rax, 16
  003e9	48 89 84 24 f8
	00 00 00	 mov	 QWORD PTR ptr_dst$12[rsp], rax
  003f1	48 8b 84 24 00
	01 00 00	 mov	 rax, QWORD PTR ptr_src$13[rsp]
  003f9	48 83 c0 10	 add	 rax, 16
  003fd	48 89 84 24 00
	01 00 00	 mov	 QWORD PTR ptr_src$13[rsp], rax
$LN12@convert_rg:
  00405	8b 84 24 88 00
	00 00		 mov	 eax, DWORD PTR x_width$[rsp]
  0040c	83 e8 04	 sub	 eax, 4
  0040f	39 84 24 08 01
	00 00		 cmp	 DWORD PTR x$14[rsp], eax
  00416	0f 8d 84 00 00
	00		 jge	 $LN11@convert_rg

; 857  :                 __m128i src0 = _mm_loadu_si128((const __m128i *)(ptr_src +  0));

  0041c	48 8b 84 24 00
	01 00 00	 mov	 rax, QWORD PTR ptr_src$13[rsp]
  00424	f3 0f 6f 00	 movdqu	 xmm0, XMMWORD PTR [rax]
  00428	66 0f 7f 84 24
	20 01 00 00	 movdqa	 XMMWORD PTR $T16[rsp], xmm0
  00431	66 0f 6f 84 24
	20 01 00 00	 movdqa	 xmm0, XMMWORD PTR $T16[rsp]
  0043a	66 0f 7f 84 24
	10 01 00 00	 movdqa	 XMMWORD PTR src0$15[rsp], xmm0

; 858  :                 __m128i x0 = _mm_shuffle_epi8(src0, _mm_load_si128((__m128i *)(mask +  0)));

  00443	48 8b 84 24 e8
	00 00 00	 mov	 rax, QWORD PTR mask$10[rsp]
  0044b	f3 0f 6f 00	 movdqu	 xmm0, XMMWORD PTR [rax]
  0044f	66 0f 7f 84 24
	40 01 00 00	 movdqa	 XMMWORD PTR $T18[rsp], xmm0
  00458	66 0f 6f 84 24
	10 01 00 00	 movdqa	 xmm0, XMMWORD PTR src0$15[rsp]
  00461	66 0f 38 00 84
	24 40 01 00 00	 pshufb	 xmm0, XMMWORD PTR $T18[rsp]
  0046b	66 0f 7f 84 24
	50 01 00 00	 movdqa	 XMMWORD PTR $T19[rsp], xmm0
  00474	66 0f 6f 84 24
	50 01 00 00	 movdqa	 xmm0, XMMWORD PTR $T19[rsp]
  0047d	66 0f 7f 84 24
