; Listing generated by Microsoft (R) Optimizing Compiler Version 19.23.28106.4 

include listing.inc

INCLUDELIB MSVCRTD
INCLUDELIB OLDNAMES

PUBLIC	IID_IAxWinHostWindow
PUBLIC	IID_IAxWinHostWindowLic
PUBLIC	IID_IAxWinAmbientDispatch
PUBLIC	IID_IAxWinAmbientDispatchEx
PUBLIC	IID_IInternalConnection
PUBLIC	LIBID_ATLLib
PUBLIC	__pobjMapEntryFirst
PUBLIC	__pobjMapEntryLast
PUBLIC	?_pPerfRegFunc@ATL@@3P6AJPEAUHINSTANCE__@@@ZEA	; ATL::_pPerfRegFunc
PUBLIC	?_pPerfUnRegFunc@ATL@@3P6AJXZEA			; ATL::_pPerfUnRegFunc
PUBLIC	?_AtlRegisterPerUser@ATL@@3_NA			; ATL::_AtlRegisterPerUser
PUBLIC	?_pAtlModule@ATL@@3PEAVCAtlModule@1@EA		; ATL::_pAtlModule
PUBLIC	?_pModule@ATL@@3PEAVCComModule@1@EA		; ATL::_pModule
PUBLIC	?_pAtlAutoThreadModule@ATL@@3PEAUIAtlAutoThreadModule@1@EA ; ATL::_pAtlAutoThreadModule
PUBLIC	?chDirSep@ATL@@3DB				; ATL::chDirSep
PUBLIC	?chRightBracket@ATL@@3DB			; ATL::chRightBracket
PUBLIC	?chLeftBracket@ATL@@3DB				; ATL::chLeftBracket
PUBLIC	?chQuote@ATL@@3DB				; ATL::chQuote
PUBLIC	?chEquals@ATL@@3DB				; ATL::chEquals
PUBLIC	?szStringVal@ATL@@3QEBDEB			; ATL::szStringVal
PUBLIC	?multiszStringVal@ATL@@3QEBDEB			; ATL::multiszStringVal
PUBLIC	?szDwordVal@ATL@@3QEBDEB			; ATL::szDwordVal
PUBLIC	?szBinaryVal@ATL@@3QEBDEB			; ATL::szBinaryVal
PUBLIC	?szValToken@ATL@@3QEBDEB			; ATL::szValToken
PUBLIC	?szForceRemove@ATL@@3QEBDEB			; ATL::szForceRemove
PUBLIC	?szNoRemove@ATL@@3QEBDEB			; ATL::szNoRemove
PUBLIC	?szDelete@ATL@@3QEBDEB				; ATL::szDelete
PUBLIC	CLSID_Registrar
PUBLIC	IID_IRegistrar
PUBLIC	IID_IDocHostUIHandlerDispatch
;	COMDAT ?_pPerfRegFunc@ATL@@3P6AJPEAUHINSTANCE__@@@ZEA
_BSS	SEGMENT
?_pPerfRegFunc@ATL@@3P6AJPEAUHINSTANCE__@@@ZEA DQ 01H DUP (?) ; ATL::_pPerfRegFunc
_BSS	ENDS
;	COMDAT ?_pPerfUnRegFunc@ATL@@3P6AJXZEA
_BSS	SEGMENT
?_pPerfUnRegFunc@ATL@@3P6AJXZEA DQ 01H DUP (?)		; ATL::_pPerfUnRegFunc
_BSS	ENDS
;	COMDAT ?_AtlRegisterPerUser@ATL@@3_NA
_BSS	SEGMENT
?_AtlRegisterPerUser@ATL@@3_NA DB 01H DUP (?)		; ATL::_AtlRegisterPerUser
_BSS	ENDS
;	COMDAT ?_pAtlModule@ATL@@3PEAVCAtlModule@1@EA
_BSS	SEGMENT
?_pAtlModule@ATL@@3PEAVCAtlModule@1@EA DQ 01H DUP (?)	; ATL::_pAtlModule
_BSS	ENDS
;	COMDAT ?_pModule@ATL@@3PEAVCComModule@1@EA
_BSS	SEGMENT
?_pModule@ATL@@3PEAVCComModule@1@EA DQ 01H DUP (?)	; ATL::_pModule
_BSS	ENDS
;	COMDAT ?_pAtlAutoThreadModule@ATL@@3PEAUIAtlAutoThreadModule@1@EA
_BSS	SEGMENT
?_pAtlAutoThreadModule@ATL@@3PEAUIAtlAutoThreadModule@1@EA DQ 01H DUP (?) ; ATL::_pAtlAutoThreadModule
_BSS	ENDS
;	COMDAT IID_IDocHostUIHandlerDispatch
CONST	SEGMENT
IID_IDocHostUIHandlerDispatch DD 0425b5af0H
	DW	065f1H
	DW	011d1H
	DB	096H
	DB	011H
	DB	00H
	DB	00H
	DB	0f8H
	DB	01eH
	DB	0dH
	DB	0dH
CONST	ENDS
;	COMDAT IID_IRegistrar
CONST	SEGMENT
IID_IRegistrar DD 044ec053bH
	DW	0400fH
	DW	011d0H
	DB	09dH
	DB	0cdH
	DB	00H
	DB	0a0H
	DB	0c9H
	DB	03H
	DB	091H
	DB	0d3H
CONST	ENDS
;	COMDAT CLSID_Registrar
CONST	SEGMENT
CLSID_Registrar DD 044ec053aH
	DW	0400fH
	DW	011d0H
	DB	09dH
	DB	0cdH
	DB	00H
	DB	0a0H
	DB	0c9H
	DB	03H
	DB	091H
	DB	0d3H
CONST	ENDS
;	COMDAT ?szDelete@ATL@@3QEBDEB
CONST	SEGMENT
?szDelete@ATL@@3QEBDEB DQ FLAT:$SG143053		; ATL::szDelete
CONST	ENDS
;	COMDAT ?szNoRemove@ATL@@3QEBDEB
CONST	SEGMENT
?szNoRemove@ATL@@3QEBDEB DQ FLAT:$SG143051		; ATL::szNoRemove
CONST	ENDS
;	COMDAT ?szForceRemove@ATL@@3QEBDEB
CONST	SEGMENT
?szForceRemove@ATL@@3QEBDEB DQ FLAT:$SG143049		; ATL::szForceRemove
CONST	ENDS
;	COMDAT ?szValToken@ATL@@3QEBDEB
CONST	SEGMENT
?szValToken@ATL@@3QEBDEB DQ FLAT:$SG143047		; ATL::szValToken
CONST	ENDS
;	COMDAT ?szBinaryVal@ATL@@3QEBDEB
CONST	SEGMENT
?szBinaryVal@ATL@@3QEBDEB DQ FLAT:$SG143045		; ATL::szBinaryVal
CONST	ENDS
;	COMDAT ?szDwordVal@ATL@@3QEBDEB
CONST	SEGMENT
?szDwordVal@ATL@@3QEBDEB DQ FLAT:$SG143043		; ATL::szDwordVal
CONST	ENDS
;	COMDAT ?multiszStringVal@ATL@@3QEBDEB
CONST	SEGMENT
?multiszStringVal@ATL@@3QEBDEB DQ FLAT:$SG143041	; ATL::multiszStringVal
CONST	ENDS
;	COMDAT ?szStringVal@ATL@@3QEBDEB
CONST	SEGMENT
?szStringVal@ATL@@3QEBDEB DQ FLAT:$SG143039		; ATL::szStringVal
CONST	ENDS
;	COMDAT ?chEquals@ATL@@3DB
CONST	SEGMENT
?chEquals@ATL@@3DB DB 03dH				; ATL::chEquals
CONST	ENDS
;	COMDAT ?chQuote@ATL@@3DB
CONST	SEGMENT
?chQuote@ATL@@3DB DB 027H				; ATL::chQuote
CONST	ENDS
;	COMDAT ?chLeftBracket@ATL@@3DB
CONST	SEGMENT
?chLeftBracket@ATL@@3DB DB 07bH				; ATL::chLeftBracket
CONST	ENDS
;	COMDAT ?chRightBracket@ATL@@3DB
CONST	SEGMENT
?chRightBracket@ATL@@3DB DB 07dH			; ATL::chRightBracket
CONST	ENDS
;	COMDAT ?chDirSep@ATL@@3DB
CONST	SEGMENT
?chDirSep@ATL@@3DB DB 05cH				; ATL::chDirSep
CONST	ENDS
;	COMDAT __pobjMapEntryLast
ATL$__z	SEGMENT
__pobjMapEntryLast DQ 0000000000000000H
ATL$__z	ENDS
;	COMDAT __pobjMapEntryFirst
ATL$__a	SEGMENT
__pobjMapEntryFirst DQ 0000000000000000H
ATL$__a	ENDS
;	COMDAT LIBID_ATLLib
CONST	SEGMENT
LIBID_ATLLib DD	044ec0535H
	DW	0400fH
	DW	011d0H
	DB	09dH
	DB	0cdH
	DB	00H
	DB	0a0H
	DB	0c9H
	DB	03H
	DB	091H
	DB	0d3H
CONST	ENDS
;	COMDAT IID_IInternalConnection
CONST	SEGMENT
IID_IInternalConnection DD 072ad0770H
	DW	06a9fH
	DW	011d1H
	DB	0bcH
	DB	0ecH
	DB	00H
	DB	060H
	DB	08H
	DB	08fH
	DB	044H
	DB	04eH
CONST	ENDS
;	COMDAT IID_IAxWinAmbientDispatchEx
CONST	SEGMENT
IID_IAxWinAmbientDispatchEx DD 0b2d0778bH
	DW	0ac99H
	DW	04c58H
	DB	0a5H
	DB	0c8H
	DB	0e7H
	DB	072H
	DB	04eH
	DB	053H
	DB	016H
	DB	0b5H
CONST	ENDS
CONST	SEGMENT
$SG147766 DB	'%s', 00H
	ORG $+5
$SG132782 DB	'atlTraceGeneral', 00H
$SG132831 DB	'atlTraceCOM', 00H
$SG158851 DB	'%s', 00H
	ORG $+1
$SG132880 DB	'atlTraceQI', 00H
	ORG $+1
$SG143039 DB	'S', 00H
	ORG $+2
$SG132929 DB	'atlTraceRegistrar', 00H
	ORG $+2
$SG143041 DB	'M', 00H
	ORG $+2
$SG149328 DB	'D3D11Device: Init...', 0aH, 00H
	ORG $+2
$SG149331 DB	'D3D11Device: CreateDXGIFactory: %d', 0aH, 00H
$SG143043 DB	'D', 00H
	ORG $+2
$SG149334 DB	'D3D11Device: EnumAdapters: %d', 0aH, 00H
	ORG $+1
$SG149336 DB	'D3D11Device: CreateDXGIFactory Success.', 0aH, 00H
	ORG $+3
$SG143045 DB	'B', 00H
	ORG $+2
$SG149338 DB	'D3D11Device: D3D11CreateDevice: %d', 0aH, 00H
$SG143047 DB	'Val', 00H
$SG149340 DB	'D3D11Device: D3D11CreateDevice Success.', 0aH, 00H
	ORG $+3
$SG143053 DB	'Delete', 00H
	ORG $+1
$SG110661 DB	'rgb', 00H
$SG149346 DB	'D3D11Device: SetMultithreadProtected Success.', 0aH, 00H
	ORG $+1
$SG149351 DB	'D3D11Device: CreateSwapChainForHwnd: %d', 0aH, 00H
	ORG $+3
$SG110633 DB	'yuv422', 00H
	ORG $+1
$SG110663 DB	'gbr', 00H
$SG149353 DB	'D3D11Device: CreateSwapChainForHwnd Success.', 0aH, 00H
	ORG $+2
$SG149354 DB	'D3D11Device: Init Success.', 0aH, 00H
$SG110666 DB	'y8', 00H
	ORG $+1
$SG132978 DB	'atlTraceRefcount', 00H
	ORG $+3
$SG110635 DB	'yuv444', 00H
	ORG $+1
$SG143833 DB	'SAM', 00H
$SG149383 DB	'D3D11Device: CreateVideoProcessor...', 0aH, 00H
	ORG $+2
$SG149388 DB	'D3D11Device: CreateVideoProcessorEnumerator: %d', 0aH, 00H
	ORG $+3
$SG110655 DB	'rgb24r', 00H
	ORG $+1
$SG111611 DB	'VP8', 00H
$SG149390 DB	'D3D11Device: CreateVideoProcessor: %d', 0aH, 00H
	ORG $+1
$SG149391 DB	'D3D11Device: CreateVideoProcessor Success.', 0aH, 00H
$SG111613 DB	'VP9', 00H
$SG149402 DB	'D3D11Device: CreateSwapChainForHwnd: %d', 0aH, 00H
	ORG $+3
$SG110656 DB	'rgb32r', 00H
	ORG $+1
$SG112224 DB	'fcc', 00H
$SG149403 DB	'D3D11Device: Reset Success.', 0aH, 00H
	ORG $+3
$SG133027 DB	'atlTraceWindowing', 00H
	ORG $+2
$SG143835 DB	'SYSTEM', 00H
	ORG $+1
$SG112225 DB	'GBR', 00H
$SG149413 DB	'D3D11Device: Closed.', 0aH, 00H
	ORG $+2
$SG133076 DB	'atlTraceControls', 00H
	ORG $+3
$SG110657 DB	'rgb24', 00H
	ORG $+2
$SG112376 DB	'bt470m', 00H
	ORG $+1
$SG112538 DB	'pal', 00H
$SG133125 DB	'atlTraceHosting', 00H
$SG133174 DB	'atlTraceDBClient', 00H
	ORG $+3
$SG110658 DB	'rgb32', 00H
	ORG $+2
$SG112379 DB	'linear', 00H
	ORG $+1
$SG112540 DB	'mac', 00H
$SG133223 DB	'atlTraceDBProvider', 00H
	ORG $+1
$SG112542 DB	'0', 00H
	ORG $+2
$SG133272 DB	'atlTraceSnapin', 00H
	ORG $+1
$SG133321 DB	'atlTraceNotImpl', 00H
$SG133370 DB	'atlTraceAllocation', 00H
	ORG $+1
$SG112543 DB	'1', 00H
	ORG $+2
$SG133419 DB	'atlTraceException', 00H
	ORG $+2
$SG112380 DB	'log100', 00H
	ORG $+1
$SG112544 DB	'2', 00H
	ORG $+2
$SG133468 DB	'atlTraceTime', 00H
	ORG $+3
$SG133517 DB	'atlTraceCache', 00H
	ORG $+2
$SG133566 DB	'atlTraceStencil', 00H
$SG133615 DB	'atlTraceString', 00H
	ORG $+1
$SG133664 DB	'atlTraceMap', 00H
$SG112545 DB	'3', 00H
	ORG $+2
$SG133669 DB	'atlTraceUtil', 00H
	ORG $+3
$SG133718 DB	'atlTraceSecurity', 00H
	ORG $+3
$SG110659 DB	'bgr24', 00H
	ORG $+2
$SG112381 DB	'log316', 00H
	ORG $+1
$SG112546 DB	'4', 00H
	ORG $+2
$SG133767 DB	'atlTraceSync', 00H
	ORG $+3
$SG133816 DB	'atlTraceISAPI', 00H
	ORG $+2
$SG158850 DB	'invalid argument', 00H
	ORG $+7
$SG158855 DB	'"', 00H, 'i', 00H, 'n', 00H, 'v', 00H, 'a', 00H, 'l', 00H
	DB	'i', 00H, 'd', 00H, ' ', 00H, 'a', 00H, 'r', 00H, 'g', 00H, 'u'
	DB	00H, 'm', 00H, 'e', 00H, 'n', 00H, 't', 00H, '"', 00H, 00H, 00H
	ORG $+2
$SG158852 DB	'C:\Program Files (x86)\Microsoft Visual Studio\2019\Comm'
	DB	'unity\VC\Tools\MSVC\14.23.28105\include\xmemory', 00H
$SG110629 DB	'Invalid', 00H
$SG158853 DB	'C', 00H, ':', 00H, '\', 00H, 'P', 00H, 'r', 00H, 'o', 00H
	DB	'g', 00H, 'r', 00H, 'a', 00H, 'm', 00H, ' ', 00H, 'F', 00H, 'i'
	DB	00H, 'l', 00H, 'e', 00H, 's', 00H, ' ', 00H, '(', 00H, 'x', 00H
	DB	'8', 00H, '6', 00H, ')', 00H, '\', 00H, 'M', 00H, 'i', 00H, 'c'
	DB	00H, 'r', 00H, 'o', 00H, 's', 00H, 'o', 00H, 'f', 00H, 't', 00H
	DB	' ', 00H, 'V', 00H, 'i', 00H, 's', 00H, 'u', 00H, 'a', 00H, 'l'
	DB	00H, ' ', 00H, 'S', 00H, 't', 00H, 'u', 00H, 'd', 00H, 'i', 00H
	DB	'o', 00H, '\', 00H, '2', 00H, '0', 00H, '1', 00H, '9', 00H, '\'
	DB	00H, 'C', 00H, 'o', 00H, 'm', 00H, 'm', 00H, 'u', 00H, 'n', 00H
	DB	'i', 00H, 't', 00H, 'y', 00H, '\', 00H, 'V', 00H, 'C', 00H, '\'
	DB	00H, 'T', 00H, 'o', 00H, 'o', 00H, 'l', 00H, 's', 00H, '\', 00H
	DB	'M', 00H, 'S', 00H, 'V', 00H, 'C', 00H, '\', 00H, '1', 00H, '4'
	DB	00H, '.', 00H, '2', 00H, '3', 00H, '.', 00H, '2', 00H, '8', 00H
	DB	'1', 00H, '0', 00H, '5', 00H, '\', 00H, 'i', 00H, 'n', 00H, 'c'
	DB	00H, 'l', 00H, 'u', 00H, 'd', 00H, 'e', 00H, '\', 00H, 'x', 00H
	DB	'm', 00H, 'e', 00H, 'm', 00H, 'o', 00H, 'r', 00H, 'y', 00H, 00H
	DB	00H
$SG158854 DB	's', 00H, 't', 00H, 'd', 00H, ':', 00H, ':', 00H, '_', 00H
	DB	'A', 00H, 'l', 00H, 'l', 00H, 'o', 00H, 'c', 00H, 'a', 00H, 't'
	DB	00H, 'e', 00H, '_', 00H, 'm', 00H, 'a', 00H, 'n', 00H, 'u', 00H
	DB	'a', 00H, 'l', 00H, 'l', 00H, 'y', 00H, '_', 00H, 'v', 00H, 'e'
	DB	00H, 'c', 00H, 't', 00H, 'o', 00H, 'r', 00H, '_', 00H, 'a', 00H
	DB	'l', 00H, 'i', 00H, 'g', 00H, 'n', 00H, 'e', 00H, 'd', 00H, 00H
	DB	00H
	ORG $+2
$SG158900 DB	'C:\Program Files (x86)\Microsoft Visual Studio\2019\Comm'
	DB	'unity\VC\Tools\MSVC\14.23.28105\include\xlocale', 00H
$SG143049 DB	'ForceRemove', 00H
$SG112547 DB	'5', 00H
	ORG $+2
$SG143051 DB	'NoRemove', 00H
	ORG $+3
$SG110630 DB	'nv12', 00H
	ORG $+3
$SG110631 DB	'yv12', 00H
	ORG $+3
$SG110632 DB	'yuy2', 00H
	ORG $+3
$SG110634 DB	'nv16', 00H
	ORG $+3
$SG110660 DB	'bgr32', 00H
	ORG $+2
$SG112525 DB	'bt470m', 00H
	ORG $+1
$SG112551 DB	'tv', 00H
	ORG $+1
$SG110636 DB	'yv12(9bit)', 00H
	ORG $+1
$SG112552 DB	'pc', 00H
	ORG $+1
$SG110637 DB	'yv12(10bit)', 00H
$SG113641 DB	'cfr', 00H
$SG110638 DB	'yv12(12bit)', 00H
$SG113642 DB	'vfr', 00H
$SG110639 DB	'yv12(14bit)', 00H
$SG113645 DB	'swr', 00H
$SG110640 DB	'yv12(16bit)', 00H
$SG110641 DB	'p010', 00H
	ORG $+3
$SG143826 DB	'AppID', 00H
	ORG $+2
$SG112529 DB	'bt2020', 00H
	ORG $+1
$SG147097 DB	'vp8', 00H
$SG110642 DB	'yuv422(9bit)', 00H
	ORG $+3
$SG110643 DB	'yuv422(10bit)', 00H
	ORG $+2
$SG110644 DB	'yuv422(12bit)', 00H
	ORG $+2
$SG110645 DB	'yuv422(14bit)', 00H
	ORG $+2
$SG110646 DB	'yuv422(16bit)', 00H
	ORG $+2
$SG110647 DB	'p210', 00H
	ORG $+3
$SG110648 DB	'yuv444(9bit)', 00H
	ORG $+3
$SG110649 DB	'yuv444(10bit)', 00H
	ORG $+2
$SG110650 DB	'yuv444(12bit)', 00H
	ORG $+2
$SG110651 DB	'yuv444(14bit)', 00H
	ORG $+2
$SG110652 DB	'yuv444(16bit)', 00H
	ORG $+2
$SG110653 DB	'yuva444', 00H
$SG110654 DB	'yuva444(16bit)', 00H
	ORG $+1
$SG110662 DB	'rgba', 00H
	ORG $+3
$SG110664 DB	'gbra', 00H
	ORG $+3
$SG110665 DB	'yc48', 00H
	ORG $+3
$SG110667 DB	'yc16', 00H
	ORG $+3
$SG143827 DB	'CLSID', 00H
	ORG $+2
$SG143828 DB	'Component Categories', 00H
	ORG $+3
$SG143829 DB	'FileType', 00H
	ORG $+3
$SG111603 DB	'MPEG2', 00H
	ORG $+2
$SG147098 DB	'raw', 00H
$SG143830 DB	'Interface', 00H
	ORG $+2
$SG147100 DB	'CBR', 00H
$SG143831 DB	'Hardware', 00H
	ORG $+3
$SG143832 DB	'Mime', 00H
	ORG $+3
$SG111605 DB	'MPEG1', 00H
	ORG $+2
$SG147101 DB	'VBR', 00H
$SG143834 DB	'SECURITY', 00H
	ORG $+3
$SG111609 DB	'MPEG4', 00H
	ORG $+2
$SG147102 DB	'CQP', 00H
$SG143836 DB	'Software', 00H
	ORG $+3
$SG112217 DB	'undef', 00H
	ORG $+2
$SG147104 DB	'LA', 00H
	ORG $+1
$SG143837 DB	'TypeLib', 00H
$SG111599 DB	'H.264/AVC', 00H
	ORG $+2
$SG147105 DB	'LA-EXT', 00H
	ORG $+1
$SG147108 DB	'ICQ', 00H
$SG111601 DB	'H.265/HEVC', 00H
	ORG $+1
$SG111607 DB	'VC-1', 00H
	ORG $+3
$SG112219 DB	'bt709', 00H
	ORG $+2
$SG147106 DB	'LA-HRD', 00H
	ORG $+1
$SG147110 DB	'VCM', 00H
$SG111615 DB	'unknown', 00H
$SG111722 DB	'unknown', 00H
?list_colormatrix@@3QBUCX_DESC@@B DQ FLAT:$SG112217	; list_colormatrix
	DD	02H
	ORG $+4
	DQ	FLAT:$SG112218
	DD	07fffffffH
	ORG $+4
	DQ	FLAT:$SG112219
	DD	01H
	ORG $+4
	DQ	FLAT:$SG112220
	DD	06H
	ORG $+4
	DQ	FLAT:$SG112221
	DD	05H
	ORG $+4
	DQ	FLAT:$SG112222
	DD	07H
	ORG $+4
	DQ	FLAT:$SG112223
	DD	08H
	ORG $+4
	DQ	FLAT:$SG112224
	DD	04H
	ORG $+4
	DQ	FLAT:$SG112225
	DD	00H
	ORG $+4
	DQ	FLAT:$SG112226
	DD	09H
	ORG $+4
	DQ	FLAT:$SG112227
	DD	0aH
	ORG $+4
	DQ	FLAT:$SG112228
	DD	0cH
	ORG $+4
	DQ	FLAT:$SG112229
	DD	0dH
	ORG $+4
	DQ	FLAT:$SG112230
	DD	0eH
	ORG $+4
	DQ	FLAT:$SG112231
	DD	0fH
	ORG $+4
	DQ	0000000000000000H
	DD	00H
	ORG $+4
$SG112218 DB	'auto', 00H
	ORG $+3
$SG112220 DB	'smpte170m', 00H
	ORG $+2
$SG147107 DB	'LA-ICQ', 00H
	ORG $+1
$SG147135 DB	'0', 00H
	ORG $+2
$SG112221 DB	'bt470bg', 00H
$SG112222 DB	'smpte240m', 00H
	ORG $+2
$SG112223 DB	'YCgCo', 00H
	ORG $+2
$SG147119 DB	'main10', 00H
	ORG $+1
$SG147136 DB	'1', 00H
	ORG $+2
$SG112226 DB	'bt2020nc', 00H
	ORG $+3
$SG112230 DB	'ictco', 00H
	ORG $+2
$SG147125 DB	'Simple', 00H
	ORG $+1
$SG147137 DB	'2', 00H
	ORG $+2
$SG112227 DB	'bt2020c', 00H
$SG112228 DB	'derived-ncl', 00H
$SG147138 DB	'3', 00H
	ORG $+2
$SG112229 DB	'derived-cl', 00H
	ORG $+1
$SG147141 DB	'0', 00H
	ORG $+2
$SG112231 DB	'2100-lms', 00H
	ORG $+3
$SG112372 DB	'undef', 00H
	ORG $+2
$SG147130 DB	'Simple', 00H
	ORG $+1
$SG147142 DB	'1', 00H
	ORG $+2
$SG145044 DB	'l', 00H, 'p', 00H, 's', 00H, 'z', 00H, 'P', 00H, 'a', 00H
	DB	't', 00H, 'h', 00H, 'N', 00H, 'a', 00H, 'm', 00H, 'e', 00H, ' '
	DB	00H, '!', 00H, '=', 00H, ' ', 00H, '0', 00H, 00H, 00H
$SG147143 DB	'2', 00H
	ORG $+2
$SG145045 DB	'%', 00H, 'l', 00H, 's', 00H, 00H, 00H
$SG145046 DB	'C', 00H, ':', 00H, '\', 00H, 'P', 00H, 'r', 00H, 'o', 00H
	DB	'g', 00H, 'r', 00H, 'a', 00H, 'm', 00H, ' ', 00H, 'F', 00H, 'i'
	DB	00H, 'l', 00H, 'e', 00H, 's', 00H, ' ', 00H, '(', 00H, 'x', 00H
	DB	'8', 00H, '6', 00H, ')', 00H, '\', 00H, 'M', 00H, 'i', 00H, 'c'
	DB	00H, 'r', 00H, 'o', 00H, 's', 00H, 'o', 00H, 'f', 00H, 't', 00H
	DB	' ', 00H, 'V', 00H, 'i', 00H, 's', 00H, 'u', 00H, 'a', 00H, 'l'
	DB	00H, ' ', 00H, 'S', 00H, 't', 00H, 'u', 00H, 'd', 00H, 'i', 00H
	DB	'o', 00H, '\', 00H, '2', 00H, '0', 00H, '1', 00H, '9', 00H, '\'
	DB	00H, 'C', 00H, 'o', 00H, 'm', 00H, 'm', 00H, 'u', 00H, 'n', 00H
	DB	'i', 00H, 't', 00H, 'y', 00H, '\', 00H, 'V', 00H, 'C', 00H, '\'
	DB	00H, 'T', 00H, 'o', 00H, 'o', 00H, 'l', 00H, 's', 00H, '\', 00H
	DB	'M', 00H, 'S', 00H, 'V', 00H, 'C', 00H, '\', 00H, '1', 00H, '4'
	DB	00H, '.', 00H, '2', 00H, '3', 00H, '.', 00H, '2', 00H, '8', 00H
	DB	'1', 00H, '0', 00H, '5', 00H, '\', 00H, 'a', 00H, 't', 00H, 'l'
	DB	00H, 'm', 00H, 'f', 00H, 'c', 00H, '\', 00H, 'i', 00H, 'n', 00H
	DB	'c', 00H, 'l', 00H, 'u', 00H, 'd', 00H, 'e', 00H, '\', 00H, 'a'
	DB	00H, 't', 00H, 'l', 00H, 'b', 00H, 'a', 00H, 's', 00H, 'e', 00H
	DB	'.', 00H, 'h', 00H, 00H, 00H
	ORG $+2
$SG112373 DB	'auto', 00H
	ORG $+7
?list_transfer@@3QBUCX_DESC@@B DQ FLAT:$SG112372	; list_transfer
	DD	02H
	ORG $+4
	DQ	FLAT:$SG112373
	DD	07fffffffH
	ORG $+4
	DQ	FLAT:$SG112374
	DD	01H
	ORG $+4
	DQ	FLAT:$SG112375
	DD	06H
	ORG $+4
	DQ	FLAT:$SG112376
	DD	04H
	ORG $+4
	DQ	FLAT:$SG112377
	DD	05H
	ORG $+4
	DQ	FLAT:$SG112378
	DD	07H
	ORG $+4
	DQ	FLAT:$SG112379
	DD	08H
	ORG $+4
	DQ	FLAT:$SG112380
	DD	09H
	ORG $+4
	DQ	FLAT:$SG112381
	DD	0aH
	ORG $+4
	DQ	FLAT:$SG112382
	DD	0bH
	ORG $+4
	DQ	FLAT:$SG112383
	DD	0cH
	ORG $+4
	DQ	FLAT:$SG112384
	DD	0dH
	ORG $+4
	DQ	FLAT:$SG112385
	DD	0eH
	ORG $+4
	DQ	FLAT:$SG112386
	DD	0fH
	ORG $+4
	DQ	FLAT:$SG112387
	DD	010H
	ORG $+4
	DQ	FLAT:$SG112388
	DD	011H
	ORG $+4
	DQ	FLAT:$SG112389
	DD	012H
	ORG $+4
	DQ	0000000000000000H
	DD	00H
	ORG $+4
$SG112374 DB	'bt709', 00H
	ORG $+2
$SG112375 DB	'smpte170m', 00H
	ORG $+2
$SG147144 DB	'3', 00H
	ORG $+2
$SG112377 DB	'bt470bg', 00H
$SG112378 DB	'smpte240m', 00H
	ORG $+2
$SG147146 DB	'8', 00H
	ORG $+2
$SG112382 DB	'iec61966-2-4', 00H
	ORG $+3
$SG112383 DB	'bt1361e', 00H
$SG112384 DB	'iec61966-2-1', 00H
	ORG $+3
$SG112385 DB	'bt2020-10', 00H
	ORG $+2
$SG147147 DB	'10', 00H
	ORG $+1
$SG112386 DB	'bt2020-12', 00H
	ORG $+2
$SG147154 DB	'normal', 00H
	ORG $+1
$SG147155 DB	'it', 00H
	ORG $+1
$SG112387 DB	'smpte2084', 00H
	ORG $+2
$SG147156 DB	'bob', 00H
$SG112388 DB	'smpte428', 00H
	ORG $+3
$SG112521 DB	'undef', 00H
	ORG $+2
$SG147158 DB	'32', 00H
	ORG $+1
$SG112389 DB	'arib-srd-b67', 00H
	ORG $+3
$SG112522 DB	'auto', 00H
	ORG $+3
?list_colorprim@@3QBUCX_DESC@@B DQ FLAT:$SG112521	; list_colorprim
	DD	02H
	ORG $+4
	DQ	FLAT:$SG112522
	DD	07fffffffH
	ORG $+4
	DQ	FLAT:$SG112523
	DD	01H
	ORG $+4
	DQ	FLAT:$SG112524
	DD	06H
	ORG $+4
	DQ	FLAT:$SG112525
	DD	04H
	ORG $+4
	DQ	FLAT:$SG112526
	DD	05H
	ORG $+4
	DQ	FLAT:$SG112527
	DD	07H
	ORG $+4
	DQ	FLAT:$SG112528
	DD	08H
	ORG $+4
	DQ	FLAT:$SG112529
	DD	09H
	ORG $+4
	DQ	FLAT:$SG112530
	DD	0aH
	ORG $+4
	DQ	FLAT:$SG112531
	DD	0bH
	ORG $+4
	DQ	FLAT:$SG112532
	DD	0cH
	ORG $+4
	DQ	FLAT:$SG112533
	DD	0dH
	ORG $+4
	DQ	0000000000000000H
	DD	00H
	ORG $+4
$SG112523 DB	'bt709', 00H
	ORG $+2
$SG112524 DB	'smpte170m', 00H
	ORG $+2
$SG147160 DB	'repeat', 00H
	ORG $+1
$SG147161 DB	'41', 00H
	ORG $+1
$SG112526 DB	'bt470bg', 00H
$SG112527 DB	'smpte240m', 00H
	ORG $+2
$SG112528 DB	'film', 00H
	ORG $+3
$SG112530 DB	'st428', 00H
	ORG $+2
$SG147164 DB	'1', 00H
	ORG $+2
$SG112531 DB	'st431-2', 00H
$SG112532 DB	'st432-1', 00H
$SG112533 DB	'ebu3213-e', 00H
	ORG $+2
$SG112535 DB	'undef', 00H
	ORG $+6
?list_videoformat@@3QBUCX_DESC@@B DQ FLAT:$SG112535	; list_videoformat
	DD	05H
	ORG $+4
	DQ	FLAT:$SG112536
	DD	02H
	ORG $+4
	DQ	FLAT:$SG112537
	DD	00H
	ORG $+4
	DQ	FLAT:$SG112538
	DD	01H
	ORG $+4
	DQ	FLAT:$SG112539
	DD	03H
	ORG $+4
	DQ	FLAT:$SG112540
	DD	04H
	ORG $+4
	DQ	0000000000000000H
	DD	00H
	ORG $+4
$SG112536 DB	'ntsc', 00H
	ORG $+3
$SG112537 DB	'component', 00H
	ORG $+2
$SG112539 DB	'secam', 00H
	ORG $+2
$SG147165 DB	'1b', 00H
	ORG $+1
$SG112549 DB	'limited', 00H
$SG112550 DB	'full', 00H
	ORG $+3
?list_empty@@3QBUCX_DESC@@B DQ 0000000000000000H	; list_empty
	DD	00H
	ORG $+4
$SG113634 DB	'trace', 00H
	ORG $+2
$SG113635 DB	'debug', 00H
	ORG $+2
$SG113636 DB	'more', 00H
	ORG $+3
$SG113637 DB	'info', 00H
	ORG $+3
$SG113638 DB	'warn', 00H
	ORG $+3
$SG113639 DB	'error', 00H
	ORG $+2
$SG113643 DB	'forcecfr', 00H
	ORG $+3
$SG113646 DB	'soxr', 00H
	ORG $+3
$SG147093 DB	'h264', 00H
	ORG $+3
$SG147094 DB	'hevc', 00H
	ORG $+3
$SG147095 DB	'mpeg2', 00H
	ORG $+2
$SG147096 DB	'vc-1', 00H
	ORG $+3
$SG147103 DB	'AVBR', 00H
	ORG $+3
$SG147109 DB	'QVBR', 00H
	ORG $+3
$SG147112 DB	'auto', 00H
	ORG $+7
?list_avc_profile@@3QBUCX_DESC@@B DQ FLAT:$SG147112	; list_avc_profile
	DD	00H
	ORG $+4
	DQ	FLAT:$SG147113
	DD	042H
	ORG $+4
	DQ	FLAT:$SG147114
	DD	04dH
	ORG $+4
	DQ	FLAT:$SG147115
	DD	064H
	ORG $+4
	DQ	0000000000000000H
	DD	00H
	ORG $+4
$SG147113 DB	'Baseline', 00H
	ORG $+3
$SG147114 DB	'Main', 00H
	ORG $+3
$SG147115 DB	'High', 00H
	ORG $+7
?list_hevc_profile@@3QBUCX_DESC@@B DQ FLAT:$SG147117	; list_hevc_profile
	DD	00H
	ORG $+4
	DQ	FLAT:$SG147118
	DD	01H
	ORG $+4
	DQ	FLAT:$SG147119
	DD	02H
	ORG $+4
	DQ	0000000000000000H
	DD	00H
	ORG $+4
$SG147117 DB	'auto', 00H
	ORG $+3
$SG147118 DB	'main', 00H
	ORG $+3
$SG147121 DB	'main', 00H
	ORG $+3
$SG147122 DB	'high', 00H
	ORG $+3
?list_mpeg2_profile@@3QBUCX_DESC@@B DQ FLAT:$SG147124	; list_mpeg2_profile
	DD	00H
	ORG $+4
	DQ	FLAT:$SG147125
	DD	050H
	ORG $+4
	DQ	FLAT:$SG147126
	DD	040H
	ORG $+4
	DQ	FLAT:$SG147127
	DD	010H
	ORG $+4
	DQ	0000000000000000H
	DD	00H
	ORG $+4
$SG147124 DB	'auto', 00H
	ORG $+3
$SG147126 DB	'Main', 00H
	ORG $+3
$SG147127 DB	'High', 00H
	ORG $+3
$SG147129 DB	'auto', 00H
	ORG $+3
?list_vc1_profile@@3QBUCX_DESC@@B DQ FLAT:$SG147129	; list_vc1_profile
	DD	00H
	ORG $+4
	DQ	FLAT:$SG147130
	DD	01H
	ORG $+4
	DQ	FLAT:$SG147131
	DD	05H
	ORG $+4
	DQ	FLAT:$SG147132
	DD	0dH
	ORG $+4
	DQ	0000000000000000H
	DD	00H
	ORG $+4
$SG147131 DB	'Main', 00H
	ORG $+3
$SG147132 DB	'Advanced', 00H
	ORG $+3
$SG147134 DB	'auto', 00H
	ORG $+7
?list_vp8_profile@@3QBUCX_DESC@@B DQ FLAT:$SG147134	; list_vp8_profile
	DD	00H
	ORG $+4
	DQ	FLAT:$SG147135
	DD	01H
	ORG $+4
	DQ	FLAT:$SG147136
	DD	02H
	ORG $+4
	DQ	FLAT:$SG147137
	DD	03H
	ORG $+4
	DQ	FLAT:$SG147138
	DD	04H
	ORG $+4
	DQ	0000000000000000H
	DD	00H
	ORG $+4
?list_vp9_profile@@3QBUCX_DESC@@B DQ FLAT:$SG147140	; list_vp9_profile
	DD	00H
	ORG $+4
	DQ	FLAT:$SG147141
	DD	01H
	ORG $+4
	DQ	FLAT:$SG147142
	DD	02H
	ORG $+4
	DQ	FLAT:$SG147143
	DD	03H
	ORG $+4
	DQ	FLAT:$SG147144
	DD	04H
	ORG $+4
	DQ	0000000000000000H
	DD	00H
	ORG $+4
$SG147140 DB	'auto', 00H
	ORG $+3
$SG147149 DB	'progressive', 00H
$SG147166 DB	'1.1', 00H
$SG147150 DB	'interlaced(tff)', 00H
$SG147151 DB	'interlaced(bff)', 00H
$SG147153 DB	'none', 00H
	ORG $+3
$SG147159 DB	'2332', 00H
	ORG $+3
$SG147163 DB	'auto', 00H
	ORG $+3
?list_avc_level@@3QBUCX_DESC@@B DQ FLAT:$SG147163	; list_avc_level
	DD	00H
	ORG $+4
	DQ	FLAT:$SG147164
	DD	0aH
	ORG $+4
	DQ	FLAT:$SG147165
	DD	09H
	ORG $+4
	DQ	FLAT:$SG147166
	DD	0bH
	ORG $+4
	DQ	FLAT:$SG147167
	DD	0cH
	ORG $+4
	DQ	FLAT:$SG147168
	DD	0dH
	ORG $+4
	DQ	FLAT:$SG147169
	DD	014H
	ORG $+4
	DQ	FLAT:$SG147170
	DD	015H
	ORG $+4
	DQ	FLAT:$SG147171
	DD	016H
	ORG $+4
	DQ	FLAT:$SG147172
	DD	01eH
	ORG $+4
	DQ	FLAT:$SG147173
	DD	01fH
	ORG $+4
	DQ	FLAT:$SG147174
	DD	020H
	ORG $+4
	DQ	FLAT:$SG147175
	DD	028H
	ORG $+4
	DQ	FLAT:$SG147176
	DD	029H
	ORG $+4
	DQ	FLAT:$SG147177
	DD	02aH
	ORG $+4
	DQ	FLAT:$SG147178
	DD	032H
	ORG $+4
	DQ	FLAT:$SG147179
	DD	033H
	ORG $+4
	DQ	FLAT:$SG147180
	DD	034H
	ORG $+4
	DQ	0000000000000000H
	DD	00H
	ORG $+4
$SG147167 DB	'1.2', 00H
$SG147168 DB	'1.3', 00H
$SG147169 DB	'2', 00H
	ORG $+2
$SG147170 DB	'2.1', 00H
$SG147171 DB	'2.2', 00H
$SG147172 DB	'3', 00H
	ORG $+2
$SG147173 DB	'3.1', 00H
$SG147174 DB	'3.2', 00H
$SG147175 DB	'4', 00H
	ORG $+2
$SG147176 DB	'4.1', 00H
$SG147177 DB	'4.2', 00H
$SG147178 DB	'5', 00H
	ORG $+2
$SG147179 DB	'5.1', 00H
$SG147180 DB	'5.2', 00H
$SG147182 DB	'auto', 00H
	ORG $+3
?list_hevc_level@@3QBUCX_DESC@@B DQ FLAT:$SG147182	; list_hevc_level
	DD	00H
	ORG $+4
	DQ	FLAT:$SG147183
	DD	0aH
	ORG $+4
	DQ	FLAT:$SG147184
	DD	014H
	ORG $+4
	DQ	FLAT:$SG147185
	DD	015H
	ORG $+4
	DQ	FLAT:$SG147186
	DD	01eH
	ORG $+4
	DQ	FLAT:$SG147187
	DD	01fH
	ORG $+4
	DQ	FLAT:$SG147188
	DD	028H
	ORG $+4
	DQ	FLAT:$SG147189
	DD	029H
	ORG $+4
	DQ	FLAT:$SG147190
	DD	032H
	ORG $+4
	DQ	FLAT:$SG147191
	DD	033H
	ORG $+4
	DQ	FLAT:$SG147192
	DD	034H
	ORG $+4
	DQ	FLAT:$SG147193
	DD	03cH
	ORG $+4
	DQ	FLAT:$SG147194
	DD	03dH
	ORG $+4
	DQ	FLAT:$SG147195
	DD	03eH
	ORG $+4
	DQ	0000000000000000H
	DD	00H
	ORG $+4
$SG147183 DB	'1', 00H
	ORG $+2
$SG147184 DB	'2', 00H
	ORG $+2
$SG147185 DB	'2.1', 00H
$SG147186 DB	'3', 00H
	ORG $+2
$SG147187 DB	'3.1', 00H
$SG147188 DB	'4', 00H
	ORG $+2
$SG147189 DB	'4.1', 00H
$SG147190 DB	'5', 00H
	ORG $+2
$SG147191 DB	'5.1', 00H
$SG147192 DB	'5.2', 00H
$SG147193 DB	'6', 00H
	ORG $+2
$SG147194 DB	'6.1', 00H
$SG147195 DB	'6.2', 00H
$SG147197 DB	'auto', 00H
	ORG $+7
?list_mpeg2_level@@3QBUCX_DESC@@B DQ FLAT:$SG147197	; list_mpeg2_level
	DD	00H
	ORG $+4
	DQ	FLAT:$SG147198
	DD	0aH
	ORG $+4
	DQ	FLAT:$SG147199
	DD	08H
	ORG $+4
	DQ	FLAT:$SG147200
	DD	04H
	ORG $+4
	DQ	FLAT:$SG147201
	DD	06H
	ORG $+4
	DQ	0000000000000000H
	DD	00H
	ORG $+4
$SG147198 DB	'low', 00H
$SG147199 DB	'main', 00H
	ORG $+3
$SG147200 DB	'high', 00H
	ORG $+3
$SG147204 DB	'low', 00H
$SG147201 DB	'high1440', 00H
	ORG $+3
$SG147203 DB	'auto', 00H
	ORG $+7
?list_vc1_level@@3QBUCX_DESC@@B DQ FLAT:$SG147203	; list_vc1_level
	DD	00H
	ORG $+4
	DQ	FLAT:$SG147204
	DD	01H
	ORG $+4
	DQ	FLAT:$SG147205
	DD	03H
	ORG $+4
	DQ	FLAT:$SG147206
	DD	05H
	ORG $+4
	DQ	0000000000000000H
	DD	00H
	ORG $+4
$SG147205 DB	'median', 00H
	ORG $+1
$SG147206 DB	'high', 00H
	ORG $+3
$SG147208 DB	'auto', 00H
	ORG $+3
$SG147209 DB	'0', 00H
	ORG $+2
$SG147210 DB	'1', 00H
	ORG $+2
$SG147211 DB	'2', 00H
	ORG $+2
$SG147212 DB	'3', 00H
	ORG $+2
$SG147213 DB	'4', 00H
	ORG $+2
$SG147220 DB	'off', 00H
?list_vp8_level@@3QBUCX_DESC@@B DQ FLAT:$SG147215	; list_vp8_level
	DD	00H
	ORG $+4
	DQ	0000000000000000H
	DD	00H
	ORG $+4
$SG147215 DB	'auto', 00H
	ORG $+3
?list_vp9_level@@3QBUCX_DESC@@B DQ FLAT:$SG147217	; list_vp9_level
	DD	00H
	ORG $+4
	DQ	0000000000000000H
	DD	00H
	ORG $+4
$SG147217 DB	'auto', 00H
	ORG $+3
$SG147219 DB	'Auto', 00H
	ORG $+3
$SG147221 DB	'for I frames', 00H
	ORG $+3
$SG147222 DB	'for I,P frames', 00H
	ORG $+1
$SG147223 DB	'for All frames', 00H
	ORG $+1
$SG147225 DB	'auto', 00H
	ORG $+3
$SG147226 DB	'off', 00H
$SG147227 DB	'i', 00H
	ORG $+2
$SG147228 DB	'ip', 00H
	ORG $+1
$SG147229 DB	'all', 00H
$SG147230 DB	'ipb', 00H
$SG147231 DB	'ib', 00H
	ORG $+1
$SG147232 DB	'p', 00H
	ORG $+2
$SG147233 DB	'pb', 00H
	ORG $+1
$SG147234 DB	'b', 00H
	ORG $+2
$SG147236 DB	'auto', 00H
	ORG $+3
$SG147237 DB	'slow', 00H
	ORG $+3
$SG147238 DB	'medium', 00H
	ORG $+1
$SG147239 DB	'fast', 00H
	ORG $+3
$SG147242 DB	'0', 00H
	ORG $+2
$SG147241 DB	'default', 00H
$SG147243 DB	'1', 00H
	ORG $+2
$SG147244 DB	'2', 00H
	ORG $+2
$SG147245 DB	'3', 00H
	ORG $+2
$SG147246 DB	'4', 00H
	ORG $+2
$SG147248 DB	'low', 00H
$SG147249 DB	'normal', 00H
	ORG $+1
$SG147250 DB	'high', 00H
	ORG $+3
$SG147262 DB	'none', 00H
	ORG $+3
$SG147263 DB	'copy', 00H
	ORG $+3
$SG147264 DB	'aac', 00H
$SG147265 DB	'libmp3lame', 00H
	ORG $+1
$SG147270 DB	'ac3', 00H
$SG147266 DB	'libtwolame', 00H
	ORG $+1
$SG147301 DB	'tff', 00H
$SG147267 DB	'libvorbis', 00H
	ORG $+2
$SG147302 DB	'bff', 00H
$SG147268 DB	'pcm_s16le', 00H
	ORG $+2
$SG147313 DB	'higher', 00H
	ORG $+1
$SG147327 DB	'8x8', 00H
$SG147269 DB	'libopus', 00H
$SG147300 DB	'none', 00H
	ORG $+3
$SG147304 DB	' 1 - best quality', 00H
	ORG $+2
$SG147317 DB	'faster', 00H
	ORG $+1
$SG147328 DB	'4x4', 00H
$SG147305 DB	' 2 - higher', 00H
$SG147331 DB	'16', 00H
	ORG $+1
$SG147306 DB	' 3 - high quality', 00H
	ORG $+2
$SG147332 DB	'32', 00H
	ORG $+1
$SG147307 DB	' 4 - balanced', 00H
	ORG $+2
$SG147308 DB	' 5 - fast', 00H
	ORG $+2
$SG147333 DB	'64', 00H
	ORG $+1
$SG147309 DB	' 6 - faster', 00H
$SG147341 DB	'all', 00H
$SG147310 DB	' 7 - fastest', 00H
	ORG $+3
$SG147312 DB	'best', 00H
	ORG $+3
$SG147314 DB	'high', 00H
	ORG $+3
$SG147315 DB	'balanced', 00H
	ORG $+3
$SG147316 DB	'fast', 00H
	ORG $+3
$SG147323 DB	'Q-pel', 00H
	ORG $+2
$SG147340 DB	'chroma', 00H
	ORG $+1
$SG147345 DB	'box', 00H
$SG147318 DB	'fastest', 00H
$SG147320 DB	'Auto', 00H
	ORG $+3
$SG147321 DB	'full-pel', 00H
	ORG $+3
$SG147326 DB	'16x16', 00H
	ORG $+2
$SG147347 DB	'off', 00H
$SG147322 DB	'half-pel', 00H
	ORG $+3
$SG147325 DB	'Auto', 00H
	ORG $+3
$SG147330 DB	'auto', 00H
	ORG $+3
$SG147337 DB	'auto', 00H
	ORG $+3
$SG147338 DB	'none', 00H
	ORG $+3
$SG147339 DB	'luma', 00H
	ORG $+3
$SG147343 DB	'none', 00H
	ORG $+3
$SG147348 DB	'x2', 00H
	ORG $+1
$SG147344 DB	'upscale', 00H
$SG147349 DB	'x2.5', 00H
	ORG $+3
$SG147351 DB	'simple', 00H
	ORG $+1
$SG147352 DB	'complex', 00H
$SG147354 DB	'0', 00H
	ORG $+2
$SG147355 DB	'90', 00H
	ORG $+1
$SG147356 DB	'180', 00H
$SG147357 DB	'270', 00H
$SG147359 DB	'n', 00H
	ORG $+2
$SG147360 DB	'h', 00H
	ORG $+2
$SG147361 DB	'v', 00H
	ORG $+2
$SG147363 DB	'auto', 00H
	ORG $+3
$SG147364 DB	'simple', 00H
	ORG $+1
$SG147365 DB	'fine', 00H
	ORG $+3
$SG147367 DB	'auto', 00H
	ORG $+3
$SG147368 DB	'none', 00H
	ORG $+3
$SG147369 DB	'sse2', 00H
	ORG $+3
$SG147370 DB	'sse3', 00H
	ORG $+3
$SG147371 DB	'ssse3', 00H
	ORG $+2
$SG147372 DB	'sse41', 00H
	ORG $+2
$SG147373 DB	'avx', 00H
$SG147374 DB	'avx2', 00H
CONST	ENDS
;	COMDAT IID_IAxWinAmbientDispatch
CONST	SEGMENT
IID_IAxWinAmbientDispatch DD 0b6ea2051H
	DW	048aH
	DW	011d1H
	DB	082H
	DB	0b9H
	DB	00H
	DB	0c0H
	DB	04fH
	DB	0b9H
	DB	094H
	DB	02eH
CONST	ENDS
;	COMDAT IID_IAxWinHostWindowLic
CONST	SEGMENT
IID_IAxWinHostWindowLic DD 03935bda8H
	DW	04ed9H
	DW	0495cH
	DB	086H
	DB	050H
	DB	0e0H
	DB	01fH
	DB	0c1H
	DB	0e3H
	DB	08aH
	DB	04bH
CONST	ENDS
;	COMDAT IID_IAxWinHostWindow
CONST	SEGMENT
IID_IAxWinHostWindow DD 0b6ea2050H
	DW	048aH
	DW	011d1H
	DB	082H
	DB	0b9H
	DB	00H
	DB	0c0H
	DB	04fH
	DB	0b9H
	DB	094H
	DB	02eH
CONST	ENDS
PUBLIC	?__empty_global_delete@@YAXPEAX@Z		; __empty_global_delete
PUBLIC	?__empty_global_delete@@YAXPEAX_K@Z		; __empty_global_delete
PUBLIC	__local_stdio_printf_options
PUBLIC	_vswprintf_s_l
PUBLIC	swprintf_s
PUBLIC	_vsnprintf_s_l
PUBLIC	_vsnprintf_s
PUBLIC	_vscprintf_l
PUBLIC	_vscprintf
PUBLIC	?_Incref@_Ref_count_base@std@@QEAAXXZ		; std::_Ref_count_base::_Incref
PUBLIC	?_Decref@_Ref_count_base@std@@QEAAXXZ		; std::_Ref_count_base::_Decref
PUBLIC	?_Decwref@_Ref_count_base@std@@QEAAXXZ		; std::_Ref_count_base::_Decwref
PUBLIC	HRESULT_FROM_WIN32
PUBLIC	??$make_array@W4CspMatrix@@W41@W41@W41@W41@W41@W41@W41@W41@W41@W41@W41@W41@W41@W41@@@YA?AV?$array@W4CspMatrix@@$0O@@std@@$$QEAW4CspMatrix@@0000000000000@Z ; make_array<enum CspMatrix,enum CspMatrix,enum CspMatrix,enum CspMatrix,enum CspMatrix,enum CspMatrix,enum CspMatrix,enum CspMatrix,enum CspMatrix,enum CspMatrix,enum CspMatrix,enum CspMatrix,enum CspMatrix,enum CspMatrix,enum CspMatrix>
PUBLIC	??$make_array@W4CspTransfer@@W41@W41@W41@W41@W41@W41@W41@W41@W41@W41@W41@W41@W41@W41@W41@@@YA?AV?$array@W4CspTransfer@@$0P@@std@@$$QEAW4CspTransfer@@00000000000000@Z ; make_array<enum CspTransfer,enum CspTransfer,enum CspTransfer,enum CspTransfer,enum CspTransfer,enum CspTransfer,enum CspTransfer,enum CspTransfer,enum CspTransfer,enum CspTransfer,enum CspTransfer,enum CspTransfer,enum CspTransfer,enum CspTransfer,enum CspTransfer,enum CspTransfer>
PUBLIC	??$make_array@W4CspColorprim@@W41@W41@W41@W41@W41@W41@W41@W41@W41@W41@W41@W41@@@YA?AV?$array@W4CspColorprim@@$0M@@std@@$$QEAW4CspColorprim@@00000000000@Z ; make_array<enum CspColorprim,enum CspColorprim,enum CspColorprim,enum CspColorprim,enum CspColorprim,enum CspColorprim,enum CspColorprim,enum CspColorprim,enum CspColorprim,enum CspColorprim,enum CspColorprim,enum CspColorprim,enum CspColorprim>
PUBLIC	??0CQSVHWDevice@@QEAA@XZ			; CQSVHWDevice::CQSVHWDevice
PUBLIC	??1CQSVHWDevice@@UEAA@XZ			; CQSVHWDevice::~CQSVHWDevice
PUBLIC	?get@?$_Ptr_base@VRGYLog@@@std@@IEBAPEAVRGYLog@@XZ ; std::_Ptr_base<RGYLog>::get
PUBLIC	??0?$_Ptr_base@VRGYLog@@@std@@IEAA@XZ		; std::_Ptr_base<RGYLog>::_Ptr_base<RGYLog>
PUBLIC	?_Decref@?$_Ptr_base@VRGYLog@@@std@@IEAAXXZ	; std::_Ptr_base<RGYLog>::_Decref
PUBLIC	?_Swap@?$_Ptr_base@VRGYLog@@@std@@IEAAXAEAV12@@Z ; std::_Ptr_base<RGYLog>::_Swap
PUBLIC	??0?$shared_ptr@VRGYLog@@@std@@QEAA@XZ		; std::shared_ptr<RGYLog>::shared_ptr<RGYLog>
PUBLIC	??0?$shared_ptr@VRGYLog@@@std@@QEAA@AEBV01@@Z	; std::shared_ptr<RGYLog>::shared_ptr<RGYLog>
PUBLIC	??1?$shared_ptr@VRGYLog@@@std@@QEAA@XZ		; std::shared_ptr<RGYLog>::~shared_ptr<RGYLog>
PUBLIC	??4?$shared_ptr@VRGYLog@@@std@@QEAAAEAV01@AEBV01@@Z ; std::shared_ptr<RGYLog>::operator=
PUBLIC	?swap@?$shared_ptr@VRGYLog@@@std@@QEAAXAEAV12@@Z ; std::shared_ptr<RGYLog>::swap
PUBLIC	?reset@?$shared_ptr@VRGYLog@@@std@@QEAAXXZ	; std::shared_ptr<RGYLog>::reset
PUBLIC	??_GCQSVHWDevice@@UEAAPEAXI@Z			; CQSVHWDevice::`scalar deleting destructor'
PUBLIC	?Allocate@CCRTAllocator@ATL@@SAPEAX_K@Z		; ATL::CCRTAllocator::Allocate
PUBLIC	?Free@CCRTAllocator@ATL@@SAXPEAX@Z		; ATL::CCRTAllocator::Free
PUBLIC	??0?$CTraceCategoryEx@$0IAAAA@$0A@@ATL@@QEAA@PEBD@Z ; ATL::CTraceCategoryEx<524288,0>::CTraceCategoryEx<524288,0>
PUBLIC	??0?$CTraceCategoryEx@$00$0A@@ATL@@QEAA@PEBD@Z	; ATL::CTraceCategoryEx<1,0>::CTraceCategoryEx<1,0>
PUBLIC	??0?$CTraceCategoryEx@$01$0A@@ATL@@QEAA@PEBD@Z	; ATL::CTraceCategoryEx<2,0>::CTraceCategoryEx<2,0>
PUBLIC	??B?$CTraceCategoryEx@$01$0A@@ATL@@QEAAIXZ	; ATL::CTraceCategoryEx<2,0>::operator unsigned int
PUBLIC	??0?$CTraceCategoryEx@$03$0A@@ATL@@QEAA@PEBD@Z	; ATL::CTraceCategoryEx<4,0>::CTraceCategoryEx<4,0>
PUBLIC	??0?$CTraceCategoryEx@$07$0A@@ATL@@QEAA@PEBD@Z	; ATL::CTraceCategoryEx<8,0>::CTraceCategoryEx<8,0>
PUBLIC	??0?$CTraceCategoryEx@$0BA@$0A@@ATL@@QEAA@PEBD@Z ; ATL::CTraceCategoryEx<16,0>::CTraceCategoryEx<16,0>
PUBLIC	??0?$CTraceCategoryEx@$0CA@$0A@@ATL@@QEAA@PEBD@Z ; ATL::CTraceCategoryEx<32,0>::CTraceCategoryEx<32,0>
PUBLIC	??B?$CTraceCategoryEx@$0CA@$0A@@ATL@@QEAAIXZ	; ATL::CTraceCategoryEx<32,0>::operator unsigned int
PUBLIC	??0?$CTraceCategoryEx@$0EA@$0A@@ATL@@QEAA@PEBD@Z ; ATL::CTraceCategoryEx<64,0>::CTraceCategoryEx<64,0>
PUBLIC	??0?$CTraceCategoryEx@$0IA@$0A@@ATL@@QEAA@PEBD@Z ; ATL::CTraceCategoryEx<128,0>::CTraceCategoryEx<128,0>
PUBLIC	??0?$CTraceCategoryEx@$0BAA@$0A@@ATL@@QEAA@PEBD@Z ; ATL::CTraceCategoryEx<256,0>::CTraceCategoryEx<256,0>
PUBLIC	??0?$CTraceCategoryEx@$0CAA@$0A@@ATL@@QEAA@PEBD@Z ; ATL::CTraceCategoryEx<512,0>::CTraceCategoryEx<512,0>
PUBLIC	??0?$CTraceCategoryEx@$0EAA@$0A@@ATL@@QEAA@PEBD@Z ; ATL::CTraceCategoryEx<1024,0>::CTraceCategoryEx<1024,0>
PUBLIC	??0?$CTraceCategoryEx@$0IAA@$0A@@ATL@@QEAA@PEBD@Z ; ATL::CTraceCategoryEx<2048,0>::CTraceCategoryEx<2048,0>
PUBLIC	??0?$CTraceCategoryEx@$0BAAA@$0A@@ATL@@QEAA@PEBD@Z ; ATL::CTraceCategoryEx<4096,0>::CTraceCategoryEx<4096,0>
PUBLIC	??0?$CTraceCategoryEx@$0CAAA@$0A@@ATL@@QEAA@PEBD@Z ; ATL::CTraceCategoryEx<8192,0>::CTraceCategoryEx<8192,0>
PUBLIC	??0?$CTraceCategoryEx@$0EAAA@$0A@@ATL@@QEAA@PEBD@Z ; ATL::CTraceCategoryEx<16384,0>::CTraceCategoryEx<16384,0>
PUBLIC	??0?$CTraceCategoryEx@$0IAAA@$0A@@ATL@@QEAA@PEBD@Z ; ATL::CTraceCategoryEx<32768,0>::CTraceCategoryEx<32768,0>
PUBLIC	??0?$CTraceCategoryEx@$0BAAAA@$0A@@ATL@@QEAA@PEBD@Z ; ATL::CTraceCategoryEx<65536,0>::CTraceCategoryEx<65536,0>
PUBLIC	??0?$CTraceCategoryEx@$0CAAAA@$0A@@ATL@@QEAA@PEBD@Z ; ATL::CTraceCategoryEx<131072,0>::CTraceCategoryEx<131072,0>
PUBLIC	??0?$CTraceCategoryEx@$0EAAAA@$0A@@ATL@@QEAA@PEBD@Z ; ATL::CTraceCategoryEx<262144,0>::CTraceCategoryEx<262144,0>
PUBLIC	??0?$CTraceCategoryEx@$0BAAAAA@$0A@@ATL@@QEAA@PEBD@Z ; ATL::CTraceCategoryEx<1048576,0>::CTraceCategoryEx<1048576,0>
PUBLIC	??0?$CTraceCategoryEx@$0CAAAAA@$0A@@ATL@@QEAA@PEBD@Z ; ATL::CTraceCategoryEx<2097152,0>::CTraceCategoryEx<2097152,0>
PUBLIC	??0?$CTraceCategoryEx@$0EAAAAA@$0A@@ATL@@QEAA@PEBD@Z ; ATL::CTraceCategoryEx<4194304,0>::CTraceCategoryEx<4194304,0>
PUBLIC	?GetCategoryName@CTrace@ATL@@CAPEA_WI@Z		; ATL::CTrace::GetCategoryName
PUBLIC	?TraceV@CTrace@ATL@@CAXPEBDHIIPEB_W@Z		; ATL::CTrace::TraceV
PUBLIC	?TraceV@CTrace@ATL@@SAXPEBDHII0PEAD@Z		; ATL::CTrace::TraceV
PUBLIC	?RegisterCategory@CTrace@ATL@@SAXPEBDI@Z	; ATL::CTrace::RegisterCategory
PUBLIC	??0?$CHeapPtrBase@_WVCCRTAllocator@ATL@@@ATL@@IEAA@XZ ; ATL::CHeapPtrBase<wchar_t,ATL::CCRTAllocator>::CHeapPtrBase<wchar_t,ATL::CCRTAllocator>
PUBLIC	??1?$CHeapPtrBase@_WVCCRTAllocator@ATL@@@ATL@@QEAA@XZ ; ATL::CHeapPtrBase<wchar_t,ATL::CCRTAllocator>::~CHeapPtrBase<wchar_t,ATL::CCRTAllocator>
PUBLIC	??B?$CHeapPtrBase@_WVCCRTAllocator@ATL@@@ATL@@QEBAPEA_WXZ ; ATL::CHeapPtrBase<wchar_t,ATL::CCRTAllocator>::operator wchar_t *
PUBLIC	?AllocateBytes@?$CHeapPtrBase@_WVCCRTAllocator@ATL@@@ATL@@QEAA_N_K@Z ; ATL::CHeapPtrBase<wchar_t,ATL::CCRTAllocator>::AllocateBytes
PUBLIC	?Free@?$CHeapPtrBase@_WVCCRTAllocator@ATL@@@ATL@@QEAAXXZ ; ATL::CHeapPtrBase<wchar_t,ATL::CCRTAllocator>::Free
PUBLIC	??0?$CHeapPtr@_WVCCRTAllocator@ATL@@@ATL@@QEAA@XZ ; ATL::CHeapPtr<wchar_t,ATL::CCRTAllocator>::CHeapPtr<wchar_t,ATL::CCRTAllocator>
PUBLIC	?Allocate@?$CHeapPtr@_WVCCRTAllocator@ATL@@@ATL@@QEAA_N_K@Z ; ATL::CHeapPtr<wchar_t,ATL::CCRTAllocator>::Allocate
PUBLIC	??1?$CHeapPtr@_WVCCRTAllocator@ATL@@@ATL@@QEAA@XZ ; ATL::CHeapPtr<wchar_t,ATL::CCRTAllocator>::~CHeapPtr<wchar_t,ATL::CCRTAllocator>
PUBLIC	??0?$CHeapPtrBase@DVCCRTAllocator@ATL@@@ATL@@IEAA@XZ ; ATL::CHeapPtrBase<char,ATL::CCRTAllocator>::CHeapPtrBase<char,ATL::CCRTAllocator>
PUBLIC	??1?$CHeapPtrBase@DVCCRTAllocator@ATL@@@ATL@@QEAA@XZ ; ATL::CHeapPtrBase<char,ATL::CCRTAllocator>::~CHeapPtrBase<char,ATL::CCRTAllocator>
PUBLIC	??B?$CHeapPtrBase@DVCCRTAllocator@ATL@@@ATL@@QEBAPEADXZ ; ATL::CHeapPtrBase<char,ATL::CCRTAllocator>::operator char *
PUBLIC	?AllocateBytes@?$CHeapPtrBase@DVCCRTAllocator@ATL@@@ATL@@QEAA_N_K@Z ; ATL::CHeapPtrBase<char,ATL::CCRTAllocator>::AllocateBytes
PUBLIC	?Free@?$CHeapPtrBase@DVCCRTAllocator@ATL@@@ATL@@QEAAXXZ ; ATL::CHeapPtrBase<char,ATL::CCRTAllocator>::Free
PUBLIC	??0?$CHeapPtr@DVCCRTAllocator@ATL@@@ATL@@QEAA@XZ ; ATL::CHeapPtr<char,ATL::CCRTAllocator>::CHeapPtr<char,ATL::CCRTAllocator>
PUBLIC	?Allocate@?$CHeapPtr@DVCCRTAllocator@ATL@@@ATL@@QEAA_N_K@Z ; ATL::CHeapPtr<char,ATL::CCRTAllocator>::Allocate
PUBLIC	??1?$CHeapPtr@DVCCRTAllocator@ATL@@@ATL@@QEAA@XZ ; ATL::CHeapPtr<char,ATL::CCRTAllocator>::~CHeapPtr<char,ATL::CCRTAllocator>
PUBLIC	??0CPreserveLastError@ATL@@QEAA@XZ		; ATL::CPreserveLastError::CPreserveLastError
PUBLIC	??1CPreserveLastError@ATL@@QEAA@XZ		; ATL::CPreserveLastError::~CPreserveLastError
PUBLIC	??0CTraceFileAndLineInfo@ATL@@QEAA@PEBDH@Z	; ATL::CTraceFileAndLineInfo::CTraceFileAndLineInfo
PUBLIC	??RCTraceFileAndLineInfo@ATL@@QEBAXHIPEBDZZ	; ATL::CTraceFileAndLineInfo::operator()
PUBLIC	?_AtlRaiseException@ATL@@YAXKK@Z		; ATL::_AtlRaiseException
PUBLIC	?_AtlInitializeCriticalSectionEx@ATL@@YAHPEAU_RTL_CRITICAL_SECTION@@KK@Z ; ATL::_AtlInitializeCriticalSectionEx
PUBLIC	??0CComCriticalSection@ATL@@QEAA@XZ		; ATL::CComCriticalSection::CComCriticalSection
PUBLIC	??1CComCriticalSection@ATL@@QEAA@XZ		; ATL::CComCriticalSection::~CComCriticalSection
PUBLIC	?Init@CComCriticalSection@ATL@@QEAAJXZ		; ATL::CComCriticalSection::Init
PUBLIC	?Term@CComCriticalSection@ATL@@QEAAJXZ		; ATL::CComCriticalSection::Term
PUBLIC	?GetModuleInstance@CAtlBaseModule@ATL@@QEAAPEAUHINSTANCE__@@XZ ; ATL::CAtlBaseModule::GetModuleInstance
PUBLIC	?AtlComQIPtrAssign2@ATL@@YAXPEAPEAUIUnknown@@PEAU2@AEBU_GUID@@@Z ; ATL::AtlComQIPtrAssign2
PUBLIC	??0_ATL_COM_MODULE70@ATL@@QEAA@XZ		; ATL::_ATL_COM_MODULE70::_ATL_COM_MODULE70
PUBLIC	??1_ATL_COM_MODULE70@ATL@@QEAA@XZ		; ATL::_ATL_COM_MODULE70::~_ATL_COM_MODULE70
PUBLIC	??0?$CSimpleArray@GV?$CSimpleArrayEqualHelper@G@ATL@@@ATL@@QEAA@XZ ; ATL::CSimpleArray<unsigned short,ATL::CSimpleArrayEqualHelper<unsigned short> >::CSimpleArray<unsigned short,ATL::CSimpleArrayEqualHelper<unsigned short> >
PUBLIC	??1?$CSimpleArray@GV?$CSimpleArrayEqualHelper@G@ATL@@@ATL@@QEAA@XZ ; ATL::CSimpleArray<unsigned short,ATL::CSimpleArrayEqualHelper<unsigned short> >::~CSimpleArray<unsigned short,ATL::CSimpleArrayEqualHelper<unsigned short> >
PUBLIC	?GetSize@?$CSimpleArray@GV?$CSimpleArrayEqualHelper@G@ATL@@@ATL@@QEBAHXZ ; ATL::CSimpleArray<unsigned short,ATL::CSimpleArrayEqualHelper<unsigned short> >::GetSize
PUBLIC	?RemoveAll@?$CSimpleArray@GV?$CSimpleArrayEqualHelper@G@ATL@@@ATL@@QEAAXXZ ; ATL::CSimpleArray<unsigned short,ATL::CSimpleArrayEqualHelper<unsigned short> >::RemoveAll
PUBLIC	??A?$CSimpleArray@GV?$CSimpleArrayEqualHelper@G@ATL@@@ATL@@QEAAAEAGH@Z ; ATL::CSimpleArray<unsigned short,ATL::CSimpleArrayEqualHelper<unsigned short> >::operator[]
PUBLIC	??0_ATL_WIN_MODULE70@ATL@@QEAA@XZ		; ATL::_ATL_WIN_MODULE70::_ATL_WIN_MODULE70
PUBLIC	??1_ATL_WIN_MODULE70@ATL@@QEAA@XZ		; ATL::_ATL_WIN_MODULE70::~_ATL_WIN_MODULE70
PUBLIC	?AtlWinModuleInit@ATL@@YAJPEAU_ATL_WIN_MODULE70@1@@Z ; ATL::AtlWinModuleInit
PUBLIC	?AtlWinModuleTerm@ATL@@YAJPEAU_ATL_WIN_MODULE70@1@PEAUHINSTANCE__@@@Z ; ATL::AtlWinModuleTerm
PUBLIC	??0CAtlComModule@ATL@@QEAA@XZ			; ATL::CAtlComModule::CAtlComModule
PUBLIC	??1CAtlComModule@ATL@@QEAA@XZ			; ATL::CAtlComModule::~CAtlComModule
PUBLIC	?Term@CAtlComModule@ATL@@QEAAXXZ		; ATL::CAtlComModule::Term
PUBLIC	??0CAtlWinModule@ATL@@QEAA@XZ			; ATL::CAtlWinModule::CAtlWinModule
PUBLIC	??1CAtlWinModule@ATL@@QEAA@XZ			; ATL::CAtlWinModule::~CAtlWinModule
PUBLIC	?Term@CAtlWinModule@ATL@@QEAAXXZ		; ATL::CAtlWinModule::Term
PUBLIC	??0CQSVD3D11Device@@QEAA@XZ			; CQSVD3D11Device::CQSVD3D11Device
PUBLIC	??1CQSVD3D11Device@@UEAA@XZ			; CQSVD3D11Device::~CQSVD3D11Device
PUBLIC	?Init@CQSVD3D11Device@@UEAA?AW4mfxStatus@@PEAXIV?$shared_ptr@VRGYLog@@@std@@@Z ; CQSVD3D11Device::Init
PUBLIC	?Reset@CQSVD3D11Device@@UEAA?AW4mfxStatus@@XZ	; CQSVD3D11Device::Reset
PUBLIC	?GetHandle@CQSVD3D11Device@@UEAA?AW4mfxStatus@@W4mfxHandleType@@PEAPEAX@Z ; CQSVD3D11Device::GetHandle
PUBLIC	?Close@CQSVD3D11Device@@UEAAXXZ			; CQSVD3D11Device::Close
PUBLIC	?SetSCD1@CQSVD3D11Device@@IEAAXAEAUDXGI_SWAP_CHAIN_DESC1@@@Z ; CQSVD3D11Device::SetSCD1
PUBLIC	?CreateVideoProcessor@CQSVD3D11Device@@IEAA?AW4mfxStatus@@PEAUmfxFrameSurface1@@@Z ; CQSVD3D11Device::CreateVideoProcessor
PUBLIC	??0?$CComPtrBase@UID3D11Device@@@ATL@@IEAA@XZ	; ATL::CComPtrBase<ID3D11Device>::CComPtrBase<ID3D11Device>
PUBLIC	??1?$CComPtrBase@UID3D11Device@@@ATL@@QEAA@XZ	; ATL::CComPtrBase<ID3D11Device>::~CComPtrBase<ID3D11Device>
PUBLIC	??B?$CComPtrBase@UID3D11Device@@@ATL@@QEBAPEAUID3D11Device@@XZ ; ATL::CComPtrBase<ID3D11Device>::operator ID3D11Device *
PUBLIC	??I?$CComPtrBase@UID3D11Device@@@ATL@@QEAAPEAPEAUID3D11Device@@XZ ; ATL::CComPtrBase<ID3D11Device>::operator&
PUBLIC	??0?$CComPtr@UID3D11Device@@@ATL@@QEAA@XZ	; ATL::CComPtr<ID3D11Device>::CComPtr<ID3D11Device>
PUBLIC	??1?$CComPtr@UID3D11Device@@@ATL@@QEAA@XZ	; ATL::CComPtr<ID3D11Device>::~CComPtr<ID3D11Device>
PUBLIC	??0?$CComPtrBase@UID3D11DeviceContext@@@ATL@@IEAA@XZ ; ATL::CComPtrBase<ID3D11DeviceContext>::CComPtrBase<ID3D11DeviceContext>
PUBLIC	??1?$CComPtrBase@UID3D11DeviceContext@@@ATL@@QEAA@XZ ; ATL::CComPtrBase<ID3D11DeviceContext>::~CComPtrBase<ID3D11DeviceContext>
PUBLIC	??B?$CComPtrBase@UID3D11DeviceContext@@@ATL@@QEBAPEAUID3D11DeviceContext@@XZ ; ATL::CComPtrBase<ID3D11DeviceContext>::operator ID3D11DeviceContext *
PUBLIC	??I?$CComPtrBase@UID3D11DeviceContext@@@ATL@@QEAAPEAPEAUID3D11DeviceContext@@XZ ; ATL::CComPtrBase<ID3D11DeviceContext>::operator&
PUBLIC	??0?$CComPtr@UID3D11DeviceContext@@@ATL@@QEAA@XZ ; ATL::CComPtr<ID3D11DeviceContext>::CComPtr<ID3D11DeviceContext>
PUBLIC	??1?$CComPtr@UID3D11DeviceContext@@@ATL@@QEAA@XZ ; ATL::CComPtr<ID3D11DeviceContext>::~CComPtr<ID3D11DeviceContext>
PUBLIC	??0?$CComPtrBase@UID3D11VideoDevice@@@ATL@@IEAA@XZ ; ATL::CComPtrBase<ID3D11VideoDevice>::CComPtrBase<ID3D11VideoDevice>
PUBLIC	??1?$CComPtrBase@UID3D11VideoDevice@@@ATL@@QEAA@XZ ; ATL::CComPtrBase<ID3D11VideoDevice>::~CComPtrBase<ID3D11VideoDevice>
PUBLIC	??B?$CComPtrBase@UID3D11VideoDevice@@@ATL@@QEBAPEAUID3D11VideoDevice@@XZ ; ATL::CComPtrBase<ID3D11VideoDevice>::operator ID3D11VideoDevice *
PUBLIC	??C?$CComPtrBase@UID3D11VideoDevice@@@ATL@@QEBAPEAV?$_NoAddRefReleaseOnCComPtr@UID3D11VideoDevice@@@1@XZ ; ATL::CComPtrBase<ID3D11VideoDevice>::operator->
PUBLIC	??0?$CComPtr@UID3D11VideoDevice@@@ATL@@QEAA@XZ	; ATL::CComPtr<ID3D11VideoDevice>::CComPtr<ID3D11VideoDevice>
PUBLIC	??1?$CComPtr@UID3D11VideoDevice@@@ATL@@QEAA@XZ	; ATL::CComPtr<ID3D11VideoDevice>::~CComPtr<ID3D11VideoDevice>
PUBLIC	??0?$CComQIPtr@UID3D11VideoDevice@@$1?_GUID_10ec4d5b_975a_4689_b9e4_d0aac30fe333@@3U__s_GUID@@B@ATL@@QEAA@XZ ; ATL::CComQIPtr<ID3D11VideoDevice,&_GUID_10ec4d5b_975a_4689_b9e4_d0aac30fe333>::CComQIPtr<ID3D11VideoDevice,&_GUID_10ec4d5b_975a_4689_b9e4_d0aac30fe333>
PUBLIC	??4?$CComQIPtr@UID3D11VideoDevice@@$1?_GUID_10ec4d5b_975a_4689_b9e4_d0aac30fe333@@3U__s_GUID@@B@ATL@@QEAAPEAUID3D11VideoDevice@@PEAUIUnknown@@@Z ; ATL::CComQIPtr<ID3D11VideoDevice,&_GUID_10ec4d5b_975a_4689_b9e4_d0aac30fe333>::operator=
PUBLIC	??1?$CComQIPtr@UID3D11VideoDevice@@$1?_GUID_10ec4d5b_975a_4689_b9e4_d0aac30fe333@@3U__s_GUID@@B@ATL@@QEAA@XZ ; ATL::CComQIPtr<ID3D11VideoDevice,&_GUID_10ec4d5b_975a_4689_b9e4_d0aac30fe333>::~CComQIPtr<ID3D11VideoDevice,&_GUID_10ec4d5b_975a_4689_b9e4_d0aac30fe333>
PUBLIC	??0?$CComPtrBase@UID3D11VideoContext@@@ATL@@IEAA@XZ ; ATL::CComPtrBase<ID3D11VideoContext>::CComPtrBase<ID3D11VideoContext>
PUBLIC	??1?$CComPtrBase@UID3D11VideoContext@@@ATL@@QEAA@XZ ; ATL::CComPtrBase<ID3D11VideoContext>::~CComPtrBase<ID3D11VideoContext>
PUBLIC	??B?$CComPtrBase@UID3D11VideoContext@@@ATL@@QEBAPEAUID3D11VideoContext@@XZ ; ATL::CComPtrBase<ID3D11VideoContext>::operator ID3D11VideoContext *
PUBLIC	??0?$CComPtr@UID3D11VideoContext@@@ATL@@QEAA@XZ	; ATL::CComPtr<ID3D11VideoContext>::CComPtr<ID3D11VideoContext>
PUBLIC	??1?$CComPtr@UID3D11VideoContext@@@ATL@@QEAA@XZ	; ATL::CComPtr<ID3D11VideoContext>::~CComPtr<ID3D11VideoContext>
PUBLIC	??0?$CComQIPtr@UID3D11VideoContext@@$1?_GUID_61f21c45_3c0e_4a74_9cea_67100d9ad5e4@@3U__s_GUID@@B@ATL@@QEAA@XZ ; ATL::CComQIPtr<ID3D11VideoContext,&_GUID_61f21c45_3c0e_4a74_9cea_67100d9ad5e4>::CComQIPtr<ID3D11VideoContext,&_GUID_61f21c45_3c0e_4a74_9cea_67100d9ad5e4>
PUBLIC	??4?$CComQIPtr@UID3D11VideoContext@@$1?_GUID_61f21c45_3c0e_4a74_9cea_67100d9ad5e4@@3U__s_GUID@@B@ATL@@QEAAPEAUID3D11VideoContext@@PEAUIUnknown@@@Z ; ATL::CComQIPtr<ID3D11VideoContext,&_GUID_61f21c45_3c0e_4a74_9cea_67100d9ad5e4>::operator=
PUBLIC	??1?$CComQIPtr@UID3D11VideoContext@@$1?_GUID_61f21c45_3c0e_4a74_9cea_67100d9ad5e4@@3U__s_GUID@@B@ATL@@QEAA@XZ ; ATL::CComQIPtr<ID3D11VideoContext,&_GUID_61f21c45_3c0e_4a74_9cea_67100d9ad5e4>::~CComQIPtr<ID3D11VideoContext,&_GUID_61f21c45_3c0e_4a74_9cea_67100d9ad5e4>
PUBLIC	??0?$CComPtrBase@UID3D11VideoProcessorEnumerator@@@ATL@@IEAA@XZ ; ATL::CComPtrBase<ID3D11VideoProcessorEnumerator>::CComPtrBase<ID3D11VideoProcessorEnumerator>
PUBLIC	??1?$CComPtrBase@UID3D11VideoProcessorEnumerator@@@ATL@@QEAA@XZ ; ATL::CComPtrBase<ID3D11VideoProcessorEnumerator>::~CComPtrBase<ID3D11VideoProcessorEnumerator>
PUBLIC	??B?$CComPtrBase@UID3D11VideoProcessorEnumerator@@@ATL@@QEBAPEAUID3D11VideoProcessorEnumerator@@XZ ; ATL::CComPtrBase<ID3D11VideoProcessorEnumerator>::operator ID3D11VideoProcessorEnumerator *
PUBLIC	??I?$CComPtrBase@UID3D11VideoProcessorEnumerator@@@ATL@@QEAAPEAPEAUID3D11VideoProcessorEnumerator@@XZ ; ATL::CComPtrBase<ID3D11VideoProcessorEnumerator>::operator&
PUBLIC	??0?$CComPtr@UID3D11VideoProcessorEnumerator@@@ATL@@QEAA@XZ ; ATL::CComPtr<ID3D11VideoProcessorEnumerator>::CComPtr<ID3D11VideoProcessorEnumerator>
PUBLIC	??1?$CComPtr@UID3D11VideoProcessorEnumerator@@@ATL@@QEAA@XZ ; ATL::CComPtr<ID3D11VideoProcessorEnumerator>::~CComPtr<ID3D11VideoProcessorEnumerator>
PUBLIC	??0?$CComPtrBase@UIDXGIDevice1@@@ATL@@IEAA@XZ	; ATL::CComPtrBase<IDXGIDevice1>::CComPtrBase<IDXGIDevice1>
PUBLIC	??1?$CComPtrBase@UIDXGIDevice1@@@ATL@@QEAA@XZ	; ATL::CComPtrBase<IDXGIDevice1>::~CComPtrBase<IDXGIDevice1>
PUBLIC	??B?$CComPtrBase@UIDXGIDevice1@@@ATL@@QEBAPEAUIDXGIDevice1@@XZ ; ATL::CComPtrBase<IDXGIDevice1>::operator IDXGIDevice1 *
PUBLIC	??0?$CComPtr@UIDXGIDevice1@@@ATL@@QEAA@XZ	; ATL::CComPtr<IDXGIDevice1>::CComPtr<IDXGIDevice1>
PUBLIC	??1?$CComPtr@UIDXGIDevice1@@@ATL@@QEAA@XZ	; ATL::CComPtr<IDXGIDevice1>::~CComPtr<IDXGIDevice1>
PUBLIC	??0?$CComQIPtr@UIDXGIDevice1@@$1?_GUID_77db970f_6276_48ba_ba28_070143b4392c@@3U__s_GUID@@B@ATL@@QEAA@XZ ; ATL::CComQIPtr<IDXGIDevice1,&_GUID_77db970f_6276_48ba_ba28_070143b4392c>::CComQIPtr<IDXGIDevice1,&_GUID_77db970f_6276_48ba_ba28_070143b4392c>
PUBLIC	??4?$CComQIPtr@UIDXGIDevice1@@$1?_GUID_77db970f_6276_48ba_ba28_070143b4392c@@3U__s_GUID@@B@ATL@@QEAAPEAUIDXGIDevice1@@PEAUIUnknown@@@Z ; ATL::CComQIPtr<IDXGIDevice1,&_GUID_77db970f_6276_48ba_ba28_070143b4392c>::operator=
PUBLIC	??1?$CComQIPtr@UIDXGIDevice1@@$1?_GUID_77db970f_6276_48ba_ba28_070143b4392c@@3U__s_GUID@@B@ATL@@QEAA@XZ ; ATL::CComQIPtr<IDXGIDevice1,&_GUID_77db970f_6276_48ba_ba28_070143b4392c>::~CComQIPtr<IDXGIDevice1,&_GUID_77db970f_6276_48ba_ba28_070143b4392c>
PUBLIC	??0?$CComPtrBase@UIDXGIAdapter@@@ATL@@IEAA@XZ	; ATL::CComPtrBase<IDXGIAdapter>::CComPtrBase<IDXGIAdapter>
PUBLIC	??1?$CComPtrBase@UIDXGIAdapter@@@ATL@@QEAA@XZ	; ATL::CComPtrBase<IDXGIAdapter>::~CComPtrBase<IDXGIAdapter>
PUBLIC	??B?$CComPtrBase@UIDXGIAdapter@@@ATL@@QEBAPEAUIDXGIAdapter@@XZ ; ATL::CComPtrBase<IDXGIAdapter>::operator IDXGIAdapter *
PUBLIC	??I?$CComPtrBase@UIDXGIAdapter@@@ATL@@QEAAPEAPEAUIDXGIAdapter@@XZ ; ATL::CComPtrBase<IDXGIAdapter>::operator&
PUBLIC	??0?$CComPtr@UIDXGIAdapter@@@ATL@@QEAA@XZ	; ATL::CComPtr<IDXGIAdapter>::CComPtr<IDXGIAdapter>
PUBLIC	??1?$CComPtr@UIDXGIAdapter@@@ATL@@QEAA@XZ	; ATL::CComPtr<IDXGIAdapter>::~CComPtr<IDXGIAdapter>
PUBLIC	??0?$CComQIPtr@UIDXGIAdapter@@$1?_GUID_2411e7e1_12ac_4ccf_bd14_9798e8534dc0@@3U__s_GUID@@B@ATL@@QEAA@XZ ; ATL::CComQIPtr<IDXGIAdapter,&_GUID_2411e7e1_12ac_4ccf_bd14_9798e8534dc0>::CComQIPtr<IDXGIAdapter,&_GUID_2411e7e1_12ac_4ccf_bd14_9798e8534dc0>
PUBLIC	??1?$CComQIPtr@UIDXGIAdapter@@$1?_GUID_2411e7e1_12ac_4ccf_bd14_9798e8534dc0@@3U__s_GUID@@B@ATL@@QEAA@XZ ; ATL::CComQIPtr<IDXGIAdapter,&_GUID_2411e7e1_12ac_4ccf_bd14_9798e8534dc0>::~CComQIPtr<IDXGIAdapter,&_GUID_2411e7e1_12ac_4ccf_bd14_9798e8534dc0>
PUBLIC	??0?$CComPtrBase@UIDXGIFactory2@@@ATL@@IEAA@XZ	; ATL::CComPtrBase<IDXGIFactory2>::CComPtrBase<IDXGIFactory2>
PUBLIC	??1?$CComPtrBase@UIDXGIFactory2@@@ATL@@QEAA@XZ	; ATL::CComPtrBase<IDXGIFactory2>::~CComPtrBase<IDXGIFactory2>
PUBLIC	??I?$CComPtrBase@UIDXGIFactory2@@@ATL@@QEAAPEAPEAUIDXGIFactory2@@XZ ; ATL::CComPtrBase<IDXGIFactory2>::operator&
PUBLIC	??C?$CComPtrBase@UIDXGIFactory2@@@ATL@@QEBAPEAV?$_NoAddRefReleaseOnCComPtr@UIDXGIFactory2@@@1@XZ ; ATL::CComPtrBase<IDXGIFactory2>::operator->
PUBLIC	??0?$CComPtr@UIDXGIFactory2@@@ATL@@QEAA@XZ	; ATL::CComPtr<IDXGIFactory2>::CComPtr<IDXGIFactory2>
PUBLIC	??1?$CComPtr@UIDXGIFactory2@@@ATL@@QEAA@XZ	; ATL::CComPtr<IDXGIFactory2>::~CComPtr<IDXGIFactory2>
PUBLIC	??0?$CComPtrBase@UIDXGISwapChain1@@@ATL@@IEAA@XZ ; ATL::CComPtrBase<IDXGISwapChain1>::CComPtrBase<IDXGISwapChain1>
PUBLIC	??1?$CComPtrBase@UIDXGISwapChain1@@@ATL@@QEAA@XZ ; ATL::CComPtrBase<IDXGISwapChain1>::~CComPtrBase<IDXGISwapChain1>
PUBLIC	??I?$CComPtrBase@UIDXGISwapChain1@@@ATL@@QEAAPEAPEAUIDXGISwapChain1@@XZ ; ATL::CComPtrBase<IDXGISwapChain1>::operator&
PUBLIC	??0?$CComPtr@UIDXGISwapChain1@@@ATL@@QEAA@XZ	; ATL::CComPtr<IDXGISwapChain1>::CComPtr<IDXGISwapChain1>
PUBLIC	??1?$CComPtr@UIDXGISwapChain1@@@ATL@@QEAA@XZ	; ATL::CComPtr<IDXGISwapChain1>::~CComPtr<IDXGISwapChain1>
PUBLIC	??0?$CComPtrBase@UID3D11VideoProcessor@@@ATL@@IEAA@XZ ; ATL::CComPtrBase<ID3D11VideoProcessor>::CComPtrBase<ID3D11VideoProcessor>
PUBLIC	??1?$CComPtrBase@UID3D11VideoProcessor@@@ATL@@QEAA@XZ ; ATL::CComPtrBase<ID3D11VideoProcessor>::~CComPtrBase<ID3D11VideoProcessor>
PUBLIC	??I?$CComPtrBase@UID3D11VideoProcessor@@@ATL@@QEAAPEAPEAUID3D11VideoProcessor@@XZ ; ATL::CComPtrBase<ID3D11VideoProcessor>::operator&
PUBLIC	??0?$CComPtr@UID3D11VideoProcessor@@@ATL@@QEAA@XZ ; ATL::CComPtr<ID3D11VideoProcessor>::CComPtr<ID3D11VideoProcessor>
PUBLIC	??1?$CComPtr@UID3D11VideoProcessor@@@ATL@@QEAA@XZ ; ATL::CComPtr<ID3D11VideoProcessor>::~CComPtr<ID3D11VideoProcessor>
PUBLIC	??0?$CComPtrBase@UID3D11VideoProcessorInputView@@@ATL@@IEAA@XZ ; ATL::CComPtrBase<ID3D11VideoProcessorInputView>::CComPtrBase<ID3D11VideoProcessorInputView>
PUBLIC	??1?$CComPtrBase@UID3D11VideoProcessorInputView@@@ATL@@QEAA@XZ ; ATL::CComPtrBase<ID3D11VideoProcessorInputView>::~CComPtrBase<ID3D11VideoProcessorInputView>
PUBLIC	??0?$CComPtr@UID3D11VideoProcessorInputView@@@ATL@@QEAA@XZ ; ATL::CComPtr<ID3D11VideoProcessorInputView>::CComPtr<ID3D11VideoProcessorInputView>
PUBLIC	??1?$CComPtr@UID3D11VideoProcessorInputView@@@ATL@@QEAA@XZ ; ATL::CComPtr<ID3D11VideoProcessorInputView>::~CComPtr<ID3D11VideoProcessorInputView>
PUBLIC	??0?$CComPtrBase@UID3D11VideoProcessorOutputView@@@ATL@@IEAA@XZ ; ATL::CComPtrBase<ID3D11VideoProcessorOutputView>::CComPtrBase<ID3D11VideoProcessorOutputView>
PUBLIC	??1?$CComPtrBase@UID3D11VideoProcessorOutputView@@@ATL@@QEAA@XZ ; ATL::CComPtrBase<ID3D11VideoProcessorOutputView>::~CComPtrBase<ID3D11VideoProcessorOutputView>
PUBLIC	??0?$CComPtr@UID3D11VideoProcessorOutputView@@@ATL@@QEAA@XZ ; ATL::CComPtr<ID3D11VideoProcessorOutputView>::CComPtr<ID3D11VideoProcessorOutputView>
PUBLIC	??1?$CComPtr@UID3D11VideoProcessorOutputView@@@ATL@@QEAA@XZ ; ATL::CComPtr<ID3D11VideoProcessorOutputView>::~CComPtr<ID3D11VideoProcessorOutputView>
PUBLIC	??0?$CComPtrBase@UID3D11Texture2D@@@ATL@@IEAA@XZ ; ATL::CComPtrBase<ID3D11Texture2D>::CComPtrBase<ID3D11Texture2D>
PUBLIC	??1?$CComPtrBase@UID3D11Texture2D@@@ATL@@QEAA@XZ ; ATL::CComPtrBase<ID3D11Texture2D>::~CComPtrBase<ID3D11Texture2D>
PUBLIC	??0?$CComPtr@UID3D11Texture2D@@@ATL@@QEAA@XZ	; ATL::CComPtr<ID3D11Texture2D>::CComPtr<ID3D11Texture2D>
PUBLIC	??1?$CComPtr@UID3D11Texture2D@@@ATL@@QEAA@XZ	; ATL::CComPtr<ID3D11Texture2D>::~CComPtr<ID3D11Texture2D>
PUBLIC	??0?$CComPtrBase@UIDXGIDisplayControl@@@ATL@@IEAA@XZ ; ATL::CComPtrBase<IDXGIDisplayControl>::CComPtrBase<IDXGIDisplayControl>
PUBLIC	??1?$CComPtrBase@UIDXGIDisplayControl@@@ATL@@QEAA@XZ ; ATL::CComPtrBase<IDXGIDisplayControl>::~CComPtrBase<IDXGIDisplayControl>
PUBLIC	??0?$CComPtr@UIDXGIDisplayControl@@@ATL@@QEAA@XZ ; ATL::CComPtr<IDXGIDisplayControl>::CComPtr<IDXGIDisplayControl>
PUBLIC	??1?$CComPtr@UIDXGIDisplayControl@@@ATL@@QEAA@XZ ; ATL::CComPtr<IDXGIDisplayControl>::~CComPtr<IDXGIDisplayControl>
PUBLIC	??0?$CComPtrBase@UIDXGIOutput@@@ATL@@IEAA@XZ	; ATL::CComPtrBase<IDXGIOutput>::CComPtrBase<IDXGIOutput>
PUBLIC	??1?$CComPtrBase@UIDXGIOutput@@@ATL@@QEAA@XZ	; ATL::CComPtrBase<IDXGIOutput>::~CComPtrBase<IDXGIOutput>
PUBLIC	??0?$CComPtr@UIDXGIOutput@@@ATL@@QEAA@XZ	; ATL::CComPtr<IDXGIOutput>::CComPtr<IDXGIOutput>
PUBLIC	??1?$CComPtr@UIDXGIOutput@@@ATL@@QEAA@XZ	; ATL::CComPtr<IDXGIOutput>::~CComPtr<IDXGIOutput>
PUBLIC	??_GCQSVD3D11Device@@UEAAPEAXI@Z		; CQSVD3D11Device::`scalar deleting destructor'
PUBLIC	??$?CVRGYLog@@$0A@@?$shared_ptr@VRGYLog@@@std@@QEBAPEAVRGYLog@@XZ ; std::shared_ptr<RGYLog>::operator-><RGYLog,0>
PUBLIC	??0?$CComPtrBase@UID3D10Multithread@@@ATL@@IEAA@XZ ; ATL::CComPtrBase<ID3D10Multithread>::CComPtrBase<ID3D10Multithread>
PUBLIC	??1?$CComPtrBase@UID3D10Multithread@@@ATL@@QEAA@XZ ; ATL::CComPtrBase<ID3D10Multithread>::~CComPtrBase<ID3D10Multithread>
PUBLIC	??C?$CComPtrBase@UID3D10Multithread@@@ATL@@QEBAPEAV?$_NoAddRefReleaseOnCComPtr@UID3D10Multithread@@@1@XZ ; ATL::CComPtrBase<ID3D10Multithread>::operator->
PUBLIC	??7?$CComPtrBase@UID3D10Multithread@@@ATL@@QEBA_NXZ ; ATL::CComPtrBase<ID3D10Multithread>::operator!
PUBLIC	??0?$CComPtr@UID3D10Multithread@@@ATL@@QEAA@XZ	; ATL::CComPtr<ID3D10Multithread>::CComPtr<ID3D10Multithread>
PUBLIC	??1?$CComPtr@UID3D10Multithread@@@ATL@@QEAA@XZ	; ATL::CComPtr<ID3D10Multithread>::~CComPtr<ID3D10Multithread>
PUBLIC	??0?$CComQIPtr@UID3D10Multithread@@$1?_GUID_9b7e4e00_342c_4106_a19f_4f2704f689f0@@3U__s_GUID@@B@ATL@@QEAA@PEAUIUnknown@@@Z ; ATL::CComQIPtr<ID3D10Multithread,&_GUID_9b7e4e00_342c_4106_a19f_4f2704f689f0>::CComQIPtr<ID3D10Multithread,&_GUID_9b7e4e00_342c_4106_a19f_4f2704f689f0>
PUBLIC	??1?$CComQIPtr@UID3D10Multithread@@$1?_GUID_9b7e4e00_342c_4106_a19f_4f2704f689f0@@3U__s_GUID@@B@ATL@@QEAA@XZ ; ATL::CComQIPtr<ID3D10Multithread,&_GUID_9b7e4e00_342c_4106_a19f_4f2704f689f0>::~CComQIPtr<ID3D10Multithread,&_GUID_9b7e4e00_342c_4106_a19f_4f2704f689f0>
PUBLIC	??$AtlMultiply@_K@ATL@@YAJPEA_K_K1@Z		; ATL::AtlMultiply<unsigned __int64>
PUBLIC	??$_Copy_construct_from@VRGYLog@@@?$_Ptr_base@VRGYLog@@@std@@IEAAXAEBV?$shared_ptr@VRGYLog@@@1@@Z ; std::_Ptr_base<RGYLog>::_Copy_construct_from<RGYLog>
PUBLIC	??$swap@PEAVRGYLog@@X@std@@YAXAEAPEAVRGYLog@@0@Z ; std::swap<RGYLog *,void>
PUBLIC	??$swap@PEAV_Ref_count_base@std@@X@std@@YAXAEAPEAV_Ref_count_base@0@0@Z ; std::swap<std::_Ref_count_base *,void>
PUBLIC	??$move@AEAPEAVRGYLog@@@std@@YA$$QEAPEAVRGYLog@@AEAPEAV1@@Z ; std::move<RGYLog * &>
PUBLIC	??$move@AEAPEAV_Ref_count_base@std@@@std@@YA$$QEAPEAV_Ref_count_base@0@AEAPEAV10@@Z ; std::move<std::_Ref_count_base * &>
PUBLIC	??_C@_17CNPHIMPH@?$AA?$CF?$AAl?$AAs@		; `string'
PUBLIC	?_OptionsStorage@?1??__local_stdio_printf_options@@9@4_KA ; `__local_stdio_printf_options'::`2'::_OptionsStorage
PUBLIC	??_7CQSVHWDevice@@6B@				; CQSVHWDevice::`vftable'
PUBLIC	??_C@_13COJANIEC@?$AA0@				; `string'
PUBLIC	??_C@_1OE@BPCMJDLP@?$AAC?$AA?3?$AA?2?$AAP?$AAr?$AAo?$AAg?$AAr?$AAa?$AAm?$AA?5?$AAF?$AAi?$AAl?$AAe@ ; `string'
PUBLIC	?atlTraceGeneral@ATL@@3V?$CTraceCategoryEx@$00$0A@@1@A ; ATL::atlTraceGeneral
PUBLIC	?atlTraceCOM@ATL@@3V?$CTraceCategoryEx@$01$0A@@1@A ; ATL::atlTraceCOM
PUBLIC	?atlTraceQI@ATL@@3V?$CTraceCategoryEx@$03$0A@@1@A ; ATL::atlTraceQI
PUBLIC	?atlTraceRegistrar@ATL@@3V?$CTraceCategoryEx@$07$0A@@1@A ; ATL::atlTraceRegistrar
PUBLIC	?atlTraceRefcount@ATL@@3V?$CTraceCategoryEx@$0BA@$0A@@1@A ; ATL::atlTraceRefcount
PUBLIC	?atlTraceWindowing@ATL@@3V?$CTraceCategoryEx@$0CA@$0A@@1@A ; ATL::atlTraceWindowing
PUBLIC	?atlTraceControls@ATL@@3V?$CTraceCategoryEx@$0EA@$0A@@1@A ; ATL::atlTraceControls
PUBLIC	?atlTraceHosting@ATL@@3V?$CTraceCategoryEx@$0IA@$0A@@1@A ; ATL::atlTraceHosting
PUBLIC	?atlTraceDBClient@ATL@@3V?$CTraceCategoryEx@$0BAA@$0A@@1@A ; ATL::atlTraceDBClient
PUBLIC	?atlTraceDBProvider@ATL@@3V?$CTraceCategoryEx@$0CAA@$0A@@1@A ; ATL::atlTraceDBProvider
PUBLIC	?atlTraceSnapin@ATL@@3V?$CTraceCategoryEx@$0EAA@$0A@@1@A ; ATL::atlTraceSnapin
PUBLIC	?atlTraceNotImpl@ATL@@3V?$CTraceCategoryEx@$0IAA@$0A@@1@A ; ATL::atlTraceNotImpl
PUBLIC	?atlTraceAllocation@ATL@@3V?$CTraceCategoryEx@$0BAAA@$0A@@1@A ; ATL::atlTraceAllocation
PUBLIC	?atlTraceException@ATL@@3V?$CTraceCategoryEx@$0CAAA@$0A@@1@A ; ATL::atlTraceException
PUBLIC	?atlTraceTime@ATL@@3V?$CTraceCategoryEx@$0EAAA@$0A@@1@A ; ATL::atlTraceTime
PUBLIC	?atlTraceCache@ATL@@3V?$CTraceCategoryEx@$0IAAA@$0A@@1@A ; ATL::atlTraceCache
PUBLIC	?atlTraceStencil@ATL@@3V?$CTraceCategoryEx@$0BAAAA@$0A@@1@A ; ATL::atlTraceStencil
PUBLIC	?atlTraceString@ATL@@3V?$CTraceCategoryEx@$0CAAAA@$0A@@1@A ; ATL::atlTraceString
PUBLIC	?atlTraceMap@ATL@@3V?$CTraceCategoryEx@$0EAAAA@$0A@@1@A ; ATL::atlTraceMap
PUBLIC	?atlTraceUtil@ATL@@3V?$CTraceCategoryEx@$0IAAAA@$0A@@1@A ; ATL::atlTraceUtil
PUBLIC	?atlTraceSecurity@ATL@@3V?$CTraceCategoryEx@$0BAAAAA@$0A@@1@A ; ATL::atlTraceSecurity
PUBLIC	?atlTraceSync@ATL@@3V?$CTraceCategoryEx@$0CAAAAA@$0A@@1@A ; ATL::atlTraceSync
PUBLIC	?atlTraceISAPI@ATL@@3V?$CTraceCategoryEx@$0EAAAAA@$0A@@1@A ; ATL::atlTraceISAPI
PUBLIC	?m_nLevel@CTrace@ATL@@1IA			; ATL::CTrace::m_nLevel
PUBLIC	?m_nCategory@CTrace@ATL@@1IA			; ATL::CTrace::m_nCategory
PUBLIC	?m_nLastCategory@CTrace@ATL@@1IA		; ATL::CTrace::m_nLastCategory
PUBLIC	?m_nMap@CTrace@ATL@@1PAUCategoryMap@12@A	; ATL::CTrace::m_nMap
PUBLIC	??_C@_1O@LFNDFEBP@?$AA?$CF?$AAl?$AAs?$AA?5?$AA?9?$AA?5@ ; `string'
PUBLIC	??_C@_1M@PGKOAACE@?$AA?$CF?$AAu?$AA?5?$AA?9?$AA?5@ ; `string'
PUBLIC	??_C@_1O@OAIPCDPO@?$AA?$CF?$AAl?$AAs?$AA?$CF?$AAl?$AAs@ ; `string'
PUBLIC	??_C@_17LGGGMOOB@?$AA?$CF?$AAh?$AAs@		; `string'
PUBLIC	??_C@_1EO@EBPPKGOM@?$AAf?$AAa?$AAl?$AAs?$AAe?$AA?5?$AA?$CG?$AA?$CG?$AA?5?$AA?$CC?$AAT?$AAo?$AAo?$AA?5?$AAm@ ; `string'
PUBLIC	??_C@_1OE@GMIHPBDM@?$AAC?$AA?3?$AA?2?$AAP?$AAr?$AAo?$AAg?$AAr?$AAa?$AAm?$AA?5?$AAF?$AAi?$AAl?$AAe@ ; `string'
PUBLIC	?m_bInitFailed@CAtlBaseModule@ATL@@2_NA		; ATL::CAtlBaseModule::m_bInitFailed
PUBLIC	??_C@_1OG@ELICLKMH@?$AAC?$AA?3?$AA?2?$AAP?$AAr?$AAo?$AAg?$AAr?$AAa?$AAm?$AA?5?$AAF?$AAi?$AAl?$AAe@ ; `string'
PUBLIC	??_C@_1OC@KMMBJFLB@?$AAC?$AA?3?$AA?2?$AAP?$AAr?$AAo?$AAg?$AAr?$AAa?$AAm?$AA?5?$AAF?$AAi?$AAl?$AAe@ ; `string'
PUBLIC	??_C@_0HB@NHAHFMOE@C?3?2Program?5Files?5?$CIx86?$CJ?2Microsof@ ; `string'
PUBLIC	??_C@_0EA@EJEMLPD@ERROR?5?3?5Unable?5to?5initialize?5cr@ ; `string'
PUBLIC	?_AtlComModule@ATL@@3VCAtlComModule@1@A		; ATL::_AtlComModule
PUBLIC	?_AtlWinModule@ATL@@3VCAtlWinModule@1@A		; ATL::_AtlWinModule
PUBLIC	??_C@_0ED@GFNHMOFC@ERROR?5?3?5Unable?5to?5initialize?5cr@ ; `string'
PUBLIC	_GUID_10ec4d5b_975a_4689_b9e4_d0aac30fe333
PUBLIC	_GUID_61f21c45_3c0e_4a74_9cea_67100d9ad5e4
PUBLIC	_GUID_77db970f_6276_48ba_ba28_070143b4392c
PUBLIC	??_7CQSVD3D11Device@@6B@			; CQSVD3D11Device::`vftable'
PUBLIC	_GUID_50c83a1c_e072_4c48_87b0_3630fa36a6d0
PUBLIC	_GUID_9b7e4e00_342c_4106_a19f_4f2704f689f0
PUBLIC	??_C@_19JHCPJMAL@?$AAp?$AA?$CB?$AA?$DN?$AA0@	; `string'
PUBLIC	??_C@_19LMDLLIGP@?$AAp?$AA?$DN?$AA?$DN?$AA0@	; `string'
PUBLIC	??_C@_1EA@JHMKKLFC@?$AAn?$AAI?$AAn?$AAd?$AAe?$AAx?$AA?5?$AA?$DO?$AA?$DN?$AA?5?$AA0?$AA?5?$AA?$CG?$AA?$CG?$AA?5@ ; `string'
PUBLIC	??_C@_1OK@ENELOBIL@?$AAC?$AA?3?$AA?2?$AAP?$AAr?$AAo?$AAg?$AAr?$AAa?$AAm?$AA?5?$AAF?$AAi?$AAl?$AAe@ ; `string'
PUBLIC	??_C@_1BK@NHECDDNK@?$AAm?$AA_?$AAp?$AAD?$AAa?$AAt?$AAa?$AA?5?$AA?$DN?$AA?$DN?$AA?5?$AA0@ ; `string'
PUBLIC	??_R4CQSVHWDevice@@6B@				; CQSVHWDevice::`RTTI Complete Object Locator'
PUBLIC	??_R0?AVCQSVHWDevice@@@8			; CQSVHWDevice `RTTI Type Descriptor'
PUBLIC	??_R3CQSVHWDevice@@8				; CQSVHWDevice::`RTTI Class Hierarchy Descriptor'
PUBLIC	??_R2CQSVHWDevice@@8				; CQSVHWDevice::`RTTI Base Class Array'
PUBLIC	??_R1A@?0A@EA@CQSVHWDevice@@8			; CQSVHWDevice::`RTTI Base Class Descriptor at (0,-1,0,64)'
PUBLIC	??_R4CQSVD3D11Device@@6B@			; CQSVD3D11Device::`RTTI Complete Object Locator'
PUBLIC	??_R0?AVCQSVD3D11Device@@@8			; CQSVD3D11Device `RTTI Type Descriptor'
PUBLIC	??_R3CQSVD3D11Device@@8				; CQSVD3D11Device::`RTTI Class Hierarchy Descriptor'
PUBLIC	??_R2CQSVD3D11Device@@8				; CQSVD3D11Device::`RTTI Base Class Array'
PUBLIC	??_R1A@?0A@EA@CQSVD3D11Device@@8		; CQSVD3D11Device::`RTTI Base Class Descriptor at (0,-1,0,64)'
EXTRN	_purecall:PROC
EXTRN	??3@YAXPEAX_K@Z:PROC				; operator delete
EXTRN	atexit:PROC
EXTRN	__imp__CrtDbgReportW:PROC
EXTRN	__imp_free:PROC
EXTRN	__imp_malloc:PROC
EXTRN	__imp___stdio_common_vswprintf_s:PROC
EXTRN	__imp___stdio_common_vsprintf:PROC
EXTRN	__imp___stdio_common_vsnprintf_s:PROC
EXTRN	memset:PROC
EXTRN	__imp_wcscpy_s:PROC
EXTRN	__imp_wcslen:PROC
EXTRN	__imp_DecodePointer:PROC
EXTRN	__imp_RaiseException:PROC
EXTRN	__imp_GetLastError:PROC
EXTRN	__imp_SetLastError:PROC
EXTRN	__imp_InitializeCriticalSectionEx:PROC
EXTRN	__imp_DeleteCriticalSection:PROC
EXTRN	__imp_UnregisterClassA:PROC
EXTRN	__imp_MultiByteToWideChar:PROC
EXTRN	??_ECQSVHWDevice@@UEAAPEAXI@Z:PROC		; CQSVHWDevice::`vector deleting destructor'
EXTRN	CreateDXGIFactory:PROC
EXTRN	D3D11CreateDevice:PROC
EXTRN	??_ECQSVD3D11Device@@UEAAPEAXI@Z:PROC		; CQSVD3D11Device::`vector deleting destructor'
EXTRN	_RTC_CheckStackVars:PROC
EXTRN	_RTC_InitBase:PROC
EXTRN	_RTC_Shutdown:PROC
EXTRN	__CxxFrameHandler4:PROC
EXTRN	__GSHandlerCheck:PROC
EXTRN	__GSHandlerCheck_EH4:PROC
EXTRN	__security_check_cookie:PROC
EXTRN	??_7type_info@@6B@:BYTE				; type_info::`vftable'
EXTRN	?_AtlBaseModule@ATL@@3VCAtlBaseModule@1@A:BYTE	; ATL::_AtlBaseModule
EXTRN	__ImageBase:BYTE
EXTRN	__security_cookie:QWORD
;	COMDAT ?_OptionsStorage@?1??__local_stdio_printf_options@@9@4_KA
_BSS	SEGMENT
?_OptionsStorage@?1??__local_stdio_printf_options@@9@4_KA DQ 01H DUP (?) ; `__local_stdio_printf_options'::`2'::_OptionsStorage
_BSS	ENDS
_BSS	SEGMENT
?CspMatrixList@@3V?$array@W4CspMatrix@@$0O@@std@@B DB 038H DUP (?) ; CspMatrixList
?CspTransferList@@3V?$array@W4CspTransfer@@$0P@@std@@B DB 03cH DUP (?) ; CspTransferList
?CspColorprimList@@3V?$array@W4CspColorprim@@$0M@@std@@B DB 030H DUP (?) ; CspColorprimList
_BSS	ENDS
;	COMDAT ?atlTraceGeneral@ATL@@3V?$CTraceCategoryEx@$00$0A@@1@A
_BSS	SEGMENT
?atlTraceGeneral@ATL@@3V?$CTraceCategoryEx@$00$0A@@1@A DD 01H DUP (?) ; ATL::atlTraceGeneral
_BSS	ENDS
;	COMDAT ?atlTraceCOM@ATL@@3V?$CTraceCategoryEx@$01$0A@@1@A
_BSS	SEGMENT
?atlTraceCOM@ATL@@3V?$CTraceCategoryEx@$01$0A@@1@A DD 01H DUP (?) ; ATL::atlTraceCOM
_BSS	ENDS
;	COMDAT ?atlTraceQI@ATL@@3V?$CTraceCategoryEx@$03$0A@@1@A
_BSS	SEGMENT
?atlTraceQI@ATL@@3V?$CTraceCategoryEx@$03$0A@@1@A DD 01H DUP (?) ; ATL::atlTraceQI
_BSS	ENDS
;	COMDAT ?atlTraceRegistrar@ATL@@3V?$CTraceCategoryEx@$07$0A@@1@A
_BSS	SEGMENT
?atlTraceRegistrar@ATL@@3V?$CTraceCategoryEx@$07$0A@@1@A DD 01H DUP (?) ; ATL::atlTraceRegistrar
_BSS	ENDS
;	COMDAT ?atlTraceRefcount@ATL@@3V?$CTraceCategoryEx@$0BA@$0A@@1@A
_BSS	SEGMENT
?atlTraceRefcount@ATL@@3V?$CTraceCategoryEx@$0BA@$0A@@1@A DD 01H DUP (?) ; ATL::atlTraceRefcount
_BSS	ENDS
;	COMDAT ?atlTraceWindowing@ATL@@3V?$CTraceCategoryEx@$0CA@$0A@@1@A
_BSS	SEGMENT
?atlTraceWindowing@ATL@@3V?$CTraceCategoryEx@$0CA@$0A@@1@A DD 01H DUP (?) ; ATL::atlTraceWindowing
_BSS	ENDS
;	COMDAT ?atlTraceControls@ATL@@3V?$CTraceCategoryEx@$0EA@$0A@@1@A
_BSS	SEGMENT
?atlTraceControls@ATL@@3V?$CTraceCategoryEx@$0EA@$0A@@1@A DD 01H DUP (?) ; ATL::atlTraceControls
_BSS	ENDS
;	COMDAT ?atlTraceHosting@ATL@@3V?$CTraceCategoryEx@$0IA@$0A@@1@A
_BSS	SEGMENT
?atlTraceHosting@ATL@@3V?$CTraceCategoryEx@$0IA@$0A@@1@A DD 01H DUP (?) ; ATL::atlTraceHosting
_BSS	ENDS
;	COMDAT ?atlTraceDBClient@ATL@@3V?$CTraceCategoryEx@$0BAA@$0A@@1@A
_BSS	SEGMENT
?atlTraceDBClient@ATL@@3V?$CTraceCategoryEx@$0BAA@$0A@@1@A DD 01H DUP (?) ; ATL::atlTraceDBClient
_BSS	ENDS
;	COMDAT ?atlTraceDBProvider@ATL@@3V?$CTraceCategoryEx@$0CAA@$0A@@1@A
_BSS	SEGMENT
?atlTraceDBProvider@ATL@@3V?$CTraceCategoryEx@$0CAA@$0A@@1@A DD 01H DUP (?) ; ATL::atlTraceDBProvider
_BSS	ENDS
;	COMDAT ?atlTraceSnapin@ATL@@3V?$CTraceCategoryEx@$0EAA@$0A@@1@A
_BSS	SEGMENT
?atlTraceSnapin@ATL@@3V?$CTraceCategoryEx@$0EAA@$0A@@1@A DD 01H DUP (?) ; ATL::atlTraceSnapin
_BSS	ENDS
;	COMDAT ?atlTraceNotImpl@ATL@@3V?$CTraceCategoryEx@$0IAA@$0A@@1@A
_BSS	SEGMENT
?atlTraceNotImpl@ATL@@3V?$CTraceCategoryEx@$0IAA@$0A@@1@A DD 01H DUP (?) ; ATL::atlTraceNotImpl
_BSS	ENDS
;	COMDAT ?atlTraceAllocation@ATL@@3V?$CTraceCategoryEx@$0BAAA@$0A@@1@A
_BSS	SEGMENT
?atlTraceAllocation@ATL@@3V?$CTraceCategoryEx@$0BAAA@$0A@@1@A DD 01H DUP (?) ; ATL::atlTraceAllocation
_BSS	ENDS
;	COMDAT ?atlTraceException@ATL@@3V?$CTraceCategoryEx@$0CAAA@$0A@@1@A
_BSS	SEGMENT
?atlTraceException@ATL@@3V?$CTraceCategoryEx@$0CAAA@$0A@@1@A DD 01H DUP (?) ; ATL::atlTraceException
_BSS	ENDS
;	COMDAT ?atlTraceTime@ATL@@3V?$CTraceCategoryEx@$0EAAA@$0A@@1@A
_BSS	SEGMENT
?atlTraceTime@ATL@@3V?$CTraceCategoryEx@$0EAAA@$0A@@1@A DD 01H DUP (?) ; ATL::atlTraceTime
_BSS	ENDS
;	COMDAT ?atlTraceCache@ATL@@3V?$CTraceCategoryEx@$0IAAA@$0A@@1@A
_BSS	SEGMENT
?atlTraceCache@ATL@@3V?$CTraceCategoryEx@$0IAAA@$0A@@1@A DD 01H DUP (?) ; ATL::atlTraceCache
_BSS	ENDS
;	COMDAT ?atlTraceStencil@ATL@@3V?$CTraceCategoryEx@$0BAAAA@$0A@@1@A
_BSS	SEGMENT
?atlTraceStencil@ATL@@3V?$CTraceCategoryEx@$0BAAAA@$0A@@1@A DD 01H DUP (?) ; ATL::atlTraceStencil
_BSS	ENDS
;	COMDAT ?atlTraceString@ATL@@3V?$CTraceCategoryEx@$0CAAAA@$0A@@1@A
_BSS	SEGMENT
?atlTraceString@ATL@@3V?$CTraceCategoryEx@$0CAAAA@$0A@@1@A DD 01H DUP (?) ; ATL::atlTraceString
_BSS	ENDS
;	COMDAT ?atlTraceMap@ATL@@3V?$CTraceCategoryEx@$0EAAAA@$0A@@1@A
_BSS	SEGMENT
?atlTraceMap@ATL@@3V?$CTraceCategoryEx@$0EAAAA@$0A@@1@A DD 01H DUP (?) ; ATL::atlTraceMap
_BSS	ENDS
;	COMDAT ?atlTraceUtil@ATL@@3V?$CTraceCategoryEx@$0IAAAA@$0A@@1@A
_BSS	SEGMENT
?atlTraceUtil@ATL@@3V?$CTraceCategoryEx@$0IAAAA@$0A@@1@A DD 01H DUP (?) ; ATL::atlTraceUtil
_BSS	ENDS
;	COMDAT ?atlTraceSecurity@ATL@@3V?$CTraceCategoryEx@$0BAAAAA@$0A@@1@A
_BSS	SEGMENT
?atlTraceSecurity@ATL@@3V?$CTraceCategoryEx@$0BAAAAA@$0A@@1@A DD 01H DUP (?) ; ATL::atlTraceSecurity
_BSS	ENDS
;	COMDAT ?atlTraceSync@ATL@@3V?$CTraceCategoryEx@$0CAAAAA@$0A@@1@A
_BSS	SEGMENT
?atlTraceSync@ATL@@3V?$CTraceCategoryEx@$0CAAAAA@$0A@@1@A DD 01H DUP (?) ; ATL::atlTraceSync
_BSS	ENDS
;	COMDAT ?atlTraceISAPI@ATL@@3V?$CTraceCategoryEx@$0EAAAAA@$0A@@1@A
_BSS	SEGMENT
?atlTraceISAPI@ATL@@3V?$CTraceCategoryEx@$0EAAAAA@$0A@@1@A DD 01H DUP (?) ; ATL::atlTraceISAPI
_BSS	ENDS
;	COMDAT ?m_nLevel@CTrace@ATL@@1IA
_BSS	SEGMENT
?m_nLevel@CTrace@ATL@@1IA DD 01H DUP (?)		; ATL::CTrace::m_nLevel
_BSS	ENDS
;	COMDAT ?m_nLastCategory@CTrace@ATL@@1IA
_BSS	SEGMENT
?m_nLastCategory@CTrace@ATL@@1IA DD 01H DUP (?)		; ATL::CTrace::m_nLastCategory
_BSS	ENDS
;	COMDAT ?m_nMap@CTrace@ATL@@1PAUCategoryMap@12@A
_BSS	SEGMENT
?m_nMap@CTrace@ATL@@1PAUCategoryMap@12@A DB 02080H DUP (?) ; ATL::CTrace::m_nMap
_BSS	ENDS
;	COMDAT ?m_bInitFailed@CAtlBaseModule@ATL@@2_NA
_BSS	SEGMENT
?m_bInitFailed@CAtlBaseModule@ATL@@2_NA DB 01H DUP (?)	; ATL::CAtlBaseModule::m_bInitFailed
_BSS	ENDS
;	COMDAT ?_AtlComModule@ATL@@3VCAtlComModule@1@A
_BSS	SEGMENT
?_AtlComModule@ATL@@3VCAtlComModule@1@A DB 048H DUP (?)	; ATL::_AtlComModule
_BSS	ENDS
;	COMDAT ?_AtlWinModule@ATL@@3VCAtlWinModule@1@A
_BSS	SEGMENT
?_AtlWinModule@ATL@@3VCAtlWinModule@1@A DB 048H DUP (?)	; ATL::_AtlWinModule
_BSS	ENDS
;	COMDAT pdata
pdata	SEGMENT
$pdata$?__empty_global_delete@@YAXPEAX@Z DD imagerel $LN3
	DD	imagerel $LN3+8
	DD	imagerel $unwind$?__empty_global_delete@@YAXPEAX@Z
pdata	ENDS
;	COMDAT pdata
pdata	SEGMENT
$pdata$?__empty_global_delete@@YAXPEAX_K@Z DD imagerel $LN3
	DD	imagerel $LN3+13
	DD	imagerel $unwind$?__empty_global_delete@@YAXPEAX_K@Z
pdata	ENDS
;	COMDAT pdata
pdata	SEGMENT
$pdata$__local_stdio_printf_options DD imagerel $LN3
	DD	imagerel $LN3+11
	DD	imagerel $unwind$__local_stdio_printf_options
pdata	ENDS
;	COMDAT pdata
pdata	SEGMENT
$pdata$_vswprintf_s_l DD imagerel $LN5
	DD	imagerel $LN5+133
	DD	imagerel $unwind$_vswprintf_s_l
pdata	ENDS
;	COMDAT pdata
pdata	SEGMENT
$pdata$swprintf_s DD imagerel $LN3
	DD	imagerel $LN3+136
	DD	imagerel $unwind$swprintf_s
pdata	ENDS
;	COMDAT pdata
pdata	SEGMENT
$pdata$_vsnprintf_s_l DD imagerel $LN5
	DD	imagerel $LN5+149
	DD	imagerel $unwind$_vsnprintf_s_l
pdata	ENDS
;	COMDAT pdata
pdata	SEGMENT
$pdata$_vsnprintf_s DD imagerel $LN3
	DD	imagerel $LN3+95
	DD	imagerel $unwind$_vsnprintf_s
pdata	ENDS
;	COMDAT pdata
pdata	SEGMENT
$pdata$_vscprintf_l DD imagerel $LN5
	DD	imagerel $LN5+130
	DD	imagerel $unwind$_vscprintf_l
pdata	ENDS
;	COMDAT pdata
pdata	SEGMENT
$pdata$_vscprintf DD imagerel $LN3
	DD	imagerel $LN3+58
	DD	imagerel $unwind$_vscprintf
pdata	ENDS
;	COMDAT pdata
pdata	SEGMENT
$pdata$?_Incref@_Ref_count_base@std@@QEAAXXZ DD imagerel $LN3
	DD	imagerel $LN3+20
	DD	imagerel $unwind$?_Incref@_Ref_count_base@std@@QEAAXXZ
pdata	ENDS
;	COMDAT pdata
pdata	SEGMENT
$pdata$?_Decref@_Ref_count_base@std@@QEAAXXZ DD imagerel $LN4
	DD	imagerel $LN4+87
	DD	imagerel $unwind$?_Decref@_Ref_count_base@std@@QEAAXXZ
pdata	ENDS
;	COMDAT pdata
pdata	SEGMENT
$pdata$?_Decwref@_Ref_count_base@std@@QEAAXXZ DD imagerel $LN4
	DD	imagerel $LN4+78
	DD	imagerel $unwind$?_Decwref@_Ref_count_base@std@@QEAAXXZ
pdata	ENDS
;	COMDAT pdata
pdata	SEGMENT
$pdata$HRESULT_FROM_WIN32 DD imagerel $LN5
	DD	imagerel $LN5+74
	DD	imagerel $unwind$HRESULT_FROM_WIN32
pdata	ENDS
;	COMDAT pdata
pdata	SEGMENT
$pdata$??$make_array@W4CspMatrix@@W41@W41@W41@W41@W41@W41@W41@W41@W41@W41@W41@W41@W41@W41@@@YA?AV?$array@W4CspMatrix@@$0O@@std@@$$QEAW4CspMatrix@@0000000000000@Z DD imagerel $LN3
	DD	imagerel $LN3+297
	DD	imagerel $unwind$??$make_array@W4CspMatrix@@W41@W41@W41@W41@W41@W41@W41@W41@W41@W41@W41@W41@W41@W41@@@YA?AV?$array@W4CspMatrix@@$0O@@std@@$$QEAW4CspMatrix@@0000000000000@Z
pdata	ENDS
;	COMDAT pdata
pdata	SEGMENT
$pdata$??__ECspMatrixList@@YAXXZ DD imagerel ??__ECspMatrixList@@YAXXZ
	DD	imagerel ??__ECspMatrixList@@YAXXZ+452
	DD	imagerel $unwind$??__ECspMatrixList@@YAXXZ
pdata	ENDS
;	COMDAT pdata
pdata	SEGMENT
$pdata$??$make_array@W4CspTransfer@@W41@W41@W41@W41@W41@W41@W41@W41@W41@W41@W41@W41@W41@W41@W41@@@YA?AV?$array@W4CspTransfer@@$0P@@std@@$$QEAW4CspTransfer@@00000000000000@Z DD imagerel $LN3
	DD	imagerel $LN3+311
	DD	imagerel $unwind$??$make_array@W4CspTransfer@@W41@W41@W41@W41@W41@W41@W41@W41@W41@W41@W41@W41@W41@W41@W41@@@YA?AV?$array@W4CspTransfer@@$0P@@std@@$$QEAW4CspTransfer@@00000000000000@Z
pdata	ENDS
;	COMDAT pdata
pdata	SEGMENT
$pdata$??__ECspTransferList@@YAXXZ DD imagerel ??__ECspTransferList@@YAXXZ
	DD	imagerel ??__ECspTransferList@@YAXXZ+476
	DD	imagerel $unwind$??__ECspTransferList@@YAXXZ
pdata	ENDS
;	COMDAT pdata
pdata	SEGMENT
$pdata$??$make_array@W4CspColorprim@@W41@W41@W41@W41@W41@W41@W41@W41@W41@W41@W41@W41@@@YA?AV?$array@W4CspColorprim@@$0M@@std@@$$QEAW4CspColorprim@@00000000000@Z DD imagerel $LN3
	DD	imagerel $LN3+263
	DD	imagerel $unwind$??$make_array@W4CspColorprim@@W41@W41@W41@W41@W41@W41@W41@W41@W41@W41@W41@W41@@@YA?AV?$array@W4CspColorprim@@$0M@@std@@$$QEAW4CspColorprim@@00000000000@Z
pdata	ENDS
;	COMDAT pdata
pdata	SEGMENT
$pdata$??__ECspColorprimList@@YAXXZ DD imagerel ??__ECspColorprimList@@YAXXZ
	DD	imagerel ??__ECspColorprimList@@YAXXZ+398
	DD	imagerel $unwind$??__ECspColorprimList@@YAXXZ
pdata	ENDS
;	COMDAT pdata
pdata	SEGMENT
$pdata$??0CQSVHWDevice@@QEAA@XZ DD imagerel $LN4
	DD	imagerel $LN4+74
	DD	imagerel $unwind$??0CQSVHWDevice@@QEAA@XZ
pdata	ENDS
;	COMDAT pdata
pdata	SEGMENT
$pdata$?dtor$0@?0???0CQSVHWDevice@@QEAA@XZ@4HA DD imagerel ?dtor$0@?0???0CQSVHWDevice@@QEAA@XZ@4HA
	DD	imagerel ?dtor$0@?0???0CQSVHWDevice@@QEAA@XZ@4HA+39
	DD	imagerel $unwind$?dtor$0@?0???0CQSVHWDevice@@QEAA@XZ@4HA
pdata	ENDS
;	COMDAT pdata
pdata	SEGMENT
$pdata$??1CQSVHWDevice@@UEAA@XZ DD imagerel $LN4
	DD	imagerel $LN4+69
	DD	imagerel $unwind$??1CQSVHWDevice@@UEAA@XZ
pdata	ENDS
;	COMDAT pdata
pdata	SEGMENT
$pdata$?dtor$0@?0???1CQSVHWDevice@@UEAA@XZ@4HA DD imagerel ?dtor$0@?0???1CQSVHWDevice@@UEAA@XZ@4HA
	DD	imagerel ?dtor$0@?0???1CQSVHWDevice@@UEAA@XZ@4HA+39
	DD	imagerel $unwind$?dtor$0@?0???1CQSVHWDevice@@UEAA@XZ@4HA
pdata	ENDS
;	COMDAT pdata
pdata	SEGMENT
$pdata$?get@?$_Ptr_base@VRGYLog@@@std@@IEBAPEAVRGYLog@@XZ DD imagerel $LN3
	DD	imagerel $LN3+16
	DD	imagerel $unwind$?get@?$_Ptr_base@VRGYLog@@@std@@IEBAPEAVRGYLog@@XZ
pdata	ENDS
;	COMDAT pdata
pdata	SEGMENT
$pdata$??0?$_Ptr_base@VRGYLog@@@std@@IEAA@XZ DD imagerel $LN3
	DD	imagerel $LN3+38
	DD	imagerel $unwind$??0?$_Ptr_base@VRGYLog@@@std@@IEAA@XZ
pdata	ENDS
;	COMDAT pdata
pdata	SEGMENT
$pdata$?_Decref@?$_Ptr_base@VRGYLog@@@std@@IEAAXXZ DD imagerel $LN4
	DD	imagerel $LN4+62
	DD	imagerel $unwind$?_Decref@?$_Ptr_base@VRGYLog@@@std@@IEAAXXZ
pdata	ENDS
;	COMDAT pdata
pdata	SEGMENT
$pdata$?_Swap@?$_Ptr_base@VRGYLog@@@std@@IEAAXAEAV12@@Z DD imagerel $LN3
	DD	imagerel $LN3+85
	DD	imagerel $unwind$?_Swap@?$_Ptr_base@VRGYLog@@@std@@IEAAXAEAV12@@Z
pdata	ENDS
;	COMDAT pdata
pdata	SEGMENT
$pdata$??0?$shared_ptr@VRGYLog@@@std@@QEAA@XZ DD imagerel $LN3
	DD	imagerel $LN3+51
	DD	imagerel $unwind$??0?$shared_ptr@VRGYLog@@@std@@QEAA@XZ
pdata	ENDS
;	COMDAT pdata
pdata	SEGMENT
$pdata$??0?$shared_ptr@VRGYLog@@@std@@QEAA@AEBV01@@Z DD imagerel $LN3
	DD	imagerel $LN3+71
	DD	imagerel $unwind$??0?$shared_ptr@VRGYLog@@@std@@QEAA@AEBV01@@Z
pdata	ENDS
;	COMDAT pdata
pdata	SEGMENT
$pdata$??1?$shared_ptr@VRGYLog@@@std@@QEAA@XZ DD imagerel $LN3
	DD	imagerel $LN3+46
	DD	imagerel $unwind$??1?$shared_ptr@VRGYLog@@@std@@QEAA@XZ
pdata	ENDS
;	COMDAT pdata
pdata	SEGMENT
$pdata$??4?$shared_ptr@VRGYLog@@@std@@QEAAAEAV01@AEBV01@@Z DD imagerel $LN4
	DD	imagerel $LN4+104
	DD	imagerel $unwind$??4?$shared_ptr@VRGYLog@@@std@@QEAAAEAV01@AEBV01@@Z
pdata	ENDS
;	COMDAT pdata
pdata	SEGMENT
$pdata$?dtor$0@?0???4?$shared_ptr@VRGYLog@@@std@@QEAAAEAV01@AEBV01@@Z@4HA DD imagerel ?dtor$0@?0???4?$shared_ptr@VRGYLog@@@std@@QEAAAEAV01@AEBV01@@Z@4HA
	DD	imagerel ?dtor$0@?0???4?$shared_ptr@VRGYLog@@@std@@QEAAAEAV01@AEBV01@@Z@4HA+35
	DD	imagerel $unwind$?dtor$0@?0???4?$shared_ptr@VRGYLog@@@std@@QEAAAEAV01@AEBV01@@Z@4HA
pdata	ENDS
;	COMDAT pdata
pdata	SEGMENT
$pdata$?swap@?$shared_ptr@VRGYLog@@@std@@QEAAXAEAV12@@Z DD imagerel $LN3
	DD	imagerel $LN3+56
	DD	imagerel $unwind$?swap@?$shared_ptr@VRGYLog@@@std@@QEAAXAEAV12@@Z
pdata	ENDS
;	COMDAT pdata
pdata	SEGMENT
$pdata$?reset@?$shared_ptr@VRGYLog@@@std@@QEAAXXZ DD imagerel $LN4
	DD	imagerel $LN4+89
	DD	imagerel $unwind$?reset@?$shared_ptr@VRGYLog@@@std@@QEAAXXZ
pdata	ENDS
;	COMDAT pdata
pdata	SEGMENT
$pdata$?dtor$0@?0??reset@?$shared_ptr@VRGYLog@@@std@@QEAAXXZ@4HA DD imagerel ?dtor$0@?0??reset@?$shared_ptr@VRGYLog@@@std@@QEAAXXZ@4HA
	DD	imagerel ?dtor$0@?0??reset@?$shared_ptr@VRGYLog@@@std@@QEAAXXZ@4HA+35
	DD	imagerel $unwind$?dtor$0@?0??reset@?$shared_ptr@VRGYLog@@@std@@QEAAXXZ@4HA
pdata	ENDS
;	COMDAT pdata
pdata	SEGMENT
$pdata$??_GCQSVHWDevice@@UEAAPEAXI@Z DD imagerel $LN4
	DD	imagerel $LN4+81
	DD	imagerel $unwind$??_GCQSVHWDevice@@UEAAPEAXI@Z
pdata	ENDS
;	COMDAT pdata
pdata	SEGMENT
$pdata$?Allocate@CCRTAllocator@ATL@@SAPEAX_K@Z DD imagerel $LN3
	DD	imagerel $LN3+47
	DD	imagerel $unwind$?Allocate@CCRTAllocator@ATL@@SAPEAX_K@Z
pdata	ENDS
;	COMDAT pdata
pdata	SEGMENT
$pdata$?Free@CCRTAllocator@ATL@@SAXPEAX@Z DD imagerel $LN3
	DD	imagerel $LN3+47
	DD	imagerel $unwind$?Free@CCRTAllocator@ATL@@SAXPEAX@Z
pdata	ENDS
;	COMDAT pdata
pdata	SEGMENT
$pdata$??0?$CTraceCategoryEx@$0IAAAA@$0A@@ATL@@QEAA@PEBD@Z DD imagerel $LN3
	DD	imagerel $LN3+61
	DD	imagerel $unwind$??0?$CTraceCategoryEx@$0IAAAA@$0A@@ATL@@QEAA@PEBD@Z
pdata	ENDS
;	COMDAT pdata
pdata	SEGMENT
$pdata$??0?$CTraceCategoryEx@$00$0A@@ATL@@QEAA@PEBD@Z DD imagerel $LN3
	DD	imagerel $LN3+61
	DD	imagerel $unwind$??0?$CTraceCategoryEx@$00$0A@@ATL@@QEAA@PEBD@Z
pdata	ENDS
;	COMDAT pdata
pdata	SEGMENT
$pdata$??__EatlTraceGeneral@ATL@@YAXXZ DD imagerel ??__EatlTraceGeneral@ATL@@YAXXZ
	DD	imagerel ??__EatlTraceGeneral@ATL@@YAXXZ+46
	DD	imagerel $unwind$??__EatlTraceGeneral@ATL@@YAXXZ
pdata	ENDS
;	COMDAT pdata
pdata	SEGMENT
$pdata$??0?$CTraceCategoryEx@$01$0A@@ATL@@QEAA@PEBD@Z DD imagerel $LN3
	DD	imagerel $LN3+61
	DD	imagerel $unwind$??0?$CTraceCategoryEx@$01$0A@@ATL@@QEAA@PEBD@Z
pdata	ENDS
;	COMDAT pdata
pdata	SEGMENT
$pdata$??B?$CTraceCategoryEx@$01$0A@@ATL@@QEAAIXZ DD imagerel $LN3
	DD	imagerel $LN3+13
	DD	imagerel $unwind$??B?$CTraceCategoryEx@$01$0A@@ATL@@QEAAIXZ
pdata	ENDS
;	COMDAT pdata
pdata	SEGMENT
$pdata$??__EatlTraceCOM@ATL@@YAXXZ DD imagerel ??__EatlTraceCOM@ATL@@YAXXZ
	DD	imagerel ??__EatlTraceCOM@ATL@@YAXXZ+46
	DD	imagerel $unwind$??__EatlTraceCOM@ATL@@YAXXZ
pdata	ENDS
;	COMDAT pdata
pdata	SEGMENT
$pdata$??0?$CTraceCategoryEx@$03$0A@@ATL@@QEAA@PEBD@Z DD imagerel $LN3
	DD	imagerel $LN3+61
	DD	imagerel $unwind$??0?$CTraceCategoryEx@$03$0A@@ATL@@QEAA@PEBD@Z
pdata	ENDS
;	COMDAT pdata
pdata	SEGMENT
$pdata$??__EatlTraceQI@ATL@@YAXXZ DD imagerel ??__EatlTraceQI@ATL@@YAXXZ
	DD	imagerel ??__EatlTraceQI@ATL@@YAXXZ+46
	DD	imagerel $unwind$??__EatlTraceQI@ATL@@YAXXZ
pdata	ENDS
;	COMDAT pdata
pdata	SEGMENT
$pdata$??0?$CTraceCategoryEx@$07$0A@@ATL@@QEAA@PEBD@Z DD imagerel $LN3
	DD	imagerel $LN3+61
	DD	imagerel $unwind$??0?$CTraceCategoryEx@$07$0A@@ATL@@QEAA@PEBD@Z
pdata	ENDS
;	COMDAT pdata
pdata	SEGMENT
$pdata$??__EatlTraceRegistrar@ATL@@YAXXZ DD imagerel ??__EatlTraceRegistrar@ATL@@YAXXZ
	DD	imagerel ??__EatlTraceRegistrar@ATL@@YAXXZ+46
	DD	imagerel $unwind$??__EatlTraceRegistrar@ATL@@YAXXZ
pdata	ENDS
;	COMDAT pdata
pdata	SEGMENT
$pdata$??0?$CTraceCategoryEx@$0BA@$0A@@ATL@@QEAA@PEBD@Z DD imagerel $LN3
	DD	imagerel $LN3+61
	DD	imagerel $unwind$??0?$CTraceCategoryEx@$0BA@$0A@@ATL@@QEAA@PEBD@Z
pdata	ENDS
;	COMDAT pdata
pdata	SEGMENT
$pdata$??__EatlTraceRefcount@ATL@@YAXXZ DD imagerel ??__EatlTraceRefcount@ATL@@YAXXZ
	DD	imagerel ??__EatlTraceRefcount@ATL@@YAXXZ+46
	DD	imagerel $unwind$??__EatlTraceRefcount@ATL@@YAXXZ
pdata	ENDS
;	COMDAT pdata
pdata	SEGMENT
$pdata$??0?$CTraceCategoryEx@$0CA@$0A@@ATL@@QEAA@PEBD@Z DD imagerel $LN3
	DD	imagerel $LN3+61
	DD	imagerel $unwind$??0?$CTraceCategoryEx@$0CA@$0A@@ATL@@QEAA@PEBD@Z
pdata	ENDS
;	COMDAT pdata
pdata	SEGMENT
$pdata$??B?$CTraceCategoryEx@$0CA@$0A@@ATL@@QEAAIXZ DD imagerel $LN3
	DD	imagerel $LN3+13
	DD	imagerel $unwind$??B?$CTraceCategoryEx@$0CA@$0A@@ATL@@QEAAIXZ
pdata	ENDS
;	COMDAT pdata
pdata	SEGMENT
$pdata$??__EatlTraceWindowing@ATL@@YAXXZ DD imagerel ??__EatlTraceWindowing@ATL@@YAXXZ
	DD	imagerel ??__EatlTraceWindowing@ATL@@YAXXZ+46
	DD	imagerel $unwind$??__EatlTraceWindowing@ATL@@YAXXZ
pdata	ENDS
;	COMDAT pdata
pdata	SEGMENT
$pdata$??0?$CTraceCategoryEx@$0EA@$0A@@ATL@@QEAA@PEBD@Z DD imagerel $LN3
	DD	imagerel $LN3+61
	DD	imagerel $unwind$??0?$CTraceCategoryEx@$0EA@$0A@@ATL@@QEAA@PEBD@Z
pdata	ENDS
;	COMDAT pdata
pdata	SEGMENT
$pdata$??__EatlTraceControls@ATL@@YAXXZ DD imagerel ??__EatlTraceControls@ATL@@YAXXZ
	DD	imagerel ??__EatlTraceControls@ATL@@YAXXZ+46
	DD	imagerel $unwind$??__EatlTraceControls@ATL@@YAXXZ
pdata	ENDS
;	COMDAT pdata
pdata	SEGMENT
$pdata$??0?$CTraceCategoryEx@$0IA@$0A@@ATL@@QEAA@PEBD@Z DD imagerel $LN3
	DD	imagerel $LN3+61
	DD	imagerel $unwind$??0?$CTraceCategoryEx@$0IA@$0A@@ATL@@QEAA@PEBD@Z
pdata	ENDS
;	COMDAT pdata
pdata	SEGMENT
$pdata$??__EatlTraceHosting@ATL@@YAXXZ DD imagerel ??__EatlTraceHosting@ATL@@YAXXZ
	DD	imagerel ??__EatlTraceHosting@ATL@@YAXXZ+46
	DD	imagerel $unwind$??__EatlTraceHosting@ATL@@YAXXZ
pdata	ENDS
;	COMDAT pdata
pdata	SEGMENT
$pdata$??0?$CTraceCategoryEx@$0BAA@$0A@@ATL@@QEAA@PEBD@Z DD imagerel $LN3
	DD	imagerel $LN3+61
	DD	imagerel $unwind$??0?$CTraceCategoryEx@$0BAA@$0A@@ATL@@QEAA@PEBD@Z
pdata	ENDS
;	COMDAT pdata
pdata	SEGMENT
$pdata$??__EatlTraceDBClient@ATL@@YAXXZ DD imagerel ??__EatlTraceDBClient@ATL@@YAXXZ
	DD	imagerel ??__EatlTraceDBClient@ATL@@YAXXZ+46
	DD	imagerel $unwind$??__EatlTraceDBClient@ATL@@YAXXZ
pdata	ENDS
;	COMDAT pdata
pdata	SEGMENT
$pdata$??0?$CTraceCategoryEx@$0CAA@$0A@@ATL@@QEAA@PEBD@Z DD imagerel $LN3
	DD	imagerel $LN3+61
	DD	imagerel $unwind$??0?$CTraceCategoryEx@$0CAA@$0A@@ATL@@QEAA@PEBD@Z
pdata	ENDS
;	COMDAT pdata
pdata	SEGMENT
$pdata$??__EatlTraceDBProvider@ATL@@YAXXZ DD imagerel ??__EatlTraceDBProvider@ATL@@YAXXZ
	DD	imagerel ??__EatlTraceDBProvider@ATL@@YAXXZ+46
	DD	imagerel $unwind$??__EatlTraceDBProvider@ATL@@YAXXZ
pdata	ENDS
;	COMDAT pdata
pdata	SEGMENT
$pdata$??0?$CTraceCategoryEx@$0EAA@$0A@@ATL@@QEAA@PEBD@Z DD imagerel $LN3
	DD	imagerel $LN3+61
	DD	imagerel $unwind$??0?$CTraceCategoryEx@$0EAA@$0A@@ATL@@QEAA@PEBD@Z
pdata	ENDS
;	COMDAT pdata
pdata	SEGMENT
$pdata$??__EatlTraceSnapin@ATL@@YAXXZ DD imagerel ??__EatlTraceSnapin@ATL@@YAXXZ
	DD	imagerel ??__EatlTraceSnapin@ATL@@YAXXZ+46
	DD	imagerel $unwind$??__EatlTraceSnapin@ATL@@YAXXZ
pdata	ENDS
;	COMDAT pdata
pdata	SEGMENT
$pdata$??0?$CTraceCategoryEx@$0IAA@$0A@@ATL@@QEAA@PEBD@Z DD imagerel $LN3
	DD	imagerel $LN3+61
	DD	imagerel $unwind$??0?$CTraceCategoryEx@$0IAA@$0A@@ATL@@QEAA@PEBD@Z
pdata	ENDS
;	COMDAT pdata
pdata	SEGMENT
$pdata$??__EatlTraceNotImpl@ATL@@YAXXZ DD imagerel ??__EatlTraceNotImpl@ATL@@YAXXZ
	DD	imagerel ??__EatlTraceNotImpl@ATL@@YAXXZ+46
	DD	imagerel $unwind$??__EatlTraceNotImpl@ATL@@YAXXZ
pdata	ENDS
;	COMDAT pdata
pdata	SEGMENT
$pdata$??0?$CTraceCategoryEx@$0BAAA@$0A@@ATL@@QEAA@PEBD@Z DD imagerel $LN3
	DD	imagerel $LN3+61
	DD	imagerel $unwind$??0?$CTraceCategoryEx@$0BAAA@$0A@@ATL@@QEAA@PEBD@Z
pdata	ENDS
;	COMDAT pdata
pdata	SEGMENT
$pdata$??__EatlTraceAllocation@ATL@@YAXXZ DD imagerel ??__EatlTraceAllocation@ATL@@YAXXZ
	DD	imagerel ??__EatlTraceAllocation@ATL@@YAXXZ+46
	DD	imagerel $unwind$??__EatlTraceAllocation@ATL@@YAXXZ
pdata	ENDS
;	COMDAT pdata
pdata	SEGMENT
$pdata$??0?$CTraceCategoryEx@$0CAAA@$0A@@ATL@@QEAA@PEBD@Z DD imagerel $LN3
	DD	imagerel $LN3+61
	DD	imagerel $unwind$??0?$CTraceCategoryEx@$0CAAA@$0A@@ATL@@QEAA@PEBD@Z
pdata	ENDS
;	COMDAT pdata
pdata	SEGMENT
$pdata$??__EatlTraceException@ATL@@YAXXZ DD imagerel ??__EatlTraceException@ATL@@YAXXZ
	DD	imagerel ??__EatlTraceException@ATL@@YAXXZ+46
	DD	imagerel $unwind$??__EatlTraceException@ATL@@YAXXZ
pdata	ENDS
;	COMDAT pdata
pdata	SEGMENT
$pdata$??0?$CTraceCategoryEx@$0EAAA@$0A@@ATL@@QEAA@PEBD@Z DD imagerel $LN3
	DD	imagerel $LN3+61
	DD	imagerel $unwind$??0?$CTraceCategoryEx@$0EAAA@$0A@@ATL@@QEAA@PEBD@Z
pdata	ENDS
;	COMDAT pdata
pdata	SEGMENT
$pdata$??__EatlTraceTime@ATL@@YAXXZ DD imagerel ??__EatlTraceTime@ATL@@YAXXZ
	DD	imagerel ??__EatlTraceTime@ATL@@YAXXZ+46
	DD	imagerel $unwind$??__EatlTraceTime@ATL@@YAXXZ
pdata	ENDS
;	COMDAT pdata
pdata	SEGMENT
$pdata$??0?$CTraceCategoryEx@$0IAAA@$0A@@ATL@@QEAA@PEBD@Z DD imagerel $LN3
	DD	imagerel $LN3+61
	DD	imagerel $unwind$??0?$CTraceCategoryEx@$0IAAA@$0A@@ATL@@QEAA@PEBD@Z
pdata	ENDS
;	COMDAT pdata
pdata	SEGMENT
$pdata$??__EatlTraceCache@ATL@@YAXXZ DD imagerel ??__EatlTraceCache@ATL@@YAXXZ
	DD	imagerel ??__EatlTraceCache@ATL@@YAXXZ+46
	DD	imagerel $unwind$??__EatlTraceCache@ATL@@YAXXZ
pdata	ENDS
;	COMDAT pdata
pdata	SEGMENT
$pdata$??0?$CTraceCategoryEx@$0BAAAA@$0A@@ATL@@QEAA@PEBD@Z DD imagerel $LN3
	DD	imagerel $LN3+61
	DD	imagerel $unwind$??0?$CTraceCategoryEx@$0BAAAA@$0A@@ATL@@QEAA@PEBD@Z
pdata	ENDS
;	COMDAT pdata
pdata	SEGMENT
$pdata$??__EatlTraceStencil@ATL@@YAXXZ DD imagerel ??__EatlTraceStencil@ATL@@YAXXZ
	DD	imagerel ??__EatlTraceStencil@ATL@@YAXXZ+46
	DD	imagerel $unwind$??__EatlTraceStencil@ATL@@YAXXZ
pdata	ENDS
;	COMDAT pdata
pdata	SEGMENT
$pdata$??0?$CTraceCategoryEx@$0CAAAA@$0A@@ATL@@QEAA@PEBD@Z DD imagerel $LN3
	DD	imagerel $LN3+61
	DD	imagerel $unwind$??0?$CTraceCategoryEx@$0CAAAA@$0A@@ATL@@QEAA@PEBD@Z
pdata	ENDS
;	COMDAT pdata
pdata	SEGMENT
$pdata$??__EatlTraceString@ATL@@YAXXZ DD imagerel ??__EatlTraceString@ATL@@YAXXZ
	DD	imagerel ??__EatlTraceString@ATL@@YAXXZ+46
	DD	imagerel $unwind$??__EatlTraceString@ATL@@YAXXZ
pdata	ENDS
;	COMDAT pdata
pdata	SEGMENT
$pdata$??0?$CTraceCategoryEx@$0EAAAA@$0A@@ATL@@QEAA@PEBD@Z DD imagerel $LN3
	DD	imagerel $LN3+61
	DD	imagerel $unwind$??0?$CTraceCategoryEx@$0EAAAA@$0A@@ATL@@QEAA@PEBD@Z
pdata	ENDS
;	COMDAT pdata
pdata	SEGMENT
$pdata$??__EatlTraceMap@ATL@@YAXXZ DD imagerel ??__EatlTraceMap@ATL@@YAXXZ
	DD	imagerel ??__EatlTraceMap@ATL@@YAXXZ+46
	DD	imagerel $unwind$??__EatlTraceMap@ATL@@YAXXZ
pdata	ENDS
;	COMDAT pdata
pdata	SEGMENT
$pdata$??__EatlTraceUtil@ATL@@YAXXZ DD imagerel ??__EatlTraceUtil@ATL@@YAXXZ
	DD	imagerel ??__EatlTraceUtil@ATL@@YAXXZ+46
	DD	imagerel $unwind$??__EatlTraceUtil@ATL@@YAXXZ
pdata	ENDS
;	COMDAT pdata
pdata	SEGMENT
$pdata$??0?$CTraceCategoryEx@$0BAAAAA@$0A@@ATL@@QEAA@PEBD@Z DD imagerel $LN3
	DD	imagerel $LN3+61
	DD	imagerel $unwind$??0?$CTraceCategoryEx@$0BAAAAA@$0A@@ATL@@QEAA@PEBD@Z
pdata	ENDS
;	COMDAT pdata
pdata	SEGMENT
$pdata$??__EatlTraceSecurity@ATL@@YAXXZ DD imagerel ??__EatlTraceSecurity@ATL@@YAXXZ
	DD	imagerel ??__EatlTraceSecurity@ATL@@YAXXZ+46
	DD	imagerel $unwind$??__EatlTraceSecurity@ATL@@YAXXZ
pdata	ENDS
;	COMDAT pdata
pdata	SEGMENT
$pdata$??0?$CTraceCategoryEx@$0CAAAAA@$0A@@ATL@@QEAA@PEBD@Z DD imagerel $LN3
	DD	imagerel $LN3+61
	DD	imagerel $unwind$??0?$CTraceCategoryEx@$0CAAAAA@$0A@@ATL@@QEAA@PEBD@Z
pdata	ENDS
;	COMDAT pdata
pdata	SEGMENT
$pdata$??__EatlTraceSync@ATL@@YAXXZ DD imagerel ??__EatlTraceSync@ATL@@YAXXZ
	DD	imagerel ??__EatlTraceSync@ATL@@YAXXZ+46
	DD	imagerel $unwind$??__EatlTraceSync@ATL@@YAXXZ
pdata	ENDS
;	COMDAT pdata
pdata	SEGMENT
$pdata$??0?$CTraceCategoryEx@$0EAAAAA@$0A@@ATL@@QEAA@PEBD@Z DD imagerel $LN3
	DD	imagerel $LN3+61
	DD	imagerel $unwind$??0?$CTraceCategoryEx@$0EAAAAA@$0A@@ATL@@QEAA@PEBD@Z
pdata	ENDS
;	COMDAT pdata
pdata	SEGMENT
$pdata$??__EatlTraceISAPI@ATL@@YAXXZ DD imagerel ??__EatlTraceISAPI@ATL@@YAXXZ
	DD	imagerel ??__EatlTraceISAPI@ATL@@YAXXZ+46
	DD	imagerel $unwind$??__EatlTraceISAPI@ATL@@YAXXZ
pdata	ENDS
;	COMDAT pdata
pdata	SEGMENT
$pdata$?GetCategoryName@CTrace@ATL@@CAPEA_WI@Z DD imagerel $LN7
	DD	imagerel $LN7+116
	DD	imagerel $unwind$?GetCategoryName@CTrace@ATL@@CAPEA_WI@Z
pdata	ENDS
;	COMDAT pdata
pdata	SEGMENT
$pdata$?TraceV@CTrace@ATL@@CAXPEBDHIIPEB_W@Z DD imagerel $LN13
	DD	imagerel $LN13+686
	DD	imagerel $unwind$?TraceV@CTrace@ATL@@CAXPEBDHIIPEB_W@Z
pdata	ENDS
;	COMDAT pdata
pdata	SEGMENT
$pdata$?dtor$0@?0??TraceV@CTrace@ATL@@CAXPEBDHIIPEB_W@Z@4HA DD imagerel ?dtor$0@?0??TraceV@CTrace@ATL@@CAXPEBDHIIPEB_W@Z@4HA
	DD	imagerel ?dtor$0@?0??TraceV@CTrace@ATL@@CAXPEBDHIIPEB_W@Z@4HA+38
	DD	imagerel $unwind$?dtor$0@?0??TraceV@CTrace@ATL@@CAXPEBDHIIPEB_W@Z@4HA
pdata	ENDS
;	COMDAT pdata
pdata	SEGMENT
$pdata$?TraceV@CTrace@ATL@@SAXPEBDHII0PEAD@Z DD imagerel $LN10
	DD	imagerel $LN10+567
	DD	imagerel $unwind$?TraceV@CTrace@ATL@@SAXPEBDHII0PEAD@Z
pdata	ENDS
;	COMDAT pdata
pdata	SEGMENT
$pdata$?dtor$0@?0??TraceV@CTrace@ATL@@SAXPEBDHII0PEAD@Z@4HA DD imagerel ?dtor$0@?0??TraceV@CTrace@ATL@@SAXPEBDHII0PEAD@Z@4HA
	DD	imagerel ?dtor$0@?0??TraceV@CTrace@ATL@@SAXPEBDHII0PEAD@Z@4HA+35
	DD	imagerel $unwind$?dtor$0@?0??TraceV@CTrace@ATL@@SAXPEBDHII0PEAD@Z@4HA
pdata	ENDS
;	COMDAT pdata
pdata	SEGMENT
$pdata$?dtor$1@?0??TraceV@CTrace@ATL@@SAXPEBDHII0PEAD@Z@4HA DD imagerel ?dtor$1@?0??TraceV@CTrace@ATL@@SAXPEBDHII0PEAD@Z@4HA
	DD	imagerel ?dtor$1@?0??TraceV@CTrace@ATL@@SAXPEBDHII0PEAD@Z@4HA+35
	DD	imagerel $unwind$?dtor$1@?0??TraceV@CTrace@ATL@@SAXPEBDHII0PEAD@Z@4HA
pdata	ENDS
;	COMDAT pdata
pdata	SEGMENT
$pdata$?RegisterCategory@CTrace@ATL@@SAXPEBDI@Z DD imagerel $LN6
	DD	imagerel $LN6+328
	DD	imagerel $unwind$?RegisterCategory@CTrace@ATL@@SAXPEBDI@Z
pdata	ENDS
;	COMDAT pdata
pdata	SEGMENT
$pdata$??0?$CHeapPtrBase@_WVCCRTAllocator@ATL@@@ATL@@IEAA@XZ DD imagerel $LN3
	DD	imagerel $LN3+25
	DD	imagerel $unwind$??0?$CHeapPtrBase@_WVCCRTAllocator@ATL@@@ATL@@IEAA@XZ
pdata	ENDS
;	COMDAT pdata
pdata	SEGMENT
$pdata$??1?$CHeapPtrBase@_WVCCRTAllocator@ATL@@@ATL@@QEAA@XZ DD imagerel $LN3
	DD	imagerel $LN3+46
	DD	imagerel $unwind$??1?$CHeapPtrBase@_WVCCRTAllocator@ATL@@@ATL@@QEAA@XZ
pdata	ENDS
;	COMDAT pdata
pdata	SEGMENT
$pdata$??B?$CHeapPtrBase@_WVCCRTAllocator@ATL@@@ATL@@QEBAPEA_WXZ DD imagerel $LN3
	DD	imagerel $LN3+16
	DD	imagerel $unwind$??B?$CHeapPtrBase@_WVCCRTAllocator@ATL@@@ATL@@QEBAPEA_WXZ
pdata	ENDS
;	COMDAT pdata
pdata	SEGMENT
$pdata$?AllocateBytes@?$CHeapPtrBase@_WVCCRTAllocator@ATL@@@ATL@@QEAA_N_K@Z DD imagerel $LN5
	DD	imagerel $LN5+146
	DD	imagerel $unwind$?AllocateBytes@?$CHeapPtrBase@_WVCCRTAllocator@ATL@@@ATL@@QEAA_N_K@Z
pdata	ENDS
;	COMDAT pdata
pdata	SEGMENT
$pdata$?Free@?$CHeapPtrBase@_WVCCRTAllocator@ATL@@@ATL@@QEAAXXZ DD imagerel $LN3
	DD	imagerel $LN3+61
	DD	imagerel $unwind$?Free@?$CHeapPtrBase@_WVCCRTAllocator@ATL@@@ATL@@QEAAXXZ
pdata	ENDS
;	COMDAT pdata
pdata	SEGMENT
$pdata$??0?$CHeapPtr@_WVCCRTAllocator@ATL@@@ATL@@QEAA@XZ DD imagerel $LN4
	DD	imagerel $LN4+52
	DD	imagerel $unwind$??0?$CHeapPtr@_WVCCRTAllocator@ATL@@@ATL@@QEAA@XZ
pdata	ENDS
;	COMDAT pdata
pdata	SEGMENT
$pdata$?dtor$0@?0???0?$CHeapPtr@_WVCCRTAllocator@ATL@@@ATL@@QEAA@XZ@4HA DD imagerel ?dtor$0@?0???0?$CHeapPtr@_WVCCRTAllocator@ATL@@@ATL@@QEAA@XZ@4HA
	DD	imagerel ?dtor$0@?0???0?$CHeapPtr@_WVCCRTAllocator@ATL@@@ATL@@QEAA@XZ@4HA+35
	DD	imagerel $unwind$?dtor$0@?0???0?$CHeapPtr@_WVCCRTAllocator@ATL@@@ATL@@QEAA@XZ@4HA
pdata	ENDS
;	COMDAT pdata
pdata	SEGMENT
$pdata$?Allocate@?$CHeapPtr@_WVCCRTAllocator@ATL@@@ATL@@QEAA_N_K@Z DD imagerel $LN4
	DD	imagerel $LN4+115
	DD	imagerel $unwind$?Allocate@?$CHeapPtr@_WVCCRTAllocator@ATL@@@ATL@@QEAA_N_K@Z
pdata	ENDS
;	COMDAT pdata
pdata	SEGMENT
$pdata$??1?$CHeapPtr@_WVCCRTAllocator@ATL@@@ATL@@QEAA@XZ DD imagerel $LN4
	DD	imagerel $LN4+47
	DD	imagerel $unwind$??1?$CHeapPtr@_WVCCRTAllocator@ATL@@@ATL@@QEAA@XZ
pdata	ENDS
;	COMDAT pdata
pdata	SEGMENT
$pdata$?dtor$0@?0???1?$CHeapPtr@_WVCCRTAllocator@ATL@@@ATL@@QEAA@XZ@4HA DD imagerel ?dtor$0@?0???1?$CHeapPtr@_WVCCRTAllocator@ATL@@@ATL@@QEAA@XZ@4HA
	DD	imagerel ?dtor$0@?0???1?$CHeapPtr@_WVCCRTAllocator@ATL@@@ATL@@QEAA@XZ@4HA+35
	DD	imagerel $unwind$?dtor$0@?0???1?$CHeapPtr@_WVCCRTAllocator@ATL@@@ATL@@QEAA@XZ@4HA
pdata	ENDS
;	COMDAT pdata
pdata	SEGMENT
$pdata$??0?$CHeapPtrBase@DVCCRTAllocator@ATL@@@ATL@@IEAA@XZ DD imagerel $LN3
	DD	imagerel $LN3+25
	DD	imagerel $unwind$??0?$CHeapPtrBase@DVCCRTAllocator@ATL@@@ATL@@IEAA@XZ
pdata	ENDS
;	COMDAT pdata
pdata	SEGMENT
$pdata$??1?$CHeapPtrBase@DVCCRTAllocator@ATL@@@ATL@@QEAA@XZ DD imagerel $LN3
	DD	imagerel $LN3+46
	DD	imagerel $unwind$??1?$CHeapPtrBase@DVCCRTAllocator@ATL@@@ATL@@QEAA@XZ
pdata	ENDS
;	COMDAT pdata
pdata	SEGMENT
$pdata$??B?$CHeapPtrBase@DVCCRTAllocator@ATL@@@ATL@@QEBAPEADXZ DD imagerel $LN3
	DD	imagerel $LN3+16
	DD	imagerel $unwind$??B?$CHeapPtrBase@DVCCRTAllocator@ATL@@@ATL@@QEBAPEADXZ
pdata	ENDS
;	COMDAT pdata
pdata	SEGMENT
$pdata$?AllocateBytes@?$CHeapPtrBase@DVCCRTAllocator@ATL@@@ATL@@QEAA_N_K@Z DD imagerel $LN5
	DD	imagerel $LN5+146
	DD	imagerel $unwind$?AllocateBytes@?$CHeapPtrBase@DVCCRTAllocator@ATL@@@ATL@@QEAA_N_K@Z
pdata	ENDS
;	COMDAT pdata
pdata	SEGMENT
$pdata$?Free@?$CHeapPtrBase@DVCCRTAllocator@ATL@@@ATL@@QEAAXXZ DD imagerel $LN3
	DD	imagerel $LN3+61
	DD	imagerel $unwind$?Free@?$CHeapPtrBase@DVCCRTAllocator@ATL@@@ATL@@QEAAXXZ
pdata	ENDS
;	COMDAT pdata
pdata	SEGMENT
$pdata$??0?$CHeapPtr@DVCCRTAllocator@ATL@@@ATL@@QEAA@XZ DD imagerel $LN4
	DD	imagerel $LN4+52
	DD	imagerel $unwind$??0?$CHeapPtr@DVCCRTAllocator@ATL@@@ATL@@QEAA@XZ
pdata	ENDS
;	COMDAT pdata
pdata	SEGMENT
$pdata$?dtor$0@?0???0?$CHeapPtr@DVCCRTAllocator@ATL@@@ATL@@QEAA@XZ@4HA DD imagerel ?dtor$0@?0???0?$CHeapPtr@DVCCRTAllocator@ATL@@@ATL@@QEAA@XZ@4HA
	DD	imagerel ?dtor$0@?0???0?$CHeapPtr@DVCCRTAllocator@ATL@@@ATL@@QEAA@XZ@4HA+35
	DD	imagerel $unwind$?dtor$0@?0???0?$CHeapPtr@DVCCRTAllocator@ATL@@@ATL@@QEAA@XZ@4HA
pdata	ENDS
;	COMDAT pdata
pdata	SEGMENT
$pdata$?Allocate@?$CHeapPtr@DVCCRTAllocator@ATL@@@ATL@@QEAA_N_K@Z DD imagerel $LN4
	DD	imagerel $LN4+115
	DD	imagerel $unwind$?Allocate@?$CHeapPtr@DVCCRTAllocator@ATL@@@ATL@@QEAA_N_K@Z
pdata	ENDS
;	COMDAT pdata
pdata	SEGMENT
$pdata$??1?$CHeapPtr@DVCCRTAllocator@ATL@@@ATL@@QEAA@XZ DD imagerel $LN4
	DD	imagerel $LN4+47
	DD	imagerel $unwind$??1?$CHeapPtr@DVCCRTAllocator@ATL@@@ATL@@QEAA@XZ
pdata	ENDS
;	COMDAT pdata
pdata	SEGMENT
$pdata$?dtor$0@?0???1?$CHeapPtr@DVCCRTAllocator@ATL@@@ATL@@QEAA@XZ@4HA DD imagerel ?dtor$0@?0???1?$CHeapPtr@DVCCRTAllocator@ATL@@@ATL@@QEAA@XZ@4HA
	DD	imagerel ?dtor$0@?0???1?$CHeapPtr@DVCCRTAllocator@ATL@@@ATL@@QEAA@XZ@4HA+35
	DD	imagerel $unwind$?dtor$0@?0???1?$CHeapPtr@DVCCRTAllocator@ATL@@@ATL@@QEAA@XZ@4HA
pdata	ENDS
;	COMDAT pdata
pdata	SEGMENT
$pdata$??0CPreserveLastError@ATL@@QEAA@XZ DD imagerel $LN3
	DD	imagerel $LN3+54
	DD	imagerel $unwind$??0CPreserveLastError@ATL@@QEAA@XZ
pdata	ENDS
;	COMDAT pdata
pdata	SEGMENT
$pdata$??1CPreserveLastError@ATL@@QEAA@XZ DD imagerel $LN3
	DD	imagerel $LN3+50
	DD	imagerel $unwind$??1CPreserveLastError@ATL@@QEAA@XZ
pdata	ENDS
;	COMDAT pdata
pdata	SEGMENT
$pdata$??0CTraceFileAndLineInfo@ATL@@QEAA@PEBDH@Z DD imagerel $LN3
	DD	imagerel $LN3+48
	DD	imagerel $unwind$??0CTraceFileAndLineInfo@ATL@@QEAA@PEBDH@Z
pdata	ENDS
;	COMDAT pdata
pdata	SEGMENT
$pdata$??RCTraceFileAndLineInfo@ATL@@QEBAXHIPEBDZZ DD imagerel $LN4
	DD	imagerel $LN4+177
	DD	imagerel $unwind$??RCTraceFileAndLineInfo@ATL@@QEBAXHIPEBDZZ
pdata	ENDS
;	COMDAT pdata
pdata	SEGMENT
$pdata$?dtor$0@?0???RCTraceFileAndLineInfo@ATL@@QEBAXHIPEBDZZ@4HA DD imagerel ?dtor$0@?0???RCTraceFileAndLineInfo@ATL@@QEBAXHIPEBDZZ@4HA
	DD	imagerel ?dtor$0@?0???RCTraceFileAndLineInfo@ATL@@QEBAXHIPEBDZZ@4HA+35
	DD	imagerel $unwind$?dtor$0@?0???RCTraceFileAndLineInfo@ATL@@QEBAXHIPEBDZZ@4HA
pdata	ENDS
;	COMDAT pdata
pdata	SEGMENT
$pdata$?_AtlRaiseException@ATL@@YAXKK@Z DD imagerel $LN3
	DD	imagerel $LN3+58
	DD	imagerel $unwind$?_AtlRaiseException@ATL@@YAXKK@Z
pdata	ENDS
;	COMDAT pdata
pdata	SEGMENT
$pdata$?_AtlInitializeCriticalSectionEx@ATL@@YAHPEAU_RTL_CRITICAL_SECTION@@KK@Z DD imagerel $LN3
	DD	imagerel $LN3+65
	DD	imagerel $unwind$?_AtlInitializeCriticalSectionEx@ATL@@YAHPEAU_RTL_CRITICAL_SECTION@@KK@Z
pdata	ENDS
;	COMDAT pdata
pdata	SEGMENT
$pdata$??0CComCriticalSection@ATL@@QEAA@XZ DD imagerel $LN3
	DD	imagerel $LN3+62
	DD	imagerel $unwind$??0CComCriticalSection@ATL@@QEAA@XZ
pdata	ENDS
;	COMDAT pdata
pdata	SEGMENT
$pdata$??1CComCriticalSection@ATL@@QEAA@XZ DD imagerel $LN3
	DD	imagerel $LN3+8
	DD	imagerel $unwind$??1CComCriticalSection@ATL@@QEAA@XZ
pdata	ENDS
;	COMDAT pdata
pdata	SEGMENT
$pdata$?Init@CComCriticalSection@ATL@@QEAAJXZ DD imagerel $LN4
	DD	imagerel $LN4+87
	DD	imagerel $unwind$?Init@CComCriticalSection@ATL@@QEAAJXZ
pdata	ENDS
;	COMDAT pdata
pdata	SEGMENT
$pdata$?Term@CComCriticalSection@ATL@@QEAAJXZ DD imagerel $LN3
	DD	imagerel $LN3+52
	DD	imagerel $unwind$?Term@CComCriticalSection@ATL@@QEAAJXZ
pdata	ENDS
;	COMDAT pdata
pdata	SEGMENT
$pdata$?GetModuleInstance@CAtlBaseModule@ATL@@QEAAPEAUHINSTANCE__@@XZ DD imagerel $LN3
	DD	imagerel $LN3+17
	DD	imagerel $unwind$?GetModuleInstance@CAtlBaseModule@ATL@@QEAAPEAUHINSTANCE__@@XZ
pdata	ENDS
;	COMDAT pdata
pdata	SEGMENT
$pdata$?AtlComQIPtrAssign2@ATL@@YAXPEAPEAUIUnknown@@PEAU2@AEBU_GUID@@@Z DD imagerel $LN6
	DD	imagerel $LN6+132
	DD	imagerel $unwind$?AtlComQIPtrAssign2@ATL@@YAXPEAPEAUIUnknown@@PEAU2@AEBU_GUID@@@Z
pdata	ENDS
;	COMDAT pdata
pdata	SEGMENT
$pdata$??0_ATL_COM_MODULE70@ATL@@QEAA@XZ DD imagerel $LN4
	DD	imagerel $LN4+59
	DD	imagerel $unwind$??0_ATL_COM_MODULE70@ATL@@QEAA@XZ
pdata	ENDS
;	COMDAT pdata
pdata	SEGMENT
$pdata$?dtor$0@?0???0_ATL_COM_MODULE70@ATL@@QEAA@XZ@4HA DD imagerel ?dtor$0@?0???0_ATL_COM_MODULE70@ATL@@QEAA@XZ@4HA
	DD	imagerel ?dtor$0@?0???0_ATL_COM_MODULE70@ATL@@QEAA@XZ@4HA+39
	DD	imagerel $unwind$?dtor$0@?0???0_ATL_COM_MODULE70@ATL@@QEAA@XZ@4HA
pdata	ENDS
;	COMDAT pdata
pdata	SEGMENT
$pdata$??1_ATL_COM_MODULE70@ATL@@QEAA@XZ DD imagerel $LN4
	DD	imagerel $LN4+54
	DD	imagerel $unwind$??1_ATL_COM_MODULE70@ATL@@QEAA@XZ
pdata	ENDS
;	COMDAT pdata
pdata	SEGMENT
$pdata$?dtor$0@?0???1_ATL_COM_MODULE70@ATL@@QEAA@XZ@4HA DD imagerel ?dtor$0@?0???1_ATL_COM_MODULE70@ATL@@QEAA@XZ@4HA
	DD	imagerel ?dtor$0@?0???1_ATL_COM_MODULE70@ATL@@QEAA@XZ@4HA+39
	DD	imagerel $unwind$?dtor$0@?0???1_ATL_COM_MODULE70@ATL@@QEAA@XZ@4HA
pdata	ENDS
;	COMDAT pdata
pdata	SEGMENT
$pdata$??0?$CSimpleArray@GV?$CSimpleArrayEqualHelper@G@ATL@@@ATL@@QEAA@XZ DD imagerel $LN3
	DD	imagerel $LN3+49
	DD	imagerel $unwind$??0?$CSimpleArray@GV?$CSimpleArrayEqualHelper@G@ATL@@@ATL@@QEAA@XZ
pdata	ENDS
;	COMDAT pdata
pdata	SEGMENT
$pdata$??1?$CSimpleArray@GV?$CSimpleArrayEqualHelper@G@ATL@@@ATL@@QEAA@XZ DD imagerel $LN3
	DD	imagerel $LN3+47
	DD	imagerel $unwind$??1?$CSimpleArray@GV?$CSimpleArrayEqualHelper@G@ATL@@@ATL@@QEAA@XZ
pdata	ENDS
;	COMDAT pdata
pdata	SEGMENT
$pdata$?GetSize@?$CSimpleArray@GV?$CSimpleArrayEqualHelper@G@ATL@@@ATL@@QEBAHXZ DD imagerel $LN3
	DD	imagerel $LN3+16
	DD	imagerel $unwind$?GetSize@?$CSimpleArray@GV?$CSimpleArrayEqualHelper@G@ATL@@@ATL@@QEBAHXZ
pdata	ENDS
;	COMDAT pdata
pdata	SEGMENT
$pdata$?RemoveAll@?$CSimpleArray@GV?$CSimpleArrayEqualHelper@G@ATL@@@ATL@@QEAAXXZ DD imagerel $LN7
	DD	imagerel $LN7+133
	DD	imagerel $unwind$?RemoveAll@?$CSimpleArray@GV?$CSimpleArrayEqualHelper@G@ATL@@@ATL@@QEAAXXZ
pdata	ENDS
;	COMDAT pdata
pdata	SEGMENT
$pdata$??A?$CSimpleArray@GV?$CSimpleArrayEqualHelper@G@ATL@@@ATL@@QEAAAEAGH@Z DD imagerel $LN7
	DD	imagerel $LN7+173
	DD	imagerel $unwind$??A?$CSimpleArray@GV?$CSimpleArrayEqualHelper@G@ATL@@@ATL@@QEAAAEAGH@Z
pdata	ENDS
;	COMDAT pdata
pdata	SEGMENT
$pdata$??0_ATL_WIN_MODULE70@ATL@@QEAA@XZ DD imagerel $LN5
	DD	imagerel $LN5+77
	DD	imagerel $unwind$??0_ATL_WIN_MODULE70@ATL@@QEAA@XZ
pdata	ENDS
;	COMDAT pdata
pdata	SEGMENT
$pdata$?dtor$0@?0???0_ATL_WIN_MODULE70@ATL@@QEAA@XZ@4HA DD imagerel ?dtor$0@?0???0_ATL_WIN_MODULE70@ATL@@QEAA@XZ@4HA
	DD	imagerel ?dtor$0@?0???0_ATL_WIN_MODULE70@ATL@@QEAA@XZ@4HA+39
	DD	imagerel $unwind$?dtor$0@?0???0_ATL_WIN_MODULE70@ATL@@QEAA@XZ@4HA
pdata	ENDS
;	COMDAT pdata
pdata	SEGMENT
$pdata$?dtor$1@?0???0_ATL_WIN_MODULE70@ATL@@QEAA@XZ@4HA DD imagerel ?dtor$1@?0???0_ATL_WIN_MODULE70@ATL@@QEAA@XZ@4HA
	DD	imagerel ?dtor$1@?0???0_ATL_WIN_MODULE70@ATL@@QEAA@XZ@4HA+39
	DD	imagerel $unwind$?dtor$1@?0???0_ATL_WIN_MODULE70@ATL@@QEAA@XZ@4HA
pdata	ENDS
;	COMDAT pdata
pdata	SEGMENT
$pdata$??1_ATL_WIN_MODULE70@ATL@@QEAA@XZ DD imagerel $LN5
	DD	imagerel $LN5+72
	DD	imagerel $unwind$??1_ATL_WIN_MODULE70@ATL@@QEAA@XZ
pdata	ENDS
;	COMDAT pdata
pdata	SEGMENT
$pdata$?dtor$0@?0???1_ATL_WIN_MODULE70@ATL@@QEAA@XZ@4HA DD imagerel ?dtor$0@?0???1_ATL_WIN_MODULE70@ATL@@QEAA@XZ@4HA
	DD	imagerel ?dtor$0@?0???1_ATL_WIN_MODULE70@ATL@@QEAA@XZ@4HA+39
	DD	imagerel $unwind$?dtor$0@?0???1_ATL_WIN_MODULE70@ATL@@QEAA@XZ@4HA
pdata	ENDS
;	COMDAT pdata
pdata	SEGMENT
$pdata$?dtor$1@?0???1_ATL_WIN_MODULE70@ATL@@QEAA@XZ@4HA DD imagerel ?dtor$1@?0???1_ATL_WIN_MODULE70@ATL@@QEAA@XZ@4HA
	DD	imagerel ?dtor$1@?0???1_ATL_WIN_MODULE70@ATL@@QEAA@XZ@4HA+39
	DD	imagerel $unwind$?dtor$1@?0???1_ATL_WIN_MODULE70@ATL@@QEAA@XZ@4HA
pdata	ENDS
;	COMDAT pdata
pdata	SEGMENT
$pdata$?AtlWinModuleInit@ATL@@YAJPEAU_ATL_WIN_MODULE70@1@@Z DD imagerel $LN7
	DD	imagerel $LN7+254
	DD	imagerel $unwind$?AtlWinModuleInit@ATL@@YAJPEAU_ATL_WIN_MODULE70@1@@Z
pdata	ENDS
;	COMDAT pdata
pdata	SEGMENT
$pdata$?AtlWinModuleTerm@ATL@@YAJPEAU_ATL_WIN_MODULE70@1@PEAUHINSTANCE__@@@Z DD imagerel $LN9
	DD	imagerel $LN9+228
	DD	imagerel $unwind$?AtlWinModuleTerm@ATL@@YAJPEAU_ATL_WIN_MODULE70@1@PEAUHINSTANCE__@@@Z
pdata	ENDS
;	COMDAT pdata
pdata	SEGMENT
$pdata$??0CAtlComModule@ATL@@QEAA@XZ DD imagerel $LN6
	DD	imagerel $LN6+288
	DD	imagerel $unwind$??0CAtlComModule@ATL@@QEAA@XZ
pdata	ENDS
;	COMDAT pdata
pdata	SEGMENT
$pdata$?dtor$0@?0???0CAtlComModule@ATL@@QEAA@XZ@4HA DD imagerel ?dtor$0@?0???0CAtlComModule@ATL@@QEAA@XZ@4HA
	DD	imagerel ?dtor$0@?0???0CAtlComModule@ATL@@QEAA@XZ@4HA+35
	DD	imagerel $unwind$?dtor$0@?0???0CAtlComModule@ATL@@QEAA@XZ@4HA
pdata	ENDS
;	COMDAT pdata
pdata	SEGMENT
$pdata$??1CAtlComModule@ATL@@QEAA@XZ DD imagerel $LN4
	DD	imagerel $LN4+58
	DD	imagerel $unwind$??1CAtlComModule@ATL@@QEAA@XZ
pdata	ENDS
;	COMDAT pdata
pdata	SEGMENT
$pdata$?dtor$0@?0???1CAtlComModule@ATL@@QEAA@XZ@4HA DD imagerel ?dtor$0@?0???1CAtlComModule@ATL@@QEAA@XZ@4HA
	DD	imagerel ?dtor$0@?0???1CAtlComModule@ATL@@QEAA@XZ@4HA+35
	DD	imagerel $unwind$?dtor$0@?0???1CAtlComModule@ATL@@QEAA@XZ@4HA
pdata	ENDS
;	COMDAT pdata
pdata	SEGMENT
$pdata$?Term@CAtlComModule@ATL@@QEAAXXZ DD imagerel $LN9
	DD	imagerel $LN9+213
	DD	imagerel $unwind$?Term@CAtlComModule@ATL@@QEAAXXZ
pdata	ENDS
;	COMDAT pdata
pdata	SEGMENT
$pdata$??__E_AtlComModule@ATL@@YAXXZ DD imagerel ??__E_AtlComModule@ATL@@YAXXZ
	DD	imagerel ??__E_AtlComModule@ATL@@YAXXZ+51
	DD	imagerel $unwind$??__E_AtlComModule@ATL@@YAXXZ
pdata	ENDS
;	COMDAT pdata
pdata	SEGMENT
$pdata$??__F_AtlComModule@ATL@@YAXXZ DD imagerel ??__F_AtlComModule@ATL@@YAXXZ
	DD	imagerel ??__F_AtlComModule@ATL@@YAXXZ+39
	DD	imagerel $unwind$??__F_AtlComModule@ATL@@YAXXZ
pdata	ENDS
;	COMDAT pdata
pdata	SEGMENT
$pdata$??0CAtlWinModule@ATL@@QEAA@XZ DD imagerel $LN6
	DD	imagerel $LN6+167
	DD	imagerel $unwind$??0CAtlWinModule@ATL@@QEAA@XZ
pdata	ENDS
;	COMDAT pdata
pdata	SEGMENT
$pdata$?dtor$0@?0???0CAtlWinModule@ATL@@QEAA@XZ@4HA DD imagerel ?dtor$0@?0???0CAtlWinModule@ATL@@QEAA@XZ@4HA
	DD	imagerel ?dtor$0@?0???0CAtlWinModule@ATL@@QEAA@XZ@4HA+35
	DD	imagerel $unwind$?dtor$0@?0???0CAtlWinModule@ATL@@QEAA@XZ@4HA
pdata	ENDS
;	COMDAT pdata
pdata	SEGMENT
$pdata$??1CAtlWinModule@ATL@@QEAA@XZ DD imagerel $LN4
	DD	imagerel $LN4+58
	DD	imagerel $unwind$??1CAtlWinModule@ATL@@QEAA@XZ
pdata	ENDS
;	COMDAT pdata
pdata	SEGMENT
$pdata$?dtor$0@?0???1CAtlWinModule@ATL@@QEAA@XZ@4HA DD imagerel ?dtor$0@?0???1CAtlWinModule@ATL@@QEAA@XZ@4HA
	DD	imagerel ?dtor$0@?0???1CAtlWinModule@ATL@@QEAA@XZ@4HA+35
	DD	imagerel $unwind$?dtor$0@?0???1CAtlWinModule@ATL@@QEAA@XZ@4HA
pdata	ENDS
;	COMDAT pdata
pdata	SEGMENT
$pdata$?Term@CAtlWinModule@ATL@@QEAAXXZ DD imagerel $LN3
	DD	imagerel $LN3+61
	DD	imagerel $unwind$?Term@CAtlWinModule@ATL@@QEAAXXZ
pdata	ENDS
;	COMDAT pdata
pdata	SEGMENT
$pdata$??__E_AtlWinModule@ATL@@YAXXZ DD imagerel ??__E_AtlWinModule@ATL@@YAXXZ
	DD	imagerel ??__E_AtlWinModule@ATL@@YAXXZ+51
	DD	imagerel $unwind$??__E_AtlWinModule@ATL@@YAXXZ
pdata	ENDS
;	COMDAT pdata
pdata	SEGMENT
$pdata$??__F_AtlWinModule@ATL@@YAXXZ DD imagerel ??__F_AtlWinModule@ATL@@YAXXZ
	DD	imagerel ??__F_AtlWinModule@ATL@@YAXXZ+39
	DD	imagerel $unwind$??__F_AtlWinModule@ATL@@YAXXZ
pdata	ENDS
pdata	SEGMENT
$pdata$??0CQSVD3D11Device@@QEAA@XZ DD imagerel $LN21
	DD	imagerel $LN21+441
	DD	imagerel $unwind$??0CQSVD3D11Device@@QEAA@XZ
pdata	ENDS
pdata	SEGMENT
$pdata$?dtor$0@?0???0CQSVD3D11Device@@QEAA@XZ@4HA DD imagerel ?dtor$0@?0???0CQSVD3D11Device@@QEAA@XZ@4HA
	DD	imagerel ?dtor$0@?0???0CQSVD3D11Device@@QEAA@XZ@4HA+35
	DD	imagerel $unwind$?dtor$0@?0???0CQSVD3D11Device@@QEAA@XZ@4HA
$pdata$?dtor$1@?0???0CQSVD3D11Device@@QEAA@XZ@4HA DD imagerel ?dtor$1@?0???0CQSVD3D11Device@@QEAA@XZ@4HA
	DD	imagerel ?dtor$1@?0???0CQSVD3D11Device@@QEAA@XZ@4HA+39
	DD	imagerel $unwind$?dtor$1@?0???0CQSVD3D11Device@@QEAA@XZ@4HA
$pdata$?dtor$2@?0???0CQSVD3D11Device@@QEAA@XZ@4HA DD imagerel ?dtor$2@?0???0CQSVD3D11Device@@QEAA@XZ@4HA
	DD	imagerel ?dtor$2@?0???0CQSVD3D11Device@@QEAA@XZ@4HA+39
	DD	imagerel $unwind$?dtor$2@?0???0CQSVD3D11Device@@QEAA@XZ@4HA
$pdata$?dtor$3@?0???0CQSVD3D11Device@@QEAA@XZ@4HA DD imagerel ?dtor$3@?0???0CQSVD3D11Device@@QEAA@XZ@4HA
	DD	imagerel ?dtor$3@?0???0CQSVD3D11Device@@QEAA@XZ@4HA+39
	DD	imagerel $unwind$?dtor$3@?0???0CQSVD3D11Device@@QEAA@XZ@4HA
$pdata$?dtor$4@?0???0CQSVD3D11Device@@QEAA@XZ@4HA DD imagerel ?dtor$4@?0???0CQSVD3D11Device@@QEAA@XZ@4HA
	DD	imagerel ?dtor$4@?0???0CQSVD3D11Device@@QEAA@XZ@4HA+39
	DD	imagerel $unwind$?dtor$4@?0???0CQSVD3D11Device@@QEAA@XZ@4HA
$pdata$?dtor$5@?0???0CQSVD3D11Device@@QEAA@XZ@4HA DD imagerel ?dtor$5@?0???0CQSVD3D11Device@@QEAA@XZ@4HA
	DD	imagerel ?dtor$5@?0???0CQSVD3D11Device@@QEAA@XZ@4HA+39
	DD	imagerel $unwind$?dtor$5@?0???0CQSVD3D11Device@@QEAA@XZ@4HA
$pdata$?dtor$6@?0???0CQSVD3D11Device@@QEAA@XZ@4HA DD imagerel ?dtor$6@?0???0CQSVD3D11Device@@QEAA@XZ@4HA
	DD	imagerel ?dtor$6@?0???0CQSVD3D11Device@@QEAA@XZ@4HA+39
	DD	imagerel $unwind$?dtor$6@?0???0CQSVD3D11Device@@QEAA@XZ@4HA
$pdata$?dtor$7@?0???0CQSVD3D11Device@@QEAA@XZ@4HA DD imagerel ?dtor$7@?0???0CQSVD3D11Device@@QEAA@XZ@4HA
	DD	imagerel ?dtor$7@?0???0CQSVD3D11Device@@QEAA@XZ@4HA+39
	DD	imagerel $unwind$?dtor$7@?0???0CQSVD3D11Device@@QEAA@XZ@4HA
$pdata$?dtor$8@?0???0CQSVD3D11Device@@QEAA@XZ@4HA DD imagerel ?dtor$8@?0???0CQSVD3D11Device@@QEAA@XZ@4HA
	DD	imagerel ?dtor$8@?0???0CQSVD3D11Device@@QEAA@XZ@4HA+39
	DD	imagerel $unwind$?dtor$8@?0???0CQSVD3D11Device@@QEAA@XZ@4HA
$pdata$?dtor$9@?0???0CQSVD3D11Device@@QEAA@XZ@4HA DD imagerel ?dtor$9@?0???0CQSVD3D11Device@@QEAA@XZ@4HA
	DD	imagerel ?dtor$9@?0???0CQSVD3D11Device@@QEAA@XZ@4HA+39
	DD	imagerel $unwind$?dtor$9@?0???0CQSVD3D11Device@@QEAA@XZ@4HA
$pdata$?dtor$10@?0???0CQSVD3D11Device@@QEAA@XZ@4HA DD imagerel ?dtor$10@?0???0CQSVD3D11Device@@QEAA@XZ@4HA
	DD	imagerel ?dtor$10@?0???0CQSVD3D11Device@@QEAA@XZ@4HA+39
	DD	imagerel $unwind$?dtor$10@?0???0CQSVD3D11Device@@QEAA@XZ@4HA
$pdata$?dtor$11@?0???0CQSVD3D11Device@@QEAA@XZ@4HA DD imagerel ?dtor$11@?0???0CQSVD3D11Device@@QEAA@XZ@4HA
	DD	imagerel ?dtor$11@?0???0CQSVD3D11Device@@QEAA@XZ@4HA+39
	DD	imagerel $unwind$?dtor$11@?0???0CQSVD3D11Device@@QEAA@XZ@4HA
$pdata$?dtor$12@?0???0CQSVD3D11Device@@QEAA@XZ@4HA DD imagerel ?dtor$12@?0???0CQSVD3D11Device@@QEAA@XZ@4HA
	DD	imagerel ?dtor$12@?0???0CQSVD3D11Device@@QEAA@XZ@4HA+39
	DD	imagerel $unwind$?dtor$12@?0???0CQSVD3D11Device@@QEAA@XZ@4HA
$pdata$?dtor$13@?0???0CQSVD3D11Device@@QEAA@XZ@4HA DD imagerel ?dtor$13@?0???0CQSVD3D11Device@@QEAA@XZ@4HA
	DD	imagerel ?dtor$13@?0???0CQSVD3D11Device@@QEAA@XZ@4HA+39
	DD	imagerel $unwind$?dtor$13@?0???0CQSVD3D11Device@@QEAA@XZ@4HA
$pdata$?dtor$14@?0???0CQSVD3D11Device@@QEAA@XZ@4HA DD imagerel ?dtor$14@?0???0CQSVD3D11Device@@QEAA@XZ@4HA
	DD	imagerel ?dtor$14@?0???0CQSVD3D11Device@@QEAA@XZ@4HA+42
	DD	imagerel $unwind$?dtor$14@?0???0CQSVD3D11Device@@QEAA@XZ@4HA
$pdata$?dtor$15@?0???0CQSVD3D11Device@@QEAA@XZ@4HA DD imagerel ?dtor$15@?0???0CQSVD3D11Device@@QEAA@XZ@4HA
	DD	imagerel ?dtor$15@?0???0CQSVD3D11Device@@QEAA@XZ@4HA+42
	DD	imagerel $unwind$?dtor$15@?0???0CQSVD3D11Device@@QEAA@XZ@4HA
$pdata$?dtor$16@?0???0CQSVD3D11Device@@QEAA@XZ@4HA DD imagerel ?dtor$16@?0???0CQSVD3D11Device@@QEAA@XZ@4HA
	DD	imagerel ?dtor$16@?0???0CQSVD3D11Device@@QEAA@XZ@4HA+42
	DD	imagerel $unwind$?dtor$16@?0???0CQSVD3D11Device@@QEAA@XZ@4HA
$pdata$?dtor$17@?0???0CQSVD3D11Device@@QEAA@XZ@4HA DD imagerel ?dtor$17@?0???0CQSVD3D11Device@@QEAA@XZ@4HA
	DD	imagerel ?dtor$17@?0???0CQSVD3D11Device@@QEAA@XZ@4HA+42
	DD	imagerel $unwind$?dtor$17@?0???0CQSVD3D11Device@@QEAA@XZ@4HA
pdata	ENDS
pdata	SEGMENT
$pdata$??1CQSVD3D11Device@@UEAA@XZ DD imagerel $LN21
	DD	imagerel $LN21+387
	DD	imagerel $unwind$??1CQSVD3D11Device@@UEAA@XZ
pdata	ENDS
pdata	SEGMENT
$pdata$?dtor$0@?0???1CQSVD3D11Device@@UEAA@XZ@4HA DD imagerel ?dtor$0@?0???1CQSVD3D11Device@@UEAA@XZ@4HA
	DD	imagerel ?dtor$0@?0???1CQSVD3D11Device@@UEAA@XZ@4HA+35
	DD	imagerel $unwind$?dtor$0@?0???1CQSVD3D11Device@@UEAA@XZ@4HA
$pdata$?dtor$1@?0???1CQSVD3D11Device@@UEAA@XZ@4HA DD imagerel ?dtor$1@?0???1CQSVD3D11Device@@UEAA@XZ@4HA
	DD	imagerel ?dtor$1@?0???1CQSVD3D11Device@@UEAA@XZ@4HA+39
	DD	imagerel $unwind$?dtor$1@?0???1CQSVD3D11Device@@UEAA@XZ@4HA
$pdata$?dtor$2@?0???1CQSVD3D11Device@@UEAA@XZ@4HA DD imagerel ?dtor$2@?0???1CQSVD3D11Device@@UEAA@XZ@4HA
	DD	imagerel ?dtor$2@?0???1CQSVD3D11Device@@UEAA@XZ@4HA+39
	DD	imagerel $unwind$?dtor$2@?0???1CQSVD3D11Device@@UEAA@XZ@4HA
$pdata$?dtor$3@?0???1CQSVD3D11Device@@UEAA@XZ@4HA DD imagerel ?dtor$3@?0???1CQSVD3D11Device@@UEAA@XZ@4HA
	DD	imagerel ?dtor$3@?0???1CQSVD3D11Device@@UEAA@XZ@4HA+39
	DD	imagerel $unwind$?dtor$3@?0???1CQSVD3D11Device@@UEAA@XZ@4HA
$pdata$?dtor$4@?0???1CQSVD3D11Device@@UEAA@XZ@4HA DD imagerel ?dtor$4@?0???1CQSVD3D11Device@@UEAA@XZ@4HA
	DD	imagerel ?dtor$4@?0???1CQSVD3D11Device@@UEAA@XZ@4HA+39
	DD	imagerel $unwind$?dtor$4@?0???1CQSVD3D11Device@@UEAA@XZ@4HA
$pdata$?dtor$5@?0???1CQSVD3D11Device@@UEAA@XZ@4HA DD imagerel ?dtor$5@?0???1CQSVD3D11Device@@UEAA@XZ@4HA
	DD	imagerel ?dtor$5@?0???1CQSVD3D11Device@@UEAA@XZ@4HA+39
	DD	imagerel $unwind$?dtor$5@?0???1CQSVD3D11Device@@UEAA@XZ@4HA
$pdata$?dtor$6@?0???1CQSVD3D11Device@@UEAA@XZ@4HA DD imagerel ?dtor$6@?0???1CQSVD3D11Device@@UEAA@XZ@4HA
	DD	imagerel ?dtor$6@?0???1CQSVD3D11Device@@UEAA@XZ@4HA+39
	DD	imagerel $unwind$?dtor$6@?0???1CQSVD3D11Device@@UEAA@XZ@4HA
$pdata$?dtor$7@?0???1CQSVD3D11Device@@UEAA@XZ@4HA DD imagerel ?dtor$7@?0???1CQSVD3D11Device@@UEAA@XZ@4HA
	DD	imagerel ?dtor$7@?0???1CQSVD3D11Device@@UEAA@XZ@4HA+39
	DD	imagerel $unwind$?dtor$7@?0???1CQSVD3D11Device@@UEAA@XZ@4HA
$pdata$?dtor$8@?0???1CQSVD3D11Device@@UEAA@XZ@4HA DD imagerel ?dtor$8@?0???1CQSVD3D11Device@@UEAA@XZ@4HA
	DD	imagerel ?dtor$8@?0???1CQSVD3D11Device@@UEAA@XZ@4HA+39
	DD	imagerel $unwind$?dtor$8@?0???1CQSVD3D11Device@@UEAA@XZ@4HA
$pdata$?dtor$9@?0???1CQSVD3D11Device@@UEAA@XZ@4HA DD imagerel ?dtor$9@?0???1CQSVD3D11Device@@UEAA@XZ@4HA
	DD	imagerel ?dtor$9@?0???1CQSVD3D11Device@@UEAA@XZ@4HA+39
	DD	imagerel $unwind$?dtor$9@?0???1CQSVD3D11Device@@UEAA@XZ@4HA
$pdata$?dtor$10@?0???1CQSVD3D11Device@@UEAA@XZ@4HA DD imagerel ?dtor$10@?0???1CQSVD3D11Device@@UEAA@XZ@4HA
	DD	imagerel ?dtor$10@?0???1CQSVD3D11Device@@UEAA@XZ@4HA+39
	DD	imagerel $unwind$?dtor$10@?0???1CQSVD3D11Device@@UEAA@XZ@4HA
$pdata$?dtor$11@?0???1CQSVD3D11Device@@UEAA@XZ@4HA DD imagerel ?dtor$11@?0???1CQSVD3D11Device@@UEAA@XZ@4HA
	DD	imagerel ?dtor$11@?0???1CQSVD3D11Device@@UEAA@XZ@4HA+39
	DD	imagerel $unwind$?dtor$11@?0???1CQSVD3D11Device@@UEAA@XZ@4HA
$pdata$?dtor$12@?0???1CQSVD3D11Device@@UEAA@XZ@4HA DD imagerel ?dtor$12@?0???1CQSVD3D11Device@@UEAA@XZ@4HA
	DD	imagerel ?dtor$12@?0???1CQSVD3D11Device@@UEAA@XZ@4HA+39
	DD	imagerel $unwind$?dtor$12@?0???1CQSVD3D11Device@@UEAA@XZ@4HA
$pdata$?dtor$13@?0???1CQSVD3D11Device@@UEAA@XZ@4HA DD imagerel ?dtor$13@?0???1CQSVD3D11Device@@UEAA@XZ@4HA
	DD	imagerel ?dtor$13@?0???1CQSVD3D11Device@@UEAA@XZ@4HA+39
	DD	imagerel $unwind$?dtor$13@?0???1CQSVD3D11Device@@UEAA@XZ@4HA
$pdata$?dtor$14@?0???1CQSVD3D11Device@@UEAA@XZ@4HA DD imagerel ?dtor$14@?0???1CQSVD3D11Device@@UEAA@XZ@4HA
	DD	imagerel ?dtor$14@?0???1CQSVD3D11Device@@UEAA@XZ@4HA+42
	DD	imagerel $unwind$?dtor$14@?0???1CQSVD3D11Device@@UEAA@XZ@4HA
$pdata$?dtor$15@?0???1CQSVD3D11Device@@UEAA@XZ@4HA DD imagerel ?dtor$15@?0???1CQSVD3D11Device@@UEAA@XZ@4HA
	DD	imagerel ?dtor$15@?0???1CQSVD3D11Device@@UEAA@XZ@4HA+42
	DD	imagerel $unwind$?dtor$15@?0???1CQSVD3D11Device@@UEAA@XZ@4HA
$pdata$?dtor$16@?0???1CQSVD3D11Device@@UEAA@XZ@4HA DD imagerel ?dtor$16@?0???1CQSVD3D11Device@@UEAA@XZ@4HA
	DD	imagerel ?dtor$16@?0???1CQSVD3D11Device@@UEAA@XZ@4HA+42
	DD	imagerel $unwind$?dtor$16@?0???1CQSVD3D11Device@@UEAA@XZ@4HA
$pdata$?dtor$17@?0???1CQSVD3D11Device@@UEAA@XZ@4HA DD imagerel ?dtor$17@?0???1CQSVD3D11Device@@UEAA@XZ@4HA
	DD	imagerel ?dtor$17@?0???1CQSVD3D11Device@@UEAA@XZ@4HA+42
	DD	imagerel $unwind$?dtor$17@?0???1CQSVD3D11Device@@UEAA@XZ@4HA
pdata	ENDS
pdata	SEGMENT
$pdata$?Init@CQSVD3D11Device@@UEAA?AW4mfxStatus@@PEAXIV?$shared_ptr@VRGYLog@@@std@@@Z DD imagerel $LN15
	DD	imagerel $LN15+1978
	DD	imagerel $unwind$?Init@CQSVD3D11Device@@UEAA?AW4mfxStatus@@PEAXIV?$shared_ptr@VRGYLog@@@std@@@Z
pdata	ENDS
pdata	SEGMENT
$pdata$?dtor$0@?0??Init@CQSVD3D11Device@@UEAA?AW4mfxStatus@@PEAXIV?$shared_ptr@VRGYLog@@@std@@@Z@4HA DD imagerel ?dtor$0@?0??Init@CQSVD3D11Device@@UEAA?AW4mfxStatus@@PEAXIV?$shared_ptr@VRGYLog@@@std@@@Z@4HA
	DD	imagerel ?dtor$0@?0??Init@CQSVD3D11Device@@UEAA?AW4mfxStatus@@PEAXIV?$shared_ptr@VRGYLog@@@std@@@Z@4HA+38
	DD	imagerel $unwind$?dtor$0@?0??Init@CQSVD3D11Device@@UEAA?AW4mfxStatus@@PEAXIV?$shared_ptr@VRGYLog@@@std@@@Z@4HA
$pdata$?dtor$1@?0??Init@CQSVD3D11Device@@UEAA?AW4mfxStatus@@PEAXIV?$shared_ptr@VRGYLog@@@std@@@Z@4HA DD imagerel ?dtor$1@?0??Init@CQSVD3D11Device@@UEAA?AW4mfxStatus@@PEAXIV?$shared_ptr@VRGYLog@@@std@@@Z@4HA
	DD	imagerel ?dtor$1@?0??Init@CQSVD3D11Device@@UEAA?AW4mfxStatus@@PEAXIV?$shared_ptr@VRGYLog@@@std@@@Z@4HA+38
	DD	imagerel $unwind$?dtor$1@?0??Init@CQSVD3D11Device@@UEAA?AW4mfxStatus@@PEAXIV?$shared_ptr@VRGYLog@@@std@@@Z@4HA
pdata	ENDS
pdata	SEGMENT
$pdata$?Reset@CQSVD3D11Device@@UEAA?AW4mfxStatus@@XZ DD imagerel $LN5
	DD	imagerel $LN5+482
	DD	imagerel $unwind$?Reset@CQSVD3D11Device@@UEAA?AW4mfxStatus@@XZ
$pdata$?GetHandle@CQSVD3D11Device@@UEAA?AW4mfxStatus@@W4mfxHandleType@@PEAPEAX@Z DD imagerel $LN4
	DD	imagerel $LN4+50
	DD	imagerel $unwind$?GetHandle@CQSVD3D11Device@@UEAA?AW4mfxStatus@@W4mfxHandleType@@PEAPEAX@Z
$pdata$?Close@CQSVD3D11Device@@UEAAXXZ DD imagerel $LN3
	DD	imagerel $LN3+119
	DD	imagerel $unwind$?Close@CQSVD3D11Device@@UEAAXXZ
$pdata$?SetSCD1@CQSVD3D11Device@@IEAAXAEAUDXGI_SWAP_CHAIN_DESC1@@@Z DD imagerel $LN5
	DD	imagerel $LN5+201
	DD	imagerel $unwind$?SetSCD1@CQSVD3D11Device@@IEAAXAEAUDXGI_SWAP_CHAIN_DESC1@@@Z
$pdata$?CreateVideoProcessor@CQSVD3D11Device@@IEAA?AW4mfxStatus@@PEAUmfxFrameSurface1@@@Z DD imagerel $LN8
	DD	imagerel $LN8+769
	DD	imagerel $unwind$?CreateVideoProcessor@CQSVD3D11Device@@IEAA?AW4mfxStatus@@PEAUmfxFrameSurface1@@@Z
pdata	ENDS
;	COMDAT pdata
pdata	SEGMENT
$pdata$??0?$CComPtrBase@UID3D11Device@@@ATL@@IEAA@XZ DD imagerel $LN3
	DD	imagerel $LN3+25
	DD	imagerel $unwind$??0?$CComPtrBase@UID3D11Device@@@ATL@@IEAA@XZ
pdata	ENDS
;	COMDAT pdata
pdata	SEGMENT
$pdata$??1?$CComPtrBase@UID3D11Device@@@ATL@@QEAA@XZ DD imagerel $LN4
	DD	imagerel $LN4+69
	DD	imagerel $unwind$??1?$CComPtrBase@UID3D11Device@@@ATL@@QEAA@XZ
pdata	ENDS
;	COMDAT pdata
pdata	SEGMENT
$pdata$??B?$CComPtrBase@UID3D11Device@@@ATL@@QEBAPEAUID3D11Device@@XZ DD imagerel $LN3
	DD	imagerel $LN3+16
	DD	imagerel $unwind$??B?$CComPtrBase@UID3D11Device@@@ATL@@QEBAPEAUID3D11Device@@XZ
pdata	ENDS
;	COMDAT pdata
pdata	SEGMENT
$pdata$??I?$CComPtrBase@UID3D11Device@@@ATL@@QEAAPEAPEAUID3D11Device@@XZ DD imagerel $LN4
	DD	imagerel $LN4+111
	DD	imagerel $unwind$??I?$CComPtrBase@UID3D11Device@@@ATL@@QEAAPEAPEAUID3D11Device@@XZ
pdata	ENDS
;	COMDAT pdata
pdata	SEGMENT
$pdata$??0?$CComPtr@UID3D11Device@@@ATL@@QEAA@XZ DD imagerel $LN4
	DD	imagerel $LN4+52
	DD	imagerel $unwind$??0?$CComPtr@UID3D11Device@@@ATL@@QEAA@XZ
pdata	ENDS
;	COMDAT pdata
pdata	SEGMENT
$pdata$?dtor$0@?0???0?$CComPtr@UID3D11Device@@@ATL@@QEAA@XZ@4HA DD imagerel ?dtor$0@?0???0?$CComPtr@UID3D11Device@@@ATL@@QEAA@XZ@4HA
	DD	imagerel ?dtor$0@?0???0?$CComPtr@UID3D11Device@@@ATL@@QEAA@XZ@4HA+35
	DD	imagerel $unwind$?dtor$0@?0???0?$CComPtr@UID3D11Device@@@ATL@@QEAA@XZ@4HA
pdata	ENDS
;	COMDAT pdata
pdata	SEGMENT
$pdata$??1?$CComPtr@UID3D11Device@@@ATL@@QEAA@XZ DD imagerel $LN4
	DD	imagerel $LN4+47
	DD	imagerel $unwind$??1?$CComPtr@UID3D11Device@@@ATL@@QEAA@XZ
pdata	ENDS
;	COMDAT pdata
pdata	SEGMENT
$pdata$?dtor$0@?0???1?$CComPtr@UID3D11Device@@@ATL@@QEAA@XZ@4HA DD imagerel ?dtor$0@?0???1?$CComPtr@UID3D11Device@@@ATL@@QEAA@XZ@4HA
	DD	imagerel ?dtor$0@?0???1?$CComPtr@UID3D11Device@@@ATL@@QEAA@XZ@4HA+35
	DD	imagerel $unwind$?dtor$0@?0???1?$CComPtr@UID3D11Device@@@ATL@@QEAA@XZ@4HA
pdata	ENDS
;	COMDAT pdata
pdata	SEGMENT
$pdata$??0?$CComPtrBase@UID3D11DeviceContext@@@ATL@@IEAA@XZ DD imagerel $LN3
	DD	imagerel $LN3+25
	DD	imagerel $unwind$??0?$CComPtrBase@UID3D11DeviceContext@@@ATL@@IEAA@XZ
pdata	ENDS
;	COMDAT pdata
pdata	SEGMENT
$pdata$??1?$CComPtrBase@UID3D11DeviceContext@@@ATL@@QEAA@XZ DD imagerel $LN4
	DD	imagerel $LN4+69
	DD	imagerel $unwind$??1?$CComPtrBase@UID3D11DeviceContext@@@ATL@@QEAA@XZ
pdata	ENDS
;	COMDAT pdata
pdata	SEGMENT
$pdata$??B?$CComPtrBase@UID3D11DeviceContext@@@ATL@@QEBAPEAUID3D11DeviceContext@@XZ DD imagerel $LN3
	DD	imagerel $LN3+16
	DD	imagerel $unwind$??B?$CComPtrBase@UID3D11DeviceContext@@@ATL@@QEBAPEAUID3D11DeviceContext@@XZ
pdata	ENDS
;	COMDAT pdata
pdata	SEGMENT
$pdata$??I?$CComPtrBase@UID3D11DeviceContext@@@ATL@@QEAAPEAPEAUID3D11DeviceContext@@XZ DD imagerel $LN4
	DD	imagerel $LN4+111
	DD	imagerel $unwind$??I?$CComPtrBase@UID3D11DeviceContext@@@ATL@@QEAAPEAPEAUID3D11DeviceContext@@XZ
pdata	ENDS
;	COMDAT pdata
pdata	SEGMENT
$pdata$??0?$CComPtr@UID3D11DeviceContext@@@ATL@@QEAA@XZ DD imagerel $LN4
	DD	imagerel $LN4+52
	DD	imagerel $unwind$??0?$CComPtr@UID3D11DeviceContext@@@ATL@@QEAA@XZ
pdata	ENDS
;	COMDAT pdata
pdata	SEGMENT
$pdata$?dtor$0@?0???0?$CComPtr@UID3D11DeviceContext@@@ATL@@QEAA@XZ@4HA DD imagerel ?dtor$0@?0???0?$CComPtr@UID3D11DeviceContext@@@ATL@@QEAA@XZ@4HA
	DD	imagerel ?dtor$0@?0???0?$CComPtr@UID3D11DeviceContext@@@ATL@@QEAA@XZ@4HA+35
	DD	imagerel $unwind$?dtor$0@?0???0?$CComPtr@UID3D11DeviceContext@@@ATL@@QEAA@XZ@4HA
pdata	ENDS
;	COMDAT pdata
pdata	SEGMENT
$pdata$??1?$CComPtr@UID3D11DeviceContext@@@ATL@@QEAA@XZ DD imagerel $LN4
	DD	imagerel $LN4+47
	DD	imagerel $unwind$??1?$CComPtr@UID3D11DeviceContext@@@ATL@@QEAA@XZ
pdata	ENDS
;	COMDAT pdata
pdata	SEGMENT
$pdata$?dtor$0@?0???1?$CComPtr@UID3D11DeviceContext@@@ATL@@QEAA@XZ@4HA DD imagerel ?dtor$0@?0???1?$CComPtr@UID3D11DeviceContext@@@ATL@@QEAA@XZ@4HA
	DD	imagerel ?dtor$0@?0???1?$CComPtr@UID3D11DeviceContext@@@ATL@@QEAA@XZ@4HA+35
	DD	imagerel $unwind$?dtor$0@?0???1?$CComPtr@UID3D11DeviceContext@@@ATL@@QEAA@XZ@4HA
pdata	ENDS
;	COMDAT pdata
pdata	SEGMENT
$pdata$??0?$CComPtrBase@UID3D11VideoDevice@@@ATL@@IEAA@XZ DD imagerel $LN3
	DD	imagerel $LN3+25
	DD	imagerel $unwind$??0?$CComPtrBase@UID3D11VideoDevice@@@ATL@@IEAA@XZ
pdata	ENDS
;	COMDAT pdata
pdata	SEGMENT
$pdata$??1?$CComPtrBase@UID3D11VideoDevice@@@ATL@@QEAA@XZ DD imagerel $LN4
	DD	imagerel $LN4+69
	DD	imagerel $unwind$??1?$CComPtrBase@UID3D11VideoDevice@@@ATL@@QEAA@XZ
pdata	ENDS
;	COMDAT pdata
pdata	SEGMENT
$pdata$??B?$CComPtrBase@UID3D11VideoDevice@@@ATL@@QEBAPEAUID3D11VideoDevice@@XZ DD imagerel $LN3
	DD	imagerel $LN3+16
	DD	imagerel $unwind$??B?$CComPtrBase@UID3D11VideoDevice@@@ATL@@QEBAPEAUID3D11VideoDevice@@XZ
pdata	ENDS
;	COMDAT pdata
pdata	SEGMENT
$pdata$??C?$CComPtrBase@UID3D11VideoDevice@@@ATL@@QEBAPEAV?$_NoAddRefReleaseOnCComPtr@UID3D11VideoDevice@@@1@XZ DD imagerel $LN4
	DD	imagerel $LN4+114
	DD	imagerel $unwind$??C?$CComPtrBase@UID3D11VideoDevice@@@ATL@@QEBAPEAV?$_NoAddRefReleaseOnCComPtr@UID3D11VideoDevice@@@1@XZ
pdata	ENDS
;	COMDAT pdata
pdata	SEGMENT
$pdata$??0?$CComPtr@UID3D11VideoDevice@@@ATL@@QEAA@XZ DD imagerel $LN4
	DD	imagerel $LN4+52
	DD	imagerel $unwind$??0?$CComPtr@UID3D11VideoDevice@@@ATL@@QEAA@XZ
pdata	ENDS
;	COMDAT pdata
pdata	SEGMENT
$pdata$?dtor$0@?0???0?$CComPtr@UID3D11VideoDevice@@@ATL@@QEAA@XZ@4HA DD imagerel ?dtor$0@?0???0?$CComPtr@UID3D11VideoDevice@@@ATL@@QEAA@XZ@4HA
	DD	imagerel ?dtor$0@?0???0?$CComPtr@UID3D11VideoDevice@@@ATL@@QEAA@XZ@4HA+35
	DD	imagerel $unwind$?dtor$0@?0???0?$CComPtr@UID3D11VideoDevice@@@ATL@@QEAA@XZ@4HA
pdata	ENDS
;	COMDAT pdata
pdata	SEGMENT
$pdata$??1?$CComPtr@UID3D11VideoDevice@@@ATL@@QEAA@XZ DD imagerel $LN4
	DD	imagerel $LN4+47
	DD	imagerel $unwind$??1?$CComPtr@UID3D11VideoDevice@@@ATL@@QEAA@XZ
pdata	ENDS
;	COMDAT pdata
pdata	SEGMENT
$pdata$?dtor$0@?0???1?$CComPtr@UID3D11VideoDevice@@@ATL@@QEAA@XZ@4HA DD imagerel ?dtor$0@?0???1?$CComPtr@UID3D11VideoDevice@@@ATL@@QEAA@XZ@4HA
	DD	imagerel ?dtor$0@?0???1?$CComPtr@UID3D11VideoDevice@@@ATL@@QEAA@XZ@4HA+35
	DD	imagerel $unwind$?dtor$0@?0???1?$CComPtr@UID3D11VideoDevice@@@ATL@@QEAA@XZ@4HA
pdata	ENDS
;	COMDAT pdata
pdata	SEGMENT
$pdata$??0?$CComQIPtr@UID3D11VideoDevice@@$1?_GUID_10ec4d5b_975a_4689_b9e4_d0aac30fe333@@3U__s_GUID@@B@ATL@@QEAA@XZ DD imagerel $LN4
	DD	imagerel $LN4+52
	DD	imagerel $unwind$??0?$CComQIPtr@UID3D11VideoDevice@@$1?_GUID_10ec4d5b_975a_4689_b9e4_d0aac30fe333@@3U__s_GUID@@B@ATL@@QEAA@XZ
pdata	ENDS
;	COMDAT pdata
pdata	SEGMENT
$pdata$?dtor$0@?0???0?$CComQIPtr@UID3D11VideoDevice@@$1?_GUID_10ec4d5b_975a_4689_b9e4_d0aac30fe333@@3U__s_GUID@@B@ATL@@QEAA@XZ@4HA DD imagerel ?dtor$0@?0???0?$CComQIPtr@UID3D11VideoDevice@@$1?_GUID_10ec4d5b_975a_4689_b9e4_d0aac30fe333@@3U__s_GUID@@B@ATL@@QEAA@XZ@4HA
	DD	imagerel ?dtor$0@?0???0?$CComQIPtr@UID3D11VideoDevice@@$1?_GUID_10ec4d5b_975a_4689_b9e4_d0aac30fe333@@3U__s_GUID@@B@ATL@@QEAA@XZ@4HA+35
	DD	imagerel $unwind$?dtor$0@?0???0?$CComQIPtr@UID3D11VideoDevice@@$1?_GUID_10ec4d5b_975a_4689_b9e4_d0aac30fe333@@3U__s_GUID@@B@ATL@@QEAA@XZ@4HA
pdata	ENDS
;	COMDAT pdata
pdata	SEGMENT
$pdata$??4?$CComQIPtr@UID3D11VideoDevice@@$1?_GUID_10ec4d5b_975a_4689_b9e4_d0aac30fe333@@3U__s_GUID@@B@ATL@@QEAAPEAUID3D11VideoDevice@@PEAUIUnknown@@@Z DD imagerel $LN4
	DD	imagerel $LN4+90
	DD	imagerel $unwind$??4?$CComQIPtr@UID3D11VideoDevice@@$1?_GUID_10ec4d5b_975a_4689_b9e4_d0aac30fe333@@3U__s_GUID@@B@ATL@@QEAAPEAUID3D11VideoDevice@@PEAUIUnknown@@@Z
pdata	ENDS
;	COMDAT pdata
pdata	SEGMENT
$pdata$??1?$CComQIPtr@UID3D11VideoDevice@@$1?_GUID_10ec4d5b_975a_4689_b9e4_d0aac30fe333@@3U__s_GUID@@B@ATL@@QEAA@XZ DD imagerel $LN4
	DD	imagerel $LN4+47
	DD	imagerel $unwind$??1?$CComQIPtr@UID3D11VideoDevice@@$1?_GUID_10ec4d5b_975a_4689_b9e4_d0aac30fe333@@3U__s_GUID@@B@ATL@@QEAA@XZ
pdata	ENDS
;	COMDAT pdata
pdata	SEGMENT
$pdata$?dtor$0@?0???1?$CComQIPtr@UID3D11VideoDevice@@$1?_GUID_10ec4d5b_975a_4689_b9e4_d0aac30fe333@@3U__s_GUID@@B@ATL@@QEAA@XZ@4HA DD imagerel ?dtor$0@?0???1?$CComQIPtr@UID3D11VideoDevice@@$1?_GUID_10ec4d5b_975a_4689_b9e4_d0aac30fe333@@3U__s_GUID@@B@ATL@@QEAA@XZ@4HA
	DD	imagerel ?dtor$0@?0???1?$CComQIPtr@UID3D11VideoDevice@@$1?_GUID_10ec4d5b_975a_4689_b9e4_d0aac30fe333@@3U__s_GUID@@B@ATL@@QEAA@XZ@4HA+35
	DD	imagerel $unwind$?dtor$0@?0???1?$CComQIPtr@UID3D11VideoDevice@@$1?_GUID_10ec4d5b_975a_4689_b9e4_d0aac30fe333@@3U__s_GUID@@B@ATL@@QEAA@XZ@4HA
pdata	ENDS
;	COMDAT pdata
pdata	SEGMENT
$pdata$??0?$CComPtrBase@UID3D11VideoContext@@@ATL@@IEAA@XZ DD imagerel $LN3
	DD	imagerel $LN3+25
	DD	imagerel $unwind$??0?$CComPtrBase@UID3D11VideoContext@@@ATL@@IEAA@XZ
pdata	ENDS
;	COMDAT pdata
pdata	SEGMENT
$pdata$??1?$CComPtrBase@UID3D11VideoContext@@@ATL@@QEAA@XZ DD imagerel $LN4
	DD	imagerel $LN4+69
	DD	imagerel $unwind$??1?$CComPtrBase@UID3D11VideoContext@@@ATL@@QEAA@XZ
pdata	ENDS
;	COMDAT pdata
pdata	SEGMENT
$pdata$??B?$CComPtrBase@UID3D11VideoContext@@@ATL@@QEBAPEAUID3D11VideoContext@@XZ DD imagerel $LN3
	DD	imagerel $LN3+16
	DD	imagerel $unwind$??B?$CComPtrBase@UID3D11VideoContext@@@ATL@@QEBAPEAUID3D11VideoContext@@XZ
pdata	ENDS
;	COMDAT pdata
pdata	SEGMENT
$pdata$??0?$CComPtr@UID3D11VideoContext@@@ATL@@QEAA@XZ DD imagerel $LN4
	DD	imagerel $LN4+52
	DD	imagerel $unwind$??0?$CComPtr@UID3D11VideoContext@@@ATL@@QEAA@XZ
pdata	ENDS
;	COMDAT pdata
pdata	SEGMENT
$pdata$?dtor$0@?0???0?$CComPtr@UID3D11VideoContext@@@ATL@@QEAA@XZ@4HA DD imagerel ?dtor$0@?0???0?$CComPtr@UID3D11VideoContext@@@ATL@@QEAA@XZ@4HA
	DD	imagerel ?dtor$0@?0???0?$CComPtr@UID3D11VideoContext@@@ATL@@QEAA@XZ@4HA+35
	DD	imagerel $unwind$?dtor$0@?0???0?$CComPtr@UID3D11VideoContext@@@ATL@@QEAA@XZ@4HA
pdata	ENDS
;	COMDAT pdata
pdata	SEGMENT
$pdata$??1?$CComPtr@UID3D11VideoContext@@@ATL@@QEAA@XZ DD imagerel $LN4
	DD	imagerel $LN4+47
	DD	imagerel $unwind$??1?$CComPtr@UID3D11VideoContext@@@ATL@@QEAA@XZ
pdata	ENDS
;	COMDAT pdata
pdata	SEGMENT
$pdata$?dtor$0@?0???1?$CComPtr@UID3D11VideoContext@@@ATL@@QEAA@XZ@4HA DD imagerel ?dtor$0@?0???1?$CComPtr@UID3D11VideoContext@@@ATL@@QEAA@XZ@4HA
	DD	imagerel ?dtor$0@?0???1?$CComPtr@UID3D11VideoContext@@@ATL@@QEAA@XZ@4HA+35
	DD	imagerel $unwind$?dtor$0@?0???1?$CComPtr@UID3D11VideoContext@@@ATL@@QEAA@XZ@4HA
pdata	ENDS
;	COMDAT pdata
pdata	SEGMENT
$pdata$??0?$CComQIPtr@UID3D11VideoContext@@$1?_GUID_61f21c45_3c0e_4a74_9cea_67100d9ad5e4@@3U__s_GUID@@B@ATL@@QEAA@XZ DD imagerel $LN4
	DD	imagerel $LN4+52
	DD	imagerel $unwind$??0?$CComQIPtr@UID3D11VideoContext@@$1?_GUID_61f21c45_3c0e_4a74_9cea_67100d9ad5e4@@3U__s_GUID@@B@ATL@@QEAA@XZ
pdata	ENDS
;	COMDAT pdata
pdata	SEGMENT
$pdata$?dtor$0@?0???0?$CComQIPtr@UID3D11VideoContext@@$1?_GUID_61f21c45_3c0e_4a74_9cea_67100d9ad5e4@@3U__s_GUID@@B@ATL@@QEAA@XZ@4HA DD imagerel ?dtor$0@?0???0?$CComQIPtr@UID3D11VideoContext@@$1?_GUID_61f21c45_3c0e_4a74_9cea_67100d9ad5e4@@3U__s_GUID@@B@ATL@@QEAA@XZ@4HA
	DD	imagerel ?dtor$0@?0???0?$CComQIPtr@UID3D11VideoContext@@$1?_GUID_61f21c45_3c0e_4a74_9cea_67100d9ad5e4@@3U__s_GUID@@B@ATL@@QEAA@XZ@4HA+35
	DD	imagerel $unwind$?dtor$0@?0???0?$CComQIPtr@UID3D11VideoContext@@$1?_GUID_61f21c45_3c0e_4a74_9cea_67100d9ad5e4@@3U__s_GUID@@B@ATL@@QEAA@XZ@4HA
pdata	ENDS
;	COMDAT pdata
pdata	SEGMENT
$pdata$??4?$CComQIPtr@UID3D11VideoContext@@$1?_GUID_61f21c45_3c0e_4a74_9cea_67100d9ad5e4@@3U__s_GUID@@B@ATL@@QEAAPEAUID3D11VideoContext@@PEAUIUnknown@@@Z DD imagerel $LN4
	DD	imagerel $LN4+90
	DD	imagerel $unwind$??4?$CComQIPtr@UID3D11VideoContext@@$1?_GUID_61f21c45_3c0e_4a74_9cea_67100d9ad5e4@@3U__s_GUID@@B@ATL@@QEAAPEAUID3D11VideoContext@@PEAUIUnknown@@@Z
pdata	ENDS
;	COMDAT pdata
pdata	SEGMENT
$pdata$??1?$CComQIPtr@UID3D11VideoContext@@$1?_GUID_61f21c45_3c0e_4a74_9cea_67100d9ad5e4@@3U__s_GUID@@B@ATL@@QEAA@XZ DD imagerel $LN4
	DD	imagerel $LN4+47
	DD	imagerel $unwind$??1?$CComQIPtr@UID3D11VideoContext@@$1?_GUID_61f21c45_3c0e_4a74_9cea_67100d9ad5e4@@3U__s_GUID@@B@ATL@@QEAA@XZ
pdata	ENDS
;	COMDAT pdata
pdata	SEGMENT
$pdata$?dtor$0@?0???1?$CComQIPtr@UID3D11VideoContext@@$1?_GUID_61f21c45_3c0e_4a74_9cea_67100d9ad5e4@@3U__s_GUID@@B@ATL@@QEAA@XZ@4HA DD imagerel ?dtor$0@?0???1?$CComQIPtr@UID3D11VideoContext@@$1?_GUID_61f21c45_3c0e_4a74_9cea_67100d9ad5e4@@3U__s_GUID@@B@ATL@@QEAA@XZ@4HA
	DD	imagerel ?dtor$0@?0???1?$CComQIPtr@UID3D11VideoContext@@$1?_GUID_61f21c45_3c0e_4a74_9cea_67100d9ad5e4@@3U__s_GUID@@B@ATL@@QEAA@XZ@4HA+35
	DD	imagerel $unwind$?dtor$0@?0???1?$CComQIPtr@UID3D11VideoContext@@$1?_GUID_61f21c45_3c0e_4a74_9cea_67100d9ad5e4@@3U__s_GUID@@B@ATL@@QEAA@XZ@4HA
pdata	ENDS
;	COMDAT pdata
pdata	SEGMENT
$pdata$??0?$CComPtrBase@UID3D11VideoProcessorEnumerator@@@ATL@@IEAA@XZ DD imagerel $LN3
	DD	imagerel $LN3+25
	DD	imagerel $unwind$??0?$CComPtrBase@UID3D11VideoProcessorEnumerator@@@ATL@@IEAA@XZ
pdata	ENDS
;	COMDAT pdata
pdata	SEGMENT
$pdata$??1?$CComPtrBase@UID3D11VideoProcessorEnumerator@@@ATL@@QEAA@XZ DD imagerel $LN4
	DD	imagerel $LN4+69
	DD	imagerel $unwind$??1?$CComPtrBase@UID3D11VideoProcessorEnumerator@@@ATL@@QEAA@XZ
pdata	ENDS
;	COMDAT pdata
pdata	SEGMENT
$pdata$??B?$CComPtrBase@UID3D11VideoProcessorEnumerator@@@ATL@@QEBAPEAUID3D11VideoProcessorEnumerator@@XZ DD imagerel $LN3
	DD	imagerel $LN3+16
	DD	imagerel $unwind$??B?$CComPtrBase@UID3D11VideoProcessorEnumerator@@@ATL@@QEBAPEAUID3D11VideoProcessorEnumerator@@XZ
pdata	ENDS
;	COMDAT pdata
pdata	SEGMENT
$pdata$??I?$CComPtrBase@UID3D11VideoProcessorEnumerator@@@ATL@@QEAAPEAPEAUID3D11VideoProcessorEnumerator@@XZ DD imagerel $LN4
	DD	imagerel $LN4+111
	DD	imagerel $unwind$??I?$CComPtrBase@UID3D11VideoProcessorEnumerator@@@ATL@@QEAAPEAPEAUID3D11VideoProcessorEnumerator@@XZ
pdata	ENDS
;	COMDAT pdata
pdata	SEGMENT
$pdata$??0?$CComPtr@UID3D11VideoProcessorEnumerator@@@ATL@@QEAA@XZ DD imagerel $LN4
	DD	imagerel $LN4+52
	DD	imagerel $unwind$??0?$CComPtr@UID3D11VideoProcessorEnumerator@@@ATL@@QEAA@XZ
pdata	ENDS
;	COMDAT pdata
pdata	SEGMENT
$pdata$?dtor$0@?0???0?$CComPtr@UID3D11VideoProcessorEnumerator@@@ATL@@QEAA@XZ@4HA DD imagerel ?dtor$0@?0???0?$CComPtr@UID3D11VideoProcessorEnumerator@@@ATL@@QEAA@XZ@4HA
	DD	imagerel ?dtor$0@?0???0?$CComPtr@UID3D11VideoProcessorEnumerator@@@ATL@@QEAA@XZ@4HA+35
	DD	imagerel $unwind$?dtor$0@?0???0?$CComPtr@UID3D11VideoProcessorEnumerator@@@ATL@@QEAA@XZ@4HA
pdata	ENDS
;	COMDAT pdata
pdata	SEGMENT
$pdata$??1?$CComPtr@UID3D11VideoProcessorEnumerator@@@ATL@@QEAA@XZ DD imagerel $LN4
	DD	imagerel $LN4+47
	DD	imagerel $unwind$??1?$CComPtr@UID3D11VideoProcessorEnumerator@@@ATL@@QEAA@XZ
pdata	ENDS
;	COMDAT pdata
pdata	SEGMENT
$pdata$?dtor$0@?0???1?$CComPtr@UID3D11VideoProcessorEnumerator@@@ATL@@QEAA@XZ@4HA DD imagerel ?dtor$0@?0???1?$CComPtr@UID3D11VideoProcessorEnumerator@@@ATL@@QEAA@XZ@4HA
	DD	imagerel ?dtor$0@?0???1?$CComPtr@UID3D11VideoProcessorEnumerator@@@ATL@@QEAA@XZ@4HA+35
	DD	imagerel $unwind$?dtor$0@?0???1?$CComPtr@UID3D11VideoProcessorEnumerator@@@ATL@@QEAA@XZ@4HA
pdata	ENDS
;	COMDAT pdata
pdata	SEGMENT
$pdata$??0?$CComPtrBase@UIDXGIDevice1@@@ATL@@IEAA@XZ DD imagerel $LN3
	DD	imagerel $LN3+25
	DD	imagerel $unwind$??0?$CComPtrBase@UIDXGIDevice1@@@ATL@@IEAA@XZ
pdata	ENDS
;	COMDAT pdata
pdata	SEGMENT
$pdata$??1?$CComPtrBase@UIDXGIDevice1@@@ATL@@QEAA@XZ DD imagerel $LN4
	DD	imagerel $LN4+69
	DD	imagerel $unwind$??1?$CComPtrBase@UIDXGIDevice1@@@ATL@@QEAA@XZ
pdata	ENDS
;	COMDAT pdata
pdata	SEGMENT
$pdata$??B?$CComPtrBase@UIDXGIDevice1@@@ATL@@QEBAPEAUIDXGIDevice1@@XZ DD imagerel $LN3
	DD	imagerel $LN3+16
	DD	imagerel $unwind$??B?$CComPtrBase@UIDXGIDevice1@@@ATL@@QEBAPEAUIDXGIDevice1@@XZ
pdata	ENDS
;	COMDAT pdata
pdata	SEGMENT
$pdata$??0?$CComPtr@UIDXGIDevice1@@@ATL@@QEAA@XZ DD imagerel $LN4
	DD	imagerel $LN4+52
	DD	imagerel $unwind$??0?$CComPtr@UIDXGIDevice1@@@ATL@@QEAA@XZ
pdata	ENDS
;	COMDAT pdata
pdata	SEGMENT
$pdata$?dtor$0@?0???0?$CComPtr@UIDXGIDevice1@@@ATL@@QEAA@XZ@4HA DD imagerel ?dtor$0@?0???0?$CComPtr@UIDXGIDevice1@@@ATL@@QEAA@XZ@4HA
	DD	imagerel ?dtor$0@?0???0?$CComPtr@UIDXGIDevice1@@@ATL@@QEAA@XZ@4HA+35
	DD	imagerel $unwind$?dtor$0@?0???0?$CComPtr@UIDXGIDevice1@@@ATL@@QEAA@XZ@4HA
pdata	ENDS
;	COMDAT pdata
pdata	SEGMENT
$pdata$??1?$CComPtr@UIDXGIDevice1@@@ATL@@QEAA@XZ DD imagerel $LN4
	DD	imagerel $LN4+47
	DD	imagerel $unwind$??1?$CComPtr@UIDXGIDevice1@@@ATL@@QEAA@XZ
pdata	ENDS
;	COMDAT pdata
pdata	SEGMENT
$pdata$?dtor$0@?0???1?$CComPtr@UIDXGIDevice1@@@ATL@@QEAA@XZ@4HA DD imagerel ?dtor$0@?0???1?$CComPtr@UIDXGIDevice1@@@ATL@@QEAA@XZ@4HA
	DD	imagerel ?dtor$0@?0???1?$CComPtr@UIDXGIDevice1@@@ATL@@QEAA@XZ@4HA+35
	DD	imagerel $unwind$?dtor$0@?0???1?$CComPtr@UIDXGIDevice1@@@ATL@@QEAA@XZ@4HA
pdata	ENDS
;	COMDAT pdata
pdata	SEGMENT
$pdata$??0?$CComQIPtr@UIDXGIDevice1@@$1?_GUID_77db970f_6276_48ba_ba28_070143b4392c@@3U__s_GUID@@B@ATL@@QEAA@XZ DD imagerel $LN4
	DD	imagerel $LN4+52
	DD	imagerel $unwind$??0?$CComQIPtr@UIDXGIDevice1@@$1?_GUID_77db970f_6276_48ba_ba28_070143b4392c@@3U__s_GUID@@B@ATL@@QEAA@XZ
pdata	ENDS
;	COMDAT pdata
pdata	SEGMENT
$pdata$?dtor$0@?0???0?$CComQIPtr@UIDXGIDevice1@@$1?_GUID_77db970f_6276_48ba_ba28_070143b4392c@@3U__s_GUID@@B@ATL@@QEAA@XZ@4HA DD imagerel ?dtor$0@?0???0?$CComQIPtr@UIDXGIDevice1@@$1?_GUID_77db970f_6276_48ba_ba28_070143b4392c@@3U__s_GUID@@B@ATL@@QEAA@XZ@4HA
	DD	imagerel ?dtor$0@?0???0?$CComQIPtr@UIDXGIDevice1@@$1?_GUID_77db970f_6276_48ba_ba28_070143b4392c@@3U__s_GUID@@B@ATL@@QEAA@XZ@4HA+35
	DD	imagerel $unwind$?dtor$0@?0???0?$CComQIPtr@UIDXGIDevice1@@$1?_GUID_77db970f_6276_48ba_ba28_070143b4392c@@3U__s_GUID@@B@ATL@@QEAA@XZ@4HA
pdata	ENDS
;	COMDAT pdata
pdata	SEGMENT
$pdata$??4?$CComQIPtr@UIDXGIDevice1@@$1?_GUID_77db970f_6276_48ba_ba28_070143b4392c@@3U__s_GUID@@B@ATL@@QEAAPEAUIDXGIDevice1@@PEAUIUnknown@@@Z DD imagerel $LN4
	DD	imagerel $LN4+90
	DD	imagerel $unwind$??4?$CComQIPtr@UIDXGIDevice1@@$1?_GUID_77db970f_6276_48ba_ba28_070143b4392c@@3U__s_GUID@@B@ATL@@QEAAPEAUIDXGIDevice1@@PEAUIUnknown@@@Z
pdata	ENDS
;	COMDAT pdata
pdata	SEGMENT
$pdata$??1?$CComQIPtr@UIDXGIDevice1@@$1?_GUID_77db970f_6276_48ba_ba28_070143b4392c@@3U__s_GUID@@B@ATL@@QEAA@XZ DD imagerel $LN4
	DD	imagerel $LN4+47
	DD	imagerel $unwind$??1?$CComQIPtr@UIDXGIDevice1@@$1?_GUID_77db970f_6276_48ba_ba28_070143b4392c@@3U__s_GUID@@B@ATL@@QEAA@XZ
pdata	ENDS
;	COMDAT pdata
pdata	SEGMENT
$pdata$?dtor$0@?0???1?$CComQIPtr@UIDXGIDevice1@@$1?_GUID_77db970f_6276_48ba_ba28_070143b4392c@@3U__s_GUID@@B@ATL@@QEAA@XZ@4HA DD imagerel ?dtor$0@?0???1?$CComQIPtr@UIDXGIDevice1@@$1?_GUID_77db970f_6276_48ba_ba28_070143b4392c@@3U__s_GUID@@B@ATL@@QEAA@XZ@4HA
	DD	imagerel ?dtor$0@?0???1?$CComQIPtr@UIDXGIDevice1@@$1?_GUID_77db970f_6276_48ba_ba28_070143b4392c@@3U__s_GUID@@B@ATL@@QEAA@XZ@4HA+35
	DD	imagerel $unwind$?dtor$0@?0???1?$CComQIPtr@UIDXGIDevice1@@$1?_GUID_77db970f_6276_48ba_ba28_070143b4392c@@3U__s_GUID@@B@ATL@@QEAA@XZ@4HA
pdata	ENDS
;	COMDAT pdata
pdata	SEGMENT
$pdata$??0?$CComPtrBase@UIDXGIAdapter@@@ATL@@IEAA@XZ DD imagerel $LN3
	DD	imagerel $LN3+25
	DD	imagerel $unwind$??0?$CComPtrBase@UIDXGIAdapter@@@ATL@@IEAA@XZ
pdata	ENDS
;	COMDAT pdata
pdata	SEGMENT
$pdata$??1?$CComPtrBase@UIDXGIAdapter@@@ATL@@QEAA@XZ DD imagerel $LN4
	DD	imagerel $LN4+69
	DD	imagerel $unwind$??1?$CComPtrBase@UIDXGIAdapter@@@ATL@@QEAA@XZ
pdata	ENDS
;	COMDAT pdata
pdata	SEGMENT
$pdata$??B?$CComPtrBase@UIDXGIAdapter@@@ATL@@QEBAPEAUIDXGIAdapter@@XZ DD imagerel $LN3
	DD	imagerel $LN3+16
	DD	imagerel $unwind$??B?$CComPtrBase@UIDXGIAdapter@@@ATL@@QEBAPEAUIDXGIAdapter@@XZ
pdata	ENDS
;	COMDAT pdata
pdata	SEGMENT
$pdata$??I?$CComPtrBase@UIDXGIAdapter@@@ATL@@QEAAPEAPEAUIDXGIAdapter@@XZ DD imagerel $LN4
	DD	imagerel $LN4+111
	DD	imagerel $unwind$??I?$CComPtrBase@UIDXGIAdapter@@@ATL@@QEAAPEAPEAUIDXGIAdapter@@XZ
pdata	ENDS
;	COMDAT pdata
pdata	SEGMENT
$pdata$??0?$CComPtr@UIDXGIAdapter@@@ATL@@QEAA@XZ DD imagerel $LN4
	DD	imagerel $LN4+52
	DD	imagerel $unwind$??0?$CComPtr@UIDXGIAdapter@@@ATL@@QEAA@XZ
pdata	ENDS
;	COMDAT pdata
pdata	SEGMENT
$pdata$?dtor$0@?0???0?$CComPtr@UIDXGIAdapter@@@ATL@@QEAA@XZ@4HA DD imagerel ?dtor$0@?0???0?$CComPtr@UIDXGIAdapter@@@ATL@@QEAA@XZ@4HA
	DD	imagerel ?dtor$0@?0???0?$CComPtr@UIDXGIAdapter@@@ATL@@QEAA@XZ@4HA+35
	DD	imagerel $unwind$?dtor$0@?0???0?$CComPtr@UIDXGIAdapter@@@ATL@@QEAA@XZ@4HA
pdata	ENDS
;	COMDAT pdata
pdata	SEGMENT
$pdata$??1?$CComPtr@UIDXGIAdapter@@@ATL@@QEAA@XZ DD imagerel $LN4
	DD	imagerel $LN4+47
	DD	imagerel $unwind$??1?$CComPtr@UIDXGIAdapter@@@ATL@@QEAA@XZ
pdata	ENDS
;	COMDAT pdata
pdata	SEGMENT
$pdata$?dtor$0@?0???1?$CComPtr@UIDXGIAdapter@@@ATL@@QEAA@XZ@4HA DD imagerel ?dtor$0@?0???1?$CComPtr@UIDXGIAdapter@@@ATL@@QEAA@XZ@4HA
	DD	imagerel ?dtor$0@?0???1?$CComPtr@UIDXGIAdapter@@@ATL@@QEAA@XZ@4HA+35
	DD	imagerel $unwind$?dtor$0@?0???1?$CComPtr@UIDXGIAdapter@@@ATL@@QEAA@XZ@4HA
pdata	ENDS
;	COMDAT pdata
pdata	SEGMENT
$pdata$??0?$CComQIPtr@UIDXGIAdapter@@$1?_GUID_2411e7e1_12ac_4ccf_bd14_9798e8534dc0@@3U__s_GUID@@B@ATL@@QEAA@XZ DD imagerel $LN4
	DD	imagerel $LN4+52
	DD	imagerel $unwind$??0?$CComQIPtr@UIDXGIAdapter@@$1?_GUID_2411e7e1_12ac_4ccf_bd14_9798e8534dc0@@3U__s_GUID@@B@ATL@@QEAA@XZ
pdata	ENDS
;	COMDAT pdata
pdata	SEGMENT
$pdata$?dtor$0@?0???0?$CComQIPtr@UIDXGIAdapter@@$1?_GUID_2411e7e1_12ac_4ccf_bd14_9798e8534dc0@@3U__s_GUID@@B@ATL@@QEAA@XZ@4HA DD imagerel ?dtor$0@?0???0?$CComQIPtr@UIDXGIAdapter@@$1?_GUID_2411e7e1_12ac_4ccf_bd14_9798e8534dc0@@3U__s_GUID@@B@ATL@@QEAA@XZ@4HA
	DD	imagerel ?dtor$0@?0???0?$CComQIPtr@UIDXGIAdapter@@$1?_GUID_2411e7e1_12ac_4ccf_bd14_9798e8534dc0@@3U__s_GUID@@B@ATL@@QEAA@XZ@4HA+35
	DD	imagerel $unwind$?dtor$0@?0???0?$CComQIPtr@UIDXGIAdapter@@$1?_GUID_2411e7e1_12ac_4ccf_bd14_9798e8534dc0@@3U__s_GUID@@B@ATL@@QEAA@XZ@4HA
pdata	ENDS
;	COMDAT pdata
pdata	SEGMENT
$pdata$??1?$CComQIPtr@UIDXGIAdapter@@$1?_GUID_2411e7e1_12ac_4ccf_bd14_9798e8534dc0@@3U__s_GUID@@B@ATL@@QEAA@XZ DD imagerel $LN4
	DD	imagerel $LN4+47
	DD	imagerel $unwind$??1?$CComQIPtr@UIDXGIAdapter@@$1?_GUID_2411e7e1_12ac_4ccf_bd14_9798e8534dc0@@3U__s_GUID@@B@ATL@@QEAA@XZ
pdata	ENDS
;	COMDAT pdata
pdata	SEGMENT
$pdata$?dtor$0@?0???1?$CComQIPtr@UIDXGIAdapter@@$1?_GUID_2411e7e1_12ac_4ccf_bd14_9798e8534dc0@@3U__s_GUID@@B@ATL@@QEAA@XZ@4HA DD imagerel ?dtor$0@?0???1?$CComQIPtr@UIDXGIAdapter@@$1?_GUID_2411e7e1_12ac_4ccf_bd14_9798e8534dc0@@3U__s_GUID@@B@ATL@@QEAA@XZ@4HA
	DD	imagerel ?dtor$0@?0???1?$CComQIPtr@UIDXGIAdapter@@$1?_GUID_2411e7e1_12ac_4ccf_bd14_9798e8534dc0@@3U__s_GUID@@B@ATL@@QEAA@XZ@4HA+35
	DD	imagerel $unwind$?dtor$0@?0???1?$CComQIPtr@UIDXGIAdapter@@$1?_GUID_2411e7e1_12ac_4ccf_bd14_9798e8534dc0@@3U__s_GUID@@B@ATL@@QEAA@XZ@4HA
pdata	ENDS
;	COMDAT pdata
pdata	SEGMENT
$pdata$??0?$CComPtrBase@UIDXGIFactory2@@@ATL@@IEAA@XZ DD imagerel $LN3
	DD	imagerel $LN3+25
	DD	imagerel $unwind$??0?$CComPtrBase@UIDXGIFactory2@@@ATL@@IEAA@XZ
pdata	ENDS
;	COMDAT pdata
pdata	SEGMENT
$pdata$??1?$CComPtrBase@UIDXGIFactory2@@@ATL@@QEAA@XZ DD imagerel $LN4
	DD	imagerel $LN4+69
	DD	imagerel $unwind$??1?$CComPtrBase@UIDXGIFactory2@@@ATL@@QEAA@XZ
pdata	ENDS
;	COMDAT pdata
pdata	SEGMENT
$pdata$??I?$CComPtrBase@UIDXGIFactory2@@@ATL@@QEAAPEAPEAUIDXGIFactory2@@XZ DD imagerel $LN4
	DD	imagerel $LN4+111
	DD	imagerel $unwind$??I?$CComPtrBase@UIDXGIFactory2@@@ATL@@QEAAPEAPEAUIDXGIFactory2@@XZ
pdata	ENDS
;	COMDAT pdata
pdata	SEGMENT
$pdata$??C?$CComPtrBase@UIDXGIFactory2@@@ATL@@QEBAPEAV?$_NoAddRefReleaseOnCComPtr@UIDXGIFactory2@@@1@XZ DD imagerel $LN4
	DD	imagerel $LN4+114
	DD	imagerel $unwind$??C?$CComPtrBase@UIDXGIFactory2@@@ATL@@QEBAPEAV?$_NoAddRefReleaseOnCComPtr@UIDXGIFactory2@@@1@XZ
pdata	ENDS
;	COMDAT pdata
pdata	SEGMENT
$pdata$??0?$CComPtr@UIDXGIFactory2@@@ATL@@QEAA@XZ DD imagerel $LN4
	DD	imagerel $LN4+52
	DD	imagerel $unwind$??0?$CComPtr@UIDXGIFactory2@@@ATL@@QEAA@XZ
pdata	ENDS
;	COMDAT pdata
pdata	SEGMENT
$pdata$?dtor$0@?0???0?$CComPtr@UIDXGIFactory2@@@ATL@@QEAA@XZ@4HA DD imagerel ?dtor$0@?0???0?$CComPtr@UIDXGIFactory2@@@ATL@@QEAA@XZ@4HA
	DD	imagerel ?dtor$0@?0???0?$CComPtr@UIDXGIFactory2@@@ATL@@QEAA@XZ@4HA+35
	DD	imagerel $unwind$?dtor$0@?0???0?$CComPtr@UIDXGIFactory2@@@ATL@@QEAA@XZ@4HA
pdata	ENDS
;	COMDAT pdata
pdata	SEGMENT
$pdata$??1?$CComPtr@UIDXGIFactory2@@@ATL@@QEAA@XZ DD imagerel $LN4
	DD	imagerel $LN4+47
	DD	imagerel $unwind$??1?$CComPtr@UIDXGIFactory2@@@ATL@@QEAA@XZ
pdata	ENDS
;	COMDAT pdata
pdata	SEGMENT
$pdata$?dtor$0@?0???1?$CComPtr@UIDXGIFactory2@@@ATL@@QEAA@XZ@4HA DD imagerel ?dtor$0@?0???1?$CComPtr@UIDXGIFactory2@@@ATL@@QEAA@XZ@4HA
	DD	imagerel ?dtor$0@?0???1?$CComPtr@UIDXGIFactory2@@@ATL@@QEAA@XZ@4HA+35
	DD	imagerel $unwind$?dtor$0@?0???1?$CComPtr@UIDXGIFactory2@@@ATL@@QEAA@XZ@4HA
pdata	ENDS
;	COMDAT pdata
pdata	SEGMENT
$pdata$??0?$CComPtrBase@UIDXGISwapChain1@@@ATL@@IEAA@XZ DD imagerel $LN3
	DD	imagerel $LN3+25
	DD	imagerel $unwind$??0?$CComPtrBase@UIDXGISwapChain1@@@ATL@@IEAA@XZ
pdata	ENDS
;	COMDAT pdata
pdata	SEGMENT
$pdata$??1?$CComPtrBase@UIDXGISwapChain1@@@ATL@@QEAA@XZ DD imagerel $LN4
	DD	imagerel $LN4+69
	DD	imagerel $unwind$??1?$CComPtrBase@UIDXGISwapChain1@@@ATL@@QEAA@XZ
pdata	ENDS
;	COMDAT pdata
pdata	SEGMENT
$pdata$??I?$CComPtrBase@UIDXGISwapChain1@@@ATL@@QEAAPEAPEAUIDXGISwapChain1@@XZ DD imagerel $LN4
	DD	imagerel $LN4+111
	DD	imagerel $unwind$??I?$CComPtrBase@UIDXGISwapChain1@@@ATL@@QEAAPEAPEAUIDXGISwapChain1@@XZ
pdata	ENDS
;	COMDAT pdata
pdata	SEGMENT
$pdata$??0?$CComPtr@UIDXGISwapChain1@@@ATL@@QEAA@XZ DD imagerel $LN4
	DD	imagerel $LN4+52
	DD	imagerel $unwind$??0?$CComPtr@UIDXGISwapChain1@@@ATL@@QEAA@XZ
pdata	ENDS
;	COMDAT pdata
pdata	SEGMENT
$pdata$?dtor$0@?0???0?$CComPtr@UIDXGISwapChain1@@@ATL@@QEAA@XZ@4HA DD imagerel ?dtor$0@?0???0?$CComPtr@UIDXGISwapChain1@@@ATL@@QEAA@XZ@4HA
	DD	imagerel ?dtor$0@?0???0?$CComPtr@UIDXGISwapChain1@@@ATL@@QEAA@XZ@4HA+35
	DD	imagerel $unwind$?dtor$0@?0???0?$CComPtr@UIDXGISwapChain1@@@ATL@@QEAA@XZ@4HA
pdata	ENDS
;	COMDAT pdata
pdata	SEGMENT
$pdata$??1?$CComPtr@UIDXGISwapChain1@@@ATL@@QEAA@XZ DD imagerel $LN4
	DD	imagerel $LN4+47
	DD	imagerel $unwind$??1?$CComPtr@UIDXGISwapChain1@@@ATL@@QEAA@XZ
pdata	ENDS
;	COMDAT pdata
pdata	SEGMENT
$pdata$?dtor$0@?0???1?$CComPtr@UIDXGISwapChain1@@@ATL@@QEAA@XZ@4HA DD imagerel ?dtor$0@?0???1?$CComPtr@UIDXGISwapChain1@@@ATL@@QEAA@XZ@4HA
	DD	imagerel ?dtor$0@?0???1?$CComPtr@UIDXGISwapChain1@@@ATL@@QEAA@XZ@4HA+35
	DD	imagerel $unwind$?dtor$0@?0???1?$CComPtr@UIDXGISwapChain1@@@ATL@@QEAA@XZ@4HA
pdata	ENDS
;	COMDAT pdata
pdata	SEGMENT
$pdata$??0?$CComPtrBase@UID3D11VideoProcessor@@@ATL@@IEAA@XZ DD imagerel $LN3
	DD	imagerel $LN3+25
	DD	imagerel $unwind$??0?$CComPtrBase@UID3D11VideoProcessor@@@ATL@@IEAA@XZ
pdata	ENDS
;	COMDAT pdata
pdata	SEGMENT
$pdata$??1?$CComPtrBase@UID3D11VideoProcessor@@@ATL@@QEAA@XZ DD imagerel $LN4
	DD	imagerel $LN4+69
	DD	imagerel $unwind$??1?$CComPtrBase@UID3D11VideoProcessor@@@ATL@@QEAA@XZ
pdata	ENDS
;	COMDAT pdata
pdata	SEGMENT
$pdata$??I?$CComPtrBase@UID3D11VideoProcessor@@@ATL@@QEAAPEAPEAUID3D11VideoProcessor@@XZ DD imagerel $LN4
	DD	imagerel $LN4+111
	DD	imagerel $unwind$??I?$CComPtrBase@UID3D11VideoProcessor@@@ATL@@QEAAPEAPEAUID3D11VideoProcessor@@XZ
pdata	ENDS
;	COMDAT pdata
pdata	SEGMENT
$pdata$??0?$CComPtr@UID3D11VideoProcessor@@@ATL@@QEAA@XZ DD imagerel $LN4
	DD	imagerel $LN4+52
	DD	imagerel $unwind$??0?$CComPtr@UID3D11VideoProcessor@@@ATL@@QEAA@XZ
pdata	ENDS
;	COMDAT pdata
pdata	SEGMENT
$pdata$?dtor$0@?0???0?$CComPtr@UID3D11VideoProcessor@@@ATL@@QEAA@XZ@4HA DD imagerel ?dtor$0@?0???0?$CComPtr@UID3D11VideoProcessor@@@ATL@@QEAA@XZ@4HA
	DD	imagerel ?dtor$0@?0???0?$CComPtr@UID3D11VideoProcessor@@@ATL@@QEAA@XZ@4HA+35
	DD	imagerel $unwind$?dtor$0@?0???0?$CComPtr@UID3D11VideoProcessor@@@ATL@@QEAA@XZ@4HA
pdata	ENDS
;	COMDAT pdata
pdata	SEGMENT
$pdata$??1?$CComPtr@UID3D11VideoProcessor@@@ATL@@QEAA@XZ DD imagerel $LN4
	DD	imagerel $LN4+47
	DD	imagerel $unwind$??1?$CComPtr@UID3D11VideoProcessor@@@ATL@@QEAA@XZ
pdata	ENDS
;	COMDAT pdata
pdata	SEGMENT
$pdata$?dtor$0@?0???1?$CComPtr@UID3D11VideoProcessor@@@ATL@@QEAA@XZ@4HA DD imagerel ?dtor$0@?0???1?$CComPtr@UID3D11VideoProcessor@@@ATL@@QEAA@XZ@4HA
	DD	imagerel ?dtor$0@?0???1?$CComPtr@UID3D11VideoProcessor@@@ATL@@QEAA@XZ@4HA+35
	DD	imagerel $unwind$?dtor$0@?0???1?$CComPtr@UID3D11VideoProcessor@@@ATL@@QEAA@XZ@4HA
pdata	ENDS
;	COMDAT pdata
pdata	SEGMENT
$pdata$??0?$CComPtrBase@UID3D11VideoProcessorInputView@@@ATL@@IEAA@XZ DD imagerel $LN3
	DD	imagerel $LN3+25
	DD	imagerel $unwind$??0?$CComPtrBase@UID3D11VideoProcessorInputView@@@ATL@@IEAA@XZ
pdata	ENDS
;	COMDAT pdata
pdata	SEGMENT
$pdata$??1?$CComPtrBase@UID3D11VideoProcessorInputView@@@ATL@@QEAA@XZ DD imagerel $LN4
	DD	imagerel $LN4+69
	DD	imagerel $unwind$??1?$CComPtrBase@UID3D11VideoProcessorInputView@@@ATL@@QEAA@XZ
pdata	ENDS
;	COMDAT pdata
pdata	SEGMENT
$pdata$??0?$CComPtr@UID3D11VideoProcessorInputView@@@ATL@@QEAA@XZ DD imagerel $LN4
	DD	imagerel $LN4+52
	DD	imagerel $unwind$??0?$CComPtr@UID3D11VideoProcessorInputView@@@ATL@@QEAA@XZ
pdata	ENDS
;	COMDAT pdata
pdata	SEGMENT
$pdata$?dtor$0@?0???0?$CComPtr@UID3D11VideoProcessorInputView@@@ATL@@QEAA@XZ@4HA DD imagerel ?dtor$0@?0???0?$CComPtr@UID3D11VideoProcessorInputView@@@ATL@@QEAA@XZ@4HA
	DD	imagerel ?dtor$0@?0???0?$CComPtr@UID3D11VideoProcessorInputView@@@ATL@@QEAA@XZ@4HA+35
	DD	imagerel $unwind$?dtor$0@?0???0?$CComPtr@UID3D11VideoProcessorInputView@@@ATL@@QEAA@XZ@4HA
pdata	ENDS
;	COMDAT pdata
pdata	SEGMENT
$pdata$??1?$CComPtr@UID3D11VideoProcessorInputView@@@ATL@@QEAA@XZ DD imagerel $LN4
	DD	imagerel $LN4+47
	DD	imagerel $unwind$??1?$CComPtr@UID3D11VideoProcessorInputView@@@ATL@@QEAA@XZ
pdata	ENDS
;	COMDAT pdata
pdata	SEGMENT
$pdata$?dtor$0@?0???1?$CComPtr@UID3D11VideoProcessorInputView@@@ATL@@QEAA@XZ@4HA DD imagerel ?dtor$0@?0???1?$CComPtr@UID3D11VideoProcessorInputView@@@ATL@@QEAA@XZ@4HA
	DD	imagerel ?dtor$0@?0???1?$CComPtr@UID3D11VideoProcessorInputView@@@ATL@@QEAA@XZ@4HA+35
	DD	imagerel $unwind$?dtor$0@?0???1?$CComPtr@UID3D11VideoProcessorInputView@@@ATL@@QEAA@XZ@4HA
pdata	ENDS
;	COMDAT pdata
pdata	SEGMENT
$pdata$??0?$CComPtrBase@UID3D11VideoProcessorOutputView@@@ATL@@IEAA@XZ DD imagerel $LN3
	DD	imagerel $LN3+25
	DD	imagerel $unwind$??0?$CComPtrBase@UID3D11VideoProcessorOutputView@@@ATL@@IEAA@XZ
pdata	ENDS
;	COMDAT pdata
pdata	SEGMENT
$pdata$??1?$CComPtrBase@UID3D11VideoProcessorOutputView@@@ATL@@QEAA@XZ DD imagerel $LN4
	DD	imagerel $LN4+69
	DD	imagerel $unwind$??1?$CComPtrBase@UID3D11VideoProcessorOutputView@@@ATL@@QEAA@XZ
pdata	ENDS
;	COMDAT pdata
pdata	SEGMENT
$pdata$??0?$CComPtr@UID3D11VideoProcessorOutputView@@@ATL@@QEAA@XZ DD imagerel $LN4
	DD	imagerel $LN4+52
	DD	imagerel $unwind$??0?$CComPtr@UID3D11VideoProcessorOutputView@@@ATL@@QEAA@XZ
pdata	ENDS
;	COMDAT pdata
pdata	SEGMENT
$pdata$?dtor$0@?0???0?$CComPtr@UID3D11VideoProcessorOutputView@@@ATL@@QEAA@XZ@4HA DD imagerel ?dtor$0@?0???0?$CComPtr@UID3D11VideoProcessorOutputView@@@ATL@@QEAA@XZ@4HA
	DD	imagerel ?dtor$0@?0???0?$CComPtr@UID3D11VideoProcessorOutputView@@@ATL@@QEAA@XZ@4HA+35
	DD	imagerel $unwind$?dtor$0@?0???0?$CComPtr@UID3D11VideoProcessorOutputView@@@ATL@@QEAA@XZ@4HA
pdata	ENDS
;	COMDAT pdata
pdata	SEGMENT
$pdata$??1?$CComPtr@UID3D11VideoProcessorOutputView@@@ATL@@QEAA@XZ DD imagerel $LN4
	DD	imagerel $LN4+47
	DD	imagerel $unwind$??1?$CComPtr@UID3D11VideoProcessorOutputView@@@ATL@@QEAA@XZ
pdata	ENDS
;	COMDAT pdata
pdata	SEGMENT
$pdata$?dtor$0@?0???1?$CComPtr@UID3D11VideoProcessorOutputView@@@ATL@@QEAA@XZ@4HA DD imagerel ?dtor$0@?0???1?$CComPtr@UID3D11VideoProcessorOutputView@@@ATL@@QEAA@XZ@4HA
	DD	imagerel ?dtor$0@?0???1?$CComPtr@UID3D11VideoProcessorOutputView@@@ATL@@QEAA@XZ@4HA+35
	DD	imagerel $unwind$?dtor$0@?0???1?$CComPtr@UID3D11VideoProcessorOutputView@@@ATL@@QEAA@XZ@4HA
pdata	ENDS
;	COMDAT pdata
pdata	SEGMENT
$pdata$??0?$CComPtrBase@UID3D11Texture2D@@@ATL@@IEAA@XZ DD imagerel $LN3
	DD	imagerel $LN3+25
	DD	imagerel $unwind$??0?$CComPtrBase@UID3D11Texture2D@@@ATL@@IEAA@XZ
pdata	ENDS
;	COMDAT pdata
pdata	SEGMENT
$pdata$??1?$CComPtrBase@UID3D11Texture2D@@@ATL@@QEAA@XZ DD imagerel $LN4
	DD	imagerel $LN4+69
	DD	imagerel $unwind$??1?$CComPtrBase@UID3D11Texture2D@@@ATL@@QEAA@XZ
pdata	ENDS
;	COMDAT pdata
pdata	SEGMENT
$pdata$??0?$CComPtr@UID3D11Texture2D@@@ATL@@QEAA@XZ DD imagerel $LN4
	DD	imagerel $LN4+52
	DD	imagerel $unwind$??0?$CComPtr@UID3D11Texture2D@@@ATL@@QEAA@XZ
pdata	ENDS
;	COMDAT pdata
pdata	SEGMENT
$pdata$?dtor$0@?0???0?$CComPtr@UID3D11Texture2D@@@ATL@@QEAA@XZ@4HA DD imagerel ?dtor$0@?0???0?$CComPtr@UID3D11Texture2D@@@ATL@@QEAA@XZ@4HA
	DD	imagerel ?dtor$0@?0???0?$CComPtr@UID3D11Texture2D@@@ATL@@QEAA@XZ@4HA+35
	DD	imagerel $unwind$?dtor$0@?0???0?$CComPtr@UID3D11Texture2D@@@ATL@@QEAA@XZ@4HA
pdata	ENDS
;	COMDAT pdata
pdata	SEGMENT
$pdata$??1?$CComPtr@UID3D11Texture2D@@@ATL@@QEAA@XZ DD imagerel $LN4
	DD	imagerel $LN4+47
	DD	imagerel $unwind$??1?$CComPtr@UID3D11Texture2D@@@ATL@@QEAA@XZ
pdata	ENDS
;	COMDAT pdata
pdata	SEGMENT
$pdata$?dtor$0@?0???1?$CComPtr@UID3D11Texture2D@@@ATL@@QEAA@XZ@4HA DD imagerel ?dtor$0@?0???1?$CComPtr@UID3D11Texture2D@@@ATL@@QEAA@XZ@4HA
	DD	imagerel ?dtor$0@?0???1?$CComPtr@UID3D11Texture2D@@@ATL@@QEAA@XZ@4HA+35
	DD	imagerel $unwind$?dtor$0@?0???1?$CComPtr@UID3D11Texture2D@@@ATL@@QEAA@XZ@4HA
pdata	ENDS
;	COMDAT pdata
pdata	SEGMENT
$pdata$??0?$CComPtrBase@UIDXGIDisplayControl@@@ATL@@IEAA@XZ DD imagerel $LN3
	DD	imagerel $LN3+25
	DD	imagerel $unwind$??0?$CComPtrBase@UIDXGIDisplayControl@@@ATL@@IEAA@XZ
pdata	ENDS
;	COMDAT pdata
pdata	SEGMENT
$pdata$??1?$CComPtrBase@UIDXGIDisplayControl@@@ATL@@QEAA@XZ DD imagerel $LN4
	DD	imagerel $LN4+69
	DD	imagerel $unwind$??1?$CComPtrBase@UIDXGIDisplayControl@@@ATL@@QEAA@XZ
pdata	ENDS
;	COMDAT pdata
pdata	SEGMENT
$pdata$??0?$CComPtr@UIDXGIDisplayControl@@@ATL@@QEAA@XZ DD imagerel $LN4
	DD	imagerel $LN4+52
	DD	imagerel $unwind$??0?$CComPtr@UIDXGIDisplayControl@@@ATL@@QEAA@XZ
pdata	ENDS
;	COMDAT pdata
pdata	SEGMENT
$pdata$?dtor$0@?0???0?$CComPtr@UIDXGIDisplayControl@@@ATL@@QEAA@XZ@4HA DD imagerel ?dtor$0@?0???0?$CComPtr@UIDXGIDisplayControl@@@ATL@@QEAA@XZ@4HA
	DD	imagerel ?dtor$0@?0???0?$CComPtr@UIDXGIDisplayControl@@@ATL@@QEAA@XZ@4HA+35
	DD	imagerel $unwind$?dtor$0@?0???0?$CComPtr@UIDXGIDisplayControl@@@ATL@@QEAA@XZ@4HA
pdata	ENDS
;	COMDAT pdata
pdata	SEGMENT
$pdata$??1?$CComPtr@UIDXGIDisplayControl@@@ATL@@QEAA@XZ DD imagerel $LN4
	DD	imagerel $LN4+47
	DD	imagerel $unwind$??1?$CComPtr@UIDXGIDisplayControl@@@ATL@@QEAA@XZ
pdata	ENDS
;	COMDAT pdata
pdata	SEGMENT
$pdata$?dtor$0@?0???1?$CComPtr@UIDXGIDisplayControl@@@ATL@@QEAA@XZ@4HA DD imagerel ?dtor$0@?0???1?$CComPtr@UIDXGIDisplayControl@@@ATL@@QEAA@XZ@4HA
	DD	imagerel ?dtor$0@?0???1?$CComPtr@UIDXGIDisplayControl@@@ATL@@QEAA@XZ@4HA+35
	DD	imagerel $unwind$?dtor$0@?0???1?$CComPtr@UIDXGIDisplayControl@@@ATL@@QEAA@XZ@4HA
pdata	ENDS
;	COMDAT pdata
pdata	SEGMENT
$pdata$??0?$CComPtrBase@UIDXGIOutput@@@ATL@@IEAA@XZ DD imagerel $LN3
	DD	imagerel $LN3+25
	DD	imagerel $unwind$??0?$CComPtrBase@UIDXGIOutput@@@ATL@@IEAA@XZ
pdata	ENDS
;	COMDAT pdata
pdata	SEGMENT
$pdata$??1?$CComPtrBase@UIDXGIOutput@@@ATL@@QEAA@XZ DD imagerel $LN4
	DD	imagerel $LN4+69
	DD	imagerel $unwind$??1?$CComPtrBase@UIDXGIOutput@@@ATL@@QEAA@XZ
pdata	ENDS
;	COMDAT pdata
pdata	SEGMENT
$pdata$??0?$CComPtr@UIDXGIOutput@@@ATL@@QEAA@XZ DD imagerel $LN4
	DD	imagerel $LN4+52
	DD	imagerel $unwind$??0?$CComPtr@UIDXGIOutput@@@ATL@@QEAA@XZ
pdata	ENDS
;	COMDAT pdata
pdata	SEGMENT
$pdata$?dtor$0@?0???0?$CComPtr@UIDXGIOutput@@@ATL@@QEAA@XZ@4HA DD imagerel ?dtor$0@?0???0?$CComPtr@UIDXGIOutput@@@ATL@@QEAA@XZ@4HA
	DD	imagerel ?dtor$0@?0???0?$CComPtr@UIDXGIOutput@@@ATL@@QEAA@XZ@4HA+35
	DD	imagerel $unwind$?dtor$0@?0???0?$CComPtr@UIDXGIOutput@@@ATL@@QEAA@XZ@4HA
pdata	ENDS
;	COMDAT pdata
pdata	SEGMENT
$pdata$??1?$CComPtr@UIDXGIOutput@@@ATL@@QEAA@XZ DD imagerel $LN4
	DD	imagerel $LN4+47
	DD	imagerel $unwind$??1?$CComPtr@UIDXGIOutput@@@ATL@@QEAA@XZ
pdata	ENDS
;	COMDAT pdata
pdata	SEGMENT
$pdata$?dtor$0@?0???1?$CComPtr@UIDXGIOutput@@@ATL@@QEAA@XZ@4HA DD imagerel ?dtor$0@?0???1?$CComPtr@UIDXGIOutput@@@ATL@@QEAA@XZ@4HA
	DD	imagerel ?dtor$0@?0???1?$CComPtr@UIDXGIOutput@@@ATL@@QEAA@XZ@4HA+35
	DD	imagerel $unwind$?dtor$0@?0???1?$CComPtr@UIDXGIOutput@@@ATL@@QEAA@XZ@4HA
pdata	ENDS
;	COMDAT pdata
pdata	SEGMENT
$pdata$??_GCQSVD3D11Device@@UEAAPEAXI@Z DD imagerel $LN4
	DD	imagerel $LN4+81
	DD	imagerel $unwind$??_GCQSVD3D11Device@@UEAAPEAXI@Z
pdata	ENDS
;	COMDAT pdata
pdata	SEGMENT
$pdata$??$?CVRGYLog@@$0A@@?$shared_ptr@VRGYLog@@@std@@QEBAPEAVRGYLog@@XZ DD imagerel $LN3
	DD	imagerel $LN3+46
	DD	imagerel $unwind$??$?CVRGYLog@@$0A@@?$shared_ptr@VRGYLog@@@std@@QEBAPEAVRGYLog@@XZ
pdata	ENDS
;	COMDAT pdata
pdata	SEGMENT
$pdata$??0?$CComPtrBase@UID3D10Multithread@@@ATL@@IEAA@XZ DD imagerel $LN3
	DD	imagerel $LN3+25
	DD	imagerel $unwind$??0?$CComPtrBase@UID3D10Multithread@@@ATL@@IEAA@XZ
pdata	ENDS
;	COMDAT pdata
pdata	SEGMENT
$pdata$??1?$CComPtrBase@UID3D10Multithread@@@ATL@@QEAA@XZ DD imagerel $LN4
	DD	imagerel $LN4+69
	DD	imagerel $unwind$??1?$CComPtrBase@UID3D10Multithread@@@ATL@@QEAA@XZ
pdata	ENDS
;	COMDAT pdata
pdata	SEGMENT
$pdata$??C?$CComPtrBase@UID3D10Multithread@@@ATL@@QEBAPEAV?$_NoAddRefReleaseOnCComPtr@UID3D10Multithread@@@1@XZ DD imagerel $LN4
	DD	imagerel $LN4+114
	DD	imagerel $unwind$??C?$CComPtrBase@UID3D10Multithread@@@ATL@@QEBAPEAV?$_NoAddRefReleaseOnCComPtr@UID3D10Multithread@@@1@XZ
pdata	ENDS
;	COMDAT pdata
pdata	SEGMENT
$pdata$??7?$CComPtrBase@UID3D10Multithread@@@ATL@@QEBA_NXZ DD imagerel $LN5
	DD	imagerel $LN5+67
	DD	imagerel $unwind$??7?$CComPtrBase@UID3D10Multithread@@@ATL@@QEBA_NXZ
pdata	ENDS
;	COMDAT pdata
pdata	SEGMENT
$pdata$??0?$CComPtr@UID3D10Multithread@@@ATL@@QEAA@XZ DD imagerel $LN4
	DD	imagerel $LN4+52
	DD	imagerel $unwind$??0?$CComPtr@UID3D10Multithread@@@ATL@@QEAA@XZ
pdata	ENDS
;	COMDAT pdata
pdata	SEGMENT
$pdata$?dtor$0@?0???0?$CComPtr@UID3D10Multithread@@@ATL@@QEAA@XZ@4HA DD imagerel ?dtor$0@?0???0?$CComPtr@UID3D10Multithread@@@ATL@@QEAA@XZ@4HA
	DD	imagerel ?dtor$0@?0???0?$CComPtr@UID3D10Multithread@@@ATL@@QEAA@XZ@4HA+35
	DD	imagerel $unwind$?dtor$0@?0???0?$CComPtr@UID3D10Multithread@@@ATL@@QEAA@XZ@4HA
pdata	ENDS
;	COMDAT pdata
pdata	SEGMENT
$pdata$??1?$CComPtr@UID3D10Multithread@@@ATL@@QEAA@XZ DD imagerel $LN4
	DD	imagerel $LN4+47
	DD	imagerel $unwind$??1?$CComPtr@UID3D10Multithread@@@ATL@@QEAA@XZ
pdata	ENDS
;	COMDAT pdata
pdata	SEGMENT
$pdata$?dtor$0@?0???1?$CComPtr@UID3D10Multithread@@@ATL@@QEAA@XZ@4HA DD imagerel ?dtor$0@?0???1?$CComPtr@UID3D10Multithread@@@ATL@@QEAA@XZ@4HA
	DD	imagerel ?dtor$0@?0???1?$CComPtr@UID3D10Multithread@@@ATL@@QEAA@XZ@4HA+35
	DD	imagerel $unwind$?dtor$0@?0???1?$CComPtr@UID3D10Multithread@@@ATL@@QEAA@XZ@4HA
pdata	ENDS
;	COMDAT pdata
pdata	SEGMENT
$pdata$??0?$CComQIPtr@UID3D10Multithread@@$1?_GUID_9b7e4e00_342c_4106_a19f_4f2704f689f0@@3U__s_GUID@@B@ATL@@QEAA@PEAUIUnknown@@@Z DD imagerel $LN6
	DD	imagerel $LN6+108
	DD	imagerel $unwind$??0?$CComQIPtr@UID3D10Multithread@@$1?_GUID_9b7e4e00_342c_4106_a19f_4f2704f689f0@@3U__s_GUID@@B@ATL@@QEAA@PEAUIUnknown@@@Z
pdata	ENDS
;	COMDAT pdata
pdata	SEGMENT
$pdata$?dtor$0@?0???0?$CComQIPtr@UID3D10Multithread@@$1?_GUID_9b7e4e00_342c_4106_a19f_4f2704f689f0@@3U__s_GUID@@B@ATL@@QEAA@PEAUIUnknown@@@Z@4HA DD imagerel ?dtor$0@?0???0?$CComQIPtr@UID3D10Multithread@@$1?_GUID_9b7e4e00_342c_4106_a19f_4f2704f689f0@@3U__s_GUID@@B@ATL@@QEAA@PEAUIUnknown@@@Z@4HA
	DD	imagerel ?dtor$0@?0???0?$CComQIPtr@UID3D10Multithread@@$1?_GUID_9b7e4e00_342c_4106_a19f_4f2704f689f0@@3U__s_GUID@@B@ATL@@QEAA@PEAUIUnknown@@@Z@4HA+35
	DD	imagerel $unwind$?dtor$0@?0???0?$CComQIPtr@UID3D10Multithread@@$1?_GUID_9b7e4e00_342c_4106_a19f_4f2704f689f0@@3U__s_GUID@@B@ATL@@QEAA@PEAUIUnknown@@@Z@4HA
pdata	ENDS
;	COMDAT pdata
pdata	SEGMENT
$pdata$??1?$CComQIPtr@UID3D10Multithread@@$1?_GUID_9b7e4e00_342c_4106_a19f_4f2704f689f0@@3U__s_GUID@@B@ATL@@QEAA@XZ DD imagerel $LN4
	DD	imagerel $LN4+47
	DD	imagerel $unwind$??1?$CComQIPtr@UID3D10Multithread@@$1?_GUID_9b7e4e00_342c_4106_a19f_4f2704f689f0@@3U__s_GUID@@B@ATL@@QEAA@XZ
pdata	ENDS
;	COMDAT pdata
pdata	SEGMENT
$pdata$?dtor$0@?0???1?$CComQIPtr@UID3D10Multithread@@$1?_GUID_9b7e4e00_342c_4106_a19f_4f2704f689f0@@3U__s_GUID@@B@ATL@@QEAA@XZ@4HA DD imagerel ?dtor$0@?0???1?$CComQIPtr@UID3D10Multithread@@$1?_GUID_9b7e4e00_342c_4106_a19f_4f2704f689f0@@3U__s_GUID@@B@ATL@@QEAA@XZ@4HA
	DD	imagerel ?dtor$0@?0???1?$CComQIPtr@UID3D10Multithread@@$1?_GUID_9b7e4e00_342c_4106_a19f_4f2704f689f0@@3U__s_GUID@@B@ATL@@QEAA@XZ@4HA+35
	DD	imagerel $unwind$?dtor$0@?0???1?$CComQIPtr@UID3D10Multithread@@$1?_GUID_9b7e4e00_342c_4106_a19f_4f2704f689f0@@3U__s_GUID@@B@ATL@@QEAA@XZ@4HA
pdata	ENDS
;	COMDAT pdata
pdata	SEGMENT
$pdata$??$AtlMultiply@_K@ATL@@YAJPEA_K_K1@Z DD imagerel $LN5
	DD	imagerel $LN5+124
	DD	imagerel $unwind$??$AtlMultiply@_K@ATL@@YAJPEA_K_K1@Z
pdata	ENDS
;	COMDAT pdata
pdata	SEGMENT
$pdata$??$_Copy_construct_from@VRGYLog@@@?$_Ptr_base@VRGYLog@@@std@@IEAAXAEBV?$shared_ptr@VRGYLog@@@1@@Z DD imagerel $LN4
	DD	imagerel $LN4+101
	DD	imagerel $unwind$??$_Copy_construct_from@VRGYLog@@@?$_Ptr_base@VRGYLog@@@std@@IEAAXAEBV?$shared_ptr@VRGYLog@@@1@@Z
pdata	ENDS
;	COMDAT pdata
pdata	SEGMENT
$pdata$??$swap@PEAVRGYLog@@X@std@@YAXAEAPEAVRGYLog@@0@Z DD imagerel $LN3
	DD	imagerel $LN3+116
	DD	imagerel $unwind$??$swap@PEAVRGYLog@@X@std@@YAXAEAPEAVRGYLog@@0@Z
pdata	ENDS
;	COMDAT pdata
pdata	SEGMENT
$pdata$??$swap@PEAV_Ref_count_base@std@@X@std@@YAXAEAPEAV_Ref_count_base@0@0@Z DD imagerel $LN3
	DD	imagerel $LN3+116
	DD	imagerel $unwind$??$swap@PEAV_Ref_count_base@std@@X@std@@YAXAEAPEAV_Ref_count_base@0@0@Z
pdata	ENDS
;	COMDAT pdata
pdata	SEGMENT
$pdata$??$move@AEAPEAVRGYLog@@@std@@YA$$QEAPEAVRGYLog@@AEAPEAV1@@Z DD imagerel $LN3
	DD	imagerel $LN3+13
	DD	imagerel $unwind$??$move@AEAPEAVRGYLog@@@std@@YA$$QEAPEAVRGYLog@@AEAPEAV1@@Z
pdata	ENDS
;	COMDAT pdata
pdata	SEGMENT
$pdata$??$move@AEAPEAV_Ref_count_base@std@@@std@@YA$$QEAPEAV_Ref_count_base@0@AEAPEAV10@@Z DD imagerel $LN3
	DD	imagerel $LN3+13
	DD	imagerel $unwind$??$move@AEAPEAV_Ref_count_base@std@@@std@@YA$$QEAPEAV_Ref_count_base@0@AEAPEAV10@@Z
pdata	ENDS
CRT$XCU	SEGMENT
?CspMatrixList$initializer$@@3P6AXXZEA DQ FLAT:??__ECspMatrixList@@YAXXZ ; CspMatrixList$initializer$
CRT$XCU	ENDS
;	COMDAT rtc$TMZ
rtc$TMZ	SEGMENT
_RTC_Shutdown.rtc$TMZ DQ FLAT:_RTC_Shutdown
rtc$TMZ	ENDS
;	COMDAT rtc$IMZ
rtc$IMZ	SEGMENT
_RTC_InitBase.rtc$IMZ DQ FLAT:_RTC_InitBase
rtc$IMZ	ENDS
;	COMDAT ??_R1A@?0A@EA@CQSVD3D11Device@@8
rdata$r	SEGMENT
??_R1A@?0A@EA@CQSVD3D11Device@@8 DD imagerel ??_R0?AVCQSVD3D11Device@@@8 ; CQSVD3D11Device::`RTTI Base Class Descriptor at (0,-1,0,64)'
	DD	01H
	DD	00H
	DD	0ffffffffH
	DD	00H
	DD	040H
	DD	imagerel ??_R3CQSVD3D11Device@@8
rdata$r	ENDS
;	COMDAT ??_R2CQSVD3D11Device@@8
rdata$r	SEGMENT
??_R2CQSVD3D11Device@@8 DD imagerel ??_R1A@?0A@EA@CQSVD3D11Device@@8 ; CQSVD3D11Device::`RTTI Base Class Array'
	DD	imagerel ??_R1A@?0A@EA@CQSVHWDevice@@8
	ORG $+3
rdata$r	ENDS
;	COMDAT ??_R3CQSVD3D11Device@@8
rdata$r	SEGMENT
??_R3CQSVD3D11Device@@8 DD 00H				; CQSVD3D11Device::`RTTI Class Hierarchy Descriptor'
	DD	00H
	DD	02H
	DD	imagerel ??_R2CQSVD3D11Device@@8
rdata$r	ENDS
;	COMDAT ??_R0?AVCQSVD3D11Device@@@8
data$r	SEGMENT
??_R0?AVCQSVD3D11Device@@@8 DQ FLAT:??_7type_info@@6B@	; CQSVD3D11Device `RTTI Type Descriptor'
	DQ	0000000000000000H
	DB	'.?AVCQSVD3D11Device@@', 00H
data$r	ENDS
;	COMDAT ??_R4CQSVD3D11Device@@6B@
rdata$r	SEGMENT
??_R4CQSVD3D11Device@@6B@ DD 01H			; CQSVD3D11Device::`RTTI Complete Object Locator'
	DD	00H
	DD	00H
	DD	imagerel ??_R0?AVCQSVD3D11Device@@@8
	DD	imagerel ??_R3CQSVD3D11Device@@8
	DD	imagerel ??_R4CQSVD3D11Device@@6B@
rdata$r	ENDS
;	COMDAT ??_R1A@?0A@EA@CQSVHWDevice@@8
rdata$r	SEGMENT
??_R1A@?0A@EA@CQSVHWDevice@@8 DD imagerel ??_R0?AVCQSVHWDevice@@@8 ; CQSVHWDevice::`RTTI Base Class Descriptor at (0,-1,0,64)'
	DD	00H
	DD	00H
	DD	0ffffffffH
	DD	00H
	DD	040H
	DD	imagerel ??_R3CQSVHWDevice@@8
rdata$r	ENDS
;	COMDAT ??_R2CQSVHWDevice@@8
rdata$r	SEGMENT
??_R2CQSVHWDevice@@8 DD imagerel ??_R1A@?0A@EA@CQSVHWDevice@@8 ; CQSVHWDevice::`RTTI Base Class Array'
	ORG $+3
rdata$r	ENDS
;	COMDAT ??_R3CQSVHWDevice@@8
rdata$r	SEGMENT
??_R3CQSVHWDevice@@8 DD 00H				; CQSVHWDevice::`RTTI Class Hierarchy Descriptor'
	DD	00H
	DD	01H
	DD	imagerel ??_R2CQSVHWDevice@@8
rdata$r	ENDS
;	COMDAT ??_R0?AVCQSVHWDevice@@@8
data$r	SEGMENT
??_R0?AVCQSVHWDevice@@@8 DQ FLAT:??_7type_info@@6B@	; CQSVHWDevice `RTTI Type Descriptor'
	DQ	0000000000000000H
	DB	'.?AVCQSVHWDevice@@', 00H
data$r	ENDS
;	COMDAT ??_R4CQSVHWDevice@@6B@
rdata$r	SEGMENT
??_R4CQSVHWDevice@@6B@ DD 01H				; CQSVHWDevice::`RTTI Complete Object Locator'
	DD	00H
	DD	00H
	DD	imagerel ??_R0?AVCQSVHWDevice@@@8
	DD	imagerel ??_R3CQSVHWDevice@@8
	DD	imagerel ??_R4CQSVHWDevice@@6B@
rdata$r	ENDS
;	COMDAT ??_C@_1BK@NHECDDNK@?$AAm?$AA_?$AAp?$AAD?$AAa?$AAt?$AAa?$AA?5?$AA?$DN?$AA?$DN?$AA?5?$AA0@
CONST	SEGMENT
??_C@_1BK@NHECDDNK@?$AAm?$AA_?$AAp?$AAD?$AAa?$AAt?$AAa?$AA?5?$AA?$DN?$AA?$DN?$AA?5?$AA0@ DB 'm'
	DB	00H, '_', 00H, 'p', 00H, 'D', 00H, 'a', 00H, 't', 00H, 'a', 00H
	DB	' ', 00H, '=', 00H, '=', 00H, ' ', 00H, '0', 00H, 00H, 00H ; `string'
CONST	ENDS
;	COMDAT ??_C@_1OK@ENELOBIL@?$AAC?$AA?3?$AA?2?$AAP?$AAr?$AAo?$AAg?$AAr?$AAa?$AAm?$AA?5?$AAF?$AAi?$AAl?$AAe@
CONST	SEGMENT
??_C@_1OK@ENELOBIL@?$AAC?$AA?3?$AA?2?$AAP?$AAr?$AAo?$AAg?$AAr?$AAa?$AAm?$AA?5?$AAF?$AAi?$AAl?$AAe@ DB 'C'
	DB	00H, ':', 00H, '\', 00H, 'P', 00H, 'r', 00H, 'o', 00H, 'g', 00H
	DB	'r', 00H, 'a', 00H, 'm', 00H, ' ', 00H, 'F', 00H, 'i', 00H, 'l'
	DB	00H, 'e', 00H, 's', 00H, ' ', 00H, '(', 00H, 'x', 00H, '8', 00H
	DB	'6', 00H, ')', 00H, '\', 00H, 'M', 00H, 'i', 00H, 'c', 00H, 'r'
	DB	00H, 'o', 00H, 's', 00H, 'o', 00H, 'f', 00H, 't', 00H, ' ', 00H
	DB	'V', 00H, 'i', 00H, 's', 00H, 'u', 00H, 'a', 00H, 'l', 00H, ' '
	DB	00H, 'S', 00H, 't', 00H, 'u', 00H, 'd', 00H, 'i', 00H, 'o', 00H
	DB	'\', 00H, '2', 00H, '0', 00H, '1', 00H, '9', 00H, '\', 00H, 'C'
	DB	00H, 'o', 00H, 'm', 00H, 'm', 00H, 'u', 00H, 'n', 00H, 'i', 00H
	DB	't', 00H, 'y', 00H, '\', 00H, 'V', 00H, 'C', 00H, '\', 00H, 'T'
	DB	00H, 'o', 00H, 'o', 00H, 'l', 00H, 's', 00H, '\', 00H, 'M', 00H
	DB	'S', 00H, 'V', 00H, 'C', 00H, '\', 00H, '1', 00H, '4', 00H, '.'
	DB	00H, '2', 00H, '3', 00H, '.', 00H, '2', 00H, '8', 00H, '1', 00H
	DB	'0', 00H, '5', 00H, '\', 00H, 'a', 00H, 't', 00H, 'l', 00H, 'm'
	DB	00H, 'f', 00H, 'c', 00H, '\', 00H, 'i', 00H, 'n', 00H, 'c', 00H
	DB	'l', 00H, 'u', 00H, 'd', 00H, 'e', 00H, '\', 00H, 'a', 00H, 't'
	DB	00H, 'l', 00H, 's', 00H, 'i', 00H, 'm', 00H, 'p', 00H, 'c', 00H
	DB	'o', 00H, 'l', 00H, 'l', 00H, '.', 00H, 'h', 00H, 00H, 00H ; `string'
CONST	ENDS
;	COMDAT ??_C@_1EA@JHMKKLFC@?$AAn?$AAI?$AAn?$AAd?$AAe?$AAx?$AA?5?$AA?$DO?$AA?$DN?$AA?5?$AA0?$AA?5?$AA?$CG?$AA?$CG?$AA?5@
CONST	SEGMENT
??_C@_1EA@JHMKKLFC@?$AAn?$AAI?$AAn?$AAd?$AAe?$AAx?$AA?5?$AA?$DO?$AA?$DN?$AA?5?$AA0?$AA?5?$AA?$CG?$AA?$CG?$AA?5@ DB 'n'
	DB	00H, 'I', 00H, 'n', 00H, 'd', 00H, 'e', 00H, 'x', 00H, ' ', 00H
	DB	'>', 00H, '=', 00H, ' ', 00H, '0', 00H, ' ', 00H, '&', 00H, '&'
	DB	00H, ' ', 00H, 'n', 00H, 'I', 00H, 'n', 00H, 'd', 00H, 'e', 00H
	DB	'x', 00H, ' ', 00H, '<', 00H, ' ', 00H, 'm', 00H, '_', 00H, 'n'
	DB	00H, 'S', 00H, 'i', 00H, 'z', 00H, 'e', 00H, 00H, 00H ; `string'
CONST	ENDS
;	COMDAT ??_C@_19LMDLLIGP@?$AAp?$AA?$DN?$AA?$DN?$AA0@
CONST	SEGMENT
??_C@_19LMDLLIGP@?$AAp?$AA?$DN?$AA?$DN?$AA0@ DB 'p', 00H, '=', 00H, '=', 00H
	DB	'0', 00H, 00H, 00H				; `string'
CONST	ENDS
;	COMDAT ??_C@_19JHCPJMAL@?$AAp?$AA?$CB?$AA?$DN?$AA0@
CONST	SEGMENT
??_C@_19JHCPJMAL@?$AAp?$AA?$CB?$AA?$DN?$AA0@ DB 'p', 00H, '!', 00H, '=', 00H
	DB	'0', 00H, 00H, 00H				; `string'
CONST	ENDS
;	COMDAT _GUID_9b7e4e00_342c_4106_a19f_4f2704f689f0
CONST	SEGMENT
_GUID_9b7e4e00_342c_4106_a19f_4f2704f689f0 DD 09b7e4e00H
	DW	0342cH
	DW	04106H
	DB	0a1H
	DB	09fH
	DB	04fH
	DB	027H
	DB	04H
	DB	0f6H
	DB	089H
	DB	0f0H
CONST	ENDS
;	COMDAT ?FeatureLevels@?1??Init@CQSVD3D11Device@@UEAA?AW4mfxStatus@@PEAXIV?$shared_ptr@VRGYLog@@@std@@@Z@4QBW4D3D_FEATURE_LEVEL@@B
CONST	SEGMENT
?FeatureLevels@?1??Init@CQSVD3D11Device@@UEAA?AW4mfxStatus@@PEAXIV?$shared_ptr@VRGYLog@@@std@@@Z@4QBW4D3D_FEATURE_LEVEL@@B DD 0b100H ; `CQSVD3D11Device::Init'::`2'::FeatureLevels
	DD	0b000H
	DD	0a100H
	DD	0a000H
CONST	ENDS
;	COMDAT _GUID_50c83a1c_e072_4c48_87b0_3630fa36a6d0
CONST	SEGMENT
_GUID_50c83a1c_e072_4c48_87b0_3630fa36a6d0 DD 050c83a1cH
	DW	0e072H
	DW	04c48H
	DB	087H
	DB	0b0H
	DB	036H
	DB	030H
	DB	0faH
	DB	036H
	DB	0a6H
	DB	0d0H
CONST	ENDS
;	COMDAT ??_7CQSVD3D11Device@@6B@
CONST	SEGMENT
??_7CQSVD3D11Device@@6B@ DQ FLAT:??_R4CQSVD3D11Device@@6B@ ; CQSVD3D11Device::`vftable'
	DQ	FLAT:??_ECQSVD3D11Device@@UEAAPEAXI@Z
	DQ	FLAT:?Init@CQSVD3D11Device@@UEAA?AW4mfxStatus@@PEAXIV?$shared_ptr@VRGYLog@@@std@@@Z
	DQ	FLAT:?Reset@CQSVD3D11Device@@UEAA?AW4mfxStatus@@XZ
	DQ	FLAT:?GetHandle@CQSVD3D11Device@@UEAA?AW4mfxStatus@@W4mfxHandleType@@PEAPEAX@Z
	DQ	FLAT:?Close@CQSVD3D11Device@@UEAAXXZ
CONST	ENDS
;	COMDAT _GUID_77db970f_6276_48ba_ba28_070143b4392c
CONST	SEGMENT
_GUID_77db970f_6276_48ba_ba28_070143b4392c DD 077db970fH
	DW	06276H
	DW	048baH
	DB	0baH
	DB	028H
	DB	07H
	DB	01H
	DB	043H
	DB	0b4H
	DB	039H
	DB	02cH
CONST	ENDS
;	COMDAT _GUID_61f21c45_3c0e_4a74_9cea_67100d9ad5e4
CONST	SEGMENT
_GUID_61f21c45_3c0e_4a74_9cea_67100d9ad5e4 DD 061f21c45H
	DW	03c0eH
	DW	04a74H
	DB	09cH
	DB	0eaH
	DB	067H
	DB	010H
	DB	0dH
	DB	09aH
	DB	0d5H
	DB	0e4H
CONST	ENDS
;	COMDAT _GUID_10ec4d5b_975a_4689_b9e4_d0aac30fe333
CONST	SEGMENT
_GUID_10ec4d5b_975a_4689_b9e4_d0aac30fe333 DD 010ec4d5bH
	DW	0975aH
	DW	04689H
	DB	0b9H
	DB	0e4H
	DB	0d0H
	DB	0aaH
	DB	0c3H
	DB	0fH
	DB	0e3H
	DB	033H
CONST	ENDS
;	COMDAT ??_C@_0ED@GFNHMOFC@ERROR?5?3?5Unable?5to?5initialize?5cr@
CONST	SEGMENT
??_C@_0ED@GFNHMOFC@ERROR?5?3?5Unable?5to?5initialize?5cr@ DB 'ERROR : Una'
	DB	'ble to initialize critical section in AtlWinModuleInit', 0aH, 00H ; `string'
CONST	ENDS
;	COMDAT ??_C@_0EA@EJEMLPD@ERROR?5?3?5Unable?5to?5initialize?5cr@
CONST	SEGMENT
??_C@_0EA@EJEMLPD@ERROR?5?3?5Unable?5to?5initialize?5cr@ DB 'ERROR : Unab'
	DB	'le to initialize critical section in CAtlComModule', 0aH, 00H ; `string'
CONST	ENDS
;	COMDAT ??_C@_0HB@NHAHFMOE@C?3?2Program?5Files?5?$CIx86?$CJ?2Microsof@
CONST	SEGMENT
??_C@_0HB@NHAHFMOE@C?3?2Program?5Files?5?$CIx86?$CJ?2Microsof@ DB 'C:\Pro'
	DB	'gram Files (x86)\Microsoft Visual Studio\2019\Community\VC\To'
	DB	'ols\MSVC\14.23.28105\atlmfc\include\atlbase.h', 00H ; `string'
CONST	ENDS
;	COMDAT ??_C@_1OC@KMMBJFLB@?$AAC?$AA?3?$AA?2?$AAP?$AAr?$AAo?$AAg?$AAr?$AAa?$AAm?$AA?5?$AAF?$AAi?$AAl?$AAe@
CONST	SEGMENT
??_C@_1OC@KMMBJFLB@?$AAC?$AA?3?$AA?2?$AAP?$AAr?$AAo?$AAg?$AAr?$AAa?$AAm?$AA?5?$AAF?$AAi?$AAl?$AAe@ DB 'C'
	DB	00H, ':', 00H, '\', 00H, 'P', 00H, 'r', 00H, 'o', 00H, 'g', 00H
	DB	'r', 00H, 'a', 00H, 'm', 00H, ' ', 00H, 'F', 00H, 'i', 00H, 'l'
	DB	00H, 'e', 00H, 's', 00H, ' ', 00H, '(', 00H, 'x', 00H, '8', 00H
	DB	'6', 00H, ')', 00H, '\', 00H, 'M', 00H, 'i', 00H, 'c', 00H, 'r'
	DB	00H, 'o', 00H, 's', 00H, 'o', 00H, 'f', 00H, 't', 00H, ' ', 00H
	DB	'V', 00H, 'i', 00H, 's', 00H, 'u', 00H, 'a', 00H, 'l', 00H, ' '
	DB	00H, 'S', 00H, 't', 00H, 'u', 00H, 'd', 00H, 'i', 00H, 'o', 00H
	DB	'\', 00H, '2', 00H, '0', 00H, '1', 00H, '9', 00H, '\', 00H, 'C'
	DB	00H, 'o', 00H, 'm', 00H, 'm', 00H, 'u', 00H, 'n', 00H, 'i', 00H
	DB	't', 00H, 'y', 00H, '\', 00H, 'V', 00H, 'C', 00H, '\', 00H, 'T'
	DB	00H, 'o', 00H, 'o', 00H, 'l', 00H, 's', 00H, '\', 00H, 'M', 00H
	DB	'S', 00H, 'V', 00H, 'C', 00H, '\', 00H, '1', 00H, '4', 00H, '.'
	DB	00H, '2', 00H, '3', 00H, '.', 00H, '2', 00H, '8', 00H, '1', 00H
	DB	'0', 00H, '5', 00H, '\', 00H, 'a', 00H, 't', 00H, 'l', 00H, 'm'
	DB	00H, 'f', 00H, 'c', 00H, '\', 00H, 'i', 00H, 'n', 00H, 'c', 00H
	DB	'l', 00H, 'u', 00H, 'd', 00H, 'e', 00H, '\', 00H, 'a', 00H, 't'
	DB	00H, 'l', 00H, 'b', 00H, 'a', 00H, 's', 00H, 'e', 00H, '.', 00H
	DB	'h', 00H, 00H, 00H				; `string'
CONST	ENDS
;	COMDAT ??_C@_1OG@ELICLKMH@?$AAC?$AA?3?$AA?2?$AAP?$AAr?$AAo?$AAg?$AAr?$AAa?$AAm?$AA?5?$AAF?$AAi?$AAl?$AAe@
CONST	SEGMENT
??_C@_1OG@ELICLKMH@?$AAC?$AA?3?$AA?2?$AAP?$AAr?$AAo?$AAg?$AAr?$AAa?$AAm?$AA?5?$AAF?$AAi?$AAl?$AAe@ DB 'C'
	DB	00H, ':', 00H, '\', 00H, 'P', 00H, 'r', 00H, 'o', 00H, 'g', 00H
	DB	'r', 00H, 'a', 00H, 'm', 00H, ' ', 00H, 'F', 00H, 'i', 00H, 'l'
	DB	00H, 'e', 00H, 's', 00H, ' ', 00H, '(', 00H, 'x', 00H, '8', 00H
	DB	'6', 00H, ')', 00H, '\', 00H, 'M', 00H, 'i', 00H, 'c', 00H, 'r'
	DB	00H, 'o', 00H, 's', 00H, 'o', 00H, 'f', 00H, 't', 00H, ' ', 00H
	DB	'V', 00H, 'i', 00H, 's', 00H, 'u', 00H, 'a', 00H, 'l', 00H, ' '
	DB	00H, 'S', 00H, 't', 00H, 'u', 00H, 'd', 00H, 'i', 00H, 'o', 00H
	DB	'\', 00H, '2', 00H, '0', 00H, '1', 00H, '9', 00H, '\', 00H, 'C'
	DB	00H, 'o', 00H, 'm', 00H, 'm', 00H, 'u', 00H, 'n', 00H, 'i', 00H
	DB	't', 00H, 'y', 00H, '\', 00H, 'V', 00H, 'C', 00H, '\', 00H, 'T'
	DB	00H, 'o', 00H, 'o', 00H, 'l', 00H, 's', 00H, '\', 00H, 'M', 00H
	DB	'S', 00H, 'V', 00H, 'C', 00H, '\', 00H, '1', 00H, '4', 00H, '.'
	DB	00H, '2', 00H, '3', 00H, '.', 00H, '2', 00H, '8', 00H, '1', 00H
	DB	'0', 00H, '5', 00H, '\', 00H, 'a', 00H, 't', 00H, 'l', 00H, 'm'
	DB	00H, 'f', 00H, 'c', 00H, '\', 00H, 'i', 00H, 'n', 00H, 'c', 00H
	DB	'l', 00H, 'u', 00H, 'd', 00H, 'e', 00H, '\', 00H, 'a', 00H, 't'
	DB	00H, 'l', 00H, 'c', 00H, 'o', 00H, 'm', 00H, 'c', 00H, 'l', 00H
	DB	'i', 00H, '.', 00H, 'h', 00H, 00H, 00H	; `string'
CONST	ENDS
;	COMDAT ??_C@_1OE@GMIHPBDM@?$AAC?$AA?3?$AA?2?$AAP?$AAr?$AAo?$AAg?$AAr?$AAa?$AAm?$AA?5?$AAF?$AAi?$AAl?$AAe@
CONST	SEGMENT
??_C@_1OE@GMIHPBDM@?$AAC?$AA?3?$AA?2?$AAP?$AAr?$AAo?$AAg?$AAr?$AAa?$AAm?$AA?5?$AAF?$AAi?$AAl?$AAe@ DB 'C'
	DB	00H, ':', 00H, '\', 00H, 'P', 00H, 'r', 00H, 'o', 00H, 'g', 00H
	DB	'r', 00H, 'a', 00H, 'm', 00H, ' ', 00H, 'F', 00H, 'i', 00H, 'l'
	DB	00H, 'e', 00H, 's', 00H, ' ', 00H, '(', 00H, 'x', 00H, '8', 00H
	DB	'6', 00H, ')', 00H, '\', 00H, 'M', 00H, 'i', 00H, 'c', 00H, 'r'
	DB	00H, 'o', 00H, 's', 00H, 'o', 00H, 'f', 00H, 't', 00H, ' ', 00H
	DB	'V', 00H, 'i', 00H, 's', 00H, 'u', 00H, 'a', 00H, 'l', 00H, ' '
	DB	00H, 'S', 00H, 't', 00H, 'u', 00H, 'd', 00H, 'i', 00H, 'o', 00H
	DB	'\', 00H, '2', 00H, '0', 00H, '1', 00H, '9', 00H, '\', 00H, 'C'
	DB	00H, 'o', 00H, 'm', 00H, 'm', 00H, 'u', 00H, 'n', 00H, 'i', 00H
	DB	't', 00H, 'y', 00H, '\', 00H, 'V', 00H, 'C', 00H, '\', 00H, 'T'
	DB	00H, 'o', 00H, 'o', 00H, 'l', 00H, 's', 00H, '\', 00H, 'M', 00H
	DB	'S', 00H, 'V', 00H, 'C', 00H, '\', 00H, '1', 00H, '4', 00H, '.'
	DB	00H, '2', 00H, '3', 00H, '.', 00H, '2', 00H, '8', 00H, '1', 00H
	DB	'0', 00H, '5', 00H, '\', 00H, 'a', 00H, 't', 00H, 'l', 00H, 'm'
	DB	00H, 'f', 00H, 'c', 00H, '\', 00H, 'i', 00H, 'n', 00H, 'c', 00H
	DB	'l', 00H, 'u', 00H, 'd', 00H, 'e', 00H, '\', 00H, 'a', 00H, 't'
	DB	00H, 'l', 00H, 't', 00H, 'r', 00H, 'a', 00H, 'c', 00H, 'e', 00H
	DB	'.', 00H, 'h', 00H, 00H, 00H			; `string'
CONST	ENDS
;	COMDAT ??_C@_1EO@EBPPKGOM@?$AAf?$AAa?$AAl?$AAs?$AAe?$AA?5?$AA?$CG?$AA?$CG?$AA?5?$AA?$CC?$AAT?$AAo?$AAo?$AA?5?$AAm@
CONST	SEGMENT
??_C@_1EO@EBPPKGOM@?$AAf?$AAa?$AAl?$AAs?$AAe?$AA?5?$AA?$CG?$AA?$CG?$AA?5?$AA?$CC?$AAT?$AAo?$AAo?$AA?5?$AAm@ DB 'f'
	DB	00H, 'a', 00H, 'l', 00H, 's', 00H, 'e', 00H, ' ', 00H, '&', 00H
	DB	'&', 00H, ' ', 00H, '"', 00H, 'T', 00H, 'o', 00H, 'o', 00H, ' '
	DB	00H, 'm', 00H, 'a', 00H, 'n', 00H, 'y', 00H, ' ', 00H, 'c', 00H
	DB	'a', 00H, 't', 00H, 'e', 00H, 'g', 00H, 'o', 00H, 'r', 00H, 'i'
	DB	00H, 'e', 00H, 's', 00H, ' ', 00H, 'd', 00H, 'e', 00H, 'f', 00H
	DB	'i', 00H, 'n', 00H, 'e', 00H, 'd', 00H, '"', 00H, 00H, 00H ; `string'
CONST	ENDS
;	COMDAT ??_C@_17LGGGMOOB@?$AA?$CF?$AAh?$AAs@
CONST	SEGMENT
??_C@_17LGGGMOOB@?$AA?$CF?$AAh?$AAs@ DB '%', 00H, 'h', 00H, 's', 00H, 00H
	DB	00H						; `string'
CONST	ENDS
;	COMDAT ??_C@_1O@OAIPCDPO@?$AA?$CF?$AAl?$AAs?$AA?$CF?$AAl?$AAs@
CONST	SEGMENT
??_C@_1O@OAIPCDPO@?$AA?$CF?$AAl?$AAs?$AA?$CF?$AAl?$AAs@ DB '%', 00H, 'l', 00H
	DB	's', 00H, '%', 00H, 'l', 00H, 's', 00H, 00H, 00H ; `string'
CONST	ENDS
;	COMDAT ??_C@_1M@PGKOAACE@?$AA?$CF?$AAu?$AA?5?$AA?9?$AA?5@
CONST	SEGMENT
??_C@_1M@PGKOAACE@?$AA?$CF?$AAu?$AA?5?$AA?9?$AA?5@ DB '%', 00H, 'u', 00H, ' '
	DB	00H, '-', 00H, ' ', 00H, 00H, 00H		; `string'
CONST	ENDS
;	COMDAT ??_C@_1O@LFNDFEBP@?$AA?$CF?$AAl?$AAs?$AA?5?$AA?9?$AA?5@
CONST	SEGMENT
??_C@_1O@LFNDFEBP@?$AA?$CF?$AAl?$AAs?$AA?5?$AA?9?$AA?5@ DB '%', 00H, 'l', 00H
	DB	's', 00H, ' ', 00H, '-', 00H, ' ', 00H, 00H, 00H ; `string'
CONST	ENDS
;	COMDAT ?m_nCategory@CTrace@ATL@@1IA
_DATA	SEGMENT
?m_nCategory@CTrace@ATL@@1IA DD 0ffffffffH		; ATL::CTrace::m_nCategory
_DATA	ENDS
;	COMDAT ??_C@_1OE@BPCMJDLP@?$AAC?$AA?3?$AA?2?$AAP?$AAr?$AAo?$AAg?$AAr?$AAa?$AAm?$AA?5?$AAF?$AAi?$AAl?$AAe@
CONST	SEGMENT
??_C@_1OE@BPCMJDLP@?$AAC?$AA?3?$AA?2?$AAP?$AAr?$AAo?$AAg?$AAr?$AAa?$AAm?$AA?5?$AAF?$AAi?$AAl?$AAe@ DB 'C'
	DB	00H, ':', 00H, '\', 00H, 'P', 00H, 'r', 00H, 'o', 00H, 'g', 00H
	DB	'r', 00H, 'a', 00H, 'm', 00H, ' ', 00H, 'F', 00H, 'i', 00H, 'l'
	DB	00H, 'e', 00H, 's', 00H, ' ', 00H, '(', 00H, 'x', 00H, '8', 00H
	DB	'6', 00H, ')', 00H, '\', 00H, 'M', 00H, 'i', 00H, 'c', 00H, 'r'
	DB	00H, 'o', 00H, 's', 00H, 'o', 00H, 'f', 00H, 't', 00H, ' ', 00H
	DB	'V', 00H, 'i', 00H, 's', 00H, 'u', 00H, 'a', 00H, 'l', 00H, ' '
	DB	00H, 'S', 00H, 't', 00H, 'u', 00H, 'd', 00H, 'i', 00H, 'o', 00H
	DB	'\', 00H, '2', 00H, '0', 00H, '1', 00H, '9', 00H, '\', 00H, 'C'
	DB	00H, 'o', 00H, 'm', 00H, 'm', 00H, 'u', 00H, 'n', 00H, 'i', 00H
	DB	't', 00H, 'y', 00H, '\', 00H, 'V', 00H, 'C', 00H, '\', 00H, 'T'
	DB	00H, 'o', 00H, 'o', 00H, 'l', 00H, 's', 00H, '\', 00H, 'M', 00H
	DB	'S', 00H, 'V', 00H, 'C', 00H, '\', 00H, '1', 00H, '4', 00H, '.'
	DB	00H, '2', 00H, '3', 00H, '.', 00H, '2', 00H, '8', 00H, '1', 00H
	DB	'0', 00H, '5', 00H, '\', 00H, 'a', 00H, 't', 00H, 'l', 00H, 'm'
	DB	00H, 'f', 00H, 'c', 00H, '\', 00H, 'i', 00H, 'n', 00H, 'c', 00H
	DB	'l', 00H, 'u', 00H, 'd', 00H, 'e', 00H, '\', 00H, 'a', 00H, 't'
	DB	00H, 'l', 00H, 'a', 00H, 'l', 00H, 'l', 00H, 'o', 00H, 'c', 00H
	DB	'.', 00H, 'h', 00H, 00H, 00H			; `string'
CONST	ENDS
;	COMDAT ??_C@_13COJANIEC@?$AA0@
CONST	SEGMENT
??_C@_13COJANIEC@?$AA0@ DB '0', 00H, 00H, 00H		; `string'
CONST	ENDS
;	COMDAT ??_7CQSVHWDevice@@6B@
CONST	SEGMENT
??_7CQSVHWDevice@@6B@ DQ FLAT:??_R4CQSVHWDevice@@6B@	; CQSVHWDevice::`vftable'
	DQ	FLAT:??_ECQSVHWDevice@@UEAAPEAXI@Z
	DQ	FLAT:_purecall
	DQ	FLAT:_purecall
	DQ	FLAT:_purecall
	DQ	FLAT:_purecall
CONST	ENDS
;	COMDAT ??_C@_17CNPHIMPH@?$AA?$CF?$AAl?$AAs@
CONST	SEGMENT
??_C@_17CNPHIMPH@?$AA?$CF?$AAl?$AAs@ DB '%', 00H, 'l', 00H, 's', 00H, 00H
	DB	00H						; `string'
CONST	ENDS
;	COMDAT xdata
xdata	SEGMENT
$unwind$??$move@AEAPEAV_Ref_count_base@std@@@std@@YA$$QEAPEAV_Ref_count_base@0@AEAPEAV10@@Z DD 010601H
	DD	07006H
xdata	ENDS
;	COMDAT xdata
xdata	SEGMENT
$unwind$??$move@AEAPEAVRGYLog@@@std@@YA$$QEAPEAVRGYLog@@AEAPEAV1@@Z DD 010601H
	DD	07006H
xdata	ENDS
;	COMDAT xdata
xdata	SEGMENT
$unwind$??$swap@PEAV_Ref_count_base@std@@X@std@@YAXAEAPEAV_Ref_count_base@0@0@Z DD 022301H
	DD	0700b720fH
xdata	ENDS
;	COMDAT CONST
CONST	SEGMENT
??$swap@PEAV_Ref_count_base@std@@X@std@@YAXAEAPEAV_Ref_count_base@0@0@Z$rtcName$0 DB 05fH ; std::swap<std::_Ref_count_base *,void>
	DB	054H
	DB	06dH
	DB	070H
	DB	00H
	ORG $+11
??$swap@PEAV_Ref_count_base@std@@X@std@@YAXAEAPEAV_Ref_count_base@0@0@Z$rtcVarDesc DD 028H ; std::swap<std::_Ref_count_base *,void>
	DD	08H
	DQ	FLAT:??$swap@PEAV_Ref_count_base@std@@X@std@@YAXAEAPEAV_Ref_count_base@0@0@Z$rtcName$0
	ORG $+48
??$swap@PEAV_Ref_count_base@std@@X@std@@YAXAEAPEAV_Ref_count_base@0@0@Z$rtcFrameData DD 01H ; std::swap<std::_Ref_count_base *,void>
	DD	00H
	DQ	FLAT:??$swap@PEAV_Ref_count_base@std@@X@std@@YAXAEAPEAV_Ref_count_base@0@0@Z$rtcVarDesc
CONST	ENDS
;	COMDAT xdata
xdata	SEGMENT
$unwind$??$swap@PEAVRGYLog@@X@std@@YAXAEAPEAVRGYLog@@0@Z DD 022301H
	DD	0700b720fH
xdata	ENDS
;	COMDAT CONST
CONST	SEGMENT
??$swap@PEAVRGYLog@@X@std@@YAXAEAPEAVRGYLog@@0@Z$rtcName$0 DB 05fH ; std::swap<RGYLog *,void>
	DB	054H
	DB	06dH
	DB	070H
	DB	00H
	ORG $+11
??$swap@PEAVRGYLog@@X@std@@YAXAEAPEAVRGYLog@@0@Z$rtcVarDesc DD 028H ; std::swap<RGYLog *,void>
	DD	08H
	DQ	FLAT:??$swap@PEAVRGYLog@@X@std@@YAXAEAPEAVRGYLog@@0@Z$rtcName$0
	ORG $+48
??$swap@PEAVRGYLog@@X@std@@YAXAEAPEAVRGYLog@@0@Z$rtcFrameData DD 01H ; std::swap<RGYLog *,void>
	DD	00H
	DQ	FLAT:??$swap@PEAVRGYLog@@X@std@@YAXAEAPEAVRGYLog@@0@Z$rtcVarDesc
CONST	ENDS
;	COMDAT xdata
xdata	SEGMENT
$unwind$??$_Copy_construct_from@VRGYLog@@@?$_Ptr_base@VRGYLog@@@std@@IEAAXAEBV?$shared_ptr@VRGYLog@@@1@@Z DD 022301H
	DD	0700b320fH
xdata	ENDS
;	COMDAT xdata
xdata	SEGMENT
$unwind$??$AtlMultiply@_K@ATL@@YAJPEA_K_K1@Z DD 022801H
	DD	070103214H
xdata	ENDS
;	COMDAT xdata
xdata	SEGMENT
$unwind$?dtor$0@?0???1?$CComQIPtr@UID3D10Multithread@@$1?_GUID_9b7e4e00_342c_4106_a19f_4f2704f689f0@@3U__s_GUID@@B@ATL@@QEAA@XZ@4HA DD 031001H
	DD	0700c4210H
	DD	0500bH
xdata	ENDS
;	COMDAT xdata
xdata	SEGMENT
$ip2state$??1?$CComQIPtr@UID3D10Multithread@@$1?_GUID_9b7e4e00_342c_4106_a19f_4f2704f689f0@@3U__s_GUID@@B@ATL@@QEAA@XZ DB 02H
	DB	00H
	DB	00H
xdata	ENDS
;	COMDAT xdata
xdata	SEGMENT
$stateUnwindMap$??1?$CComQIPtr@UID3D10Multithread@@$1?_GUID_9b7e4e00_342c_4106_a19f_4f2704f689f0@@3U__s_GUID@@B@ATL@@QEAA@XZ DB 02H
	DB	0eH
	DD	imagerel ?dtor$0@?0???1?$CComQIPtr@UID3D10Multithread@@$1?_GUID_9b7e4e00_342c_4106_a19f_4f2704f689f0@@3U__s_GUID@@B@ATL@@QEAA@XZ@4HA
xdata	ENDS
;	COMDAT xdata
xdata	SEGMENT
$cppxdata$??1?$CComQIPtr@UID3D10Multithread@@$1?_GUID_9b7e4e00_342c_4106_a19f_4f2704f689f0@@3U__s_GUID@@B@ATL@@QEAA@XZ DB 048H
	DD	imagerel $stateUnwindMap$??1?$CComQIPtr@UID3D10Multithread@@$1?_GUID_9b7e4e00_342c_4106_a19f_4f2704f689f0@@3U__s_GUID@@B@ATL@@QEAA@XZ
	DD	imagerel $ip2state$??1?$CComQIPtr@UID3D10Multithread@@$1?_GUID_9b7e4e00_342c_4106_a19f_4f2704f689f0@@3U__s_GUID@@B@ATL@@QEAA@XZ
xdata	ENDS
;	COMDAT xdata
xdata	SEGMENT
$unwind$??1?$CComQIPtr@UID3D10Multithread@@$1?_GUID_9b7e4e00_342c_4106_a19f_4f2704f689f0@@3U__s_GUID@@B@ATL@@QEAA@XZ DD 021e11H
	DD	07006320aH
	DD	imagerel __CxxFrameHandler4
	DD	imagerel $cppxdata$??1?$CComQIPtr@UID3D10Multithread@@$1?_GUID_9b7e4e00_342c_4106_a19f_4f2704f689f0@@3U__s_GUID@@B@ATL@@QEAA@XZ
xdata	ENDS
;	COMDAT xdata
xdata	SEGMENT
$unwind$?dtor$0@?0???0?$CComQIPtr@UID3D10Multithread@@$1?_GUID_9b7e4e00_342c_4106_a19f_4f2704f689f0@@3U__s_GUID@@B@ATL@@QEAA@PEAUIUnknown@@@Z@4HA DD 031001H
	DD	0700c4210H
	DD	0500bH
xdata	ENDS
;	COMDAT xdata
xdata	SEGMENT
$ip2state$??0?$CComQIPtr@UID3D10Multithread@@$1?_GUID_9b7e4e00_342c_4106_a19f_4f2704f689f0@@3U__s_GUID@@B@ATL@@QEAA@PEAUIUnknown@@@Z DB 06H
	DB	00H
	DB	00H
	DB	'\'
	DB	02H
	DB	'f'
	DB	00H
xdata	ENDS
;	COMDAT xdata
xdata	SEGMENT
$stateUnwindMap$??0?$CComQIPtr@UID3D10Multithread@@$1?_GUID_9b7e4e00_342c_4106_a19f_4f2704f689f0@@3U__s_GUID@@B@ATL@@QEAA@PEAUIUnknown@@@Z DB 02H
	DB	0eH
	DD	imagerel ?dtor$0@?0???0?$CComQIPtr@UID3D10Multithread@@$1?_GUID_9b7e4e00_342c_4106_a19f_4f2704f689f0@@3U__s_GUID@@B@ATL@@QEAA@PEAUIUnknown@@@Z@4HA
xdata	ENDS
;	COMDAT xdata
xdata	SEGMENT
$cppxdata$??0?$CComQIPtr@UID3D10Multithread@@$1?_GUID_9b7e4e00_342c_4106_a19f_4f2704f689f0@@3U__s_GUID@@B@ATL@@QEAA@PEAUIUnknown@@@Z DB 08H
	DD	imagerel $stateUnwindMap$??0?$CComQIPtr@UID3D10Multithread@@$1?_GUID_9b7e4e00_342c_4106_a19f_4f2704f689f0@@3U__s_GUID@@B@ATL@@QEAA@PEAUIUnknown@@@Z
	DD	imagerel $ip2state$??0?$CComQIPtr@UID3D10Multithread@@$1?_GUID_9b7e4e00_342c_4106_a19f_4f2704f689f0@@3U__s_GUID@@B@ATL@@QEAA@PEAUIUnknown@@@Z
xdata	ENDS
;	COMDAT xdata
xdata	SEGMENT
$unwind$??0?$CComQIPtr@UID3D10Multithread@@$1?_GUID_9b7e4e00_342c_4106_a19f_4f2704f689f0@@3U__s_GUID@@B@ATL@@QEAA@PEAUIUnknown@@@Z DD 022311H
	DD	0700b320fH
	DD	imagerel __CxxFrameHandler4
	DD	imagerel $cppxdata$??0?$CComQIPtr@UID3D10Multithread@@$1?_GUID_9b7e4e00_342c_4106_a19f_4f2704f689f0@@3U__s_GUID@@B@ATL@@QEAA@PEAUIUnknown@@@Z
xdata	ENDS
;	COMDAT xdata
xdata	SEGMENT
$unwind$?dtor$0@?0???1?$CComPtr@UID3D10Multithread@@@ATL@@QEAA@XZ@4HA DD 031001H
	DD	0700c4210H
	DD	0500bH
xdata	ENDS
;	COMDAT xdata
xdata	SEGMENT
$ip2state$??1?$CComPtr@UID3D10Multithread@@@ATL@@QEAA@XZ DB 02H
	DB	00H
	DB	00H
xdata	ENDS
;	COMDAT xdata
xdata	SEGMENT
$stateUnwindMap$??1?$CComPtr@UID3D10Multithread@@@ATL@@QEAA@XZ DB 02H
	DB	0eH
	DD	imagerel ?dtor$0@?0???1?$CComPtr@UID3D10Multithread@@@ATL@@QEAA@XZ@4HA
xdata	ENDS
;	COMDAT xdata
xdata	SEGMENT
$cppxdata$??1?$CComPtr@UID3D10Multithread@@@ATL@@QEAA@XZ DB 048H
	DD	imagerel $stateUnwindMap$??1?$CComPtr@UID3D10Multithread@@@ATL@@QEAA@XZ
	DD	imagerel $ip2state$??1?$CComPtr@UID3D10Multithread@@@ATL@@QEAA@XZ
xdata	ENDS
;	COMDAT xdata
xdata	SEGMENT
$unwind$??1?$CComPtr@UID3D10Multithread@@@ATL@@QEAA@XZ DD 021e11H
	DD	07006320aH
	DD	imagerel __CxxFrameHandler4
	DD	imagerel $cppxdata$??1?$CComPtr@UID3D10Multithread@@@ATL@@QEAA@XZ
xdata	ENDS
;	COMDAT xdata
xdata	SEGMENT
$unwind$?dtor$0@?0???0?$CComPtr@UID3D10Multithread@@@ATL@@QEAA@XZ@4HA DD 031001H
	DD	0700c4210H
	DD	0500bH
xdata	ENDS
;	COMDAT xdata
xdata	SEGMENT
$ip2state$??0?$CComPtr@UID3D10Multithread@@@ATL@@QEAA@XZ DB 02H
	DB	00H
	DB	00H
xdata	ENDS
;	COMDAT xdata
xdata	SEGMENT
$stateUnwindMap$??0?$CComPtr@UID3D10Multithread@@@ATL@@QEAA@XZ DB 02H
	DB	0eH
	DD	imagerel ?dtor$0@?0???0?$CComPtr@UID3D10Multithread@@@ATL@@QEAA@XZ@4HA
xdata	ENDS
;	COMDAT xdata
xdata	SEGMENT
$cppxdata$??0?$CComPtr@UID3D10Multithread@@@ATL@@QEAA@XZ DB 08H
	DD	imagerel $stateUnwindMap$??0?$CComPtr@UID3D10Multithread@@@ATL@@QEAA@XZ
	DD	imagerel $ip2state$??0?$CComPtr@UID3D10Multithread@@@ATL@@QEAA@XZ
xdata	ENDS
;	COMDAT xdata
xdata	SEGMENT
$unwind$??0?$CComPtr@UID3D10Multithread@@@ATL@@QEAA@XZ DD 021e11H
	DD	07006320aH
	DD	imagerel __CxxFrameHandler4
	DD	imagerel $cppxdata$??0?$CComPtr@UID3D10Multithread@@@ATL@@QEAA@XZ
xdata	ENDS
;	COMDAT xdata
xdata	SEGMENT
$unwind$??7?$CComPtrBase@UID3D10Multithread@@@ATL@@QEBA_NXZ DD 021e01H
	DD	07006120aH
xdata	ENDS
;	COMDAT xdata
xdata	SEGMENT
$unwind$??C?$CComPtrBase@UID3D10Multithread@@@ATL@@QEBAPEAV?$_NoAddRefReleaseOnCComPtr@UID3D10Multithread@@@1@XZ DD 021e01H
	DD	07006520aH
xdata	ENDS
;	COMDAT xdata
xdata	SEGMENT
$unwind$??1?$CComPtrBase@UID3D10Multithread@@@ATL@@QEAA@XZ DD 021e01H
	DD	07006320aH
xdata	ENDS
;	COMDAT xdata
xdata	SEGMENT
$unwind$??0?$CComPtrBase@UID3D10Multithread@@@ATL@@IEAA@XZ DD 010601H
	DD	07006H
xdata	ENDS
;	COMDAT xdata
xdata	SEGMENT
$unwind$??$?CVRGYLog@@$0A@@?$shared_ptr@VRGYLog@@@std@@QEBAPEAVRGYLog@@XZ DD 021e01H
	DD	07006320aH
xdata	ENDS
;	COMDAT xdata
xdata	SEGMENT
$unwind$??_GCQSVD3D11Device@@UEAAPEAXI@Z DD 022201H
	DD	0700a320eH
xdata	ENDS
;	COMDAT xdata
xdata	SEGMENT
$unwind$?dtor$0@?0???1?$CComPtr@UIDXGIOutput@@@ATL@@QEAA@XZ@4HA DD 031001H
	DD	0700c4210H
	DD	0500bH
xdata	ENDS
;	COMDAT xdata
xdata	SEGMENT
$ip2state$??1?$CComPtr@UIDXGIOutput@@@ATL@@QEAA@XZ DB 02H
	DB	00H
	DB	00H
xdata	ENDS
;	COMDAT xdata
xdata	SEGMENT
$stateUnwindMap$??1?$CComPtr@UIDXGIOutput@@@ATL@@QEAA@XZ DB 02H
	DB	0eH
	DD	imagerel ?dtor$0@?0???1?$CComPtr@UIDXGIOutput@@@ATL@@QEAA@XZ@4HA
xdata	ENDS
;	COMDAT xdata
xdata	SEGMENT
$cppxdata$??1?$CComPtr@UIDXGIOutput@@@ATL@@QEAA@XZ DB 048H
	DD	imagerel $stateUnwindMap$??1?$CComPtr@UIDXGIOutput@@@ATL@@QEAA@XZ
	DD	imagerel $ip2state$??1?$CComPtr@UIDXGIOutput@@@ATL@@QEAA@XZ
xdata	ENDS
;	COMDAT xdata
xdata	SEGMENT
$unwind$??1?$CComPtr@UIDXGIOutput@@@ATL@@QEAA@XZ DD 021e11H
	DD	07006320aH
	DD	imagerel __CxxFrameHandler4
	DD	imagerel $cppxdata$??1?$CComPtr@UIDXGIOutput@@@ATL@@QEAA@XZ
xdata	ENDS
;	COMDAT xdata
xdata	SEGMENT
$unwind$?dtor$0@?0???0?$CComPtr@UIDXGIOutput@@@ATL@@QEAA@XZ@4HA DD 031001H
	DD	0700c4210H
	DD	0500bH
xdata	ENDS
;	COMDAT xdata
xdata	SEGMENT
$ip2state$??0?$CComPtr@UIDXGIOutput@@@ATL@@QEAA@XZ DB 02H
	DB	00H
	DB	00H
xdata	ENDS
;	COMDAT xdata
xdata	SEGMENT
$stateUnwindMap$??0?$CComPtr@UIDXGIOutput@@@ATL@@QEAA@XZ DB 02H
	DB	0eH
	DD	imagerel ?dtor$0@?0???0?$CComPtr@UIDXGIOutput@@@ATL@@QEAA@XZ@4HA
xdata	ENDS
;	COMDAT xdata
xdata	SEGMENT
$cppxdata$??0?$CComPtr@UIDXGIOutput@@@ATL@@QEAA@XZ DB 08H
	DD	imagerel $stateUnwindMap$??0?$CComPtr@UIDXGIOutput@@@ATL@@QEAA@XZ
	DD	imagerel $ip2state$??0?$CComPtr@UIDXGIOutput@@@ATL@@QEAA@XZ
xdata	ENDS
;	COMDAT xdata
xdata	SEGMENT
$unwind$??0?$CComPtr@UIDXGIOutput@@@ATL@@QEAA@XZ DD 021e11H
	DD	07006320aH
	DD	imagerel __CxxFrameHandler4
	DD	imagerel $cppxdata$??0?$CComPtr@UIDXGIOutput@@@ATL@@QEAA@XZ
xdata	ENDS
;	COMDAT xdata
xdata	SEGMENT
$unwind$??1?$CComPtrBase@UIDXGIOutput@@@ATL@@QEAA@XZ DD 021e01H
	DD	07006320aH
xdata	ENDS
;	COMDAT xdata
xdata	SEGMENT
$unwind$??0?$CComPtrBase@UIDXGIOutput@@@ATL@@IEAA@XZ DD 010601H
	DD	07006H
xdata	ENDS
;	COMDAT xdata
xdata	SEGMENT
$unwind$?dtor$0@?0???1?$CComPtr@UIDXGIDisplayControl@@@ATL@@QEAA@XZ@4HA DD 031001H
	DD	0700c4210H
	DD	0500bH
xdata	ENDS
;	COMDAT xdata
xdata	SEGMENT
$ip2state$??1?$CComPtr@UIDXGIDisplayControl@@@ATL@@QEAA@XZ DB 02H
	DB	00H
	DB	00H
xdata	ENDS
;	COMDAT xdata
xdata	SEGMENT
$stateUnwindMap$??1?$CComPtr@UIDXGIDisplayControl@@@ATL@@QEAA@XZ DB 02H
	DB	0eH
	DD	imagerel ?dtor$0@?0???1?$CComPtr@UIDXGIDisplayControl@@@ATL@@QEAA@XZ@4HA
xdata	ENDS
;	COMDAT xdata
xdata	SEGMENT
$cppxdata$??1?$CComPtr@UIDXGIDisplayControl@@@ATL@@QEAA@XZ DB 048H
	DD	imagerel $stateUnwindMap$??1?$CComPtr@UIDXGIDisplayControl@@@ATL@@QEAA@XZ
	DD	imagerel $ip2state$??1?$CComPtr@UIDXGIDisplayControl@@@ATL@@QEAA@XZ
xdata	ENDS
;	COMDAT xdata
xdata	SEGMENT
$unwind$??1?$CComPtr@UIDXGIDisplayControl@@@ATL@@QEAA@XZ DD 021e11H
	DD	07006320aH
	DD	imagerel __CxxFrameHandler4
	DD	imagerel $cppxdata$??1?$CComPtr@UIDXGIDisplayControl@@@ATL@@QEAA@XZ
xdata	ENDS
;	COMDAT xdata
xdata	SEGMENT
$unwind$?dtor$0@?0???0?$CComPtr@UIDXGIDisplayControl@@@ATL@@QEAA@XZ@4HA DD 031001H
	DD	0700c4210H
	DD	0500bH
xdata	ENDS
;	COMDAT xdata
xdata	SEGMENT
$ip2state$??0?$CComPtr@UIDXGIDisplayControl@@@ATL@@QEAA@XZ DB 02H
	DB	00H
	DB	00H
xdata	ENDS
;	COMDAT xdata
xdata	SEGMENT
$stateUnwindMap$??0?$CComPtr@UIDXGIDisplayControl@@@ATL@@QEAA@XZ DB 02H
	DB	0eH
	DD	imagerel ?dtor$0@?0???0?$CComPtr@UIDXGIDisplayControl@@@ATL@@QEAA@XZ@4HA
xdata	ENDS
;	COMDAT xdata
xdata	SEGMENT
$cppxdata$??0?$CComPtr@UIDXGIDisplayControl@@@ATL@@QEAA@XZ DB 08H
	DD	imagerel $stateUnwindMap$??0?$CComPtr@UIDXGIDisplayControl@@@ATL@@QEAA@XZ
	DD	imagerel $ip2state$??0?$CComPtr@UIDXGIDisplayControl@@@ATL@@QEAA@XZ
xdata	ENDS
;	COMDAT xdata
xdata	SEGMENT
$unwind$??0?$CComPtr@UIDXGIDisplayControl@@@ATL@@QEAA@XZ DD 021e11H
	DD	07006320aH
	DD	imagerel __CxxFrameHandler4
	DD	imagerel $cppxdata$??0?$CComPtr@UIDXGIDisplayControl@@@ATL@@QEAA@XZ
xdata	ENDS
;	COMDAT xdata
xdata	SEGMENT
$unwind$??1?$CComPtrBase@UIDXGIDisplayControl@@@ATL@@QEAA@XZ DD 021e01H
	DD	07006320aH
xdata	ENDS
;	COMDAT xdata
xdata	SEGMENT
$unwind$??0?$CComPtrBase@UIDXGIDisplayControl@@@ATL@@IEAA@XZ DD 010601H
	DD	07006H
xdata	ENDS
;	COMDAT xdata
xdata	SEGMENT
$unwind$?dtor$0@?0???1?$CComPtr@UID3D11Texture2D@@@ATL@@QEAA@XZ@4HA DD 031001H
	DD	0700c4210H
	DD	0500bH
xdata	ENDS
;	COMDAT xdata
xdata	SEGMENT
$ip2state$??1?$CComPtr@UID3D11Texture2D@@@ATL@@QEAA@XZ DB 02H
	DB	00H
	DB	00H
xdata	ENDS
;	COMDAT xdata
xdata	SEGMENT
$stateUnwindMap$??1?$CComPtr@UID3D11Texture2D@@@ATL@@QEAA@XZ DB 02H
	DB	0eH
	DD	imagerel ?dtor$0@?0???1?$CComPtr@UID3D11Texture2D@@@ATL@@QEAA@XZ@4HA
xdata	ENDS
;	COMDAT xdata
xdata	SEGMENT
$cppxdata$??1?$CComPtr@UID3D11Texture2D@@@ATL@@QEAA@XZ DB 048H
	DD	imagerel $stateUnwindMap$??1?$CComPtr@UID3D11Texture2D@@@ATL@@QEAA@XZ
	DD	imagerel $ip2state$??1?$CComPtr@UID3D11Texture2D@@@ATL@@QEAA@XZ
xdata	ENDS
;	COMDAT xdata
xdata	SEGMENT
$unwind$??1?$CComPtr@UID3D11Texture2D@@@ATL@@QEAA@XZ DD 021e11H
	DD	07006320aH
	DD	imagerel __CxxFrameHandler4
	DD	imagerel $cppxdata$??1?$CComPtr@UID3D11Texture2D@@@ATL@@QEAA@XZ
xdata	ENDS
;	COMDAT xdata
xdata	SEGMENT
$unwind$?dtor$0@?0???0?$CComPtr@UID3D11Texture2D@@@ATL@@QEAA@XZ@4HA DD 031001H
	DD	0700c4210H
	DD	0500bH
xdata	ENDS
;	COMDAT xdata
xdata	SEGMENT
$ip2state$??0?$CComPtr@UID3D11Texture2D@@@ATL@@QEAA@XZ DB 02H
	DB	00H
	DB	00H
xdata	ENDS
;	COMDAT xdata
xdata	SEGMENT
$stateUnwindMap$??0?$CComPtr@UID3D11Texture2D@@@ATL@@QEAA@XZ DB 02H
	DB	0eH
	DD	imagerel ?dtor$0@?0???0?$CComPtr@UID3D11Texture2D@@@ATL@@QEAA@XZ@4HA
xdata	ENDS
;	COMDAT xdata
xdata	SEGMENT
$cppxdata$??0?$CComPtr@UID3D11Texture2D@@@ATL@@QEAA@XZ DB 08H
	DD	imagerel $stateUnwindMap$??0?$CComPtr@UID3D11Texture2D@@@ATL@@QEAA@XZ
	DD	imagerel $ip2state$??0?$CComPtr@UID3D11Texture2D@@@ATL@@QEAA@XZ
xdata	ENDS
;	COMDAT xdata
xdata	SEGMENT
$unwind$??0?$CComPtr@UID3D11Texture2D@@@ATL@@QEAA@XZ DD 021e11H
	DD	07006320aH
	DD	imagerel __CxxFrameHandler4
	DD	imagerel $cppxdata$??0?$CComPtr@UID3D11Texture2D@@@ATL@@QEAA@XZ
xdata	ENDS
;	COMDAT xdata
xdata	SEGMENT
$unwind$??1?$CComPtrBase@UID3D11Texture2D@@@ATL@@QEAA@XZ DD 021e01H
	DD	07006320aH
xdata	ENDS
;	COMDAT xdata
xdata	SEGMENT
$unwind$??0?$CComPtrBase@UID3D11Texture2D@@@ATL@@IEAA@XZ DD 010601H
	DD	07006H
xdata	ENDS
;	COMDAT xdata
xdata	SEGMENT
$unwind$?dtor$0@?0???1?$CComPtr@UID3D11VideoProcessorOutputView@@@ATL@@QEAA@XZ@4HA DD 031001H
	DD	0700c4210H
	DD	0500bH
xdata	ENDS
;	COMDAT xdata
xdata	SEGMENT
$ip2state$??1?$CComPtr@UID3D11VideoProcessorOutputView@@@ATL@@QEAA@XZ DB 02H
	DB	00H
	DB	00H
xdata	ENDS
;	COMDAT xdata
xdata	SEGMENT
$stateUnwindMap$??1?$CComPtr@UID3D11VideoProcessorOutputView@@@ATL@@QEAA@XZ DB 02H
	DB	0eH
	DD	imagerel ?dtor$0@?0???1?$CComPtr@UID3D11VideoProcessorOutputView@@@ATL@@QEAA@XZ@4HA
xdata	ENDS
;	COMDAT xdata
xdata	SEGMENT
$cppxdata$??1?$CComPtr@UID3D11VideoProcessorOutputView@@@ATL@@QEAA@XZ DB 048H
	DD	imagerel $stateUnwindMap$??1?$CComPtr@UID3D11VideoProcessorOutputView@@@ATL@@QEAA@XZ
	DD	imagerel $ip2state$??1?$CComPtr@UID3D11VideoProcessorOutputView@@@ATL@@QEAA@XZ
xdata	ENDS
;	COMDAT xdata
xdata	SEGMENT
$unwind$??1?$CComPtr@UID3D11VideoProcessorOutputView@@@ATL@@QEAA@XZ DD 021e11H
	DD	07006320aH
	DD	imagerel __CxxFrameHandler4
	DD	imagerel $cppxdata$??1?$CComPtr@UID3D11VideoProcessorOutputView@@@ATL@@QEAA@XZ
xdata	ENDS
;	COMDAT xdata
xdata	SEGMENT
$unwind$?dtor$0@?0???0?$CComPtr@UID3D11VideoProcessorOutputView@@@ATL@@QEAA@XZ@4HA DD 031001H
	DD	0700c4210H
	DD	0500bH
xdata	ENDS
;	COMDAT xdata
xdata	SEGMENT
$ip2state$??0?$CComPtr@UID3D11VideoProcessorOutputView@@@ATL@@QEAA@XZ DB 02H
	DB	00H
	DB	00H
xdata	ENDS
;	COMDAT xdata
xdata	SEGMENT
$stateUnwindMap$??0?$CComPtr@UID3D11VideoProcessorOutputView@@@ATL@@QEAA@XZ DB 02H
	DB	0eH
	DD	imagerel ?dtor$0@?0???0?$CComPtr@UID3D11VideoProcessorOutputView@@@ATL@@QEAA@XZ@4HA
xdata	ENDS
;	COMDAT xdata
xdata	SEGMENT
$cppxdata$??0?$CComPtr@UID3D11VideoProcessorOutputView@@@ATL@@QEAA@XZ DB 08H
	DD	imagerel $stateUnwindMap$??0?$CComPtr@UID3D11VideoProcessorOutputView@@@ATL@@QEAA@XZ
	DD	imagerel $ip2state$??0?$CComPtr@UID3D11VideoProcessorOutputView@@@ATL@@QEAA@XZ
xdata	ENDS
;	COMDAT xdata
xdata	SEGMENT
$unwind$??0?$CComPtr@UID3D11VideoProcessorOutputView@@@ATL@@QEAA@XZ DD 021e11H
	DD	07006320aH
	DD	imagerel __CxxFrameHandler4
	DD	imagerel $cppxdata$??0?$CComPtr@UID3D11VideoProcessorOutputView@@@ATL@@QEAA@XZ
xdata	ENDS
;	COMDAT xdata
xdata	SEGMENT
$unwind$??1?$CComPtrBase@UID3D11VideoProcessorOutputView@@@ATL@@QEAA@XZ DD 021e01H
	DD	07006320aH
xdata	ENDS
;	COMDAT xdata
xdata	SEGMENT
$unwind$??0?$CComPtrBase@UID3D11VideoProcessorOutputView@@@ATL@@IEAA@XZ DD 010601H
	DD	07006H
xdata	ENDS
;	COMDAT xdata
xdata	SEGMENT
$unwind$?dtor$0@?0???1?$CComPtr@UID3D11VideoProcessorInputView@@@ATL@@QEAA@XZ@4HA DD 031001H
	DD	0700c4210H
	DD	0500bH
xdata	ENDS
;	COMDAT xdata
xdata	SEGMENT
$ip2state$??1?$CComPtr@UID3D11VideoProcessorInputView@@@ATL@@QEAA@XZ DB 02H
	DB	00H
	DB	00H
xdata	ENDS
;	COMDAT xdata
xdata	SEGMENT
$stateUnwindMap$??1?$CComPtr@UID3D11VideoProcessorInputView@@@ATL@@QEAA@XZ DB 02H
	DB	0eH
	DD	imagerel ?dtor$0@?0???1?$CComPtr@UID3D11VideoProcessorInputView@@@ATL@@QEAA@XZ@4HA
xdata	ENDS
;	COMDAT xdata
xdata	SEGMENT
$cppxdata$??1?$CComPtr@UID3D11VideoProcessorInputView@@@ATL@@QEAA@XZ DB 048H
	DD	imagerel $stateUnwindMap$??1?$CComPtr@UID3D11VideoProcessorInputView@@@ATL@@QEAA@XZ
	DD	imagerel $ip2state$??1?$CComPtr@UID3D11VideoProcessorInputView@@@ATL@@QEAA@XZ
xdata	ENDS
;	COMDAT xdata
xdata	SEGMENT
$unwind$??1?$CComPtr@UID3D11VideoProcessorInputView@@@ATL@@QEAA@XZ DD 021e11H
	DD	07006320aH
	DD	imagerel __CxxFrameHandler4
	DD	imagerel $cppxdata$??1?$CComPtr@UID3D11VideoProcessorInputView@@@ATL@@QEAA@XZ
xdata	ENDS
;	COMDAT xdata
xdata	SEGMENT
$unwind$?dtor$0@?0???0?$CComPtr@UID3D11VideoProcessorInputView@@@ATL@@QEAA@XZ@4HA DD 031001H
	DD	0700c4210H
	DD	0500bH
xdata	ENDS
;	COMDAT xdata
xdata	SEGMENT
$ip2state$??0?$CComPtr@UID3D11VideoProcessorInputView@@@ATL@@QEAA@XZ DB 02H
	DB	00H
	DB	00H
xdata	ENDS
;	COMDAT xdata
xdata	SEGMENT
$stateUnwindMap$??0?$CComPtr@UID3D11VideoProcessorInputView@@@ATL@@QEAA@XZ DB 02H
	DB	0eH
	DD	imagerel ?dtor$0@?0???0?$CComPtr@UID3D11VideoProcessorInputView@@@ATL@@QEAA@XZ@4HA
xdata	ENDS
;	COMDAT xdata
xdata	SEGMENT
$cppxdata$??0?$CComPtr@UID3D11VideoProcessorInputView@@@ATL@@QEAA@XZ DB 08H
	DD	imagerel $stateUnwindMap$??0?$CComPtr@UID3D11VideoProcessorInputView@@@ATL@@QEAA@XZ
	DD	imagerel $ip2state$??0?$CComPtr@UID3D11VideoProcessorInputView@@@ATL@@QEAA@XZ
xdata	ENDS
;	COMDAT xdata
xdata	SEGMENT
$unwind$??0?$CComPtr@UID3D11VideoProcessorInputView@@@ATL@@QEAA@XZ DD 021e11H
	DD	07006320aH
	DD	imagerel __CxxFrameHandler4
	DD	imagerel $cppxdata$??0?$CComPtr@UID3D11VideoProcessorInputView@@@ATL@@QEAA@XZ
xdata	ENDS
;	COMDAT xdata
xdata	SEGMENT
$unwind$??1?$CComPtrBase@UID3D11VideoProcessorInputView@@@ATL@@QEAA@XZ DD 021e01H
	DD	07006320aH
xdata	ENDS
;	COMDAT xdata
xdata	SEGMENT
$unwind$??0?$CComPtrBase@UID3D11VideoProcessorInputView@@@ATL@@IEAA@XZ DD 010601H
	DD	07006H
xdata	ENDS
;	COMDAT xdata
xdata	SEGMENT
$unwind$?dtor$0@?0???1?$CComPtr@UID3D11VideoProcessor@@@ATL@@QEAA@XZ@4HA DD 031001H
	DD	0700c4210H
	DD	0500bH
xdata	ENDS
;	COMDAT xdata
xdata	SEGMENT
$ip2state$??1?$CComPtr@UID3D11VideoProcessor@@@ATL@@QEAA@XZ DB 02H
	DB	00H
	DB	00H
xdata	ENDS
;	COMDAT xdata
xdata	SEGMENT
$stateUnwindMap$??1?$CComPtr@UID3D11VideoProcessor@@@ATL@@QEAA@XZ DB 02H
	DB	0eH
	DD	imagerel ?dtor$0@?0???1?$CComPtr@UID3D11VideoProcessor@@@ATL@@QEAA@XZ@4HA
xdata	ENDS
;	COMDAT xdata
xdata	SEGMENT
$cppxdata$??1?$CComPtr@UID3D11VideoProcessor@@@ATL@@QEAA@XZ DB 048H
	DD	imagerel $stateUnwindMap$??1?$CComPtr@UID3D11VideoProcessor@@@ATL@@QEAA@XZ
	DD	imagerel $ip2state$??1?$CComPtr@UID3D11VideoProcessor@@@ATL@@QEAA@XZ
xdata	ENDS
;	COMDAT xdata
xdata	SEGMENT
$unwind$??1?$CComPtr@UID3D11VideoProcessor@@@ATL@@QEAA@XZ DD 021e11H
	DD	07006320aH
	DD	imagerel __CxxFrameHandler4
	DD	imagerel $cppxdata$??1?$CComPtr@UID3D11VideoProcessor@@@ATL@@QEAA@XZ
xdata	ENDS
;	COMDAT xdata
xdata	SEGMENT
$unwind$?dtor$0@?0???0?$CComPtr@UID3D11VideoProcessor@@@ATL@@QEAA@XZ@4HA DD 031001H
	DD	0700c4210H
	DD	0500bH
xdata	ENDS
;	COMDAT xdata
xdata	SEGMENT
$ip2state$??0?$CComPtr@UID3D11VideoProcessor@@@ATL@@QEAA@XZ DB 02H
	DB	00H
	DB	00H
xdata	ENDS
;	COMDAT xdata
xdata	SEGMENT
$stateUnwindMap$??0?$CComPtr@UID3D11VideoProcessor@@@ATL@@QEAA@XZ DB 02H
	DB	0eH
	DD	imagerel ?dtor$0@?0???0?$CComPtr@UID3D11VideoProcessor@@@ATL@@QEAA@XZ@4HA
xdata	ENDS
;	COMDAT xdata
xdata	SEGMENT
$cppxdata$??0?$CComPtr@UID3D11VideoProcessor@@@ATL@@QEAA@XZ DB 08H
	DD	imagerel $stateUnwindMap$??0?$CComPtr@UID3D11VideoProcessor@@@ATL@@QEAA@XZ
	DD	imagerel $ip2state$??0?$CComPtr@UID3D11VideoProcessor@@@ATL@@QEAA@XZ
xdata	ENDS
;	COMDAT xdata
xdata	SEGMENT
$unwind$??0?$CComPtr@UID3D11VideoProcessor@@@ATL@@QEAA@XZ DD 021e11H
	DD	07006320aH
	DD	imagerel __CxxFrameHandler4
	DD	imagerel $cppxdata$??0?$CComPtr@UID3D11VideoProcessor@@@ATL@@QEAA@XZ
xdata	ENDS
;	COMDAT xdata
xdata	SEGMENT
$unwind$??I?$CComPtrBase@UID3D11VideoProcessor@@@ATL@@QEAAPEAPEAUID3D11VideoProcessor@@XZ DD 021e01H
	DD	07006520aH
xdata	ENDS
;	COMDAT xdata
xdata	SEGMENT
$unwind$??1?$CComPtrBase@UID3D11VideoProcessor@@@ATL@@QEAA@XZ DD 021e01H
	DD	07006320aH
xdata	ENDS
;	COMDAT xdata
xdata	SEGMENT
$unwind$??0?$CComPtrBase@UID3D11VideoProcessor@@@ATL@@IEAA@XZ DD 010601H
	DD	07006H
xdata	ENDS
;	COMDAT xdata
xdata	SEGMENT
$unwind$?dtor$0@?0???1?$CComPtr@UIDXGISwapChain1@@@ATL@@QEAA@XZ@4HA DD 031001H
	DD	0700c4210H
	DD	0500bH
xdata	ENDS
;	COMDAT xdata
xdata	SEGMENT
$ip2state$??1?$CComPtr@UIDXGISwapChain1@@@ATL@@QEAA@XZ DB 02H
	DB	00H
	DB	00H
xdata	ENDS
;	COMDAT xdata
xdata	SEGMENT
$stateUnwindMap$??1?$CComPtr@UIDXGISwapChain1@@@ATL@@QEAA@XZ DB 02H
	DB	0eH
	DD	imagerel ?dtor$0@?0???1?$CComPtr@UIDXGISwapChain1@@@ATL@@QEAA@XZ@4HA
xdata	ENDS
;	COMDAT xdata
xdata	SEGMENT
$cppxdata$??1?$CComPtr@UIDXGISwapChain1@@@ATL@@QEAA@XZ DB 048H
	DD	imagerel $stateUnwindMap$??1?$CComPtr@UIDXGISwapChain1@@@ATL@@QEAA@XZ
	DD	imagerel $ip2state$??1?$CComPtr@UIDXGISwapChain1@@@ATL@@QEAA@XZ
xdata	ENDS
;	COMDAT xdata
xdata	SEGMENT
$unwind$??1?$CComPtr@UIDXGISwapChain1@@@ATL@@QEAA@XZ DD 021e11H
	DD	07006320aH
	DD	imagerel __CxxFrameHandler4
	DD	imagerel $cppxdata$??1?$CComPtr@UIDXGISwapChain1@@@ATL@@QEAA@XZ
xdata	ENDS
;	COMDAT xdata
xdata	SEGMENT
$unwind$?dtor$0@?0???0?$CComPtr@UIDXGISwapChain1@@@ATL@@QEAA@XZ@4HA DD 031001H
	DD	0700c4210H
	DD	0500bH
xdata	ENDS
;	COMDAT xdata
xdata	SEGMENT
$ip2state$??0?$CComPtr@UIDXGISwapChain1@@@ATL@@QEAA@XZ DB 02H
	DB	00H
	DB	00H
xdata	ENDS
;	COMDAT xdata
xdata	SEGMENT
$stateUnwindMap$??0?$CComPtr@UIDXGISwapChain1@@@ATL@@QEAA@XZ DB 02H
	DB	0eH
	DD	imagerel ?dtor$0@?0???0?$CComPtr@UIDXGISwapChain1@@@ATL@@QEAA@XZ@4HA
xdata	ENDS
;	COMDAT xdata
xdata	SEGMENT
$cppxdata$??0?$CComPtr@UIDXGISwapChain1@@@ATL@@QEAA@XZ DB 08H
	DD	imagerel $stateUnwindMap$??0?$CComPtr@UIDXGISwapChain1@@@ATL@@QEAA@XZ
	DD	imagerel $ip2state$??0?$CComPtr@UIDXGISwapChain1@@@ATL@@QEAA@XZ
xdata	ENDS
;	COMDAT xdata
xdata	SEGMENT
$unwind$??0?$CComPtr@UIDXGISwapChain1@@@ATL@@QEAA@XZ DD 021e11H
	DD	07006320aH
	DD	imagerel __CxxFrameHandler4
	DD	imagerel $cppxdata$??0?$CComPtr@UIDXGISwapChain1@@@ATL@@QEAA@XZ
xdata	ENDS
;	COMDAT xdata
xdata	SEGMENT
$unwind$??I?$CComPtrBase@UIDXGISwapChain1@@@ATL@@QEAAPEAPEAUIDXGISwapChain1@@XZ DD 021e01H
	DD	07006520aH
xdata	ENDS
;	COMDAT xdata
xdata	SEGMENT
$unwind$??1?$CComPtrBase@UIDXGISwapChain1@@@ATL@@QEAA@XZ DD 021e01H
	DD	07006320aH
xdata	ENDS
;	COMDAT xdata
xdata	SEGMENT
$unwind$??0?$CComPtrBase@UIDXGISwapChain1@@@ATL@@IEAA@XZ DD 010601H
	DD	07006H
xdata	ENDS
;	COMDAT xdata
xdata	SEGMENT
$unwind$?dtor$0@?0???1?$CComPtr@UIDXGIFactory2@@@ATL@@QEAA@XZ@4HA DD 031001H
	DD	0700c4210H
	DD	0500bH
xdata	ENDS
;	COMDAT xdata
xdata	SEGMENT
$ip2state$??1?$CComPtr@UIDXGIFactory2@@@ATL@@QEAA@XZ DB 02H
	DB	00H
	DB	00H
xdata	ENDS
;	COMDAT xdata
xdata	SEGMENT
$stateUnwindMap$??1?$CComPtr@UIDXGIFactory2@@@ATL@@QEAA@XZ DB 02H
	DB	0eH
	DD	imagerel ?dtor$0@?0???1?$CComPtr@UIDXGIFactory2@@@ATL@@QEAA@XZ@4HA
xdata	ENDS
;	COMDAT xdata
xdata	SEGMENT
$cppxdata$??1?$CComPtr@UIDXGIFactory2@@@ATL@@QEAA@XZ DB 048H
	DD	imagerel $stateUnwindMap$??1?$CComPtr@UIDXGIFactory2@@@ATL@@QEAA@XZ
	DD	imagerel $ip2state$??1?$CComPtr@UIDXGIFactory2@@@ATL@@QEAA@XZ
xdata	ENDS
;	COMDAT xdata
xdata	SEGMENT
$unwind$??1?$CComPtr@UIDXGIFactory2@@@ATL@@QEAA@XZ DD 021e11H
	DD	07006320aH
	DD	imagerel __CxxFrameHandler4
	DD	imagerel $cppxdata$??1?$CComPtr@UIDXGIFactory2@@@ATL@@QEAA@XZ
xdata	ENDS
;	COMDAT xdata
xdata	SEGMENT
$unwind$?dtor$0@?0???0?$CComPtr@UIDXGIFactory2@@@ATL@@QEAA@XZ@4HA DD 031001H
	DD	0700c4210H
	DD	0500bH
xdata	ENDS
;	COMDAT xdata
xdata	SEGMENT
$ip2state$??0?$CComPtr@UIDXGIFactory2@@@ATL@@QEAA@XZ DB 02H
	DB	00H
	DB	00H
xdata	ENDS
;	COMDAT xdata
xdata	SEGMENT
$stateUnwindMap$??0?$CComPtr@UIDXGIFactory2@@@ATL@@QEAA@XZ DB 02H
	DB	0eH
	DD	imagerel ?dtor$0@?0???0?$CComPtr@UIDXGIFactory2@@@ATL@@QEAA@XZ@4HA
xdata	ENDS
;	COMDAT xdata
xdata	SEGMENT
$cppxdata$??0?$CComPtr@UIDXGIFactory2@@@ATL@@QEAA@XZ DB 08H
	DD	imagerel $stateUnwindMap$??0?$CComPtr@UIDXGIFactory2@@@ATL@@QEAA@XZ
	DD	imagerel $ip2state$??0?$CComPtr@UIDXGIFactory2@@@ATL@@QEAA@XZ
xdata	ENDS
;	COMDAT xdata
xdata	SEGMENT
$unwind$??0?$CComPtr@UIDXGIFactory2@@@ATL@@QEAA@XZ DD 021e11H
	DD	07006320aH
	DD	imagerel __CxxFrameHandler4
	DD	imagerel $cppxdata$??0?$CComPtr@UIDXGIFactory2@@@ATL@@QEAA@XZ
xdata	ENDS
;	COMDAT xdata
xdata	SEGMENT
$unwind$??C?$CComPtrBase@UIDXGIFactory2@@@ATL@@QEBAPEAV?$_NoAddRefReleaseOnCComPtr@UIDXGIFactory2@@@1@XZ DD 021e01H
	DD	07006520aH
xdata	ENDS
;	COMDAT xdata
xdata	SEGMENT
$unwind$??I?$CComPtrBase@UIDXGIFactory2@@@ATL@@QEAAPEAPEAUIDXGIFactory2@@XZ DD 021e01H
	DD	07006520aH
xdata	ENDS
;	COMDAT xdata
xdata	SEGMENT
$unwind$??1?$CComPtrBase@UIDXGIFactory2@@@ATL@@QEAA@XZ DD 021e01H
	DD	07006320aH
xdata	ENDS
;	COMDAT xdata
xdata	SEGMENT
$unwind$??0?$CComPtrBase@UIDXGIFactory2@@@ATL@@IEAA@XZ DD 010601H
	DD	07006H
xdata	ENDS
;	COMDAT xdata
xdata	SEGMENT
$unwind$?dtor$0@?0???1?$CComQIPtr@UIDXGIAdapter@@$1?_GUID_2411e7e1_12ac_4ccf_bd14_9798e8534dc0@@3U__s_GUID@@B@ATL@@QEAA@XZ@4HA DD 031001H
	DD	0700c4210H
	DD	0500bH
xdata	ENDS
;	COMDAT xdata
xdata	SEGMENT
$ip2state$??1?$CComQIPtr@UIDXGIAdapter@@$1?_GUID_2411e7e1_12ac_4ccf_bd14_9798e8534dc0@@3U__s_GUID@@B@ATL@@QEAA@XZ DB 02H
	DB	00H
	DB	00H
xdata	ENDS
;	COMDAT xdata
xdata	SEGMENT
$stateUnwindMap$??1?$CComQIPtr@UIDXGIAdapter@@$1?_GUID_2411e7e1_12ac_4ccf_bd14_9798e8534dc0@@3U__s_GUID@@B@ATL@@QEAA@XZ DB 02H
	DB	0eH
	DD	imagerel ?dtor$0@?0???1?$CComQIPtr@UIDXGIAdapter@@$1?_GUID_2411e7e1_12ac_4ccf_bd14_9798e8534dc0@@3U__s_GUID@@B@ATL@@QEAA@XZ@4HA
xdata	ENDS
;	COMDAT xdata
xdata	SEGMENT
$cppxdata$??1?$CComQIPtr@UIDXGIAdapter@@$1?_GUID_2411e7e1_12ac_4ccf_bd14_9798e8534dc0@@3U__s_GUID@@B@ATL@@QEAA@XZ DB 048H
	DD	imagerel $stateUnwindMap$??1?$CComQIPtr@UIDXGIAdapter@@$1?_GUID_2411e7e1_12ac_4ccf_bd14_9798e8534dc0@@3U__s_GUID@@B@ATL@@QEAA@XZ
	DD	imagerel $ip2state$??1?$CComQIPtr@UIDXGIAdapter@@$1?_GUID_2411e7e1_12ac_4ccf_bd14_9798e8534dc0@@3U__s_GUID@@B@ATL@@QEAA@XZ
xdata	ENDS
;	COMDAT xdata
xdata	SEGMENT
$unwind$??1?$CComQIPtr@UIDXGIAdapter@@$1?_GUID_2411e7e1_12ac_4ccf_bd14_9798e8534dc0@@3U__s_GUID@@B@ATL@@QEAA@XZ DD 021e11H
	DD	07006320aH
	DD	imagerel __CxxFrameHandler4
	DD	imagerel $cppxdata$??1?$CComQIPtr@UIDXGIAdapter@@$1?_GUID_2411e7e1_12ac_4ccf_bd14_9798e8534dc0@@3U__s_GUID@@B@ATL@@QEAA@XZ
xdata	ENDS
;	COMDAT xdata
xdata	SEGMENT
$unwind$?dtor$0@?0???0?$CComQIPtr@UIDXGIAdapter@@$1?_GUID_2411e7e1_12ac_4ccf_bd14_9798e8534dc0@@3U__s_GUID@@B@ATL@@QEAA@XZ@4HA DD 031001H
	DD	0700c4210H
	DD	0500bH
xdata	ENDS
;	COMDAT xdata
xdata	SEGMENT
$ip2state$??0?$CComQIPtr@UIDXGIAdapter@@$1?_GUID_2411e7e1_12ac_4ccf_bd14_9798e8534dc0@@3U__s_GUID@@B@ATL@@QEAA@XZ DB 02H
	DB	00H
	DB	00H
xdata	ENDS
;	COMDAT xdata
xdata	SEGMENT
$stateUnwindMap$??0?$CComQIPtr@UIDXGIAdapter@@$1?_GUID_2411e7e1_12ac_4ccf_bd14_9798e8534dc0@@3U__s_GUID@@B@ATL@@QEAA@XZ DB 02H
	DB	0eH
	DD	imagerel ?dtor$0@?0???0?$CComQIPtr@UIDXGIAdapter@@$1?_GUID_2411e7e1_12ac_4ccf_bd14_9798e8534dc0@@3U__s_GUID@@B@ATL@@QEAA@XZ@4HA
xdata	ENDS
;	COMDAT xdata
xdata	SEGMENT
$cppxdata$??0?$CComQIPtr@UIDXGIAdapter@@$1?_GUID_2411e7e1_12ac_4ccf_bd14_9798e8534dc0@@3U__s_GUID@@B@ATL@@QEAA@XZ DB 08H
	DD	imagerel $stateUnwindMap$??0?$CComQIPtr@UIDXGIAdapter@@$1?_GUID_2411e7e1_12ac_4ccf_bd14_9798e8534dc0@@3U__s_GUID@@B@ATL@@QEAA@XZ
	DD	imagerel $ip2state$??0?$CComQIPtr@UIDXGIAdapter@@$1?_GUID_2411e7e1_12ac_4ccf_bd14_9798e8534dc0@@3U__s_GUID@@B@ATL@@QEAA@XZ
xdata	ENDS
;	COMDAT xdata
xdata	SEGMENT
$unwind$??0?$CComQIPtr@UIDXGIAdapter@@$1?_GUID_2411e7e1_12ac_4ccf_bd14_9798e8534dc0@@3U__s_GUID@@B@ATL@@QEAA@XZ DD 021e11H
	DD	07006320aH
	DD	imagerel __CxxFrameHandler4
	DD	imagerel $cppxdata$??0?$CComQIPtr@UIDXGIAdapter@@$1?_GUID_2411e7e1_12ac_4ccf_bd14_9798e8534dc0@@3U__s_GUID@@B@ATL@@QEAA@XZ
xdata	ENDS
;	COMDAT xdata
xdata	SEGMENT
$unwind$?dtor$0@?0???1?$CComPtr@UIDXGIAdapter@@@ATL@@QEAA@XZ@4HA DD 031001H
	DD	0700c4210H
	DD	0500bH
xdata	ENDS
;	COMDAT xdata
xdata	SEGMENT
$ip2state$??1?$CComPtr@UIDXGIAdapter@@@ATL@@QEAA@XZ DB 02H
	DB	00H
	DB	00H
xdata	ENDS
;	COMDAT xdata
xdata	SEGMENT
$stateUnwindMap$??1?$CComPtr@UIDXGIAdapter@@@ATL@@QEAA@XZ DB 02H
	DB	0eH
	DD	imagerel ?dtor$0@?0???1?$CComPtr@UIDXGIAdapter@@@ATL@@QEAA@XZ@4HA
xdata	ENDS
;	COMDAT xdata
xdata	SEGMENT
$cppxdata$??1?$CComPtr@UIDXGIAdapter@@@ATL@@QEAA@XZ DB 048H
	DD	imagerel $stateUnwindMap$??1?$CComPtr@UIDXGIAdapter@@@ATL@@QEAA@XZ
	DD	imagerel $ip2state$??1?$CComPtr@UIDXGIAdapter@@@ATL@@QEAA@XZ
xdata	ENDS
;	COMDAT xdata
xdata	SEGMENT
$unwind$??1?$CComPtr@UIDXGIAdapter@@@ATL@@QEAA@XZ DD 021e11H
	DD	07006320aH
	DD	imagerel __CxxFrameHandler4
	DD	imagerel $cppxdata$??1?$CComPtr@UIDXGIAdapter@@@ATL@@QEAA@XZ
xdata	ENDS
;	COMDAT xdata
xdata	SEGMENT
$unwind$?dtor$0@?0???0?$CComPtr@UIDXGIAdapter@@@ATL@@QEAA@XZ@4HA DD 031001H
	DD	0700c4210H
	DD	0500bH
xdata	ENDS
;	COMDAT xdata
xdata	SEGMENT
$ip2state$??0?$CComPtr@UIDXGIAdapter@@@ATL@@QEAA@XZ DB 02H
	DB	00H
	DB	00H
xdata	ENDS
;	COMDAT xdata
xdata	SEGMENT
$stateUnwindMap$??0?$CComPtr@UIDXGIAdapter@@@ATL@@QEAA@XZ DB 02H
	DB	0eH
	DD	imagerel ?dtor$0@?0???0?$CComPtr@UIDXGIAdapter@@@ATL@@QEAA@XZ@4HA
xdata	ENDS
;	COMDAT xdata
xdata	SEGMENT
$cppxdata$??0?$CComPtr@UIDXGIAdapter@@@ATL@@QEAA@XZ DB 08H
	DD	imagerel $stateUnwindMap$??0?$CComPtr@UIDXGIAdapter@@@ATL@@QEAA@XZ
	DD	imagerel $ip2state$??0?$CComPtr@UIDXGIAdapter@@@ATL@@QEAA@XZ
xdata	ENDS
;	COMDAT xdata
xdata	SEGMENT
$unwind$??0?$CComPtr@UIDXGIAdapter@@@ATL@@QEAA@XZ DD 021e11H
	DD	07006320aH
	DD	imagerel __CxxFrameHandler4
	DD	imagerel $cppxdata$??0?$CComPtr@UIDXGIAdapter@@@ATL@@QEAA@XZ
xdata	ENDS
;	COMDAT xdata
xdata	SEGMENT
$unwind$??I?$CComPtrBase@UIDXGIAdapter@@@ATL@@QEAAPEAPEAUIDXGIAdapter@@XZ DD 021e01H
	DD	07006520aH
xdata	ENDS
;	COMDAT xdata
xdata	SEGMENT
$unwind$??B?$CComPtrBase@UIDXGIAdapter@@@ATL@@QEBAPEAUIDXGIAdapter@@XZ DD 010601H
	DD	07006H
xdata	ENDS
;	COMDAT xdata
xdata	SEGMENT
$unwind$??1?$CComPtrBase@UIDXGIAdapter@@@ATL@@QEAA@XZ DD 021e01H
	DD	07006320aH
xdata	ENDS
;	COMDAT xdata
xdata	SEGMENT
$unwind$??0?$CComPtrBase@UIDXGIAdapter@@@ATL@@IEAA@XZ DD 010601H
	DD	07006H
xdata	ENDS
;	COMDAT xdata
xdata	SEGMENT
$unwind$?dtor$0@?0???1?$CComQIPtr@UIDXGIDevice1@@$1?_GUID_77db970f_6276_48ba_ba28_070143b4392c@@3U__s_GUID@@B@ATL@@QEAA@XZ@4HA DD 031001H
	DD	0700c4210H
	DD	0500bH
xdata	ENDS
;	COMDAT xdata
xdata	SEGMENT
$ip2state$??1?$CComQIPtr@UIDXGIDevice1@@$1?_GUID_77db970f_6276_48ba_ba28_070143b4392c@@3U__s_GUID@@B@ATL@@QEAA@XZ DB 02H
	DB	00H
	DB	00H
xdata	ENDS
;	COMDAT xdata
xdata	SEGMENT
$stateUnwindMap$??1?$CComQIPtr@UIDXGIDevice1@@$1?_GUID_77db970f_6276_48ba_ba28_070143b4392c@@3U__s_GUID@@B@ATL@@QEAA@XZ DB 02H
	DB	0eH
	DD	imagerel ?dtor$0@?0???1?$CComQIPtr@UIDXGIDevice1@@$1?_GUID_77db970f_6276_48ba_ba28_070143b4392c@@3U__s_GUID@@B@ATL@@QEAA@XZ@4HA
xdata	ENDS
;	COMDAT xdata
xdata	SEGMENT
$cppxdata$??1?$CComQIPtr@UIDXGIDevice1@@$1?_GUID_77db970f_6276_48ba_ba28_070143b4392c@@3U__s_GUID@@B@ATL@@QEAA@XZ DB 048H
	DD	imagerel $stateUnwindMap$??1?$CComQIPtr@UIDXGIDevice1@@$1?_GUID_77db970f_6276_48ba_ba28_070143b4392c@@3U__s_GUID@@B@ATL@@QEAA@XZ
	DD	imagerel $ip2state$??1?$CComQIPtr@UIDXGIDevice1@@$1?_GUID_77db970f_6276_48ba_ba28_070143b4392c@@3U__s_GUID@@B@ATL@@QEAA@XZ
xdata	ENDS
;	COMDAT xdata
xdata	SEGMENT
$unwind$??1?$CComQIPtr@UIDXGIDevice1@@$1?_GUID_77db970f_6276_48ba_ba28_070143b4392c@@3U__s_GUID@@B@ATL@@QEAA@XZ DD 021e11H
	DD	07006320aH
	DD	imagerel __CxxFrameHandler4
	DD	imagerel $cppxdata$??1?$CComQIPtr@UIDXGIDevice1@@$1?_GUID_77db970f_6276_48ba_ba28_070143b4392c@@3U__s_GUID@@B@ATL@@QEAA@XZ
xdata	ENDS
;	COMDAT xdata
xdata	SEGMENT
$unwind$??4?$CComQIPtr@UIDXGIDevice1@@$1?_GUID_77db970f_6276_48ba_ba28_070143b4392c@@3U__s_GUID@@B@ATL@@QEAAPEAUIDXGIDevice1@@PEAUIUnknown@@@Z DD 022301H
	DD	0700b320fH
xdata	ENDS
;	COMDAT xdata
xdata	SEGMENT
$unwind$?dtor$0@?0???0?$CComQIPtr@UIDXGIDevice1@@$1?_GUID_77db970f_6276_48ba_ba28_070143b4392c@@3U__s_GUID@@B@ATL@@QEAA@XZ@4HA DD 031001H
	DD	0700c4210H
	DD	0500bH
xdata	ENDS
;	COMDAT xdata
xdata	SEGMENT
$ip2state$??0?$CComQIPtr@UIDXGIDevice1@@$1?_GUID_77db970f_6276_48ba_ba28_070143b4392c@@3U__s_GUID@@B@ATL@@QEAA@XZ DB 02H
	DB	00H
	DB	00H
xdata	ENDS
;	COMDAT xdata
xdata	SEGMENT
$stateUnwindMap$??0?$CComQIPtr@UIDXGIDevice1@@$1?_GUID_77db970f_6276_48ba_ba28_070143b4392c@@3U__s_GUID@@B@ATL@@QEAA@XZ DB 02H
	DB	0eH
	DD	imagerel ?dtor$0@?0???0?$CComQIPtr@UIDXGIDevice1@@$1?_GUID_77db970f_6276_48ba_ba28_070143b4392c@@3U__s_GUID@@B@ATL@@QEAA@XZ@4HA
xdata	ENDS
;	COMDAT xdata
xdata	SEGMENT
$cppxdata$??0?$CComQIPtr@UIDXGIDevice1@@$1?_GUID_77db970f_6276_48ba_ba28_070143b4392c@@3U__s_GUID@@B@ATL@@QEAA@XZ DB 08H
	DD	imagerel $stateUnwindMap$??0?$CComQIPtr@UIDXGIDevice1@@$1?_GUID_77db970f_6276_48ba_ba28_070143b4392c@@3U__s_GUID@@B@ATL@@QEAA@XZ
	DD	imagerel $ip2state$??0?$CComQIPtr@UIDXGIDevice1@@$1?_GUID_77db970f_6276_48ba_ba28_070143b4392c@@3U__s_GUID@@B@ATL@@QEAA@XZ
xdata	ENDS
;	COMDAT xdata
xdata	SEGMENT
$unwind$??0?$CComQIPtr@UIDXGIDevice1@@$1?_GUID_77db970f_6276_48ba_ba28_070143b4392c@@3U__s_GUID@@B@ATL@@QEAA@XZ DD 021e11H
	DD	07006320aH
	DD	imagerel __CxxFrameHandler4
	DD	imagerel $cppxdata$??0?$CComQIPtr@UIDXGIDevice1@@$1?_GUID_77db970f_6276_48ba_ba28_070143b4392c@@3U__s_GUID@@B@ATL@@QEAA@XZ
xdata	ENDS
;	COMDAT xdata
xdata	SEGMENT
$unwind$?dtor$0@?0???1?$CComPtr@UIDXGIDevice1@@@ATL@@QEAA@XZ@4HA DD 031001H
	DD	0700c4210H
	DD	0500bH
xdata	ENDS
;	COMDAT xdata
xdata	SEGMENT
$ip2state$??1?$CComPtr@UIDXGIDevice1@@@ATL@@QEAA@XZ DB 02H
	DB	00H
	DB	00H
xdata	ENDS
;	COMDAT xdata
xdata	SEGMENT
$stateUnwindMap$??1?$CComPtr@UIDXGIDevice1@@@ATL@@QEAA@XZ DB 02H
	DB	0eH
	DD	imagerel ?dtor$0@?0???1?$CComPtr@UIDXGIDevice1@@@ATL@@QEAA@XZ@4HA
xdata	ENDS
;	COMDAT xdata
xdata	SEGMENT
$cppxdata$??1?$CComPtr@UIDXGIDevice1@@@ATL@@QEAA@XZ DB 048H
	DD	imagerel $stateUnwindMap$??1?$CComPtr@UIDXGIDevice1@@@ATL@@QEAA@XZ
	DD	imagerel $ip2state$??1?$CComPtr@UIDXGIDevice1@@@ATL@@QEAA@XZ
xdata	ENDS
;	COMDAT xdata
xdata	SEGMENT
$unwind$??1?$CComPtr@UIDXGIDevice1@@@ATL@@QEAA@XZ DD 021e11H
	DD	07006320aH
	DD	imagerel __CxxFrameHandler4
	DD	imagerel $cppxdata$??1?$CComPtr@UIDXGIDevice1@@@ATL@@QEAA@XZ
xdata	ENDS
;	COMDAT xdata
xdata	SEGMENT
$unwind$?dtor$0@?0???0?$CComPtr@UIDXGIDevice1@@@ATL@@QEAA@XZ@4HA DD 031001H
	DD	0700c4210H
	DD	0500bH
xdata	ENDS
;	COMDAT xdata
xdata	SEGMENT
$ip2state$??0?$CComPtr@UIDXGIDevice1@@@ATL@@QEAA@XZ DB 02H
	DB	00H
	DB	00H
xdata	ENDS
;	COMDAT xdata
xdata	SEGMENT
$stateUnwindMap$??0?$CComPtr@UIDXGIDevice1@@@ATL@@QEAA@XZ DB 02H
	DB	0eH
	DD	imagerel ?dtor$0@?0???0?$CComPtr@UIDXGIDevice1@@@ATL@@QEAA@XZ@4HA
xdata	ENDS
;	COMDAT xdata
xdata	SEGMENT
$cppxdata$??0?$CComPtr@UIDXGIDevice1@@@ATL@@QEAA@XZ DB 08H
	DD	imagerel $stateUnwindMap$??0?$CComPtr@UIDXGIDevice1@@@ATL@@QEAA@XZ
	DD	imagerel $ip2state$??0?$CComPtr@UIDXGIDevice1@@@ATL@@QEAA@XZ
xdata	ENDS
;	COMDAT xdata
xdata	SEGMENT
$unwind$??0?$CComPtr@UIDXGIDevice1@@@ATL@@QEAA@XZ DD 021e11H
	DD	07006320aH
	DD	imagerel __CxxFrameHandler4
	DD	imagerel $cppxdata$??0?$CComPtr@UIDXGIDevice1@@@ATL@@QEAA@XZ
xdata	ENDS
;	COMDAT xdata
xdata	SEGMENT
$unwind$??B?$CComPtrBase@UIDXGIDevice1@@@ATL@@QEBAPEAUIDXGIDevice1@@XZ DD 010601H
	DD	07006H
xdata	ENDS
;	COMDAT xdata
xdata	SEGMENT
$unwind$??1?$CComPtrBase@UIDXGIDevice1@@@ATL@@QEAA@XZ DD 021e01H
	DD	07006320aH
xdata	ENDS
;	COMDAT xdata
xdata	SEGMENT
$unwind$??0?$CComPtrBase@UIDXGIDevice1@@@ATL@@IEAA@XZ DD 010601H
	DD	07006H
xdata	ENDS
;	COMDAT xdata
xdata	SEGMENT
$unwind$?dtor$0@?0???1?$CComPtr@UID3D11VideoProcessorEnumerator@@@ATL@@QEAA@XZ@4HA DD 031001H
	DD	0700c4210H
	DD	0500bH
xdata	ENDS
;	COMDAT xdata
xdata	SEGMENT
$ip2state$??1?$CComPtr@UID3D11VideoProcessorEnumerator@@@ATL@@QEAA@XZ DB 02H
	DB	00H
	DB	00H
xdata	ENDS
;	COMDAT xdata
xdata	SEGMENT
$stateUnwindMap$??1?$CComPtr@UID3D11VideoProcessorEnumerator@@@ATL@@QEAA@XZ DB 02H
	DB	0eH
	DD	imagerel ?dtor$0@?0???1?$CComPtr@UID3D11VideoProcessorEnumerator@@@ATL@@QEAA@XZ@4HA
xdata	ENDS
;	COMDAT xdata
xdata	SEGMENT
$cppxdata$??1?$CComPtr@UID3D11VideoProcessorEnumerator@@@ATL@@QEAA@XZ DB 048H
	DD	imagerel $stateUnwindMap$??1?$CComPtr@UID3D11VideoProcessorEnumerator@@@ATL@@QEAA@XZ
	DD	imagerel $ip2state$??1?$CComPtr@UID3D11VideoProcessorEnumerator@@@ATL@@QEAA@XZ
xdata	ENDS
;	COMDAT xdata
xdata	SEGMENT
$unwind$??1?$CComPtr@UID3D11VideoProcessorEnumerator@@@ATL@@QEAA@XZ DD 021e11H
	DD	07006320aH
	DD	imagerel __CxxFrameHandler4
	DD	imagerel $cppxdata$??1?$CComPtr@UID3D11VideoProcessorEnumerator@@@ATL@@QEAA@XZ
xdata	ENDS
;	COMDAT xdata
xdata	SEGMENT
$unwind$?dtor$0@?0???0?$CComPtr@UID3D11VideoProcessorEnumerator@@@ATL@@QEAA@XZ@4HA DD 031001H
	DD	0700c4210H
	DD	0500bH
xdata	ENDS
;	COMDAT xdata
xdata	SEGMENT
$ip2state$??0?$CComPtr@UID3D11VideoProcessorEnumerator@@@ATL@@QEAA@XZ DB 02H
	DB	00H
	DB	00H
xdata	ENDS
;	COMDAT xdata
xdata	SEGMENT
$stateUnwindMap$??0?$CComPtr@UID3D11VideoProcessorEnumerator@@@ATL@@QEAA@XZ DB 02H
	DB	0eH
	DD	imagerel ?dtor$0@?0???0?$CComPtr@UID3D11VideoProcessorEnumerator@@@ATL@@QEAA@XZ@4HA
xdata	ENDS
;	COMDAT xdata
xdata	SEGMENT
$cppxdata$??0?$CComPtr@UID3D11VideoProcessorEnumerator@@@ATL@@QEAA@XZ DB 08H
	DD	imagerel $stateUnwindMap$??0?$CComPtr@UID3D11VideoProcessorEnumerator@@@ATL@@QEAA@XZ
	DD	imagerel $ip2state$??0?$CComPtr@UID3D11VideoProcessorEnumerator@@@ATL@@QEAA@XZ
xdata	ENDS
;	COMDAT xdata
xdata	SEGMENT
$unwind$??0?$CComPtr@UID3D11VideoProcessorEnumerator@@@ATL@@QEAA@XZ DD 021e11H
	DD	07006320aH
	DD	imagerel __CxxFrameHandler4
	DD	imagerel $cppxdata$??0?$CComPtr@UID3D11VideoProcessorEnumerator@@@ATL@@QEAA@XZ
xdata	ENDS
;	COMDAT xdata
xdata	SEGMENT
$unwind$??I?$CComPtrBase@UID3D11VideoProcessorEnumerator@@@ATL@@QEAAPEAPEAUID3D11VideoProcessorEnumerator@@XZ DD 021e01H
	DD	07006520aH
xdata	ENDS
;	COMDAT xdata
xdata	SEGMENT
$unwind$??B?$CComPtrBase@UID3D11VideoProcessorEnumerator@@@ATL@@QEBAPEAUID3D11VideoProcessorEnumerator@@XZ DD 010601H
	DD	07006H
xdata	ENDS
;	COMDAT xdata
xdata	SEGMENT
$unwind$??1?$CComPtrBase@UID3D11VideoProcessorEnumerator@@@ATL@@QEAA@XZ DD 021e01H
	DD	07006320aH
xdata	ENDS
;	COMDAT xdata
xdata	SEGMENT
$unwind$??0?$CComPtrBase@UID3D11VideoProcessorEnumerator@@@ATL@@IEAA@XZ DD 010601H
	DD	07006H
xdata	ENDS
;	COMDAT xdata
xdata	SEGMENT
$unwind$?dtor$0@?0???1?$CComQIPtr@UID3D11VideoContext@@$1?_GUID_61f21c45_3c0e_4a74_9cea_67100d9ad5e4@@3U__s_GUID@@B@ATL@@QEAA@XZ@4HA DD 031001H
	DD	0700c4210H
	DD	0500bH
xdata	ENDS
;	COMDAT xdata
xdata	SEGMENT
$ip2state$??1?$CComQIPtr@UID3D11VideoContext@@$1?_GUID_61f21c45_3c0e_4a74_9cea_67100d9ad5e4@@3U__s_GUID@@B@ATL@@QEAA@XZ DB 02H
	DB	00H
	DB	00H
xdata	ENDS
;	COMDAT xdata
xdata	SEGMENT
$stateUnwindMap$??1?$CComQIPtr@UID3D11VideoContext@@$1?_GUID_61f21c45_3c0e_4a74_9cea_67100d9ad5e4@@3U__s_GUID@@B@ATL@@QEAA@XZ DB 02H
	DB	0eH
	DD	imagerel ?dtor$0@?0???1?$CComQIPtr@UID3D11VideoContext@@$1?_GUID_61f21c45_3c0e_4a74_9cea_67100d9ad5e4@@3U__s_GUID@@B@ATL@@QEAA@XZ@4HA
xdata	ENDS
;	COMDAT xdata
xdata	SEGMENT
$cppxdata$??1?$CComQIPtr@UID3D11VideoContext@@$1?_GUID_61f21c45_3c0e_4a74_9cea_67100d9ad5e4@@3U__s_GUID@@B@ATL@@QEAA@XZ DB 048H
	DD	imagerel $stateUnwindMap$??1?$CComQIPtr@UID3D11VideoContext@@$1?_GUID_61f21c45_3c0e_4a74_9cea_67100d9ad5e4@@3U__s_GUID@@B@ATL@@QEAA@XZ
	DD	imagerel $ip2state$??1?$CComQIPtr@UID3D11VideoContext@@$1?_GUID_61f21c45_3c0e_4a74_9cea_67100d9ad5e4@@3U__s_GUID@@B@ATL@@QEAA@XZ
xdata	ENDS
;	COMDAT xdata
xdata	SEGMENT
$unwind$??1?$CComQIPtr@UID3D11VideoContext@@$1?_GUID_61f21c45_3c0e_4a74_9cea_67100d9ad5e4@@3U__s_GUID@@B@ATL@@QEAA@XZ DD 021e11H
	DD	07006320aH
	DD	imagerel __CxxFrameHandler4
	DD	imagerel $cppxdata$??1?$CComQIPtr@UID3D11VideoContext@@$1?_GUID_61f21c45_3c0e_4a74_9cea_67100d9ad5e4@@3U__s_GUID@@B@ATL@@QEAA@XZ
xdata	ENDS
;	COMDAT xdata
xdata	SEGMENT
$unwind$??4?$CComQIPtr@UID3D11VideoContext@@$1?_GUID_61f21c45_3c0e_4a74_9cea_67100d9ad5e4@@3U__s_GUID@@B@ATL@@QEAAPEAUID3D11VideoContext@@PEAUIUnknown@@@Z DD 022301H
	DD	0700b320fH
xdata	ENDS
;	COMDAT xdata
xdata	SEGMENT
$unwind$?dtor$0@?0???0?$CComQIPtr@UID3D11VideoContext@@$1?_GUID_61f21c45_3c0e_4a74_9cea_67100d9ad5e4@@3U__s_GUID@@B@ATL@@QEAA@XZ@4HA DD 031001H
	DD	0700c4210H
	DD	0500bH
xdata	ENDS
;	COMDAT xdata
xdata	SEGMENT
$ip2state$??0?$CComQIPtr@UID3D11VideoContext@@$1?_GUID_61f21c45_3c0e_4a74_9cea_67100d9ad5e4@@3U__s_GUID@@B@ATL@@QEAA@XZ DB 02H
	DB	00H
	DB	00H
xdata	ENDS
;	COMDAT xdata
xdata	SEGMENT
$stateUnwindMap$??0?$CComQIPtr@UID3D11VideoContext@@$1?_GUID_61f21c45_3c0e_4a74_9cea_67100d9ad5e4@@3U__s_GUID@@B@ATL@@QEAA@XZ DB 02H
	DB	0eH
	DD	imagerel ?dtor$0@?0???0?$CComQIPtr@UID3D11VideoContext@@$1?_GUID_61f21c45_3c0e_4a74_9cea_67100d9ad5e4@@3U__s_GUID@@B@ATL@@QEAA@XZ@4HA
xdata	ENDS
;	COMDAT xdata
xdata	SEGMENT
$cppxdata$??0?$CComQIPtr@UID3D11VideoContext@@$1?_GUID_61f21c45_3c0e_4a74_9cea_67100d9ad5e4@@3U__s_GUID@@B@ATL@@QEAA@XZ DB 08H
	DD	imagerel $stateUnwindMap$??0?$CComQIPtr@UID3D11VideoContext@@$1?_GUID_61f21c45_3c0e_4a74_9cea_67100d9ad5e4@@3U__s_GUID@@B@ATL@@QEAA@XZ
	DD	imagerel $ip2state$??0?$CComQIPtr@UID3D11VideoContext@@$1?_GUID_61f21c45_3c0e_4a74_9cea_67100d9ad5e4@@3U__s_GUID@@B@ATL@@QEAA@XZ
xdata	ENDS
;	COMDAT xdata
xdata	SEGMENT
$unwind$??0?$CComQIPtr@UID3D11VideoContext@@$1?_GUID_61f21c45_3c0e_4a74_9cea_67100d9ad5e4@@3U__s_GUID@@B@ATL@@QEAA@XZ DD 021e11H
	DD	07006320aH
	DD	imagerel __CxxFrameHandler4
	DD	imagerel $cppxdata$??0?$CComQIPtr@UID3D11VideoContext@@$1?_GUID_61f21c45_3c0e_4a74_9cea_67100d9ad5e4@@3U__s_GUID@@B@ATL@@QEAA@XZ
xdata	ENDS
;	COMDAT xdata
xdata	SEGMENT
$unwind$?dtor$0@?0???1?$CComPtr@UID3D11VideoContext@@@ATL@@QEAA@XZ@4HA DD 031001H
	DD	0700c4210H
	DD	0500bH
xdata	ENDS
;	COMDAT xdata
xdata	SEGMENT
$ip2state$??1?$CComPtr@UID3D11VideoContext@@@ATL@@QEAA@XZ DB 02H
	DB	00H
	DB	00H
xdata	ENDS
;	COMDAT xdata
xdata	SEGMENT
$stateUnwindMap$??1?$CComPtr@UID3D11VideoContext@@@ATL@@QEAA@XZ DB 02H
	DB	0eH
	DD	imagerel ?dtor$0@?0???1?$CComPtr@UID3D11VideoContext@@@ATL@@QEAA@XZ@4HA
xdata	ENDS
;	COMDAT xdata
xdata	SEGMENT
$cppxdata$??1?$CComPtr@UID3D11VideoContext@@@ATL@@QEAA@XZ DB 048H
	DD	imagerel $stateUnwindMap$??1?$CComPtr@UID3D11VideoContext@@@ATL@@QEAA@XZ
	DD	imagerel $ip2state$??1?$CComPtr@UID3D11VideoContext@@@ATL@@QEAA@XZ
xdata	ENDS
;	COMDAT xdata
xdata	SEGMENT
$unwind$??1?$CComPtr@UID3D11VideoContext@@@ATL@@QEAA@XZ DD 021e11H
	DD	07006320aH
	DD	imagerel __CxxFrameHandler4
	DD	imagerel $cppxdata$??1?$CComPtr@UID3D11VideoContext@@@ATL@@QEAA@XZ
xdata	ENDS
;	COMDAT xdata
xdata	SEGMENT
$unwind$?dtor$0@?0???0?$CComPtr@UID3D11VideoContext@@@ATL@@QEAA@XZ@4HA DD 031001H
	DD	0700c4210H
	DD	0500bH
xdata	ENDS
;	COMDAT xdata
xdata	SEGMENT
$ip2state$??0?$CComPtr@UID3D11VideoContext@@@ATL@@QEAA@XZ DB 02H
	DB	00H
	DB	00H
xdata	ENDS
;	COMDAT xdata
xdata	SEGMENT
$stateUnwindMap$??0?$CComPtr@UID3D11VideoContext@@@ATL@@QEAA@XZ DB 02H
	DB	0eH
	DD	imagerel ?dtor$0@?0???0?$CComPtr@UID3D11VideoContext@@@ATL@@QEAA@XZ@4HA
xdata	ENDS
;	COMDAT xdata
xdata	SEGMENT
$cppxdata$??0?$CComPtr@UID3D11VideoContext@@@ATL@@QEAA@XZ DB 08H
	DD	imagerel $stateUnwindMap$??0?$CComPtr@UID3D11VideoContext@@@ATL@@QEAA@XZ
	DD	imagerel $ip2state$??0?$CComPtr@UID3D11VideoContext@@@ATL@@QEAA@XZ
xdata	ENDS
;	COMDAT xdata
xdata	SEGMENT
$unwind$??0?$CComPtr@UID3D11VideoContext@@@ATL@@QEAA@XZ DD 021e11H
	DD	07006320aH
	DD	imagerel __CxxFrameHandler4
	DD	imagerel $cppxdata$??0?$CComPtr@UID3D11VideoContext@@@ATL@@QEAA@XZ
xdata	ENDS
;	COMDAT xdata
xdata	SEGMENT
$unwind$??B?$CComPtrBase@UID3D11VideoContext@@@ATL@@QEBAPEAUID3D11VideoContext@@XZ DD 010601H
	DD	07006H
xdata	ENDS
;	COMDAT xdata
xdata	SEGMENT
$unwind$??1?$CComPtrBase@UID3D11VideoContext@@@ATL@@QEAA@XZ DD 021e01H
	DD	07006320aH
xdata	ENDS
;	COMDAT xdata
xdata	SEGMENT
$unwind$??0?$CComPtrBase@UID3D11VideoContext@@@ATL@@IEAA@XZ DD 010601H
	DD	07006H
xdata	ENDS
;	COMDAT xdata
xdata	SEGMENT
$unwind$?dtor$0@?0???1?$CComQIPtr@UID3D11VideoDevice@@$1?_GUID_10ec4d5b_975a_4689_b9e4_d0aac30fe333@@3U__s_GUID@@B@ATL@@QEAA@XZ@4HA DD 031001H
	DD	0700c4210H
	DD	0500bH
xdata	ENDS
;	COMDAT xdata
xdata	SEGMENT
$ip2state$??1?$CComQIPtr@UID3D11VideoDevice@@$1?_GUID_10ec4d5b_975a_4689_b9e4_d0aac30fe333@@3U__s_GUID@@B@ATL@@QEAA@XZ DB 02H
	DB	00H
	DB	00H
xdata	ENDS
;	COMDAT xdata
xdata	SEGMENT
$stateUnwindMap$??1?$CComQIPtr@UID3D11VideoDevice@@$1?_GUID_10ec4d5b_975a_4689_b9e4_d0aac30fe333@@3U__s_GUID@@B@ATL@@QEAA@XZ DB 02H
	DB	0eH
	DD	imagerel ?dtor$0@?0???1?$CComQIPtr@UID3D11VideoDevice@@$1?_GUID_10ec4d5b_975a_4689_b9e4_d0aac30fe333@@3U__s_GUID@@B@ATL@@QEAA@XZ@4HA
xdata	ENDS
;	COMDAT xdata
xdata	SEGMENT
$cppxdata$??1?$CComQIPtr@UID3D11VideoDevice@@$1?_GUID_10ec4d5b_975a_4689_b9e4_d0aac30fe333@@3U__s_GUID@@B@ATL@@QEAA@XZ DB 048H
	DD	imagerel $stateUnwindMap$??1?$CComQIPtr@UID3D11VideoDevice@@$1?_GUID_10ec4d5b_975a_4689_b9e4_d0aac30fe333@@3U__s_GUID@@B@ATL@@QEAA@XZ
	DD	imagerel $ip2state$??1?$CComQIPtr@UID3D11VideoDevice@@$1?_GUID_10ec4d5b_975a_4689_b9e4_d0aac30fe333@@3U__s_GUID@@B@ATL@@QEAA@XZ
xdata	ENDS
;	COMDAT xdata
xdata	SEGMENT
$unwind$??1?$CComQIPtr@UID3D11VideoDevice@@$1?_GUID_10ec4d5b_975a_4689_b9e4_d0aac30fe333@@3U__s_GUID@@B@ATL@@QEAA@XZ DD 021e11H
	DD	07006320aH
	DD	imagerel __CxxFrameHandler4
	DD	imagerel $cppxdata$??1?$CComQIPtr@UID3D11VideoDevice@@$1?_GUID_10ec4d5b_975a_4689_b9e4_d0aac30fe333@@3U__s_GUID@@B@ATL@@QEAA@XZ
xdata	ENDS
;	COMDAT xdata
xdata	SEGMENT
$unwind$??4?$CComQIPtr@UID3D11VideoDevice@@$1?_GUID_10ec4d5b_975a_4689_b9e4_d0aac30fe333@@3U__s_GUID@@B@ATL@@QEAAPEAUID3D11VideoDevice@@PEAUIUnknown@@@Z DD 022301H
	DD	0700b320fH
xdata	ENDS
;	COMDAT xdata
xdata	SEGMENT
$unwind$?dtor$0@?0???0?$CComQIPtr@UID3D11VideoDevice@@$1?_GUID_10ec4d5b_975a_4689_b9e4_d0aac30fe333@@3U__s_GUID@@B@ATL@@QEAA@XZ@4HA DD 031001H
	DD	0700c4210H
	DD	0500bH
xdata	ENDS
;	COMDAT xdata
xdata	SEGMENT
$ip2state$??0?$CComQIPtr@UID3D11VideoDevice@@$1?_GUID_10ec4d5b_975a_4689_b9e4_d0aac30fe333@@3U__s_GUID@@B@ATL@@QEAA@XZ DB 02H
	DB	00H
	DB	00H
xdata	ENDS
;	COMDAT xdata
xdata	SEGMENT
$stateUnwindMap$??0?$CComQIPtr@UID3D11VideoDevice@@$1?_GUID_10ec4d5b_975a_4689_b9e4_d0aac30fe333@@3U__s_GUID@@B@ATL@@QEAA@XZ DB 02H
	DB	0eH
	DD	imagerel ?dtor$0@?0???0?$CComQIPtr@UID3D11VideoDevice@@$1?_GUID_10ec4d5b_975a_4689_b9e4_d0aac30fe333@@3U__s_GUID@@B@ATL@@QEAA@XZ@4HA
xdata	ENDS
;	COMDAT xdata
xdata	SEGMENT
$cppxdata$??0?$CComQIPtr@UID3D11VideoDevice@@$1?_GUID_10ec4d5b_975a_4689_b9e4_d0aac30fe333@@3U__s_GUID@@B@ATL@@QEAA@XZ DB 08H
	DD	imagerel $stateUnwindMap$??0?$CComQIPtr@UID3D11VideoDevice@@$1?_GUID_10ec4d5b_975a_4689_b9e4_d0aac30fe333@@3U__s_GUID@@B@ATL@@QEAA@XZ
	DD	imagerel $ip2state$??0?$CComQIPtr@UID3D11VideoDevice@@$1?_GUID_10ec4d5b_975a_4689_b9e4_d0aac30fe333@@3U__s_GUID@@B@ATL@@QEAA@XZ
xdata	ENDS
;	COMDAT xdata
xdata	SEGMENT
$unwind$??0?$CComQIPtr@UID3D11VideoDevice@@$1?_GUID_10ec4d5b_975a_4689_b9e4_d0aac30fe333@@3U__s_GUID@@B@ATL@@QEAA@XZ DD 021e11H
	DD	07006320aH
	DD	imagerel __CxxFrameHandler4
	DD	imagerel $cppxdata$??0?$CComQIPtr@UID3D11VideoDevice@@$1?_GUID_10ec4d5b_975a_4689_b9e4_d0aac30fe333@@3U__s_GUID@@B@ATL@@QEAA@XZ
xdata	ENDS
;	COMDAT xdata
xdata	SEGMENT
$unwind$?dtor$0@?0???1?$CComPtr@UID3D11VideoDevice@@@ATL@@QEAA@XZ@4HA DD 031001H
	DD	0700c4210H
	DD	0500bH
xdata	ENDS
;	COMDAT xdata
xdata	SEGMENT
$ip2state$??1?$CComPtr@UID3D11VideoDevice@@@ATL@@QEAA@XZ DB 02H
	DB	00H
	DB	00H
xdata	ENDS
;	COMDAT xdata
xdata	SEGMENT
$stateUnwindMap$??1?$CComPtr@UID3D11VideoDevice@@@ATL@@QEAA@XZ DB 02H
	DB	0eH
	DD	imagerel ?dtor$0@?0???1?$CComPtr@UID3D11VideoDevice@@@ATL@@QEAA@XZ@4HA
xdata	ENDS
;	COMDAT xdata
xdata	SEGMENT
$cppxdata$??1?$CComPtr@UID3D11VideoDevice@@@ATL@@QEAA@XZ DB 048H
	DD	imagerel $stateUnwindMap$??1?$CComPtr@UID3D11VideoDevice@@@ATL@@QEAA@XZ
	DD	imagerel $ip2state$??1?$CComPtr@UID3D11VideoDevice@@@ATL@@QEAA@XZ
xdata	ENDS
;	COMDAT xdata
xdata	SEGMENT
$unwind$??1?$CComPtr@UID3D11VideoDevice@@@ATL@@QEAA@XZ DD 021e11H
	DD	07006320aH
	DD	imagerel __CxxFrameHandler4
	DD	imagerel $cppxdata$??1?$CComPtr@UID3D11VideoDevice@@@ATL@@QEAA@XZ
xdata	ENDS
;	COMDAT xdata
xdata	SEGMENT
$unwind$?dtor$0@?0???0?$CComPtr@UID3D11VideoDevice@@@ATL@@QEAA@XZ@4HA DD 031001H
	DD	0700c4210H
	DD	0500bH
xdata	ENDS
;	COMDAT xdata
xdata	SEGMENT
$ip2state$??0?$CComPtr@UID3D11VideoDevice@@@ATL@@QEAA@XZ DB 02H
	DB	00H
	DB	00H
xdata	ENDS
;	COMDAT xdata
xdata	SEGMENT
$stateUnwindMap$??0?$CComPtr@UID3D11VideoDevice@@@ATL@@QEAA@XZ DB 02H
	DB	0eH
	DD	imagerel ?dtor$0@?0???0?$CComPtr@UID3D11VideoDevice@@@ATL@@QEAA@XZ@4HA
xdata	ENDS
;	COMDAT xdata
xdata	SEGMENT
$cppxdata$??0?$CComPtr@UID3D11VideoDevice@@@ATL@@QEAA@XZ DB 08H
	DD	imagerel $stateUnwindMap$??0?$CComPtr@UID3D11VideoDevice@@@ATL@@QEAA@XZ
	DD	imagerel $ip2state$??0?$CComPtr@UID3D11VideoDevice@@@ATL@@QEAA@XZ
xdata	ENDS
;	COMDAT xdata
xdata	SEGMENT
$unwind$??0?$CComPtr@UID3D11VideoDevice@@@ATL@@QEAA@XZ DD 021e11H
	DD	07006320aH
	DD	imagerel __CxxFrameHandler4
	DD	imagerel $cppxdata$??0?$CComPtr@UID3D11VideoDevice@@@ATL@@QEAA@XZ
xdata	ENDS
;	COMDAT xdata
xdata	SEGMENT
$unwind$??C?$CComPtrBase@UID3D11VideoDevice@@@ATL@@QEBAPEAV?$_NoAddRefReleaseOnCComPtr@UID3D11VideoDevice@@@1@XZ DD 021e01H
	DD	07006520aH
xdata	ENDS
;	COMDAT xdata
xdata	SEGMENT
$unwind$??B?$CComPtrBase@UID3D11VideoDevice@@@ATL@@QEBAPEAUID3D11VideoDevice@@XZ DD 010601H
	DD	07006H
xdata	ENDS
;	COMDAT xdata
xdata	SEGMENT
$unwind$??1?$CComPtrBase@UID3D11VideoDevice@@@ATL@@QEAA@XZ DD 021e01H
	DD	07006320aH
xdata	ENDS
;	COMDAT xdata
xdata	SEGMENT
$unwind$??0?$CComPtrBase@UID3D11VideoDevice@@@ATL@@IEAA@XZ DD 010601H
	DD	07006H
xdata	ENDS
;	COMDAT xdata
xdata	SEGMENT
$unwind$?dtor$0@?0???1?$CComPtr@UID3D11DeviceContext@@@ATL@@QEAA@XZ@4HA DD 031001H
	DD	0700c4210H
	DD	0500bH
xdata	ENDS
;	COMDAT xdata
xdata	SEGMENT
$ip2state$??1?$CComPtr@UID3D11DeviceContext@@@ATL@@QEAA@XZ DB 02H
	DB	00H
	DB	00H
xdata	ENDS
;	COMDAT xdata
xdata	SEGMENT
$stateUnwindMap$??1?$CComPtr@UID3D11DeviceContext@@@ATL@@QEAA@XZ DB 02H
	DB	0eH
	DD	imagerel ?dtor$0@?0???1?$CComPtr@UID3D11DeviceContext@@@ATL@@QEAA@XZ@4HA
xdata	ENDS
;	COMDAT xdata
xdata	SEGMENT
$cppxdata$??1?$CComPtr@UID3D11DeviceContext@@@ATL@@QEAA@XZ DB 048H
	DD	imagerel $stateUnwindMap$??1?$CComPtr@UID3D11DeviceContext@@@ATL@@QEAA@XZ
	DD	imagerel $ip2state$??1?$CComPtr@UID3D11DeviceContext@@@ATL@@QEAA@XZ
xdata	ENDS
;	COMDAT xdata
xdata	SEGMENT
$unwind$??1?$CComPtr@UID3D11DeviceContext@@@ATL@@QEAA@XZ DD 021e11H
	DD	07006320aH
	DD	imagerel __CxxFrameHandler4
	DD	imagerel $cppxdata$??1?$CComPtr@UID3D11DeviceContext@@@ATL@@QEAA@XZ
xdata	ENDS
;	COMDAT xdata
xdata	SEGMENT
$unwind$?dtor$0@?0???0?$CComPtr@UID3D11DeviceContext@@@ATL@@QEAA@XZ@4HA DD 031001H
	DD	0700c4210H
	DD	0500bH
xdata	ENDS
;	COMDAT xdata
xdata	SEGMENT
$ip2state$??0?$CComPtr@UID3D11DeviceContext@@@ATL@@QEAA@XZ DB 02H
	DB	00H
	DB	00H
xdata	ENDS
;	COMDAT xdata
xdata	SEGMENT
$stateUnwindMap$??0?$CComPtr@UID3D11DeviceContext@@@ATL@@QEAA@XZ DB 02H
	DB	0eH
	DD	imagerel ?dtor$0@?0???0?$CComPtr@UID3D11DeviceContext@@@ATL@@QEAA@XZ@4HA
xdata	ENDS
;	COMDAT xdata
xdata	SEGMENT
$cppxdata$??0?$CComPtr@UID3D11DeviceContext@@@ATL@@QEAA@XZ DB 08H
	DD	imagerel $stateUnwindMap$??0?$CComPtr@UID3D11DeviceContext@@@ATL@@QEAA@XZ
	DD	imagerel $ip2state$??0?$CComPtr@UID3D11DeviceContext@@@ATL@@QEAA@XZ
xdata	ENDS
;	COMDAT xdata
xdata	SEGMENT
$unwind$??0?$CComPtr@UID3D11DeviceContext@@@ATL@@QEAA@XZ DD 021e11H
	DD	07006320aH
	DD	imagerel __CxxFrameHandler4
	DD	imagerel $cppxdata$??0?$CComPtr@UID3D11DeviceContext@@@ATL@@QEAA@XZ
xdata	ENDS
;	COMDAT xdata
xdata	SEGMENT
$unwind$??I?$CComPtrBase@UID3D11DeviceContext@@@ATL@@QEAAPEAPEAUID3D11DeviceContext@@XZ DD 021e01H
	DD	07006520aH
xdata	ENDS
;	COMDAT xdata
xdata	SEGMENT
$unwind$??B?$CComPtrBase@UID3D11DeviceContext@@@ATL@@QEBAPEAUID3D11DeviceContext@@XZ DD 010601H
	DD	07006H
xdata	ENDS
;	COMDAT xdata
xdata	SEGMENT
$unwind$??1?$CComPtrBase@UID3D11DeviceContext@@@ATL@@QEAA@XZ DD 021e01H
	DD	07006320aH
xdata	ENDS
;	COMDAT xdata
xdata	SEGMENT
$unwind$??0?$CComPtrBase@UID3D11DeviceContext@@@ATL@@IEAA@XZ DD 010601H
	DD	07006H
xdata	ENDS
;	COMDAT xdata
xdata	SEGMENT
$unwind$?dtor$0@?0???1?$CComPtr@UID3D11Device@@@ATL@@QEAA@XZ@4HA DD 031001H
	DD	0700c4210H
	DD	0500bH
xdata	ENDS
;	COMDAT xdata
xdata	SEGMENT
$ip2state$??1?$CComPtr@UID3D11Device@@@ATL@@QEAA@XZ DB 02H
	DB	00H
	DB	00H
xdata	ENDS
;	COMDAT xdata
xdata	SEGMENT
$stateUnwindMap$??1?$CComPtr@UID3D11Device@@@ATL@@QEAA@XZ DB 02H
	DB	0eH
	DD	imagerel ?dtor$0@?0???1?$CComPtr@UID3D11Device@@@ATL@@QEAA@XZ@4HA
xdata	ENDS
;	COMDAT xdata
xdata	SEGMENT
$cppxdata$??1?$CComPtr@UID3D11Device@@@ATL@@QEAA@XZ DB 048H
	DD	imagerel $stateUnwindMap$??1?$CComPtr@UID3D11Device@@@ATL@@QEAA@XZ
	DD	imagerel $ip2state$??1?$CComPtr@UID3D11Device@@@ATL@@QEAA@XZ
xdata	ENDS
;	COMDAT xdata
xdata	SEGMENT
$unwind$??1?$CComPtr@UID3D11Device@@@ATL@@QEAA@XZ DD 021e11H
	DD	07006320aH
	DD	imagerel __CxxFrameHandler4
	DD	imagerel $cppxdata$??1?$CComPtr@UID3D11Device@@@ATL@@QEAA@XZ
xdata	ENDS
;	COMDAT xdata
xdata	SEGMENT
$unwind$?dtor$0@?0???0?$CComPtr@UID3D11Device@@@ATL@@QEAA@XZ@4HA DD 031001H
	DD	0700c4210H
	DD	0500bH
xdata	ENDS
;	COMDAT xdata
xdata	SEGMENT
$ip2state$??0?$CComPtr@UID3D11Device@@@ATL@@QEAA@XZ DB 02H
	DB	00H
	DB	00H
xdata	ENDS
;	COMDAT xdata
xdata	SEGMENT
$stateUnwindMap$??0?$CComPtr@UID3D11Device@@@ATL@@QEAA@XZ DB 02H
	DB	0eH
	DD	imagerel ?dtor$0@?0???0?$CComPtr@UID3D11Device@@@ATL@@QEAA@XZ@4HA
xdata	ENDS
;	COMDAT xdata
xdata	SEGMENT
$cppxdata$??0?$CComPtr@UID3D11Device@@@ATL@@QEAA@XZ DB 08H
	DD	imagerel $stateUnwindMap$??0?$CComPtr@UID3D11Device@@@ATL@@QEAA@XZ
	DD	imagerel $ip2state$??0?$CComPtr@UID3D11Device@@@ATL@@QEAA@XZ
xdata	ENDS
;	COMDAT xdata
xdata	SEGMENT
$unwind$??0?$CComPtr@UID3D11Device@@@ATL@@QEAA@XZ DD 021e11H
	DD	07006320aH
	DD	imagerel __CxxFrameHandler4
	DD	imagerel $cppxdata$??0?$CComPtr@UID3D11Device@@@ATL@@QEAA@XZ
xdata	ENDS
;	COMDAT xdata
xdata	SEGMENT
$unwind$??I?$CComPtrBase@UID3D11Device@@@ATL@@QEAAPEAPEAUID3D11Device@@XZ DD 021e01H
	DD	07006520aH
xdata	ENDS
;	COMDAT xdata
xdata	SEGMENT
$unwind$??B?$CComPtrBase@UID3D11Device@@@ATL@@QEBAPEAUID3D11Device@@XZ DD 010601H
	DD	07006H
xdata	ENDS
;	COMDAT xdata
xdata	SEGMENT
$unwind$??1?$CComPtrBase@UID3D11Device@@@ATL@@QEAA@XZ DD 021e01H
	DD	07006320aH
xdata	ENDS
;	COMDAT xdata
xdata	SEGMENT
$unwind$??0?$CComPtrBase@UID3D11Device@@@ATL@@IEAA@XZ DD 010601H
	DD	07006H
xdata	ENDS
CONST	SEGMENT
	ORG $+3
?Init@CQSVD3D11Device@@UEAA?AW4mfxStatus@@PEAXIV?$shared_ptr@VRGYLog@@@std@@@Z$rtcName$0 DB 070H ; CQSVD3D11Device::Init
	DB	046H
	DB	065H
	DB	061H
	DB	074H
	DB	075H
	DB	072H
	DB	065H
	DB	04cH
	DB	065H
	DB	076H
	DB	065H
	DB	06cH
	DB	073H
	DB	04fH
	DB	075H
	DB	074H
	DB	00H
	ORG $+2
?Init@CQSVD3D11Device@@UEAA?AW4mfxStatus@@PEAXIV?$shared_ptr@VRGYLog@@@std@@@Z$rtcName$1 DB 070H ; CQSVD3D11Device::Init
	DB	05fH
	DB	06dH
	DB	074H
	DB	00H
	ORG $+7
?Init@CQSVD3D11Device@@UEAA?AW4mfxStatus@@PEAXIV?$shared_ptr@VRGYLog@@@std@@@Z$rtcName$2 DB 073H ; CQSVD3D11Device::Init
	DB	077H
	DB	061H
	DB	070H
	DB	043H
	DB	068H
	DB	061H
	DB	069H
	DB	06eH
	DB	044H
	DB	065H
	DB	073H
	DB	063H
	DB	00H
	ORG $+2
?Init@CQSVD3D11Device@@UEAA?AW4mfxStatus@@PEAXIV?$shared_ptr@VRGYLog@@@std@@@Z$rtcFrameData DD 03H ; CQSVD3D11Device::Init
	DD	00H
	DQ	FLAT:?Init@CQSVD3D11Device@@UEAA?AW4mfxStatus@@PEAXIV?$shared_ptr@VRGYLog@@@std@@@Z$rtcVarDesc
	ORG $+8
?Init@CQSVD3D11Device@@UEAA?AW4mfxStatus@@PEAXIV?$shared_ptr@VRGYLog@@@std@@@Z$rtcVarDesc DD 0a8H ; CQSVD3D11Device::Init
	DD	030H
	DQ	FLAT:?Init@CQSVD3D11Device@@UEAA?AW4mfxStatus@@PEAXIV?$shared_ptr@VRGYLog@@@std@@@Z$rtcName$2
	DD	088H
	DD	08H
	DQ	FLAT:?Init@CQSVD3D11Device@@UEAA?AW4mfxStatus@@PEAXIV?$shared_ptr@VRGYLog@@@std@@@Z$rtcName$1
	DD	064H
	DD	04H
	DQ	FLAT:?Init@CQSVD3D11Device@@UEAA?AW4mfxStatus@@PEAXIV?$shared_ptr@VRGYLog@@@std@@@Z$rtcName$0
	ORG $+144
?Reset@CQSVD3D11Device@@UEAA?AW4mfxStatus@@XZ$rtcName$0 DB 073H ; CQSVD3D11Device::Reset
	DB	077H
	DB	061H
	DB	070H
	DB	043H
	DB	068H
	DB	061H
	DB	069H
	DB	06eH
	DB	044H
	DB	065H
	DB	073H
	DB	063H
	DB	00H
	ORG $+2
?Reset@CQSVD3D11Device@@UEAA?AW4mfxStatus@@XZ$rtcVarDesc DD 058H ; CQSVD3D11Device::Reset
	DD	030H
	DQ	FLAT:?Reset@CQSVD3D11Device@@UEAA?AW4mfxStatus@@XZ$rtcName$0
	ORG $+48
?Reset@CQSVD3D11Device@@UEAA?AW4mfxStatus@@XZ$rtcFrameData DD 01H ; CQSVD3D11Device::Reset
	DD	00H
	DQ	FLAT:?Reset@CQSVD3D11Device@@UEAA?AW4mfxStatus@@XZ$rtcVarDesc
?CreateVideoProcessor@CQSVD3D11Device@@IEAA?AW4mfxStatus@@PEAUmfxFrameSurface1@@@Z$rtcName$0 DB 043H ; CQSVD3D11Device::CreateVideoProcessor
	DB	06fH
	DB	06eH
	DB	074H
	DB	065H
	DB	06eH
	DB	074H
	DB	044H
	DB	065H
	DB	073H
	DB	063H
	DB	00H
	ORG $+4
?CreateVideoProcessor@CQSVD3D11Device@@IEAA?AW4mfxStatus@@PEAUmfxFrameSurface1@@@Z$rtcVarDesc DD 028H ; CQSVD3D11Device::CreateVideoProcessor
	DD	028H
	DQ	FLAT:?CreateVideoProcessor@CQSVD3D11Device@@IEAA?AW4mfxStatus@@PEAUmfxFrameSurface1@@@Z$rtcName$0
	ORG $+48
?CreateVideoProcessor@CQSVD3D11Device@@IEAA?AW4mfxStatus@@PEAUmfxFrameSurface1@@@Z$rtcFrameData DD 01H ; CQSVD3D11Device::CreateVideoProcessor
	DD	00H
	DQ	FLAT:?CreateVideoProcessor@CQSVD3D11Device@@IEAA?AW4mfxStatus@@PEAUmfxFrameSurface1@@@Z$rtcVarDesc
CONST	ENDS
xdata	SEGMENT
$unwind$??0CQSVD3D11Device@@QEAA@XZ DD 021e11H
	DD	07006320aH
	DD	imagerel __CxxFrameHandler4
	DD	imagerel $cppxdata$??0CQSVD3D11Device@@QEAA@XZ
$cppxdata$??0CQSVD3D11Device@@QEAA@XZ DB 08H
	DD	imagerel $stateUnwindMap$??0CQSVD3D11Device@@QEAA@XZ
	DD	imagerel $ip2state$??0CQSVD3D11Device@@QEAA@XZ
$stateUnwindMap$??0CQSVD3D11Device@@QEAA@XZ DB 024H
	DB	0eH
	DD	imagerel ?dtor$0@?0???0CQSVD3D11Device@@QEAA@XZ@4HA
	DB	02eH
	DD	imagerel ?dtor$1@?0???0CQSVD3D11Device@@QEAA@XZ@4HA
	DB	02eH
	DD	imagerel ?dtor$2@?0???0CQSVD3D11Device@@QEAA@XZ@4HA
	DB	02eH
	DD	imagerel ?dtor$3@?0???0CQSVD3D11Device@@QEAA@XZ@4HA
	DB	02eH
	DD	imagerel ?dtor$4@?0???0CQSVD3D11Device@@QEAA@XZ@4HA
	DB	02eH
	DD	imagerel ?dtor$5@?0???0CQSVD3D11Device@@QEAA@XZ@4HA
	DB	02eH
	DD	imagerel ?dtor$6@?0???0CQSVD3D11Device@@QEAA@XZ@4HA
	DB	02eH
	DD	imagerel ?dtor$7@?0???0CQSVD3D11Device@@QEAA@XZ@4HA
	DB	02eH
	DD	imagerel ?dtor$8@?0???0CQSVD3D11Device@@QEAA@XZ@4HA
	DB	02eH
	DD	imagerel ?dtor$9@?0???0CQSVD3D11Device@@QEAA@XZ@4HA
	DB	02eH
	DD	imagerel ?dtor$10@?0???0CQSVD3D11Device@@QEAA@XZ@4HA
	DB	02eH
	DD	imagerel ?dtor$11@?0???0CQSVD3D11Device@@QEAA@XZ@4HA
	DB	02eH
	DD	imagerel ?dtor$12@?0???0CQSVD3D11Device@@QEAA@XZ@4HA
	DB	02eH
	DD	imagerel ?dtor$13@?0???0CQSVD3D11Device@@QEAA@XZ@4HA
	DB	02eH
	DD	imagerel ?dtor$14@?0???0CQSVD3D11Device@@QEAA@XZ@4HA
	DB	02eH
	DD	imagerel ?dtor$15@?0???0CQSVD3D11Device@@QEAA@XZ@4HA
	DB	02eH
	DD	imagerel ?dtor$16@?0???0CQSVD3D11Device@@QEAA@XZ@4HA
	DB	02eH
	DD	imagerel ?dtor$17@?0???0CQSVD3D11Device@@QEAA@XZ@4HA
$ip2state$??0CQSVD3D11Device@@QEAA@XZ DB '('
	DB	00H
	DB	00H
	DB	'R'
	DB	02H
	DB	'B'
	DB	04H
	DB	'$'
	DB	06H
	DB	'$'
	DB	08H
	DB	'$'
	DB	0aH
	DB	'$'
	DB	0cH
	DB	'$'
	DB	0eH
	DB	'$'
	DB	010H
	DB	'$'
	DB	012H
	DB	'$'
	DB	014H
	DB	'$'
	DB	016H
	DB	'$'
	DB	018H
	DB	'$'
	DB	01aH
	DB	'$'
	DB	01cH
	DB	'('
	DB	01eH
	DB	'('
	DB	' '
	DB	'('
	DB	'"'
	DB	'('
	DB	'$'
	DB	'x'
	DB	00H
$cppxdata$??1CQSVD3D11Device@@UEAA@XZ DB 048H
	DD	imagerel $stateUnwindMap$??1CQSVD3D11Device@@UEAA@XZ
	DD	imagerel $ip2state$??1CQSVD3D11Device@@UEAA@XZ
$ip2state$??1CQSVD3D11Device@@UEAA@XZ DB '('
	DB	00H
	DB	00H
	DB	'Z'
	DB	'$'
	DB	016H
	DB	'"'
	DB	'('
	DB	' '
	DB	'('
	DB	01eH
	DB	'('
	DB	01cH
	DB	'('
	DB	01aH
	DB	'$'
	DB	018H
	DB	'$'
	DB	016H
	DB	'$'
	DB	014H
	DB	'$'
	DB	012H
	DB	'$'
	DB	010H
	DB	'$'
	DB	0eH
	DB	'$'
	DB	0cH
	DB	'$'
	DB	0aH
	DB	'$'
	DB	08H
	DB	'$'
	DB	06H
	DB	'$'
	DB	04H
	DB	'$'
	DB	02H
	DB	'$'
	DB	00H
$cppxdata$?Init@CQSVD3D11Device@@UEAA?AW4mfxStatus@@PEAXIV?$shared_ptr@VRGYLog@@@std@@@Z DB 08H
	DD	imagerel $stateUnwindMap$?Init@CQSVD3D11Device@@UEAA?AW4mfxStatus@@PEAXIV?$shared_ptr@VRGYLog@@@std@@@Z
	DD	imagerel $ip2state$?Init@CQSVD3D11Device@@UEAA?AW4mfxStatus@@PEAXIV?$shared_ptr@VRGYLog@@@std@@@Z
$unwind$?dtor$0@?0???0CQSVD3D11Device@@QEAA@XZ@4HA DD 031001H
	DD	0700c4210H
	DD	0500bH
$unwind$?dtor$1@?0???0CQSVD3D11Device@@QEAA@XZ@4HA DD 031001H
	DD	0700c4210H
	DD	0500bH
$unwind$?dtor$2@?0???0CQSVD3D11Device@@QEAA@XZ@4HA DD 031001H
	DD	0700c4210H
	DD	0500bH
$unwind$?dtor$3@?0???0CQSVD3D11Device@@QEAA@XZ@4HA DD 031001H
	DD	0700c4210H
	DD	0500bH
$unwind$?dtor$4@?0???0CQSVD3D11Device@@QEAA@XZ@4HA DD 031001H
	DD	0700c4210H
	DD	0500bH
$unwind$?dtor$5@?0???0CQSVD3D11Device@@QEAA@XZ@4HA DD 031001H
	DD	0700c4210H
	DD	0500bH
$unwind$?dtor$6@?0???0CQSVD3D11Device@@QEAA@XZ@4HA DD 031001H
	DD	0700c4210H
	DD	0500bH
$unwind$?dtor$7@?0???0CQSVD3D11Device@@QEAA@XZ@4HA DD 031001H
	DD	0700c4210H
	DD	0500bH
$unwind$?dtor$8@?0???0CQSVD3D11Device@@QEAA@XZ@4HA DD 031001H
	DD	0700c4210H
	DD	0500bH
$unwind$?dtor$9@?0???0CQSVD3D11Device@@QEAA@XZ@4HA DD 031001H
	DD	0700c4210H
	DD	0500bH
$unwind$?dtor$10@?0???0CQSVD3D11Device@@QEAA@XZ@4HA DD 031001H
	DD	0700c4210H
	DD	0500bH
$unwind$?dtor$11@?0???0CQSVD3D11Device@@QEAA@XZ@4HA DD 031001H
	DD	0700c4210H
	DD	0500bH
$unwind$?dtor$12@?0???0CQSVD3D11Device@@QEAA@XZ@4HA DD 031001H
	DD	0700c4210H
	DD	0500bH
$unwind$?dtor$13@?0???0CQSVD3D11Device@@QEAA@XZ@4HA DD 031001H
	DD	0700c4210H
	DD	0500bH
$unwind$?dtor$14@?0???0CQSVD3D11Device@@QEAA@XZ@4HA DD 031001H
	DD	0700c4210H
	DD	0500bH
$unwind$?dtor$15@?0???0CQSVD3D11Device@@QEAA@XZ@4HA DD 031001H
	DD	0700c4210H
	DD	0500bH
$unwind$?dtor$16@?0???0CQSVD3D11Device@@QEAA@XZ@4HA DD 031001H
	DD	0700c4210H
	DD	0500bH
$unwind$?dtor$17@?0???0CQSVD3D11Device@@QEAA@XZ@4HA DD 031001H
	DD	0700c4210H
	DD	0500bH
$unwind$??1CQSVD3D11Device@@UEAA@XZ DD 021e19H
	DD	07006320aH
	DD	imagerel __CxxFrameHandler4
	DD	imagerel $cppxdata$??1CQSVD3D11Device@@UEAA@XZ
$stateUnwindMap$??1CQSVD3D11Device@@UEAA@XZ DB 024H
	DB	0eH
	DD	imagerel ?dtor$0@?0???1CQSVD3D11Device@@UEAA@XZ@4HA
	DB	02eH
	DD	imagerel ?dtor$1@?0???1CQSVD3D11Device@@UEAA@XZ@4HA
	DB	02eH
	DD	imagerel ?dtor$2@?0???1CQSVD3D11Device@@UEAA@XZ@4HA
	DB	02eH
	DD	imagerel ?dtor$3@?0???1CQSVD3D11Device@@UEAA@XZ@4HA
	DB	02eH
	DD	imagerel ?dtor$4@?0???1CQSVD3D11Device@@UEAA@XZ@4HA
	DB	02eH
	DD	imagerel ?dtor$5@?0???1CQSVD3D11Device@@UEAA@XZ@4HA
	DB	02eH
	DD	imagerel ?dtor$6@?0???1CQSVD3D11Device@@UEAA@XZ@4HA
	DB	02eH
	DD	imagerel ?dtor$7@?0???1CQSVD3D11Device@@UEAA@XZ@4HA
	DB	02eH
	DD	imagerel ?dtor$8@?0???1CQSVD3D11Device@@UEAA@XZ@4HA
	DB	02eH
	DD	imagerel ?dtor$9@?0???1CQSVD3D11Device@@UEAA@XZ@4HA
	DB	02eH
	DD	imagerel ?dtor$10@?0???1CQSVD3D11Device@@UEAA@XZ@4HA
	DB	02eH
	DD	imagerel ?dtor$11@?0???1CQSVD3D11Device@@UEAA@XZ@4HA
	DB	02eH
	DD	imagerel ?dtor$12@?0???1CQSVD3D11Device@@UEAA@XZ@4HA
	DB	02eH
	DD	imagerel ?dtor$13@?0???1CQSVD3D11Device@@UEAA@XZ@4HA
	DB	02eH
	DD	imagerel ?dtor$14@?0???1CQSVD3D11Device@@UEAA@XZ@4HA
	DB	02eH
	DD	imagerel ?dtor$15@?0???1CQSVD3D11Device@@UEAA@XZ@4HA
	DB	02eH
	DD	imagerel ?dtor$16@?0???1CQSVD3D11Device@@UEAA@XZ@4HA
	DB	02eH
	DD	imagerel ?dtor$17@?0???1CQSVD3D11Device@@UEAA@XZ@4HA
	ORG $+1
$unwind$?dtor$0@?0???1CQSVD3D11Device@@UEAA@XZ@4HA DD 031001H
	DD	0700c4210H
	DD	0500bH
$unwind$?dtor$1@?0???1CQSVD3D11Device@@UEAA@XZ@4HA DD 031001H
	DD	0700c4210H
	DD	0500bH
$unwind$?dtor$2@?0???1CQSVD3D11Device@@UEAA@XZ@4HA DD 031001H
	DD	0700c4210H
	DD	0500bH
$unwind$?dtor$3@?0???1CQSVD3D11Device@@UEAA@XZ@4HA DD 031001H
	DD	0700c4210H
	DD	0500bH
$unwind$?dtor$4@?0???1CQSVD3D11Device@@UEAA@XZ@4HA DD 031001H
	DD	0700c4210H
	DD	0500bH
$unwind$?dtor$5@?0???1CQSVD3D11Device@@UEAA@XZ@4HA DD 031001H
	DD	0700c4210H
	DD	0500bH
$unwind$?dtor$6@?0???1CQSVD3D11Device@@UEAA@XZ@4HA DD 031001H
	DD	0700c4210H
	DD	0500bH
$unwind$?dtor$7@?0???1CQSVD3D11Device@@UEAA@XZ@4HA DD 031001H
	DD	0700c4210H
	DD	0500bH
$unwind$?dtor$8@?0???1CQSVD3D11Device@@UEAA@XZ@4HA DD 031001H
	DD	0700c4210H
	DD	0500bH
$unwind$?dtor$9@?0???1CQSVD3D11Device@@UEAA@XZ@4HA DD 031001H
	DD	0700c4210H
	DD	0500bH
$unwind$?dtor$10@?0???1CQSVD3D11Device@@UEAA@XZ@4HA DD 031001H
	DD	0700c4210H
	DD	0500bH
$unwind$?dtor$11@?0???1CQSVD3D11Device@@UEAA@XZ@4HA DD 031001H
	DD	0700c4210H
	DD	0500bH
$unwind$?dtor$12@?0???1CQSVD3D11Device@@UEAA@XZ@4HA DD 031001H
	DD	0700c4210H
	DD	0500bH
$unwind$?dtor$13@?0???1CQSVD3D11Device@@UEAA@XZ@4HA DD 031001H
	DD	0700c4210H
	DD	0500bH
$unwind$?dtor$14@?0???1CQSVD3D11Device@@UEAA@XZ@4HA DD 031001H
	DD	0700c4210H
	DD	0500bH
$unwind$?dtor$15@?0???1CQSVD3D11Device@@UEAA@XZ@4HA DD 031001H
	DD	0700c4210H
	DD	0500bH
$unwind$?dtor$16@?0???1CQSVD3D11Device@@UEAA@XZ@4HA DD 031001H
	DD	0700c4210H
	DD	0500bH
$unwind$?dtor$17@?0???1CQSVD3D11Device@@UEAA@XZ@4HA DD 031001H
	DD	0700c4210H
	DD	0500bH
$unwind$?Init@CQSVD3D11Device@@UEAA?AW4mfxStatus@@PEAXIV?$shared_ptr@VRGYLog@@@std@@@Z DD 034519H
	DD	036011cH
	DD	07015H
	DD	imagerel __GSHandlerCheck_EH4
	DD	imagerel $cppxdata$?Init@CQSVD3D11Device@@UEAA?AW4mfxStatus@@PEAXIV?$shared_ptr@VRGYLog@@@std@@@Z
	DD	01a2H
$stateUnwindMap$?Init@CQSVD3D11Device@@UEAA?AW4mfxStatus@@PEAXIV?$shared_ptr@VRGYLog@@@std@@@Z DB 04H
	DB	0eH
	DD	imagerel ?dtor$0@?0??Init@CQSVD3D11Device@@UEAA?AW4mfxStatus@@PEAXIV?$shared_ptr@VRGYLog@@@std@@@Z@4HA
	DB	02eH
	DD	imagerel ?dtor$1@?0??Init@CQSVD3D11Device@@UEAA?AW4mfxStatus@@PEAXIV?$shared_ptr@VRGYLog@@@std@@@Z@4HA
$ip2state$?Init@CQSVD3D11Device@@UEAA?AW4mfxStatus@@PEAXIV?$shared_ptr@VRGYLog@@@std@@@Z DB ','
	DB	00H
	DB	00H
	DB	08aH
	DB	02H
	DB	0b9H, 03H
	DB	00H
	DB	'<'
	DB	02H
	DB	0e5H, 02H
	DB	00H
	DB	'2'
	DB	02H
	DB	0b5H, 04H
	DB	00H
	DB	'2'
	DB	02H
	DB	0b9H, 03H
	DB	00H
	DB	'2'
	DB	02H
	DB	'J'
	DB	04H
	DB	'>'
	DB	02H
	DB	01cH
	DB	00H
	DB	'2'
	DB	04H
	DB	']', 02H
	DB	02H
	DB	01cH
	DB	00H
	DB	'2'
	DB	04H
	DB	08dH, 04H
	DB	02H
	DB	01cH
	DB	00H
	DB	'2'
	DB	04H
	DB	01dH, 02H
	DB	02H
	DB	01cH
	DB	00H
	ORG $+1
$unwind$?dtor$0@?0??Init@CQSVD3D11Device@@UEAA?AW4mfxStatus@@PEAXIV?$shared_ptr@VRGYLog@@@std@@@Z@4HA DD 031001H
	DD	0700c4210H
	DD	0500bH
$unwind$?dtor$1@?0??Init@CQSVD3D11Device@@UEAA?AW4mfxStatus@@PEAXIV?$shared_ptr@VRGYLog@@@std@@@Z@4HA DD 031001H
	DD	0700c4210H
	DD	0500bH
$unwind$?Reset@CQSVD3D11Device@@UEAA?AW4mfxStatus@@XZ DD 033619H
	DD	01a010dH
	DD	07006H
	DD	imagerel __GSHandlerCheck
	DD	0c8H
$unwind$?GetHandle@CQSVD3D11Device@@UEAA?AW4mfxStatus@@W4mfxHandleType@@PEAPEAX@Z DD 010f01H
	DD	0700fH
$unwind$?Close@CQSVD3D11Device@@UEAAXXZ DD 021e01H
	DD	07006520aH
$unwind$?SetSCD1@CQSVD3D11Device@@IEAAXAEAUDXGI_SWAP_CHAIN_DESC1@@@Z DD 022301H
	DD	0700b120fH
$unwind$?CreateVideoProcessor@CQSVD3D11Device@@IEAA?AW4mfxStatus@@PEAUmfxFrameSurface1@@@Z DD 033b19H
	DD	0160112H
	DD	0700bH
	DD	imagerel __GSHandlerCheck
	DD	0a8H
xdata	ENDS
;	COMDAT xdata
xdata	SEGMENT
$unwind$??__F_AtlWinModule@ATL@@YAXXZ DD 021501H
	DD	070023206H
xdata	ENDS
;	COMDAT xdata
xdata	SEGMENT
$unwind$??__E_AtlWinModule@ATL@@YAXXZ DD 021501H
	DD	070023206H
xdata	ENDS
;	COMDAT xdata
xdata	SEGMENT
$unwind$?Term@CAtlWinModule@ATL@@QEAAXXZ DD 021e01H
	DD	07006320aH
xdata	ENDS
;	COMDAT xdata
xdata	SEGMENT
$unwind$?dtor$0@?0???1CAtlWinModule@ATL@@QEAA@XZ@4HA DD 031001H
	DD	0700c4210H
	DD	0500bH
xdata	ENDS
;	COMDAT xdata
xdata	SEGMENT
$ip2state$??1CAtlWinModule@ATL@@QEAA@XZ DB 06H
	DB	00H
	DB	00H
	DB	'<'
	DB	02H
	DB	016H
	DB	00H
xdata	ENDS
;	COMDAT xdata
xdata	SEGMENT
$stateUnwindMap$??1CAtlWinModule@ATL@@QEAA@XZ DB 02H
	DB	0eH
	DD	imagerel ?dtor$0@?0???1CAtlWinModule@ATL@@QEAA@XZ@4HA
xdata	ENDS
;	COMDAT xdata
xdata	SEGMENT
$cppxdata$??1CAtlWinModule@ATL@@QEAA@XZ DB 048H
	DD	imagerel $stateUnwindMap$??1CAtlWinModule@ATL@@QEAA@XZ
	DD	imagerel $ip2state$??1CAtlWinModule@ATL@@QEAA@XZ
xdata	ENDS
;	COMDAT xdata
xdata	SEGMENT
$unwind$??1CAtlWinModule@ATL@@QEAA@XZ DD 021e19H
	DD	07006320aH
	DD	imagerel __CxxFrameHandler4
	DD	imagerel $cppxdata$??1CAtlWinModule@ATL@@QEAA@XZ
xdata	ENDS
;	COMDAT xdata
xdata	SEGMENT
$unwind$?dtor$0@?0???0CAtlWinModule@ATL@@QEAA@XZ@4HA DD 031001H
	DD	0700c4210H
	DD	0500bH
xdata	ENDS
;	COMDAT xdata
xdata	SEGMENT
$ip2state$??0CAtlWinModule@ATL@@QEAA@XZ DB 06H
	DB	00H
	DB	00H
	DB	'R'
	DB	02H
	DB	0e6H
	DB	00H
xdata	ENDS
;	COMDAT xdata
xdata	SEGMENT
$stateUnwindMap$??0CAtlWinModule@ATL@@QEAA@XZ DB 02H
	DB	0eH
	DD	imagerel ?dtor$0@?0???0CAtlWinModule@ATL@@QEAA@XZ@4HA
xdata	ENDS
;	COMDAT xdata
xdata	SEGMENT
$cppxdata$??0CAtlWinModule@ATL@@QEAA@XZ DB 08H
	DD	imagerel $stateUnwindMap$??0CAtlWinModule@ATL@@QEAA@XZ
	DD	imagerel $ip2state$??0CAtlWinModule@ATL@@QEAA@XZ
xdata	ENDS
;	COMDAT xdata
xdata	SEGMENT
$unwind$??0CAtlWinModule@ATL@@QEAA@XZ DD 021e11H
	DD	07006720aH
	DD	imagerel __CxxFrameHandler4
	DD	imagerel $cppxdata$??0CAtlWinModule@ATL@@QEAA@XZ
xdata	ENDS
;	COMDAT xdata
xdata	SEGMENT
$unwind$??__F_AtlComModule@ATL@@YAXXZ DD 021501H
	DD	070023206H
xdata	ENDS
;	COMDAT xdata
xdata	SEGMENT
$unwind$??__E_AtlComModule@ATL@@YAXXZ DD 021501H
	DD	070023206H
xdata	ENDS
;	COMDAT xdata
xdata	SEGMENT
$unwind$?Term@CAtlComModule@ATL@@QEAAXXZ DD 021e01H
	DD	07006720aH
xdata	ENDS
;	COMDAT xdata
xdata	SEGMENT
$unwind$?dtor$0@?0???1CAtlComModule@ATL@@QEAA@XZ@4HA DD 031001H
	DD	0700c4210H
	DD	0500bH
xdata	ENDS
;	COMDAT xdata
xdata	SEGMENT
$ip2state$??1CAtlComModule@ATL@@QEAA@XZ DB 06H
	DB	00H
	DB	00H
	DB	'<'
	DB	02H
	DB	016H
	DB	00H
xdata	ENDS
;	COMDAT xdata
xdata	SEGMENT
$stateUnwindMap$??1CAtlComModule@ATL@@QEAA@XZ DB 02H
	DB	0eH
	DD	imagerel ?dtor$0@?0???1CAtlComModule@ATL@@QEAA@XZ@4HA
xdata	ENDS
;	COMDAT xdata
xdata	SEGMENT
$cppxdata$??1CAtlComModule@ATL@@QEAA@XZ DB 048H
	DD	imagerel $stateUnwindMap$??1CAtlComModule@ATL@@QEAA@XZ
	DD	imagerel $ip2state$??1CAtlComModule@ATL@@QEAA@XZ
xdata	ENDS
;	COMDAT xdata
xdata	SEGMENT
$unwind$??1CAtlComModule@ATL@@QEAA@XZ DD 021e19H
	DD	07006320aH
	DD	imagerel __CxxFrameHandler4
	DD	imagerel $cppxdata$??1CAtlComModule@ATL@@QEAA@XZ
xdata	ENDS
;	COMDAT xdata
xdata	SEGMENT
$unwind$?dtor$0@?0???0CAtlComModule@ATL@@QEAA@XZ@4HA DD 031001H
	DD	0700c4210H
	DD	0500bH
xdata	ENDS
;	COMDAT xdata
xdata	SEGMENT
$ip2state$??0CAtlComModule@ATL@@QEAA@XZ DB 06H
	DB	00H
	DB	00H
	DB	'R'
	DB	02H
	DB	0b1H, 03H
	DB	00H
xdata	ENDS
;	COMDAT xdata
xdata	SEGMENT
$stateUnwindMap$??0CAtlComModule@ATL@@QEAA@XZ DB 02H
	DB	0eH
	DD	imagerel ?dtor$0@?0???0CAtlComModule@ATL@@QEAA@XZ@4HA
xdata	ENDS
;	COMDAT xdata
xdata	SEGMENT
$cppxdata$??0CAtlComModule@ATL@@QEAA@XZ DB 08H
	DD	imagerel $stateUnwindMap$??0CAtlComModule@ATL@@QEAA@XZ
	DD	imagerel $ip2state$??0CAtlComModule@ATL@@QEAA@XZ
xdata	ENDS
;	COMDAT xdata
xdata	SEGMENT
$unwind$??0CAtlComModule@ATL@@QEAA@XZ DD 021e11H
	DD	07006920aH
	DD	imagerel __CxxFrameHandler4
	DD	imagerel $cppxdata$??0CAtlComModule@ATL@@QEAA@XZ
xdata	ENDS
;	COMDAT xdata
xdata	SEGMENT
$unwind$?AtlWinModuleTerm@ATL@@YAJPEAU_ATL_WIN_MODULE70@1@PEAUHINSTANCE__@@@Z DD 022301H
	DD	0700b520fH
xdata	ENDS
;	COMDAT xdata
xdata	SEGMENT
$unwind$?AtlWinModuleInit@ATL@@YAJPEAU_ATL_WIN_MODULE70@1@@Z DD 021e01H
	DD	07006920aH
xdata	ENDS
;	COMDAT xdata
xdata	SEGMENT
$unwind$?dtor$1@?0???1_ATL_WIN_MODULE70@ATL@@QEAA@XZ@4HA DD 031001H
	DD	0700c4210H
	DD	0500bH
xdata	ENDS
;	COMDAT xdata
xdata	SEGMENT
$unwind$?dtor$0@?0???1_ATL_WIN_MODULE70@ATL@@QEAA@XZ@4HA DD 031001H
	DD	0700c4210H
	DD	0500bH
xdata	ENDS
;	COMDAT xdata
xdata	SEGMENT
$ip2state$??1_ATL_WIN_MODULE70@ATL@@QEAA@XZ DB 06H
	DB	00H
	DB	00H
	DB	'<'
	DB	02H
	DB	'$'
	DB	00H
xdata	ENDS
;	COMDAT xdata
xdata	SEGMENT
$stateUnwindMap$??1_ATL_WIN_MODULE70@ATL@@QEAA@XZ DB 04H
	DB	0eH
	DD	imagerel ?dtor$0@?0???1_ATL_WIN_MODULE70@ATL@@QEAA@XZ@4HA
	DB	02eH
	DD	imagerel ?dtor$1@?0???1_ATL_WIN_MODULE70@ATL@@QEAA@XZ@4HA
xdata	ENDS
;	COMDAT xdata
xdata	SEGMENT
$cppxdata$??1_ATL_WIN_MODULE70@ATL@@QEAA@XZ DB 048H
	DD	imagerel $stateUnwindMap$??1_ATL_WIN_MODULE70@ATL@@QEAA@XZ
	DD	imagerel $ip2state$??1_ATL_WIN_MODULE70@ATL@@QEAA@XZ
xdata	ENDS
;	COMDAT xdata
xdata	SEGMENT
$unwind$??1_ATL_WIN_MODULE70@ATL@@QEAA@XZ DD 021e11H
	DD	07006320aH
	DD	imagerel __CxxFrameHandler4
	DD	imagerel $cppxdata$??1_ATL_WIN_MODULE70@ATL@@QEAA@XZ
xdata	ENDS
;	COMDAT xdata
xdata	SEGMENT
$unwind$?dtor$1@?0???0_ATL_WIN_MODULE70@ATL@@QEAA@XZ@4HA DD 031001H
	DD	0700c4210H
	DD	0500bH
xdata	ENDS
;	COMDAT xdata
xdata	SEGMENT
$unwind$?dtor$0@?0???0_ATL_WIN_MODULE70@ATL@@QEAA@XZ@4HA DD 031001H
	DD	0700c4210H
	DD	0500bH
xdata	ENDS
;	COMDAT xdata
xdata	SEGMENT
$ip2state$??0_ATL_WIN_MODULE70@ATL@@QEAA@XZ DB 06H
	DB	00H
	DB	00H
	DB	'`'
	DB	02H
	DB	'$'
	DB	00H
xdata	ENDS
;	COMDAT xdata
xdata	SEGMENT
$stateUnwindMap$??0_ATL_WIN_MODULE70@ATL@@QEAA@XZ DB 04H
	DB	0eH
	DD	imagerel ?dtor$0@?0???0_ATL_WIN_MODULE70@ATL@@QEAA@XZ@4HA
	DB	02eH
	DD	imagerel ?dtor$1@?0???0_ATL_WIN_MODULE70@ATL@@QEAA@XZ@4HA
xdata	ENDS
;	COMDAT xdata
xdata	SEGMENT
$cppxdata$??0_ATL_WIN_MODULE70@ATL@@QEAA@XZ DB 08H
	DD	imagerel $stateUnwindMap$??0_ATL_WIN_MODULE70@ATL@@QEAA@XZ
	DD	imagerel $ip2state$??0_ATL_WIN_MODULE70@ATL@@QEAA@XZ
xdata	ENDS
;	COMDAT xdata
xdata	SEGMENT
$unwind$??0_ATL_WIN_MODULE70@ATL@@QEAA@XZ DD 021e11H
	DD	07006320aH
	DD	imagerel __CxxFrameHandler4
	DD	imagerel $cppxdata$??0_ATL_WIN_MODULE70@ATL@@QEAA@XZ
xdata	ENDS
;	COMDAT xdata
xdata	SEGMENT
$unwind$??A?$CSimpleArray@GV?$CSimpleArrayEqualHelper@G@ATL@@@ATL@@QEAAAEAGH@Z DD 022201H
	DD	0700a520eH
xdata	ENDS
;	COMDAT xdata
xdata	SEGMENT
$unwind$?RemoveAll@?$CSimpleArray@GV?$CSimpleArrayEqualHelper@G@ATL@@@ATL@@QEAAXXZ DD 021e01H
	DD	07006520aH
xdata	ENDS
;	COMDAT xdata
xdata	SEGMENT
$unwind$?GetSize@?$CSimpleArray@GV?$CSimpleArrayEqualHelper@G@ATL@@@ATL@@QEBAHXZ DD 010601H
	DD	07006H
xdata	ENDS
;	COMDAT xdata
xdata	SEGMENT
$ip2state$??1?$CSimpleArray@GV?$CSimpleArrayEqualHelper@G@ATL@@@ATL@@QEAA@XZ DB 02H
	DB	00H
	DB	00H
xdata	ENDS
;	COMDAT xdata
xdata	SEGMENT
$cppxdata$??1?$CSimpleArray@GV?$CSimpleArrayEqualHelper@G@ATL@@@ATL@@QEAA@XZ DB 040H
	DD	imagerel $ip2state$??1?$CSimpleArray@GV?$CSimpleArrayEqualHelper@G@ATL@@@ATL@@QEAA@XZ
xdata	ENDS
;	COMDAT xdata
xdata	SEGMENT
$unwind$??1?$CSimpleArray@GV?$CSimpleArrayEqualHelper@G@ATL@@@ATL@@QEAA@XZ DD 021e19H
	DD	07006320aH
	DD	imagerel __CxxFrameHandler4
	DD	imagerel $cppxdata$??1?$CSimpleArray@GV?$CSimpleArrayEqualHelper@G@ATL@@@ATL@@QEAA@XZ
xdata	ENDS
;	COMDAT xdata
xdata	SEGMENT
$unwind$??0?$CSimpleArray@GV?$CSimpleArrayEqualHelper@G@ATL@@@ATL@@QEAA@XZ DD 010601H
	DD	07006H
xdata	ENDS
;	COMDAT xdata
xdata	SEGMENT
$unwind$?dtor$0@?0???1_ATL_COM_MODULE70@ATL@@QEAA@XZ@4HA DD 031001H
	DD	0700c4210H
	DD	0500bH
xdata	ENDS
;	COMDAT xdata
xdata	SEGMENT
$ip2state$??1_ATL_COM_MODULE70@ATL@@QEAA@XZ DB 02H
	DB	00H
	DB	00H
xdata	ENDS
;	COMDAT xdata
xdata	SEGMENT
$stateUnwindMap$??1_ATL_COM_MODULE70@ATL@@QEAA@XZ DB 02H
	DB	0eH
	DD	imagerel ?dtor$0@?0???1_ATL_COM_MODULE70@ATL@@QEAA@XZ@4HA
xdata	ENDS
;	COMDAT xdata
xdata	SEGMENT
$cppxdata$??1_ATL_COM_MODULE70@ATL@@QEAA@XZ DB 048H
	DD	imagerel $stateUnwindMap$??1_ATL_COM_MODULE70@ATL@@QEAA@XZ
	DD	imagerel $ip2state$??1_ATL_COM_MODULE70@ATL@@QEAA@XZ
xdata	ENDS
;	COMDAT xdata
xdata	SEGMENT
$unwind$??1_ATL_COM_MODULE70@ATL@@QEAA@XZ DD 021e11H
	DD	07006320aH
	DD	imagerel __CxxFrameHandler4
	DD	imagerel $cppxdata$??1_ATL_COM_MODULE70@ATL@@QEAA@XZ
xdata	ENDS
;	COMDAT xdata
xdata	SEGMENT
$unwind$?dtor$0@?0???0_ATL_COM_MODULE70@ATL@@QEAA@XZ@4HA DD 031001H
	DD	0700c4210H
	DD	0500bH
xdata	ENDS
;	COMDAT xdata
xdata	SEGMENT
$ip2state$??0_ATL_COM_MODULE70@ATL@@QEAA@XZ DB 02H
	DB	00H
	DB	00H
xdata	ENDS
;	COMDAT xdata
xdata	SEGMENT
$stateUnwindMap$??0_ATL_COM_MODULE70@ATL@@QEAA@XZ DB 02H
	DB	0eH
	DD	imagerel ?dtor$0@?0???0_ATL_COM_MODULE70@ATL@@QEAA@XZ@4HA
xdata	ENDS
;	COMDAT xdata
xdata	SEGMENT
$cppxdata$??0_ATL_COM_MODULE70@ATL@@QEAA@XZ DB 048H
	DD	imagerel $stateUnwindMap$??0_ATL_COM_MODULE70@ATL@@QEAA@XZ
	DD	imagerel $ip2state$??0_ATL_COM_MODULE70@ATL@@QEAA@XZ
xdata	ENDS
;	COMDAT xdata
xdata	SEGMENT
$unwind$??0_ATL_COM_MODULE70@ATL@@QEAA@XZ DD 021e11H
	DD	07006320aH
	DD	imagerel __CxxFrameHandler4
	DD	imagerel $cppxdata$??0_ATL_COM_MODULE70@ATL@@QEAA@XZ
xdata	ENDS
;	COMDAT xdata
xdata	SEGMENT
$unwind$?AtlComQIPtrAssign2@ATL@@YAXPEAPEAUIUnknown@@PEAU2@AEBU_GUID@@@Z DD 022801H
	DD	070105214H
xdata	ENDS
;	COMDAT xdata
xdata	SEGMENT
$unwind$?GetModuleInstance@CAtlBaseModule@ATL@@QEAAPEAUHINSTANCE__@@XZ DD 010601H
	DD	07006H
xdata	ENDS
;	COMDAT xdata
xdata	SEGMENT
$unwind$?Term@CComCriticalSection@ATL@@QEAAJXZ DD 021e01H
	DD	07006320aH
xdata	ENDS
;	COMDAT xdata
xdata	SEGMENT
$unwind$?Init@CComCriticalSection@ATL@@QEAAJXZ DD 021e01H
	DD	07006520aH
xdata	ENDS
;	COMDAT xdata
xdata	SEGMENT
$unwind$??1CComCriticalSection@ATL@@QEAA@XZ DD 010601H
	DD	07006H
xdata	ENDS
;	COMDAT xdata
xdata	SEGMENT
$unwind$??0CComCriticalSection@ATL@@QEAA@XZ DD 021e01H
	DD	07006320aH
xdata	ENDS
;	COMDAT xdata
xdata	SEGMENT
$unwind$?_AtlInitializeCriticalSectionEx@ATL@@YAHPEAU_RTL_CRITICAL_SECTION@@KK@Z DD 022701H
	DD	0700f3213H
xdata	ENDS
;	COMDAT xdata
xdata	SEGMENT
$unwind$?_AtlRaiseException@ATL@@YAXKK@Z DD 022001H
	DD	07009320dH
xdata	ENDS
;	COMDAT xdata
xdata	SEGMENT
$unwind$?dtor$0@?0???RCTraceFileAndLineInfo@ATL@@QEBAXHIPEBDZZ@4HA DD 031001H
	DD	0700c4210H
	DD	0500bH
xdata	ENDS
;	COMDAT xdata
xdata	SEGMENT
$ip2state$??RCTraceFileAndLineInfo@ATL@@QEBAXHIPEBDZZ DB 06H
	DB	00H
	DB	00H
	DB	't'
	DB	02H
	DB	0b0H
	DB	00H
xdata	ENDS
;	COMDAT xdata
xdata	SEGMENT
$stateUnwindMap$??RCTraceFileAndLineInfo@ATL@@QEBAXHIPEBDZZ DB 02H
	DB	0eH
	DD	imagerel ?dtor$0@?0???RCTraceFileAndLineInfo@ATL@@QEBAXHIPEBDZZ@4HA
xdata	ENDS
;	COMDAT xdata
xdata	SEGMENT
$cppxdata$??RCTraceFileAndLineInfo@ATL@@QEBAXHIPEBDZZ DB 08H
	DD	imagerel $stateUnwindMap$??RCTraceFileAndLineInfo@ATL@@QEBAXHIPEBDZZ
	DD	imagerel $ip2state$??RCTraceFileAndLineInfo@ATL@@QEBAXHIPEBDZZ
xdata	ENDS
;	COMDAT xdata
xdata	SEGMENT
$unwind$??RCTraceFileAndLineInfo@ATL@@QEBAXHIPEBDZZ DD 022f11H
	DD	07014d218H
	DD	imagerel __CxxFrameHandler4
	DD	imagerel $cppxdata$??RCTraceFileAndLineInfo@ATL@@QEBAXHIPEBDZZ
xdata	ENDS
;	COMDAT CONST
CONST	SEGMENT
??RCTraceFileAndLineInfo@ATL@@QEBAXHIPEBDZZ$rtcName$0 DB 070H ; ATL::CTraceFileAndLineInfo::operator()
	DB	06cH
	DB	065H
	DB	00H
??RCTraceFileAndLineInfo@ATL@@QEBAXHIPEBDZZ$rtcName$1 DB 070H ; ATL::CTraceFileAndLineInfo::operator()
	DB	074H
	DB	072H
	DB	00H
	ORG $+8
??RCTraceFileAndLineInfo@ATL@@QEBAXHIPEBDZZ$rtcVarDesc DD 058H ; ATL::CTraceFileAndLineInfo::operator()
	DD	08H
	DQ	FLAT:??RCTraceFileAndLineInfo@ATL@@QEBAXHIPEBDZZ$rtcName$1
	DD	034H
	DD	04H
	DQ	FLAT:??RCTraceFileAndLineInfo@ATL@@QEBAXHIPEBDZZ$rtcName$0
	ORG $+96
??RCTraceFileAndLineInfo@ATL@@QEBAXHIPEBDZZ$rtcFrameData DD 02H ; ATL::CTraceFileAndLineInfo::operator()
	DD	00H
	DQ	FLAT:??RCTraceFileAndLineInfo@ATL@@QEBAXHIPEBDZZ$rtcVarDesc
CONST	ENDS
;	COMDAT xdata
xdata	SEGMENT
$unwind$??0CTraceFileAndLineInfo@ATL@@QEAA@PEBDH@Z DD 011001H
	DD	07010H
xdata	ENDS
;	COMDAT xdata
xdata	SEGMENT
$ip2state$??1CPreserveLastError@ATL@@QEAA@XZ DB 02H
	DB	00H
	DB	00H
xdata	ENDS
;	COMDAT xdata
xdata	SEGMENT
$cppxdata$??1CPreserveLastError@ATL@@QEAA@XZ DB 040H
	DD	imagerel $ip2state$??1CPreserveLastError@ATL@@QEAA@XZ
xdata	ENDS
;	COMDAT xdata
xdata	SEGMENT
$unwind$??1CPreserveLastError@ATL@@QEAA@XZ DD 021e19H
	DD	07006320aH
	DD	imagerel __CxxFrameHandler4
	DD	imagerel $cppxdata$??1CPreserveLastError@ATL@@QEAA@XZ
xdata	ENDS
;	COMDAT xdata
xdata	SEGMENT
$unwind$??0CPreserveLastError@ATL@@QEAA@XZ DD 021e01H
	DD	07006320aH
xdata	ENDS
