; Listing generated by Microsoft (R) Optimizing Compiler Version 19.23.28106.4 

include listing.inc

INCLUDELIB MSVCRTD
INCLUDELIB OLDNAMES

PUBLIC	D3D11_DECODER_PROFILE_H264_MOCOMP_NOFGT
PUBLIC	D3D11_DECODER_PROFILE_H264_MOCOMP_FGT
PUBLIC	D3D11_DECODER_PROFILE_H264_IDCT_NOFGT
PUBLIC	D3D11_DECODER_PROFILE_H264_IDCT_FGT
PUBLIC	D3D11_DECODER_PROFILE_H264_VLD_NOFGT
PUBLIC	D3D11_DECODER_PROFILE_H264_VLD_FGT
PUBLIC	D3D11_DECODER_PROFILE_H264_VLD_WITHFMOASO_NOFGT
PUBLIC	D3D11_DECODER_PROFILE_H264_VLD_STEREO_PROGRESSIVE_NOFGT
PUBLIC	D3D11_DECODER_PROFILE_H264_VLD_STEREO_NOFGT
PUBLIC	D3D11_DECODER_PROFILE_H264_VLD_MULTIVIEW_NOFGT
PUBLIC	D3D11_DECODER_PROFILE_WMV8_POSTPROC
PUBLIC	D3D11_DECODER_PROFILE_WMV8_MOCOMP
PUBLIC	D3D11_DECODER_PROFILE_WMV9_POSTPROC
PUBLIC	D3D11_DECODER_PROFILE_WMV9_MOCOMP
PUBLIC	D3D11_DECODER_PROFILE_WMV9_IDCT
PUBLIC	D3D11_DECODER_PROFILE_VC1_POSTPROC
PUBLIC	D3D11_DECODER_PROFILE_VC1_MOCOMP
PUBLIC	D3D11_DECODER_PROFILE_VC1_IDCT
PUBLIC	D3D11_DECODER_PROFILE_VC1_VLD
PUBLIC	D3D11_DECODER_PROFILE_VC1_D2010
PUBLIC	D3D11_DECODER_PROFILE_MPEG4PT2_VLD_SIMPLE
PUBLIC	D3D11_DECODER_PROFILE_MPEG4PT2_VLD_ADVSIMPLE_NOGMC
PUBLIC	D3D11_DECODER_PROFILE_MPEG4PT2_VLD_ADVSIMPLE_GMC
PUBLIC	D3D11_DECODER_PROFILE_HEVC_VLD_MAIN
PUBLIC	D3D11_DECODER_PROFILE_HEVC_VLD_MAIN10
PUBLIC	D3D11_DECODER_PROFILE_VP9_VLD_PROFILE0
PUBLIC	D3D11_DECODER_PROFILE_VP9_VLD_10BIT_PROFILE2
PUBLIC	D3D11_DECODER_PROFILE_VP8_VLD
PUBLIC	IID_ID3D10ShaderResourceView1
PUBLIC	IID_ID3D10Device1
PUBLIC	IID_ID3D11VideoDecoder
PUBLIC	D3D11_CRYPTO_TYPE_AES128_CTR
PUBLIC	D3D11_DECODER_ENCRYPTION_HW_CENC
PUBLIC	D3D11_DECODER_BITSTREAM_ENCRYPTION_TYPE_CENC
PUBLIC	D3D11_DECODER_BITSTREAM_ENCRYPTION_TYPE_CBCS
PUBLIC	D3D11_KEY_EXCHANGE_HW_PROTECTION
PUBLIC	IID_ID3D10ShaderReflection1
PUBLIC	IID_ID3D11VideoProcessorEnumerator
PUBLIC	IID_ID3D11VideoProcessor
PUBLIC	IID_ID3D11AuthenticatedChannel
PUBLIC	D3D11_AUTHENTICATED_QUERY_PROTECTION
PUBLIC	D3D11_AUTHENTICATED_QUERY_CHANNEL_TYPE
PUBLIC	D3D11_AUTHENTICATED_QUERY_DEVICE_HANDLE
PUBLIC	D3D11_AUTHENTICATED_QUERY_CRYPTO_SESSION
PUBLIC	D3D11_AUTHENTICATED_QUERY_RESTRICTED_SHARED_RESOURCE_PROCESS_COUNT
PUBLIC	D3D11_AUTHENTICATED_QUERY_RESTRICTED_SHARED_RESOURCE_PROCESS
PUBLIC	D3D11_AUTHENTICATED_QUERY_UNRESTRICTED_PROTECTED_SHARED_RESOURCE_COUNT
PUBLIC	D3D11_AUTHENTICATED_QUERY_OUTPUT_ID_COUNT
PUBLIC	D3D11_AUTHENTICATED_QUERY_OUTPUT_ID
PUBLIC	D3D11_AUTHENTICATED_QUERY_ACCESSIBILITY_ATTRIBUTES
PUBLIC	D3D11_AUTHENTICATED_QUERY_ENCRYPTION_WHEN_ACCESSIBLE_GUID_COUNT
PUBLIC	D3D11_AUTHENTICATED_QUERY_ENCRYPTION_WHEN_ACCESSIBLE_GUID
PUBLIC	D3D11_AUTHENTICATED_QUERY_CURRENT_ENCRYPTION_WHEN_ACCESSIBLE
PUBLIC	D3D11_AUTHENTICATED_CONFIGURE_INITIALIZE
PUBLIC	D3D11_AUTHENTICATED_CONFIGURE_PROTECTION
PUBLIC	D3D11_AUTHENTICATED_CONFIGURE_CRYPTO_SESSION
PUBLIC	D3D11_AUTHENTICATED_CONFIGURE_SHARED_RESOURCE
PUBLIC	D3D11_AUTHENTICATED_CONFIGURE_ENCRYPTION_WHEN_ACCESSIBLE
PUBLIC	D3D11_KEY_EXCHANGE_RSAES_OAEP
PUBLIC	IID_ID3D11CryptoSession
PUBLIC	IID_ID3D11VideoDecoderOutputView
PUBLIC	IID_ID3D11VideoProcessorInputView
PUBLIC	IID_ID3D11VideoProcessorOutputView
PUBLIC	IID_ID3D11VideoContext
PUBLIC	IID_ID3D11VideoDevice
PUBLIC	IID_ID3D11Device
PUBLIC	IID_ID3D11Debug
PUBLIC	IID_ID3D11SwitchToRef
PUBLIC	IID_ID3D11TracingDevice
PUBLIC	IID_ID3D11RefTrackingOptions
PUBLIC	IID_ID3D11RefDefaultTrackingOptions
PUBLIC	DXGI_DEBUG_D3D11
PUBLIC	IID_ID3D11InfoQueue
PUBLIC	IID_IDXGIObject
PUBLIC	IID_ID3D10DeviceChild
PUBLIC	IID_IDXGIDeviceSubObject
PUBLIC	IID_IDXGIResource
PUBLIC	IID_IDXGIKeyedMutex
PUBLIC	IID_IDXGISurface
PUBLIC	IID_ID3D10DepthStencilState
PUBLIC	IID_IDXGISurface1
PUBLIC	IID_IDXGIAdapter
PUBLIC	IID_IDXGIOutput
PUBLIC	IID_ID3D10BlendState
PUBLIC	IID_IDXGISwapChain
PUBLIC	IID_ID3D10RasterizerState
PUBLIC	IID_ID3D10Resource
PUBLIC	IID_IDXGIFactory
PUBLIC	IID_IDXGIDevice
PUBLIC	IID_ID3D10Buffer
PUBLIC	IID_IDXGIFactory1
PUBLIC	IID_IDXGIAdapter1
PUBLIC	IID_ID3D10Texture1D
PUBLIC	IID_IDXGIDevice1
PUBLIC	IID_ID3D10Texture2D
PUBLIC	IID_ID3D10Texture3D
PUBLIC	IID_ID3D10View
PUBLIC	IID_ID3D10Blob
PUBLIC	IID_ID3D10ShaderResourceView
PUBLIC	IID_ID3D10RenderTargetView
PUBLIC	WKPDID_D3DDebugObjectName
PUBLIC	WKPDID_D3DDebugObjectNameW
PUBLIC	WKPDID_CommentStringW
PUBLIC	D3D_TEXTURE_LAYOUT_ROW_MAJOR
PUBLIC	D3D_TEXTURE_LAYOUT_64KB_STANDARD_SWIZZLE
PUBLIC	IID_ID3D10DepthStencilView
PUBLIC	IID_ID3D10VertexShader
PUBLIC	IID_ID3D10GeometryShader
PUBLIC	IID_ID3D10PixelShader
PUBLIC	IID_ID3D10InputLayout
PUBLIC	IID_ID3D10SamplerState
PUBLIC	IID_ID3D10Asynchronous
PUBLIC	IID_ID3D10Query
PUBLIC	IID_ID3D10Predicate
PUBLIC	IID_ID3D11DeviceChild
PUBLIC	IID_ID3D10Counter
PUBLIC	IID_ID3D10Device
PUBLIC	IID_ID3D11DepthStencilState
PUBLIC	IID_ID3D11BlendState
PUBLIC	IID_ID3D11RasterizerState
PUBLIC	IID_ID3D11Resource
PUBLIC	IID_ID3D10Multithread
PUBLIC	IID_ID3D11Buffer
PUBLIC	IID_ID3D10Debug
PUBLIC	IID_ID3D10SwitchToRef
PUBLIC	IID_ID3D11Texture1D
PUBLIC	DXGI_DEBUG_D3D10
PUBLIC	IID_ID3D11Texture2D
PUBLIC	IID_ID3D11Texture3D
PUBLIC	IID_ID3D11View
PUBLIC	IID_ID3D11ShaderResourceView
PUBLIC	IID_ID3D10InfoQueue
PUBLIC	GUID_DeviceType
PUBLIC	IID_ID3D11RenderTargetView
PUBLIC	IID_ID3D10ShaderReflectionType
PUBLIC	IID_ID3D10ShaderReflectionVariable
PUBLIC	IID_ID3D10ShaderReflectionConstantBuffer
PUBLIC	IID_ID3D10ShaderReflection
PUBLIC	IID_ID3D10StateBlock
PUBLIC	IID_ID3D11DepthStencilView
PUBLIC	IID_ID3D10EffectType
PUBLIC	IID_ID3D10EffectVariable
PUBLIC	IID_ID3D10EffectScalarVariable
PUBLIC	IID_ID3D11UnorderedAccessView
PUBLIC	IID_ID3D11VertexShader
PUBLIC	IID_ID3D11HullShader
PUBLIC	IID_ID3D11DomainShader
PUBLIC	IID_ID3D11GeometryShader
PUBLIC	IID_ID3D11PixelShader
PUBLIC	IID_ID3D11ComputeShader
PUBLIC	IID_ID3D10EffectVectorVariable
PUBLIC	IID_ID3D11InputLayout
PUBLIC	IID_ID3D10EffectMatrixVariable
PUBLIC	IID_ID3D11SamplerState
PUBLIC	IID_ID3D10EffectStringVariable
PUBLIC	IID_ID3D11Asynchronous
PUBLIC	IID_ID3D10EffectShaderResourceVariable
PUBLIC	IID_ID3D11Query
PUBLIC	IID_ID3D11Predicate
PUBLIC	IID_ID3D10EffectRenderTargetViewVariable
PUBLIC	IID_ID3D11Counter
PUBLIC	IID_ID3D10EffectDepthStencilViewVariable
PUBLIC	IID_ID3D11ClassInstance
PUBLIC	IID_ID3D11ClassLinkage
PUBLIC	IID_ID3D11CommandList
PUBLIC	IID_ID3D10EffectConstantBuffer
PUBLIC	IID_ID3D10EffectShaderVariable
PUBLIC	IID_ID3D10EffectBlendVariable
PUBLIC	IID_ID3D10EffectDepthStencilVariable
PUBLIC	IID_ID3D11DeviceContext
PUBLIC	IID_ID3D10EffectRasterizerVariable
PUBLIC	IID_ID3D10EffectSamplerVariable
PUBLIC	IID_ID3D10EffectPass
PUBLIC	IID_ID3D10EffectTechnique
PUBLIC	IID_ID3D10Effect
PUBLIC	IID_ID3D10EffectPool
PUBLIC	IID_ID3D10BlendState1
PUBLIC	D3D11_DECODER_PROFILE_MPEG2_MOCOMP
PUBLIC	D3D11_DECODER_PROFILE_MPEG2_IDCT
PUBLIC	D3D11_DECODER_PROFILE_MPEG2_VLD
PUBLIC	D3D11_DECODER_PROFILE_MPEG1_VLD
PUBLIC	D3D11_DECODER_PROFILE_MPEG2and1_VLD
;	COMDAT D3D11_DECODER_PROFILE_MPEG2and1_VLD
CONST	SEGMENT
D3D11_DECODER_PROFILE_MPEG2and1_VLD DD 086695f12H
	DW	0340eH
	DW	04f04H
	DB	09fH
	DB	0d3H
	DB	092H
	DB	053H
	DB	0ddH
	DB	032H
	DB	074H
	DB	060H
CONST	ENDS
;	COMDAT D3D11_DECODER_PROFILE_MPEG1_VLD
CONST	SEGMENT
D3D11_DECODER_PROFILE_MPEG1_VLD DD 06f3ec719H
	DW	03735H
	DW	042ccH
	DB	080H
	DB	063H
	DB	065H
	DB	0ccH
	DB	03cH
	DB	0b3H
	DB	066H
	DB	016H
CONST	ENDS
;	COMDAT D3D11_DECODER_PROFILE_MPEG2_VLD
CONST	SEGMENT
D3D11_DECODER_PROFILE_MPEG2_VLD DD 0ee27417fH
	DW	05e28H
	DW	04e65H
	DB	0beH
	DB	0eaH
	DB	01dH
	DB	026H
	DB	0b5H
	DB	08H
	DB	0adH
	DB	0c9H
CONST	ENDS
;	COMDAT D3D11_DECODER_PROFILE_MPEG2_IDCT
CONST	SEGMENT
D3D11_DECODER_PROFILE_MPEG2_IDCT DD 0bf22ad00H
	DW	03eaH
	DW	04690H
	DB	080H
	DB	077H
	DB	047H
	DB	033H
	DB	046H
	DB	020H
	DB	09bH
	DB	07eH
CONST	ENDS
;	COMDAT D3D11_DECODER_PROFILE_MPEG2_MOCOMP
CONST	SEGMENT
D3D11_DECODER_PROFILE_MPEG2_MOCOMP DD 0e6a9f44bH
	DW	061b0H
	DW	04563H
	DB	09eH
	DB	0a4H
	DB	063H
	DB	0d2H
	DB	0a3H
	DB	0c6H
	DB	0feH
	DB	066H
CONST	ENDS
;	COMDAT IID_ID3D10BlendState1
CONST	SEGMENT
IID_ID3D10BlendState1 DD 0edad8d99H
	DW	08a35H
	DW	04d6dH
	DB	085H
	DB	066H
	DB	02eH
	DB	0a2H
	DB	076H
	DB	0cdH
	DB	0e1H
	DB	061H
CONST	ENDS
;	COMDAT IID_ID3D10EffectPool
CONST	SEGMENT
IID_ID3D10EffectPool DD 09537ab04H
	DW	03250H
	DW	0412eH
	DB	082H
	DB	013H
	DB	0fcH
	DB	0d2H
	DB	0f8H
	DB	067H
	DB	079H
	DB	033H
CONST	ENDS
;	COMDAT IID_ID3D10Effect
CONST	SEGMENT
IID_ID3D10Effect DD 051b0ca8bH
	DW	0ec0bH
	DW	04519H
	DB	087H
	DB	0dH
	DB	08eH
	DB	0e1H
	DB	0cbH
	DB	050H
	DB	017H
	DB	0c7H
CONST	ENDS
;	COMDAT IID_ID3D10EffectTechnique
CONST	SEGMENT
IID_ID3D10EffectTechnique DD 0db122ce8H
	DW	0d1c9H
	DW	04292H
	DB	0b2H
	DB	037H
	DB	024H
	DB	0edH
	DB	03dH
	DB	0e8H
	DB	0b1H
	DB	075H
CONST	ENDS
;	COMDAT IID_ID3D10EffectPass
CONST	SEGMENT
IID_ID3D10EffectPass DD 05cfbeb89H
	DW	01a06H
	DW	046e0H
	DB	0b2H
	DB	082H
	DB	0e3H
	DB	0f9H
	DB	0bfH
	DB	0a3H
	DB	06aH
	DB	054H
CONST	ENDS
;	COMDAT IID_ID3D10EffectSamplerVariable
CONST	SEGMENT
IID_ID3D10EffectSamplerVariable DD 06530d5c7H
	DW	07e9H
	DW	04271H
	DB	0a4H
	DB	018H
	DB	0e7H
	DB	0ceH
	DB	04bH
	DB	0d1H
	DB	0e4H
	DB	080H
CONST	ENDS
;	COMDAT IID_ID3D10EffectRasterizerVariable
CONST	SEGMENT
IID_ID3D10EffectRasterizerVariable DD 021af9f0eH
	DW	04d94H
	DW	04ea9H
	DB	097H
	DB	085H
	DB	02cH
	DB	0b7H
	DB	06bH
	DB	08cH
	DB	0bH
	DB	034H
CONST	ENDS
;	COMDAT IID_ID3D11DeviceContext
CONST	SEGMENT
IID_ID3D11DeviceContext DD 0c0bfa96cH
	DW	0e089H
	DW	044fbH
	DB	08eH
	DB	0afH
	DB	026H
	DB	0f8H
	DB	079H
	DB	061H
	DB	090H
	DB	0daH
CONST	ENDS
;	COMDAT IID_ID3D10EffectDepthStencilVariable
CONST	SEGMENT
IID_ID3D10EffectDepthStencilVariable DD 0af482368H
	DW	0330aH
	DW	046a5H
	DB	09aH
	DB	05cH
	DB	01H
	DB	0c7H
	DB	01aH
	DB	0f2H
	DB	04cH
	DB	08dH
CONST	ENDS
;	COMDAT IID_ID3D10EffectBlendVariable
CONST	SEGMENT
IID_ID3D10EffectBlendVariable DD 01fcd2294H
	DW	0df6dH
	DW	04eaeH
	DB	086H
	DB	0b3H
	DB	0eH
	DB	091H
	DB	060H
	DB	0cfH
	DB	0b0H
	DB	07bH
CONST	ENDS
;	COMDAT IID_ID3D10EffectShaderVariable
CONST	SEGMENT
IID_ID3D10EffectShaderVariable DD 080849279H
	DW	0c799H
	DW	04797H
	DB	08cH
	DB	033H
	DB	04H
	DB	07H
	DB	0a0H
	DB	07dH
	DB	09eH
	DB	06H
CONST	ENDS
;	COMDAT IID_ID3D10EffectConstantBuffer
CONST	SEGMENT
IID_ID3D10EffectConstantBuffer DD 056648f4dH
	DW	0cc8bH
	DW	04444H
	DB	0a5H
	DB	0adH
	DB	0b5H
	DB	0a3H
	DB	0d7H
	DB	06eH
	DB	091H
	DB	0b3H
CONST	ENDS
;	COMDAT IID_ID3D11CommandList
CONST	SEGMENT
IID_ID3D11CommandList DD 0a24bc4d1H
	DW	0769eH
	DW	043f7H
	DB	080H
	DB	013H
	DB	098H
	DB	0ffH
	DB	056H
	DB	06cH
	DB	018H
	DB	0e2H
CONST	ENDS
;	COMDAT IID_ID3D11ClassLinkage
CONST	SEGMENT
IID_ID3D11ClassLinkage DD 0ddf57cbaH
	DW	09543H
	DW	046e4H
	DB	0a1H
	DB	02bH
	DB	0f2H
	DB	07H
	DB	0a0H
	DB	0feH
	DB	07fH
	DB	0edH
CONST	ENDS
;	COMDAT IID_ID3D11ClassInstance
CONST	SEGMENT
IID_ID3D11ClassInstance DD 0a6cd7faaH
	DW	0b0b7H
	DW	04a2fH
	DB	094H
	DB	036H
	DB	086H
	DB	062H
	DB	0a6H
	DB	057H
	DB	097H
	DB	0cbH
CONST	ENDS
;	COMDAT IID_ID3D10EffectDepthStencilViewVariable
CONST	SEGMENT
IID_ID3D10EffectDepthStencilViewVariable DD 03e02c918H
	DW	0cc79H
	DW	04985H
	DB	0b6H
	DB	022H
	DB	02dH
	DB	092H
	DB	0adH
	DB	070H
	DB	016H
	DB	023H
CONST	ENDS
;	COMDAT IID_ID3D11Counter
CONST	SEGMENT
IID_ID3D11Counter DD 06e8c49fbH
	DW	0a371H
	DW	04770H
	DB	0b4H
	DB	040H
	DB	029H
	DB	08H
	DB	060H
	DB	022H
	DB	0b7H
	DB	041H
CONST	ENDS
;	COMDAT IID_ID3D10EffectRenderTargetViewVariable
CONST	SEGMENT
IID_ID3D10EffectRenderTargetViewVariable DD 028ca0cc3H
	DW	0c2c9H
	DW	040bbH
	DB	0b5H
	DB	07fH
	DB	067H
	DB	0b7H
	DB	037H
	DB	012H
	DB	02bH
	DB	017H
CONST	ENDS
;	COMDAT IID_ID3D11Predicate
CONST	SEGMENT
IID_ID3D11Predicate DD 09eb576ddH
	DW	09f77H
	DW	04d86H
	DB	081H
	DB	0aaH
	DB	08bH
	DB	0abH
	DB	05fH
	DB	0e4H
	DB	090H
	DB	0e2H
CONST	ENDS
;	COMDAT IID_ID3D11Query
CONST	SEGMENT
IID_ID3D11Query DD 0d6c00747H
	DW	087b7H
	DW	0425eH
	DB	0b8H
	DB	04dH
	DB	044H
	DB	0d1H
	DB	08H
	DB	056H
	DB	0aH
	DB	0fdH
CONST	ENDS
;	COMDAT IID_ID3D10EffectShaderResourceVariable
CONST	SEGMENT
IID_ID3D10EffectShaderResourceVariable DD 0c0a7157bH
	DW	0d872H
	DW	04b1dH
	DB	080H
	DB	073H
	DB	0efH
	DB	0c2H
	DB	0acH
	DB	0d4H
	DB	0b1H
	DB	0fcH
CONST	ENDS
;	COMDAT IID_ID3D11Asynchronous
CONST	SEGMENT
IID_ID3D11Asynchronous DD 04b35d0cdH
	DW	01e15H
	DW	04258H
	DB	09cH
	DB	098H
	DB	01bH
	DB	013H
	DB	033H
	DB	0f6H
	DB	0ddH
	DB	03bH
CONST	ENDS
;	COMDAT IID_ID3D10EffectStringVariable
CONST	SEGMENT
IID_ID3D10EffectStringVariable DD 071417501H
	DW	08df9H
	DW	04e0aH
	DB	0a7H
	DB	08aH
	DB	025H
	DB	05fH
	DB	097H
	DB	056H
	DB	0baH
	DB	0ffH
CONST	ENDS
;	COMDAT IID_ID3D11SamplerState
CONST	SEGMENT
IID_ID3D11SamplerState DD 0da6fea51H
	DW	0564cH
	DW	04487H
	DB	098H
	DB	010H
	DB	0f0H
	DB	0d0H
	DB	0f9H
	DB	0b4H
	DB	0e3H
	DB	0a5H
CONST	ENDS
;	COMDAT IID_ID3D10EffectMatrixVariable
CONST	SEGMENT
IID_ID3D10EffectMatrixVariable DD 050666c24H
	DW	0b82fH
	DW	04eedH
	DB	0a1H
	DB	072H
	DB	05bH
	DB	06eH
	DB	07eH
	DB	085H
	DB	022H
	DB	0e0H
CONST	ENDS
;	COMDAT IID_ID3D11InputLayout
CONST	SEGMENT
IID_ID3D11InputLayout DD 0e4819ddcH
	DW	04cf0H
	DW	04025H
	DB	0bdH
	DB	026H
	DB	05dH
	DB	0e8H
	DB	02aH
	DB	03eH
	DB	07H
	DB	0b7H
CONST	ENDS
;	COMDAT IID_ID3D10EffectVectorVariable
CONST	SEGMENT
IID_ID3D10EffectVectorVariable DD 062b98c44H
	DW	01f82H
	DW	04c67H
	DB	0bcH
	DB	0d0H
	DB	072H
	DB	0cfH
	DB	08fH
	DB	021H
	DB	07eH
	DB	081H
CONST	ENDS
;	COMDAT IID_ID3D11ComputeShader
CONST	SEGMENT
IID_ID3D11ComputeShader DD 04f5b196eH
	DW	0c2bdH
	DW	0495eH
	DB	0bdH
	DB	01H
	DB	01fH
	DB	0deH
	DB	0d3H
	DB	08eH
	DB	049H
	DB	069H
CONST	ENDS
;	COMDAT IID_ID3D11PixelShader
CONST	SEGMENT
IID_ID3D11PixelShader DD 0ea82e40dH
	DW	051dcH
	DW	04f33H
	DB	093H
	DB	0d4H
	DB	0dbH
	DB	07cH
	DB	091H
	DB	025H
	DB	0aeH
	DB	08cH
CONST	ENDS
;	COMDAT IID_ID3D11GeometryShader
CONST	SEGMENT
IID_ID3D11GeometryShader DD 038325b96H
	DW	0effbH
	DW	04022H
	DB	0baH
	DB	02H
	DB	02eH
	DB	079H
	DB	05bH
	DB	070H
	DB	027H
	DB	05cH
CONST	ENDS
;	COMDAT IID_ID3D11DomainShader
CONST	SEGMENT
IID_ID3D11DomainShader DD 0f582c508H
	DW	0f36H
	DW	0490cH
	DB	099H
	DB	077H
	DB	031H
	DB	0eeH
	DB	0ceH
	DB	026H
	DB	08cH
	DB	0faH
CONST	ENDS
;	COMDAT IID_ID3D11HullShader
CONST	SEGMENT
IID_ID3D11HullShader DD 08e5c6061H
	DW	0628aH
	DW	04c8eH
	DB	082H
	DB	064H
	DB	0bbH
	DB	0e4H
	DB	05cH
	DB	0b3H
	DB	0d5H
	DB	0ddH
CONST	ENDS
;	COMDAT IID_ID3D11VertexShader
CONST	SEGMENT
IID_ID3D11VertexShader DD 03b301d64H
	DW	0d678H
	DW	04289H
	DB	088H
	DB	097H
	DB	022H
	DB	0f8H
	DB	092H
	DB	08bH
	DB	072H
	DB	0f3H
CONST	ENDS
;	COMDAT IID_ID3D11UnorderedAccessView
CONST	SEGMENT
IID_ID3D11UnorderedAccessView DD 028acf509H
	DW	07f5cH
	DW	048f6H
	DB	086H
	DB	011H
	DB	0f3H
	DB	016H
	DB	01H
	DB	0aH
	DB	063H
	DB	080H
CONST	ENDS
;	COMDAT IID_ID3D10EffectScalarVariable
CONST	SEGMENT
IID_ID3D10EffectScalarVariable DD 0e48f7bH
	DW	0d2c8H
	DW	049e8H
	DB	0a8H
	DB	06cH
	DB	02H
	DB	02dH
	DB	0eeH
	DB	053H
	DB	043H
	DB	01fH
CONST	ENDS
;	COMDAT IID_ID3D10EffectVariable
CONST	SEGMENT
IID_ID3D10EffectVariable DD 0ae897105H
	DW	0e6H
	DW	045bfH
	DB	0bbH
	DB	08eH
	DB	028H
	DB	01dH
	DB	0d6H
	DB	0dbH
	DB	08eH
	DB	01bH
CONST	ENDS
;	COMDAT IID_ID3D10EffectType
CONST	SEGMENT
IID_ID3D10EffectType DD 04e9e1ddcH
	DW	0cd9dH
	DW	04772H
	DB	0a8H
	DB	037H
	DB	00H
	DB	018H
	DB	0bH
	DB	09bH
	DB	088H
	DB	0fdH
CONST	ENDS
;	COMDAT IID_ID3D11DepthStencilView
CONST	SEGMENT
IID_ID3D11DepthStencilView DD 09fdac92aH
	DW	01876H
	DW	048c3H
	DB	0afH
	DB	0adH
	DB	025H
	DB	0b9H
	DB	04fH
	DB	084H
	DB	0a9H
	DB	0b6H
CONST	ENDS
;	COMDAT IID_ID3D10StateBlock
CONST	SEGMENT
IID_ID3D10StateBlock DD 0803425aH
	DW	057f5H
	DW	04dd6H
	DB	094H
	DB	065H
	DB	0a8H
	DB	075H
	DB	070H
	DB	083H
	DB	04aH
	DB	08H
CONST	ENDS
;	COMDAT IID_ID3D10ShaderReflection
CONST	SEGMENT
IID_ID3D10ShaderReflection DD 0d40e20b6H
	DW	0f8f7H
	DW	042adH
	DB	0abH
	DB	020H
	DB	04bH
	DB	0afH
	DB	08fH
	DB	015H
	DB	0dfH
	DB	0aaH
CONST	ENDS
;	COMDAT IID_ID3D10ShaderReflectionConstantBuffer
CONST	SEGMENT
IID_ID3D10ShaderReflectionConstantBuffer DD 066c66a94H
	DW	0ddddH
	DW	04b62H
	DB	0a6H
	DB	06aH
	DB	0f0H
	DB	0daH
	DB	033H
	DB	0c2H
	DB	0b4H
	DB	0d0H
CONST	ENDS
;	COMDAT IID_ID3D10ShaderReflectionVariable
CONST	SEGMENT
IID_ID3D10ShaderReflectionVariable DD 01bf63c95H
	DW	02650H
	DW	0405dH
	DB	099H
	DB	0c1H
	DB	036H
	DB	036H
	DB	0bdH
	DB	01dH
	DB	0a0H
	DB	0a1H
CONST	ENDS
;	COMDAT IID_ID3D10ShaderReflectionType
CONST	SEGMENT
IID_ID3D10ShaderReflectionType DD 0c530ad7dH
	DW	09b16H
	DW	04395H
	DB	0a9H
	DB	079H
	DB	0baH
	DB	02eH
	DB	0cfH
	DB	0f8H
	DB	03aH
	DB	0ddH
CONST	ENDS
;	COMDAT IID_ID3D11RenderTargetView
CONST	SEGMENT
IID_ID3D11RenderTargetView DD 0dfdba067H
	DW	0b8dH
	DW	04865H
	DB	087H
	DB	05bH
	DB	0d7H
	DB	0b4H
	DB	051H
	DB	06cH
	DB	0c1H
	DB	064H
CONST	ENDS
;	COMDAT GUID_DeviceType
CONST	SEGMENT
GUID_DeviceType DD 0d722fb4dH
	DW	07a68H
	DW	0437aH
	DB	0b2H
	DB	0cH
	DB	058H
	DB	04H
	DB	0eeH
	DB	024H
	DB	094H
	DB	0a6H
CONST	ENDS
;	COMDAT IID_ID3D10InfoQueue
CONST	SEGMENT
IID_ID3D10InfoQueue DD 01b940b17H
	DW	02642H
	DW	04d1fH
	DB	0abH
	DB	01fH
	DB	0b9H
	DB	09bH
	DB	0adH
	DB	0cH
	DB	039H
	DB	05fH
CONST	ENDS
;	COMDAT IID_ID3D11ShaderResourceView
CONST	SEGMENT
IID_ID3D11ShaderResourceView DD 0b0e06fe0H
	DW	08192H
	DW	04e1aH
	DB	0b1H
	DB	0caH
	DB	036H
	DB	0d7H
	DB	041H
	DB	047H
	DB	010H
	DB	0b2H
CONST	ENDS
;	COMDAT IID_ID3D11View
CONST	SEGMENT
IID_ID3D11View DD 0839d1216H
	DW	0bb2eH
	DW	0412bH
	DB	0b7H
	DB	0f4H
	DB	0a9H
	DB	0dbH
	DB	0ebH
	DB	0e0H
	DB	08eH
	DB	0d1H
CONST	ENDS
;	COMDAT IID_ID3D11Texture3D
CONST	SEGMENT
IID_ID3D11Texture3D DD 037e866eH
	DW	0f56dH
	DW	04357H
	DB	0a8H
	DB	0afH
	DB	09dH
	DB	0abH
	DB	0beH
	DB	06eH
	DB	025H
	DB	0eH
CONST	ENDS
;	COMDAT IID_ID3D11Texture2D
CONST	SEGMENT
IID_ID3D11Texture2D DD 06f15aaf2H
	DW	0d208H
	DW	04e89H
	DB	09aH
	DB	0b4H
	DB	048H
	DB	095H
	DB	035H
	DB	0d3H
	DB	04fH
	DB	09cH
CONST	ENDS
;	COMDAT DXGI_DEBUG_D3D10
CONST	SEGMENT
DXGI_DEBUG_D3D10 DD 0243b4c52H
	DW	03606H
	DW	04d3aH
	DB	099H
	DB	0d7H
	DB	0a7H
	DB	0e7H
	DB	0b3H
	DB	03eH
	DB	0d7H
	DB	06H
CONST	ENDS
;	COMDAT IID_ID3D11Texture1D
CONST	SEGMENT
IID_ID3D11Texture1D DD 0f8fb5c27H
	DW	0c6b3H
	DW	04f75H
	DB	0a4H
	DB	0c8H
	DB	043H
	DB	09aH
	DB	0f2H
	DB	0efH
	DB	056H
	DB	04cH
CONST	ENDS
;	COMDAT IID_ID3D10SwitchToRef
CONST	SEGMENT
IID_ID3D10SwitchToRef DD 09b7e4e02H
	DW	0342cH
	DW	04106H
	DB	0a1H
	DB	09fH
	DB	04fH
	DB	027H
	DB	04H
	DB	0f6H
	DB	089H
	DB	0f0H
CONST	ENDS
;	COMDAT IID_ID3D10Debug
CONST	SEGMENT
IID_ID3D10Debug DD 09b7e4e01H
	DW	0342cH
	DW	04106H
	DB	0a1H
	DB	09fH
	DB	04fH
	DB	027H
	DB	04H
	DB	0f6H
	DB	089H
	DB	0f0H
CONST	ENDS
;	COMDAT IID_ID3D11Buffer
CONST	SEGMENT
IID_ID3D11Buffer DD 048570b85H
	DW	0d1eeH
	DW	04fcdH
	DB	0a2H
	DB	050H
	DB	0ebH
	DB	035H
	DB	07H
	DB	022H
	DB	0b0H
	DB	037H
CONST	ENDS
;	COMDAT IID_ID3D10Multithread
CONST	SEGMENT
IID_ID3D10Multithread DD 09b7e4e00H
	DW	0342cH
	DW	04106H
	DB	0a1H
	DB	09fH
	DB	04fH
	DB	027H
	DB	04H
	DB	0f6H
	DB	089H
	DB	0f0H
CONST	ENDS
;	COMDAT IID_ID3D11Resource
CONST	SEGMENT
IID_ID3D11Resource DD 0dc8e63f3H
	DW	0d12bH
	DW	04952H
	DB	0b4H
	DB	07bH
	DB	05eH
	DB	045H
	DB	02H
	DB	06aH
	DB	086H
	DB	02dH
CONST	ENDS
;	COMDAT IID_ID3D11RasterizerState
CONST	SEGMENT
IID_ID3D11RasterizerState DD 09bb4ab81H
	DW	0ab1aH
	DW	04d8fH
	DB	0b5H
	DB	06H
	DB	0fcH
	DB	04H
	DB	020H
	DB	0bH
	DB	06eH
	DB	0e7H
CONST	ENDS
;	COMDAT IID_ID3D11BlendState
CONST	SEGMENT
IID_ID3D11BlendState DD 075b68faaH
	DW	0347dH
	DW	04159H
	DB	08fH
	DB	045H
	DB	0a0H
	DB	064H
	DB	0fH
	DB	01H
	DB	0cdH
	DB	09aH
CONST	ENDS
;	COMDAT IID_ID3D11DepthStencilState
CONST	SEGMENT
IID_ID3D11DepthStencilState DD 03823efbH
	DW	08d8fH
	DW	04e1cH
	DB	09aH
	DB	0a2H
	DB	0f6H
	DB	04bH
	DB	0b2H
	DB	0cbH
	DB	0fdH
	DB	0f1H
CONST	ENDS
;	COMDAT IID_ID3D10Device
CONST	SEGMENT
IID_ID3D10Device DD 09b7e4c0fH
	DW	0342cH
	DW	04106H
	DB	0a1H
	DB	09fH
	DB	04fH
	DB	027H
	DB	04H
	DB	0f6H
	DB	089H
	DB	0f0H
CONST	ENDS
;	COMDAT IID_ID3D10Counter
CONST	SEGMENT
IID_ID3D10Counter DD 09b7e4c11H
	DW	0342cH
	DW	04106H
	DB	0a1H
	DB	09fH
	DB	04fH
	DB	027H
	DB	04H
	DB	0f6H
	DB	089H
	DB	0f0H
CONST	ENDS
;	COMDAT IID_ID3D11DeviceChild
CONST	SEGMENT
IID_ID3D11DeviceChild DD 01841e5c8H
	DW	016b0H
	DW	0489bH
	DB	0bcH
	DB	0c8H
	DB	044H
	DB	0cfH
	DB	0b0H
	DB	0d5H
	DB	0deH
	DB	0aeH
CONST	ENDS
;	COMDAT IID_ID3D10Predicate
CONST	SEGMENT
IID_ID3D10Predicate DD 09b7e4c10H
	DW	0342cH
	DW	04106H
	DB	0a1H
	DB	09fH
	DB	04fH
	DB	027H
	DB	04H
	DB	0f6H
	DB	089H
	DB	0f0H
CONST	ENDS
;	COMDAT IID_ID3D10Query
CONST	SEGMENT
IID_ID3D10Query DD 09b7e4c0eH
	DW	0342cH
	DW	04106H
	DB	0a1H
	DB	09fH
	DB	04fH
	DB	027H
	DB	04H
	DB	0f6H
	DB	089H
	DB	0f0H
CONST	ENDS
;	COMDAT IID_ID3D10Asynchronous
CONST	SEGMENT
IID_ID3D10Asynchronous DD 09b7e4c0dH
	DW	0342cH
	DW	04106H
	DB	0a1H
	DB	09fH
	DB	04fH
	DB	027H
	DB	04H
	DB	0f6H
	DB	089H
	DB	0f0H
CONST	ENDS
;	COMDAT IID_ID3D10SamplerState
CONST	SEGMENT
IID_ID3D10SamplerState DD 09b7e4c0cH
	DW	0342cH
	DW	04106H
	DB	0a1H
	DB	09fH
	DB	04fH
	DB	027H
	DB	04H
	DB	0f6H
	DB	089H
	DB	0f0H
CONST	ENDS
;	COMDAT IID_ID3D10InputLayout
CONST	SEGMENT
IID_ID3D10InputLayout DD 09b7e4c0bH
	DW	0342cH
	DW	04106H
	DB	0a1H
	DB	09fH
	DB	04fH
	DB	027H
	DB	04H
	DB	0f6H
	DB	089H
	DB	0f0H
CONST	ENDS
;	COMDAT IID_ID3D10PixelShader
CONST	SEGMENT
IID_ID3D10PixelShader DD 04968b601H
	DW	09d00H
	DW	04cdeH
	DB	083H
	DB	046H
	DB	08eH
	DB	07fH
	DB	067H
	DB	058H
	DB	019H
	DB	0b6H
CONST	ENDS
;	COMDAT IID_ID3D10GeometryShader
CONST	SEGMENT
IID_ID3D10GeometryShader DD 06316be88H
	DW	054cdH
	DW	04040H
	DB	0abH
	DB	044H
	DB	020H
	DB	046H
	DB	01bH
	DB	0c8H
	DB	01fH
	DB	068H
CONST	ENDS
;	COMDAT IID_ID3D10VertexShader
CONST	SEGMENT
IID_ID3D10VertexShader DD 09b7e4c0aH
	DW	0342cH
	DW	04106H
	DB	0a1H
	DB	09fH
	DB	04fH
	DB	027H
	DB	04H
	DB	0f6H
	DB	089H
	DB	0f0H
CONST	ENDS
;	COMDAT IID_ID3D10DepthStencilView
CONST	SEGMENT
IID_ID3D10DepthStencilView DD 09b7e4c09H
	DW	0342cH
	DW	04106H
	DB	0a1H
	DB	09fH
	DB	04fH
	DB	027H
	DB	04H
	DB	0f6H
	DB	089H
	DB	0f0H
CONST	ENDS
;	COMDAT D3D_TEXTURE_LAYOUT_64KB_STANDARD_SWIZZLE
CONST	SEGMENT
D3D_TEXTURE_LAYOUT_64KB_STANDARD_SWIZZLE DD 04c0f29e3H
	DW	03f5fH
	DW	04d35H
	DB	084H
	DB	0c9H
	DB	0bcH
	DB	09H
	DB	083H
	DB	0b6H
	DB	02cH
	DB	028H
CONST	ENDS
;	COMDAT D3D_TEXTURE_LAYOUT_ROW_MAJOR
CONST	SEGMENT
D3D_TEXTURE_LAYOUT_ROW_MAJOR DD 0b5dc234fH
	DW	072bbH
	DW	04becH
	DB	097H
	DB	05H
	DB	08cH
	DB	0f2H
	DB	058H
	DB	0dfH
	DB	06bH
	DB	06cH
CONST	ENDS
;	COMDAT WKPDID_CommentStringW
CONST	SEGMENT
WKPDID_CommentStringW DD 0d0149dc0H
	DW	090e8H
	DW	04ec8H
	DB	081H
	DB	044H
	DB	0e9H
	DB	00H
	DB	0adH
	DB	026H
	DB	06bH
	DB	0b2H
CONST	ENDS
;	COMDAT WKPDID_D3DDebugObjectNameW
CONST	SEGMENT
WKPDID_D3DDebugObjectNameW DD 04cca5fd8H
	DW	0921fH
	DW	042c8H
	DB	085H
	DB	066H
	DB	070H
	DB	0caH
	DB	0f2H
	DB	0a9H
	DB	0b7H
	DB	041H
CONST	ENDS
;	COMDAT WKPDID_D3DDebugObjectName
CONST	SEGMENT
WKPDID_D3DDebugObjectName DD 0429b8c22H
	DW	09188H
	DW	04b0cH
	DB	087H
	DB	042H
	DB	0acH
	DB	0b0H
	DB	0bfH
	DB	085H
	DB	0c2H
	DB	00H
CONST	ENDS
;	COMDAT IID_ID3D10RenderTargetView
CONST	SEGMENT
IID_ID3D10RenderTargetView DD 09b7e4c08H
	DW	0342cH
	DW	04106H
	DB	0a1H
	DB	09fH
	DB	04fH
	DB	027H
	DB	04H
	DB	0f6H
	DB	089H
	DB	0f0H
CONST	ENDS
;	COMDAT IID_ID3D10ShaderResourceView
CONST	SEGMENT
IID_ID3D10ShaderResourceView DD 09b7e4c07H
	DW	0342cH
	DW	04106H
	DB	0a1H
	DB	09fH
	DB	04fH
	DB	027H
	DB	04H
	DB	0f6H
	DB	089H
	DB	0f0H
CONST	ENDS
;	COMDAT IID_ID3D10Blob
CONST	SEGMENT
IID_ID3D10Blob DD 08ba5fb08H
	DW	05195H
	DW	040e2H
	DB	0acH
	DB	058H
	DB	0dH
	DB	098H
	DB	09cH
	DB	03aH
	DB	01H
	DB	02H
CONST	ENDS
;	COMDAT IID_ID3D10View
CONST	SEGMENT
IID_ID3D10View DD 0c902b03fH
	DW	060a7H
	DW	049baH
	DB	099H
	DB	036H
	DB	02aH
	DB	03aH
	DB	0b3H
	DB	07aH
	DB	07eH
	DB	033H
CONST	ENDS
;	COMDAT IID_ID3D10Texture3D
CONST	SEGMENT
IID_ID3D10Texture3D DD 09b7e4c05H
	DW	0342cH
	DW	04106H
	DB	0a1H
	DB	09fH
	DB	04fH
	DB	027H
	DB	04H
	DB	0f6H
	DB	089H
	DB	0f0H
CONST	ENDS
;	COMDAT IID_ID3D10Texture2D
CONST	SEGMENT
IID_ID3D10Texture2D DD 09b7e4c04H
	DW	0342cH
	DW	04106H
	DB	0a1H
	DB	09fH
	DB	04fH
	DB	027H
	DB	04H
	DB	0f6H
	DB	089H
	DB	0f0H
CONST	ENDS
;	COMDAT IID_IDXGIDevice1
CONST	SEGMENT
IID_IDXGIDevice1 DD 077db970fH
	DW	06276H
	DW	048baH
	DB	0baH
	DB	028H
	DB	07H
	DB	01H
	DB	043H
	DB	0b4H
	DB	039H
	DB	02cH
CONST	ENDS
;	COMDAT IID_ID3D10Texture1D
CONST	SEGMENT
IID_ID3D10Texture1D DD 09b7e4c03H
	DW	0342cH
	DW	04106H
	DB	0a1H
	DB	09fH
	DB	04fH
	DB	027H
	DB	04H
	DB	0f6H
	DB	089H
	DB	0f0H
CONST	ENDS
;	COMDAT IID_IDXGIAdapter1
CONST	SEGMENT
IID_IDXGIAdapter1 DD 029038f61H
	DW	03839H
	DW	04626H
	DB	091H
	DB	0fdH
	DB	08H
	DB	068H
	DB	079H
	DB	01H
	DB	01aH
	DB	05H
CONST	ENDS
;	COMDAT IID_IDXGIFactory1
CONST	SEGMENT
IID_IDXGIFactory1 DD 0770aae78H
	DW	0f26fH
	DW	04dbaH
	DB	0a8H
	DB	029H
	DB	025H
	DB	03cH
	DB	083H
	DB	0d1H
	DB	0b3H
	DB	087H
CONST	ENDS
;	COMDAT IID_ID3D10Buffer
CONST	SEGMENT
IID_ID3D10Buffer DD 09b7e4c02H
	DW	0342cH
	DW	04106H
	DB	0a1H
	DB	09fH
	DB	04fH
	DB	027H
	DB	04H
	DB	0f6H
	DB	089H
	DB	0f0H
CONST	ENDS
;	COMDAT IID_IDXGIDevice
CONST	SEGMENT
IID_IDXGIDevice DD 054ec77faH
	DW	01377H
	DW	044e6H
	DB	08cH
	DB	032H
	DB	088H
	DB	0fdH
	DB	05fH
	DB	044H
	DB	0c8H
	DB	04cH
CONST	ENDS
;	COMDAT IID_IDXGIFactory
CONST	SEGMENT
IID_IDXGIFactory DD 07b7166ecH
	DW	021c7H
	DW	044aeH
	DB	0b2H
	DB	01aH
	DB	0c9H
	DB	0aeH
	DB	032H
	DB	01aH
	DB	0e3H
	DB	069H
CONST	ENDS
;	COMDAT IID_ID3D10Resource
CONST	SEGMENT
IID_ID3D10Resource DD 09b7e4c01H
	DW	0342cH
	DW	04106H
	DB	0a1H
	DB	09fH
	DB	04fH
	DB	027H
	DB	04H
	DB	0f6H
	DB	089H
	DB	0f0H
CONST	ENDS
;	COMDAT IID_ID3D10RasterizerState
CONST	SEGMENT
IID_ID3D10RasterizerState DD 0a2a07292H
	DW	089afH
	DW	04345H
	DB	0beH
	DB	02eH
	DB	0c5H
	DB	03dH
	DB	09fH
	DB	0bbH
	DB	06eH
	DB	09fH
CONST	ENDS
;	COMDAT IID_IDXGISwapChain
CONST	SEGMENT
IID_IDXGISwapChain DD 0310d36a0H
	DW	0d2e7H
	DW	04c0aH
	DB	0aaH
	DB	04H
	DB	06aH
	DB	09dH
	DB	023H
	DB	0b8H
	DB	088H
	DB	06aH
CONST	ENDS
;	COMDAT IID_ID3D10BlendState
CONST	SEGMENT
IID_ID3D10BlendState DD 0edad8d19H
	DW	08a35H
	DW	04d6dH
	DB	085H
	DB	066H
	DB	02eH
	DB	0a2H
	DB	076H
	DB	0cdH
	DB	0e1H
	DB	061H
CONST	ENDS
;	COMDAT IID_IDXGIOutput
CONST	SEGMENT
IID_IDXGIOutput DD 0ae02eedbH
	DW	0c735H
	DW	04690H
	DB	08dH
	DB	052H
	DB	05aH
	DB	08dH
	DB	0c2H
	DB	02H
	DB	013H
	DB	0aaH
CONST	ENDS
;	COMDAT IID_IDXGIAdapter
CONST	SEGMENT
IID_IDXGIAdapter DD 02411e7e1H
	DW	012acH
	DW	04ccfH
	DB	0bdH
	DB	014H
	DB	097H
	DB	098H
	DB	0e8H
	DB	053H
	DB	04dH
	DB	0c0H
CONST	ENDS
;	COMDAT IID_IDXGISurface1
CONST	SEGMENT
IID_IDXGISurface1 DD 04ae63092H
	DW	06327H
	DW	04c1bH
	DB	080H
	DB	0aeH
	DB	0bfH
	DB	0e1H
	DB	02eH
	DB	0a3H
	DB	02bH
	DB	086H
CONST	ENDS
;	COMDAT IID_ID3D10DepthStencilState
CONST	SEGMENT
IID_ID3D10DepthStencilState DD 02b4b1cc8H
	DW	0a4adH
	DW	041f8H
	DB	083H
	DB	022H
	DB	0caH
	DB	086H
	DB	0fcH
	DB	03eH
	DB	0c6H
	DB	075H
CONST	ENDS
;	COMDAT IID_IDXGISurface
CONST	SEGMENT
IID_IDXGISurface DD 0cafcb56cH
	DW	06ac3H
	DW	04889H
	DB	0bfH
	DB	047H
	DB	09eH
	DB	023H
	DB	0bbH
	DB	0d2H
	DB	060H
	DB	0ecH
CONST	ENDS
;	COMDAT IID_IDXGIKeyedMutex
CONST	SEGMENT
IID_IDXGIKeyedMutex DD 09d8e1289H
	DW	0d7b3H
	DW	0465fH
	DB	081H
	DB	026H
	DB	025H
	DB	0eH
	DB	034H
	DB	09aH
	DB	0f8H
	DB	05dH
CONST	ENDS
;	COMDAT IID_IDXGIResource
CONST	SEGMENT
IID_IDXGIResource DD 035f3ab4H
	DW	0482eH
	DW	04e50H
	DB	0b4H
	DB	01fH
	DB	08aH
	DB	07fH
	DB	08bH
	DB	0d8H
	DB	096H
	DB	0bH
CONST	ENDS
;	COMDAT IID_IDXGIDeviceSubObject
CONST	SEGMENT
IID_IDXGIDeviceSubObject DD 03d3e0379H
	DW	0f9deH
	DW	04d58H
	DB	0bbH
	DB	06cH
	DB	018H
	DB	0d6H
	DB	029H
	DB	092H
	DB	0f1H
	DB	0a6H
CONST	ENDS
;	COMDAT IID_ID3D10DeviceChild
CONST	SEGMENT
IID_ID3D10DeviceChild DD 09b7e4c00H
	DW	0342cH
	DW	04106H
	DB	0a1H
	DB	09fH
	DB	04fH
	DB	027H
	DB	04H
	DB	0f6H
	DB	089H
	DB	0f0H
CONST	ENDS
;	COMDAT IID_IDXGIObject
CONST	SEGMENT
IID_IDXGIObject DD 0aec22fb8H
	DW	076f3H
	DW	04639H
	DB	09bH
	DB	0e0H
	DB	028H
	DB	0ebH
	DB	043H
	DB	0a6H
	DB	07aH
	DB	02eH
CONST	ENDS
;	COMDAT IID_ID3D11InfoQueue
CONST	SEGMENT
IID_ID3D11InfoQueue DD 06543dbb6H
	DW	01b48H
	DW	042f5H
	DB	0abH
	DB	082H
	DB	0e9H
	DB	07eH
	DB	0c7H
	DB	043H
	DB	026H
	DB	0f6H
CONST	ENDS
;	COMDAT DXGI_DEBUG_D3D11
CONST	SEGMENT
DXGI_DEBUG_D3D11 DD 04b99317bH
	DW	0ac39H
	DW	04aa6H
	DB	0bbH
	DB	0bH
	DB	0baH
	DB	0a0H
	DB	047H
	DB	084H
	DB	079H
	DB	08fH
CONST	ENDS
;	COMDAT IID_ID3D11RefDefaultTrackingOptions
CONST	SEGMENT
IID_ID3D11RefDefaultTrackingOptions DD 03916615H
	DW	0c644H
	DW	0418cH
	DB	09bH
	DB	0f4H
	DB	075H
	DB	0dbH
	DB	05bH
	DB	0e6H
	DB	03cH
	DB	0a0H
CONST	ENDS
;	COMDAT IID_ID3D11RefTrackingOptions
CONST	SEGMENT
IID_ID3D11RefTrackingOptions DD 0193dacdfH
	DW	0db2H
	DW	04c05H
	DB	0a5H
	DB	05cH
	DB	0efH
	DB	06H
	DB	0caH
	DB	0c5H
	DB	06fH
	DB	0d9H
CONST	ENDS
;	COMDAT IID_ID3D11TracingDevice
CONST	SEGMENT
IID_ID3D11TracingDevice DD 01911c771H
	DW	01587H
	DW	0413eH
	DB	0a7H
	DB	0e0H
	DB	0fbH
	DB	026H
	DB	0c3H
	DB	0deH
	DB	02H
	DB	068H
CONST	ENDS
;	COMDAT IID_ID3D11SwitchToRef
CONST	SEGMENT
IID_ID3D11SwitchToRef DD 01ef337e3H
	DW	058e7H
	DW	04f83H
	DB	0a6H
	DB	092H
	DB	0dbH
	DB	022H
	DB	01fH
	DB	05eH
	DB	0d4H
	DB	07eH
CONST	ENDS
;	COMDAT IID_ID3D11Debug
CONST	SEGMENT
IID_ID3D11Debug DD 079cf2233H
	DW	07536H
	DW	04948H
	DB	09dH
	DB	036H
	DB	01eH
	DB	046H
	DB	092H
	DB	0dcH
	DB	057H
	DB	060H
CONST	ENDS
;	COMDAT IID_ID3D11Device
CONST	SEGMENT
IID_ID3D11Device DD 0db6f6ddbH
	DW	0ac77H
	DW	04e88H
	DB	082H
	DB	053H
	DB	081H
	DB	09dH
	DB	0f9H
	DB	0bbH
	DB	0f1H
	DB	040H
CONST	ENDS
;	COMDAT IID_ID3D11VideoDevice
CONST	SEGMENT
IID_ID3D11VideoDevice DD 010ec4d5bH
	DW	0975aH
	DW	04689H
	DB	0b9H
	DB	0e4H
	DB	0d0H
	DB	0aaH
	DB	0c3H
	DB	0fH
	DB	0e3H
	DB	033H
CONST	ENDS
;	COMDAT IID_ID3D11VideoContext
CONST	SEGMENT
IID_ID3D11VideoContext DD 061f21c45H
	DW	03c0eH
	DW	04a74H
	DB	09cH
	DB	0eaH
	DB	067H
	DB	010H
	DB	0dH
	DB	09aH
	DB	0d5H
	DB	0e4H
CONST	ENDS
;	COMDAT IID_ID3D11VideoProcessorOutputView
CONST	SEGMENT
IID_ID3D11VideoProcessorOutputView DD 0a048285eH
	DW	025a9H
	DW	04527H
	DB	0bdH
	DB	093H
	DB	0d6H
	DB	08bH
	DB	068H
	DB	0c4H
	DB	042H
	DB	054H
CONST	ENDS
;	COMDAT IID_ID3D11VideoProcessorInputView
CONST	SEGMENT
IID_ID3D11VideoProcessorInputView DD 011ec5a5fH
	DW	051dcH
	DW	04945H
	DB	0abH
	DB	034H
	DB	06eH
	DB	08cH
	DB	021H
	DB	030H
	DB	0eH
	DB	0a5H
CONST	ENDS
;	COMDAT IID_ID3D11VideoDecoderOutputView
CONST	SEGMENT
IID_ID3D11VideoDecoderOutputView DD 0c2931aeaH
	DW	02a85H
	DW	04f20H
	DB	086H
	DB	0fH
	DB	0fbH
	DB	0a1H
	DB	0fdH
	DB	025H
	DB	06eH
	DB	018H
CONST	ENDS
;	COMDAT IID_ID3D11CryptoSession
CONST	SEGMENT
IID_ID3D11CryptoSession DD 09b32f9adH
	DW	0bdccH
	DW	040a6H
	DB	0a3H
	DB	09dH
	DB	0d5H
	DB	0c8H
	DB	065H
	DB	084H
	DB	057H
	DB	020H
CONST	ENDS
;	COMDAT D3D11_KEY_EXCHANGE_RSAES_OAEP
CONST	SEGMENT
D3D11_KEY_EXCHANGE_RSAES_OAEP DD 0c1949895H
	DW	0d72aH
	DW	04a1dH
	DB	08eH
	DB	05dH
	DB	0edH
	DB	085H
	DB	07dH
	DB	017H
	DB	015H
	DB	020H
CONST	ENDS
;	COMDAT D3D11_AUTHENTICATED_CONFIGURE_ENCRYPTION_WHEN_ACCESSIBLE
CONST	SEGMENT
D3D11_AUTHENTICATED_CONFIGURE_ENCRYPTION_WHEN_ACCESSIBLE DD 041fff286H
	DW	06ae0H
	DW	04d43H
	DB	09dH
	DB	055H
	DB	0a4H
	DB	06eH
	DB	09eH
	DB	0fdH
	DB	015H
	DB	08aH
CONST	ENDS
;	COMDAT D3D11_AUTHENTICATED_CONFIGURE_SHARED_RESOURCE
CONST	SEGMENT
D3D11_AUTHENTICATED_CONFIGURE_SHARED_RESOURCE DD 0772d047H
	DW	01b40H
	DW	048e8H
	DB	09cH
	DB	0a6H
	DB	0b5H
	DB	0f5H
	DB	010H
	DB	0deH
	DB	09fH
	DB	01H
CONST	ENDS
;	COMDAT D3D11_AUTHENTICATED_CONFIGURE_CRYPTO_SESSION
CONST	SEGMENT
D3D11_AUTHENTICATED_CONFIGURE_CRYPTO_SESSION DD 06346cc54H
	DW	02cfcH
	DW	04ad4H
	DB	082H
	DB	024H
	DB	0d1H
	DB	058H
	DB	037H
	DB	0deH
	DB	077H
	DB	00H
CONST	ENDS
;	COMDAT D3D11_AUTHENTICATED_CONFIGURE_PROTECTION
CONST	SEGMENT
D3D11_AUTHENTICATED_CONFIGURE_PROTECTION DD 050455658H
	DW	03f47H
	DW	04362H
	DB	0bfH
	DB	099H
	DB	0bfH
	DB	0dfH
	DB	0cdH
	DB	0e9H
	DB	0edH
	DB	029H
CONST	ENDS
;	COMDAT D3D11_AUTHENTICATED_CONFIGURE_INITIALIZE
CONST	SEGMENT
D3D11_AUTHENTICATED_CONFIGURE_INITIALIZE DD 06114bdbH
	DW	03523H
	DW	0470aH
	DB	08dH
	DB	0caH
	DB	0fbH
	DB	0c2H
	DB	084H
	DB	051H
	DB	054H
	DB	0f0H
CONST	ENDS
;	COMDAT D3D11_AUTHENTICATED_QUERY_CURRENT_ENCRYPTION_WHEN_ACCESSIBLE
CONST	SEGMENT
D3D11_AUTHENTICATED_QUERY_CURRENT_ENCRYPTION_WHEN_ACCESSIBLE DD 0ec1791c7H
	DW	0dad3H
	DW	04f15H
	DB	09eH
	DB	0c3H
	DB	0faH
	DB	0a9H
	DB	03dH
	DB	060H
	DB	0d4H
	DB	0f0H
CONST	ENDS
;	COMDAT D3D11_AUTHENTICATED_QUERY_ENCRYPTION_WHEN_ACCESSIBLE_GUID
CONST	SEGMENT
D3D11_AUTHENTICATED_QUERY_ENCRYPTION_WHEN_ACCESSIBLE_GUID DD 0f83a5958H
	DW	0e986H
	DW	04bdaH
	DB	0beH
	DB	0b0H
	DB	041H
	DB	01fH
	DB	06aH
	DB	07aH
	DB	01H
	DB	0b7H
CONST	ENDS
;	COMDAT D3D11_AUTHENTICATED_QUERY_ENCRYPTION_WHEN_ACCESSIBLE_GUID_COUNT
CONST	SEGMENT
D3D11_AUTHENTICATED_QUERY_ENCRYPTION_WHEN_ACCESSIBLE_GUID_COUNT DD 0b30f7066H
	DW	0203cH
	DW	04b07H
	DB	093H
	DB	0fcH
	DB	0ceH
	DB	0aaH
	DB	0fdH
	DB	061H
	DB	024H
	DB	01eH
CONST	ENDS
;	COMDAT D3D11_AUTHENTICATED_QUERY_ACCESSIBILITY_ATTRIBUTES
CONST	SEGMENT
D3D11_AUTHENTICATED_QUERY_ACCESSIBILITY_ATTRIBUTES DD 06214d9d2H
	DW	0432cH
	DW	04abbH
	DB	09fH
	DB	0ceH
	DB	021H
	DB	06eH
	DB	0eaH
	DB	026H
	DB	09eH
	DB	03bH
CONST	ENDS
;	COMDAT D3D11_AUTHENTICATED_QUERY_OUTPUT_ID
CONST	SEGMENT
D3D11_AUTHENTICATED_QUERY_OUTPUT_ID DD 0839ddca3H
	DW	09b4eH
	DW	041e4H
	DB	0b0H
	DB	053H
	DB	089H
	DB	02bH
	DB	0d2H
	DB	0a1H
	DB	01eH
	DB	0e7H
CONST	ENDS
;	COMDAT D3D11_AUTHENTICATED_QUERY_OUTPUT_ID_COUNT
CONST	SEGMENT
D3D11_AUTHENTICATED_QUERY_OUTPUT_ID_COUNT DD 02c042b5eH
	DW	08c07H
	DW	046d5H
	DB	0aaH
	DB	0beH
	DB	08fH
	DB	075H
	DB	0cbH
	DB	0adH
	DB	04cH
	DB	031H
CONST	ENDS
;	COMDAT D3D11_AUTHENTICATED_QUERY_UNRESTRICTED_PROTECTED_SHARED_RESOURCE_COUNT
CONST	SEGMENT
D3D11_AUTHENTICATED_QUERY_UNRESTRICTED_PROTECTED_SHARED_RESOURCE_COUNT DD 012f0bd6H
	DW	0e662H
	DW	04474H
	DB	0beH
	DB	0fdH
	DB	0aaH
	DB	053H
	DB	0e5H
	DB	014H
	DB	03cH
	DB	06dH
CONST	ENDS
;	COMDAT D3D11_AUTHENTICATED_QUERY_RESTRICTED_SHARED_RESOURCE_PROCESS
CONST	SEGMENT
D3D11_AUTHENTICATED_QUERY_RESTRICTED_SHARED_RESOURCE_PROCESS DD 0649bbadbH
	DW	0f0f4H
	DW	04639H
	DB	0a1H
	DB	05bH
	DB	024H
	DB	039H
	DB	03fH
	DB	0c3H
	DB	0abH
	DB	0acH
CONST	ENDS
;	COMDAT D3D11_AUTHENTICATED_QUERY_RESTRICTED_SHARED_RESOURCE_PROCESS_COUNT
CONST	SEGMENT
D3D11_AUTHENTICATED_QUERY_RESTRICTED_SHARED_RESOURCE_PROCESS_COUNT DD 0db207b3H
	DW	09450H
	DW	046a6H
	DB	082H
	DB	0deH
	DB	01bH
	DB	096H
	DB	0d4H
	DB	04fH
	DB	09cH
	DB	0f2H
CONST	ENDS
;	COMDAT D3D11_AUTHENTICATED_QUERY_CRYPTO_SESSION
CONST	SEGMENT
D3D11_AUTHENTICATED_QUERY_CRYPTO_SESSION DD 02634499eH
	DW	0d018H
	DW	04d74H
	DB	0acH
	DB	017H
	DB	07fH
	DB	072H
	DB	040H
	DB	059H
	DB	052H
	DB	08dH
CONST	ENDS
;	COMDAT D3D11_AUTHENTICATED_QUERY_DEVICE_HANDLE
CONST	SEGMENT
D3D11_AUTHENTICATED_QUERY_DEVICE_HANDLE DD 0ec1c539dH
	DW	08cffH
	DW	04e2aH
	DB	0bcH
	DB	0c4H
	DB	0f5H
	DB	069H
	DB	02fH
	DB	099H
	DB	0f4H
	DB	080H
CONST	ENDS
;	COMDAT D3D11_AUTHENTICATED_QUERY_CHANNEL_TYPE
CONST	SEGMENT
D3D11_AUTHENTICATED_QUERY_CHANNEL_TYPE DD 0bc1b18a5H
	DW	0b1fbH
	DW	042abH
	DB	0bdH
	DB	094H
	DB	0b5H
	DB	082H
	DB	08bH
	DB	04bH
	DB	0f7H
	DB	0beH
CONST	ENDS
;	COMDAT D3D11_AUTHENTICATED_QUERY_PROTECTION
CONST	SEGMENT
D3D11_AUTHENTICATED_QUERY_PROTECTION DD 0a84eb584H
	DW	0c495H
	DW	048aaH
	DB	0b9H
	DB	04dH
	DB	08bH
	DB	0d2H
	DB	0d6H
	DB	0fbH
	DB	0ceH
	DB	05H
CONST	ENDS
;	COMDAT IID_ID3D11AuthenticatedChannel
CONST	SEGMENT
IID_ID3D11AuthenticatedChannel DD 03015a308H
	DW	0dcbdH
	DW	047aaH
	DB	0a7H
	DB	047H
	DB	019H
	DB	024H
	DB	086H
	DB	0d1H
	DB	04dH
	DB	04aH
CONST	ENDS
;	COMDAT IID_ID3D11VideoProcessor
CONST	SEGMENT
IID_ID3D11VideoProcessor DD 01d7b0652H
	DW	0185fH
	DW	041c6H
	DB	085H
	DB	0ceH
	DB	0cH
	DB	05bH
	DB	0e3H
	DB	0d4H
	DB	0aeH
	DB	06cH
CONST	ENDS
;	COMDAT IID_ID3D11VideoProcessorEnumerator
CONST	SEGMENT
IID_ID3D11VideoProcessorEnumerator DD 031627037H
	DW	053abH
	DW	04200H
	DB	090H
	DB	061H
	DB	05H
	DB	0faH
	DB	0a9H
	DB	0abH
	DB	045H
	DB	0f9H
CONST	ENDS
;	COMDAT IID_ID3D10ShaderReflection1
CONST	SEGMENT
IID_ID3D10ShaderReflection1 DD 0c3457783H
	DW	0a846H
	DW	047ceH
	DB	095H
	DB	020H
	DB	0ceH
	DB	0a6H
	DB	0f6H
	DB	06eH
	DB	074H
	DB	047H
CONST	ENDS
;	COMDAT D3D11_KEY_EXCHANGE_HW_PROTECTION
CONST	SEGMENT
D3D11_KEY_EXCHANGE_HW_PROTECTION DD 0b1170d8aH
	DW	0628dH
	DW	04da3H
	DB	0adH
	DB	03bH
	DB	082H
	DB	0ddH
	DB	0b0H
	DB	08bH
	DB	049H
	DB	070H
CONST	ENDS
;	COMDAT D3D11_DECODER_BITSTREAM_ENCRYPTION_TYPE_CBCS
CONST	SEGMENT
D3D11_DECODER_BITSTREAM_ENCRYPTION_TYPE_CBCS DD 0422d9319H
	DW	09d21H
	DW	04bb7H
	DB	093H
	DB	071H
	DB	0faH
	DB	0f5H
	DB	0a8H
	DB	02cH
	DB	03eH
	DB	04H
CONST	ENDS
;	COMDAT D3D11_DECODER_BITSTREAM_ENCRYPTION_TYPE_CENC
CONST	SEGMENT
D3D11_DECODER_BITSTREAM_ENCRYPTION_TYPE_CENC DD 0b0405235H
	DW	0c13dH
	DW	044f2H
	DB	09aH
	DB	0e5H
	DB	0ddH
	DB	048H
	DB	0e0H
	DB	08eH
	DB	05bH
	DB	067H
CONST	ENDS
;	COMDAT D3D11_DECODER_ENCRYPTION_HW_CENC
CONST	SEGMENT
D3D11_DECODER_ENCRYPTION_HW_CENC DD 089d6ac4fH
	DW	09f2H
	DW	04229H
	DB	0b2H
	DB	0cdH
	DB	037H
	DB	074H
	DB	0aH
	DB	06dH
	DB	0fdH
	DB	081H
CONST	ENDS
;	COMDAT D3D11_CRYPTO_TYPE_AES128_CTR
CONST	SEGMENT
D3D11_CRYPTO_TYPE_AES128_CTR DD 09b6bd711H
	DW	04f74H
	DW	041c9H
	DB	09eH
	DB	07bH
	DB	0bH
	DB	0e2H
	DB	0d7H
	DB	0d9H
	DB	03bH
	DB	04fH
CONST	ENDS
CONST	SEGMENT
?HW_DECODE_LIST@@3QBUCodecMap@@B DD 01bH		; HW_DECODE_LIST
	DD	01H
	DD	0adH
	DD	02H
	DD	02H
	DD	04H
	DD	08bH
	DD	06H
	DD	0a7H
	DD	07H
	DD	046H
	DD	08H
$SG139492 DB	'auto', 00H
	ORG $+3
$SG139494 DB	'copy', 00H
	ORG $+3
$SG139619 DB	'.', 0aH, 00H
	ORG $+1
$SG139620 DB	' for ', 00H
	ORG $+2
$SG139699 DB	'srt', 00H
$SG139623 DB	'avcodec-58.dll', 00H
	ORG $+1
$SG139624 DB	'avformat-58.dll', 00H
$SG139625 DB	'avutil-56.dll', 00H
	ORG $+2
$SG139626 DB	'avfilter-7.dll', 00H
	ORG $+1
$SG139627 DB	'swresample-3.dll', 00H
	ORG $+3
$SG139700 DB	'ass', 00H
$SG139698 DB	'invalid', 00H
$SG139707 DB	'invalid', 00H
$SG139708 DB	'kigou', 00H
	ORG $+2
$SG139709 DB	'box', 00H
$SG139710 DB	'draw', 00H
	ORG $+3
$SG158726 DB	'%s', 00H
	ORG $+1
$SG158725 DB	'invalid argument', 00H
	ORG $+7
$SG158730 DB	'"', 00H, 'i', 00H, 'n', 00H, 'v', 00H, 'a', 00H, 'l', 00H
	DB	'i', 00H, 'd', 00H, ' ', 00H, 'a', 00H, 'r', 00H, 'g', 00H, 'u'
	DB	00H, 'm', 00H, 'e', 00H, 'n', 00H, 't', 00H, '"', 00H, 00H, 00H
	ORG $+2
$SG158727 DB	'C:\Program Files (x86)\Microsoft Visual Studio\2019\Comm'
	DB	'unity\VC\Tools\MSVC\14.23.28105\include\xmemory', 00H
$SG110628 DB	'Invalid', 00H
$SG158728 DB	'C', 00H, ':', 00H, '\', 00H, 'P', 00H, 'r', 00H, 'o', 00H
	DB	'g', 00H, 'r', 00H, 'a', 00H, 'm', 00H, ' ', 00H, 'F', 00H, 'i'
	DB	00H, 'l', 00H, 'e', 00H, 's', 00H, ' ', 00H, '(', 00H, 'x', 00H
	DB	'8', 00H, '6', 00H, ')', 00H, '\', 00H, 'M', 00H, 'i', 00H, 'c'
	DB	00H, 'r', 00H, 'o', 00H, 's', 00H, 'o', 00H, 'f', 00H, 't', 00H
	DB	' ', 00H, 'V', 00H, 'i', 00H, 's', 00H, 'u', 00H, 'a', 00H, 'l'
	DB	00H, ' ', 00H, 'S', 00H, 't', 00H, 'u', 00H, 'd', 00H, 'i', 00H
	DB	'o', 00H, '\', 00H, '2', 00H, '0', 00H, '1', 00H, '9', 00H, '\'
	DB	00H, 'C', 00H, 'o', 00H, 'm', 00H, 'm', 00H, 'u', 00H, 'n', 00H
	DB	'i', 00H, 't', 00H, 'y', 00H, '\', 00H, 'V', 00H, 'C', 00H, '\'
	DB	00H, 'T', 00H, 'o', 00H, 'o', 00H, 'l', 00H, 's', 00H, '\', 00H
	DB	'M', 00H, 'S', 00H, 'V', 00H, 'C', 00H, '\', 00H, '1', 00H, '4'
	DB	00H, '.', 00H, '2', 00H, '3', 00H, '.', 00H, '2', 00H, '8', 00H
	DB	'1', 00H, '0', 00H, '5', 00H, '\', 00H, 'i', 00H, 'n', 00H, 'c'
	DB	00H, 'l', 00H, 'u', 00H, 'd', 00H, 'e', 00H, '\', 00H, 'x', 00H
	DB	'm', 00H, 'e', 00H, 'm', 00H, 'o', 00H, 'r', 00H, 'y', 00H, 00H
	DB	00H
$SG158729 DB	's', 00H, 't', 00H, 'd', 00H, ':', 00H, ':', 00H, '_', 00H
	DB	'A', 00H, 'l', 00H, 'l', 00H, 'o', 00H, 'c', 00H, 'a', 00H, 't'
	DB	00H, 'e', 00H, '_', 00H, 'm', 00H, 'a', 00H, 'n', 00H, 'u', 00H
	DB	'a', 00H, 'l', 00H, 'l', 00H, 'y', 00H, '_', 00H, 'v', 00H, 'e'
	DB	00H, 'c', 00H, 't', 00H, 'o', 00H, 'r', 00H, '_', 00H, 'a', 00H
	DB	'l', 00H, 'i', 00H, 'g', 00H, 'n', 00H, 'e', 00H, 'd', 00H, 00H
	DB	00H
	ORG $+2
$SG158926 DB	'C:\Program Files (x86)\Microsoft Visual Studio\2019\Comm'
	DB	'unity\VC\Tools\MSVC\14.23.28105\include\xlocale', 00H
$SG110629 DB	'nv12', 00H
	ORG $+3
$SG110630 DB	'yv12', 00H
	ORG $+3
$SG110631 DB	'yuy2', 00H
	ORG $+3
$SG110632 DB	'yuv422', 00H
	ORG $+1
$SG110633 DB	'nv16', 00H
	ORG $+3
$SG110634 DB	'yuv444', 00H
	ORG $+1
$SG110635 DB	'yv12(9bit)', 00H
	ORG $+1
$SG110660 DB	'rgb', 00H
$SG110636 DB	'yv12(10bit)', 00H
$SG110662 DB	'gbr', 00H
$SG110637 DB	'yv12(12bit)', 00H
$SG110665 DB	'y8', 00H
	ORG $+1
$SG110638 DB	'yv12(14bit)', 00H
$SG143904 DB	'vp8', 00H
$SG110639 DB	'yv12(16bit)', 00H
$SG110640 DB	'p010', 00H
	ORG $+3
$SG110654 DB	'rgb24r', 00H
	ORG $+1
$SG143905 DB	'raw', 00H
$SG110641 DB	'yuv422(9bit)', 00H
	ORG $+3
$SG110642 DB	'yuv422(10bit)', 00H
	ORG $+2
$SG110643 DB	'yuv422(12bit)', 00H
	ORG $+2
$SG110644 DB	'yuv422(14bit)', 00H
	ORG $+2
$SG110645 DB	'yuv422(16bit)', 00H
	ORG $+2
$SG110646 DB	'p210', 00H
	ORG $+3
$SG110647 DB	'yuv444(9bit)', 00H
	ORG $+3
$SG110648 DB	'yuv444(10bit)', 00H
	ORG $+2
$SG110649 DB	'yuv444(12bit)', 00H
	ORG $+2
$SG110650 DB	'yuv444(14bit)', 00H
	ORG $+2
$SG110651 DB	'yuv444(16bit)', 00H
	ORG $+2
$SG110652 DB	'yuva444', 00H
$SG110653 DB	'yuva444(16bit)', 00H
	ORG $+1
$SG110655 DB	'rgb32r', 00H
	ORG $+1
$SG110656 DB	'rgb24', 00H
	ORG $+2
$SG110657 DB	'rgb32', 00H
	ORG $+2
$SG110658 DB	'bgr24', 00H
	ORG $+2
$SG110659 DB	'bgr32', 00H
	ORG $+2
$SG110661 DB	'rgba', 00H
	ORG $+3
$SG110663 DB	'gbra', 00H
	ORG $+3
$SG110664 DB	'yc48', 00H
	ORG $+3
$SG110666 DB	'yc16', 00H
	ORG $+3
$SG143900 DB	'h264', 00H
	ORG $+3
$SG143901 DB	'hevc', 00H
	ORG $+3
$SG143902 DB	'mpeg2', 00H
	ORG $+2
$SG143903 DB	'vc-1', 00H
	ORG $+3
$SG143907 DB	'CBR', 00H
$SG143908 DB	'VBR', 00H
$SG143909 DB	'CQP', 00H
$SG143910 DB	'AVBR', 00H
	ORG $+3
$SG143911 DB	'LA', 00H
	ORG $+1
$SG143912 DB	'LA-EXT', 00H
	ORG $+1
$SG143913 DB	'LA-HRD', 00H
	ORG $+1
$SG143914 DB	'LA-ICQ', 00H
	ORG $+1
$SG143915 DB	'ICQ', 00H
$SG143916 DB	'QVBR', 00H
	ORG $+3
$SG143917 DB	'VCM', 00H
?list_avc_profile@@3QBUCX_DESC@@B DQ FLAT:$SG143919	; list_avc_profile
	DD	00H
	ORG $+4
	DQ	FLAT:$SG143920
	DD	042H
	ORG $+4
	DQ	FLAT:$SG143921
	DD	04dH
	ORG $+4
	DQ	FLAT:$SG143922
	DD	064H
	ORG $+4
	DQ	0000000000000000H
	DD	00H
	ORG $+4
$SG143919 DB	'auto', 00H
	ORG $+3
$SG143920 DB	'Baseline', 00H
	ORG $+3
$SG143921 DB	'Main', 00H
	ORG $+3
$SG143922 DB	'High', 00H
	ORG $+3
$SG143924 DB	'auto', 00H
	ORG $+7
?list_hevc_profile@@3QBUCX_DESC@@B DQ FLAT:$SG143924	; list_hevc_profile
	DD	00H
	ORG $+4
	DQ	FLAT:$SG143925
	DD	01H
	ORG $+4
	DQ	FLAT:$SG143926
	DD	02H
	ORG $+4
	DQ	0000000000000000H
	DD	00H
	ORG $+4
$SG143925 DB	'main', 00H
	ORG $+3
$SG143926 DB	'main10', 00H
	ORG $+1
$SG143928 DB	'main', 00H
	ORG $+3
$SG143929 DB	'high', 00H
	ORG $+3
?list_mpeg2_profile@@3QBUCX_DESC@@B DQ FLAT:$SG143931	; list_mpeg2_profile
	DD	00H
	ORG $+4
	DQ	FLAT:$SG143932
	DD	050H
	ORG $+4
	DQ	FLAT:$SG143933
	DD	040H
	ORG $+4
	DQ	FLAT:$SG143934
	DD	010H
	ORG $+4
	DQ	0000000000000000H
	DD	00H
	ORG $+4
$SG143931 DB	'auto', 00H
	ORG $+3
$SG143932 DB	'Simple', 00H
	ORG $+1
$SG143933 DB	'Main', 00H
	ORG $+3
$SG143934 DB	'High', 00H
	ORG $+3
?list_vc1_profile@@3QBUCX_DESC@@B DQ FLAT:$SG143936	; list_vc1_profile
	DD	00H
	ORG $+4
	DQ	FLAT:$SG143937
	DD	01H
	ORG $+4
	DQ	FLAT:$SG143938
	DD	05H
	ORG $+4
	DQ	FLAT:$SG143939
	DD	0dH
	ORG $+4
	DQ	0000000000000000H
	DD	00H
	ORG $+4
$SG143936 DB	'auto', 00H
	ORG $+3
$SG143937 DB	'Simple', 00H
	ORG $+1
$SG143938 DB	'Main', 00H
	ORG $+3
$SG143939 DB	'Advanced', 00H
	ORG $+3
$SG143941 DB	'auto', 00H
	ORG $+7
?list_vp8_profile@@3QBUCX_DESC@@B DQ FLAT:$SG143941	; list_vp8_profile
	DD	00H
	ORG $+4
	DQ	FLAT:$SG143942
	DD	01H
	ORG $+4
	DQ	FLAT:$SG143943
	DD	02H
	ORG $+4
	DQ	FLAT:$SG143944
	DD	03H
	ORG $+4
	DQ	FLAT:$SG143945
	DD	04H
	ORG $+4
	DQ	0000000000000000H
	DD	00H
	ORG $+4
$SG143942 DB	'0', 00H
	ORG $+2
$SG143943 DB	'1', 00H
	ORG $+2
$SG143944 DB	'2', 00H
	ORG $+2
$SG143945 DB	'3', 00H
	ORG $+2
?list_vp9_profile@@3QBUCX_DESC@@B DQ FLAT:$SG143947	; list_vp9_profile
	DD	00H
	ORG $+4
	DQ	FLAT:$SG143948
	DD	01H
	ORG $+4
	DQ	FLAT:$SG143949
	DD	02H
	ORG $+4
	DQ	FLAT:$SG143950
	DD	03H
	ORG $+4
	DQ	FLAT:$SG143951
	DD	04H
	ORG $+4
	DQ	0000000000000000H
	DD	00H
	ORG $+4
$SG143947 DB	'auto', 00H
	ORG $+3
$SG143948 DB	'0', 00H
	ORG $+2
$SG143949 DB	'1', 00H
	ORG $+2
$SG143950 DB	'2', 00H
	ORG $+2
$SG143951 DB	'3', 00H
	ORG $+2
$SG143953 DB	'8', 00H
	ORG $+2
$SG143954 DB	'10', 00H
	ORG $+1
$SG143956 DB	'progressive', 00H
$SG143962 DB	'it', 00H
	ORG $+1
$SG143957 DB	'interlaced(tff)', 00H
$SG143958 DB	'interlaced(bff)', 00H
$SG143960 DB	'none', 00H
	ORG $+3
$SG143961 DB	'normal', 00H
	ORG $+1
$SG143963 DB	'bob', 00H
$SG143965 DB	'32', 00H
	ORG $+1
$SG143966 DB	'2332', 00H
	ORG $+3
$SG143967 DB	'repeat', 00H
	ORG $+1
$SG143968 DB	'41', 00H
	ORG $+5
?list_avc_level@@3QBUCX_DESC@@B DQ FLAT:$SG143970	; list_avc_level
	DD	00H
	ORG $+4
	DQ	FLAT:$SG143971
	DD	0aH
	ORG $+4
	DQ	FLAT:$SG143972
	DD	09H
	ORG $+4
	DQ	FLAT:$SG143973
	DD	0bH
	ORG $+4
	DQ	FLAT:$SG143974
	DD	0cH
	ORG $+4
	DQ	FLAT:$SG143975
	DD	0dH
	ORG $+4
	DQ	FLAT:$SG143976
	DD	014H
	ORG $+4
	DQ	FLAT:$SG143977
	DD	015H
	ORG $+4
	DQ	FLAT:$SG143978
	DD	016H
	ORG $+4
	DQ	FLAT:$SG143979
	DD	01eH
	ORG $+4
	DQ	FLAT:$SG143980
	DD	01fH
	ORG $+4
	DQ	FLAT:$SG143981
	DD	020H
	ORG $+4
	DQ	FLAT:$SG143982
	DD	028H
	ORG $+4
	DQ	FLAT:$SG143983
	DD	029H
	ORG $+4
	DQ	FLAT:$SG143984
	DD	02aH
	ORG $+4
	DQ	FLAT:$SG143985
	DD	032H
	ORG $+4
	DQ	FLAT:$SG143986
	DD	033H
	ORG $+4
	DQ	FLAT:$SG143987
	DD	034H
	ORG $+4
	DQ	0000000000000000H
	DD	00H
	ORG $+4
$SG143970 DB	'auto', 00H
	ORG $+3
$SG143971 DB	'1', 00H
	ORG $+2
$SG143972 DB	'1b', 00H
	ORG $+1
$SG143973 DB	'1.1', 00H
$SG143974 DB	'1.2', 00H
$SG143975 DB	'1.3', 00H
$SG143976 DB	'2', 00H
	ORG $+2
$SG143977 DB	'2.1', 00H
$SG143978 DB	'2.2', 00H
$SG143979 DB	'3', 00H
	ORG $+2
$SG143980 DB	'3.1', 00H
$SG143981 DB	'3.2', 00H
$SG143982 DB	'4', 00H
	ORG $+2
$SG143983 DB	'4.1', 00H
$SG143984 DB	'4.2', 00H
$SG143985 DB	'5', 00H
	ORG $+2
$SG143986 DB	'5.1', 00H
$SG143987 DB	'5.2', 00H
	ORG $+4
?list_hevc_level@@3QBUCX_DESC@@B DQ FLAT:$SG143989	; list_hevc_level
	DD	00H
	ORG $+4
	DQ	FLAT:$SG143990
	DD	0aH
	ORG $+4
	DQ	FLAT:$SG143991
	DD	014H
	ORG $+4
	DQ	FLAT:$SG143992
	DD	015H
	ORG $+4
	DQ	FLAT:$SG143993
	DD	01eH
	ORG $+4
	DQ	FLAT:$SG143994
	DD	01fH
	ORG $+4
	DQ	FLAT:$SG143995
	DD	028H
	ORG $+4
	DQ	FLAT:$SG143996
	DD	029H
	ORG $+4
	DQ	FLAT:$SG143997
	DD	032H
	ORG $+4
	DQ	FLAT:$SG143998
	DD	033H
	ORG $+4
	DQ	FLAT:$SG143999
	DD	034H
	ORG $+4
	DQ	FLAT:$SG144000
	DD	03cH
	ORG $+4
	DQ	FLAT:$SG144001
	DD	03dH
	ORG $+4
	DQ	FLAT:$SG144002
	DD	03eH
	ORG $+4
	DQ	0000000000000000H
	DD	00H
	ORG $+4
$SG143989 DB	'auto', 00H
	ORG $+3
$SG143990 DB	'1', 00H
	ORG $+2
$SG143991 DB	'2', 00H
	ORG $+2
$SG143992 DB	'2.1', 00H
$SG143993 DB	'3', 00H
	ORG $+2
$SG143994 DB	'3.1', 00H
$SG143995 DB	'4', 00H
	ORG $+2
$SG143996 DB	'4.1', 00H
$SG143997 DB	'5', 00H
	ORG $+2
$SG143998 DB	'5.1', 00H
$SG143999 DB	'5.2', 00H
$SG144000 DB	'6', 00H
	ORG $+2
$SG144001 DB	'6.1', 00H
$SG144002 DB	'6.2', 00H
	ORG $+4
?list_mpeg2_level@@3QBUCX_DESC@@B DQ FLAT:$SG144004	; list_mpeg2_level
	DD	00H
	ORG $+4
	DQ	FLAT:$SG144005
	DD	0aH
	ORG $+4
	DQ	FLAT:$SG144006
	DD	08H
	ORG $+4
	DQ	FLAT:$SG144007
	DD	04H
	ORG $+4
	DQ	FLAT:$SG144008
	DD	06H
	ORG $+4
	DQ	0000000000000000H
	DD	00H
	ORG $+4
$SG144004 DB	'auto', 00H
	ORG $+3
$SG144005 DB	'low', 00H
$SG144006 DB	'main', 00H
	ORG $+3
$SG144007 DB	'high', 00H
	ORG $+3
$SG144011 DB	'low', 00H
$SG144008 DB	'high1440', 00H
	ORG $+7
?list_vc1_level@@3QBUCX_DESC@@B DQ FLAT:$SG144010	; list_vc1_level
	DD	00H
	ORG $+4
	DQ	FLAT:$SG144011
	DD	01H
	ORG $+4
	DQ	FLAT:$SG144012
	DD	03H
	ORG $+4
	DQ	FLAT:$SG144013
	DD	05H
	ORG $+4
	DQ	0000000000000000H
	DD	00H
	ORG $+4
$SG144010 DB	'auto', 00H
	ORG $+3
$SG144012 DB	'median', 00H
	ORG $+1
$SG144013 DB	'high', 00H
	ORG $+3
$SG144015 DB	'auto', 00H
	ORG $+3
$SG144016 DB	'0', 00H
	ORG $+2
$SG144017 DB	'1', 00H
	ORG $+2
$SG144018 DB	'2', 00H
	ORG $+2
$SG144019 DB	'3', 00H
	ORG $+2
$SG144020 DB	'4', 00H
	ORG $+2
$SG144027 DB	'off', 00H
?list_vp8_level@@3QBUCX_DESC@@B DQ FLAT:$SG144022	; list_vp8_level
	DD	00H
	ORG $+4
	DQ	0000000000000000H
	DD	00H
	ORG $+4
$SG144022 DB	'auto', 00H
	ORG $+3
?list_vp9_level@@3QBUCX_DESC@@B DQ FLAT:$SG144024	; list_vp9_level
	DD	00H
	ORG $+4
	DQ	0000000000000000H
	DD	00H
	ORG $+4
$SG144024 DB	'auto', 00H
	ORG $+3
$SG144026 DB	'Auto', 00H
	ORG $+3
$SG144028 DB	'for I frames', 00H
	ORG $+3
$SG144029 DB	'for I,P frames', 00H
	ORG $+1
$SG144030 DB	'for All frames', 00H
	ORG $+1
$SG144032 DB	'auto', 00H
	ORG $+3
$SG144033 DB	'off', 00H
$SG144034 DB	'i', 00H
	ORG $+2
$SG144035 DB	'ip', 00H
	ORG $+1
$SG144036 DB	'all', 00H
$SG144037 DB	'ipb', 00H
$SG144038 DB	'ib', 00H
	ORG $+1
$SG144039 DB	'p', 00H
	ORG $+2
$SG144040 DB	'pb', 00H
	ORG $+1
$SG144041 DB	'b', 00H
	ORG $+2
$SG144043 DB	'auto', 00H
	ORG $+3
$SG144044 DB	'slow', 00H
	ORG $+3
$SG144045 DB	'medium', 00H
	ORG $+1
$SG144046 DB	'fast', 00H
	ORG $+3
$SG144049 DB	'0', 00H
	ORG $+2
$SG144048 DB	'default', 00H
$SG144050 DB	'1', 00H
	ORG $+2
$SG144051 DB	'2', 00H
	ORG $+2
$SG144052 DB	'3', 00H
	ORG $+2
$SG144053 DB	'4', 00H
	ORG $+2
$SG144055 DB	'low', 00H
$SG144056 DB	'normal', 00H
	ORG $+1
$SG144057 DB	'high', 00H
	ORG $+3
$SG144069 DB	'none', 00H
	ORG $+3
$SG144070 DB	'copy', 00H
	ORG $+3
$SG144071 DB	'aac', 00H
$SG144072 DB	'libmp3lame', 00H
	ORG $+1
$SG144077 DB	'ac3', 00H
$SG144073 DB	'libtwolame', 00H
	ORG $+1
$SG144108 DB	'tff', 00H
$SG144074 DB	'libvorbis', 00H
	ORG $+2
$SG144109 DB	'bff', 00H
$SG144075 DB	'pcm_s16le', 00H
	ORG $+2
$SG144120 DB	'higher', 00H
	ORG $+1
$SG144134 DB	'8x8', 00H
$SG144076 DB	'libopus', 00H
$SG144107 DB	'none', 00H
	ORG $+3
$SG144111 DB	' 1 - best quality', 00H
	ORG $+2
$SG144124 DB	'faster', 00H
	ORG $+1
$SG144135 DB	'4x4', 00H
$SG144112 DB	' 2 - higher', 00H
$SG144138 DB	'16', 00H
	ORG $+1
$SG144113 DB	' 3 - high quality', 00H
	ORG $+2
$SG144139 DB	'32', 00H
	ORG $+1
$SG144114 DB	' 4 - balanced', 00H
	ORG $+2
$SG144115 DB	' 5 - fast', 00H
	ORG $+2
$SG144140 DB	'64', 00H
	ORG $+1
$SG144116 DB	' 6 - faster', 00H
$SG144148 DB	'all', 00H
$SG144117 DB	' 7 - fastest', 00H
	ORG $+3
$SG144119 DB	'best', 00H
	ORG $+3
$SG144121 DB	'high', 00H
	ORG $+3
$SG144122 DB	'balanced', 00H
	ORG $+3
$SG144123 DB	'fast', 00H
	ORG $+3
$SG144130 DB	'Q-pel', 00H
	ORG $+2
$SG144147 DB	'chroma', 00H
	ORG $+1
$SG144152 DB	'box', 00H
$SG144125 DB	'fastest', 00H
$SG144127 DB	'Auto', 00H
	ORG $+3
$SG144128 DB	'full-pel', 00H
	ORG $+3
$SG144133 DB	'16x16', 00H
	ORG $+2
$SG144154 DB	'off', 00H
$SG144129 DB	'half-pel', 00H
	ORG $+3
$SG144132 DB	'Auto', 00H
	ORG $+3
$SG144137 DB	'auto', 00H
	ORG $+3
$SG144144 DB	'auto', 00H
	ORG $+3
$SG144145 DB	'none', 00H
	ORG $+3
$SG144146 DB	'luma', 00H
	ORG $+3
$SG144150 DB	'none', 00H
	ORG $+3
$SG144155 DB	'x2', 00H
	ORG $+1
$SG144151 DB	'upscale', 00H
$SG144156 DB	'x2.5', 00H
	ORG $+3
$SG144158 DB	'simple', 00H
	ORG $+1
$SG144159 DB	'complex', 00H
$SG144161 DB	'0', 00H
	ORG $+2
$SG144162 DB	'90', 00H
	ORG $+1
$SG144163 DB	'180', 00H
$SG144164 DB	'270', 00H
$SG144166 DB	'n', 00H
	ORG $+2
$SG144167 DB	'h', 00H
	ORG $+2
$SG144168 DB	'v', 00H
	ORG $+2
$SG144170 DB	'auto', 00H
	ORG $+3
$SG144171 DB	'simple', 00H
	ORG $+1
$SG144172 DB	'fine', 00H
	ORG $+3
$SG144174 DB	'auto', 00H
	ORG $+3
$SG144175 DB	'none', 00H
	ORG $+3
$SG144176 DB	'sse2', 00H
	ORG $+3
$SG144177 DB	'sse3', 00H
	ORG $+3
$SG144178 DB	'ssse3', 00H
	ORG $+2
$SG144179 DB	'sse41', 00H
	ORG $+2
$SG144180 DB	'avx', 00H
$SG144181 DB	'avx2', 00H
	ORG $+3
$SG111598 DB	'H.264/AVC', 00H
	ORG $+2
$SG111610 DB	'VP8', 00H
$SG111600 DB	'H.265/HEVC', 00H
	ORG $+1
$SG111602 DB	'MPEG2', 00H
	ORG $+2
$SG111604 DB	'MPEG1', 00H
	ORG $+2
$SG111606 DB	'VC-1', 00H
	ORG $+3
$SG111608 DB	'MPEG4', 00H
	ORG $+2
$SG111612 DB	'VP9', 00H
$SG111614 DB	'unknown', 00H
$SG111721 DB	'unknown', 00H
$SG144573 DB	'%s', 00H
	ORG $+1
$SG112216 DB	'undef', 00H
	ORG $+6
?list_colormatrix@@3QBUCX_DESC@@B DQ FLAT:$SG112216	; list_colormatrix
	DD	02H
	ORG $+4
	DQ	FLAT:$SG112217
	DD	07fffffffH
	ORG $+4
	DQ	FLAT:$SG112218
	DD	01H
	ORG $+4
	DQ	FLAT:$SG112219
	DD	06H
	ORG $+4
	DQ	FLAT:$SG112220
	DD	05H
	ORG $+4
	DQ	FLAT:$SG112221
	DD	07H
	ORG $+4
	DQ	FLAT:$SG112222
	DD	08H
	ORG $+4
	DQ	FLAT:$SG112223
	DD	04H
	ORG $+4
	DQ	FLAT:$SG112224
	DD	00H
	ORG $+4
	DQ	FLAT:$SG112225
	DD	09H
	ORG $+4
	DQ	FLAT:$SG112226
	DD	0aH
	ORG $+4
	DQ	FLAT:$SG112227
	DD	0cH
	ORG $+4
	DQ	FLAT:$SG112228
	DD	0dH
	ORG $+4
	DQ	FLAT:$SG112229
	DD	0eH
	ORG $+4
	DQ	FLAT:$SG112230
	DD	0fH
	ORG $+4
	DQ	0000000000000000H
	DD	00H
	ORG $+4
$SG112217 DB	'auto', 00H
	ORG $+3
$SG112218 DB	'bt709', 00H
	ORG $+2
$SG112219 DB	'smpte170m', 00H
	ORG $+2
$SG112223 DB	'fcc', 00H
$SG112220 DB	'bt470bg', 00H
$SG112221 DB	'smpte240m', 00H
	ORG $+2
$SG112222 DB	'YCgCo', 00H
	ORG $+2
$SG112224 DB	'GBR', 00H
$SG112225 DB	'bt2020nc', 00H
	ORG $+3
$SG112229 DB	'ictco', 00H
	ORG $+2
$SG112375 DB	'bt470m', 00H
	ORG $+1
$SG112537 DB	'pal', 00H
$SG112226 DB	'bt2020c', 00H
$SG112227 DB	'derived-ncl', 00H
$SG112539 DB	'mac', 00H
$SG112228 DB	'derived-cl', 00H
	ORG $+1
$SG112541 DB	'0', 00H
	ORG $+2
$SG112230 DB	'2100-lms', 00H
	ORG $+3
$SG112371 DB	'undef', 00H
	ORG $+6
?list_transfer@@3QBUCX_DESC@@B DQ FLAT:$SG112371	; list_transfer
	DD	02H
	ORG $+4
	DQ	FLAT:$SG112372
	DD	07fffffffH
	ORG $+4
	DQ	FLAT:$SG112373
	DD	01H
	ORG $+4
	DQ	FLAT:$SG112374
	DD	06H
	ORG $+4
	DQ	FLAT:$SG112375
	DD	04H
	ORG $+4
	DQ	FLAT:$SG112376
	DD	05H
	ORG $+4
	DQ	FLAT:$SG112377
	DD	07H
	ORG $+4
	DQ	FLAT:$SG112378
	DD	08H
	ORG $+4
	DQ	FLAT:$SG112379
	DD	09H
	ORG $+4
	DQ	FLAT:$SG112380
	DD	0aH
	ORG $+4
	DQ	FLAT:$SG112381
	DD	0bH
	ORG $+4
	DQ	FLAT:$SG112382
	DD	0cH
	ORG $+4
	DQ	FLAT:$SG112383
	DD	0dH
	ORG $+4
	DQ	FLAT:$SG112384
	DD	0eH
	ORG $+4
	DQ	FLAT:$SG112385
	DD	0fH
	ORG $+4
	DQ	FLAT:$SG112386
	DD	010H
	ORG $+4
	DQ	FLAT:$SG112387
	DD	011H
	ORG $+4
	DQ	FLAT:$SG112388
	DD	012H
	ORG $+4
	DQ	0000000000000000H
	DD	00H
	ORG $+4
$SG112372 DB	'auto', 00H
	ORG $+3
$SG112373 DB	'bt709', 00H
	ORG $+2
$SG112374 DB	'smpte170m', 00H
	ORG $+2
$SG112378 DB	'linear', 00H
	ORG $+1
$SG112542 DB	'1', 00H
	ORG $+2
$SG112376 DB	'bt470bg', 00H
$SG112377 DB	'smpte240m', 00H
	ORG $+2
$SG112379 DB	'log100', 00H
	ORG $+1
$SG112380 DB	'log316', 00H
	ORG $+1
$SG112543 DB	'2', 00H
	ORG $+2
$SG112381 DB	'iec61966-2-4', 00H
	ORG $+3
$SG112382 DB	'bt1361e', 00H
$SG112383 DB	'iec61966-2-1', 00H
	ORG $+3
$SG112384 DB	'bt2020-10', 00H
	ORG $+2
$SG112524 DB	'bt470m', 00H
	ORG $+1
$SG112544 DB	'3', 00H
	ORG $+2
$SG112385 DB	'bt2020-12', 00H
	ORG $+2
$SG112528 DB	'bt2020', 00H
	ORG $+1
$SG112545 DB	'4', 00H
	ORG $+2
$SG112386 DB	'smpte2084', 00H
	ORG $+2
$SG112546 DB	'5', 00H
	ORG $+2
$SG112387 DB	'smpte428', 00H
	ORG $+3
$SG112520 DB	'undef', 00H
	ORG $+2
$SG112550 DB	'tv', 00H
	ORG $+1
$SG112388 DB	'arib-srd-b67', 00H
	ORG $+3
?list_colorprim@@3QBUCX_DESC@@B DQ FLAT:$SG112520	; list_colorprim
	DD	02H
	ORG $+4
	DQ	FLAT:$SG112521
	DD	07fffffffH
	ORG $+4
	DQ	FLAT:$SG112522
	DD	01H
	ORG $+4
	DQ	FLAT:$SG112523
	DD	06H
	ORG $+4
	DQ	FLAT:$SG112524
	DD	04H
	ORG $+4
	DQ	FLAT:$SG112525
	DD	05H
	ORG $+4
	DQ	FLAT:$SG112526
	DD	07H
	ORG $+4
	DQ	FLAT:$SG112527
	DD	08H
	ORG $+4
	DQ	FLAT:$SG112528
	DD	09H
	ORG $+4
	DQ	FLAT:$SG112529
	DD	0aH
	ORG $+4
	DQ	FLAT:$SG112530
	DD	0bH
	ORG $+4
	DQ	FLAT:$SG112531
	DD	0cH
	ORG $+4
	DQ	FLAT:$SG112532
	DD	0dH
	ORG $+4
	DQ	0000000000000000H
	DD	00H
	ORG $+4
$SG112521 DB	'auto', 00H
	ORG $+3
$SG112522 DB	'bt709', 00H
	ORG $+2
$SG112523 DB	'smpte170m', 00H
	ORG $+2
$SG112551 DB	'pc', 00H
	ORG $+1
$SG112525 DB	'bt470bg', 00H
$SG112526 DB	'smpte240m', 00H
	ORG $+2
$SG112527 DB	'film', 00H
	ORG $+3
$SG112529 DB	'st428', 00H
	ORG $+2
$SG113640 DB	'cfr', 00H
$SG112530 DB	'st431-2', 00H
$SG112531 DB	'st432-1', 00H
$SG112532 DB	'ebu3213-e', 00H
	ORG $+2
$SG112534 DB	'undef', 00H
	ORG $+6
?list_videoformat@@3QBUCX_DESC@@B DQ FLAT:$SG112534	; list_videoformat
	DD	05H
	ORG $+4
	DQ	FLAT:$SG112535
	DD	02H
	ORG $+4
	DQ	FLAT:$SG112536
	DD	00H
	ORG $+4
	DQ	FLAT:$SG112537
	DD	01H
	ORG $+4
	DQ	FLAT:$SG112538
	DD	03H
	ORG $+4
	DQ	FLAT:$SG112539
	DD	04H
	ORG $+4
	DQ	0000000000000000H
	DD	00H
	ORG $+4
$SG112535 DB	'ntsc', 00H
	ORG $+3
$SG112536 DB	'component', 00H
	ORG $+2
$SG112538 DB	'secam', 00H
	ORG $+2
$SG113641 DB	'vfr', 00H
$SG112548 DB	'limited', 00H
$SG112549 DB	'full', 00H
	ORG $+3
?list_empty@@3QBUCX_DESC@@B DQ 0000000000000000H	; list_empty
	DD	00H
	ORG $+4
$SG113633 DB	'trace', 00H
	ORG $+2
$SG113634 DB	'debug', 00H
	ORG $+2
$SG113635 DB	'more', 00H
	ORG $+3
$SG113636 DB	'info', 00H
	ORG $+3
$SG113637 DB	'warn', 00H
	ORG $+3
$SG113638 DB	'error', 00H
	ORG $+2
$SG113642 DB	'forcecfr', 00H
	ORG $+3
$SG113644 DB	'swr', 00H
$SG113645 DB	'soxr', 00H
	ORG $+3
$SG146564 DB	'QSVAllocatorD3D11::FrameLock unsupported format.', 0aH, 00H
	ORG $+6
$SG146562 DB	'QSVAllocatorD3D11::FrameLock failed to map surface contx'
	DB	't with subResource: %d.', 0aH, 00H
	ORG $+7
$SG146568 DB	'QSVAllocatorD3D11::FrameLock failed to map surface: %d.', 0aH
	DB	00H
	ORG $+7
$SG146578 DB	'QSVAllocatorD3D11::FrameLock success.', 0aH, 00H
	ORG $+1
$SG146592 DB	'QSVAllocatorD3D11::FrameUnlock success.', 0aH, 00H
	ORG $+7
$SG146664 DB	'QSVAllocatorD3D11::ReleaseResponse success.', 0aH, 00H
	ORG $+3
$SG146963 DB	'QSVAllocatorD3D11::AllocImpl unsupported format.', 0aH, 00H
	ORG $+6
$SG146967 DB	'QSVAllocatorD3D11::AllocImpl failed to create buffer: %d'
	DB	'.', 0aH, 00H
	ORG $+5
$SG146972 DB	'QSVAllocatorD3D11::AllocImpl set D3D11_BIND_RENDER_TARGE'
	DB	'T.', 0aH, 00H
	ORG $+4
$SG146977 DB	'QSVAllocatorD3D11::AllocImpl set D3D11_BIND_RENDER_TARGE'
	DB	'T.', 0aH, 00H
	ORG $+12
$SG146981 DB	'QSVAllocatorD3D11::AllocImpl create %d textures, %d stag'
	DB	'ing textures (ArraySize: %d).', 0aH, 00H
	ORG $+9
$SG146983 DB	'QSVAllocatorD3D11::AllocImpl failed to CreateTexture2D(t'
	DB	'extures) #%d: %d.', 0aH, 00H
	ORG $+5
$SG146986 DB	'QSVAllocatorD3D11::AllocImpl failed to CreateTexture2D(s'
	DB	'tagingTexture) #%d: %d.', 0aH, 00H
	ORG $+7
$SG146988 DB	'QSVAllocatorD3D11::AllocImpl CreateTexture Success.', 0aH
	DB	00H
	ORG $+3
$SG146989 DB	'QSVAllocatorD3D11::AllocImpl Success.', 0aH, 00H
CONST	ENDS
;	COMDAT IID_ID3D11VideoDecoder
CONST	SEGMENT
IID_ID3D11VideoDecoder DD 03c9c5b51H
	DW	0995dH
	DW	048d1H
	DB	09bH
	DB	08dH
	DB	0faH
	DB	05cH
	DB	0aeH
	DB	0deH
	DB	0d6H
	DB	05cH
CONST	ENDS
;	COMDAT IID_ID3D10Device1
CONST	SEGMENT
IID_ID3D10Device1 DD 09b7e4c8fH
	DW	0342cH
	DW	04106H
	DB	0a1H
	DB	09fH
	DB	04fH
	DB	027H
	DB	04H
	DB	0f6H
	DB	089H
	DB	0f0H
CONST	ENDS
;	COMDAT IID_ID3D10ShaderResourceView1
CONST	SEGMENT
IID_ID3D10ShaderResourceView1 DD 09b7e4c87H
	DW	0342cH
	DW	04106H
	DB	0a1H
	DB	09fH
	DB	04fH
	DB	027H
	DB	04H
	DB	0f6H
	DB	089H
	DB	0f0H
CONST	ENDS
;	COMDAT D3D11_DECODER_PROFILE_VP8_VLD
CONST	SEGMENT
D3D11_DECODER_PROFILE_VP8_VLD DD 090b899eaH
	DW	03a62H
	DW	04705H
	DB	088H
	DB	0b3H
	DB	08dH
	DB	0f0H
	DB	04bH
	DB	027H
	DB	044H
	DB	0e7H
CONST	ENDS
;	COMDAT D3D11_DECODER_PROFILE_VP9_VLD_10BIT_PROFILE2
CONST	SEGMENT
D3D11_DECODER_PROFILE_VP9_VLD_10BIT_PROFILE2 DD 0a4c749efH
	DW	06ecfH
	DW	048aaH
	DB	084H
	DB	048H
	DB	050H
	DB	0a7H
	DB	0a1H
	DB	016H
	DB	05fH
	DB	0f7H
CONST	ENDS
;	COMDAT D3D11_DECODER_PROFILE_VP9_VLD_PROFILE0
CONST	SEGMENT
D3D11_DECODER_PROFILE_VP9_VLD_PROFILE0 DD 0463707f8H
	DW	0a1d0H
	DW	04585H
	DB	087H
	DB	06dH
	DB	083H
	DB	0aaH
	DB	06dH
	DB	060H
	DB	0b8H
	DB	09eH
CONST	ENDS
;	COMDAT D3D11_DECODER_PROFILE_HEVC_VLD_MAIN10
CONST	SEGMENT
D3D11_DECODER_PROFILE_HEVC_VLD_MAIN10 DD 0107af0e0H
	DW	0ef1aH
	DW	04d19H
	DB	0abH
	DB	0a8H
	DB	067H
	DB	0a1H
	DB	063H
	DB	07H
	DB	03dH
	DB	013H
CONST	ENDS
;	COMDAT D3D11_DECODER_PROFILE_HEVC_VLD_MAIN
CONST	SEGMENT
D3D11_DECODER_PROFILE_HEVC_VLD_MAIN DD 05b11d51bH
	DW	02f4cH
	DW	04452H
	DB	0bcH
	DB	0c3H
	DB	09H
	DB	0f2H
	DB	0a1H
	DB	016H
	DB	0cH
	DB	0c0H
CONST	ENDS
;	COMDAT D3D11_DECODER_PROFILE_MPEG4PT2_VLD_ADVSIMPLE_GMC
CONST	SEGMENT
D3D11_DECODER_PROFILE_MPEG4PT2_VLD_ADVSIMPLE_GMC DD 0ab998b5bH
	DW	04258H
	DW	044a9H
	DB	09fH
	DB	0ebH
	DB	094H
	DB	0e5H
	DB	097H
	DB	0a6H
	DB	0baH
	DB	0aeH
CONST	ENDS
;	COMDAT D3D11_DECODER_PROFILE_MPEG4PT2_VLD_ADVSIMPLE_NOGMC
CONST	SEGMENT
D3D11_DECODER_PROFILE_MPEG4PT2_VLD_ADVSIMPLE_NOGMC DD 0ed418a9fH
	DW	010dH
	DW	04edaH
	DB	09aH
	DB	0e3H
	DB	09aH
	DB	065H
	DB	035H
	DB	08dH
	DB	08dH
	DB	02eH
CONST	ENDS
;	COMDAT D3D11_DECODER_PROFILE_MPEG4PT2_VLD_SIMPLE
CONST	SEGMENT
D3D11_DECODER_PROFILE_MPEG4PT2_VLD_SIMPLE DD 0efd64d74H
	DW	0c9e8H
	DW	041d7H
	DB	0a5H
	DB	0e9H
	DB	0e9H
	DB	0b0H
	DB	0e3H
	DB	09fH
	DB	0a3H
	DB	019H
CONST	ENDS
;	COMDAT D3D11_DECODER_PROFILE_VC1_D2010
CONST	SEGMENT
D3D11_DECODER_PROFILE_VC1_D2010 DD 01b81bea4H
	DW	0a0c7H
	DW	011d3H
	DB	0b9H
	DB	084H
	DB	00H
	DB	0c0H
	DB	04fH
	DB	02eH
	DB	073H
	DB	0c5H
CONST	ENDS
;	COMDAT D3D11_DECODER_PROFILE_VC1_VLD
CONST	SEGMENT
D3D11_DECODER_PROFILE_VC1_VLD DD 01b81bea3H
	DW	0a0c7H
	DW	011d3H
	DB	0b9H
	DB	084H
	DB	00H
	DB	0c0H
	DB	04fH
	DB	02eH
	DB	073H
	DB	0c5H
CONST	ENDS
;	COMDAT D3D11_DECODER_PROFILE_VC1_IDCT
CONST	SEGMENT
D3D11_DECODER_PROFILE_VC1_IDCT DD 01b81bea2H
	DW	0a0c7H
	DW	011d3H
	DB	0b9H
	DB	084H
	DB	00H
	DB	0c0H
	DB	04fH
	DB	02eH
	DB	073H
	DB	0c5H
CONST	ENDS
;	COMDAT D3D11_DECODER_PROFILE_VC1_MOCOMP
CONST	SEGMENT
D3D11_DECODER_PROFILE_VC1_MOCOMP DD 01b81bea1H
	DW	0a0c7H
	DW	011d3H
	DB	0b9H
	DB	084H
	DB	00H
	DB	0c0H
	DB	04fH
	DB	02eH
	DB	073H
	DB	0c5H
CONST	ENDS
;	COMDAT D3D11_DECODER_PROFILE_VC1_POSTPROC
CONST	SEGMENT
D3D11_DECODER_PROFILE_VC1_POSTPROC DD 01b81bea0H
	DW	0a0c7H
	DW	011d3H
	DB	0b9H
	DB	084H
	DB	00H
	DB	0c0H
	DB	04fH
	DB	02eH
	DB	073H
	DB	0c5H
CONST	ENDS
;	COMDAT D3D11_DECODER_PROFILE_WMV9_IDCT
CONST	SEGMENT
D3D11_DECODER_PROFILE_WMV9_IDCT DD 01b81be94H
	DW	0a0c7H
	DW	011d3H
	DB	0b9H
	DB	084H
	DB	00H
	DB	0c0H
	DB	04fH
	DB	02eH
	DB	073H
	DB	0c5H
CONST	ENDS
;	COMDAT D3D11_DECODER_PROFILE_WMV9_MOCOMP
CONST	SEGMENT
D3D11_DECODER_PROFILE_WMV9_MOCOMP DD 01b81be91H
	DW	0a0c7H
	DW	011d3H
	DB	0b9H
	DB	084H
	DB	00H
	DB	0c0H
	DB	04fH
	DB	02eH
	DB	073H
	DB	0c5H
CONST	ENDS
;	COMDAT D3D11_DECODER_PROFILE_WMV9_POSTPROC
CONST	SEGMENT
D3D11_DECODER_PROFILE_WMV9_POSTPROC DD 01b81be90H
	DW	0a0c7H
	DW	011d3H
	DB	0b9H
	DB	084H
	DB	00H
	DB	0c0H
	DB	04fH
	DB	02eH
	DB	073H
	DB	0c5H
CONST	ENDS
;	COMDAT D3D11_DECODER_PROFILE_WMV8_MOCOMP
CONST	SEGMENT
D3D11_DECODER_PROFILE_WMV8_MOCOMP DD 01b81be81H
	DW	0a0c7H
	DW	011d3H
	DB	0b9H
	DB	084H
	DB	00H
	DB	0c0H
	DB	04fH
	DB	02eH
	DB	073H
	DB	0c5H
CONST	ENDS
;	COMDAT D3D11_DECODER_PROFILE_WMV8_POSTPROC
CONST	SEGMENT
D3D11_DECODER_PROFILE_WMV8_POSTPROC DD 01b81be80H
	DW	0a0c7H
	DW	011d3H
	DB	0b9H
	DB	084H
	DB	00H
	DB	0c0H
	DB	04fH
	DB	02eH
	DB	073H
	DB	0c5H
CONST	ENDS
;	COMDAT D3D11_DECODER_PROFILE_H264_VLD_MULTIVIEW_NOFGT
CONST	SEGMENT
D3D11_DECODER_PROFILE_H264_VLD_MULTIVIEW_NOFGT DD 0705b9d82H
	DW	076cfH
	DW	049d6H
	DB	0b7H
	DB	0e6H
	DB	0acH
	DB	088H
	DB	072H
	DB	0dbH
	DB	01H
	DB	03cH
CONST	ENDS
;	COMDAT D3D11_DECODER_PROFILE_H264_VLD_STEREO_NOFGT
CONST	SEGMENT
D3D11_DECODER_PROFILE_H264_VLD_STEREO_NOFGT DD 0f9aaccbbH
	DW	0c2b6H
	DW	04cfcH
	DB	087H
	DB	079H
	DB	057H
	DB	07H
	DB	0b1H
	DB	076H
	DB	05H
	DB	052H
CONST	ENDS
;	COMDAT D3D11_DECODER_PROFILE_H264_VLD_STEREO_PROGRESSIVE_NOFGT
CONST	SEGMENT
D3D11_DECODER_PROFILE_H264_VLD_STEREO_PROGRESSIVE_NOFGT DD 0d79be8daH
	DW	0cf1H
	DW	04c81H
	DB	0b8H
	DB	02aH
	DB	069H
	DB	0a4H
	DB	0e2H
	DB	036H
	DB	0f4H
	DB	03dH
CONST	ENDS
;	COMDAT D3D11_DECODER_PROFILE_H264_VLD_WITHFMOASO_NOFGT
CONST	SEGMENT
D3D11_DECODER_PROFILE_H264_VLD_WITHFMOASO_NOFGT DD 0d5f04ff9H
	DW	03418H
	DW	045d8H
	DB	095H
	DB	061H
	DB	032H
	DB	0a7H
	DB	06aH
	DB	0aeH
	DB	02dH
	DB	0ddH
CONST	ENDS
;	COMDAT D3D11_DECODER_PROFILE_H264_VLD_FGT
CONST	SEGMENT
D3D11_DECODER_PROFILE_H264_VLD_FGT DD 01b81be69H
	DW	0a0c7H
	DW	011d3H
	DB	0b9H
	DB	084H
	DB	00H
	DB	0c0H
	DB	04fH
	DB	02eH
	DB	073H
	DB	0c5H
CONST	ENDS
;	COMDAT D3D11_DECODER_PROFILE_H264_VLD_NOFGT
CONST	SEGMENT
D3D11_DECODER_PROFILE_H264_VLD_NOFGT DD 01b81be68H
	DW	0a0c7H
	DW	011d3H
	DB	0b9H
	DB	084H
	DB	00H
	DB	0c0H
	DB	04fH
	DB	02eH
	DB	073H
	DB	0c5H
CONST	ENDS
;	COMDAT D3D11_DECODER_PROFILE_H264_IDCT_FGT
CONST	SEGMENT
D3D11_DECODER_PROFILE_H264_IDCT_FGT DD 01b81be67H
	DW	0a0c7H
	DW	011d3H
	DB	0b9H
	DB	084H
	DB	00H
	DB	0c0H
	DB	04fH
	DB	02eH
	DB	073H
	DB	0c5H
CONST	ENDS
;	COMDAT D3D11_DECODER_PROFILE_H264_IDCT_NOFGT
CONST	SEGMENT
D3D11_DECODER_PROFILE_H264_IDCT_NOFGT DD 01b81be66H
	DW	0a0c7H
	DW	011d3H
	DB	0b9H
	DB	084H
	DB	00H
	DB	0c0H
	DB	04fH
	DB	02eH
	DB	073H
	DB	0c5H
CONST	ENDS
;	COMDAT D3D11_DECODER_PROFILE_H264_MOCOMP_FGT
CONST	SEGMENT
D3D11_DECODER_PROFILE_H264_MOCOMP_FGT DD 01b81be65H
	DW	0a0c7H
	DW	011d3H
	DB	0b9H
	DB	084H
	DB	00H
	DB	0c0H
	DB	04fH
	DB	02eH
	DB	073H
	DB	0c5H
CONST	ENDS
;	COMDAT D3D11_DECODER_PROFILE_H264_MOCOMP_NOFGT
CONST	SEGMENT
D3D11_DECODER_PROFILE_H264_MOCOMP_NOFGT DD 01b81be64H
	DW	0a0c7H
	DW	011d3H
	DB	0b9H
	DB	084H
	DB	00H
	DB	0c0H
	DB	04fH
	DB	02eH
	DB	073H
	DB	0c5H
CONST	ENDS
PUBLIC	?__empty_global_delete@@YAXPEAX@Z		; __empty_global_delete
PUBLIC	?__empty_global_delete@@YAXPEAX_K@Z		; __empty_global_delete
PUBLIC	??2@YAPEAX_KPEAX@Z				; operator new
PUBLIC	??0exception@std@@QEAA@QEBDH@Z			; std::exception::exception
PUBLIC	??0exception@std@@QEAA@AEBV01@@Z		; std::exception::exception
PUBLIC	??1exception@std@@UEAA@XZ			; std::exception::~exception
PUBLIC	?what@exception@std@@UEBAPEBDXZ			; std::exception::what
PUBLIC	??_Gexception@std@@UEAAPEAXI@Z			; std::exception::`scalar deleting destructor'
PUBLIC	??0bad_alloc@std@@AEAA@QEBD@Z			; std::bad_alloc::bad_alloc
PUBLIC	??1bad_alloc@std@@UEAA@XZ			; std::bad_alloc::~bad_alloc
PUBLIC	??0bad_alloc@std@@QEAA@AEBV01@@Z		; std::bad_alloc::bad_alloc
PUBLIC	??_Gbad_alloc@std@@UEAAPEAXI@Z			; std::bad_alloc::`scalar deleting destructor'
PUBLIC	??0bad_array_new_length@std@@QEAA@XZ		; std::bad_array_new_length::bad_array_new_length
PUBLIC	??1bad_array_new_length@std@@UEAA@XZ		; std::bad_array_new_length::~bad_array_new_length
PUBLIC	??0bad_array_new_length@std@@QEAA@AEBV01@@Z	; std::bad_array_new_length::bad_array_new_length
PUBLIC	??_Gbad_array_new_length@std@@UEAAPEAXI@Z	; std::bad_array_new_length::`scalar deleting destructor'
PUBLIC	?_Throw_bad_array_new_length@std@@YAXXZ		; std::_Throw_bad_array_new_length
PUBLIC	?max@?$numeric_limits@_J@std@@SA_JXZ		; std::numeric_limits<__int64>::max
PUBLIC	??0_Iterator_base12_compatible@std@@QEAA@XZ	; std::_Iterator_base12_compatible::_Iterator_base12_compatible
PUBLIC	?_Allocate@_Default_allocate_traits@std@@SAPEAX_K@Z ; std::_Default_allocate_traits::_Allocate
PUBLIC	?_Adjust_manually_vector_aligned@std@@YAXAEAPEAXAEA_K@Z ; std::_Adjust_manually_vector_aligned
PUBLIC	?_Adopt@_Iterator_base0@std@@QEAAXPEBX@Z	; std::_Iterator_base0::_Adopt
PUBLIC	??0_Container_proxy@std@@QEAA@PEAU_Container_base12@1@@Z ; std::_Container_proxy::_Container_proxy
PUBLIC	??0_Container_base12@std@@QEAA@XZ		; std::_Container_base12::_Container_base12
PUBLIC	?_Orphan_all@_Container_base12@std@@QEAAXXZ	; std::_Container_base12::_Orphan_all
PUBLIC	??0_Iterator_base12@std@@QEAA@XZ		; std::_Iterator_base12::_Iterator_base12
PUBLIC	??0_Iterator_base12@std@@QEAA@AEBU01@@Z		; std::_Iterator_base12::_Iterator_base12
PUBLIC	??4_Iterator_base12@std@@QEAAAEAU01@AEBU01@@Z	; std::_Iterator_base12::operator=
PUBLIC	??1_Iterator_base12@std@@QEAA@XZ		; std::_Iterator_base12::~_Iterator_base12
PUBLIC	?_Adopt@_Iterator_base12@std@@QEAAXPEBU_Container_base12@2@@Z ; std::_Iterator_base12::_Adopt
PUBLIC	?_Getcont@_Iterator_base12@std@@QEBAPEBU_Container_base12@2@XZ ; std::_Iterator_base12::_Getcont
PUBLIC	?_Orphan_me@_Iterator_base12@std@@QEAAXXZ	; std::_Iterator_base12::_Orphan_me
PUBLIC	?_Release@_Basic_container_proxy_ptr12@std@@QEAAXXZ ; std::_Basic_container_proxy_ptr12::_Release
PUBLIC	?_Incref@_Ref_count_base@std@@QEAAXXZ		; std::_Ref_count_base::_Incref
PUBLIC	?_Decref@_Ref_count_base@std@@QEAAXXZ		; std::_Ref_count_base::_Decref
PUBLIC	?_Decwref@_Ref_count_base@std@@QEAAXXZ		; std::_Ref_count_base::_Decwref
PUBLIC	?_Throw_tree_length_error@std@@YAXXZ		; std::_Throw_tree_length_error
PUBLIC	??$make_array@W4CspMatrix@@W41@W41@W41@W41@W41@W41@W41@W41@W41@W41@W41@W41@W41@W41@@@YA?AV?$array@W4CspMatrix@@$0O@@std@@$$QEAW4CspMatrix@@0000000000000@Z ; make_array<enum CspMatrix,enum CspMatrix,enum CspMatrix,enum CspMatrix,enum CspMatrix,enum CspMatrix,enum CspMatrix,enum CspMatrix,enum CspMatrix,enum CspMatrix,enum CspMatrix,enum CspMatrix,enum CspMatrix,enum CspMatrix,enum CspMatrix>
PUBLIC	??$make_array@W4CspTransfer@@W41@W41@W41@W41@W41@W41@W41@W41@W41@W41@W41@W41@W41@W41@W41@@@YA?AV?$array@W4CspTransfer@@$0P@@std@@$$QEAW4CspTransfer@@00000000000000@Z ; make_array<enum CspTransfer,enum CspTransfer,enum CspTransfer,enum CspTransfer,enum CspTransfer,enum CspTransfer,enum CspTransfer,enum CspTransfer,enum CspTransfer,enum CspTransfer,enum CspTransfer,enum CspTransfer,enum CspTransfer,enum CspTransfer,enum CspTransfer,enum CspTransfer>
PUBLIC	??$make_array@W4CspColorprim@@W41@W41@W41@W41@W41@W41@W41@W41@W41@W41@W41@W41@@@YA?AV?$array@W4CspColorprim@@$0M@@std@@$$QEAW4CspColorprim@@00000000000@Z ; make_array<enum CspColorprim,enum CspColorprim,enum CspColorprim,enum CspColorprim,enum CspColorprim,enum CspColorprim,enum CspColorprim,enum CspColorprim,enum CspColorprim,enum CspColorprim,enum CspColorprim,enum CspColorprim,enum CspColorprim>
PUBLIC	?get@?$_Ptr_base@VRGYLog@@@std@@IEBAPEAVRGYLog@@XZ ; std::_Ptr_base<RGYLog>::get
PUBLIC	??0?$_Ptr_base@VRGYLog@@@std@@IEAA@XZ		; std::_Ptr_base<RGYLog>::_Ptr_base<RGYLog>
PUBLIC	?_Decref@?$_Ptr_base@VRGYLog@@@std@@IEAAXXZ	; std::_Ptr_base<RGYLog>::_Decref
PUBLIC	?_Swap@?$_Ptr_base@VRGYLog@@@std@@IEAAXAEAV12@@Z ; std::_Ptr_base<RGYLog>::_Swap
PUBLIC	??0?$shared_ptr@VRGYLog@@@std@@QEAA@AEBV01@@Z	; std::shared_ptr<RGYLog>::shared_ptr<RGYLog>
PUBLIC	??1?$shared_ptr@VRGYLog@@@std@@QEAA@XZ		; std::shared_ptr<RGYLog>::~shared_ptr<RGYLog>
PUBLIC	??4?$shared_ptr@VRGYLog@@@std@@QEAAAEAV01@AEBV01@@Z ; std::shared_ptr<RGYLog>::operator=
PUBLIC	?swap@?$shared_ptr@VRGYLog@@@std@@QEAAXAEAV12@@Z ; std::shared_ptr<RGYLog>::swap
PUBLIC	??1mfxAllocatorParams@@UEAA@XZ			; mfxAllocatorParams::~mfxAllocatorParams
PUBLIC	??0mfxAllocatorParams@@QEAA@XZ			; mfxAllocatorParams::mfxAllocatorParams
PUBLIC	??4mfxAllocatorParams@@QEAAAEAV0@AEBV0@@Z	; mfxAllocatorParams::operator=
PUBLIC	??_GmfxAllocatorParams@@UEAAPEAXI@Z		; mfxAllocatorParams::`scalar deleting destructor'
PUBLIC	??0MFXReadWriteMid@@QEAA@PEAXE@Z		; MFXReadWriteMid::MFXReadWriteMid
PUBLIC	?isRead@MFXReadWriteMid@@QEBA_NXZ		; MFXReadWriteMid::isRead
PUBLIC	?isWrite@MFXReadWriteMid@@QEBA_NXZ		; MFXReadWriteMid::isWrite
PUBLIC	?raw@MFXReadWriteMid@@QEBAPEAXXZ		; MFXReadWriteMid::raw
PUBLIC	??0QSVAllocatorParamsD3D11@@QEAA@XZ		; QSVAllocatorParamsD3D11::QSVAllocatorParamsD3D11
PUBLIC	??1QSVAllocatorParamsD3D11@@UEAA@XZ		; QSVAllocatorParamsD3D11::~QSVAllocatorParamsD3D11
PUBLIC	??4QSVAllocatorParamsD3D11@@QEAAAEAV0@AEBV0@@Z	; QSVAllocatorParamsD3D11::operator=
PUBLIC	??_GQSVAllocatorParamsD3D11@@UEAAPEAXI@Z	; QSVAllocatorParamsD3D11::`scalar deleting destructor'
PUBLIC	??0QSVAllocatorD3D11@@QEAA@XZ			; QSVAllocatorD3D11::QSVAllocatorD3D11
PUBLIC	??1QSVAllocatorD3D11@@UEAA@XZ			; QSVAllocatorD3D11::~QSVAllocatorD3D11
PUBLIC	?Init@QSVAllocatorD3D11@@UEAA?AW4mfxStatus@@PEAVmfxAllocatorParams@@V?$shared_ptr@VRGYLog@@@std@@@Z ; QSVAllocatorD3D11::Init
PUBLIC	?Close@QSVAllocatorD3D11@@UEAA?AW4mfxStatus@@XZ	; QSVAllocatorD3D11::Close
PUBLIC	?GetD3D11Device@QSVAllocatorD3D11@@UEAAPEAUID3D11Device@@XZ ; QSVAllocatorD3D11::GetD3D11Device
PUBLIC	?FrameLock@QSVAllocatorD3D11@@UEAA?AW4mfxStatus@@PEAXPEAUmfxFrameData@@@Z ; QSVAllocatorD3D11::FrameLock
PUBLIC	?FrameUnlock@QSVAllocatorD3D11@@UEAA?AW4mfxStatus@@PEAXPEAUmfxFrameData@@@Z ; QSVAllocatorD3D11::FrameUnlock
PUBLIC	?GetFrameHDL@QSVAllocatorD3D11@@UEAA?AW4mfxStatus@@PEAXPEAPEAX@Z ; QSVAllocatorD3D11::GetFrameHDL
PUBLIC	?CheckRequestType@QSVAllocatorD3D11@@MEAA?AW4mfxStatus@@PEAUmfxFrameAllocRequest@@@Z ; QSVAllocatorD3D11::CheckRequestType
PUBLIC	?ReleaseResponse@QSVAllocatorD3D11@@MEAA?AW4mfxStatus@@PEAUmfxFrameAllocResponse@@@Z ; QSVAllocatorD3D11::ReleaseResponse
PUBLIC	?AllocImpl@QSVAllocatorD3D11@@MEAA?AW4mfxStatus@@PEAUmfxFrameAllocRequest@@PEAUmfxFrameAllocResponse@@@Z ; QSVAllocatorD3D11::AllocImpl
PUBLIC	??0?$allocator@PEAX@std@@QEAA@XZ		; std::allocator<void *>::allocator<void *>
PUBLIC	?deallocate@?$allocator@PEAX@std@@QEAAXQEAPEAX_K@Z ; std::allocator<void *>::deallocate
PUBLIC	?allocate@?$allocator@PEAX@std@@QEAAPEAPEAX_K@Z	; std::allocator<void *>::allocate
PUBLIC	?max_size@?$_Default_allocator_traits@V?$allocator@PEAX@std@@@std@@SA_KAEBV?$allocator@PEAX@2@@Z ; std::_Default_allocator_traits<std::allocator<void *> >::max_size
PUBLIC	?select_on_container_copy_construction@?$_Default_allocator_traits@V?$allocator@PEAX@std@@@std@@SA?AV?$allocator@PEAX@2@AEBV32@@Z ; std::_Default_allocator_traits<std::allocator<void *> >::select_on_container_copy_construction
PUBLIC	??0?$vector@PEAXV?$allocator@PEAX@std@@@std@@QEAA@XZ ; std::vector<void *,std::allocator<void *> >::vector<void *,std::allocator<void *> >
PUBLIC	??0?$vector@PEAXV?$allocator@PEAX@std@@@std@@QEAA@AEBV01@@Z ; std::vector<void *,std::allocator<void *> >::vector<void *,std::allocator<void *> >
PUBLIC	??1?$vector@PEAXV?$allocator@PEAX@std@@@std@@QEAA@XZ ; std::vector<void *,std::allocator<void *> >::~vector<void *,std::allocator<void *> >
PUBLIC	?push_back@?$vector@PEAXV?$allocator@PEAX@std@@@std@@QEAAX$$QEAPEAX@Z ; std::vector<void *,std::allocator<void *> >::push_back
PUBLIC	?empty@?$vector@PEAXV?$allocator@PEAX@std@@@std@@QEBA_NXZ ; std::vector<void *,std::allocator<void *> >::empty
PUBLIC	?max_size@?$vector@PEAXV?$allocator@PEAX@std@@@std@@QEBA_KXZ ; std::vector<void *,std::allocator<void *> >::max_size
PUBLIC	?capacity@?$vector@PEAXV?$allocator@PEAX@std@@@std@@QEBA_KXZ ; std::vector<void *,std::allocator<void *> >::capacity
PUBLIC	?front@?$vector@PEAXV?$allocator@PEAX@std@@@std@@QEAAAEAPEAXXZ ; std::vector<void *,std::allocator<void *> >::front
PUBLIC	?back@?$vector@PEAXV?$allocator@PEAX@std@@@std@@QEAAAEAPEAXXZ ; std::vector<void *,std::allocator<void *> >::back
PUBLIC	?_Umove@?$vector@PEAXV?$allocator@PEAX@std@@@std@@AEAAPEAPEAXPEAPEAX00@Z ; std::vector<void *,std::allocator<void *> >::_Umove
PUBLIC	?_Umove_if_noexcept1@?$vector@PEAXV?$allocator@PEAX@std@@@std@@AEAAXPEAPEAX00U?$integral_constant@_N$00@2@@Z ; std::vector<void *,std::allocator<void *> >::_Umove_if_noexcept1
PUBLIC	?_Umove_if_noexcept@?$vector@PEAXV?$allocator@PEAX@std@@@std@@AEAAXPEAPEAX00@Z ; std::vector<void *,std::allocator<void *> >::_Umove_if_noexcept
PUBLIC	?_Destroy@?$vector@PEAXV?$allocator@PEAX@std@@@std@@AEAAXPEAPEAX0@Z ; std::vector<void *,std::allocator<void *> >::_Destroy
PUBLIC	?_Calculate_growth@?$vector@PEAXV?$allocator@PEAX@std@@@std@@AEBA_K_K@Z ; std::vector<void *,std::allocator<void *> >::_Calculate_growth
PUBLIC	?_Buy_raw@?$vector@PEAXV?$allocator@PEAX@std@@@std@@AEAAX_K@Z ; std::vector<void *,std::allocator<void *> >::_Buy_raw
PUBLIC	?_Change_array@?$vector@PEAXV?$allocator@PEAX@std@@@std@@AEAAXQEAPEAX_K1@Z ; std::vector<void *,std::allocator<void *> >::_Change_array
PUBLIC	?_Tidy@?$vector@PEAXV?$allocator@PEAX@std@@@std@@AEAAXXZ ; std::vector<void *,std::allocator<void *> >::_Tidy
PUBLIC	?_Xlength@?$vector@PEAXV?$allocator@PEAX@std@@@std@@CAXXZ ; std::vector<void *,std::allocator<void *> >::_Xlength
PUBLIC	?_Orphan_range@?$vector@PEAXV?$allocator@PEAX@std@@@std@@AEBAXPEAPEAX0@Z ; std::vector<void *,std::allocator<void *> >::_Orphan_range
PUBLIC	?_Getal@?$vector@PEAXV?$allocator@PEAX@std@@@std@@AEAAAEAV?$allocator@PEAX@2@XZ ; std::vector<void *,std::allocator<void *> >::_Getal
PUBLIC	?_Getal@?$vector@PEAXV?$allocator@PEAX@std@@@std@@AEBAAEBV?$allocator@PEAX@2@XZ ; std::vector<void *,std::allocator<void *> >::_Getal
PUBLIC	??0?$_Vector_val@U?$_Simple_types@PEAX@std@@@std@@QEAA@XZ ; std::_Vector_val<std::_Simple_types<void *> >::_Vector_val<std::_Simple_types<void *> >
PUBLIC	?_Get_first@?$_Compressed_pair@V?$allocator@PEAX@std@@V?$_Vector_val@U?$_Simple_types@PEAX@std@@@2@$00@std@@QEAAAEAV?$allocator@PEAX@2@XZ ; std::_Compressed_pair<std::allocator<void *>,std::_Vector_val<std::_Simple_types<void *> >,1>::_Get_first
PUBLIC	?_Get_first@?$_Compressed_pair@V?$allocator@PEAX@std@@V?$_Vector_val@U?$_Simple_types@PEAX@std@@@2@$00@std@@QEBAAEBV?$allocator@PEAX@2@XZ ; std::_Compressed_pair<std::allocator<void *>,std::_Vector_val<std::_Simple_types<void *> >,1>::_Get_first
PUBLIC	??0?$allocator@PEAUID3D11Texture2D@@@std@@QEAA@XZ ; std::allocator<ID3D11Texture2D *>::allocator<ID3D11Texture2D *>
PUBLIC	?deallocate@?$allocator@PEAUID3D11Texture2D@@@std@@QEAAXQEAPEAUID3D11Texture2D@@_K@Z ; std::allocator<ID3D11Texture2D *>::deallocate
PUBLIC	?allocate@?$allocator@PEAUID3D11Texture2D@@@std@@QEAAPEAPEAUID3D11Texture2D@@_K@Z ; std::allocator<ID3D11Texture2D *>::allocate
PUBLIC	?max_size@?$_Default_allocator_traits@V?$allocator@PEAUID3D11Texture2D@@@std@@@std@@SA_KAEBV?$allocator@PEAUID3D11Texture2D@@@2@@Z ; std::_Default_allocator_traits<std::allocator<ID3D11Texture2D *> >::max_size
PUBLIC	?select_on_container_copy_construction@?$_Default_allocator_traits@V?$allocator@PEAUID3D11Texture2D@@@std@@@std@@SA?AV?$allocator@PEAUID3D11Texture2D@@@2@AEBV32@@Z ; std::_Default_allocator_traits<std::allocator<ID3D11Texture2D *> >::select_on_container_copy_construction
PUBLIC	??0?$vector@PEAUID3D11Texture2D@@V?$allocator@PEAUID3D11Texture2D@@@std@@@std@@QEAA@XZ ; std::vector<ID3D11Texture2D *,std::allocator<ID3D11Texture2D *> >::vector<ID3D11Texture2D *,std::allocator<ID3D11Texture2D *> >
PUBLIC	??0?$vector@PEAUID3D11Texture2D@@V?$allocator@PEAUID3D11Texture2D@@@std@@@std@@QEAA@AEBV01@@Z ; std::vector<ID3D11Texture2D *,std::allocator<ID3D11Texture2D *> >::vector<ID3D11Texture2D *,std::allocator<ID3D11Texture2D *> >
PUBLIC	??1?$vector@PEAUID3D11Texture2D@@V?$allocator@PEAUID3D11Texture2D@@@std@@@std@@QEAA@XZ ; std::vector<ID3D11Texture2D *,std::allocator<ID3D11Texture2D *> >::~vector<ID3D11Texture2D *,std::allocator<ID3D11Texture2D *> >
PUBLIC	?push_back@?$vector@PEAUID3D11Texture2D@@V?$allocator@PEAUID3D11Texture2D@@@std@@@std@@QEAAXAEBQEAUID3D11Texture2D@@@Z ; std::vector<ID3D11Texture2D *,std::allocator<ID3D11Texture2D *> >::push_back
PUBLIC	?push_back@?$vector@PEAUID3D11Texture2D@@V?$allocator@PEAUID3D11Texture2D@@@std@@@std@@QEAAX$$QEAPEAUID3D11Texture2D@@@Z ; std::vector<ID3D11Texture2D *,std::allocator<ID3D11Texture2D *> >::push_back
PUBLIC	?clear@?$vector@PEAUID3D11Texture2D@@V?$allocator@PEAUID3D11Texture2D@@@std@@@std@@QEAAXXZ ; std::vector<ID3D11Texture2D *,std::allocator<ID3D11Texture2D *> >::clear
PUBLIC	?_Unchecked_begin@?$vector@PEAUID3D11Texture2D@@V?$allocator@PEAUID3D11Texture2D@@@std@@@std@@QEAAPEAPEAUID3D11Texture2D@@XZ ; std::vector<ID3D11Texture2D *,std::allocator<ID3D11Texture2D *> >::_Unchecked_begin
PUBLIC	?_Unchecked_end@?$vector@PEAUID3D11Texture2D@@V?$allocator@PEAUID3D11Texture2D@@@std@@@std@@QEAAPEAPEAUID3D11Texture2D@@XZ ; std::vector<ID3D11Texture2D *,std::allocator<ID3D11Texture2D *> >::_Unchecked_end
PUBLIC	?empty@?$vector@PEAUID3D11Texture2D@@V?$allocator@PEAUID3D11Texture2D@@@std@@@std@@QEBA_NXZ ; std::vector<ID3D11Texture2D *,std::allocator<ID3D11Texture2D *> >::empty
PUBLIC	?size@?$vector@PEAUID3D11Texture2D@@V?$allocator@PEAUID3D11Texture2D@@@std@@@std@@QEBA_KXZ ; std::vector<ID3D11Texture2D *,std::allocator<ID3D11Texture2D *> >::size
PUBLIC	?max_size@?$vector@PEAUID3D11Texture2D@@V?$allocator@PEAUID3D11Texture2D@@@std@@@std@@QEBA_KXZ ; std::vector<ID3D11Texture2D *,std::allocator<ID3D11Texture2D *> >::max_size
PUBLIC	?capacity@?$vector@PEAUID3D11Texture2D@@V?$allocator@PEAUID3D11Texture2D@@@std@@@std@@QEBA_KXZ ; std::vector<ID3D11Texture2D *,std::allocator<ID3D11Texture2D *> >::capacity
PUBLIC	??A?$vector@PEAUID3D11Texture2D@@V?$allocator@PEAUID3D11Texture2D@@@std@@@std@@QEAAAEAPEAUID3D11Texture2D@@_K@Z ; std::vector<ID3D11Texture2D *,std::allocator<ID3D11Texture2D *> >::operator[]
PUBLIC	?_Umove@?$vector@PEAUID3D11Texture2D@@V?$allocator@PEAUID3D11Texture2D@@@std@@@std@@AEAAPEAPEAUID3D11Texture2D@@PEAPEAU3@00@Z ; std::vector<ID3D11Texture2D *,std::allocator<ID3D11Texture2D *> >::_Umove
PUBLIC	?_Umove_if_noexcept1@?$vector@PEAUID3D11Texture2D@@V?$allocator@PEAUID3D11Texture2D@@@std@@@std@@AEAAXPEAPEAUID3D11Texture2D@@00U?$integral_constant@_N$00@2@@Z ; std::vector<ID3D11Texture2D *,std::allocator<ID3D11Texture2D *> >::_Umove_if_noexcept1
PUBLIC	?_Umove_if_noexcept@?$vector@PEAUID3D11Texture2D@@V?$allocator@PEAUID3D11Texture2D@@@std@@@std@@AEAAXPEAPEAUID3D11Texture2D@@00@Z ; std::vector<ID3D11Texture2D *,std::allocator<ID3D11Texture2D *> >::_Umove_if_noexcept
PUBLIC	?_Destroy@?$vector@PEAUID3D11Texture2D@@V?$allocator@PEAUID3D11Texture2D@@@std@@@std@@AEAAXPEAPEAUID3D11Texture2D@@0@Z ; std::vector<ID3D11Texture2D *,std::allocator<ID3D11Texture2D *> >::_Destroy
PUBLIC	?_Calculate_growth@?$vector@PEAUID3D11Texture2D@@V?$allocator@PEAUID3D11Texture2D@@@std@@@std@@AEBA_K_K@Z ; std::vector<ID3D11Texture2D *,std::allocator<ID3D11Texture2D *> >::_Calculate_growth
PUBLIC	?_Buy_raw@?$vector@PEAUID3D11Texture2D@@V?$allocator@PEAUID3D11Texture2D@@@std@@@std@@AEAAX_K@Z ; std::vector<ID3D11Texture2D *,std::allocator<ID3D11Texture2D *> >::_Buy_raw
PUBLIC	?_Change_array@?$vector@PEAUID3D11Texture2D@@V?$allocator@PEAUID3D11Texture2D@@@std@@@std@@AEAAXQEAPEAUID3D11Texture2D@@_K1@Z ; std::vector<ID3D11Texture2D *,std::allocator<ID3D11Texture2D *> >::_Change_array
PUBLIC	?_Tidy@?$vector@PEAUID3D11Texture2D@@V?$allocator@PEAUID3D11Texture2D@@@std@@@std@@AEAAXXZ ; std::vector<ID3D11Texture2D *,std::allocator<ID3D11Texture2D *> >::_Tidy
PUBLIC	?_Xlength@?$vector@PEAUID3D11Texture2D@@V?$allocator@PEAUID3D11Texture2D@@@std@@@std@@CAXXZ ; std::vector<ID3D11Texture2D *,std::allocator<ID3D11Texture2D *> >::_Xlength
PUBLIC	?_Orphan_range@?$vector@PEAUID3D11Texture2D@@V?$allocator@PEAUID3D11Texture2D@@@std@@@std@@AEBAXPEAPEAUID3D11Texture2D@@0@Z ; std::vector<ID3D11Texture2D *,std::allocator<ID3D11Texture2D *> >::_Orphan_range
PUBLIC	?_Getal@?$vector@PEAUID3D11Texture2D@@V?$allocator@PEAUID3D11Texture2D@@@std@@@std@@AEAAAEAV?$allocator@PEAUID3D11Texture2D@@@2@XZ ; std::vector<ID3D11Texture2D *,std::allocator<ID3D11Texture2D *> >::_Getal
PUBLIC	?_Getal@?$vector@PEAUID3D11Texture2D@@V?$allocator@PEAUID3D11Texture2D@@@std@@@std@@AEBAAEBV?$allocator@PEAUID3D11Texture2D@@@2@XZ ; std::vector<ID3D11Texture2D *,std::allocator<ID3D11Texture2D *> >::_Getal
PUBLIC	??0?$_Vector_val@U?$_Simple_types@PEAUID3D11Texture2D@@@std@@@std@@QEAA@XZ ; std::_Vector_val<std::_Simple_types<ID3D11Texture2D *> >::_Vector_val<std::_Simple_types<ID3D11Texture2D *> >
PUBLIC	?_Get_first@?$_Compressed_pair@V?$allocator@PEAUID3D11Texture2D@@@std@@V?$_Vector_val@U?$_Simple_types@PEAUID3D11Texture2D@@@std@@@2@$00@std@@QEAAAEAV?$allocator@PEAUID3D11Texture2D@@@2@XZ ; std::_Compressed_pair<std::allocator<ID3D11Texture2D *>,std::_Vector_val<std::_Simple_types<ID3D11Texture2D *> >,1>::_Get_first
PUBLIC	?_Get_first@?$_Compressed_pair@V?$allocator@PEAUID3D11Texture2D@@@std@@V?$_Vector_val@U?$_Simple_types@PEAUID3D11Texture2D@@@std@@@2@$00@std@@QEBAAEBV?$allocator@PEAUID3D11Texture2D@@@2@XZ ; std::_Compressed_pair<std::allocator<ID3D11Texture2D *>,std::_Vector_val<std::_Simple_types<ID3D11Texture2D *> >,1>::_Get_first
PUBLIC	??0TextureResource@QSVAllocatorD3D11@@QEAA@XZ	; QSVAllocatorD3D11::TextureResource::TextureResource
PUBLIC	?isAllocated@TextureResource@QSVAllocatorD3D11@@SA_NAEAU12@@Z ; QSVAllocatorD3D11::TextureResource::isAllocated
PUBLIC	?Release@TextureResource@QSVAllocatorD3D11@@QEAAXXZ ; QSVAllocatorD3D11::TextureResource::Release
PUBLIC	??1TextureResource@QSVAllocatorD3D11@@QEAA@XZ	; QSVAllocatorD3D11::TextureResource::~TextureResource
PUBLIC	??0TextureResource@QSVAllocatorD3D11@@QEAA@AEBU01@@Z ; QSVAllocatorD3D11::TextureResource::TextureResource
PUBLIC	??_GTextureResource@QSVAllocatorD3D11@@QEAAPEAXI@Z ; QSVAllocatorD3D11::TextureResource::`scalar deleting destructor'
PUBLIC	??0TextureSubResource@QSVAllocatorD3D11@@QEAA@PEAUTextureResource@1@PEAX@Z ; QSVAllocatorD3D11::TextureSubResource::TextureSubResource
PUBLIC	?GetStaging@TextureSubResource@QSVAllocatorD3D11@@QEBAPEAUID3D11Texture2D@@XZ ; QSVAllocatorD3D11::TextureSubResource::GetStaging
PUBLIC	?GetTexture@TextureSubResource@QSVAllocatorD3D11@@QEBAPEAUID3D11Texture2D@@XZ ; QSVAllocatorD3D11::TextureSubResource::GetTexture
PUBLIC	?GetSubResource@TextureSubResource@QSVAllocatorD3D11@@QEBAIXZ ; QSVAllocatorD3D11::TextureSubResource::GetSubResource
PUBLIC	?Release@TextureSubResource@QSVAllocatorD3D11@@QEAAXXZ ; QSVAllocatorD3D11::TextureSubResource::Release
PUBLIC	?GetResourceFromMid@QSVAllocatorD3D11@@IEAA?AVTextureSubResource@1@PEAX@Z ; QSVAllocatorD3D11::GetResourceFromMid
PUBLIC	??0?$allocator@U?$_List_node@UTextureResource@QSVAllocatorD3D11@@PEAX@std@@@std@@QEAA@XZ ; std::allocator<std::_List_node<QSVAllocatorD3D11::TextureResource,void *> >::allocator<std::_List_node<QSVAllocatorD3D11::TextureResource,void *> >
PUBLIC	?deallocate@?$allocator@U?$_List_node@UTextureResource@QSVAllocatorD3D11@@PEAX@std@@@std@@QEAAXQEAU?$_List_node@UTextureResource@QSVAllocatorD3D11@@PEAX@2@_K@Z ; std::allocator<std::_List_node<QSVAllocatorD3D11::TextureResource,void *> >::deallocate
PUBLIC	?allocate@?$allocator@U?$_List_node@UTextureResource@QSVAllocatorD3D11@@PEAX@std@@@std@@QEAAPEAU?$_List_node@UTextureResource@QSVAllocatorD3D11@@PEAX@2@_K@Z ; std::allocator<std::_List_node<QSVAllocatorD3D11::TextureResource,void *> >::allocate
PUBLIC	?deallocate@?$_Default_allocator_traits@V?$allocator@U?$_List_node@UTextureResource@QSVAllocatorD3D11@@PEAX@std@@@std@@@std@@SAXAEAV?$allocator@U?$_List_node@UTextureResource@QSVAllocatorD3D11@@PEAX@std@@@2@QEAU?$_List_node@UTextureResource@QSVAllocatorD3D11@@PEAX@2@_K@Z ; std::_Default_allocator_traits<std::allocator<std::_List_node<QSVAllocatorD3D11::TextureResource,void *> > >::deallocate
PUBLIC	?max_size@?$_Default_allocator_traits@V?$allocator@U?$_List_node@UTextureResource@QSVAllocatorD3D11@@PEAX@std@@@std@@@std@@SA_KAEBV?$allocator@U?$_List_node@UTextureResource@QSVAllocatorD3D11@@PEAX@std@@@2@@Z ; std::_Default_allocator_traits<std::allocator<std::_List_node<QSVAllocatorD3D11::TextureResource,void *> > >::max_size
PUBLIC	??0?$list@UTextureResource@QSVAllocatorD3D11@@V?$allocator@UTextureResource@QSVAllocatorD3D11@@@std@@@std@@QEAA@XZ ; std::list<QSVAllocatorD3D11::TextureResource,std::allocator<QSVAllocatorD3D11::TextureResource> >::list<QSVAllocatorD3D11::TextureResource,std::allocator<QSVAllocatorD3D11::TextureResource> >
PUBLIC	??1?$list@UTextureResource@QSVAllocatorD3D11@@V?$allocator@UTextureResource@QSVAllocatorD3D11@@@std@@@std@@QEAA@XZ ; std::list<QSVAllocatorD3D11::TextureResource,std::allocator<QSVAllocatorD3D11::TextureResource> >::~list<QSVAllocatorD3D11::TextureResource,std::allocator<QSVAllocatorD3D11::TextureResource> >
PUBLIC	?begin@?$list@UTextureResource@QSVAllocatorD3D11@@V?$allocator@UTextureResource@QSVAllocatorD3D11@@@std@@@std@@QEAA?AV?$_List_iterator@V?$_List_val@U?$_List_simple_types@UTextureResource@QSVAllocatorD3D11@@@std@@@std@@@2@XZ ; std::list<QSVAllocatorD3D11::TextureResource,std::allocator<QSVAllocatorD3D11::TextureResource> >::begin
PUBLIC	?end@?$list@UTextureResource@QSVAllocatorD3D11@@V?$allocator@UTextureResource@QSVAllocatorD3D11@@@std@@@std@@QEAA?AV?$_List_iterator@V?$_List_val@U?$_List_simple_types@UTextureResource@QSVAllocatorD3D11@@@std@@@std@@@2@XZ ; std::list<QSVAllocatorD3D11::TextureResource,std::allocator<QSVAllocatorD3D11::TextureResource> >::end
PUBLIC	?_Unchecked_begin@?$list@UTextureResource@QSVAllocatorD3D11@@V?$allocator@UTextureResource@QSVAllocatorD3D11@@@std@@@std@@QEAA?AV?$_List_unchecked_iterator@V?$_List_val@U?$_List_simple_types@UTextureResource@QSVAllocatorD3D11@@@std@@@std@@@2@XZ ; std::list<QSVAllocatorD3D11::TextureResource,std::allocator<QSVAllocatorD3D11::TextureResource> >::_Unchecked_begin
PUBLIC	?_Unchecked_end@?$list@UTextureResource@QSVAllocatorD3D11@@V?$allocator@UTextureResource@QSVAllocatorD3D11@@@std@@@std@@QEAA?AV?$_List_unchecked_iterator@V?$_List_val@U?$_List_simple_types@UTextureResource@QSVAllocatorD3D11@@@std@@@std@@@2@XZ ; std::list<QSVAllocatorD3D11::TextureResource,std::allocator<QSVAllocatorD3D11::TextureResource> >::_Unchecked_end
PUBLIC	?max_size@?$list@UTextureResource@QSVAllocatorD3D11@@V?$allocator@UTextureResource@QSVAllocatorD3D11@@@std@@@std@@QEBA_KXZ ; std::list<QSVAllocatorD3D11::TextureResource,std::allocator<QSVAllocatorD3D11::TextureResource> >::max_size
PUBLIC	?empty@?$list@UTextureResource@QSVAllocatorD3D11@@V?$allocator@UTextureResource@QSVAllocatorD3D11@@@std@@@std@@QEBA_NXZ ; std::list<QSVAllocatorD3D11::TextureResource,std::allocator<QSVAllocatorD3D11::TextureResource> >::empty
PUBLIC	?back@?$list@UTextureResource@QSVAllocatorD3D11@@V?$allocator@UTextureResource@QSVAllocatorD3D11@@@std@@@std@@QEAAAEAUTextureResource@QSVAllocatorD3D11@@XZ ; std::list<QSVAllocatorD3D11::TextureResource,std::allocator<QSVAllocatorD3D11::TextureResource> >::back
PUBLIC	?push_back@?$list@UTextureResource@QSVAllocatorD3D11@@V?$allocator@UTextureResource@QSVAllocatorD3D11@@@std@@@std@@QEAAXAEBUTextureResource@QSVAllocatorD3D11@@@Z ; std::list<QSVAllocatorD3D11::TextureResource,std::allocator<QSVAllocatorD3D11::TextureResource> >::push_back
PUBLIC	?clear@?$list@UTextureResource@QSVAllocatorD3D11@@V?$allocator@UTextureResource@QSVAllocatorD3D11@@@std@@@std@@QEAAXXZ ; std::list<QSVAllocatorD3D11::TextureResource,std::allocator<QSVAllocatorD3D11::TextureResource> >::clear
PUBLIC	?_Tidy@?$list@UTextureResource@QSVAllocatorD3D11@@V?$allocator@UTextureResource@QSVAllocatorD3D11@@@std@@@std@@AEAAXXZ ; std::list<QSVAllocatorD3D11::TextureResource,std::allocator<QSVAllocatorD3D11::TextureResource> >::_Tidy
PUBLIC	?_Alloc_sentinel_and_proxy@?$list@UTextureResource@QSVAllocatorD3D11@@V?$allocator@UTextureResource@QSVAllocatorD3D11@@@std@@@std@@AEAAXXZ ; std::list<QSVAllocatorD3D11::TextureResource,std::allocator<QSVAllocatorD3D11::TextureResource> >::_Alloc_sentinel_and_proxy
PUBLIC	?_Getal@?$list@UTextureResource@QSVAllocatorD3D11@@V?$allocator@UTextureResource@QSVAllocatorD3D11@@@std@@@std@@AEAAAEAV?$allocator@U?$_List_node@UTextureResource@QSVAllocatorD3D11@@PEAX@std@@@2@XZ ; std::list<QSVAllocatorD3D11::TextureResource,std::allocator<QSVAllocatorD3D11::TextureResource> >::_Getal
PUBLIC	?_Getal@?$list@UTextureResource@QSVAllocatorD3D11@@V?$allocator@UTextureResource@QSVAllocatorD3D11@@@std@@@std@@AEBAAEBV?$allocator@U?$_List_node@UTextureResource@QSVAllocatorD3D11@@PEAX@std@@@2@XZ ; std::list<QSVAllocatorD3D11::TextureResource,std::allocator<QSVAllocatorD3D11::TextureResource> >::_Getal
PUBLIC	??0?$_List_val@U?$_List_simple_types@UTextureResource@QSVAllocatorD3D11@@@std@@@std@@QEAA@XZ ; std::_List_val<std::_List_simple_types<QSVAllocatorD3D11::TextureResource> >::_List_val<std::_List_simple_types<QSVAllocatorD3D11::TextureResource> >
PUBLIC	?_Orphan_non_end@?$_List_val@U?$_List_simple_types@UTextureResource@QSVAllocatorD3D11@@@std@@@std@@QEAAXXZ ; std::_List_val<std::_List_simple_types<QSVAllocatorD3D11::TextureResource> >::_Orphan_non_end
PUBLIC	?_Get_first@?$_Compressed_pair@V?$allocator@U?$_List_node@UTextureResource@QSVAllocatorD3D11@@PEAX@std@@@std@@V?$_List_val@U?$_List_simple_types@UTextureResource@QSVAllocatorD3D11@@@std@@@2@$00@std@@QEAAAEAV?$allocator@U?$_List_node@UTextureResource@QSVAllocatorD3D11@@PEAX@std@@@2@XZ ; std::_Compressed_pair<std::allocator<std::_List_node<QSVAllocatorD3D11::TextureResource,void *> >,std::_List_val<std::_List_simple_types<QSVAllocatorD3D11::TextureResource> >,1>::_Get_first
PUBLIC	?_Get_first@?$_Compressed_pair@V?$allocator@U?$_List_node@UTextureResource@QSVAllocatorD3D11@@PEAX@std@@@std@@V?$_List_val@U?$_List_simple_types@UTextureResource@QSVAllocatorD3D11@@@std@@@2@$00@std@@QEBAAEBV?$allocator@U?$_List_node@UTextureResource@QSVAllocatorD3D11@@PEAX@std@@@2@XZ ; std::_Compressed_pair<std::allocator<std::_List_node<QSVAllocatorD3D11::TextureResource,void *> >,std::_List_val<std::_List_simple_types<QSVAllocatorD3D11::TextureResource> >,1>::_Get_first
PUBLIC	??0?$allocator@V?$_List_iterator@V?$_List_val@U?$_List_simple_types@UTextureResource@QSVAllocatorD3D11@@@std@@@std@@@std@@@std@@QEAA@XZ ; std::allocator<std::_List_iterator<std::_List_val<std::_List_simple_types<QSVAllocatorD3D11::TextureResource> > > >::allocator<std::_List_iterator<std::_List_val<std::_List_simple_types<QSVAllocatorD3D11::TextureResource> > > >
PUBLIC	?deallocate@?$allocator@V?$_List_iterator@V?$_List_val@U?$_List_simple_types@UTextureResource@QSVAllocatorD3D11@@@std@@@std@@@std@@@std@@QEAAXQEAV?$_List_iterator@V?$_List_val@U?$_List_simple_types@UTextureResource@QSVAllocatorD3D11@@@std@@@std@@@2@_K@Z ; std::allocator<std::_List_iterator<std::_List_val<std::_List_simple_types<QSVAllocatorD3D11::TextureResource> > > >::deallocate
PUBLIC	?allocate@?$allocator@V?$_List_iterator@V?$_List_val@U?$_List_simple_types@UTextureResource@QSVAllocatorD3D11@@@std@@@std@@@std@@@std@@QEAAPEAV?$_List_iterator@V?$_List_val@U?$_List_simple_types@UTextureResource@QSVAllocatorD3D11@@@std@@@std@@@2@_K@Z ; std::allocator<std::_List_iterator<std::_List_val<std::_List_simple_types<QSVAllocatorD3D11::TextureResource> > > >::allocate
PUBLIC	?max_size@?$_Default_allocator_traits@V?$allocator@V?$_List_iterator@V?$_List_val@U?$_List_simple_types@UTextureResource@QSVAllocatorD3D11@@@std@@@std@@@std@@@std@@@std@@SA_KAEBV?$allocator@V?$_List_iterator@V?$_List_val@U?$_List_simple_types@UTextureResource@QSVAllocatorD3D11@@@std@@@std@@@std@@@2@@Z ; std::_Default_allocator_traits<std::allocator<std::_List_iterator<std::_List_val<std::_List_simple_types<QSVAllocatorD3D11::TextureResource> > > > >::max_size
PUBLIC	??0?$vector@V?$_List_iterator@V?$_List_val@U?$_List_simple_types@UTextureResource@QSVAllocatorD3D11@@@std@@@std@@@std@@V?$allocator@V?$_List_iterator@V?$_List_val@U?$_List_simple_types@UTextureResource@QSVAllocatorD3D11@@@std@@@std@@@std@@@2@@std@@QEAA@XZ ; std::vector<std::_List_iterator<std::_List_val<std::_List_simple_types<QSVAllocatorD3D11::TextureResource> > >,std::allocator<std::_List_iterator<std::_List_val<std::_List_simple_types<QSVAllocatorD3D11::TextureResource> > > > >::vector<std::_List_iterator<std::_List_val<std::_List_simple_types<QSVAllocatorD3D11::TextureResource> > >,std::allocator<std::_List_iterator<std::_List_val<std::_List_simple_types<QSVAllocatorD3D11::TextureResource> > > > >
PUBLIC	??1?$vector@V?$_List_iterator@V?$_List_val@U?$_List_simple_types@UTextureResource@QSVAllocatorD3D11@@@std@@@std@@@std@@V?$allocator@V?$_List_iterator@V?$_List_val@U?$_List_simple_types@UTextureResource@QSVAllocatorD3D11@@@std@@@std@@@std@@@2@@std@@QEAA@XZ ; std::vector<std::_List_iterator<std::_List_val<std::_List_simple_types<QSVAllocatorD3D11::TextureResource> > >,std::allocator<std::_List_iterator<std::_List_val<std::_List_simple_types<QSVAllocatorD3D11::TextureResource> > > > >::~vector<std::_List_iterator<std::_List_val<std::_List_simple_types<QSVAllocatorD3D11::TextureResource> > >,std::allocator<std::_List_iterator<std::_List_val<std::_List_simple_types<QSVAllocatorD3D11::TextureResource> > > > >
PUBLIC	?push_back@?$vector@V?$_List_iterator@V?$_List_val@U?$_List_simple_types@UTextureResource@QSVAllocatorD3D11@@@std@@@std@@@std@@V?$allocator@V?$_List_iterator@V?$_List_val@U?$_List_simple_types@UTextureResource@QSVAllocatorD3D11@@@std@@@std@@@std@@@2@@std@@QEAAXAEBV?$_List_iterator@V?$_List_val@U?$_List_simple_types@UTextureResource@QSVAllocatorD3D11@@@std@@@std@@@2@@Z ; std::vector<std::_List_iterator<std::_List_val<std::_List_simple_types<QSVAllocatorD3D11::TextureResource> > >,std::allocator<std::_List_iterator<std::_List_val<std::_List_simple_types<QSVAllocatorD3D11::TextureResource> > > > >::push_back
PUBLIC	?clear@?$vector@V?$_List_iterator@V?$_List_val@U?$_List_simple_types@UTextureResource@QSVAllocatorD3D11@@@std@@@std@@@std@@V?$allocator@V?$_List_iterator@V?$_List_val@U?$_List_simple_types@UTextureResource@QSVAllocatorD3D11@@@std@@@std@@@std@@@2@@std@@QEAAXXZ ; std::vector<std::_List_iterator<std::_List_val<std::_List_simple_types<QSVAllocatorD3D11::TextureResource> > >,std::allocator<std::_List_iterator<std::_List_val<std::_List_simple_types<QSVAllocatorD3D11::TextureResource> > > > >::clear
PUBLIC	?size@?$vector@V?$_List_iterator@V?$_List_val@U?$_List_simple_types@UTextureResource@QSVAllocatorD3D11@@@std@@@std@@@std@@V?$allocator@V?$_List_iterator@V?$_List_val@U?$_List_simple_types@UTextureResource@QSVAllocatorD3D11@@@std@@@std@@@std@@@2@@std@@QEBA_KXZ ; std::vector<std::_List_iterator<std::_List_val<std::_List_simple_types<QSVAllocatorD3D11::TextureResource> > >,std::allocator<std::_List_iterator<std::_List_val<std::_List_simple_types<QSVAllocatorD3D11::TextureResource> > > > >::size
PUBLIC	?max_size@?$vector@V?$_List_iterator@V?$_List_val@U?$_List_simple_types@UTextureResource@QSVAllocatorD3D11@@@std@@@std@@@std@@V?$allocator@V?$_List_iterator@V?$_List_val@U?$_List_simple_types@UTextureResource@QSVAllocatorD3D11@@@std@@@std@@@std@@@2@@std@@QEBA_KXZ ; std::vector<std::_List_iterator<std::_List_val<std::_List_simple_types<QSVAllocatorD3D11::TextureResource> > >,std::allocator<std::_List_iterator<std::_List_val<std::_List_simple_types<QSVAllocatorD3D11::TextureResource> > > > >::max_size
PUBLIC	?capacity@?$vector@V?$_List_iterator@V?$_List_val@U?$_List_simple_types@UTextureResource@QSVAllocatorD3D11@@@std@@@std@@@std@@V?$allocator@V?$_List_iterator@V?$_List_val@U?$_List_simple_types@UTextureResource@QSVAllocatorD3D11@@@std@@@std@@@std@@@2@@std@@QEBA_KXZ ; std::vector<std::_List_iterator<std::_List_val<std::_List_simple_types<QSVAllocatorD3D11::TextureResource> > >,std::allocator<std::_List_iterator<std::_List_val<std::_List_simple_types<QSVAllocatorD3D11::TextureResource> > > > >::capacity
PUBLIC	??A?$vector@V?$_List_iterator@V?$_List_val@U?$_List_simple_types@UTextureResource@QSVAllocatorD3D11@@@std@@@std@@@std@@V?$allocator@V?$_List_iterator@V?$_List_val@U?$_List_simple_types@UTextureResource@QSVAllocatorD3D11@@@std@@@std@@@std@@@2@@std@@QEAAAEAV?$_List_iterator@V?$_List_val@U?$_List_simple_types@UTextureResource@QSVAllocatorD3D11@@@std@@@std@@@1@_K@Z ; std::vector<std::_List_iterator<std::_List_val<std::_List_simple_types<QSVAllocatorD3D11::TextureResource> > >,std::allocator<std::_List_iterator<std::_List_val<std::_List_simple_types<QSVAllocatorD3D11::TextureResource> > > > >::operator[]
PUBLIC	?_Umove@?$vector@V?$_List_iterator@V?$_List_val@U?$_List_simple_types@UTextureResource@QSVAllocatorD3D11@@@std@@@std@@@std@@V?$allocator@V?$_List_iterator@V?$_List_val@U?$_List_simple_types@UTextureResource@QSVAllocatorD3D11@@@std@@@std@@@std@@@2@@std@@AEAAPEAV?$_List_iterator@V?$_List_val@U?$_List_simple_types@UTextureResource@QSVAllocatorD3D11@@@std@@@std@@@2@PEAV32@00@Z ; std::vector<std::_List_iterator<std::_List_val<std::_List_simple_types<QSVAllocatorD3D11::TextureResource> > >,std::allocator<std::_List_iterator<std::_List_val<std::_List_simple_types<QSVAllocatorD3D11::TextureResource> > > > >::_Umove
PUBLIC	?_Umove_if_noexcept1@?$vector@V?$_List_iterator@V?$_List_val@U?$_List_simple_types@UTextureResource@QSVAllocatorD3D11@@@std@@@std@@@std@@V?$allocator@V?$_List_iterator@V?$_List_val@U?$_List_simple_types@UTextureResource@QSVAllocatorD3D11@@@std@@@std@@@std@@@2@@std@@AEAAXPEAV?$_List_iterator@V?$_List_val@U?$_List_simple_types@UTextureResource@QSVAllocatorD3D11@@@std@@@std@@@2@00U?$integral_constant@_N$00@2@@Z ; std::vector<std::_List_iterator<std::_List_val<std::_List_simple_types<QSVAllocatorD3D11::TextureResource> > >,std::allocator<std::_List_iterator<std::_List_val<std::_List_simple_types<QSVAllocatorD3D11::TextureResource> > > > >::_Umove_if_noexcept1
PUBLIC	?_Umove_if_noexcept@?$vector@V?$_List_iterator@V?$_List_val@U?$_List_simple_types@UTextureResource@QSVAllocatorD3D11@@@std@@@std@@@std@@V?$allocator@V?$_List_iterator@V?$_List_val@U?$_List_simple_types@UTextureResource@QSVAllocatorD3D11@@@std@@@std@@@std@@@2@@std@@AEAAXPEAV?$_List_iterator@V?$_List_val@U?$_List_simple_types@UTextureResource@QSVAllocatorD3D11@@@std@@@std@@@2@00@Z ; std::vector<std::_List_iterator<std::_List_val<std::_List_simple_types<QSVAllocatorD3D11::TextureResource> > >,std::allocator<std::_List_iterator<std::_List_val<std::_List_simple_types<QSVAllocatorD3D11::TextureResource> > > > >::_Umove_if_noexcept
PUBLIC	?_Destroy@?$vector@V?$_List_iterator@V?$_List_val@U?$_List_simple_types@UTextureResource@QSVAllocatorD3D11@@@std@@@std@@@std@@V?$allocator@V?$_List_iterator@V?$_List_val@U?$_List_simple_types@UTextureResource@QSVAllocatorD3D11@@@std@@@std@@@std@@@2@@std@@AEAAXPEAV?$_List_iterator@V?$_List_val@U?$_List_simple_types@UTextureResource@QSVAllocatorD3D11@@@std@@@std@@@2@0@Z ; std::vector<std::_List_iterator<std::_List_val<std::_List_simple_types<QSVAllocatorD3D11::TextureResource> > >,std::allocator<std::_List_iterator<std::_List_val<std::_List_simple_types<QSVAllocatorD3D11::TextureResource> > > > >::_Destroy
PUBLIC	?_Calculate_growth@?$vector@V?$_List_iterator@V?$_List_val@U?$_List_simple_types@UTextureResource@QSVAllocatorD3D11@@@std@@@std@@@std@@V?$allocator@V?$_List_iterator@V?$_List_val@U?$_List_simple_types@UTextureResource@QSVAllocatorD3D11@@@std@@@std@@@std@@@2@@std@@AEBA_K_K@Z ; std::vector<std::_List_iterator<std::_List_val<std::_List_simple_types<QSVAllocatorD3D11::TextureResource> > >,std::allocator<std::_List_iterator<std::_List_val<std::_List_simple_types<QSVAllocatorD3D11::TextureResource> > > > >::_Calculate_growth
PUBLIC	?_Change_array@?$vector@V?$_List_iterator@V?$_List_val@U?$_List_simple_types@UTextureResource@QSVAllocatorD3D11@@@std@@@std@@@std@@V?$allocator@V?$_List_iterator@V?$_List_val@U?$_List_simple_types@UTextureResource@QSVAllocatorD3D11@@@std@@@std@@@std@@@2@@std@@AEAAXQEAV?$_List_iterator@V?$_List_val@U?$_List_simple_types@UTextureResource@QSVAllocatorD3D11@@@std@@@std@@@2@_K1@Z ; std::vector<std::_List_iterator<std::_List_val<std::_List_simple_types<QSVAllocatorD3D11::TextureResource> > >,std::allocator<std::_List_iterator<std::_List_val<std::_List_simple_types<QSVAllocatorD3D11::TextureResource> > > > >::_Change_array
PUBLIC	?_Tidy@?$vector@V?$_List_iterator@V?$_List_val@U?$_List_simple_types@UTextureResource@QSVAllocatorD3D11@@@std@@@std@@@std@@V?$allocator@V?$_List_iterator@V?$_List_val@U?$_List_simple_types@UTextureResource@QSVAllocatorD3D11@@@std@@@std@@@std@@@2@@std@@AEAAXXZ ; std::vector<std::_List_iterator<std::_List_val<std::_List_simple_types<QSVAllocatorD3D11::TextureResource> > >,std::allocator<std::_List_iterator<std::_List_val<std::_List_simple_types<QSVAllocatorD3D11::TextureResource> > > > >::_Tidy
PUBLIC	?_Xlength@?$vector@V?$_List_iterator@V?$_List_val@U?$_List_simple_types@UTextureResource@QSVAllocatorD3D11@@@std@@@std@@@std@@V?$allocator@V?$_List_iterator@V?$_List_val@U?$_List_simple_types@UTextureResource@QSVAllocatorD3D11@@@std@@@std@@@std@@@2@@std@@CAXXZ ; std::vector<std::_List_iterator<std::_List_val<std::_List_simple_types<QSVAllocatorD3D11::TextureResource> > >,std::allocator<std::_List_iterator<std::_List_val<std::_List_simple_types<QSVAllocatorD3D11::TextureResource> > > > >::_Xlength
PUBLIC	?_Orphan_range@?$vector@V?$_List_iterator@V?$_List_val@U?$_List_simple_types@UTextureResource@QSVAllocatorD3D11@@@std@@@std@@@std@@V?$allocator@V?$_List_iterator@V?$_List_val@U?$_List_simple_types@UTextureResource@QSVAllocatorD3D11@@@std@@@std@@@std@@@2@@std@@AEBAXPEAV?$_List_iterator@V?$_List_val@U?$_List_simple_types@UTextureResource@QSVAllocatorD3D11@@@std@@@std@@@2@0@Z ; std::vector<std::_List_iterator<std::_List_val<std::_List_simple_types<QSVAllocatorD3D11::TextureResource> > >,std::allocator<std::_List_iterator<std::_List_val<std::_List_simple_types<QSVAllocatorD3D11::TextureResource> > > > >::_Orphan_range
PUBLIC	?_Getal@?$vector@V?$_List_iterator@V?$_List_val@U?$_List_simple_types@UTextureResource@QSVAllocatorD3D11@@@std@@@std@@@std@@V?$allocator@V?$_List_iterator@V?$_List_val@U?$_List_simple_types@UTextureResource@QSVAllocatorD3D11@@@std@@@std@@@std@@@2@@std@@AEAAAEAV?$allocator@V?$_List_iterator@V?$_List_val@U?$_List_simple_types@UTextureResource@QSVAllocatorD3D11@@@std@@@std@@@std@@@2@XZ ; std::vector<std::_List_iterator<std::_List_val<std::_List_simple_types<QSVAllocatorD3D11::TextureResource> > >,std::allocator<std::_List_iterator<std::_List_val<std::_List_simple_types<QSVAllocatorD3D11::TextureResource> > > > >::_Getal
PUBLIC	?_Getal@?$vector@V?$_List_iterator@V?$_List_val@U?$_List_simple_types@UTextureResource@QSVAllocatorD3D11@@@std@@@std@@@std@@V?$allocator@V?$_List_iterator@V?$_List_val@U?$_List_simple_types@UTextureResource@QSVAllocatorD3D11@@@std@@@std@@@std@@@2@@std@@AEBAAEBV?$allocator@V?$_List_iterator@V?$_List_val@U?$_List_simple_types@UTextureResource@QSVAllocatorD3D11@@@std@@@std@@@std@@@2@XZ ; std::vector<std::_List_iterator<std::_List_val<std::_List_simple_types<QSVAllocatorD3D11::TextureResource> > >,std::allocator<std::_List_iterator<std::_List_val<std::_List_simple_types<QSVAllocatorD3D11::TextureResource> > > > >::_Getal
PUBLIC	??0?$_Vector_val@U?$_Simple_types@V?$_List_iterator@V?$_List_val@U?$_List_simple_types@UTextureResource@QSVAllocatorD3D11@@@std@@@std@@@std@@@std@@@std@@QEAA@XZ ; std::_Vector_val<std::_Simple_types<std::_List_iterator<std::_List_val<std::_List_simple_types<QSVAllocatorD3D11::TextureResource> > > > >::_Vector_val<std::_Simple_types<std::_List_iterator<std::_List_val<std::_List_simple_types<QSVAllocatorD3D11::TextureResource> > > > >
PUBLIC	?_Get_first@?$_Compressed_pair@V?$allocator@V?$_List_iterator@V?$_List_val@U?$_List_simple_types@UTextureResource@QSVAllocatorD3D11@@@std@@@std@@@std@@@std@@V?$_Vector_val@U?$_Simple_types@V?$_List_iterator@V?$_List_val@U?$_List_simple_types@UTextureResource@QSVAllocatorD3D11@@@std@@@std@@@std@@@std@@@2@$00@std@@QEAAAEAV?$allocator@V?$_List_iterator@V?$_List_val@U?$_List_simple_types@UTextureResource@QSVAllocatorD3D11@@@std@@@std@@@std@@@2@XZ ; std::_Compressed_pair<std::allocator<std::_List_iterator<std::_List_val<std::_List_simple_types<QSVAllocatorD3D11::TextureResource> > > >,std::_Vector_val<std::_Simple_types<std::_List_iterator<std::_List_val<std::_List_simple_types<QSVAllocatorD3D11::TextureResource> > > > >,1>::_Get_first
PUBLIC	?_Get_first@?$_Compressed_pair@V?$allocator@V?$_List_iterator@V?$_List_val@U?$_List_simple_types@UTextureResource@QSVAllocatorD3D11@@@std@@@std@@@std@@@std@@V?$_Vector_val@U?$_Simple_types@V?$_List_iterator@V?$_List_val@U?$_List_simple_types@UTextureResource@QSVAllocatorD3D11@@@std@@@std@@@std@@@std@@@2@$00@std@@QEBAAEBV?$allocator@V?$_List_iterator@V?$_List_val@U?$_List_simple_types@UTextureResource@QSVAllocatorD3D11@@@std@@@std@@@std@@@2@XZ ; std::_Compressed_pair<std::allocator<std::_List_iterator<std::_List_val<std::_List_simple_types<QSVAllocatorD3D11::TextureResource> > > >,std::_Vector_val<std::_Simple_types<std::_List_iterator<std::_List_val<std::_List_simple_types<QSVAllocatorD3D11::TextureResource> > > > >,1>::_Get_first
PUBLIC	??_GQSVAllocatorD3D11@@UEAAPEAXI@Z		; QSVAllocatorD3D11::`scalar deleting destructor'
PUBLIC	??$?CVRGYLog@@$0A@@?$shared_ptr@VRGYLog@@@std@@QEBAPEAVRGYLog@@XZ ; std::shared_ptr<RGYLog>::operator-><RGYLog,0>
PUBLIC	??0?$allocator@U?$_Tree_node@U?$pair@$$CBIW4DXGI_FORMAT@@@std@@PEAX@std@@@std@@QEAA@XZ ; std::allocator<std::_Tree_node<std::pair<unsigned int const ,enum DXGI_FORMAT>,void *> >::allocator<std::_Tree_node<std::pair<unsigned int const ,enum DXGI_FORMAT>,void *> >
PUBLIC	?deallocate@?$allocator@U?$_Tree_node@U?$pair@$$CBIW4DXGI_FORMAT@@@std@@PEAX@std@@@std@@QEAAXQEAU?$_Tree_node@U?$pair@$$CBIW4DXGI_FORMAT@@@std@@PEAX@2@_K@Z ; std::allocator<std::_Tree_node<std::pair<unsigned int const ,enum DXGI_FORMAT>,void *> >::deallocate
PUBLIC	?allocate@?$allocator@U?$_Tree_node@U?$pair@$$CBIW4DXGI_FORMAT@@@std@@PEAX@std@@@std@@QEAAPEAU?$_Tree_node@U?$pair@$$CBIW4DXGI_FORMAT@@@std@@PEAX@2@_K@Z ; std::allocator<std::_Tree_node<std::pair<unsigned int const ,enum DXGI_FORMAT>,void *> >::allocate
PUBLIC	?deallocate@?$_Default_allocator_traits@V?$allocator@U?$_Tree_node@U?$pair@$$CBIW4DXGI_FORMAT@@@std@@PEAX@std@@@std@@@std@@SAXAEAV?$allocator@U?$_Tree_node@U?$pair@$$CBIW4DXGI_FORMAT@@@std@@PEAX@std@@@2@QEAU?$_Tree_node@U?$pair@$$CBIW4DXGI_FORMAT@@@std@@PEAX@2@_K@Z ; std::_Default_allocator_traits<std::allocator<std::_Tree_node<std::pair<unsigned int const ,enum DXGI_FORMAT>,void *> > >::deallocate
PUBLIC	?max_size@?$_Default_allocator_traits@V?$allocator@U?$_Tree_node@U?$pair@$$CBIW4DXGI_FORMAT@@@std@@PEAX@std@@@std@@@std@@SA_KAEBV?$allocator@U?$_Tree_node@U?$pair@$$CBIW4DXGI_FORMAT@@@std@@PEAX@std@@@2@@Z ; std::_Default_allocator_traits<std::allocator<std::_Tree_node<std::pair<unsigned int const ,enum DXGI_FORMAT>,void *> > >::max_size
PUBLIC	??0?$_Tree@V?$_Tmap_traits@IW4DXGI_FORMAT@@U?$less@I@std@@V?$allocator@U?$pair@$$CBIW4DXGI_FORMAT@@@std@@@3@$0A@@std@@@std@@QEAA@AEBU?$less@I@1@@Z ; std::_Tree<std::_Tmap_traits<unsigned int,enum DXGI_FORMAT,std::less<unsigned int>,std::allocator<std::pair<unsigned int const ,enum DXGI_FORMAT> >,0> >::_Tree<std::_Tmap_traits<unsigned int,enum DXGI_FORMAT,std::less<unsigned int>,std::allocator<std::pair<unsigned int const ,enum DXGI_FORMAT> >,0> >
PUBLIC	??1?$_Tree@V?$_Tmap_traits@IW4DXGI_FORMAT@@U?$less@I@std@@V?$allocator@U?$pair@$$CBIW4DXGI_FORMAT@@@std@@@3@$0A@@std@@@std@@QEAA@XZ ; std::_Tree<std::_Tmap_traits<unsigned int,enum DXGI_FORMAT,std::less<unsigned int>,std::allocator<std::pair<unsigned int const ,enum DXGI_FORMAT> >,0> >::~_Tree<std::_Tmap_traits<unsigned int,enum DXGI_FORMAT,std::less<unsigned int>,std::allocator<std::pair<unsigned int const ,enum DXGI_FORMAT> >,0> >
PUBLIC	?end@?$_Tree@V?$_Tmap_traits@IW4DXGI_FORMAT@@U?$less@I@std@@V?$allocator@U?$pair@$$CBIW4DXGI_FORMAT@@@std@@@3@$0A@@std@@@std@@QEBA?AV?$_Tree_const_iterator@V?$_Tree_val@U?$_Tree_simple_types@U?$pair@$$CBIW4DXGI_FORMAT@@@std@@@std@@@std@@@2@XZ ; std::_Tree<std::_Tmap_traits<unsigned int,enum DXGI_FORMAT,std::less<unsigned int>,std::allocator<std::pair<unsigned int const ,enum DXGI_FORMAT> >,0> >::end
PUBLIC	?max_size@?$_Tree@V?$_Tmap_traits@IW4DXGI_FORMAT@@U?$less@I@std@@V?$allocator@U?$pair@$$CBIW4DXGI_FORMAT@@@std@@@3@$0A@@std@@@std@@QEBA_KXZ ; std::_Tree<std::_Tmap_traits<unsigned int,enum DXGI_FORMAT,std::less<unsigned int>,std::allocator<std::pair<unsigned int const ,enum DXGI_FORMAT> >,0> >::max_size
PUBLIC	?insert@?$_Tree@V?$_Tmap_traits@IW4DXGI_FORMAT@@U?$less@I@std@@V?$allocator@U?$pair@$$CBIW4DXGI_FORMAT@@@std@@@3@$0A@@std@@@std@@QEAAXV?$initializer_list@U?$pair@$$CBIW4DXGI_FORMAT@@@std@@@2@@Z ; std::_Tree<std::_Tmap_traits<unsigned int,enum DXGI_FORMAT,std::less<unsigned int>,std::allocator<std::pair<unsigned int const ,enum DXGI_FORMAT> >,0> >::insert
PUBLIC	?find@?$_Tree@V?$_Tmap_traits@IW4DXGI_FORMAT@@U?$less@I@std@@V?$allocator@U?$pair@$$CBIW4DXGI_FORMAT@@@std@@@3@$0A@@std@@@std@@QEBA?AV?$_Tree_const_iterator@V?$_Tree_val@U?$_Tree_simple_types@U?$pair@$$CBIW4DXGI_FORMAT@@@std@@@std@@@std@@@2@AEBI@Z ; std::_Tree<std::_Tmap_traits<unsigned int,enum DXGI_FORMAT,std::less<unsigned int>,std::allocator<std::pair<unsigned int const ,enum DXGI_FORMAT> >,0> >::find
PUBLIC	?_Check_grow_by_1@?$_Tree@V?$_Tmap_traits@IW4DXGI_FORMAT@@U?$less@I@std@@V?$allocator@U?$pair@$$CBIW4DXGI_FORMAT@@@std@@@3@$0A@@std@@@std@@IEAAXXZ ; std::_Tree<std::_Tmap_traits<unsigned int,enum DXGI_FORMAT,std::less<unsigned int>,std::allocator<std::pair<unsigned int const ,enum DXGI_FORMAT> >,0> >::_Check_grow_by_1
PUBLIC	?_Alloc_sentinel_and_proxy@?$_Tree@V?$_Tmap_traits@IW4DXGI_FORMAT@@U?$less@I@std@@V?$allocator@U?$pair@$$CBIW4DXGI_FORMAT@@@std@@@3@$0A@@std@@@std@@IEAAXXZ ; std::_Tree<std::_Tmap_traits<unsigned int,enum DXGI_FORMAT,std::less<unsigned int>,std::allocator<std::pair<unsigned int const ,enum DXGI_FORMAT> >,0> >::_Alloc_sentinel_and_proxy
PUBLIC	?_Getcomp@?$_Tree@V?$_Tmap_traits@IW4DXGI_FORMAT@@U?$less@I@std@@V?$allocator@U?$pair@$$CBIW4DXGI_FORMAT@@@std@@@3@$0A@@std@@@std@@IEBAAEBU?$less@I@2@XZ ; std::_Tree<std::_Tmap_traits<unsigned int,enum DXGI_FORMAT,std::less<unsigned int>,std::allocator<std::pair<unsigned int const ,enum DXGI_FORMAT> >,0> >::_Getcomp
PUBLIC	?_Getal@?$_Tree@V?$_Tmap_traits@IW4DXGI_FORMAT@@U?$less@I@std@@V?$allocator@U?$pair@$$CBIW4DXGI_FORMAT@@@std@@@3@$0A@@std@@@std@@IEAAAEAV?$allocator@U?$_Tree_node@U?$pair@$$CBIW4DXGI_FORMAT@@@std@@PEAX@std@@@2@XZ ; std::_Tree<std::_Tmap_traits<unsigned int,enum DXGI_FORMAT,std::less<unsigned int>,std::allocator<std::pair<unsigned int const ,enum DXGI_FORMAT> >,0> >::_Getal
PUBLIC	?_Getal@?$_Tree@V?$_Tmap_traits@IW4DXGI_FORMAT@@U?$less@I@std@@V?$allocator@U?$pair@$$CBIW4DXGI_FORMAT@@@std@@@3@$0A@@std@@@std@@IEBAAEBV?$allocator@U?$_Tree_node@U?$pair@$$CBIW4DXGI_FORMAT@@@std@@PEAX@std@@@2@XZ ; std::_Tree<std::_Tmap_traits<unsigned int,enum DXGI_FORMAT,std::less<unsigned int>,std::allocator<std::pair<unsigned int const ,enum DXGI_FORMAT> >,0> >::_Getal
PUBLIC	?_Get_scary@?$_Tree@V?$_Tmap_traits@IW4DXGI_FORMAT@@U?$less@I@std@@V?$allocator@U?$pair@$$CBIW4DXGI_FORMAT@@@std@@@3@$0A@@std@@@std@@IEAAPEAV?$_Tree_val@U?$_Tree_simple_types@U?$pair@$$CBIW4DXGI_FORMAT@@@std@@@std@@@2@XZ ; std::_Tree<std::_Tmap_traits<unsigned int,enum DXGI_FORMAT,std::less<unsigned int>,std::allocator<std::pair<unsigned int const ,enum DXGI_FORMAT> >,0> >::_Get_scary
PUBLIC	?_Get_scary@?$_Tree@V?$_Tmap_traits@IW4DXGI_FORMAT@@U?$less@I@std@@V?$allocator@U?$pair@$$CBIW4DXGI_FORMAT@@@std@@@3@$0A@@std@@@std@@IEBAPEBV?$_Tree_val@U?$_Tree_simple_types@U?$pair@$$CBIW4DXGI_FORMAT@@@std@@@std@@@2@XZ ; std::_Tree<std::_Tmap_traits<unsigned int,enum DXGI_FORMAT,std::less<unsigned int>,std::allocator<std::pair<unsigned int const ,enum DXGI_FORMAT> >,0> >::_Get_scary
PUBLIC	??R?$less@I@std@@QEBA_NAEBI0@Z			; std::less<unsigned int>::operator()
PUBLIC	??0?$_Tree_val@U?$_Tree_simple_types@U?$pair@$$CBIW4DXGI_FORMAT@@@std@@@std@@@std@@QEAA@XZ ; std::_Tree_val<std::_Tree_simple_types<std::pair<unsigned int const ,enum DXGI_FORMAT> > >::_Tree_val<std::_Tree_simple_types<std::pair<unsigned int const ,enum DXGI_FORMAT> > >
PUBLIC	?_Max@?$_Tree_val@U?$_Tree_simple_types@U?$pair@$$CBIW4DXGI_FORMAT@@@std@@@std@@@std@@SAPEAU?$_Tree_node@U?$pair@$$CBIW4DXGI_FORMAT@@@std@@PEAX@2@PEAU32@@Z ; std::_Tree_val<std::_Tree_simple_types<std::pair<unsigned int const ,enum DXGI_FORMAT> > >::_Max
PUBLIC	?_Min@?$_Tree_val@U?$_Tree_simple_types@U?$pair@$$CBIW4DXGI_FORMAT@@@std@@@std@@@std@@SAPEAU?$_Tree_node@U?$pair@$$CBIW4DXGI_FORMAT@@@std@@PEAX@2@PEAU32@@Z ; std::_Tree_val<std::_Tree_simple_types<std::pair<unsigned int const ,enum DXGI_FORMAT> > >::_Min
PUBLIC	?_Lrotate@?$_Tree_val@U?$_Tree_simple_types@U?$pair@$$CBIW4DXGI_FORMAT@@@std@@@std@@@std@@QEAAXPEAU?$_Tree_node@U?$pair@$$CBIW4DXGI_FORMAT@@@std@@PEAX@2@@Z ; std::_Tree_val<std::_Tree_simple_types<std::pair<unsigned int const ,enum DXGI_FORMAT> > >::_Lrotate
PUBLIC	?_Rrotate@?$_Tree_val@U?$_Tree_simple_types@U?$pair@$$CBIW4DXGI_FORMAT@@@std@@@std@@@std@@QEAAXPEAU?$_Tree_node@U?$pair@$$CBIW4DXGI_FORMAT@@@std@@PEAX@2@@Z ; std::_Tree_val<std::_Tree_simple_types<std::pair<unsigned int const ,enum DXGI_FORMAT> > >::_Rrotate
PUBLIC	?_Insert_node@?$_Tree_val@U?$_Tree_simple_types@U?$pair@$$CBIW4DXGI_FORMAT@@@std@@@std@@@std@@QEAAPEAU?$_Tree_node@U?$pair@$$CBIW4DXGI_FORMAT@@@std@@PEAX@2@U?$_Tree_id@PEAU?$_Tree_node@U?$pair@$$CBIW4DXGI_FORMAT@@@std@@PEAX@std@@@2@QEAU32@@Z ; std::_Tree_val<std::_Tree_simple_types<std::pair<unsigned int const ,enum DXGI_FORMAT> > >::_Insert_node
PUBLIC	?_Get_first@?$_Compressed_pair@V?$allocator@U?$_Tree_node@U?$pair@$$CBIW4DXGI_FORMAT@@@std@@PEAX@std@@@std@@V?$_Tree_val@U?$_Tree_simple_types@U?$pair@$$CBIW4DXGI_FORMAT@@@std@@@std@@@2@$00@std@@QEAAAEAV?$allocator@U?$_Tree_node@U?$pair@$$CBIW4DXGI_FORMAT@@@std@@PEAX@std@@@2@XZ ; std::_Compressed_pair<std::allocator<std::_Tree_node<std::pair<unsigned int const ,enum DXGI_FORMAT>,void *> >,std::_Tree_val<std::_Tree_simple_types<std::pair<unsigned int const ,enum DXGI_FORMAT> > >,1>::_Get_first
PUBLIC	?_Get_first@?$_Compressed_pair@V?$allocator@U?$_Tree_node@U?$pair@$$CBIW4DXGI_FORMAT@@@std@@PEAX@std@@@std@@V?$_Tree_val@U?$_Tree_simple_types@U?$pair@$$CBIW4DXGI_FORMAT@@@std@@@std@@@2@$00@std@@QEBAAEBV?$allocator@U?$_Tree_node@U?$pair@$$CBIW4DXGI_FORMAT@@@std@@PEAX@std@@@2@XZ ; std::_Compressed_pair<std::allocator<std::_Tree_node<std::pair<unsigned int const ,enum DXGI_FORMAT>,void *> >,std::_Tree_val<std::_Tree_simple_types<std::pair<unsigned int const ,enum DXGI_FORMAT> > >,1>::_Get_first
PUBLIC	?_Get_first@?$_Compressed_pair@U?$less@I@std@@V?$_Compressed_pair@V?$allocator@U?$_Tree_node@U?$pair@$$CBIW4DXGI_FORMAT@@@std@@PEAX@std@@@std@@V?$_Tree_val@U?$_Tree_simple_types@U?$pair@$$CBIW4DXGI_FORMAT@@@std@@@std@@@2@$00@2@$00@std@@QEBAAEBU?$less@I@2@XZ ; std::_Compressed_pair<std::less<unsigned int>,std::_Compressed_pair<std::allocator<std::_Tree_node<std::pair<unsigned int const ,enum DXGI_FORMAT>,void *> >,std::_Tree_val<std::_Tree_simple_types<std::pair<unsigned int const ,enum DXGI_FORMAT> > >,1>,1>::_Get_first
PUBLIC	??$?0$$V@?$_Compressed_pair@V?$allocator@U?$_Tree_node@U?$pair@$$CBIW4DXGI_FORMAT@@@std@@PEAX@std@@@std@@V?$_Tree_val@U?$_Tree_simple_types@U?$pair@$$CBIW4DXGI_FORMAT@@@std@@@std@@@2@$00@std@@QEAA@U_Zero_then_variadic_args_t@1@@Z ; std::_Compressed_pair<std::allocator<std::_Tree_node<std::pair<unsigned int const ,enum DXGI_FORMAT>,void *> >,std::_Tree_val<std::_Tree_simple_types<std::pair<unsigned int const ,enum DXGI_FORMAT> > >,1>::_Compressed_pair<std::allocator<std::_Tree_node<std::pair<unsigned int const ,enum DXGI_FORMAT>,void *> >,std::_Tree_val<std::_Tree_simple_types<std::pair<unsigned int const ,enum DXGI_FORMAT> > >,1><>
PUBLIC	??0?$map@IW4DXGI_FORMAT@@U?$less@I@std@@V?$allocator@U?$pair@$$CBIW4DXGI_FORMAT@@@std@@@3@@std@@QEAA@V?$initializer_list@U?$pair@$$CBIW4DXGI_FORMAT@@@std@@@1@@Z ; std::map<unsigned int,enum DXGI_FORMAT,std::less<unsigned int>,std::allocator<std::pair<unsigned int const ,enum DXGI_FORMAT> > >::map<unsigned int,enum DXGI_FORMAT,std::less<unsigned int>,std::allocator<std::pair<unsigned int const ,enum DXGI_FORMAT> > >
PUBLIC	?at@?$map@IW4DXGI_FORMAT@@U?$less@I@std@@V?$allocator@U?$pair@$$CBIW4DXGI_FORMAT@@@std@@@3@@std@@QEBAAEBW4DXGI_FORMAT@@AEBI@Z ; std::map<unsigned int,enum DXGI_FORMAT,std::less<unsigned int>,std::allocator<std::pair<unsigned int const ,enum DXGI_FORMAT> > >::at
PUBLIC	??1?$map@IW4DXGI_FORMAT@@U?$less@I@std@@V?$allocator@U?$pair@$$CBIW4DXGI_FORMAT@@@std@@@3@@std@@QEAA@XZ ; std::map<unsigned int,enum DXGI_FORMAT,std::less<unsigned int>,std::allocator<std::pair<unsigned int const ,enum DXGI_FORMAT> > >::~map<unsigned int,enum DXGI_FORMAT,std::less<unsigned int>,std::allocator<std::pair<unsigned int const ,enum DXGI_FORMAT> > >
PUBLIC	??0?$initializer_list@U?$pair@$$CBIW4DXGI_FORMAT@@@std@@@std@@QEAA@PEBU?$pair@$$CBIW4DXGI_FORMAT@@@1@0@Z ; std::initializer_list<std::pair<unsigned int const ,enum DXGI_FORMAT> >::initializer_list<std::pair<unsigned int const ,enum DXGI_FORMAT> >
PUBLIC	?begin@?$initializer_list@U?$pair@$$CBIW4DXGI_FORMAT@@@std@@@std@@QEBAPEBU?$pair@$$CBIW4DXGI_FORMAT@@@2@XZ ; std::initializer_list<std::pair<unsigned int const ,enum DXGI_FORMAT> >::begin
PUBLIC	?end@?$initializer_list@U?$pair@$$CBIW4DXGI_FORMAT@@@std@@@std@@QEBAPEBU?$pair@$$CBIW4DXGI_FORMAT@@@2@XZ ; std::initializer_list<std::pair<unsigned int const ,enum DXGI_FORMAT> >::end
PUBLIC	??$?0W4<unnamed-enum-MFX_FOURCC_NV12>@@W4DXGI_FORMAT@@$0A@@?$pair@$$CBIW4DXGI_FORMAT@@@std@@QEAA@$$QEAW4<unnamed-enum-MFX_FOURCC_NV12>@@$$QEAW4DXGI_FORMAT@@@Z ; std::pair<unsigned int const ,enum DXGI_FORMAT>::pair<unsigned int const ,enum DXGI_FORMAT><enum <unnamed-enum-MFX_FOURCC_NV12>,enum DXGI_FORMAT,0>
PUBLIC	??$?0W4DXGI_FORMAT@@W40@$0A@@?$pair@$$CBIW4DXGI_FORMAT@@@std@@QEAA@$$QEAW4DXGI_FORMAT@@0@Z ; std::pair<unsigned int const ,enum DXGI_FORMAT>::pair<unsigned int const ,enum DXGI_FORMAT><enum DXGI_FORMAT,enum DXGI_FORMAT,0>
PUBLIC	??0?$_List_unchecked_const_iterator@V?$_List_val@U?$_List_simple_types@UTextureResource@QSVAllocatorD3D11@@@std@@@std@@U_Iterator_base12@2@@std@@QEAA@PEAU?$_List_node@UTextureResource@QSVAllocatorD3D11@@PEAX@1@PEBV?$_List_val@U?$_List_simple_types@UTextureResource@QSVAllocatorD3D11@@@std@@@1@@Z ; std::_List_unchecked_const_iterator<std::_List_val<std::_List_simple_types<QSVAllocatorD3D11::TextureResource> >,std::_Iterator_base12>::_List_unchecked_const_iterator<std::_List_val<std::_List_simple_types<QSVAllocatorD3D11::TextureResource> >,std::_Iterator_base12>
PUBLIC	??1?$_List_unchecked_const_iterator@V?$_List_val@U?$_List_simple_types@UTextureResource@QSVAllocatorD3D11@@@std@@@std@@U_Iterator_base12@2@@std@@QEAA@XZ ; std::_List_unchecked_const_iterator<std::_List_val<std::_List_simple_types<QSVAllocatorD3D11::TextureResource> >,std::_Iterator_base12>::~_List_unchecked_const_iterator<std::_List_val<std::_List_simple_types<QSVAllocatorD3D11::TextureResource> >,std::_Iterator_base12>
PUBLIC	??0?$_List_unchecked_const_iterator@V?$_List_val@U?$_List_simple_types@UTextureResource@QSVAllocatorD3D11@@@std@@@std@@U_Iterator_base12@2@@std@@QEAA@AEBV01@@Z ; std::_List_unchecked_const_iterator<std::_List_val<std::_List_simple_types<QSVAllocatorD3D11::TextureResource> >,std::_Iterator_base12>::_List_unchecked_const_iterator<std::_List_val<std::_List_simple_types<QSVAllocatorD3D11::TextureResource> >,std::_Iterator_base12>
PUBLIC	??0?$_List_unchecked_const_iterator@V?$_List_val@U?$_List_simple_types@UTextureResource@QSVAllocatorD3D11@@@std@@@std@@U_Iterator_base12@2@@std@@QEAA@$$QEAV01@@Z ; std::_List_unchecked_const_iterator<std::_List_val<std::_List_simple_types<QSVAllocatorD3D11::TextureResource> >,std::_Iterator_base12>::_List_unchecked_const_iterator<std::_List_val<std::_List_simple_types<QSVAllocatorD3D11::TextureResource> >,std::_Iterator_base12>
PUBLIC	??0?$_List_const_iterator@V?$_List_val@U?$_List_simple_types@UTextureResource@QSVAllocatorD3D11@@@std@@@std@@@std@@QEAA@PEAU?$_List_node@UTextureResource@QSVAllocatorD3D11@@PEAX@1@PEBV?$_List_val@U?$_List_simple_types@UTextureResource@QSVAllocatorD3D11@@@std@@@1@@Z ; std::_List_const_iterator<std::_List_val<std::_List_simple_types<QSVAllocatorD3D11::TextureResource> > >::_List_const_iterator<std::_List_val<std::_List_simple_types<QSVAllocatorD3D11::TextureResource> > >
PUBLIC	??D?$_List_const_iterator@V?$_List_val@U?$_List_simple_types@UTextureResource@QSVAllocatorD3D11@@@std@@@std@@@std@@QEBAAEBUTextureResource@QSVAllocatorD3D11@@XZ ; std::_List_const_iterator<std::_List_val<std::_List_simple_types<QSVAllocatorD3D11::TextureResource> > >::operator*
PUBLIC	??F?$_List_const_iterator@V?$_List_val@U?$_List_simple_types@UTextureResource@QSVAllocatorD3D11@@@std@@@std@@@std@@QEAAAEAV01@XZ ; std::_List_const_iterator<std::_List_val<std::_List_simple_types<QSVAllocatorD3D11::TextureResource> > >::operator--
PUBLIC	??8?$_List_const_iterator@V?$_List_val@U?$_List_simple_types@UTextureResource@QSVAllocatorD3D11@@@std@@@std@@@std@@QEBA_NAEBV01@@Z ; std::_List_const_iterator<std::_List_val<std::_List_simple_types<QSVAllocatorD3D11::TextureResource> > >::operator==
PUBLIC	?_Verify_range@std@@YAXAEBV?$_List_const_iterator@V?$_List_val@U?$_List_simple_types@UTextureResource@QSVAllocatorD3D11@@@std@@@std@@@1@0@Z ; std::_Verify_range
PUBLIC	?_Seek_to@?$_List_const_iterator@V?$_List_val@U?$_List_simple_types@UTextureResource@QSVAllocatorD3D11@@@std@@@std@@@std@@QEAAXV?$_List_unchecked_const_iterator@V?$_List_val@U?$_List_simple_types@UTextureResource@QSVAllocatorD3D11@@@std@@@std@@U_Iterator_base0@2@@2@@Z ; std::_List_const_iterator<std::_List_val<std::_List_simple_types<QSVAllocatorD3D11::TextureResource> > >::_Seek_to
PUBLIC	??1?$_List_const_iterator@V?$_List_val@U?$_List_simple_types@UTextureResource@QSVAllocatorD3D11@@@std@@@std@@@std@@QEAA@XZ ; std::_List_const_iterator<std::_List_val<std::_List_simple_types<QSVAllocatorD3D11::TextureResource> > >::~_List_const_iterator<std::_List_val<std::_List_simple_types<QSVAllocatorD3D11::TextureResource> > >
PUBLIC	??0?$_List_const_iterator@V?$_List_val@U?$_List_simple_types@UTextureResource@QSVAllocatorD3D11@@@std@@@std@@@std@@QEAA@AEBV01@@Z ; std::_List_const_iterator<std::_List_val<std::_List_simple_types<QSVAllocatorD3D11::TextureResource> > >::_List_const_iterator<std::_List_val<std::_List_simple_types<QSVAllocatorD3D11::TextureResource> > >
PUBLIC	??0?$_List_const_iterator@V?$_List_val@U?$_List_simple_types@UTextureResource@QSVAllocatorD3D11@@@std@@@std@@@std@@QEAA@$$QEAV01@@Z ; std::_List_const_iterator<std::_List_val<std::_List_simple_types<QSVAllocatorD3D11::TextureResource> > >::_List_const_iterator<std::_List_val<std::_List_simple_types<QSVAllocatorD3D11::TextureResource> > >
PUBLIC	??0?$_List_iterator@V?$_List_val@U?$_List_simple_types@UTextureResource@QSVAllocatorD3D11@@@std@@@std@@@std@@QEAA@PEAU?$_List_node@UTextureResource@QSVAllocatorD3D11@@PEAX@1@PEBV?$_List_val@U?$_List_simple_types@UTextureResource@QSVAllocatorD3D11@@@std@@@1@@Z ; std::_List_iterator<std::_List_val<std::_List_simple_types<QSVAllocatorD3D11::TextureResource> > >::_List_iterator<std::_List_val<std::_List_simple_types<QSVAllocatorD3D11::TextureResource> > >
PUBLIC	??D?$_List_iterator@V?$_List_val@U?$_List_simple_types@UTextureResource@QSVAllocatorD3D11@@@std@@@std@@@std@@QEBAAEAUTextureResource@QSVAllocatorD3D11@@XZ ; std::_List_iterator<std::_List_val<std::_List_simple_types<QSVAllocatorD3D11::TextureResource> > >::operator*
PUBLIC	??F?$_List_iterator@V?$_List_val@U?$_List_simple_types@UTextureResource@QSVAllocatorD3D11@@@std@@@std@@@std@@QEAAAEAV01@XZ ; std::_List_iterator<std::_List_val<std::_List_simple_types<QSVAllocatorD3D11::TextureResource> > >::operator--
PUBLIC	?_Unwrapped@?$_List_iterator@V?$_List_val@U?$_List_simple_types@UTextureResource@QSVAllocatorD3D11@@@std@@@std@@@std@@QEBA?AV?$_List_unchecked_iterator@V?$_List_val@U?$_List_simple_types@UTextureResource@QSVAllocatorD3D11@@@std@@@std@@@2@XZ ; std::_List_iterator<std::_List_val<std::_List_simple_types<QSVAllocatorD3D11::TextureResource> > >::_Unwrapped
PUBLIC	??1?$_List_iterator@V?$_List_val@U?$_List_simple_types@UTextureResource@QSVAllocatorD3D11@@@std@@@std@@@std@@QEAA@XZ ; std::_List_iterator<std::_List_val<std::_List_simple_types<QSVAllocatorD3D11::TextureResource> > >::~_List_iterator<std::_List_val<std::_List_simple_types<QSVAllocatorD3D11::TextureResource> > >
PUBLIC	??0?$_List_iterator@V?$_List_val@U?$_List_simple_types@UTextureResource@QSVAllocatorD3D11@@@std@@@std@@@std@@QEAA@AEBV01@@Z ; std::_List_iterator<std::_List_val<std::_List_simple_types<QSVAllocatorD3D11::TextureResource> > >::_List_iterator<std::_List_val<std::_List_simple_types<QSVAllocatorD3D11::TextureResource> > >
PUBLIC	??0?$_List_iterator@V?$_List_val@U?$_List_simple_types@UTextureResource@QSVAllocatorD3D11@@@std@@@std@@@std@@QEAA@$$QEAV01@@Z ; std::_List_iterator<std::_List_val<std::_List_simple_types<QSVAllocatorD3D11::TextureResource> > >::_List_iterator<std::_List_val<std::_List_simple_types<QSVAllocatorD3D11::TextureResource> > >
PUBLIC	??_G?$_List_iterator@V?$_List_val@U?$_List_simple_types@UTextureResource@QSVAllocatorD3D11@@@std@@@std@@@std@@QEAAPEAXI@Z ; std::_List_iterator<std::_List_val<std::_List_simple_types<QSVAllocatorD3D11::TextureResource> > >::`scalar deleting destructor'
PUBLIC	??0?$_List_unchecked_const_iterator@V?$_List_val@U?$_List_simple_types@UTextureResource@QSVAllocatorD3D11@@@std@@@std@@U_Iterator_base0@2@@std@@QEAA@PEAU?$_List_node@UTextureResource@QSVAllocatorD3D11@@PEAX@1@PEBV?$_List_val@U?$_List_simple_types@UTextureResource@QSVAllocatorD3D11@@@std@@@1@@Z ; std::_List_unchecked_const_iterator<std::_List_val<std::_List_simple_types<QSVAllocatorD3D11::TextureResource> >,std::_Iterator_base0>::_List_unchecked_const_iterator<std::_List_val<std::_List_simple_types<QSVAllocatorD3D11::TextureResource> >,std::_Iterator_base0>
PUBLIC	??D?$_List_unchecked_const_iterator@V?$_List_val@U?$_List_simple_types@UTextureResource@QSVAllocatorD3D11@@@std@@@std@@U_Iterator_base0@2@@std@@QEBAAEBUTextureResource@QSVAllocatorD3D11@@XZ ; std::_List_unchecked_const_iterator<std::_List_val<std::_List_simple_types<QSVAllocatorD3D11::TextureResource> >,std::_Iterator_base0>::operator*
PUBLIC	??E?$_List_unchecked_const_iterator@V?$_List_val@U?$_List_simple_types@UTextureResource@QSVAllocatorD3D11@@@std@@@std@@U_Iterator_base0@2@@std@@QEAAAEAV01@XZ ; std::_List_unchecked_const_iterator<std::_List_val<std::_List_simple_types<QSVAllocatorD3D11::TextureResource> >,std::_Iterator_base0>::operator++
PUBLIC	??8?$_List_unchecked_const_iterator@V?$_List_val@U?$_List_simple_types@UTextureResource@QSVAllocatorD3D11@@@std@@@std@@U_Iterator_base0@2@@std@@QEBA_NAEBV01@@Z ; std::_List_unchecked_const_iterator<std::_List_val<std::_List_simple_types<QSVAllocatorD3D11::TextureResource> >,std::_Iterator_base0>::operator==
PUBLIC	??9?$_List_unchecked_const_iterator@V?$_List_val@U?$_List_simple_types@UTextureResource@QSVAllocatorD3D11@@@std@@@std@@U_Iterator_base0@2@@std@@QEBA_NAEBV01@@Z ; std::_List_unchecked_const_iterator<std::_List_val<std::_List_simple_types<QSVAllocatorD3D11::TextureResource> >,std::_Iterator_base0>::operator!=
PUBLIC	??0?$_List_unchecked_iterator@V?$_List_val@U?$_List_simple_types@UTextureResource@QSVAllocatorD3D11@@@std@@@std@@@std@@QEAA@PEAU?$_List_node@UTextureResource@QSVAllocatorD3D11@@PEAX@1@PEBV?$_List_val@U?$_List_simple_types@UTextureResource@QSVAllocatorD3D11@@@std@@@1@@Z ; std::_List_unchecked_iterator<std::_List_val<std::_List_simple_types<QSVAllocatorD3D11::TextureResource> > >::_List_unchecked_iterator<std::_List_val<std::_List_simple_types<QSVAllocatorD3D11::TextureResource> > >
PUBLIC	??D?$_List_unchecked_iterator@V?$_List_val@U?$_List_simple_types@UTextureResource@QSVAllocatorD3D11@@@std@@@std@@@std@@QEBAAEAUTextureResource@QSVAllocatorD3D11@@XZ ; std::_List_unchecked_iterator<std::_List_val<std::_List_simple_types<QSVAllocatorD3D11::TextureResource> > >::operator*
PUBLIC	??E?$_List_unchecked_iterator@V?$_List_val@U?$_List_simple_types@UTextureResource@QSVAllocatorD3D11@@@std@@@std@@@std@@QEAAAEAV01@XZ ; std::_List_unchecked_iterator<std::_List_val<std::_List_simple_types<QSVAllocatorD3D11::TextureResource> > >::operator++
PUBLIC	??$make_array@W4DXGI_FORMAT@@W41@W41@W41@W41@W41@W41@W41@W41@W41@W41@W41@@@YA?AV?$array@W4DXGI_FORMAT@@$0L@@std@@$$QEAW4DXGI_FORMAT@@0000000000@Z ; make_array<enum DXGI_FORMAT,enum DXGI_FORMAT,enum DXGI_FORMAT,enum DXGI_FORMAT,enum DXGI_FORMAT,enum DXGI_FORMAT,enum DXGI_FORMAT,enum DXGI_FORMAT,enum DXGI_FORMAT,enum DXGI_FORMAT,enum DXGI_FORMAT,enum DXGI_FORMAT>
PUBLIC	?begin@?$array@W4DXGI_FORMAT@@$0L@@std@@QEBA?AV?$_Array_const_iterator@W4DXGI_FORMAT@@$0L@@2@XZ ; std::array<enum DXGI_FORMAT,11>::begin
PUBLIC	?end@?$array@W4DXGI_FORMAT@@$0L@@std@@QEBA?AV?$_Array_const_iterator@W4DXGI_FORMAT@@$0L@@2@XZ ; std::array<enum DXGI_FORMAT,11>::end
PUBLIC	??0?$_Array_const_iterator@W4DXGI_FORMAT@@$0L@@std@@QEAA@PEBW4DXGI_FORMAT@@_K@Z ; std::_Array_const_iterator<enum DXGI_FORMAT,11>::_Array_const_iterator<enum DXGI_FORMAT,11>
PUBLIC	??8?$_Array_const_iterator@W4DXGI_FORMAT@@$0L@@std@@QEBA_NAEBV01@@Z ; std::_Array_const_iterator<enum DXGI_FORMAT,11>::operator==
PUBLIC	??M?$_Array_const_iterator@W4DXGI_FORMAT@@$0L@@std@@QEBA_NAEBV01@@Z ; std::_Array_const_iterator<enum DXGI_FORMAT,11>::operator<
PUBLIC	??N?$_Array_const_iterator@W4DXGI_FORMAT@@$0L@@std@@QEBA_NAEBV01@@Z ; std::_Array_const_iterator<enum DXGI_FORMAT,11>::operator<=
PUBLIC	?_Compat@?$_Array_const_iterator@W4DXGI_FORMAT@@$0L@@std@@QEBAXAEBV12@@Z ; std::_Array_const_iterator<enum DXGI_FORMAT,11>::_Compat
PUBLIC	?_Unwrapped@?$_Array_const_iterator@W4DXGI_FORMAT@@$0L@@std@@QEBAPEBW4DXGI_FORMAT@@XZ ; std::_Array_const_iterator<enum DXGI_FORMAT,11>::_Unwrapped
PUBLIC	?_Verify_with@?$_Array_const_iterator@W4DXGI_FORMAT@@$0L@@std@@QEBAXAEBV12@@Z ; std::_Array_const_iterator<enum DXGI_FORMAT,11>::_Verify_with
PUBLIC	?_Seek_to@?$_Array_const_iterator@W4DXGI_FORMAT@@$0L@@std@@QEAAXPEBW4DXGI_FORMAT@@@Z ; std::_Array_const_iterator<enum DXGI_FORMAT,11>::_Seek_to
PUBLIC	??$find@V?$_Array_const_iterator@W4DXGI_FORMAT@@$0L@@std@@W4DXGI_FORMAT@@@std@@YA?AV?$_Array_const_iterator@W4DXGI_FORMAT@@$0L@@0@V10@V10@AEBW4DXGI_FORMAT@@@Z ; std::find<std::_Array_const_iterator<enum DXGI_FORMAT,11>,enum DXGI_FORMAT>
PUBLIC	??$find_if@V?$_List_iterator@V?$_List_val@U?$_List_simple_types@UTextureResource@QSVAllocatorD3D11@@@std@@@std@@@std@@P6A_NAEAUTextureResource@QSVAllocatorD3D11@@@Z@std@@YA?AV?$_List_iterator@V?$_List_val@U?$_List_simple_types@UTextureResource@QSVAllocatorD3D11@@@std@@@std@@@0@V10@V10@P6A_NAEAUTextureResource@QSVAllocatorD3D11@@@Z@Z ; std::find_if<std::_List_iterator<std::_List_val<std::_List_simple_types<QSVAllocatorD3D11::TextureResource> > >,bool (__cdecl*)(QSVAllocatorD3D11::TextureResource &)>
PUBLIC	??0?$_Tree_unchecked_const_iterator@V?$_Tree_val@U?$_Tree_simple_types@U?$pair@$$CBIW4DXGI_FORMAT@@@std@@@std@@@std@@U_Iterator_base12@2@@std@@QEAA@PEAU?$_Tree_node@U?$pair@$$CBIW4DXGI_FORMAT@@@std@@PEAX@1@PEBV?$_Tree_val@U?$_Tree_simple_types@U?$pair@$$CBIW4DXGI_FORMAT@@@std@@@std@@@1@@Z ; std::_Tree_unchecked_const_iterator<std::_Tree_val<std::_Tree_simple_types<std::pair<unsigned int const ,enum DXGI_FORMAT> > >,std::_Iterator_base12>::_Tree_unchecked_const_iterator<std::_Tree_val<std::_Tree_simple_types<std::pair<unsigned int const ,enum DXGI_FORMAT> > >,std::_Iterator_base12>
PUBLIC	??1?$_Tree_unchecked_const_iterator@V?$_Tree_val@U?$_Tree_simple_types@U?$pair@$$CBIW4DXGI_FORMAT@@@std@@@std@@@std@@U_Iterator_base12@2@@std@@QEAA@XZ ; std::_Tree_unchecked_const_iterator<std::_Tree_val<std::_Tree_simple_types<std::pair<unsigned int const ,enum DXGI_FORMAT> > >,std::_Iterator_base12>::~_Tree_unchecked_const_iterator<std::_Tree_val<std::_Tree_simple_types<std::pair<unsigned int const ,enum DXGI_FORMAT> > >,std::_Iterator_base12>
PUBLIC	??0?$_Tree_const_iterator@V?$_Tree_val@U?$_Tree_simple_types@U?$pair@$$CBIW4DXGI_FORMAT@@@std@@@std@@@std@@@std@@QEAA@PEAU?$_Tree_node@U?$pair@$$CBIW4DXGI_FORMAT@@@std@@PEAX@1@PEBV?$_Tree_val@U?$_Tree_simple_types@U?$pair@$$CBIW4DXGI_FORMAT@@@std@@@std@@@1@@Z ; std::_Tree_const_iterator<std::_Tree_val<std::_Tree_simple_types<std::pair<unsigned int const ,enum DXGI_FORMAT> > > >::_Tree_const_iterator<std::_Tree_val<std::_Tree_simple_types<std::pair<unsigned int const ,enum DXGI_FORMAT> > > >
PUBLIC	??8?$_Tree_const_iterator@V?$_Tree_val@U?$_Tree_simple_types@U?$pair@$$CBIW4DXGI_FORMAT@@@std@@@std@@@std@@@std@@QEBA_NAEBV01@@Z ; std::_Tree_const_iterator<std::_Tree_val<std::_Tree_simple_types<std::pair<unsigned int const ,enum DXGI_FORMAT> > > >::operator==
PUBLIC	??1?$_Tree_const_iterator@V?$_Tree_val@U?$_Tree_simple_types@U?$pair@$$CBIW4DXGI_FORMAT@@@std@@@std@@@std@@@std@@QEAA@XZ ; std::_Tree_const_iterator<std::_Tree_val<std::_Tree_simple_types<std::pair<unsigned int const ,enum DXGI_FORMAT> > > >::~_Tree_const_iterator<std::_Tree_val<std::_Tree_simple_types<std::pair<unsigned int const ,enum DXGI_FORMAT> > > >
PUBLIC	??$back_inserter@V?$vector@PEAXV?$allocator@PEAX@std@@@std@@@std@@YA?AV?$back_insert_iterator@V?$vector@PEAXV?$allocator@PEAX@std@@@std@@@0@AEAV?$vector@PEAXV?$allocator@PEAX@std@@@0@@Z ; std::back_inserter<std::vector<void *,std::allocator<void *> > >
PUBLIC	??0?$back_insert_iterator@V?$vector@PEAXV?$allocator@PEAX@std@@@std@@@std@@QEAA@AEAV?$vector@PEAXV?$allocator@PEAX@std@@@1@@Z ; std::back_insert_iterator<std::vector<void *,std::allocator<void *> > >::back_insert_iterator<std::vector<void *,std::allocator<void *> > >
PUBLIC	??4?$back_insert_iterator@V?$vector@PEAXV?$allocator@PEAX@std@@@std@@@std@@QEAAAEAV01@$$QEAPEAX@Z ; std::back_insert_iterator<std::vector<void *,std::allocator<void *> > >::operator=
PUBLIC	??D?$back_insert_iterator@V?$vector@PEAXV?$allocator@PEAX@std@@@std@@@std@@QEAAAEAV01@XZ ; std::back_insert_iterator<std::vector<void *,std::allocator<void *> > >::operator*
PUBLIC	??E?$back_insert_iterator@V?$vector@PEAXV?$allocator@PEAX@std@@@std@@@std@@QEAAAEAV01@XZ ; std::back_insert_iterator<std::vector<void *,std::allocator<void *> > >::operator++
PUBLIC	??$back_inserter@V?$vector@V?$_List_iterator@V?$_List_val@U?$_List_simple_types@UTextureResource@QSVAllocatorD3D11@@@std@@@std@@@std@@V?$allocator@V?$_List_iterator@V?$_List_val@U?$_List_simple_types@UTextureResource@QSVAllocatorD3D11@@@std@@@std@@@std@@@2@@std@@@std@@YA?AV?$back_insert_iterator@V?$vector@V?$_List_iterator@V?$_List_val@U?$_List_simple_types@UTextureResource@QSVAllocatorD3D11@@@std@@@std@@@std@@V?$allocator@V?$_List_iterator@V?$_List_val@U?$_List_simple_types@UTextureResource@QSVAllocatorD3D11@@@std@@@std@@@std@@@2@@std@@@0@AEAV?$vector@V?$_List_iterator@V?$_List_val@U?$_List_simple_types@UTextureResource@QSVAllocatorD3D11@@@std@@@std@@@std@@V?$allocator@V?$_List_iterator@V?$_List_val@U?$_List_simple_types@UTextureResource@QSVAllocatorD3D11@@@std@@@std@@@std@@@2@@0@@Z ; std::back_inserter<std::vector<std::_List_iterator<std::_List_val<std::_List_simple_types<QSVAllocatorD3D11::TextureResource> > >,std::allocator<std::_List_iterator<std::_List_val<std::_List_simple_types<QSVAllocatorD3D11::TextureResource> > > > > >
PUBLIC	??0?$back_insert_iterator@V?$vector@V?$_List_iterator@V?$_List_val@U?$_List_simple_types@UTextureResource@QSVAllocatorD3D11@@@std@@@std@@@std@@V?$allocator@V?$_List_iterator@V?$_List_val@U?$_List_simple_types@UTextureResource@QSVAllocatorD3D11@@@std@@@std@@@std@@@2@@std@@@std@@QEAA@AEAV?$vector@V?$_List_iterator@V?$_List_val@U?$_List_simple_types@UTextureResource@QSVAllocatorD3D11@@@std@@@std@@@std@@V?$allocator@V?$_List_iterator@V?$_List_val@U?$_List_simple_types@UTextureResource@QSVAllocatorD3D11@@@std@@@std@@@std@@@2@@1@@Z ; std::back_insert_iterator<std::vector<std::_List_iterator<std::_List_val<std::_List_simple_types<QSVAllocatorD3D11::TextureResource> > >,std::allocator<std::_List_iterator<std::_List_val<std::_List_simple_types<QSVAllocatorD3D11::TextureResource> > > > > >::back_insert_iterator<std::vector<std::_List_iterator<std::_List_val<std::_List_simple_types<QSVAllocatorD3D11::TextureResource> > >,std::allocator<std::_List_iterator<std::_List_val<std::_List_simple_types<QSVAllocatorD3D11::TextureResource> > > > > >
PUBLIC	??4?$back_insert_iterator@V?$vector@V?$_List_iterator@V?$_List_val@U?$_List_simple_types@UTextureResource@QSVAllocatorD3D11@@@std@@@std@@@std@@V?$allocator@V?$_List_iterator@V?$_List_val@U?$_List_simple_types@UTextureResource@QSVAllocatorD3D11@@@std@@@std@@@std@@@2@@std@@@std@@QEAAAEAV01@AEBV?$_List_iterator@V?$_List_val@U?$_List_simple_types@UTextureResource@QSVAllocatorD3D11@@@std@@@std@@@1@@Z ; std::back_insert_iterator<std::vector<std::_List_iterator<std::_List_val<std::_List_simple_types<QSVAllocatorD3D11::TextureResource> > >,std::allocator<std::_List_iterator<std::_List_val<std::_List_simple_types<QSVAllocatorD3D11::TextureResource> > > > > >::operator=
PUBLIC	??D?$back_insert_iterator@V?$vector@V?$_List_iterator@V?$_List_val@U?$_List_simple_types@UTextureResource@QSVAllocatorD3D11@@@std@@@std@@@std@@V?$allocator@V?$_List_iterator@V?$_List_val@U?$_List_simple_types@UTextureResource@QSVAllocatorD3D11@@@std@@@std@@@std@@@2@@std@@@std@@QEAAAEAV01@XZ ; std::back_insert_iterator<std::vector<std::_List_iterator<std::_List_val<std::_List_simple_types<QSVAllocatorD3D11::TextureResource> > >,std::allocator<std::_List_iterator<std::_List_val<std::_List_simple_types<QSVAllocatorD3D11::TextureResource> > > > > >::operator*
PUBLIC	??E?$back_insert_iterator@V?$vector@V?$_List_iterator@V?$_List_val@U?$_List_simple_types@UTextureResource@QSVAllocatorD3D11@@@std@@@std@@@std@@V?$allocator@V?$_List_iterator@V?$_List_val@U?$_List_simple_types@UTextureResource@QSVAllocatorD3D11@@@std@@@std@@@std@@@2@@std@@@std@@QEAAAEAV01@XZ ; std::back_insert_iterator<std::vector<std::_List_iterator<std::_List_val<std::_List_simple_types<QSVAllocatorD3D11::TextureResource> > >,std::allocator<std::_List_iterator<std::_List_val<std::_List_simple_types<QSVAllocatorD3D11::TextureResource> > > > > >::operator++
PUBLIC	??$fill_n@V?$back_insert_iterator@V?$vector@V?$_List_iterator@V?$_List_val@U?$_List_simple_types@UTextureResource@QSVAllocatorD3D11@@@std@@@std@@@std@@V?$allocator@V?$_List_iterator@V?$_List_val@U?$_List_simple_types@UTextureResource@QSVAllocatorD3D11@@@std@@@std@@@std@@@2@@std@@@std@@GV?$_List_iterator@V?$_List_val@U?$_List_simple_types@UTextureResource@QSVAllocatorD3D11@@@std@@@std@@@2@@std@@YA?AV?$back_insert_iterator@V?$vector@V?$_List_iterator@V?$_List_val@U?$_List_simple_types@UTextureResource@QSVAllocatorD3D11@@@std@@@std@@@std@@V?$allocator@V?$_List_iterator@V?$_List_val@U?$_List_simple_types@UTextureResource@QSVAllocatorD3D11@@@std@@@std@@@std@@@2@@std@@@0@V10@GAEBV?$_List_iterator@V?$_List_val@U?$_List_simple_types@UTextureResource@QSVAllocatorD3D11@@@std@@@std@@@0@@Z ; std::fill_n<std::back_insert_iterator<std::vector<std::_List_iterator<std::_List_val<std::_List_simple_types<QSVAllocatorD3D11::TextureResource> > >,std::allocator<std::_List_iterator<std::_List_val<std::_List_simple_types<QSVAllocatorD3D11::TextureResource> > > > > >,unsigned short,std::_List_iterator<std::_List_val<std::_List_simple_types<QSVAllocatorD3D11::TextureResource> > > >
PUBLIC	??$_Find_lower_bound@I@?$_Tree@V?$_Tmap_traits@IW4DXGI_FORMAT@@U?$less@I@std@@V?$allocator@U?$pair@$$CBIW4DXGI_FORMAT@@@std@@@3@$0A@@std@@@std@@IEBA?AU?$_Tree_find_result@PEAU?$_Tree_node@U?$pair@$$CBIW4DXGI_FORMAT@@@std@@PEAX@std@@@1@AEBI@Z ; std::_Tree<std::_Tmap_traits<unsigned int,enum DXGI_FORMAT,std::less<unsigned int>,std::allocator<std::pair<unsigned int const ,enum DXGI_FORMAT> >,0> >::_Find_lower_bound<unsigned int>
PUBLIC	??$_Lower_bound_duplicate@I@?$_Tree@V?$_Tmap_traits@IW4DXGI_FORMAT@@U?$less@I@std@@V?$allocator@U?$pair@$$CBIW4DXGI_FORMAT@@@std@@@3@$0A@@std@@@std@@IEBA_NQEAU?$_Tree_node@U?$pair@$$CBIW4DXGI_FORMAT@@@std@@PEAX@1@AEBI@Z ; std::_Tree<std::_Tmap_traits<unsigned int,enum DXGI_FORMAT,std::less<unsigned int>,std::allocator<std::pair<unsigned int const ,enum DXGI_FORMAT> >,0> >::_Lower_bound_duplicate<unsigned int>
PUBLIC	??$_Find@I@?$_Tree@V?$_Tmap_traits@IW4DXGI_FORMAT@@U?$less@I@std@@V?$allocator@U?$pair@$$CBIW4DXGI_FORMAT@@@std@@@3@$0A@@std@@@std@@AEBAPEAU?$_Tree_node@U?$pair@$$CBIW4DXGI_FORMAT@@@std@@PEAX@1@AEBI@Z ; std::_Tree<std::_Tmap_traits<unsigned int,enum DXGI_FORMAT,std::less<unsigned int>,std::allocator<std::pair<unsigned int const ,enum DXGI_FORMAT> >,0> >::_Find<unsigned int>
PUBLIC	??$_Erase_head@V?$allocator@U?$_Tree_node@U?$pair@$$CBIW4DXGI_FORMAT@@@std@@PEAX@std@@@std@@@?$_Tree_val@U?$_Tree_simple_types@U?$pair@$$CBIW4DXGI_FORMAT@@@std@@@std@@@std@@QEAAXAEAV?$allocator@U?$_Tree_node@U?$pair@$$CBIW4DXGI_FORMAT@@@std@@PEAX@std@@@1@@Z ; std::_Tree_val<std::_Tree_simple_types<std::pair<unsigned int const ,enum DXGI_FORMAT> > >::_Erase_head<std::allocator<std::_Tree_node<std::pair<unsigned int const ,enum DXGI_FORMAT>,void *> > >
PUBLIC	?allocate@?$allocator@U_Container_proxy@std@@@std@@QEAAPEAU_Container_proxy@2@_K@Z ; std::allocator<std::_Container_proxy>::allocate
PUBLIC	??$?0U?$_Tree_node@U?$pair@$$CBIW4DXGI_FORMAT@@@std@@PEAX@std@@@?$allocator@U_Container_proxy@std@@@std@@QEAA@AEBV?$allocator@U?$_Tree_node@U?$pair@$$CBIW4DXGI_FORMAT@@@std@@PEAX@std@@@1@@Z ; std::allocator<std::_Container_proxy>::allocator<std::_Container_proxy><std::_Tree_node<std::pair<unsigned int const ,enum DXGI_FORMAT>,void *> >
PUBLIC	??$_Delete_plain_internal@V?$allocator@U_Container_proxy@std@@@std@@@std@@YAXAEAV?$allocator@U_Container_proxy@std@@@0@QEAU_Container_proxy@0@@Z ; std::_Delete_plain_internal<std::allocator<std::_Container_proxy> >
PUBLIC	??$exchange@PEAU_Container_proxy@std@@$$T@std@@YAPEAU_Container_proxy@0@AEAPEAU10@$$QEA$$T@Z ; std::exchange<std::_Container_proxy *,std::nullptr_t>
PUBLIC	??$?0V?$_List_iterator@V?$_List_val@U?$_List_simple_types@UTextureResource@QSVAllocatorD3D11@@@std@@@std@@@std@@@?$allocator@U_Container_proxy@std@@@std@@QEAA@AEBV?$allocator@V?$_List_iterator@V?$_List_val@U?$_List_simple_types@UTextureResource@QSVAllocatorD3D11@@@std@@@std@@@std@@@1@@Z ; std::allocator<std::_Container_proxy>::allocator<std::_Container_proxy><std::_List_iterator<std::_List_val<std::_List_simple_types<QSVAllocatorD3D11::TextureResource> > > >
PUBLIC	??$?0$$V@?$_Compressed_pair@V?$allocator@V?$_List_iterator@V?$_List_val@U?$_List_simple_types@UTextureResource@QSVAllocatorD3D11@@@std@@@std@@@std@@@std@@V?$_Vector_val@U?$_Simple_types@V?$_List_iterator@V?$_List_val@U?$_List_simple_types@UTextureResource@QSVAllocatorD3D11@@@std@@@std@@@std@@@std@@@2@$00@std@@QEAA@U_Zero_then_variadic_args_t@1@@Z ; std::_Compressed_pair<std::allocator<std::_List_iterator<std::_List_val<std::_List_simple_types<QSVAllocatorD3D11::TextureResource> > > >,std::_Vector_val<std::_Simple_types<std::_List_iterator<std::_List_val<std::_List_simple_types<QSVAllocatorD3D11::TextureResource> > > > >,1>::_Compressed_pair<std::allocator<std::_List_iterator<std::_List_val<std::_List_simple_types<QSVAllocatorD3D11::TextureResource> > > >,std::_Vector_val<std::_Simple_types<std::_List_iterator<std::_List_val<std::_List_simple_types<QSVAllocatorD3D11::TextureResource> > > > >,1><>
PUBLIC	??$_Alloc_proxy@V?$allocator@U_Container_proxy@std@@@std@@@_Container_base12@std@@QEAAX$$QEAV?$allocator@U_Container_proxy@std@@@1@@Z ; std::_Container_base12::_Alloc_proxy<std::allocator<std::_Container_proxy> >
PUBLIC	??$_Free_non_head@V?$allocator@U?$_List_node@UTextureResource@QSVAllocatorD3D11@@PEAX@std@@@std@@@?$_List_node@UTextureResource@QSVAllocatorD3D11@@PEAX@std@@SAXAEAV?$allocator@U?$_List_node@UTextureResource@QSVAllocatorD3D11@@PEAX@std@@@1@PEAU01@@Z ; std::_List_node<QSVAllocatorD3D11::TextureResource,void *>::_Free_non_head<std::allocator<std::_List_node<QSVAllocatorD3D11::TextureResource,void *> > >
PUBLIC	??$_Emplace@AEBUTextureResource@QSVAllocatorD3D11@@@?$list@UTextureResource@QSVAllocatorD3D11@@V?$allocator@UTextureResource@QSVAllocatorD3D11@@@std@@@std@@QEAAPEAU?$_List_node@UTextureResource@QSVAllocatorD3D11@@PEAX@1@QEAU21@AEBUTextureResource@QSVAllocatorD3D11@@@Z ; std::list<QSVAllocatorD3D11::TextureResource,std::allocator<QSVAllocatorD3D11::TextureResource> >::_Emplace<QSVAllocatorD3D11::TextureResource const &>
PUBLIC	??$addressof@V?$_List_val@U?$_List_simple_types@UTextureResource@QSVAllocatorD3D11@@@std@@@std@@@std@@YAPEAV?$_List_val@U?$_List_simple_types@UTextureResource@QSVAllocatorD3D11@@@std@@@0@AEAV10@@Z ; std::addressof<std::_List_val<std::_List_simple_types<QSVAllocatorD3D11::TextureResource> > >
PUBLIC	??$?0U?$_List_node@UTextureResource@QSVAllocatorD3D11@@PEAX@std@@@?$allocator@U_Container_proxy@std@@@std@@QEAA@AEBV?$allocator@U?$_List_node@UTextureResource@QSVAllocatorD3D11@@PEAX@std@@@1@@Z ; std::allocator<std::_Container_proxy>::allocator<std::_Container_proxy><std::_List_node<QSVAllocatorD3D11::TextureResource,void *> >
PUBLIC	??$?0$$V@?$_Compressed_pair@V?$allocator@U?$_List_node@UTextureResource@QSVAllocatorD3D11@@PEAX@std@@@std@@V?$_List_val@U?$_List_simple_types@UTextureResource@QSVAllocatorD3D11@@@std@@@2@$00@std@@QEAA@U_Zero_then_variadic_args_t@1@@Z ; std::_Compressed_pair<std::allocator<std::_List_node<QSVAllocatorD3D11::TextureResource,void *> >,std::_List_val<std::_List_simple_types<QSVAllocatorD3D11::TextureResource> >,1>::_Compressed_pair<std::allocator<std::_List_node<QSVAllocatorD3D11::TextureResource,void *> >,std::_List_val<std::_List_simple_types<QSVAllocatorD3D11::TextureResource> >,1><>
PUBLIC	??$move@AEAPEAUID3D11Texture2D@@@std@@YA$$QEAPEAUID3D11Texture2D@@AEAPEAU1@@Z ; std::move<ID3D11Texture2D * &>
PUBLIC	??$emplace_back@PEAUID3D11Texture2D@@@?$vector@PEAUID3D11Texture2D@@V?$allocator@PEAUID3D11Texture2D@@@std@@@std@@QEAAX$$QEAPEAUID3D11Texture2D@@@Z ; std::vector<ID3D11Texture2D *,std::allocator<ID3D11Texture2D *> >::emplace_back<ID3D11Texture2D *>
PUBLIC	??$forward@PEAUID3D11Texture2D@@@std@@YA$$QEAPEAUID3D11Texture2D@@AEAPEAU1@@Z ; std::forward<ID3D11Texture2D *>
PUBLIC	??$_Emplace_back_with_unused_capacity@PEAUID3D11Texture2D@@@?$vector@PEAUID3D11Texture2D@@V?$allocator@PEAUID3D11Texture2D@@@std@@@std@@AEAAX$$QEAPEAUID3D11Texture2D@@@Z ; std::vector<ID3D11Texture2D *,std::allocator<ID3D11Texture2D *> >::_Emplace_back_with_unused_capacity<ID3D11Texture2D *>
PUBLIC	??$_Unfancy@PEAUID3D11Texture2D@@@std@@YAPEAPEAUID3D11Texture2D@@PEAPEAU1@@Z ; std::_Unfancy<ID3D11Texture2D *>
PUBLIC	??$construct@PEAUID3D11Texture2D@@PEAU1@@?$_Default_allocator_traits@V?$allocator@PEAUID3D11Texture2D@@@std@@@std@@SAXAEAV?$allocator@PEAUID3D11Texture2D@@@1@QEAPEAUID3D11Texture2D@@$$QEAPEAU3@@Z ; std::_Default_allocator_traits<std::allocator<ID3D11Texture2D *> >::construct<ID3D11Texture2D *,ID3D11Texture2D *>
PUBLIC	??$_Emplace_reallocate@PEAUID3D11Texture2D@@@?$vector@PEAUID3D11Texture2D@@V?$allocator@PEAUID3D11Texture2D@@@std@@@std@@QEAAPEAPEAUID3D11Texture2D@@QEAPEAU2@$$QEAPEAU2@@Z ; std::vector<ID3D11Texture2D *,std::allocator<ID3D11Texture2D *> >::_Emplace_reallocate<ID3D11Texture2D *>
PUBLIC	??$emplace_back@AEBQEAUID3D11Texture2D@@@?$vector@PEAUID3D11Texture2D@@V?$allocator@PEAUID3D11Texture2D@@@std@@@std@@QEAAXAEBQEAUID3D11Texture2D@@@Z ; std::vector<ID3D11Texture2D *,std::allocator<ID3D11Texture2D *> >::emplace_back<ID3D11Texture2D * const &>
PUBLIC	??$forward@AEBQEAUID3D11Texture2D@@@std@@YAAEBQEAUID3D11Texture2D@@AEBQEAU1@@Z ; std::forward<ID3D11Texture2D * const &>
PUBLIC	??$_Emplace_back_with_unused_capacity@AEBQEAUID3D11Texture2D@@@?$vector@PEAUID3D11Texture2D@@V?$allocator@PEAUID3D11Texture2D@@@std@@@std@@AEAAXAEBQEAUID3D11Texture2D@@@Z ; std::vector<ID3D11Texture2D *,std::allocator<ID3D11Texture2D *> >::_Emplace_back_with_unused_capacity<ID3D11Texture2D * const &>
PUBLIC	??$construct@PEAUID3D11Texture2D@@AEBQEAU1@@?$_Default_allocator_traits@V?$allocator@PEAUID3D11Texture2D@@@std@@@std@@SAXAEAV?$allocator@PEAUID3D11Texture2D@@@1@QEAPEAUID3D11Texture2D@@AEBQEAU3@@Z ; std::_Default_allocator_traits<std::allocator<ID3D11Texture2D *> >::construct<ID3D11Texture2D *,ID3D11Texture2D * const &>
PUBLIC	??$_Emplace_reallocate@AEBQEAUID3D11Texture2D@@@?$vector@PEAUID3D11Texture2D@@V?$allocator@PEAUID3D11Texture2D@@@std@@@std@@QEAAPEAPEAUID3D11Texture2D@@QEAPEAU2@AEBQEAU2@@Z ; std::vector<ID3D11Texture2D *,std::allocator<ID3D11Texture2D *> >::_Emplace_reallocate<ID3D11Texture2D * const &>
PUBLIC	??$?0PEAUID3D11Texture2D@@@?$allocator@U_Container_proxy@std@@@std@@QEAA@AEBV?$allocator@PEAUID3D11Texture2D@@@1@@Z ; std::allocator<std::_Container_proxy>::allocator<std::_Container_proxy><ID3D11Texture2D *>
PUBLIC	??$?0V?$allocator@PEAUID3D11Texture2D@@@std@@$$V@?$_Compressed_pair@V?$allocator@PEAUID3D11Texture2D@@@std@@V?$_Vector_val@U?$_Simple_types@PEAUID3D11Texture2D@@@std@@@2@$00@std@@QEAA@U_One_then_variadic_args_t@1@$$QEAV?$allocator@PEAUID3D11Texture2D@@@1@@Z ; std::_Compressed_pair<std::allocator<ID3D11Texture2D *>,std::_Vector_val<std::_Simple_types<ID3D11Texture2D *> >,1>::_Compressed_pair<std::allocator<ID3D11Texture2D *>,std::_Vector_val<std::_Simple_types<ID3D11Texture2D *> >,1><std::allocator<ID3D11Texture2D *> >
PUBLIC	??0?$_Container_proxy_ptr12@V?$allocator@U_Container_proxy@std@@@std@@@std@@QEAA@AEAV?$allocator@U_Container_proxy@std@@@1@AEAU_Container_base12@1@@Z ; std::_Container_proxy_ptr12<std::allocator<std::_Container_proxy> >::_Container_proxy_ptr12<std::allocator<std::_Container_proxy> >
PUBLIC	??1?$_Container_proxy_ptr12@V?$allocator@U_Container_proxy@std@@@std@@@std@@QEAA@XZ ; std::_Container_proxy_ptr12<std::allocator<std::_Container_proxy> >::~_Container_proxy_ptr12<std::allocator<std::_Container_proxy> >
PUBLIC	??1?$_Tidy_guard@V?$vector@PEAUID3D11Texture2D@@V?$allocator@PEAUID3D11Texture2D@@@std@@@std@@@std@@QEAA@XZ ; std::_Tidy_guard<std::vector<ID3D11Texture2D *,std::allocator<ID3D11Texture2D *> > >::~_Tidy_guard<std::vector<ID3D11Texture2D *,std::allocator<ID3D11Texture2D *> > >
PUBLIC	??$_Ucopy@PEAPEAUID3D11Texture2D@@@?$vector@PEAUID3D11Texture2D@@V?$allocator@PEAUID3D11Texture2D@@@std@@@std@@AEAAPEAPEAUID3D11Texture2D@@PEAPEAU2@00@Z ; std::vector<ID3D11Texture2D *,std::allocator<ID3D11Texture2D *> >::_Ucopy<ID3D11Texture2D * *>
PUBLIC	??$?0$$V@?$_Compressed_pair@V?$allocator@PEAUID3D11Texture2D@@@std@@V?$_Vector_val@U?$_Simple_types@PEAUID3D11Texture2D@@@std@@@2@$00@std@@QEAA@U_Zero_then_variadic_args_t@1@@Z ; std::_Compressed_pair<std::allocator<ID3D11Texture2D *>,std::_Vector_val<std::_Simple_types<ID3D11Texture2D *> >,1>::_Compressed_pair<std::allocator<ID3D11Texture2D *>,std::_Vector_val<std::_Simple_types<ID3D11Texture2D *> >,1><>
PUBLIC	??$?0PEAX@?$allocator@U_Container_proxy@std@@@std@@QEAA@AEBV?$allocator@PEAX@1@@Z ; std::allocator<std::_Container_proxy>::allocator<std::_Container_proxy><void *>
PUBLIC	??$?0V?$allocator@PEAX@std@@$$V@?$_Compressed_pair@V?$allocator@PEAX@std@@V?$_Vector_val@U?$_Simple_types@PEAX@std@@@2@$00@std@@QEAA@U_One_then_variadic_args_t@1@$$QEAV?$allocator@PEAX@1@@Z ; std::_Compressed_pair<std::allocator<void *>,std::_Vector_val<std::_Simple_types<void *> >,1>::_Compressed_pair<std::allocator<void *>,std::_Vector_val<std::_Simple_types<void *> >,1><std::allocator<void *> >
PUBLIC	??1?$_Tidy_guard@V?$vector@PEAXV?$allocator@PEAX@std@@@std@@@std@@QEAA@XZ ; std::_Tidy_guard<std::vector<void *,std::allocator<void *> > >::~_Tidy_guard<std::vector<void *,std::allocator<void *> > >
PUBLIC	??$_Ucopy@PEAPEAX@?$vector@PEAXV?$allocator@PEAX@std@@@std@@AEAAPEAPEAXPEAPEAX00@Z ; std::vector<void *,std::allocator<void *> >::_Ucopy<void * *>
PUBLIC	??$?0$$V@?$_Compressed_pair@V?$allocator@PEAX@std@@V?$_Vector_val@U?$_Simple_types@PEAX@std@@@2@$00@std@@QEAA@U_Zero_then_variadic_args_t@1@@Z ; std::_Compressed_pair<std::allocator<void *>,std::_Vector_val<std::_Simple_types<void *> >,1>::_Compressed_pair<std::allocator<void *>,std::_Vector_val<std::_Simple_types<void *> >,1><>
PUBLIC	??$_Min_value@_K@std@@YAAEB_KAEB_K0@Z		; std::_Min_value<unsigned __int64>
PUBLIC	??$_Unfancy@U_Container_proxy@std@@@std@@YAPEAU_Container_proxy@0@PEAU10@@Z ; std::_Unfancy<std::_Container_proxy>
PUBLIC	??$addressof@U_Container_base12@std@@@std@@YAPEAU_Container_base12@0@AEAU10@@Z ; std::addressof<std::_Container_base12>
PUBLIC	??$_Construct_in_place@U_Container_proxy@std@@PEAU_Container_base12@2@@std@@YAXAEAU_Container_proxy@0@$$QEAPEAU_Container_base12@0@@Z ; std::_Construct_in_place<std::_Container_proxy,std::_Container_base12 *>
PUBLIC	??$addressof@$$CBV?$_Tree_val@U?$_Tree_simple_types@U?$pair@$$CBIW4DXGI_FORMAT@@@std@@@std@@@std@@@std@@YAPEBV?$_Tree_val@U?$_Tree_simple_types@U?$pair@$$CBIW4DXGI_FORMAT@@@std@@@std@@@0@AEBV10@@Z ; std::addressof<std::_Tree_val<std::_Tree_simple_types<std::pair<unsigned int const ,enum DXGI_FORMAT> > > const >
PUBLIC	??$addressof@V?$_Tree_val@U?$_Tree_simple_types@U?$pair@$$CBIW4DXGI_FORMAT@@@std@@@std@@@std@@@std@@YAPEAV?$_Tree_val@U?$_Tree_simple_types@U?$pair@$$CBIW4DXGI_FORMAT@@@std@@@std@@@0@AEAV10@@Z ; std::addressof<std::_Tree_val<std::_Tree_simple_types<std::pair<unsigned int const ,enum DXGI_FORMAT> > > >
PUBLIC	??$insert@PEBU?$pair@$$CBIW4DXGI_FORMAT@@@std@@@?$_Tree@V?$_Tmap_traits@IW4DXGI_FORMAT@@U?$less@I@std@@V?$allocator@U?$pair@$$CBIW4DXGI_FORMAT@@@std@@@3@$0A@@std@@@std@@QEAAXPEBU?$pair@$$CBIW4DXGI_FORMAT@@@1@0@Z ; std::_Tree<std::_Tmap_traits<unsigned int,enum DXGI_FORMAT,std::less<unsigned int>,std::allocator<std::pair<unsigned int const ,enum DXGI_FORMAT> >,0> >::insert<std::pair<unsigned int const ,enum DXGI_FORMAT> const *>
PUBLIC	??$?0AEBU?$less@I@std@@U_Zero_then_variadic_args_t@1@@?$_Compressed_pair@U?$less@I@std@@V?$_Compressed_pair@V?$allocator@U?$_Tree_node@U?$pair@$$CBIW4DXGI_FORMAT@@@std@@PEAX@std@@@std@@V?$_Tree_val@U?$_Tree_simple_types@U?$pair@$$CBIW4DXGI_FORMAT@@@std@@@std@@@2@$00@2@$00@std@@QEAA@U_One_then_variadic_args_t@1@AEBU?$less@I@1@$$QEAU_Zero_then_variadic_args_t@1@@Z ; std::_Compressed_pair<std::less<unsigned int>,std::_Compressed_pair<std::allocator<std::_Tree_node<std::pair<unsigned int const ,enum DXGI_FORMAT>,void *> >,std::_Tree_val<std::_Tree_simple_types<std::pair<unsigned int const ,enum DXGI_FORMAT> > >,1>,1>::_Compressed_pair<std::less<unsigned int>,std::_Compressed_pair<std::allocator<std::_Tree_node<std::pair<unsigned int const ,enum DXGI_FORMAT>,void *> >,std::_Tree_val<std::_Tree_simple_types<std::pair<unsigned int const ,enum DXGI_FORMAT> > >,1>,1><std::less<unsigned int> const &,std::_Zero_then_variadic_args_t>
PUBLIC	??$_Destroy_range@V?$allocator@V?$_List_iterator@V?$_List_val@U?$_List_simple_types@UTextureResource@QSVAllocatorD3D11@@@std@@@std@@@std@@@std@@@std@@YAXPEAV?$_List_iterator@V?$_List_val@U?$_List_simple_types@UTextureResource@QSVAllocatorD3D11@@@std@@@std@@@0@QEAV10@AEAV?$allocator@V?$_List_iterator@V?$_List_val@U?$_List_simple_types@UTextureResource@QSVAllocatorD3D11@@@std@@@std@@@std@@@0@@Z ; std::_Destroy_range<std::allocator<std::_List_iterator<std::_List_val<std::_List_simple_types<QSVAllocatorD3D11::TextureResource> > > > >
PUBLIC	??$_Construct_in_place@PEAU?$_List_node@UTextureResource@QSVAllocatorD3D11@@PEAX@std@@AEAPEAU12@@std@@YAXAEAPEAU?$_List_node@UTextureResource@QSVAllocatorD3D11@@PEAX@0@0@Z ; std::_Construct_in_place<std::_List_node<QSVAllocatorD3D11::TextureResource,void *> *,std::_List_node<QSVAllocatorD3D11::TextureResource,void *> * &>
PUBLIC	??$_Freenode0@V?$allocator@U?$_List_node@UTextureResource@QSVAllocatorD3D11@@PEAX@std@@@std@@@?$_List_node@UTextureResource@QSVAllocatorD3D11@@PEAX@std@@SAXAEAV?$allocator@U?$_List_node@UTextureResource@QSVAllocatorD3D11@@PEAX@std@@@1@PEAU01@@Z ; std::_List_node<QSVAllocatorD3D11::TextureResource,void *>::_Freenode0<std::allocator<std::_List_node<QSVAllocatorD3D11::TextureResource,void *> > >
PUBLIC	??$_Destroy_range@V?$allocator@PEAUID3D11Texture2D@@@std@@@std@@YAXPEAPEAUID3D11Texture2D@@QEAPEAU1@AEAV?$allocator@PEAUID3D11Texture2D@@@0@@Z ; std::_Destroy_range<std::allocator<ID3D11Texture2D *> >
PUBLIC	??$_Copy_construct_from@VRGYLog@@@?$_Ptr_base@VRGYLog@@@std@@IEAAXAEBV?$shared_ptr@VRGYLog@@@1@@Z ; std::_Ptr_base<RGYLog>::_Copy_construct_from<RGYLog>
PUBLIC	??$_Allocate@$0BA@U_Default_allocate_traits@std@@$0A@@std@@YAPEAX_K@Z ; std::_Allocate<16,std::_Default_allocate_traits,0>
PUBLIC	??$_Deallocate@$0BA@$0A@@std@@YAXPEAX_K@Z	; std::_Deallocate<16,0>
PUBLIC	??$_Get_size_of_n@$0BA@@std@@YA_K_K@Z		; std::_Get_size_of_n<16>
PUBLIC	??$_Buyheadnode@V?$allocator@U?$_Tree_node@U?$pair@$$CBIW4DXGI_FORMAT@@@std@@PEAX@std@@@std@@@?$_Tree_node@U?$pair@$$CBIW4DXGI_FORMAT@@@std@@PEAX@std@@SAPEAU01@AEAV?$allocator@U?$_Tree_node@U?$pair@$$CBIW4DXGI_FORMAT@@@std@@PEAX@std@@@1@@Z ; std::_Tree_node<std::pair<unsigned int const ,enum DXGI_FORMAT>,void *>::_Buyheadnode<std::allocator<std::_Tree_node<std::pair<unsigned int const ,enum DXGI_FORMAT>,void *> > >
PUBLIC	??$_Get_size_of_n@$0HI@@std@@YA_K_K@Z		; std::_Get_size_of_n<120>
PUBLIC	??$_Get_size_of_n@$07@std@@YA_K_K@Z		; std::_Get_size_of_n<8>
PUBLIC	??$_Destroy_range@V?$allocator@PEAX@std@@@std@@YAXPEAPEAXQEAPEAXAEAV?$allocator@PEAX@0@@Z ; std::_Destroy_range<std::allocator<void *> >
PUBLIC	??$swap@PEAVRGYLog@@X@std@@YAXAEAPEAVRGYLog@@0@Z ; std::swap<RGYLog *,void>
PUBLIC	??$swap@PEAV_Ref_count_base@std@@X@std@@YAXAEAPEAV_Ref_count_base@0@0@Z ; std::swap<std::_Ref_count_base *,void>
PUBLIC	??$forward@W4<unnamed-enum-MFX_FOURCC_NV12>@@@std@@YA$$QEAW4<unnamed-enum-MFX_FOURCC_NV12>@@AEAW41@@Z ; std::forward<enum <unnamed-enum-MFX_FOURCC_NV12> >
PUBLIC	??$forward@W4DXGI_FORMAT@@@std@@YA$$QEAW4DXGI_FORMAT@@AEAW41@@Z ; std::forward<enum DXGI_FORMAT>
PUBLIC	??$_Adl_verify_range@V?$_Array_const_iterator@W4DXGI_FORMAT@@$0L@@std@@V12@@std@@YAXAEBV?$_Array_const_iterator@W4DXGI_FORMAT@@$0L@@0@0@Z ; std::_Adl_verify_range<std::_Array_const_iterator<enum DXGI_FORMAT,11>,std::_Array_const_iterator<enum DXGI_FORMAT,11> >
PUBLIC	??$_Get_unwrapped@V?$_Array_const_iterator@W4DXGI_FORMAT@@$0L@@std@@$0A@@std@@YAPEBW4DXGI_FORMAT@@AEBV?$_Array_const_iterator@W4DXGI_FORMAT@@$0L@@0@@Z ; std::_Get_unwrapped<std::_Array_const_iterator<enum DXGI_FORMAT,11>,0>
PUBLIC	??$_Find_unchecked@PEBW4DXGI_FORMAT@@W41@@std@@YAPEBW4DXGI_FORMAT@@QEBW41@0AEBW41@@Z ; std::_Find_unchecked<enum DXGI_FORMAT const *,enum DXGI_FORMAT>
PUBLIC	??$_Seek_wrapped@V?$_Array_const_iterator@W4DXGI_FORMAT@@$0L@@std@@PEBW4DXGI_FORMAT@@@std@@YAXAEAV?$_Array_const_iterator@W4DXGI_FORMAT@@$0L@@0@AEBQEBW4DXGI_FORMAT@@@Z ; std::_Seek_wrapped<std::_Array_const_iterator<enum DXGI_FORMAT,11>,enum DXGI_FORMAT const *>
PUBLIC	??$_Adl_verify_range@V?$_List_iterator@V?$_List_val@U?$_List_simple_types@UTextureResource@QSVAllocatorD3D11@@@std@@@std@@@std@@V12@@std@@YAXAEBV?$_List_iterator@V?$_List_val@U?$_List_simple_types@UTextureResource@QSVAllocatorD3D11@@@std@@@std@@@0@0@Z ; std::_Adl_verify_range<std::_List_iterator<std::_List_val<std::_List_simple_types<QSVAllocatorD3D11::TextureResource> > >,std::_List_iterator<std::_List_val<std::_List_simple_types<QSVAllocatorD3D11::TextureResource> > > >
PUBLIC	??$_Get_unwrapped@V?$_List_iterator@V?$_List_val@U?$_List_simple_types@UTextureResource@QSVAllocatorD3D11@@@std@@@std@@@std@@$0A@@std@@YA?AV?$_List_unchecked_iterator@V?$_List_val@U?$_List_simple_types@UTextureResource@QSVAllocatorD3D11@@@std@@@std@@@0@AEBV?$_List_iterator@V?$_List_val@U?$_List_simple_types@UTextureResource@QSVAllocatorD3D11@@@std@@@std@@@0@@Z ; std::_Get_unwrapped<std::_List_iterator<std::_List_val<std::_List_simple_types<QSVAllocatorD3D11::TextureResource> > >,0>
PUBLIC	??$_Seek_wrapped@V?$_List_iterator@V?$_List_val@U?$_List_simple_types@UTextureResource@QSVAllocatorD3D11@@@std@@@std@@@std@@V?$_List_unchecked_iterator@V?$_List_val@U?$_List_simple_types@UTextureResource@QSVAllocatorD3D11@@@std@@@std@@@2@@std@@YAXAEAV?$_List_iterator@V?$_List_val@U?$_List_simple_types@UTextureResource@QSVAllocatorD3D11@@@std@@@std@@@0@AEBV?$_List_unchecked_iterator@V?$_List_val@U?$_List_simple_types@UTextureResource@QSVAllocatorD3D11@@@std@@@std@@@0@@Z ; std::_Seek_wrapped<std::_List_iterator<std::_List_val<std::_List_simple_types<QSVAllocatorD3D11::TextureResource> > >,std::_List_unchecked_iterator<std::_List_val<std::_List_simple_types<QSVAllocatorD3D11::TextureResource> > > >
PUBLIC	??$_Get_unwrapped_n@V?$back_insert_iterator@V?$vector@PEAXV?$allocator@PEAX@std@@@std@@@std@@G$0A@@std@@YAAEBV?$back_insert_iterator@V?$vector@PEAXV?$allocator@PEAX@std@@@std@@@0@AEBV10@G@Z ; std::_Get_unwrapped_n<std::back_insert_iterator<std::vector<void *,std::allocator<void *> > >,unsigned short,0>
PUBLIC	??$_Seek_wrapped@V?$back_insert_iterator@V?$vector@PEAXV?$allocator@PEAX@std@@@std@@@std@@V12@@std@@YAXAEAV?$back_insert_iterator@V?$vector@PEAXV?$allocator@PEAX@std@@@std@@@0@AEBV10@@Z ; std::_Seek_wrapped<std::back_insert_iterator<std::vector<void *,std::allocator<void *> > >,std::back_insert_iterator<std::vector<void *,std::allocator<void *> > > >
PUBLIC	??$_Get_unwrapped_n@V?$back_insert_iterator@V?$vector@V?$_List_iterator@V?$_List_val@U?$_List_simple_types@UTextureResource@QSVAllocatorD3D11@@@std@@@std@@@std@@V?$allocator@V?$_List_iterator@V?$_List_val@U?$_List_simple_types@UTextureResource@QSVAllocatorD3D11@@@std@@@std@@@std@@@2@@std@@@std@@G$0A@@std@@YAAEBV?$back_insert_iterator@V?$vector@V?$_List_iterator@V?$_List_val@U?$_List_simple_types@UTextureResource@QSVAllocatorD3D11@@@std@@@std@@@std@@V?$allocator@V?$_List_iterator@V?$_List_val@U?$_List_simple_types@UTextureResource@QSVAllocatorD3D11@@@std@@@std@@@std@@@2@@std@@@0@AEBV10@G@Z ; std::_Get_unwrapped_n<std::back_insert_iterator<std::vector<std::_List_iterator<std::_List_val<std::_List_simple_types<QSVAllocatorD3D11::TextureResource> > >,std::allocator<std::_List_iterator<std::_List_val<std::_List_simple_types<QSVAllocatorD3D11::TextureResource> > > > > >,unsigned short,0>
PUBLIC	??$_Seek_wrapped@V?$back_insert_iterator@V?$vector@V?$_List_iterator@V?$_List_val@U?$_List_simple_types@UTextureResource@QSVAllocatorD3D11@@@std@@@std@@@std@@V?$allocator@V?$_List_iterator@V?$_List_val@U?$_List_simple_types@UTextureResource@QSVAllocatorD3D11@@@std@@@std@@@std@@@2@@std@@@std@@V12@@std@@YAXAEAV?$back_insert_iterator@V?$vector@V?$_List_iterator@V?$_List_val@U?$_List_simple_types@UTextureResource@QSVAllocatorD3D11@@@std@@@std@@@std@@V?$allocator@V?$_List_iterator@V?$_List_val@U?$_List_simple_types@UTextureResource@QSVAllocatorD3D11@@@std@@@std@@@std@@@2@@std@@@0@AEBV10@@Z ; std::_Seek_wrapped<std::back_insert_iterator<std::vector<std::_List_iterator<std::_List_val<std::_List_simple_types<QSVAllocatorD3D11::TextureResource> > >,std::allocator<std::_List_iterator<std::_List_val<std::_List_simple_types<QSVAllocatorD3D11::TextureResource> > > > > >,std::back_insert_iterator<std::vector<std::_List_iterator<std::_List_val<std::_List_simple_types<QSVAllocatorD3D11::TextureResource> > >,std::allocator<std::_List_iterator<std::_List_val<std::_List_simple_types<QSVAllocatorD3D11::TextureResource> > > > > > >
PUBLIC	??$_Kfn@$$CBIW4DXGI_FORMAT@@@?$_Tmap_traits@IW4DXGI_FORMAT@@U?$less@I@std@@V?$allocator@U?$pair@$$CBIW4DXGI_FORMAT@@@std@@@3@$0A@@std@@SAAEBIAEBU?$pair@$$CBIW4DXGI_FORMAT@@@1@@Z ; std::_Tmap_traits<unsigned int,enum DXGI_FORMAT,std::less<unsigned int>,std::allocator<std::pair<unsigned int const ,enum DXGI_FORMAT> >,0>::_Kfn<unsigned int const ,enum DXGI_FORMAT>
PUBLIC	??$_Debug_lt_pred@AEBU?$less@I@std@@AEBIAEBI$0A@@std@@YA_NAEBU?$less@I@0@AEBI1@Z ; std::_Debug_lt_pred<std::less<unsigned int> const &,unsigned int const &,unsigned int const &,0>
PUBLIC	??$_Erase_tree@V?$allocator@U?$_Tree_node@U?$pair@$$CBIW4DXGI_FORMAT@@@std@@PEAX@std@@@std@@@?$_Tree_val@U?$_Tree_simple_types@U?$pair@$$CBIW4DXGI_FORMAT@@@std@@@std@@@std@@QEAAXAEAV?$allocator@U?$_Tree_node@U?$pair@$$CBIW4DXGI_FORMAT@@@std@@PEAX@std@@@1@PEAU?$_Tree_node@U?$pair@$$CBIW4DXGI_FORMAT@@@std@@PEAX@1@@Z ; std::_Tree_val<std::_Tree_simple_types<std::pair<unsigned int const ,enum DXGI_FORMAT> > >::_Erase_tree<std::allocator<std::_Tree_node<std::pair<unsigned int const ,enum DXGI_FORMAT>,void *> > >
PUBLIC	??$_Freenode0@V?$allocator@U?$_Tree_node@U?$pair@$$CBIW4DXGI_FORMAT@@@std@@PEAX@std@@@std@@@?$_Tree_node@U?$pair@$$CBIW4DXGI_FORMAT@@@std@@PEAX@std@@SAXAEAV?$allocator@U?$_Tree_node@U?$pair@$$CBIW4DXGI_FORMAT@@@std@@PEAX@std@@@1@PEAU01@@Z ; std::_Tree_node<std::pair<unsigned int const ,enum DXGI_FORMAT>,void *>::_Freenode0<std::allocator<std::_Tree_node<std::pair<unsigned int const ,enum DXGI_FORMAT>,void *> > >
PUBLIC	??$_Deallocate_plain@V?$allocator@U_Container_proxy@std@@@std@@@std@@YAXAEAV?$allocator@U_Container_proxy@std@@@0@QEAU_Container_proxy@0@@Z ; std::_Deallocate_plain<std::allocator<std::_Container_proxy> >
PUBLIC	??$_Freenode@V?$allocator@U?$_List_node@UTextureResource@QSVAllocatorD3D11@@PEAX@std@@@std@@@?$_List_node@UTextureResource@QSVAllocatorD3D11@@PEAX@std@@SAXAEAV?$allocator@U?$_List_node@UTextureResource@QSVAllocatorD3D11@@PEAX@std@@@1@PEAU01@@Z ; std::_List_node<QSVAllocatorD3D11::TextureResource,void *>::_Freenode<std::allocator<std::_List_node<QSVAllocatorD3D11::TextureResource,void *> > >
PUBLIC	??0?$_Alloc_construct_ptr@V?$allocator@U?$_List_node@UTextureResource@QSVAllocatorD3D11@@PEAX@std@@@std@@@std@@QEAA@AEAV?$allocator@U?$_List_node@UTextureResource@QSVAllocatorD3D11@@PEAX@std@@@1@@Z ; std::_Alloc_construct_ptr<std::allocator<std::_List_node<QSVAllocatorD3D11::TextureResource,void *> > >::_Alloc_construct_ptr<std::allocator<std::_List_node<QSVAllocatorD3D11::TextureResource,void *> > >
PUBLIC	?_Allocate@?$_Alloc_construct_ptr@V?$allocator@U?$_List_node@UTextureResource@QSVAllocatorD3D11@@PEAX@std@@@std@@@std@@QEAAXXZ ; std::_Alloc_construct_ptr<std::allocator<std::_List_node<QSVAllocatorD3D11::TextureResource,void *> > >::_Allocate
PUBLIC	??1?$_Alloc_construct_ptr@V?$allocator@U?$_List_node@UTextureResource@QSVAllocatorD3D11@@PEAX@std@@@std@@@std@@QEAA@XZ ; std::_Alloc_construct_ptr<std::allocator<std::_List_node<QSVAllocatorD3D11::TextureResource,void *> > >::~_Alloc_construct_ptr<std::allocator<std::_List_node<QSVAllocatorD3D11::TextureResource,void *> > >
PUBLIC	??1?$_List_node_emplace_op2@V?$allocator@U?$_List_node@UTextureResource@QSVAllocatorD3D11@@PEAX@std@@@std@@@std@@QEAA@XZ ; std::_List_node_emplace_op2<std::allocator<std::_List_node<QSVAllocatorD3D11::TextureResource,void *> > >::~_List_node_emplace_op2<std::allocator<std::_List_node<QSVAllocatorD3D11::TextureResource,void *> > >
PUBLIC	?_Transfer_before@?$_List_node_emplace_op2@V?$allocator@U?$_List_node@UTextureResource@QSVAllocatorD3D11@@PEAX@std@@@std@@@std@@QEAAPEAU?$_List_node@UTextureResource@QSVAllocatorD3D11@@PEAX@2@QEAU32@@Z ; std::_List_node_emplace_op2<std::allocator<std::_List_node<QSVAllocatorD3D11::TextureResource,void *> > >::_Transfer_before
PUBLIC	??$forward@AEBUTextureResource@QSVAllocatorD3D11@@@std@@YAAEBUTextureResource@QSVAllocatorD3D11@@AEBU12@@Z ; std::forward<QSVAllocatorD3D11::TextureResource const &>
PUBLIC	??$?0AEBUTextureResource@QSVAllocatorD3D11@@@?$_List_node_emplace_op2@V?$allocator@U?$_List_node@UTextureResource@QSVAllocatorD3D11@@PEAX@std@@@std@@@std@@QEAA@AEAV?$allocator@U?$_List_node@UTextureResource@QSVAllocatorD3D11@@PEAX@std@@@1@AEBUTextureResource@QSVAllocatorD3D11@@@Z ; std::_List_node_emplace_op2<std::allocator<std::_List_node<QSVAllocatorD3D11::TextureResource,void *> > >::_List_node_emplace_op2<std::allocator<std::_List_node<QSVAllocatorD3D11::TextureResource,void *> > ><QSVAllocatorD3D11::TextureResource const &>
PUBLIC	??$forward@V?$allocator@PEAUID3D11Texture2D@@@std@@@std@@YA$$QEAV?$allocator@PEAUID3D11Texture2D@@@0@AEAV10@@Z ; std::forward<std::allocator<ID3D11Texture2D *> >
PUBLIC	??$_Uninitialized_copy@PEAPEAUID3D11Texture2D@@V?$allocator@PEAUID3D11Texture2D@@@std@@@std@@YAPEAPEAUID3D11Texture2D@@QEAPEAU1@0PEAPEAU1@AEAV?$allocator@PEAUID3D11Texture2D@@@0@@Z ; std::_Uninitialized_copy<ID3D11Texture2D * *,std::allocator<ID3D11Texture2D *> >
PUBLIC	??$forward@V?$allocator@PEAX@std@@@std@@YA$$QEAV?$allocator@PEAX@0@AEAV10@@Z ; std::forward<std::allocator<void *> >
PUBLIC	??$_Uninitialized_copy@PEAPEAXV?$allocator@PEAX@std@@@std@@YAPEAPEAXQEAPEAX0PEAPEAXAEAV?$allocator@PEAX@0@@Z ; std::_Uninitialized_copy<void * *,std::allocator<void *> >
PUBLIC	??$addressof@U_Container_proxy@std@@@std@@YAPEAU_Container_proxy@0@AEAU10@@Z ; std::addressof<std::_Container_proxy>
PUBLIC	??$forward@PEAU_Container_base12@std@@@std@@YA$$QEAPEAU_Container_base12@0@AEAPEAU10@@Z ; std::forward<std::_Container_base12 *>
PUBLIC	??$_Adl_verify_range@PEBU?$pair@$$CBIW4DXGI_FORMAT@@@std@@PEBU12@@std@@YAXAEBQEBU?$pair@$$CBIW4DXGI_FORMAT@@@0@0@Z ; std::_Adl_verify_range<std::pair<unsigned int const ,enum DXGI_FORMAT> const *,std::pair<unsigned int const ,enum DXGI_FORMAT> const *>
PUBLIC	??$_Get_unwrapped@$$CBU?$pair@$$CBIW4DXGI_FORMAT@@@std@@@std@@YAPEBU?$pair@$$CBIW4DXGI_FORMAT@@@0@QEBU10@@Z ; std::_Get_unwrapped<std::pair<unsigned int const ,enum DXGI_FORMAT> const >
PUBLIC	??$_Emplace_hint@AEBU?$pair@$$CBIW4DXGI_FORMAT@@@std@@@?$_Tree@V?$_Tmap_traits@IW4DXGI_FORMAT@@U?$less@I@std@@V?$allocator@U?$pair@$$CBIW4DXGI_FORMAT@@@std@@@3@$0A@@std@@@std@@IEAAPEAU?$_Tree_node@U?$pair@$$CBIW4DXGI_FORMAT@@@std@@PEAX@1@QEAU21@AEBU?$pair@$$CBIW4DXGI_FORMAT@@@1@@Z ; std::_Tree<std::_Tmap_traits<unsigned int,enum DXGI_FORMAT,std::less<unsigned int>,std::allocator<std::pair<unsigned int const ,enum DXGI_FORMAT> >,0> >::_Emplace_hint<std::pair<unsigned int const ,enum DXGI_FORMAT> const &>
PUBLIC	??$forward@AEBU?$less@I@std@@@std@@YAAEBU?$less@I@0@AEBU10@@Z ; std::forward<std::less<unsigned int> const &>
PUBLIC	??$forward@U_Zero_then_variadic_args_t@std@@@std@@YA$$QEAU_Zero_then_variadic_args_t@0@AEAU10@@Z ; std::forward<std::_Zero_then_variadic_args_t>
PUBLIC	??$_Unfancy@V?$_List_iterator@V?$_List_val@U?$_List_simple_types@UTextureResource@QSVAllocatorD3D11@@@std@@@std@@@std@@@std@@YAPEAV?$_List_iterator@V?$_List_val@U?$_List_simple_types@UTextureResource@QSVAllocatorD3D11@@@std@@@std@@@0@PEAV10@@Z ; std::_Unfancy<std::_List_iterator<std::_List_val<std::_List_simple_types<QSVAllocatorD3D11::TextureResource> > > >
PUBLIC	??$destroy@V?$_List_iterator@V?$_List_val@U?$_List_simple_types@UTextureResource@QSVAllocatorD3D11@@@std@@@std@@@std@@@?$_Default_allocator_traits@V?$allocator@V?$_List_iterator@V?$_List_val@U?$_List_simple_types@UTextureResource@QSVAllocatorD3D11@@@std@@@std@@@std@@@std@@@std@@SAXAEAV?$allocator@V?$_List_iterator@V?$_List_val@U?$_List_simple_types@UTextureResource@QSVAllocatorD3D11@@@std@@@std@@@std@@@1@QEAV?$_List_iterator@V?$_List_val@U?$_List_simple_types@UTextureResource@QSVAllocatorD3D11@@@std@@@std@@@1@@Z ; std::_Default_allocator_traits<std::allocator<std::_List_iterator<std::_List_val<std::_List_simple_types<QSVAllocatorD3D11::TextureResource> > > > >::destroy<std::_List_iterator<std::_List_val<std::_List_simple_types<QSVAllocatorD3D11::TextureResource> > > >
PUBLIC	??$addressof@PEAU?$_List_node@UTextureResource@QSVAllocatorD3D11@@PEAX@std@@@std@@YAPEAPEAU?$_List_node@UTextureResource@QSVAllocatorD3D11@@PEAX@0@AEAPEAU10@@Z ; std::addressof<std::_List_node<QSVAllocatorD3D11::TextureResource,void *> *>
PUBLIC	??$forward@AEAPEAU?$_List_node@UTextureResource@QSVAllocatorD3D11@@PEAX@std@@@std@@YAAEAPEAU?$_List_node@UTextureResource@QSVAllocatorD3D11@@PEAX@0@AEAPEAU10@@Z ; std::forward<std::_List_node<QSVAllocatorD3D11::TextureResource,void *> * &>
PUBLIC	??$_Destroy_in_place@PEAU?$_List_node@UTextureResource@QSVAllocatorD3D11@@PEAX@std@@@std@@YAXAEAPEAU?$_List_node@UTextureResource@QSVAllocatorD3D11@@PEAX@0@@Z ; std::_Destroy_in_place<std::_List_node<QSVAllocatorD3D11::TextureResource,void *> *>
PUBLIC	??$_Allocate_manually_vector_aligned@U_Default_allocate_traits@std@@@std@@YAPEAX_K@Z ; std::_Allocate_manually_vector_aligned<std::_Default_allocate_traits>
PUBLIC	??$_Construct_in_place@PEAU?$_Tree_node@U?$pair@$$CBIW4DXGI_FORMAT@@@std@@PEAX@std@@AEBQEAU12@@std@@YAXAEAPEAU?$_Tree_node@U?$pair@$$CBIW4DXGI_FORMAT@@@std@@PEAX@0@AEBQEAU10@@Z ; std::_Construct_in_place<std::_Tree_node<std::pair<unsigned int const ,enum DXGI_FORMAT>,void *> *,std::_Tree_node<std::pair<unsigned int const ,enum DXGI_FORMAT>,void *> * const &>
PUBLIC	??$move@AEAPEAVRGYLog@@@std@@YA$$QEAPEAVRGYLog@@AEAPEAV1@@Z ; std::move<RGYLog * &>
PUBLIC	??$move@AEAPEAV_Ref_count_base@std@@@std@@YA$$QEAPEAV_Ref_count_base@0@AEAPEAV10@@Z ; std::move<std::_Ref_count_base * &>
PUBLIC	??$_Construct_in_place@PEAU?$_List_node@UTextureResource@QSVAllocatorD3D11@@PEAX@std@@AEBQEAU12@@std@@YAXAEAPEAU?$_List_node@UTextureResource@QSVAllocatorD3D11@@PEAX@0@AEBQEAU10@@Z ; std::_Construct_in_place<std::_List_node<QSVAllocatorD3D11::TextureResource,void *> *,std::_List_node<QSVAllocatorD3D11::TextureResource,void *> * const &>
PUBLIC	??$addressof@UTextureResource@QSVAllocatorD3D11@@@std@@YAPEAUTextureResource@QSVAllocatorD3D11@@AEAU12@@Z ; std::addressof<QSVAllocatorD3D11::TextureResource>
PUBLIC	??$destroy@UTextureResource@QSVAllocatorD3D11@@@?$_Default_allocator_traits@V?$allocator@U?$_List_node@UTextureResource@QSVAllocatorD3D11@@PEAX@std@@@std@@@std@@SAXAEAV?$allocator@U?$_List_node@UTextureResource@QSVAllocatorD3D11@@PEAX@std@@@1@QEAUTextureResource@QSVAllocatorD3D11@@@Z ; std::_Default_allocator_traits<std::allocator<std::_List_node<QSVAllocatorD3D11::TextureResource,void *> > >::destroy<QSVAllocatorD3D11::TextureResource>
PUBLIC	??$addressof@V?$vector@V?$_List_iterator@V?$_List_val@U?$_List_simple_types@UTextureResource@QSVAllocatorD3D11@@@std@@@std@@@std@@V?$allocator@V?$_List_iterator@V?$_List_val@U?$_List_simple_types@UTextureResource@QSVAllocatorD3D11@@@std@@@std@@@std@@@2@@std@@@std@@YAPEAV?$vector@V?$_List_iterator@V?$_List_val@U?$_List_simple_types@UTextureResource@QSVAllocatorD3D11@@@std@@@std@@@std@@V?$allocator@V?$_List_iterator@V?$_List_val@U?$_List_simple_types@UTextureResource@QSVAllocatorD3D11@@@std@@@std@@@std@@@2@@0@AEAV10@@Z ; std::addressof<std::vector<std::_List_iterator<std::_List_val<std::_List_simple_types<QSVAllocatorD3D11::TextureResource> > >,std::allocator<std::_List_iterator<std::_List_val<std::_List_simple_types<QSVAllocatorD3D11::TextureResource> > > > > >
PUBLIC	??$move@AEAPEAX@std@@YA$$QEAPEAXAEAPEAX@Z	; std::move<void * &>
PUBLIC	??$addressof@V?$vector@PEAXV?$allocator@PEAX@std@@@std@@@std@@YAPEAV?$vector@PEAXV?$allocator@PEAX@std@@@0@AEAV10@@Z ; std::addressof<std::vector<void *,std::allocator<void *> > >
PUBLIC	??$_Get_size_of_n@$0CI@@std@@YA_K_K@Z		; std::_Get_size_of_n<40>
PUBLIC	??$_Uninitialized_move@PEAPEAUID3D11Texture2D@@V?$allocator@PEAUID3D11Texture2D@@@std@@@std@@YAPEAPEAUID3D11Texture2D@@QEAPEAU1@0PEAPEAU1@AEAV?$allocator@PEAUID3D11Texture2D@@@0@@Z ; std::_Uninitialized_move<ID3D11Texture2D * *,std::allocator<ID3D11Texture2D *> >
PUBLIC	??$emplace_back@AEBV?$_List_iterator@V?$_List_val@U?$_List_simple_types@UTextureResource@QSVAllocatorD3D11@@@std@@@std@@@std@@@?$vector@V?$_List_iterator@V?$_List_val@U?$_List_simple_types@UTextureResource@QSVAllocatorD3D11@@@std@@@std@@@std@@V?$allocator@V?$_List_iterator@V?$_List_val@U?$_List_simple_types@UTextureResource@QSVAllocatorD3D11@@@std@@@std@@@std@@@2@@std@@QEAAXAEBV?$_List_iterator@V?$_List_val@U?$_List_simple_types@UTextureResource@QSVAllocatorD3D11@@@std@@@std@@@1@@Z ; std::vector<std::_List_iterator<std::_List_val<std::_List_simple_types<QSVAllocatorD3D11::TextureResource> > >,std::allocator<std::_List_iterator<std::_List_val<std::_List_simple_types<QSVAllocatorD3D11::TextureResource> > > > >::emplace_back<std::_List_iterator<std::_List_val<std::_List_simple_types<QSVAllocatorD3D11::TextureResource> > > const &>
PUBLIC	??$forward@AEBV?$_List_iterator@V?$_List_val@U?$_List_simple_types@UTextureResource@QSVAllocatorD3D11@@@std@@@std@@@std@@@std@@YAAEBV?$_List_iterator@V?$_List_val@U?$_List_simple_types@UTextureResource@QSVAllocatorD3D11@@@std@@@std@@@0@AEBV10@@Z ; std::forward<std::_List_iterator<std::_List_val<std::_List_simple_types<QSVAllocatorD3D11::TextureResource> > > const &>
PUBLIC	??$_Emplace_back_with_unused_capacity@AEBV?$_List_iterator@V?$_List_val@U?$_List_simple_types@UTextureResource@QSVAllocatorD3D11@@@std@@@std@@@std@@@?$vector@V?$_List_iterator@V?$_List_val@U?$_List_simple_types@UTextureResource@QSVAllocatorD3D11@@@std@@@std@@@std@@V?$allocator@V?$_List_iterator@V?$_List_val@U?$_List_simple_types@UTextureResource@QSVAllocatorD3D11@@@std@@@std@@@std@@@2@@std@@AEAAXAEBV?$_List_iterator@V?$_List_val@U?$_List_simple_types@UTextureResource@QSVAllocatorD3D11@@@std@@@std@@@1@@Z ; std::vector<std::_List_iterator<std::_List_val<std::_List_simple_types<QSVAllocatorD3D11::TextureResource> > >,std::allocator<std::_List_iterator<std::_List_val<std::_List_simple_types<QSVAllocatorD3D11::TextureResource> > > > >::_Emplace_back_with_unused_capacity<std::_List_iterator<std::_List_val<std::_List_simple_types<QSVAllocatorD3D11::TextureResource> > > const &>
PUBLIC	??$construct@V?$_List_iterator@V?$_List_val@U?$_List_simple_types@UTextureResource@QSVAllocatorD3D11@@@std@@@std@@@std@@AEBV12@@?$_Default_allocator_traits@V?$allocator@V?$_List_iterator@V?$_List_val@U?$_List_simple_types@UTextureResource@QSVAllocatorD3D11@@@std@@@std@@@std@@@std@@@std@@SAXAEAV?$allocator@V?$_List_iterator@V?$_List_val@U?$_List_simple_types@UTextureResource@QSVAllocatorD3D11@@@std@@@std@@@std@@@1@QEAV?$_List_iterator@V?$_List_val@U?$_List_simple_types@UTextureResource@QSVAllocatorD3D11@@@std@@@std@@@1@AEBV31@@Z ; std::_Default_allocator_traits<std::allocator<std::_List_iterator<std::_List_val<std::_List_simple_types<QSVAllocatorD3D11::TextureResource> > > > >::construct<std::_List_iterator<std::_List_val<std::_List_simple_types<QSVAllocatorD3D11::TextureResource> > >,std::_List_iterator<std::_List_val<std::_List_simple_types<QSVAllocatorD3D11::TextureResource> > > const &>
PUBLIC	??$_Emplace_reallocate@AEBV?$_List_iterator@V?$_List_val@U?$_List_simple_types@UTextureResource@QSVAllocatorD3D11@@@std@@@std@@@std@@@?$vector@V?$_List_iterator@V?$_List_val@U?$_List_simple_types@UTextureResource@QSVAllocatorD3D11@@@std@@@std@@@std@@V?$allocator@V?$_List_iterator@V?$_List_val@U?$_List_simple_types@UTextureResource@QSVAllocatorD3D11@@@std@@@std@@@std@@@2@@std@@QEAAPEAV?$_List_iterator@V?$_List_val@U?$_List_simple_types@UTextureResource@QSVAllocatorD3D11@@@std@@@std@@@1@QEAV21@AEBV21@@Z ; std::vector<std::_List_iterator<std::_List_val<std::_List_simple_types<QSVAllocatorD3D11::TextureResource> > >,std::allocator<std::_List_iterator<std::_List_val<std::_List_simple_types<QSVAllocatorD3D11::TextureResource> > > > >::_Emplace_reallocate<std::_List_iterator<std::_List_val<std::_List_simple_types<QSVAllocatorD3D11::TextureResource> > > const &>
PUBLIC	??$emplace_back@PEAX@?$vector@PEAXV?$allocator@PEAX@std@@@std@@QEAAX$$QEAPEAX@Z ; std::vector<void *,std::allocator<void *> >::emplace_back<void *>
PUBLIC	??$forward@PEAX@std@@YA$$QEAPEAXAEAPEAX@Z	; std::forward<void *>
PUBLIC	??$_Emplace_back_with_unused_capacity@PEAX@?$vector@PEAXV?$allocator@PEAX@std@@@std@@AEAAX$$QEAPEAX@Z ; std::vector<void *,std::allocator<void *> >::_Emplace_back_with_unused_capacity<void *>
PUBLIC	??$_Unfancy@PEAX@std@@YAPEAPEAXPEAPEAX@Z	; std::_Unfancy<void *>
PUBLIC	??$construct@PEAXPEAX@?$_Default_allocator_traits@V?$allocator@PEAX@std@@@std@@SAXAEAV?$allocator@PEAX@1@QEAPEAX$$QEAPEAX@Z ; std::_Default_allocator_traits<std::allocator<void *> >::construct<void *,void *>
PUBLIC	??$_Emplace_reallocate@PEAX@?$vector@PEAXV?$allocator@PEAX@std@@@std@@QEAAPEAPEAXQEAPEAX$$QEAPEAX@Z ; std::vector<void *,std::allocator<void *> >::_Emplace_reallocate<void *>
PUBLIC	??$_Verify_range@W4DXGI_FORMAT@@$0L@@std@@YAXAEBV?$_Array_const_iterator@W4DXGI_FORMAT@@$0L@@0@0@Z ; std::_Verify_range<enum DXGI_FORMAT,11>
PUBLIC	??$_Find_unchecked1@PEBW4DXGI_FORMAT@@W41@@std@@YAPEBW4DXGI_FORMAT@@PEBW41@QEBW41@AEBW41@U?$integral_constant@_N$0A@@0@@Z ; std::_Find_unchecked1<enum DXGI_FORMAT const *,enum DXGI_FORMAT>
PUBLIC	??$exchange@PEAU?$_Tree_node@U?$pair@$$CBIW4DXGI_FORMAT@@@std@@PEAX@std@@AEAPEAU12@@std@@YAPEAU?$_Tree_node@U?$pair@$$CBIW4DXGI_FORMAT@@@std@@PEAX@0@AEAPEAU10@0@Z ; std::exchange<std::_Tree_node<std::pair<unsigned int const ,enum DXGI_FORMAT>,void *> *,std::_Tree_node<std::pair<unsigned int const ,enum DXGI_FORMAT>,void *> * &>
PUBLIC	??$_Freenode@V?$allocator@U?$_Tree_node@U?$pair@$$CBIW4DXGI_FORMAT@@@std@@PEAX@std@@@std@@@?$_Tree_node@U?$pair@$$CBIW4DXGI_FORMAT@@@std@@PEAX@std@@SAXAEAV?$allocator@U?$_Tree_node@U?$pair@$$CBIW4DXGI_FORMAT@@@std@@PEAX@std@@@1@PEAU01@@Z ; std::_Tree_node<std::pair<unsigned int const ,enum DXGI_FORMAT>,void *>::_Freenode<std::allocator<std::_Tree_node<std::pair<unsigned int const ,enum DXGI_FORMAT>,void *> > >
PUBLIC	??$_Destroy_in_place@PEAU?$_Tree_node@U?$pair@$$CBIW4DXGI_FORMAT@@@std@@PEAX@std@@@std@@YAXAEAPEAU?$_Tree_node@U?$pair@$$CBIW4DXGI_FORMAT@@@std@@PEAX@0@@Z ; std::_Destroy_in_place<std::_Tree_node<std::pair<unsigned int const ,enum DXGI_FORMAT>,void *> *>
PUBLIC	?deallocate@?$_Default_allocator_traits@V?$allocator@U_Container_proxy@std@@@std@@@std@@SAXAEAV?$allocator@U_Container_proxy@std@@@2@QEAU_Container_proxy@2@_K@Z ; std::_Default_allocator_traits<std::allocator<std::_Container_proxy> >::deallocate
PUBLIC	??$construct@UTextureResource@QSVAllocatorD3D11@@AEBU12@@?$_Default_allocator_traits@V?$allocator@U?$_List_node@UTextureResource@QSVAllocatorD3D11@@PEAX@std@@@std@@@std@@SAXAEAV?$allocator@U?$_List_node@UTextureResource@QSVAllocatorD3D11@@PEAX@std@@@1@QEAUTextureResource@QSVAllocatorD3D11@@AEBU34@@Z ; std::_Default_allocator_traits<std::allocator<std::_List_node<QSVAllocatorD3D11::TextureResource,void *> > >::construct<QSVAllocatorD3D11::TextureResource,QSVAllocatorD3D11::TextureResource const &>
PUBLIC	??$_Get_unwrapped@PEAUID3D11Texture2D@@@std@@YAPEAPEAUID3D11Texture2D@@QEAPEAU1@@Z ; std::_Get_unwrapped<ID3D11Texture2D *>
PUBLIC	??$_Copy_memmove@PEAPEAUID3D11Texture2D@@PEAPEAU1@@std@@YAPEAPEAUID3D11Texture2D@@PEAPEAU1@00@Z ; std::_Copy_memmove<ID3D11Texture2D * *,ID3D11Texture2D * *>
PUBLIC	??$_Get_unwrapped@PEAX@std@@YAPEAPEAXQEAPEAX@Z	; std::_Get_unwrapped<void *>
PUBLIC	??$_Copy_memmove@PEAPEAXPEAPEAX@std@@YAPEAPEAXPEAPEAX00@Z ; std::_Copy_memmove<void * *,void * *>
PUBLIC	??$_Verify_range@U?$pair@$$CBIW4DXGI_FORMAT@@@std@@@std@@YAXQEBU?$pair@$$CBIW4DXGI_FORMAT@@@0@0@Z ; std::_Verify_range<std::pair<unsigned int const ,enum DXGI_FORMAT> >
PUBLIC	?_Extract@?$_In_place_key_extract_map@IU?$pair@$$CBIW4DXGI_FORMAT@@@std@@@std@@SAAEBIAEBU?$pair@$$CBIW4DXGI_FORMAT@@@2@@Z ; std::_In_place_key_extract_map<unsigned int,std::pair<unsigned int const ,enum DXGI_FORMAT> >::_Extract
PUBLIC	??$_Find_hint@I@?$_Tree@V?$_Tmap_traits@IW4DXGI_FORMAT@@U?$less@I@std@@V?$allocator@U?$pair@$$CBIW4DXGI_FORMAT@@@std@@@3@$0A@@std@@@std@@IEBA?AU?$_Tree_find_hint_result@PEAU?$_Tree_node@U?$pair@$$CBIW4DXGI_FORMAT@@@std@@PEAX@std@@@1@QEAU?$_Tree_node@U?$pair@$$CBIW4DXGI_FORMAT@@@std@@PEAX@1@AEBI@Z ; std::_Tree<std::_Tmap_traits<unsigned int,enum DXGI_FORMAT,std::less<unsigned int>,std::allocator<std::pair<unsigned int const ,enum DXGI_FORMAT> >,0> >::_Find_hint<unsigned int>
PUBLIC	??$forward@AEBU?$pair@$$CBIW4DXGI_FORMAT@@@std@@@std@@YAAEBU?$pair@$$CBIW4DXGI_FORMAT@@@0@AEBU10@@Z ; std::forward<std::pair<unsigned int const ,enum DXGI_FORMAT> const &>
PUBLIC	??0?$_Alloc_construct_ptr@V?$allocator@U?$_Tree_node@U?$pair@$$CBIW4DXGI_FORMAT@@@std@@PEAX@std@@@std@@@std@@QEAA@AEAV?$allocator@U?$_Tree_node@U?$pair@$$CBIW4DXGI_FORMAT@@@std@@PEAX@std@@@1@@Z ; std::_Alloc_construct_ptr<std::allocator<std::_Tree_node<std::pair<unsigned int const ,enum DXGI_FORMAT>,void *> > >::_Alloc_construct_ptr<std::allocator<std::_Tree_node<std::pair<unsigned int const ,enum DXGI_FORMAT>,void *> > >
PUBLIC	?_Release@?$_Alloc_construct_ptr@V?$allocator@U?$_Tree_node@U?$pair@$$CBIW4DXGI_FORMAT@@@std@@PEAX@std@@@std@@@std@@QEAAPEAU?$_Tree_node@U?$pair@$$CBIW4DXGI_FORMAT@@@std@@PEAX@2@XZ ; std::_Alloc_construct_ptr<std::allocator<std::_Tree_node<std::pair<unsigned int const ,enum DXGI_FORMAT>,void *> > >::_Release
PUBLIC	?_Allocate@?$_Alloc_construct_ptr@V?$allocator@U?$_Tree_node@U?$pair@$$CBIW4DXGI_FORMAT@@@std@@PEAX@std@@@std@@@std@@QEAAXXZ ; std::_Alloc_construct_ptr<std::allocator<std::_Tree_node<std::pair<unsigned int const ,enum DXGI_FORMAT>,void *> > >::_Allocate
PUBLIC	??1?$_Alloc_construct_ptr@V?$allocator@U?$_Tree_node@U?$pair@$$CBIW4DXGI_FORMAT@@@std@@PEAX@std@@@std@@@std@@QEAA@XZ ; std::_Alloc_construct_ptr<std::allocator<std::_Tree_node<std::pair<unsigned int const ,enum DXGI_FORMAT>,void *> > >::~_Alloc_construct_ptr<std::allocator<std::_Tree_node<std::pair<unsigned int const ,enum DXGI_FORMAT>,void *> > >
PUBLIC	??0?$_Tree_temp_node_alloc@V?$allocator@U?$_Tree_node@U?$pair@$$CBIW4DXGI_FORMAT@@@std@@PEAX@std@@@std@@@std@@QEAA@AEAV?$allocator@U?$_Tree_node@U?$pair@$$CBIW4DXGI_FORMAT@@@std@@PEAX@std@@@1@@Z ; std::_Tree_temp_node_alloc<std::allocator<std::_Tree_node<std::pair<unsigned int const ,enum DXGI_FORMAT>,void *> > >::_Tree_temp_node_alloc<std::allocator<std::_Tree_node<std::pair<unsigned int const ,enum DXGI_FORMAT>,void *> > >
PUBLIC	??1?$_Tree_temp_node_alloc@V?$allocator@U?$_Tree_node@U?$pair@$$CBIW4DXGI_FORMAT@@@std@@PEAX@std@@@std@@@std@@QEAA@XZ ; std::_Tree_temp_node_alloc<std::allocator<std::_Tree_node<std::pair<unsigned int const ,enum DXGI_FORMAT>,void *> > >::~_Tree_temp_node_alloc<std::allocator<std::_Tree_node<std::pair<unsigned int const ,enum DXGI_FORMAT>,void *> > >
PUBLIC	??1?$_Tree_temp_node@V?$allocator@U?$_Tree_node@U?$pair@$$CBIW4DXGI_FORMAT@@@std@@PEAX@std@@@std@@@std@@QEAA@XZ ; std::_Tree_temp_node<std::allocator<std::_Tree_node<std::pair<unsigned int const ,enum DXGI_FORMAT>,void *> > >::~_Tree_temp_node<std::allocator<std::_Tree_node<std::pair<unsigned int const ,enum DXGI_FORMAT>,void *> > >
PUBLIC	??$?0AEBU?$pair@$$CBIW4DXGI_FORMAT@@@std@@@?$_Tree_temp_node@V?$allocator@U?$_Tree_node@U?$pair@$$CBIW4DXGI_FORMAT@@@std@@PEAX@std@@@std@@@std@@QEAA@AEAV?$allocator@U?$_Tree_node@U?$pair@$$CBIW4DXGI_FORMAT@@@std@@PEAX@std@@@1@PEAU?$_Tree_node@U?$pair@$$CBIW4DXGI_FORMAT@@@std@@PEAX@1@AEBU?$pair@$$CBIW4DXGI_FORMAT@@@1@@Z ; std::_Tree_temp_node<std::allocator<std::_Tree_node<std::pair<unsigned int const ,enum DXGI_FORMAT>,void *> > >::_Tree_temp_node<std::allocator<std::_Tree_node<std::pair<unsigned int const ,enum DXGI_FORMAT>,void *> > ><std::pair<unsigned int const ,enum DXGI_FORMAT> const &>
PUBLIC	??$addressof@PEAU?$_Tree_node@U?$pair@$$CBIW4DXGI_FORMAT@@@std@@PEAX@std@@@std@@YAPEAPEAU?$_Tree_node@U?$pair@$$CBIW4DXGI_FORMAT@@@std@@PEAX@0@AEAPEAU10@@Z ; std::addressof<std::_Tree_node<std::pair<unsigned int const ,enum DXGI_FORMAT>,void *> *>
PUBLIC	??$forward@AEBQEAU?$_Tree_node@U?$pair@$$CBIW4DXGI_FORMAT@@@std@@PEAX@std@@@std@@YAAEBQEAU?$_Tree_node@U?$pair@$$CBIW4DXGI_FORMAT@@@std@@PEAX@0@AEBQEAU10@@Z ; std::forward<std::_Tree_node<std::pair<unsigned int const ,enum DXGI_FORMAT>,void *> * const &>
PUBLIC	??$forward@AEBQEAU?$_List_node@UTextureResource@QSVAllocatorD3D11@@PEAX@std@@@std@@YAAEBQEAU?$_List_node@UTextureResource@QSVAllocatorD3D11@@PEAX@0@AEBQEAU10@@Z ; std::forward<std::_List_node<QSVAllocatorD3D11::TextureResource,void *> * const &>
PUBLIC	??$addressof@U?$pair@$$CBIW4DXGI_FORMAT@@@std@@@std@@YAPEAU?$pair@$$CBIW4DXGI_FORMAT@@@0@AEAU10@@Z ; std::addressof<std::pair<unsigned int const ,enum DXGI_FORMAT> >
PUBLIC	??$destroy@U?$pair@$$CBIW4DXGI_FORMAT@@@std@@@?$_Default_allocator_traits@V?$allocator@U?$_Tree_node@U?$pair@$$CBIW4DXGI_FORMAT@@@std@@PEAX@std@@@std@@@std@@SAXAEAV?$allocator@U?$_Tree_node@U?$pair@$$CBIW4DXGI_FORMAT@@@std@@PEAX@std@@@1@QEAU?$pair@$$CBIW4DXGI_FORMAT@@@1@@Z ; std::_Default_allocator_traits<std::allocator<std::_Tree_node<std::pair<unsigned int const ,enum DXGI_FORMAT>,void *> > >::destroy<std::pair<unsigned int const ,enum DXGI_FORMAT> >
PUBLIC	??$exchange@PEAU?$_Tree_node@U?$pair@$$CBIW4DXGI_FORMAT@@@std@@PEAX@std@@$$T@std@@YAPEAU?$_Tree_node@U?$pair@$$CBIW4DXGI_FORMAT@@@std@@PEAX@0@AEAPEAU10@$$QEA$$T@Z ; std::exchange<std::_Tree_node<std::pair<unsigned int const ,enum DXGI_FORMAT>,void *> *,std::nullptr_t>
PUBLIC	??$_Uninitialized_move@PEAV?$_List_iterator@V?$_List_val@U?$_List_simple_types@UTextureResource@QSVAllocatorD3D11@@@std@@@std@@@std@@V?$allocator@V?$_List_iterator@V?$_List_val@U?$_List_simple_types@UTextureResource@QSVAllocatorD3D11@@@std@@@std@@@std@@@2@@std@@YAPEAV?$_List_iterator@V?$_List_val@U?$_List_simple_types@UTextureResource@QSVAllocatorD3D11@@@std@@@std@@@0@QEAV10@0PEAV10@AEAV?$allocator@V?$_List_iterator@V?$_List_val@U?$_List_simple_types@UTextureResource@QSVAllocatorD3D11@@@std@@@std@@@std@@@0@@Z ; std::_Uninitialized_move<std::_List_iterator<std::_List_val<std::_List_simple_types<QSVAllocatorD3D11::TextureResource> > > *,std::allocator<std::_List_iterator<std::_List_val<std::_List_simple_types<QSVAllocatorD3D11::TextureResource> > > > >
PUBLIC	??$_Get_size_of_n@$0BI@@std@@YA_K_K@Z		; std::_Get_size_of_n<24>
PUBLIC	??$_Uninitialized_move@PEAPEAXV?$allocator@PEAX@std@@@std@@YAPEAPEAXQEAPEAX0PEAPEAXAEAV?$allocator@PEAX@0@@Z ; std::_Uninitialized_move<void * *,std::allocator<void *> >
PUBLIC	??0?$_Tree_unchecked_const_iterator@V?$_Tree_val@U?$_Tree_simple_types@U?$pair@$$CBIW4DXGI_FORMAT@@@std@@@std@@@std@@U_Iterator_base0@2@@std@@QEAA@PEAU?$_Tree_node@U?$pair@$$CBIW4DXGI_FORMAT@@@std@@PEAX@1@PEBV?$_Tree_val@U?$_Tree_simple_types@U?$pair@$$CBIW4DXGI_FORMAT@@@std@@@std@@@1@@Z ; std::_Tree_unchecked_const_iterator<std::_Tree_val<std::_Tree_simple_types<std::pair<unsigned int const ,enum DXGI_FORMAT> > >,std::_Iterator_base0>::_Tree_unchecked_const_iterator<std::_Tree_val<std::_Tree_simple_types<std::pair<unsigned int const ,enum DXGI_FORMAT> > >,std::_Iterator_base0>
PUBLIC	??E?$_Tree_unchecked_const_iterator@V?$_Tree_val@U?$_Tree_simple_types@U?$pair@$$CBIW4DXGI_FORMAT@@@std@@@std@@@std@@U_Iterator_base0@2@@std@@QEAAAEAV01@XZ ; std::_Tree_unchecked_const_iterator<std::_Tree_val<std::_Tree_simple_types<std::pair<unsigned int const ,enum DXGI_FORMAT> > >,std::_Iterator_base0>::operator++
PUBLIC	??F?$_Tree_unchecked_const_iterator@V?$_Tree_val@U?$_Tree_simple_types@U?$pair@$$CBIW4DXGI_FORMAT@@@std@@@std@@@std@@U_Iterator_base0@2@@std@@QEAAAEAV01@XZ ; std::_Tree_unchecked_const_iterator<std::_Tree_val<std::_Tree_simple_types<std::pair<unsigned int const ,enum DXGI_FORMAT> > >,std::_Iterator_base0>::operator--
PUBLIC	??$construct@U?$pair@$$CBIW4DXGI_FORMAT@@@std@@AEBU12@@?$_Default_allocator_traits@V?$allocator@U?$_Tree_node@U?$pair@$$CBIW4DXGI_FORMAT@@@std@@PEAX@std@@@std@@@std@@SAXAEAV?$allocator@U?$_Tree_node@U?$pair@$$CBIW4DXGI_FORMAT@@@std@@PEAX@std@@@1@QEAU?$pair@$$CBIW4DXGI_FORMAT@@@1@AEBU31@@Z ; std::_Default_allocator_traits<std::allocator<std::_Tree_node<std::pair<unsigned int const ,enum DXGI_FORMAT>,void *> > >::construct<std::pair<unsigned int const ,enum DXGI_FORMAT>,std::pair<unsigned int const ,enum DXGI_FORMAT> const &>
PUBLIC	??$_Construct_in_place@PEAU?$_Tree_node@U?$pair@$$CBIW4DXGI_FORMAT@@@std@@PEAX@std@@AEAPEAU12@@std@@YAXAEAPEAU?$_Tree_node@U?$pair@$$CBIW4DXGI_FORMAT@@@std@@PEAX@0@0@Z ; std::_Construct_in_place<std::_Tree_node<std::pair<unsigned int const ,enum DXGI_FORMAT>,void *> *,std::_Tree_node<std::pair<unsigned int const ,enum DXGI_FORMAT>,void *> * &>
PUBLIC	??$_Get_unwrapped@V?$_List_iterator@V?$_List_val@U?$_List_simple_types@UTextureResource@QSVAllocatorD3D11@@@std@@@std@@@std@@@std@@YAPEAV?$_List_iterator@V?$_List_val@U?$_List_simple_types@UTextureResource@QSVAllocatorD3D11@@@std@@@std@@@0@QEAV10@@Z ; std::_Get_unwrapped<std::_List_iterator<std::_List_val<std::_List_simple_types<QSVAllocatorD3D11::TextureResource> > > >
PUBLIC	??$move@AEAV?$_List_iterator@V?$_List_val@U?$_List_simple_types@UTextureResource@QSVAllocatorD3D11@@@std@@@std@@@std@@@std@@YA$$QEAV?$_List_iterator@V?$_List_val@U?$_List_simple_types@UTextureResource@QSVAllocatorD3D11@@@std@@@std@@@0@AEAV10@@Z ; std::move<std::_List_iterator<std::_List_val<std::_List_simple_types<QSVAllocatorD3D11::TextureResource> > > &>
PUBLIC	??0?$_Uninitialized_backout_al@V?$allocator@V?$_List_iterator@V?$_List_val@U?$_List_simple_types@UTextureResource@QSVAllocatorD3D11@@@std@@@std@@@std@@@std@@@std@@QEAA@PEAV?$_List_iterator@V?$_List_val@U?$_List_simple_types@UTextureResource@QSVAllocatorD3D11@@@std@@@std@@@1@AEAV?$allocator@V?$_List_iterator@V?$_List_val@U?$_List_simple_types@UTextureResource@QSVAllocatorD3D11@@@std@@@std@@@std@@@1@@Z ; std::_Uninitialized_backout_al<std::allocator<std::_List_iterator<std::_List_val<std::_List_simple_types<QSVAllocatorD3D11::TextureResource> > > > >::_Uninitialized_backout_al<std::allocator<std::_List_iterator<std::_List_val<std::_List_simple_types<QSVAllocatorD3D11::TextureResource> > > > >
PUBLIC	??1?$_Uninitialized_backout_al@V?$allocator@V?$_List_iterator@V?$_List_val@U?$_List_simple_types@UTextureResource@QSVAllocatorD3D11@@@std@@@std@@@std@@@std@@@std@@QEAA@XZ ; std::_Uninitialized_backout_al<std::allocator<std::_List_iterator<std::_List_val<std::_List_simple_types<QSVAllocatorD3D11::TextureResource> > > > >::~_Uninitialized_backout_al<std::allocator<std::_List_iterator<std::_List_val<std::_List_simple_types<QSVAllocatorD3D11::TextureResource> > > > >
PUBLIC	?_Release@?$_Uninitialized_backout_al@V?$allocator@V?$_List_iterator@V?$_List_val@U?$_List_simple_types@UTextureResource@QSVAllocatorD3D11@@@std@@@std@@@std@@@std@@@std@@QEAAPEAV?$_List_iterator@V?$_List_val@U?$_List_simple_types@UTextureResource@QSVAllocatorD3D11@@@std@@@std@@@2@XZ ; std::_Uninitialized_backout_al<std::allocator<std::_List_iterator<std::_List_val<std::_List_simple_types<QSVAllocatorD3D11::TextureResource> > > > >::_Release
PUBLIC	??$_Emplace_back@V?$_List_iterator@V?$_List_val@U?$_List_simple_types@UTextureResource@QSVAllocatorD3D11@@@std@@@std@@@std@@@?$_Uninitialized_backout_al@V?$allocator@V?$_List_iterator@V?$_List_val@U?$_List_simple_types@UTextureResource@QSVAllocatorD3D11@@@std@@@std@@@std@@@std@@@std@@QEAAX$$QEAV?$_List_iterator@V?$_List_val@U?$_List_simple_types@UTextureResource@QSVAllocatorD3D11@@@std@@@std@@@1@@Z ; std::_Uninitialized_backout_al<std::allocator<std::_List_iterator<std::_List_val<std::_List_simple_types<QSVAllocatorD3D11::TextureResource> > > > >::_Emplace_back<std::_List_iterator<std::_List_val<std::_List_simple_types<QSVAllocatorD3D11::TextureResource> > > >
PUBLIC	??$forward@AEAPEAU?$_Tree_node@U?$pair@$$CBIW4DXGI_FORMAT@@@std@@PEAX@std@@@std@@YAAEAPEAU?$_Tree_node@U?$pair@$$CBIW4DXGI_FORMAT@@@std@@PEAX@0@AEAPEAU10@@Z ; std::forward<std::_Tree_node<std::pair<unsigned int const ,enum DXGI_FORMAT>,void *> * &>
PUBLIC	??$forward@V?$_List_iterator@V?$_List_val@U?$_List_simple_types@UTextureResource@QSVAllocatorD3D11@@@std@@@std@@@std@@@std@@YA$$QEAV?$_List_iterator@V?$_List_val@U?$_List_simple_types@UTextureResource@QSVAllocatorD3D11@@@std@@@std@@@0@AEAV10@@Z ; std::forward<std::_List_iterator<std::_List_val<std::_List_simple_types<QSVAllocatorD3D11::TextureResource> > > >
PUBLIC	??$construct@V?$_List_iterator@V?$_List_val@U?$_List_simple_types@UTextureResource@QSVAllocatorD3D11@@@std@@@std@@@std@@V12@@?$_Default_allocator_traits@V?$allocator@V?$_List_iterator@V?$_List_val@U?$_List_simple_types@UTextureResource@QSVAllocatorD3D11@@@std@@@std@@@std@@@std@@@std@@SAXAEAV?$allocator@V?$_List_iterator@V?$_List_val@U?$_List_simple_types@UTextureResource@QSVAllocatorD3D11@@@std@@@std@@@std@@@1@QEAV?$_List_iterator@V?$_List_val@U?$_List_simple_types@UTextureResource@QSVAllocatorD3D11@@@std@@@std@@@1@$$QEAV31@@Z ; std::_Default_allocator_traits<std::allocator<std::_List_iterator<std::_List_val<std::_List_simple_types<QSVAllocatorD3D11::TextureResource> > > > >::construct<std::_List_iterator<std::_List_val<std::_List_simple_types<QSVAllocatorD3D11::TextureResource> > >,std::_List_iterator<std::_List_val<std::_List_simple_types<QSVAllocatorD3D11::TextureResource> > > >
PUBLIC	??_7exception@std@@6B@				; std::exception::`vftable'
PUBLIC	??_C@_0BC@EOODALEL@Unknown?5exception@		; `string'
PUBLIC	??_7bad_alloc@std@@6B@				; std::bad_alloc::`vftable'
PUBLIC	??_7bad_array_new_length@std@@6B@		; std::bad_array_new_length::`vftable'
PUBLIC	??_C@_0BF@KINCDENJ@bad?5array?5new?5length@	; `string'
PUBLIC	_TI3?AVbad_array_new_length@std@@
PUBLIC	_CTA3?AVbad_array_new_length@std@@
PUBLIC	??_R0?AVbad_array_new_length@std@@@8		; std::bad_array_new_length `RTTI Type Descriptor'
PUBLIC	_CT??_R0?AVbad_array_new_length@std@@@8??0bad_array_new_length@std@@QEAA@AEBV01@@Z24
PUBLIC	??_R0?AVbad_alloc@std@@@8			; std::bad_alloc `RTTI Type Descriptor'
PUBLIC	_CT??_R0?AVbad_alloc@std@@@8??0bad_alloc@std@@QEAA@AEBV01@@Z24
PUBLIC	??_R0?AVexception@std@@@8			; std::exception `RTTI Type Descriptor'
PUBLIC	_CT??_R0?AVexception@std@@@8??0exception@std@@QEAA@AEBV01@@Z24
PUBLIC	??_C@_0BB@FCMFBGOM@invalid?5argument@		; `string'
PUBLIC	??_C@_02DKCKIIND@?$CFs@				; `string'
PUBLIC	??_C@_0GI@FJIKDGOA@C?3?2Program?5Files?5?$CIx86?$CJ?2Microsof@ ; `string'
PUBLIC	??_C@_1NA@CDBIFGMM@?$AAC?$AA?3?$AA?2?$AAP?$AAr?$AAo?$AAg?$AAr?$AAa?$AAm?$AA?5?$AAF?$AAi?$AAl?$AAe@ ; `string'
PUBLIC	??_C@_1EK@NIFDJFDG@?$AAs?$AAt?$AAd?$AA?3?$AA?3?$AA_?$AAA?$AAd?$AAj?$AAu?$AAs?$AAt?$AA_?$AAm?$AAa@ ; `string'
PUBLIC	??_C@_1CG@JNLFBNGN@?$AA?$CC?$AAi?$AAn?$AAv?$AAa?$AAl?$AAi?$AAd?$AA?5?$AAa?$AAr?$AAg?$AAu?$AAm?$AAe@ ; `string'
PUBLIC	??_C@_0BJ@LFDBABJJ@ITERATOR?5LIST?5CORRUPTED?$CB@ ; `string'
PUBLIC	??_C@_1EE@KLDMFDFL@?$AAs?$AAt?$AAd?$AA?3?$AA?3?$AA_?$AAI?$AAt?$AAe?$AAr?$AAa?$AAt?$AAo?$AAr?$AA_@ ; `string'
PUBLIC	??_C@_1DG@PLBPCAEM@?$AA?$CC?$AAI?$AAT?$AAE?$AAR?$AAA?$AAT?$AAO?$AAR?$AA?5?$AAL?$AAI?$AAS?$AAT?$AA?5@ ; `string'
PUBLIC	??_C@_0BB@GCADKGJO@map?1set?5too?5long@		; `string'
PUBLIC	??_7mfxAllocatorParams@@6B@			; mfxAllocatorParams::`vftable'
PUBLIC	??_7QSVAllocatorParamsD3D11@@6B@		; QSVAllocatorParamsD3D11::`vftable'
PUBLIC	??_7QSVAllocatorD3D11@@6B@			; QSVAllocatorD3D11::`vftable'
PUBLIC	??_R0?AVmfxAllocatorParams@@@8			; mfxAllocatorParams `RTTI Type Descriptor'
PUBLIC	??_R0?AVQSVAllocatorParamsD3D11@@@8		; QSVAllocatorParamsD3D11 `RTTI Type Descriptor'
PUBLIC	??_C@_0BP@OLDKBHLM@map?1set?5iterators?5incompatible@ ; `string'
PUBLIC	??_C@_0GG@OCININGN@C?3?2Program?5Files?5?$CIx86?$CJ?2Microsof@ ; `string'
PUBLIC	??_C@_1MM@HFHBGPEE@?$AAC?$AA?3?$AA?2?$AAP?$AAr?$AAo?$AAg?$AAr?$AAa?$AAm?$AA?5?$AAF?$AAi?$AAl?$AAe@ ; `string'
PUBLIC	??_C@_1BDA@CHJMCFEF@?$AAs?$AAt?$AAd?$AA?3?$AA?3?$AA_?$AAT?$AAr?$AAe?$AAe?$AA_?$AAc?$AAo?$AAn?$AAs@ ; `string'
PUBLIC	??_C@_1EC@JLIDLCDH@?$AA?$CC?$AAm?$AAa?$AAp?$AA?1?$AAs?$AAe?$AAt?$AA?5?$AAi?$AAt?$AAe?$AAr?$AAa?$AAt@ ; `string'
PUBLIC	??_C@_0BM@BALDKKHE@list?5iterators?5incompatible@ ; `string'
PUBLIC	??_C@_0GF@GNCHBLDJ@C?3?2Program?5Files?5?$CIx86?$CJ?2Microsof@ ; `string'
PUBLIC	??_C@_1MK@DPPFMAIA@?$AAC?$AA?3?$AA?2?$AAP?$AAr?$AAo?$AAg?$AAr?$AAa?$AAm?$AA?5?$AAF?$AAi?$AAl?$AAe@ ; `string'
PUBLIC	??_C@_1BBE@JGJFNDBE@?$AAs?$AAt?$AAd?$AA?3?$AA?3?$AA_?$AAL?$AAi?$AAs?$AAt?$AA_?$AAc?$AAo?$AAn?$AAs@ ; `string'
PUBLIC	??_C@_1DM@KDLJAKOP@?$AA?$CC?$AAl?$AAi?$AAs?$AAt?$AA?5?$AAi?$AAt?$AAe?$AAr?$AAa?$AAt?$AAo?$AAr?$AAs@ ; `string'
PUBLIC	??_C@_0BG@BBKNOMOH@invalid?5map?$DMK?0?5T?$DO?5key@ ; `string'
PUBLIC	??_C@_0BO@PFKOHNJC@vector?5subscript?5out?5of?5range@ ; `string'
PUBLIC	??_C@_0GH@OOPCKGB@C?3?2Program?5Files?5?$CIx86?$CJ?2Microsof@ ; `string'
PUBLIC	??_C@_1MO@NOOOHLI@?$AAC?$AA?3?$AA?2?$AAP?$AAr?$AAo?$AAg?$AAr?$AAa?$AAm?$AA?5?$AAF?$AAi?$AAl?$AAe@ ; `string'
PUBLIC	??_C@_1CFI@EABIDFMI@?$AAs?$AAt?$AAd?$AA?3?$AA?3?$AAv?$AAe?$AAc?$AAt?$AAo?$AAr?$AA?$DM?$AAc?$AAl?$AAa@ ; `string'
PUBLIC	??_C@_1EA@LEKOKFNB@?$AA?$CC?$AAv?$AAe?$AAc?$AAt?$AAo?$AAr?$AA?5?$AAs?$AAu?$AAb?$AAs?$AAc?$AAr?$AAi@ ; `string'
PUBLIC	??_C@_1MG@EMIDNLDK@?$AAs?$AAt?$AAd?$AA?3?$AA?3?$AAv?$AAe?$AAc?$AAt?$AAo?$AAr?$AA?$DM?$AAs?$AAt?$AAr@ ; `string'
PUBLIC	??_C@_0BO@OKMPKPLD@back?$CI?$CJ?5called?5on?5empty?5vector@ ; `string'
PUBLIC	??_C@_1HA@HFOBLDNA@?$AAs?$AAt?$AAd?$AA?3?$AA?3?$AAv?$AAe?$AAc?$AAt?$AAo?$AAr?$AA?$DM?$AAv?$AAo?$AAi@ ; `string'
PUBLIC	??_C@_1EA@OBAHGFFK@?$AA?$CC?$AAb?$AAa?$AAc?$AAk?$AA?$CI?$AA?$CJ?$AA?5?$AAc?$AAa?$AAl?$AAl?$AAe?$AAd?$AA?5@ ; `string'
PUBLIC	??_C@_0BP@KGLJJIBC@front?$CI?$CJ?5called?5on?5empty?5vector@ ; `string'
PUBLIC	??_C@_1HC@PPPAOAGL@?$AAs?$AAt?$AAd?$AA?3?$AA?3?$AAv?$AAe?$AAc?$AAt?$AAo?$AAr?$AA?$DM?$AAv?$AAo?$AAi@ ; `string'
PUBLIC	??_C@_1EC@GDGFILAB@?$AA?$CC?$AAf?$AAr?$AAo?$AAn?$AAt?$AA?$CI?$AA?$CJ?$AA?5?$AAc?$AAa?$AAl?$AAl?$AAe?$AAd@ ; `string'
PUBLIC	??_C@_0GJ@GDKIGMBO@C?3?2Program?5Files?5?$CIx86?$CJ?2Microsof@ ; `string'
PUBLIC	??_C@_0BN@KJMKNNDM@array?5iterators?5incompatible@ ; `string'
PUBLIC	??_C@_1NC@OIIHGCJJ@?$AAC?$AA?3?$AA?2?$AAP?$AAr?$AAo?$AAg?$AAr?$AAa?$AAm?$AA?5?$AAF?$AAi?$AAl?$AAe@ ; `string'
PUBLIC	??_C@_1HC@OPEGLFLA@?$AAs?$AAt?$AAd?$AA?3?$AA?3?$AA_?$AAA?$AAr?$AAr?$AAa?$AAy?$AA_?$AAc?$AAo?$AAn@ ; `string'
PUBLIC	??_C@_1DO@FPIDHOGM@?$AA?$CC?$AAa?$AAr?$AAr?$AAa?$AAy?$AA?5?$AAi?$AAt?$AAe?$AAr?$AAa?$AAt?$AAo?$AAr@ ; `string'
PUBLIC	??_C@_0DB@MCPEHPCC@cannot?5decrement?5value?9initiali@ ; `string'
PUBLIC	??_C@_1BBE@MFFKIGBA@?$AAs?$AAt?$AAd?$AA?3?$AA?3?$AA_?$AAL?$AAi?$AAs?$AAt?$AA_?$AAc?$AAo?$AAn?$AAs@ ; `string'
PUBLIC	??_C@_1GG@FLDKPFOH@?$AA?$CC?$AAc?$AAa?$AAn?$AAn?$AAo?$AAt?$AA?5?$AAd?$AAe?$AAc?$AAr?$AAe?$AAm?$AAe@ ; `string'
PUBLIC	??_C@_0CF@BAAFPBMN@cannot?5decrement?5begin?5list?5ite@ ; `string'
PUBLIC	??_C@_1EO@PPPLIDNC@?$AA?$CC?$AAc?$AAa?$AAn?$AAn?$AAo?$AAt?$AA?5?$AAd?$AAe?$AAc?$AAr?$AAe?$AAm?$AAe@ ; `string'
PUBLIC	??_C@_0DD@MBIHGLJE@cannot?5dereference?5value?9initia@ ; `string'
PUBLIC	??_C@_1BBC@NFLKMEFM@?$AAs?$AAt?$AAd?$AA?3?$AA?3?$AA_?$AAL?$AAi?$AAs?$AAt?$AA_?$AAc?$AAo?$AAn?$AAs@ ; `string'
PUBLIC	??_C@_1GK@NKIMOCIG@?$AA?$CC?$AAc?$AAa?$AAn?$AAn?$AAo?$AAt?$AA?5?$AAd?$AAe?$AAr?$AAe?$AAf?$AAe?$AAr@ ; `string'
PUBLIC	??_C@_0CF@JCBFHMPL@cannot?5dereference?5end?5list?5ite@ ; `string'
PUBLIC	??_C@_1EO@CNEFBDCF@?$AA?$CC?$AAc?$AAa?$AAn?$AAn?$AAo?$AAt?$AA?5?$AAd?$AAe?$AAr?$AAe?$AAf?$AAe?$AAr@ ; `string'
PUBLIC	??_C@_0BD@FEEMDEPI@invalid?5comparator@		; `string'
PUBLIC	??_C@_1CK@NDNHPKPI@?$AA?$CC?$AAi?$AAn?$AAv?$AAa?$AAl?$AAi?$AAd?$AA?5?$AAc?$AAo?$AAm?$AAp?$AAa?$AAr@ ; `string'
PUBLIC	??_C@_0BB@MOGOBHAF@list?$DMT?$DO?5too?5long@	; `string'
PUBLIC	??_C@_0BD@OLBABOEK@vector?$DMT?$DO?5too?5long@	; `string'
PUBLIC	??_C@_0BJ@HAJGEHKO@transposed?5pointer?5range@	; `string'
PUBLIC	??_C@_1CG@LJCPDKEJ@?$AAs?$AAt?$AAd?$AA?3?$AA?3?$AA_?$AAV?$AAe?$AAr?$AAi?$AAf?$AAy?$AA_?$AAr?$AAa@ ; `string'
PUBLIC	??_C@_1DG@FJIKMGFD@?$AA?$CC?$AAt?$AAr?$AAa?$AAn?$AAs?$AAp?$AAo?$AAs?$AAe?$AAd?$AA?5?$AAp?$AAo?$AAi@ ; `string'
PUBLIC	??_C@_1CI@JONCLBEJ@?$AAs?$AAt?$AAd?$AA?3?$AA?3?$AA_?$AAD?$AAe?$AAb?$AAu?$AAg?$AA_?$AAl?$AAt?$AA_@ ; `string'
PUBLIC	??_C@_0DG@GAGDEJEE@list?5iterators?5in?5range?5are?5fro@ ; `string'
PUBLIC	??_C@_1HA@KAMKPLHN@?$AA?$CC?$AAl?$AAi?$AAs?$AAt?$AA?5?$AAi?$AAt?$AAe?$AAr?$AAa?$AAt?$AAo?$AAr?$AAs@ ; `string'
PUBLIC	??_C@_0CA@CFCBHDPG@array?5iterator?5range?5transposed@ ; `string'
PUBLIC	??_C@_1HM@GNEBBPFC@?$AAs?$AAt?$AAd?$AA?3?$AA?3?$AA_?$AAA?$AAr?$AAr?$AAa?$AAy?$AA_?$AAc?$AAo?$AAn@ ; `string'
PUBLIC	??_C@_1EE@PHOFHNMF@?$AA?$CC?$AAa?$AAr?$AAr?$AAa?$AAy?$AA?5?$AAi?$AAt?$AAe?$AAr?$AAa?$AAt?$AAo?$AAr@ ; `string'
PUBLIC	??_R4exception@std@@6B@				; std::exception::`RTTI Complete Object Locator'
PUBLIC	??_R3exception@std@@8				; std::exception::`RTTI Class Hierarchy Descriptor'
PUBLIC	??_R2exception@std@@8				; std::exception::`RTTI Base Class Array'
PUBLIC	??_R1A@?0A@EA@exception@std@@8			; std::exception::`RTTI Base Class Descriptor at (0,-1,0,64)'
PUBLIC	??_R4bad_alloc@std@@6B@				; std::bad_alloc::`RTTI Complete Object Locator'
PUBLIC	??_R3bad_alloc@std@@8				; std::bad_alloc::`RTTI Class Hierarchy Descriptor'
PUBLIC	??_R2bad_alloc@std@@8				; std::bad_alloc::`RTTI Base Class Array'
PUBLIC	??_R1A@?0A@EA@bad_alloc@std@@8			; std::bad_alloc::`RTTI Base Class Descriptor at (0,-1,0,64)'
PUBLIC	??_R4bad_array_new_length@std@@6B@		; std::bad_array_new_length::`RTTI Complete Object Locator'
PUBLIC	??_R3bad_array_new_length@std@@8		; std::bad_array_new_length::`RTTI Class Hierarchy Descriptor'
PUBLIC	??_R2bad_array_new_length@std@@8		; std::bad_array_new_length::`RTTI Base Class Array'
PUBLIC	??_R1A@?0A@EA@bad_array_new_length@std@@8	; std::bad_array_new_length::`RTTI Base Class Descriptor at (0,-1,0,64)'
PUBLIC	??_R4mfxAllocatorParams@@6B@			; mfxAllocatorParams::`RTTI Complete Object Locator'
PUBLIC	??_R3mfxAllocatorParams@@8			; mfxAllocatorParams::`RTTI Class Hierarchy Descriptor'
PUBLIC	??_R2mfxAllocatorParams@@8			; mfxAllocatorParams::`RTTI Base Class Array'
PUBLIC	??_R1A@?0A@EA@mfxAllocatorParams@@8		; mfxAllocatorParams::`RTTI Base Class Descriptor at (0,-1,0,64)'
PUBLIC	??_R4QSVAllocatorParamsD3D11@@6B@		; QSVAllocatorParamsD3D11::`RTTI Complete Object Locator'
PUBLIC	??_R3QSVAllocatorParamsD3D11@@8			; QSVAllocatorParamsD3D11::`RTTI Class Hierarchy Descriptor'
PUBLIC	??_R2QSVAllocatorParamsD3D11@@8			; QSVAllocatorParamsD3D11::`RTTI Base Class Array'
PUBLIC	??_R1A@?0A@EA@QSVAllocatorParamsD3D11@@8	; QSVAllocatorParamsD3D11::`RTTI Base Class Descriptor at (0,-1,0,64)'
PUBLIC	??_R4QSVAllocatorD3D11@@6B@			; QSVAllocatorD3D11::`RTTI Complete Object Locator'
PUBLIC	??_R0?AVQSVAllocatorD3D11@@@8			; QSVAllocatorD3D11 `RTTI Type Descriptor'
PUBLIC	??_R3QSVAllocatorD3D11@@8			; QSVAllocatorD3D11::`RTTI Class Hierarchy Descriptor'
PUBLIC	??_R2QSVAllocatorD3D11@@8			; QSVAllocatorD3D11::`RTTI Base Class Array'
PUBLIC	??_R1A@?0A@EA@QSVAllocatorD3D11@@8		; QSVAllocatorD3D11::`RTTI Base Class Descriptor at (0,-1,0,64)'
PUBLIC	??_R1A@?0A@EA@QSVAllocator@@8			; QSVAllocator::`RTTI Base Class Descriptor at (0,-1,0,64)'
PUBLIC	??_R0?AVQSVAllocator@@@8			; QSVAllocator `RTTI Type Descriptor'
PUBLIC	??_R3QSVAllocator@@8				; QSVAllocator::`RTTI Class Hierarchy Descriptor'
PUBLIC	??_R2QSVAllocator@@8				; QSVAllocator::`RTTI Base Class Array'
PUBLIC	??_R17?0A@EA@mfxFrameAllocator@@8		; mfxFrameAllocator::`RTTI Base Class Descriptor at (8,-1,0,64)'
PUBLIC	??_R0?AUmfxFrameAllocator@@@8			; mfxFrameAllocator `RTTI Type Descriptor'
PUBLIC	??_R3mfxFrameAllocator@@8			; mfxFrameAllocator::`RTTI Class Hierarchy Descriptor'
PUBLIC	??_R2mfxFrameAllocator@@8			; mfxFrameAllocator::`RTTI Base Class Array'
PUBLIC	??_R1A@?0A@EA@mfxFrameAllocator@@8		; mfxFrameAllocator::`RTTI Base Class Descriptor at (0,-1,0,64)'
EXTRN	??2@YAPEAX_K@Z:PROC				; operator new
EXTRN	??3@YAXPEAX_K@Z:PROC				; operator delete
EXTRN	atexit:PROC
EXTRN	_Init_thread_header:PROC
EXTRN	_Init_thread_abort:PROC
EXTRN	_Init_thread_footer:PROC
EXTRN	__imp__invalid_parameter:PROC
EXTRN	memmove:PROC
EXTRN	__imp__CrtDbgReport:PROC
EXTRN	__imp_??0_Lockit@std@@QEAA@H@Z:PROC
EXTRN	__imp_??1_Lockit@std@@QEAA@XZ:PROC
EXTRN	__std_exception_copy:PROC
EXTRN	__std_exception_destroy:PROC
EXTRN	??_Eexception@std@@UEAAPEAXI@Z:PROC		; std::exception::`vector deleting destructor'
EXTRN	??_Ebad_alloc@std@@UEAAPEAXI@Z:PROC		; std::bad_alloc::`vector deleting destructor'
EXTRN	??_Ebad_array_new_length@std@@UEAAPEAXI@Z:PROC	; std::bad_array_new_length::`vector deleting destructor'
EXTRN	?_Xlength_error@std@@YAXPEBD@Z:PROC		; std::_Xlength_error
EXTRN	?_Xout_of_range@std@@YAXPEBD@Z:PROC		; std::_Xout_of_range
EXTRN	??_EmfxAllocatorParams@@UEAAPEAXI@Z:PROC	; mfxAllocatorParams::`vector deleting destructor'
EXTRN	??0QSVAllocator@@QEAA@XZ:PROC			; QSVAllocator::QSVAllocator
EXTRN	??1QSVAllocator@@UEAA@XZ:PROC			; QSVAllocator::~QSVAllocator
EXTRN	?Close@QSVAllocator@@UEAA?AW4mfxStatus@@XZ:PROC	; QSVAllocator::Close
EXTRN	?FrameAlloc@QSVAllocator@@UEAA?AW4mfxStatus@@PEAUmfxFrameAllocRequest@@PEAUmfxFrameAllocResponse@@@Z:PROC ; QSVAllocator::FrameAlloc
EXTRN	?FrameFree@QSVAllocator@@UEAA?AW4mfxStatus@@PEAUmfxFrameAllocResponse@@@Z:PROC ; QSVAllocator::FrameFree
EXTRN	?CheckRequestType@QSVAllocator@@MEAA?AW4mfxStatus@@PEAUmfxFrameAllocRequest@@@Z:PROC ; QSVAllocator::CheckRequestType
EXTRN	??_EQSVAllocatorParamsD3D11@@UEAAPEAXI@Z:PROC	; QSVAllocatorParamsD3D11::`vector deleting destructor'
EXTRN	??_EQSVAllocatorD3D11@@UEAAPEAXI@Z:PROC		; QSVAllocatorD3D11::`vector deleting destructor'
EXTRN	_CxxThrowException:PROC
EXTRN	_RTC_CheckStackVars:PROC
EXTRN	_RTC_InitBase:PROC
EXTRN	_RTC_Shutdown:PROC
EXTRN	__CxxFrameHandler4:PROC
EXTRN	__GSHandlerCheck:PROC
EXTRN	__GSHandlerCheck_EH4:PROC
EXTRN	__RTDynamicCast:PROC
EXTRN	__security_check_cookie:PROC
EXTRN	_Init_thread_epoch:DWORD
EXTRN	??_7type_info@@6B@:BYTE				; type_info::`vftable'
EXTRN	__ImageBase:BYTE
EXTRN	__security_cookie:QWORD
EXTRN	_tls_index:DWORD
_BSS	SEGMENT
?CspMatrixList@@3V?$array@W4CspMatrix@@$0O@@std@@B DB 038H DUP (?) ; CspMatrixList
?CspTransferList@@3V?$array@W4CspTransfer@@$0P@@std@@B DB 03cH DUP (?) ; CspTransferList
?CspColorprimList@@3V?$array@W4CspColorprim@@$0M@@std@@B DB 030H DUP (?) ; CspColorprimList
?fourccToDXGIFormat@@3V?$map@IW4DXGI_FORMAT@@U?$less@I@std@@V?$allocator@U?$pair@$$CBIW4DXGI_FORMAT@@@std@@@3@@std@@B DB 018H DUP (?) ; fourccToDXGIFormat
_BSS	ENDS
;	COMDAT ?SUPPORTED_FORMATS@?N@??FrameLock@QSVAllocatorD3D11@@UEAA?AW4mfxStatus@@PEAXPEAUmfxFrameData@@@Z@4V?$array@W4DXGI_FORMAT@@$0L@@std@@B
_BSS	SEGMENT
?SUPPORTED_FORMATS@?N@??FrameLock@QSVAllocatorD3D11@@UEAA?AW4mfxStatus@@PEAXPEAUmfxFrameData@@@Z@4V?$array@W4DXGI_FORMAT@@$0L@@std@@B DB 02cH DUP (?) ; `QSVAllocatorD3D11::FrameLock'::`13'::SUPPORTED_FORMATS
_BSS	ENDS
;	COMDAT ?$TSS0@?N@??FrameLock@QSVAllocatorD3D11@@UEAA?AW4mfxStatus@@PEAXPEAUmfxFrameData@@@Z@4HA
_BSS	SEGMENT
?$TSS0@?N@??FrameLock@QSVAllocatorD3D11@@UEAA?AW4mfxStatus@@PEAXPEAUmfxFrameData@@@Z@4HA DD 01H DUP (?) ; TSS0<`template-parameter-13',QSVAllocatorD3D11::ameLock,enum mfxStatus,void *,mfxFrameData *>
_BSS	ENDS
;	COMDAT pdata
pdata	SEGMENT
$pdata$?__empty_global_delete@@YAXPEAX@Z DD imagerel $LN3
	DD	imagerel $LN3+8
	DD	imagerel $unwind$?__empty_global_delete@@YAXPEAX@Z
pdata	ENDS
;	COMDAT pdata
pdata	SEGMENT
$pdata$?__empty_global_delete@@YAXPEAX_K@Z DD imagerel $LN3
	DD	imagerel $LN3+13
	DD	imagerel $unwind$?__empty_global_delete@@YAXPEAX_K@Z
pdata	ENDS
;	COMDAT pdata
pdata	SEGMENT
$pdata$??2@YAPEAX_KPEAX@Z DD imagerel $LN3
	DD	imagerel $LN3+18
	DD	imagerel $unwind$??2@YAPEAX_KPEAX@Z
pdata	ENDS
;	COMDAT pdata
pdata	SEGMENT
$pdata$??0exception@std@@QEAA@QEBDH@Z DD imagerel $LN3
	DD	imagerel $LN3+73
	DD	imagerel $unwind$??0exception@std@@QEAA@QEBDH@Z
pdata	ENDS
;	COMDAT pdata
pdata	SEGMENT
$pdata$??0exception@std@@QEAA@AEBV01@@Z DD imagerel $LN3
	DD	imagerel $LN3+109
	DD	imagerel $unwind$??0exception@std@@QEAA@AEBV01@@Z
pdata	ENDS
;	COMDAT pdata
pdata	SEGMENT
$pdata$??1exception@std@@UEAA@XZ DD imagerel $LN3
	DD	imagerel $LN3+69
	DD	imagerel $unwind$??1exception@std@@UEAA@XZ
pdata	ENDS
;	COMDAT pdata
pdata	SEGMENT
$pdata$?what@exception@std@@UEBAPEBDXZ DD imagerel $LN5
	DD	imagerel $LN5+78
	DD	imagerel $unwind$?what@exception@std@@UEBAPEBDXZ
pdata	ENDS
;	COMDAT pdata
pdata	SEGMENT
$pdata$??_Gexception@std@@UEAAPEAXI@Z DD imagerel $LN4
	DD	imagerel $LN4+81
	DD	imagerel $unwind$??_Gexception@std@@UEAAPEAXI@Z
pdata	ENDS
;	COMDAT pdata
pdata	SEGMENT
$pdata$??0bad_alloc@std@@AEAA@QEBD@Z DD imagerel $LN4
	DD	imagerel $LN4+83
	DD	imagerel $unwind$??0bad_alloc@std@@AEAA@QEBD@Z
pdata	ENDS
;	COMDAT pdata
pdata	SEGMENT
$pdata$?dtor$0@?0???0bad_alloc@std@@AEAA@QEBD@Z@4HA DD imagerel ?dtor$0@?0???0bad_alloc@std@@AEAA@QEBD@Z@4HA
	DD	imagerel ?dtor$0@?0???0bad_alloc@std@@AEAA@QEBD@Z@4HA+35
	DD	imagerel $unwind$?dtor$0@?0???0bad_alloc@std@@AEAA@QEBD@Z@4HA
pdata	ENDS
;	COMDAT pdata
pdata	SEGMENT
$pdata$??1bad_alloc@std@@UEAA@XZ DD imagerel $LN4
	DD	imagerel $LN4+47
	DD	imagerel $unwind$??1bad_alloc@std@@UEAA@XZ
pdata	ENDS
;	COMDAT pdata
pdata	SEGMENT
$pdata$?dtor$0@?0???1bad_alloc@std@@UEAA@XZ@4HA DD imagerel ?dtor$0@?0???1bad_alloc@std@@UEAA@XZ@4HA
	DD	imagerel ?dtor$0@?0???1bad_alloc@std@@UEAA@XZ@4HA+35
	DD	imagerel $unwind$?dtor$0@?0???1bad_alloc@std@@UEAA@XZ@4HA
pdata	ENDS
;	COMDAT pdata
pdata	SEGMENT
$pdata$??0bad_alloc@std@@QEAA@AEBV01@@Z DD imagerel $LN4
	DD	imagerel $LN4+77
	DD	imagerel $unwind$??0bad_alloc@std@@QEAA@AEBV01@@Z
pdata	ENDS
;	COMDAT pdata
pdata	SEGMENT
$pdata$?dtor$0@?0???0bad_alloc@std@@QEAA@AEBV01@@Z@4HA DD imagerel ?dtor$0@?0???0bad_alloc@std@@QEAA@AEBV01@@Z@4HA
	DD	imagerel ?dtor$0@?0???0bad_alloc@std@@QEAA@AEBV01@@Z@4HA+35
	DD	imagerel $unwind$?dtor$0@?0???0bad_alloc@std@@QEAA@AEBV01@@Z@4HA
pdata	ENDS
;	COMDAT pdata
pdata	SEGMENT
$pdata$??_Gbad_alloc@std@@UEAAPEAXI@Z DD imagerel $LN4
	DD	imagerel $LN4+81
	DD	imagerel $unwind$??_Gbad_alloc@std@@UEAAPEAXI@Z
pdata	ENDS
;	COMDAT pdata
pdata	SEGMENT
$pdata$??0bad_array_new_length@std@@QEAA@XZ DD imagerel $LN4
	DD	imagerel $LN4+74
	DD	imagerel $unwind$??0bad_array_new_length@std@@QEAA@XZ
pdata	ENDS
;	COMDAT pdata
pdata	SEGMENT
$pdata$?dtor$0@?0???0bad_array_new_length@std@@QEAA@XZ@4HA DD imagerel ?dtor$0@?0???0bad_array_new_length@std@@QEAA@XZ@4HA
	DD	imagerel ?dtor$0@?0???0bad_array_new_length@std@@QEAA@XZ@4HA+35
	DD	imagerel $unwind$?dtor$0@?0???0bad_array_new_length@std@@QEAA@XZ@4HA
pdata	ENDS
;	COMDAT pdata
pdata	SEGMENT
$pdata$??1bad_array_new_length@std@@UEAA@XZ DD imagerel $LN4
	DD	imagerel $LN4+47
	DD	imagerel $unwind$??1bad_array_new_length@std@@UEAA@XZ
pdata	ENDS
;	COMDAT pdata
pdata	SEGMENT
$pdata$?dtor$0@?0???1bad_array_new_length@std@@UEAA@XZ@4HA DD imagerel ?dtor$0@?0???1bad_array_new_length@std@@UEAA@XZ@4HA
	DD	imagerel ?dtor$0@?0???1bad_array_new_length@std@@UEAA@XZ@4HA+35
	DD	imagerel $unwind$?dtor$0@?0???1bad_array_new_length@std@@UEAA@XZ@4HA
pdata	ENDS
;	COMDAT pdata
pdata	SEGMENT
$pdata$??0bad_array_new_length@std@@QEAA@AEBV01@@Z DD imagerel $LN4
	DD	imagerel $LN4+77
	DD	imagerel $unwind$??0bad_array_new_length@std@@QEAA@AEBV01@@Z
pdata	ENDS
;	COMDAT pdata
pdata	SEGMENT
$pdata$?dtor$0@?0???0bad_array_new_length@std@@QEAA@AEBV01@@Z@4HA DD imagerel ?dtor$0@?0???0bad_array_new_length@std@@QEAA@AEBV01@@Z@4HA
	DD	imagerel ?dtor$0@?0???0bad_array_new_length@std@@QEAA@AEBV01@@Z@4HA+35
	DD	imagerel $unwind$?dtor$0@?0???0bad_array_new_length@std@@QEAA@AEBV01@@Z@4HA
pdata	ENDS
;	COMDAT pdata
pdata	SEGMENT
$pdata$??_Gbad_array_new_length@std@@UEAAPEAXI@Z DD imagerel $LN4
	DD	imagerel $LN4+81
	DD	imagerel $unwind$??_Gbad_array_new_length@std@@UEAAPEAXI@Z
pdata	ENDS
;	COMDAT pdata
pdata	SEGMENT
$pdata$?_Throw_bad_array_new_length@std@@YAXXZ DD imagerel $LN3
	DD	imagerel $LN3+54
	DD	imagerel $unwind$?_Throw_bad_array_new_length@std@@YAXXZ
pdata	ENDS
;	COMDAT pdata
pdata	SEGMENT
$pdata$?max@?$numeric_limits@_J@std@@SA_JXZ DD imagerel $LN3
	DD	imagerel $LN3+14
	DD	imagerel $unwind$?max@?$numeric_limits@_J@std@@SA_JXZ
pdata	ENDS
;	COMDAT pdata
pdata	SEGMENT
$pdata$??0_Iterator_base12_compatible@std@@QEAA@XZ DD imagerel $LN3
	DD	imagerel $LN3+38
	DD	imagerel $unwind$??0_Iterator_base12_compatible@std@@QEAA@XZ
pdata	ENDS
;	COMDAT pdata
pdata	SEGMENT
$pdata$?_Allocate@_Default_allocate_traits@std@@SAPEAX_K@Z DD imagerel $LN3
	DD	imagerel $LN3+46
	DD	imagerel $unwind$?_Allocate@_Default_allocate_traits@std@@SAPEAX_K@Z
pdata	ENDS
;	COMDAT pdata
pdata	SEGMENT
$pdata$?_Adjust_manually_vector_aligned@std@@YAXAEAPEAXAEA_K@Z DD imagerel $LN21
	DD	imagerel $LN21+424
	DD	imagerel $unwind$?_Adjust_manually_vector_aligned@std@@YAXAEAPEAXAEA_K@Z
pdata	ENDS
;	COMDAT pdata
pdata	SEGMENT
$pdata$?_Adopt@_Iterator_base0@std@@QEAAXPEBX@Z DD imagerel $LN3
	DD	imagerel $LN3+13
	DD	imagerel $unwind$?_Adopt@_Iterator_base0@std@@QEAAXPEBX@Z
pdata	ENDS
;	COMDAT pdata
pdata	SEGMENT
$pdata$??0_Container_proxy@std@@QEAA@PEAU_Container_base12@1@@Z DD imagerel $LN3
	DD	imagerel $LN3+44
	DD	imagerel $unwind$??0_Container_proxy@std@@QEAA@PEAU_Container_base12@1@@Z
pdata	ENDS
;	COMDAT pdata
pdata	SEGMENT
$pdata$??0_Container_base12@std@@QEAA@XZ DD imagerel $LN3
	DD	imagerel $LN3+25
	DD	imagerel $unwind$??0_Container_base12@std@@QEAA@XZ
pdata	ENDS
;	COMDAT pdata
pdata	SEGMENT
$pdata$?_Orphan_all@_Container_base12@std@@QEAAXXZ DD imagerel $LN8
	DD	imagerel $LN8+175
	DD	imagerel $unwind$?_Orphan_all@_Container_base12@std@@QEAAXXZ
pdata	ENDS
;	COMDAT pdata
pdata	SEGMENT
$pdata$?dtor$0@?0??_Orphan_all@_Container_base12@std@@QEAAXXZ@4HA DD imagerel ?dtor$0@?0??_Orphan_all@_Container_base12@std@@QEAAXXZ@4HA
	DD	imagerel ?dtor$0@?0??_Orphan_all@_Container_base12@std@@QEAAXXZ@4HA+36
	DD	imagerel $unwind$?dtor$0@?0??_Orphan_all@_Container_base12@std@@QEAAXXZ@4HA
pdata	ENDS
;	COMDAT pdata
pdata	SEGMENT
$pdata$??0_Iterator_base12@std@@QEAA@XZ DD imagerel $LN3
	DD	imagerel $LN3+38
	DD	imagerel $unwind$??0_Iterator_base12@std@@QEAA@XZ
pdata	ENDS
;	COMDAT pdata
pdata	SEGMENT
$pdata$??0_Iterator_base12@std@@QEAA@AEBU01@@Z DD imagerel $LN3
	DD	imagerel $LN3+86
	DD	imagerel $unwind$??0_Iterator_base12@std@@QEAA@AEBU01@@Z
pdata	ENDS
;	COMDAT pdata
pdata	SEGMENT
$pdata$??4_Iterator_base12@std@@QEAAAEAU01@AEBU01@@Z DD imagerel $LN7
	DD	imagerel $LN7+161
	DD	imagerel $unwind$??4_Iterator_base12@std@@QEAAAEAU01@AEBU01@@Z
pdata	ENDS
;	COMDAT pdata
pdata	SEGMENT
$pdata$?dtor$0@?0???4_Iterator_base12@std@@QEAAAEAU01@AEBU01@@Z@4HA DD imagerel ?dtor$0@?0???4_Iterator_base12@std@@QEAAAEAU01@AEBU01@@Z@4HA
	DD	imagerel ?dtor$0@?0???4_Iterator_base12@std@@QEAAAEAU01@AEBU01@@Z@4HA+36
	DD	imagerel $unwind$?dtor$0@?0???4_Iterator_base12@std@@QEAAAEAU01@AEBU01@@Z@4HA
pdata	ENDS
;	COMDAT pdata
pdata	SEGMENT
$pdata$??1_Iterator_base12@std@@QEAA@XZ DD imagerel $LN4
	DD	imagerel $LN4+92
	DD	imagerel $unwind$??1_Iterator_base12@std@@QEAA@XZ
pdata	ENDS
;	COMDAT pdata
pdata	SEGMENT
$pdata$?dtor$0@?0???1_Iterator_base12@std@@QEAA@XZ@4HA DD imagerel ?dtor$0@?0???1_Iterator_base12@std@@QEAA@XZ@4HA
	DD	imagerel ?dtor$0@?0???1_Iterator_base12@std@@QEAA@XZ@4HA+36
	DD	imagerel $unwind$?dtor$0@?0???1_Iterator_base12@std@@QEAA@XZ@4HA
pdata	ENDS
;	COMDAT pdata
pdata	SEGMENT
$pdata$?_Adopt@_Iterator_base12@std@@QEAAXPEBU_Container_base12@2@@Z DD imagerel $LN8
	DD	imagerel $LN8+251
	DD	imagerel $unwind$?_Adopt@_Iterator_base12@std@@QEAAXPEBU_Container_base12@2@@Z
pdata	ENDS
;	COMDAT pdata
pdata	SEGMENT
$pdata$?dtor$0@?0??_Adopt@_Iterator_base12@std@@QEAAXPEBU_Container_base12@2@@Z@4HA DD imagerel ?dtor$0@?0??_Adopt@_Iterator_base12@std@@QEAAXPEBU_Container_base12@2@@Z@4HA
	DD	imagerel ?dtor$0@?0??_Adopt@_Iterator_base12@std@@QEAAXPEBU_Container_base12@2@@Z@4HA+36
	DD	imagerel $unwind$?dtor$0@?0??_Adopt@_Iterator_base12@std@@QEAAXPEBU_Container_base12@2@@Z@4HA
pdata	ENDS
;	COMDAT pdata
pdata	SEGMENT
$pdata$?dtor$1@?0??_Adopt@_Iterator_base12@std@@QEAAXPEBU_Container_base12@2@@Z@4HA DD imagerel ?dtor$1@?0??_Adopt@_Iterator_base12@std@@QEAAXPEBU_Container_base12@2@@Z@4HA
	DD	imagerel ?dtor$1@?0??_Adopt@_Iterator_base12@std@@QEAAXPEBU_Container_base12@2@@Z@4HA+36
	DD	imagerel $unwind$?dtor$1@?0??_Adopt@_Iterator_base12@std@@QEAAXPEBU_Container_base12@2@@Z@4HA
pdata	ENDS
;	COMDAT pdata
pdata	SEGMENT
$pdata$?_Getcont@_Iterator_base12@std@@QEBAPEBU_Container_base12@2@XZ DD imagerel $LN5
	DD	imagerel $LN5+76
	DD	imagerel $unwind$?_Getcont@_Iterator_base12@std@@QEBAPEBU_Container_base12@2@XZ
pdata	ENDS
;	COMDAT pdata
pdata	SEGMENT
$pdata$?_Orphan_me@_Iterator_base12@std@@QEAAXXZ DD imagerel $LN15
	DD	imagerel $LN15+270
	DD	imagerel $unwind$?_Orphan_me@_Iterator_base12@std@@QEAAXXZ
pdata	ENDS
;	COMDAT pdata
pdata	SEGMENT
$pdata$?_Release@_Basic_container_proxy_ptr12@std@@QEAAXXZ DD imagerel $LN3
	DD	imagerel $LN3+20
	DD	imagerel $unwind$?_Release@_Basic_container_proxy_ptr12@std@@QEAAXXZ
pdata	ENDS
;	COMDAT pdata
pdata	SEGMENT
$pdata$?_Incref@_Ref_count_base@std@@QEAAXXZ DD imagerel $LN3
	DD	imagerel $LN3+20
	DD	imagerel $unwind$?_Incref@_Ref_count_base@std@@QEAAXXZ
pdata	ENDS
;	COMDAT pdata
pdata	SEGMENT
$pdata$?_Decref@_Ref_count_base@std@@QEAAXXZ DD imagerel $LN4
	DD	imagerel $LN4+87
	DD	imagerel $unwind$?_Decref@_Ref_count_base@std@@QEAAXXZ
pdata	ENDS
;	COMDAT pdata
pdata	SEGMENT
$pdata$?_Decwref@_Ref_count_base@std@@QEAAXXZ DD imagerel $LN4
	DD	imagerel $LN4+78
	DD	imagerel $unwind$?_Decwref@_Ref_count_base@std@@QEAAXXZ
pdata	ENDS
;	COMDAT pdata
pdata	SEGMENT
$pdata$?_Throw_tree_length_error@std@@YAXXZ DD imagerel $LN3
	DD	imagerel $LN3+39
	DD	imagerel $unwind$?_Throw_tree_length_error@std@@YAXXZ
pdata	ENDS
;	COMDAT pdata
pdata	SEGMENT
$pdata$??$make_array@W4CspMatrix@@W41@W41@W41@W41@W41@W41@W41@W41@W41@W41@W41@W41@W41@W41@@@YA?AV?$array@W4CspMatrix@@$0O@@std@@$$QEAW4CspMatrix@@0000000000000@Z DD imagerel $LN3
	DD	imagerel $LN3+297
	DD	imagerel $unwind$??$make_array@W4CspMatrix@@W41@W41@W41@W41@W41@W41@W41@W41@W41@W41@W41@W41@W41@W41@@@YA?AV?$array@W4CspMatrix@@$0O@@std@@$$QEAW4CspMatrix@@0000000000000@Z
pdata	ENDS
;	COMDAT pdata
pdata	SEGMENT
$pdata$??__ECspMatrixList@@YAXXZ DD imagerel ??__ECspMatrixList@@YAXXZ
	DD	imagerel ??__ECspMatrixList@@YAXXZ+452
	DD	imagerel $unwind$??__ECspMatrixList@@YAXXZ
pdata	ENDS
;	COMDAT pdata
pdata	SEGMENT
$pdata$??$make_array@W4CspTransfer@@W41@W41@W41@W41@W41@W41@W41@W41@W41@W41@W41@W41@W41@W41@W41@@@YA?AV?$array@W4CspTransfer@@$0P@@std@@$$QEAW4CspTransfer@@00000000000000@Z DD imagerel $LN3
	DD	imagerel $LN3+311
	DD	imagerel $unwind$??$make_array@W4CspTransfer@@W41@W41@W41@W41@W41@W41@W41@W41@W41@W41@W41@W41@W41@W41@W41@@@YA?AV?$array@W4CspTransfer@@$0P@@std@@$$QEAW4CspTransfer@@00000000000000@Z
pdata	ENDS
;	COMDAT pdata
pdata	SEGMENT
$pdata$??__ECspTransferList@@YAXXZ DD imagerel ??__ECspTransferList@@YAXXZ
	DD	imagerel ??__ECspTransferList@@YAXXZ+476
	DD	imagerel $unwind$??__ECspTransferList@@YAXXZ
pdata	ENDS
;	COMDAT pdata
pdata	SEGMENT
$pdata$??$make_array@W4CspColorprim@@W41@W41@W41@W41@W41@W41@W41@W41@W41@W41@W41@W41@@@YA?AV?$array@W4CspColorprim@@$0M@@std@@$$QEAW4CspColorprim@@00000000000@Z DD imagerel $LN3
	DD	imagerel $LN3+263
	DD	imagerel $unwind$??$make_array@W4CspColorprim@@W41@W41@W41@W41@W41@W41@W41@W41@W41@W41@W41@W41@@@YA?AV?$array@W4CspColorprim@@$0M@@std@@$$QEAW4CspColorprim@@00000000000@Z
pdata	ENDS
;	COMDAT pdata
pdata	SEGMENT
$pdata$??__ECspColorprimList@@YAXXZ DD imagerel ??__ECspColorprimList@@YAXXZ
	DD	imagerel ??__ECspColorprimList@@YAXXZ+398
	DD	imagerel $unwind$??__ECspColorprimList@@YAXXZ
pdata	ENDS
;	COMDAT pdata
pdata	SEGMENT
$pdata$?get@?$_Ptr_base@VRGYLog@@@std@@IEBAPEAVRGYLog@@XZ DD imagerel $LN3
	DD	imagerel $LN3+16
	DD	imagerel $unwind$?get@?$_Ptr_base@VRGYLog@@@std@@IEBAPEAVRGYLog@@XZ
pdata	ENDS
;	COMDAT pdata
pdata	SEGMENT
$pdata$??0?$_Ptr_base@VRGYLog@@@std@@IEAA@XZ DD imagerel $LN3
	DD	imagerel $LN3+38
	DD	imagerel $unwind$??0?$_Ptr_base@VRGYLog@@@std@@IEAA@XZ
pdata	ENDS
;	COMDAT pdata
pdata	SEGMENT
$pdata$?_Decref@?$_Ptr_base@VRGYLog@@@std@@IEAAXXZ DD imagerel $LN4
	DD	imagerel $LN4+62
	DD	imagerel $unwind$?_Decref@?$_Ptr_base@VRGYLog@@@std@@IEAAXXZ
pdata	ENDS
;	COMDAT pdata
pdata	SEGMENT
$pdata$?_Swap@?$_Ptr_base@VRGYLog@@@std@@IEAAXAEAV12@@Z DD imagerel $LN3
	DD	imagerel $LN3+85
	DD	imagerel $unwind$?_Swap@?$_Ptr_base@VRGYLog@@@std@@IEAAXAEAV12@@Z
pdata	ENDS
;	COMDAT pdata
pdata	SEGMENT
$pdata$??0?$shared_ptr@VRGYLog@@@std@@QEAA@AEBV01@@Z DD imagerel $LN3
	DD	imagerel $LN3+71
	DD	imagerel $unwind$??0?$shared_ptr@VRGYLog@@@std@@QEAA@AEBV01@@Z
pdata	ENDS
;	COMDAT pdata
pdata	SEGMENT
$pdata$??1?$shared_ptr@VRGYLog@@@std@@QEAA@XZ DD imagerel $LN3
	DD	imagerel $LN3+46
	DD	imagerel $unwind$??1?$shared_ptr@VRGYLog@@@std@@QEAA@XZ
pdata	ENDS
;	COMDAT pdata
pdata	SEGMENT
$pdata$??4?$shared_ptr@VRGYLog@@@std@@QEAAAEAV01@AEBV01@@Z DD imagerel $LN4
	DD	imagerel $LN4+104
	DD	imagerel $unwind$??4?$shared_ptr@VRGYLog@@@std@@QEAAAEAV01@AEBV01@@Z
pdata	ENDS
;	COMDAT pdata
pdata	SEGMENT
$pdata$?dtor$0@?0???4?$shared_ptr@VRGYLog@@@std@@QEAAAEAV01@AEBV01@@Z@4HA DD imagerel ?dtor$0@?0???4?$shared_ptr@VRGYLog@@@std@@QEAAAEAV01@AEBV01@@Z@4HA
	DD	imagerel ?dtor$0@?0???4?$shared_ptr@VRGYLog@@@std@@QEAAAEAV01@AEBV01@@Z@4HA+35
	DD	imagerel $unwind$?dtor$0@?0???4?$shared_ptr@VRGYLog@@@std@@QEAAAEAV01@AEBV01@@Z@4HA
pdata	ENDS
;	COMDAT pdata
pdata	SEGMENT
$pdata$?swap@?$shared_ptr@VRGYLog@@@std@@QEAAXAEAV12@@Z DD imagerel $LN3
	DD	imagerel $LN3+56
	DD	imagerel $unwind$?swap@?$shared_ptr@VRGYLog@@@std@@QEAAXAEAV12@@Z
pdata	ENDS
;	COMDAT pdata
pdata	SEGMENT
$pdata$??1mfxAllocatorParams@@UEAA@XZ DD imagerel $LN3
	DD	imagerel $LN3+23
	DD	imagerel $unwind$??1mfxAllocatorParams@@UEAA@XZ
pdata	ENDS
;	COMDAT pdata
pdata	SEGMENT
$pdata$??0mfxAllocatorParams@@QEAA@XZ DD imagerel $LN3
	DD	imagerel $LN3+28
	DD	imagerel $unwind$??0mfxAllocatorParams@@QEAA@XZ
pdata	ENDS
;	COMDAT pdata
pdata	SEGMENT
$pdata$??4mfxAllocatorParams@@QEAAAEAV0@AEBV0@@Z DD imagerel $LN3
	DD	imagerel $LN3+18
	DD	imagerel $unwind$??4mfxAllocatorParams@@QEAAAEAV0@AEBV0@@Z
pdata	ENDS
;	COMDAT pdata
pdata	SEGMENT
$pdata$??_GmfxAllocatorParams@@UEAAPEAXI@Z DD imagerel $LN4
	DD	imagerel $LN4+81
	DD	imagerel $unwind$??_GmfxAllocatorParams@@UEAAPEAXI@Z
pdata	ENDS
;	COMDAT pdata
pdata	SEGMENT
$pdata$??0MFXReadWriteMid@@QEAA@PEAXE@Z DD imagerel $LN9
	DD	imagerel $LN9+235
	DD	imagerel $unwind$??0MFXReadWriteMid@@QEAA@PEAXE@Z
pdata	ENDS
;	COMDAT pdata
pdata	SEGMENT
$pdata$?isRead@MFXReadWriteMid@@QEBA_NXZ DD imagerel $LN5
	DD	imagerel $LN5+85
	DD	imagerel $unwind$?isRead@MFXReadWriteMid@@QEBA_NXZ
pdata	ENDS
;	COMDAT pdata
pdata	SEGMENT
$pdata$?isWrite@MFXReadWriteMid@@QEBA_NXZ DD imagerel $LN5
	DD	imagerel $LN5+85
	DD	imagerel $unwind$?isWrite@MFXReadWriteMid@@QEBA_NXZ
pdata	ENDS
;	COMDAT pdata
pdata	SEGMENT
$pdata$?raw@MFXReadWriteMid@@QEBAPEAXXZ DD imagerel $LN3
	DD	imagerel $LN3+16
	DD	imagerel $unwind$?raw@MFXReadWriteMid@@QEBAPEAXXZ
pdata	ENDS
pdata	SEGMENT
$pdata$?IUnknownSafeRelease@@YAXPEAUIUnknown@@@Z DD imagerel ?IUnknownSafeRelease@@YAXPEAUIUnknown@@@Z
	DD	imagerel ?IUnknownSafeRelease@@YAXPEAUIUnknown@@@Z+60
	DD	imagerel $unwind$?IUnknownSafeRelease@@YAXPEAUIUnknown@@@Z
pdata	ENDS
;	COMDAT pdata
pdata	SEGMENT
$pdata$??0QSVAllocatorParamsD3D11@@QEAA@XZ DD imagerel $LN4
	DD	imagerel $LN4+101
	DD	imagerel $unwind$??0QSVAllocatorParamsD3D11@@QEAA@XZ
pdata	ENDS
;	COMDAT pdata
pdata	SEGMENT
$pdata$?dtor$0@?0???0QSVAllocatorParamsD3D11@@QEAA@XZ@4HA DD imagerel ?dtor$0@?0???0QSVAllocatorParamsD3D11@@QEAA@XZ@4HA
	DD	imagerel ?dtor$0@?0???0QSVAllocatorParamsD3D11@@QEAA@XZ@4HA+35
	DD	imagerel $unwind$?dtor$0@?0???0QSVAllocatorParamsD3D11@@QEAA@XZ@4HA
pdata	ENDS
;	COMDAT pdata
pdata	SEGMENT
$pdata$??1QSVAllocatorParamsD3D11@@UEAA@XZ DD imagerel $LN4
	DD	imagerel $LN4+47
	DD	imagerel $unwind$??1QSVAllocatorParamsD3D11@@UEAA@XZ
pdata	ENDS
;	COMDAT pdata
pdata	SEGMENT
$pdata$?dtor$0@?0???1QSVAllocatorParamsD3D11@@UEAA@XZ@4HA DD imagerel ?dtor$0@?0???1QSVAllocatorParamsD3D11@@UEAA@XZ@4HA
	DD	imagerel ?dtor$0@?0???1QSVAllocatorParamsD3D11@@UEAA@XZ@4HA+35
	DD	imagerel $unwind$?dtor$0@?0???1QSVAllocatorParamsD3D11@@UEAA@XZ@4HA
pdata	ENDS
;	COMDAT pdata
pdata	SEGMENT
$pdata$??4QSVAllocatorParamsD3D11@@QEAAAEAV0@AEBV0@@Z DD imagerel $LN3
	DD	imagerel $LN3+112
	DD	imagerel $unwind$??4QSVAllocatorParamsD3D11@@QEAAAEAV0@AEBV0@@Z
pdata	ENDS
;	COMDAT pdata
pdata	SEGMENT
$pdata$??_GQSVAllocatorParamsD3D11@@UEAAPEAXI@Z DD imagerel $LN4
	DD	imagerel $LN4+81
	DD	imagerel $unwind$??_GQSVAllocatorParamsD3D11@@UEAAPEAXI@Z
pdata	ENDS
pdata	SEGMENT
$pdata$??0QSVAllocatorD3D11@@QEAA@XZ DD imagerel $LN7
	DD	imagerel $LN7+143
	DD	imagerel $unwind$??0QSVAllocatorD3D11@@QEAA@XZ
pdata	ENDS
pdata	SEGMENT
$pdata$?dtor$0@?0???0QSVAllocatorD3D11@@QEAA@XZ@4HA DD imagerel ?dtor$0@?0???0QSVAllocatorD3D11@@QEAA@XZ@4HA
	DD	imagerel ?dtor$0@?0???0QSVAllocatorD3D11@@QEAA@XZ@4HA+35
	DD	imagerel $unwind$?dtor$0@?0???0QSVAllocatorD3D11@@QEAA@XZ@4HA
$pdata$?dtor$1@?0???0QSVAllocatorD3D11@@QEAA@XZ@4HA DD imagerel ?dtor$1@?0???0QSVAllocatorD3D11@@QEAA@XZ@4HA
	DD	imagerel ?dtor$1@?0???0QSVAllocatorD3D11@@QEAA@XZ@4HA+42
	DD	imagerel $unwind$?dtor$1@?0???0QSVAllocatorD3D11@@QEAA@XZ@4HA
$pdata$?dtor$2@?0???0QSVAllocatorD3D11@@QEAA@XZ@4HA DD imagerel ?dtor$2@?0???0QSVAllocatorD3D11@@QEAA@XZ@4HA
	DD	imagerel ?dtor$2@?0???0QSVAllocatorD3D11@@QEAA@XZ@4HA+42
	DD	imagerel $unwind$?dtor$2@?0???0QSVAllocatorD3D11@@QEAA@XZ@4HA
$pdata$?dtor$3@?0???0QSVAllocatorD3D11@@QEAA@XZ@4HA DD imagerel ?dtor$3@?0???0QSVAllocatorD3D11@@QEAA@XZ@4HA
	DD	imagerel ?dtor$3@?0???0QSVAllocatorD3D11@@QEAA@XZ@4HA+42
	DD	imagerel $unwind$?dtor$3@?0???0QSVAllocatorD3D11@@QEAA@XZ@4HA
pdata	ENDS
pdata	SEGMENT
$pdata$??1QSVAllocatorD3D11@@UEAA@XZ DD imagerel $LN7
	DD	imagerel $LN7+133
	DD	imagerel $unwind$??1QSVAllocatorD3D11@@UEAA@XZ
pdata	ENDS
pdata	SEGMENT
$pdata$?dtor$0@?0???1QSVAllocatorD3D11@@UEAA@XZ@4HA DD imagerel ?dtor$0@?0???1QSVAllocatorD3D11@@UEAA@XZ@4HA
	DD	imagerel ?dtor$0@?0???1QSVAllocatorD3D11@@UEAA@XZ@4HA+35
	DD	imagerel $unwind$?dtor$0@?0???1QSVAllocatorD3D11@@UEAA@XZ@4HA
$pdata$?dtor$1@?0???1QSVAllocatorD3D11@@UEAA@XZ@4HA DD imagerel ?dtor$1@?0???1QSVAllocatorD3D11@@UEAA@XZ@4HA
	DD	imagerel ?dtor$1@?0???1QSVAllocatorD3D11@@UEAA@XZ@4HA+42
	DD	imagerel $unwind$?dtor$1@?0???1QSVAllocatorD3D11@@UEAA@XZ@4HA
$pdata$?dtor$2@?0???1QSVAllocatorD3D11@@UEAA@XZ@4HA DD imagerel ?dtor$2@?0???1QSVAllocatorD3D11@@UEAA@XZ@4HA
	DD	imagerel ?dtor$2@?0???1QSVAllocatorD3D11@@UEAA@XZ@4HA+42
	DD	imagerel $unwind$?dtor$2@?0???1QSVAllocatorD3D11@@UEAA@XZ@4HA
$pdata$?dtor$3@?0???1QSVAllocatorD3D11@@UEAA@XZ@4HA DD imagerel ?dtor$3@?0???1QSVAllocatorD3D11@@UEAA@XZ@4HA
	DD	imagerel ?dtor$3@?0???1QSVAllocatorD3D11@@UEAA@XZ@4HA+42
	DD	imagerel $unwind$?dtor$3@?0???1QSVAllocatorD3D11@@UEAA@XZ@4HA
pdata	ENDS
pdata	SEGMENT
$pdata$?Init@QSVAllocatorD3D11@@UEAA?AW4mfxStatus@@PEAVmfxAllocatorParams@@V?$shared_ptr@VRGYLog@@@std@@@Z DD imagerel $LN6
	DD	imagerel $LN6+278
	DD	imagerel $unwind$?Init@QSVAllocatorD3D11@@UEAA?AW4mfxStatus@@PEAVmfxAllocatorParams@@V?$shared_ptr@VRGYLog@@@std@@@Z
pdata	ENDS
pdata	SEGMENT
$pdata$?dtor$0@?0??Init@QSVAllocatorD3D11@@UEAA?AW4mfxStatus@@PEAVmfxAllocatorParams@@V?$shared_ptr@VRGYLog@@@std@@@Z@4HA DD imagerel ?dtor$0@?0??Init@QSVAllocatorD3D11@@UEAA?AW4mfxStatus@@PEAVmfxAllocatorParams@@V?$shared_ptr@VRGYLog@@@std@@@Z@4HA
	DD	imagerel ?dtor$0@?0??Init@QSVAllocatorD3D11@@UEAA?AW4mfxStatus@@PEAVmfxAllocatorParams@@V?$shared_ptr@VRGYLog@@@std@@@Z@4HA+35
	DD	imagerel $unwind$?dtor$0@?0??Init@QSVAllocatorD3D11@@UEAA?AW4mfxStatus@@PEAVmfxAllocatorParams@@V?$shared_ptr@VRGYLog@@@std@@@Z@4HA
pdata	ENDS
pdata	SEGMENT
$pdata$?Close@QSVAllocatorD3D11@@UEAA?AW4mfxStatus@@XZ DD imagerel $LN7
	DD	imagerel $LN7+288
	DD	imagerel $unwind$?Close@QSVAllocatorD3D11@@UEAA?AW4mfxStatus@@XZ
pdata	ENDS
pdata	SEGMENT
$pdata$?dtor$0@?0??Close@QSVAllocatorD3D11@@UEAA?AW4mfxStatus@@XZ@4HA DD imagerel ?dtor$0@?0??Close@QSVAllocatorD3D11@@UEAA?AW4mfxStatus@@XZ@4HA
	DD	imagerel ?dtor$0@?0??Close@QSVAllocatorD3D11@@UEAA?AW4mfxStatus@@XZ@4HA+38
	DD	imagerel $unwind$?dtor$0@?0??Close@QSVAllocatorD3D11@@UEAA?AW4mfxStatus@@XZ@4HA
pdata	ENDS
;	COMDAT pdata
pdata	SEGMENT
$pdata$?GetD3D11Device@QSVAllocatorD3D11@@UEAAPEAUID3D11Device@@XZ DD imagerel $LN3
	DD	imagerel $LN3+20
	DD	imagerel $unwind$?GetD3D11Device@QSVAllocatorD3D11@@UEAAPEAUID3D11Device@@XZ
pdata	ENDS
pdata	SEGMENT
$pdata$?FrameLock@QSVAllocatorD3D11@@UEAA?AW4mfxStatus@@PEAXPEAUmfxFrameData@@@Z DD imagerel $LN31
	DD	imagerel $LN31+2931
	DD	imagerel $unwind$?FrameLock@QSVAllocatorD3D11@@UEAA?AW4mfxStatus@@PEAXPEAUmfxFrameData@@@Z
pdata	ENDS
pdata	SEGMENT
$pdata$?dtor$0@?0??FrameLock@QSVAllocatorD3D11@@UEAA?AW4mfxStatus@@PEAXPEAUmfxFrameData@@@Z@4HA DD imagerel ?dtor$0@?0??FrameLock@QSVAllocatorD3D11@@UEAA?AW4mfxStatus@@PEAXPEAUmfxFrameData@@@Z@4HA
	DD	imagerel ?dtor$0@?0??FrameLock@QSVAllocatorD3D11@@UEAA?AW4mfxStatus@@PEAXPEAUmfxFrameData@@@Z@4HA+38
	DD	imagerel $unwind$?dtor$0@?0??FrameLock@QSVAllocatorD3D11@@UEAA?AW4mfxStatus@@PEAXPEAUmfxFrameData@@@Z@4HA
pdata	ENDS
pdata	SEGMENT
$pdata$?FrameUnlock@QSVAllocatorD3D11@@UEAA?AW4mfxStatus@@PEAXPEAUmfxFrameData@@@Z DD imagerel $LN8
	DD	imagerel $LN8+766
	DD	imagerel $unwind$?FrameUnlock@QSVAllocatorD3D11@@UEAA?AW4mfxStatus@@PEAXPEAUmfxFrameData@@@Z
$pdata$?GetFrameHDL@QSVAllocatorD3D11@@UEAA?AW4mfxStatus@@PEAXPEAPEAX@Z DD imagerel $LN5
	DD	imagerel $LN5+181
	DD	imagerel $unwind$?GetFrameHDL@QSVAllocatorD3D11@@UEAA?AW4mfxStatus@@PEAXPEAPEAX@Z
$pdata$?CheckRequestType@QSVAllocatorD3D11@@MEAA?AW4mfxStatus@@PEAUmfxFrameAllocRequest@@@Z DD imagerel $LN6
	DD	imagerel $LN6+111
	DD	imagerel $unwind$?CheckRequestType@QSVAllocatorD3D11@@MEAA?AW4mfxStatus@@PEAUmfxFrameAllocRequest@@@Z
$pdata$?ReleaseResponse@QSVAllocatorD3D11@@MEAA?AW4mfxStatus@@PEAUmfxFrameAllocResponse@@@Z DD imagerel $LN11
	DD	imagerel $LN11+623
	DD	imagerel $unwind$?ReleaseResponse@QSVAllocatorD3D11@@MEAA?AW4mfxStatus@@PEAUmfxFrameAllocResponse@@@Z
pdata	ENDS
pdata	SEGMENT
$pdata$?dtor$0@?0??ReleaseResponse@QSVAllocatorD3D11@@MEAA?AW4mfxStatus@@PEAUmfxFrameAllocResponse@@@Z@4HA DD imagerel ?dtor$0@?0??ReleaseResponse@QSVAllocatorD3D11@@MEAA?AW4mfxStatus@@PEAUmfxFrameAllocResponse@@@Z@4HA
	DD	imagerel ?dtor$0@?0??ReleaseResponse@QSVAllocatorD3D11@@MEAA?AW4mfxStatus@@PEAUmfxFrameAllocResponse@@@Z@4HA+38
	DD	imagerel $unwind$?dtor$0@?0??ReleaseResponse@QSVAllocatorD3D11@@MEAA?AW4mfxStatus@@PEAUmfxFrameAllocResponse@@@Z@4HA
$pdata$?dtor$1@?0??ReleaseResponse@QSVAllocatorD3D11@@MEAA?AW4mfxStatus@@PEAUmfxFrameAllocResponse@@@Z@4HA DD imagerel ?dtor$1@?0??ReleaseResponse@QSVAllocatorD3D11@@MEAA?AW4mfxStatus@@PEAUmfxFrameAllocResponse@@@Z@4HA
	DD	imagerel ?dtor$1@?0??ReleaseResponse@QSVAllocatorD3D11@@MEAA?AW4mfxStatus@@PEAUmfxFrameAllocResponse@@@Z@4HA+38
	DD	imagerel $unwind$?dtor$1@?0??ReleaseResponse@QSVAllocatorD3D11@@MEAA?AW4mfxStatus@@PEAUmfxFrameAllocResponse@@@Z@4HA
$pdata$?dtor$2@?0??ReleaseResponse@QSVAllocatorD3D11@@MEAA?AW4mfxStatus@@PEAUmfxFrameAllocResponse@@@Z@4HA DD imagerel ?dtor$2@?0??ReleaseResponse@QSVAllocatorD3D11@@MEAA?AW4mfxStatus@@PEAUmfxFrameAllocResponse@@@Z@4HA
	DD	imagerel ?dtor$2@?0??ReleaseResponse@QSVAllocatorD3D11@@MEAA?AW4mfxStatus@@PEAUmfxFrameAllocResponse@@@Z@4HA+38
	DD	imagerel $unwind$?dtor$2@?0??ReleaseResponse@QSVAllocatorD3D11@@MEAA?AW4mfxStatus@@PEAUmfxFrameAllocResponse@@@Z@4HA
$pdata$?dtor$3@?0??ReleaseResponse@QSVAllocatorD3D11@@MEAA?AW4mfxStatus@@PEAUmfxFrameAllocResponse@@@Z@4HA DD imagerel ?dtor$3@?0??ReleaseResponse@QSVAllocatorD3D11@@MEAA?AW4mfxStatus@@PEAUmfxFrameAllocResponse@@@Z@4HA
	DD	imagerel ?dtor$3@?0??ReleaseResponse@QSVAllocatorD3D11@@MEAA?AW4mfxStatus@@PEAUmfxFrameAllocResponse@@@Z@4HA+35
	DD	imagerel $unwind$?dtor$3@?0??ReleaseResponse@QSVAllocatorD3D11@@MEAA?AW4mfxStatus@@PEAUmfxFrameAllocResponse@@@Z@4HA
pdata	ENDS
pdata	SEGMENT
$pdata$?AllocImpl@QSVAllocatorD3D11@@MEAA?AW4mfxStatus@@PEAUmfxFrameAllocRequest@@PEAUmfxFrameAllocResponse@@@Z DD imagerel $LN31
	DD	imagerel $LN31+2612
	DD	imagerel $unwind$?AllocImpl@QSVAllocatorD3D11@@MEAA?AW4mfxStatus@@PEAUmfxFrameAllocRequest@@PEAUmfxFrameAllocResponse@@@Z
pdata	ENDS
pdata	SEGMENT
$pdata$?dtor$0@?0??AllocImpl@QSVAllocatorD3D11@@MEAA?AW4mfxStatus@@PEAUmfxFrameAllocRequest@@PEAUmfxFrameAllocResponse@@@Z@4HA DD imagerel ?dtor$0@?0??AllocImpl@QSVAllocatorD3D11@@MEAA?AW4mfxStatus@@PEAUmfxFrameAllocRequest@@PEAUmfxFrameAllocResponse@@@Z@4HA
	DD	imagerel ?dtor$0@?0??AllocImpl@QSVAllocatorD3D11@@MEAA?AW4mfxStatus@@PEAUmfxFrameAllocRequest@@PEAUmfxFrameAllocResponse@@@Z@4HA+38
	DD	imagerel $unwind$?dtor$0@?0??AllocImpl@QSVAllocatorD3D11@@MEAA?AW4mfxStatus@@PEAUmfxFrameAllocRequest@@PEAUmfxFrameAllocResponse@@@Z@4HA
$pdata$?dtor$1@?0??AllocImpl@QSVAllocatorD3D11@@MEAA?AW4mfxStatus@@PEAUmfxFrameAllocRequest@@PEAUmfxFrameAllocResponse@@@Z@4HA DD imagerel ?dtor$1@?0??AllocImpl@QSVAllocatorD3D11@@MEAA?AW4mfxStatus@@PEAUmfxFrameAllocRequest@@PEAUmfxFrameAllocResponse@@@Z@4HA
	DD	imagerel ?dtor$1@?0??AllocImpl@QSVAllocatorD3D11@@MEAA?AW4mfxStatus@@PEAUmfxFrameAllocRequest@@PEAUmfxFrameAllocResponse@@@Z@4HA+38
	DD	imagerel $unwind$?dtor$1@?0??AllocImpl@QSVAllocatorD3D11@@MEAA?AW4mfxStatus@@PEAUmfxFrameAllocRequest@@PEAUmfxFrameAllocResponse@@@Z@4HA
$pdata$?dtor$2@?0??AllocImpl@QSVAllocatorD3D11@@MEAA?AW4mfxStatus@@PEAUmfxFrameAllocRequest@@PEAUmfxFrameAllocResponse@@@Z@4HA DD imagerel ?dtor$2@?0??AllocImpl@QSVAllocatorD3D11@@MEAA?AW4mfxStatus@@PEAUmfxFrameAllocRequest@@PEAUmfxFrameAllocResponse@@@Z@4HA
	DD	imagerel ?dtor$2@?0??AllocImpl@QSVAllocatorD3D11@@MEAA?AW4mfxStatus@@PEAUmfxFrameAllocRequest@@PEAUmfxFrameAllocResponse@@@Z@4HA+35
	DD	imagerel $unwind$?dtor$2@?0??AllocImpl@QSVAllocatorD3D11@@MEAA?AW4mfxStatus@@PEAUmfxFrameAllocRequest@@PEAUmfxFrameAllocResponse@@@Z@4HA
$pdata$?dtor$3@?0??AllocImpl@QSVAllocatorD3D11@@MEAA?AW4mfxStatus@@PEAUmfxFrameAllocRequest@@PEAUmfxFrameAllocResponse@@@Z@4HA DD imagerel ?dtor$3@?0??AllocImpl@QSVAllocatorD3D11@@MEAA?AW4mfxStatus@@PEAUmfxFrameAllocRequest@@PEAUmfxFrameAllocResponse@@@Z@4HA
	DD	imagerel ?dtor$3@?0??AllocImpl@QSVAllocatorD3D11@@MEAA?AW4mfxStatus@@PEAUmfxFrameAllocRequest@@PEAUmfxFrameAllocResponse@@@Z@4HA+38
	DD	imagerel $unwind$?dtor$3@?0??AllocImpl@QSVAllocatorD3D11@@MEAA?AW4mfxStatus@@PEAUmfxFrameAllocRequest@@PEAUmfxFrameAllocResponse@@@Z@4HA
pdata	ENDS
;	COMDAT pdata
pdata	SEGMENT
$pdata$??0?$allocator@PEAX@std@@QEAA@XZ DD imagerel $LN3
	DD	imagerel $LN3+13
	DD	imagerel $unwind$??0?$allocator@PEAX@std@@QEAA@XZ
pdata	ENDS
;	COMDAT pdata
pdata	SEGMENT
$pdata$?deallocate@?$allocator@PEAX@std@@QEAAXQEAPEAX_K@Z DD imagerel $LN3
	DD	imagerel $LN3+68
	DD	imagerel $unwind$?deallocate@?$allocator@PEAX@std@@QEAAXQEAPEAX_K@Z
pdata	ENDS
;	COMDAT pdata
pdata	SEGMENT
$pdata$?allocate@?$allocator@PEAX@std@@QEAAPEAPEAX_K@Z DD imagerel $LN3
	DD	imagerel $LN3+59
	DD	imagerel $unwind$?allocate@?$allocator@PEAX@std@@QEAAPEAPEAX_K@Z
pdata	ENDS
;	COMDAT pdata
pdata	SEGMENT
$pdata$?max_size@?$_Default_allocator_traits@V?$allocator@PEAX@std@@@std@@SA_KAEBV?$allocator@PEAX@2@@Z DD imagerel $LN3
	DD	imagerel $LN3+18
	DD	imagerel $unwind$?max_size@?$_Default_allocator_traits@V?$allocator@PEAX@std@@@std@@SA_KAEBV?$allocator@PEAX@2@@Z
pdata	ENDS
;	COMDAT pdata
pdata	SEGMENT
$pdata$?select_on_container_copy_construction@?$_Default_allocator_traits@V?$allocator@PEAX@std@@@std@@SA?AV?$allocator@PEAX@2@AEBV32@@Z DD imagerel $LN3
	DD	imagerel $LN3+18
	DD	imagerel $unwind$?select_on_container_copy_construction@?$_Default_allocator_traits@V?$allocator@PEAX@std@@@std@@SA?AV?$allocator@PEAX@2@AEBV32@@Z
pdata	ENDS
;	COMDAT pdata
pdata	SEGMENT
$pdata$??0?$vector@PEAXV?$allocator@PEAX@std@@@std@@QEAA@XZ DD imagerel $LN3
	DD	imagerel $LN3+99
	DD	imagerel $unwind$??0?$vector@PEAXV?$allocator@PEAX@std@@@std@@QEAA@XZ
pdata	ENDS
;	COMDAT pdata
pdata	SEGMENT
$pdata$??0?$vector@PEAXV?$allocator@PEAX@std@@@std@@QEAA@AEBV01@@Z DD imagerel $LN6
	DD	imagerel $LN6+394
	DD	imagerel $unwind$??0?$vector@PEAXV?$allocator@PEAX@std@@@std@@QEAA@AEBV01@@Z
pdata	ENDS
;	COMDAT pdata
pdata	SEGMENT
$pdata$?dtor$0@?0???0?$vector@PEAXV?$allocator@PEAX@std@@@std@@QEAA@AEBV01@@Z@4HA DD imagerel ?dtor$0@?0???0?$vector@PEAXV?$allocator@PEAX@std@@@std@@QEAA@AEBV01@@Z@4HA
	DD	imagerel ?dtor$0@?0???0?$vector@PEAXV?$allocator@PEAX@std@@@std@@QEAA@AEBV01@@Z@4HA+35
	DD	imagerel $unwind$?dtor$0@?0???0?$vector@PEAXV?$allocator@PEAX@std@@@std@@QEAA@AEBV01@@Z@4HA
pdata	ENDS
;	COMDAT pdata
pdata	SEGMENT
$pdata$?dtor$1@?0???0?$vector@PEAXV?$allocator@PEAX@std@@@std@@QEAA@AEBV01@@Z@4HA DD imagerel ?dtor$1@?0???0?$vector@PEAXV?$allocator@PEAX@std@@@std@@QEAA@AEBV01@@Z@4HA
	DD	imagerel ?dtor$1@?0???0?$vector@PEAXV?$allocator@PEAX@std@@@std@@QEAA@AEBV01@@Z@4HA+38
	DD	imagerel $unwind$?dtor$1@?0???0?$vector@PEAXV?$allocator@PEAX@std@@@std@@QEAA@AEBV01@@Z@4HA
pdata	ENDS
;	COMDAT pdata
pdata	SEGMENT
$pdata$??1?$vector@PEAXV?$allocator@PEAX@std@@@std@@QEAA@XZ DD imagerel $LN3
	DD	imagerel $LN3+140
	DD	imagerel $unwind$??1?$vector@PEAXV?$allocator@PEAX@std@@@std@@QEAA@XZ
pdata	ENDS
;	COMDAT pdata
pdata	SEGMENT
$pdata$?push_back@?$vector@PEAXV?$allocator@PEAX@std@@@std@@QEAAX$$QEAPEAX@Z DD imagerel $LN3
	DD	imagerel $LN3+64
	DD	imagerel $unwind$?push_back@?$vector@PEAXV?$allocator@PEAX@std@@@std@@QEAAX$$QEAPEAX@Z
pdata	ENDS
;	COMDAT pdata
pdata	SEGMENT
$pdata$?empty@?$vector@PEAXV?$allocator@PEAX@std@@@std@@QEBA_NXZ DD imagerel $LN5
	DD	imagerel $LN5+86
	DD	imagerel $unwind$?empty@?$vector@PEAXV?$allocator@PEAX@std@@@std@@QEBA_NXZ
pdata	ENDS
;	COMDAT pdata
pdata	SEGMENT
$pdata$?max_size@?$vector@PEAXV?$allocator@PEAX@std@@@std@@QEBA_KXZ DD imagerel $LN3
	DD	imagerel $LN3+87
	DD	imagerel $unwind$?max_size@?$vector@PEAXV?$allocator@PEAX@std@@@std@@QEBA_KXZ
pdata	ENDS
;	COMDAT pdata
pdata	SEGMENT
$pdata$?capacity@?$vector@PEAXV?$allocator@PEAX@std@@@std@@QEBA_KXZ DD imagerel $LN3
	DD	imagerel $LN3+68
	DD	imagerel $unwind$?capacity@?$vector@PEAXV?$allocator@PEAX@std@@@std@@QEBA_KXZ
pdata	ENDS
;	COMDAT pdata
pdata	SEGMENT
$pdata$?front@?$vector@PEAXV?$allocator@PEAX@std@@@std@@QEAAAEAPEAXXZ DD imagerel $LN12
	DD	imagerel $LN12+194
	DD	imagerel $unwind$?front@?$vector@PEAXV?$allocator@PEAX@std@@@std@@QEAAAEAPEAXXZ
pdata	ENDS
;	COMDAT pdata
pdata	SEGMENT
$pdata$?back@?$vector@PEAXV?$allocator@PEAX@std@@@std@@QEAAAEAPEAXXZ DD imagerel $LN12
	DD	imagerel $LN12+203
	DD	imagerel $unwind$?back@?$vector@PEAXV?$allocator@PEAX@std@@@std@@QEAAAEAPEAXXZ
pdata	ENDS
;	COMDAT pdata
pdata	SEGMENT
$pdata$?_Umove@?$vector@PEAXV?$allocator@PEAX@std@@@std@@AEAAPEAPEAXPEAPEAX00@Z DD imagerel $LN3
	DD	imagerel $LN3+84
	DD	imagerel $unwind$?_Umove@?$vector@PEAXV?$allocator@PEAX@std@@@std@@AEAAPEAPEAXPEAPEAX00@Z
pdata	ENDS
;	COMDAT pdata
pdata	SEGMENT
$pdata$?_Umove_if_noexcept1@?$vector@PEAXV?$allocator@PEAX@std@@@std@@AEAAXPEAPEAX00U?$integral_constant@_N$00@2@@Z DD imagerel $LN3
	DD	imagerel $LN3+84
	DD	imagerel $unwind$?_Umove_if_noexcept1@?$vector@PEAXV?$allocator@PEAX@std@@@std@@AEAAXPEAPEAX00U?$integral_constant@_N$00@2@@Z
pdata	ENDS
;	COMDAT pdata
pdata	SEGMENT
$pdata$?_Umove_if_noexcept@?$vector@PEAXV?$allocator@PEAX@std@@@std@@AEAAXPEAPEAX00@Z DD imagerel $LN3
	DD	imagerel $LN3+102
	DD	imagerel $unwind$?_Umove_if_noexcept@?$vector@PEAXV?$allocator@PEAX@std@@@std@@AEAAXPEAPEAX00@Z
pdata	ENDS
;	COMDAT pdata
pdata	SEGMENT
$pdata$?_Destroy@?$vector@PEAXV?$allocator@PEAX@std@@@std@@AEAAXPEAPEAX0@Z DD imagerel $LN3
	DD	imagerel $LN3+74
	DD	imagerel $unwind$?_Destroy@?$vector@PEAXV?$allocator@PEAX@std@@@std@@AEAAXPEAPEAX0@Z
pdata	ENDS
;	COMDAT pdata
pdata	SEGMENT
$pdata$?_Calculate_growth@?$vector@PEAXV?$allocator@PEAX@std@@@std@@AEBA_K_K@Z DD imagerel $LN5
	DD	imagerel $LN5+166
	DD	imagerel $unwind$?_Calculate_growth@?$vector@PEAXV?$allocator@PEAX@std@@@std@@AEBA_K_K@Z
pdata	ENDS
;	COMDAT pdata
pdata	SEGMENT
$pdata$?_Buy_raw@?$vector@PEAXV?$allocator@PEAX@std@@@std@@AEAAX_K@Z DD imagerel $LN3
	DD	imagerel $LN3+169
	DD	imagerel $unwind$?_Buy_raw@?$vector@PEAXV?$allocator@PEAX@std@@@std@@AEAAX_K@Z
pdata	ENDS
;	COMDAT pdata
pdata	SEGMENT
$pdata$?_Change_array@?$vector@PEAXV?$allocator@PEAX@std@@@std@@AEAAXQEAPEAX_K1@Z DD imagerel $LN4
	DD	imagerel $LN4+269
	DD	imagerel $unwind$?_Change_array@?$vector@PEAXV?$allocator@PEAX@std@@@std@@AEAAXQEAPEAX_K1@Z
pdata	ENDS
;	COMDAT pdata
pdata	SEGMENT
$pdata$?_Tidy@?$vector@PEAXV?$allocator@PEAX@std@@@std@@AEAAXXZ DD imagerel $LN4
	DD	imagerel $LN4+237
	DD	imagerel $unwind$?_Tidy@?$vector@PEAXV?$allocator@PEAX@std@@@std@@AEAAXXZ
pdata	ENDS
;	COMDAT pdata
pdata	SEGMENT
$pdata$?_Xlength@?$vector@PEAXV?$allocator@PEAX@std@@@std@@CAXXZ DD imagerel $LN3
	DD	imagerel $LN3+39
	DD	imagerel $unwind$?_Xlength@?$vector@PEAXV?$allocator@PEAX@std@@@std@@CAXXZ
pdata	ENDS
;	COMDAT pdata
pdata	SEGMENT
$pdata$?_Orphan_range@?$vector@PEAXV?$allocator@PEAX@std@@@std@@AEBAXPEAPEAX0@Z DD imagerel $LN9
	DD	imagerel $LN9+214
	DD	imagerel $unwind$?_Orphan_range@?$vector@PEAXV?$allocator@PEAX@std@@@std@@AEBAXPEAPEAX0@Z
pdata	ENDS
;	COMDAT pdata
pdata	SEGMENT
$pdata$?dtor$0@?0??_Orphan_range@?$vector@PEAXV?$allocator@PEAX@std@@@std@@AEBAXPEAPEAX0@Z@4HA DD imagerel ?dtor$0@?0??_Orphan_range@?$vector@PEAXV?$allocator@PEAX@std@@@std@@AEBAXPEAPEAX0@Z@4HA
	DD	imagerel ?dtor$0@?0??_Orphan_range@?$vector@PEAXV?$allocator@PEAX@std@@@std@@AEBAXPEAPEAX0@Z@4HA+36
	DD	imagerel $unwind$?dtor$0@?0??_Orphan_range@?$vector@PEAXV?$allocator@PEAX@std@@@std@@AEBAXPEAPEAX0@Z@4HA
pdata	ENDS
;	COMDAT pdata
pdata	SEGMENT
$pdata$?_Getal@?$vector@PEAXV?$allocator@PEAX@std@@@std@@AEAAAEAV?$allocator@PEAX@2@XZ DD imagerel $LN3
	DD	imagerel $LN3+49
	DD	imagerel $unwind$?_Getal@?$vector@PEAXV?$allocator@PEAX@std@@@std@@AEAAAEAV?$allocator@PEAX@2@XZ
pdata	ENDS
;	COMDAT pdata
pdata	SEGMENT
$pdata$?_Getal@?$vector@PEAXV?$allocator@PEAX@std@@@std@@AEBAAEBV?$allocator@PEAX@2@XZ DD imagerel $LN3
	DD	imagerel $LN3+49
	DD	imagerel $unwind$?_Getal@?$vector@PEAXV?$allocator@PEAX@std@@@std@@AEBAAEBV?$allocator@PEAX@2@XZ
pdata	ENDS
;	COMDAT pdata
pdata	SEGMENT
$pdata$??0?$_Vector_val@U?$_Simple_types@PEAX@std@@@std@@QEAA@XZ DD imagerel $LN3
	DD	imagerel $LN3+90
	DD	imagerel $unwind$??0?$_Vector_val@U?$_Simple_types@PEAX@std@@@std@@QEAA@XZ
pdata	ENDS
;	COMDAT pdata
pdata	SEGMENT
$pdata$?_Get_first@?$_Compressed_pair@V?$allocator@PEAX@std@@V?$_Vector_val@U?$_Simple_types@PEAX@std@@@2@$00@std@@QEAAAEAV?$allocator@PEAX@2@XZ DD imagerel $LN3
	DD	imagerel $LN3+13
	DD	imagerel $unwind$?_Get_first@?$_Compressed_pair@V?$allocator@PEAX@std@@V?$_Vector_val@U?$_Simple_types@PEAX@std@@@2@$00@std@@QEAAAEAV?$allocator@PEAX@2@XZ
pdata	ENDS
;	COMDAT pdata
pdata	SEGMENT
$pdata$?_Get_first@?$_Compressed_pair@V?$allocator@PEAX@std@@V?$_Vector_val@U?$_Simple_types@PEAX@std@@@2@$00@std@@QEBAAEBV?$allocator@PEAX@2@XZ DD imagerel $LN3
	DD	imagerel $LN3+13
	DD	imagerel $unwind$?_Get_first@?$_Compressed_pair@V?$allocator@PEAX@std@@V?$_Vector_val@U?$_Simple_types@PEAX@std@@@2@$00@std@@QEBAAEBV?$allocator@PEAX@2@XZ
pdata	ENDS
;	COMDAT pdata
pdata	SEGMENT
$pdata$??0?$allocator@PEAUID3D11Texture2D@@@std@@QEAA@XZ DD imagerel $LN3
	DD	imagerel $LN3+13
	DD	imagerel $unwind$??0?$allocator@PEAUID3D11Texture2D@@@std@@QEAA@XZ
pdata	ENDS
;	COMDAT pdata
pdata	SEGMENT
$pdata$?deallocate@?$allocator@PEAUID3D11Texture2D@@@std@@QEAAXQEAPEAUID3D11Texture2D@@_K@Z DD imagerel $LN3
	DD	imagerel $LN3+68
	DD	imagerel $unwind$?deallocate@?$allocator@PEAUID3D11Texture2D@@@std@@QEAAXQEAPEAUID3D11Texture2D@@_K@Z
pdata	ENDS
;	COMDAT pdata
pdata	SEGMENT
$pdata$?allocate@?$allocator@PEAUID3D11Texture2D@@@std@@QEAAPEAPEAUID3D11Texture2D@@_K@Z DD imagerel $LN3
	DD	imagerel $LN3+59
	DD	imagerel $unwind$?allocate@?$allocator@PEAUID3D11Texture2D@@@std@@QEAAPEAPEAUID3D11Texture2D@@_K@Z
pdata	ENDS
;	COMDAT pdata
pdata	SEGMENT
$pdata$?max_size@?$_Default_allocator_traits@V?$allocator@PEAUID3D11Texture2D@@@std@@@std@@SA_KAEBV?$allocator@PEAUID3D11Texture2D@@@2@@Z DD imagerel $LN3
	DD	imagerel $LN3+18
	DD	imagerel $unwind$?max_size@?$_Default_allocator_traits@V?$allocator@PEAUID3D11Texture2D@@@std@@@std@@SA_KAEBV?$allocator@PEAUID3D11Texture2D@@@2@@Z
pdata	ENDS
;	COMDAT pdata
pdata	SEGMENT
$pdata$?select_on_container_copy_construction@?$_Default_allocator_traits@V?$allocator@PEAUID3D11Texture2D@@@std@@@std@@SA?AV?$allocator@PEAUID3D11Texture2D@@@2@AEBV32@@Z DD imagerel $LN3
	DD	imagerel $LN3+18
	DD	imagerel $unwind$?select_on_container_copy_construction@?$_Default_allocator_traits@V?$allocator@PEAUID3D11Texture2D@@@std@@@std@@SA?AV?$allocator@PEAUID3D11Texture2D@@@2@AEBV32@@Z
pdata	ENDS
;	COMDAT pdata
pdata	SEGMENT
$pdata$??0?$vector@PEAUID3D11Texture2D@@V?$allocator@PEAUID3D11Texture2D@@@std@@@std@@QEAA@XZ DD imagerel $LN3
	DD	imagerel $LN3+99
	DD	imagerel $unwind$??0?$vector@PEAUID3D11Texture2D@@V?$allocator@PEAUID3D11Texture2D@@@std@@@std@@QEAA@XZ
pdata	ENDS
;	COMDAT pdata
pdata	SEGMENT
$pdata$??0?$vector@PEAUID3D11Texture2D@@V?$allocator@PEAUID3D11Texture2D@@@std@@@std@@QEAA@AEBV01@@Z DD imagerel $LN6
	DD	imagerel $LN6+394
	DD	imagerel $unwind$??0?$vector@PEAUID3D11Texture2D@@V?$allocator@PEAUID3D11Texture2D@@@std@@@std@@QEAA@AEBV01@@Z
pdata	ENDS
;	COMDAT pdata
pdata	SEGMENT
$pdata$?dtor$0@?0???0?$vector@PEAUID3D11Texture2D@@V?$allocator@PEAUID3D11Texture2D@@@std@@@std@@QEAA@AEBV01@@Z@4HA DD imagerel ?dtor$0@?0???0?$vector@PEAUID3D11Texture2D@@V?$allocator@PEAUID3D11Texture2D@@@std@@@std@@QEAA@AEBV01@@Z@4HA
	DD	imagerel ?dtor$0@?0???0?$vector@PEAUID3D11Texture2D@@V?$allocator@PEAUID3D11Texture2D@@@std@@@std@@QEAA@AEBV01@@Z@4HA+35
	DD	imagerel $unwind$?dtor$0@?0???0?$vector@PEAUID3D11Texture2D@@V?$allocator@PEAUID3D11Texture2D@@@std@@@std@@QEAA@AEBV01@@Z@4HA
pdata	ENDS
;	COMDAT pdata
pdata	SEGMENT
$pdata$?dtor$1@?0???0?$vector@PEAUID3D11Texture2D@@V?$allocator@PEAUID3D11Texture2D@@@std@@@std@@QEAA@AEBV01@@Z@4HA DD imagerel ?dtor$1@?0???0?$vector@PEAUID3D11Texture2D@@V?$allocator@PEAUID3D11Texture2D@@@std@@@std@@QEAA@AEBV01@@Z@4HA
	DD	imagerel ?dtor$1@?0???0?$vector@PEAUID3D11Texture2D@@V?$allocator@PEAUID3D11Texture2D@@@std@@@std@@QEAA@AEBV01@@Z@4HA+38
	DD	imagerel $unwind$?dtor$1@?0???0?$vector@PEAUID3D11Texture2D@@V?$allocator@PEAUID3D11Texture2D@@@std@@@std@@QEAA@AEBV01@@Z@4HA
pdata	ENDS
;	COMDAT pdata
pdata	SEGMENT
$pdata$??1?$vector@PEAUID3D11Texture2D@@V?$allocator@PEAUID3D11Texture2D@@@std@@@std@@QEAA@XZ DD imagerel $LN3
	DD	imagerel $LN3+140
	DD	imagerel $unwind$??1?$vector@PEAUID3D11Texture2D@@V?$allocator@PEAUID3D11Texture2D@@@std@@@std@@QEAA@XZ
pdata	ENDS
;	COMDAT pdata
pdata	SEGMENT
$pdata$?push_back@?$vector@PEAUID3D11Texture2D@@V?$allocator@PEAUID3D11Texture2D@@@std@@@std@@QEAAXAEBQEAUID3D11Texture2D@@@Z DD imagerel $LN3
	DD	imagerel $LN3+56
	DD	imagerel $unwind$?push_back@?$vector@PEAUID3D11Texture2D@@V?$allocator@PEAUID3D11Texture2D@@@std@@@std@@QEAAXAEBQEAUID3D11Texture2D@@@Z
pdata	ENDS
;	COMDAT pdata
pdata	SEGMENT
$pdata$?push_back@?$vector@PEAUID3D11Texture2D@@V?$allocator@PEAUID3D11Texture2D@@@std@@@std@@QEAAX$$QEAPEAUID3D11Texture2D@@@Z DD imagerel $LN3
	DD	imagerel $LN3+64
	DD	imagerel $unwind$?push_back@?$vector@PEAUID3D11Texture2D@@V?$allocator@PEAUID3D11Texture2D@@@std@@@std@@QEAAX$$QEAPEAUID3D11Texture2D@@@Z
pdata	ENDS
;	COMDAT pdata
pdata	SEGMENT
$pdata$?clear@?$vector@PEAUID3D11Texture2D@@V?$allocator@PEAUID3D11Texture2D@@@std@@@std@@QEAAXXZ DD imagerel $LN3
