; Listing generated by Microsoft (R) Optimizing Compiler Version 19.23.28106.4 

include listing.inc

INCLUDELIB MSVCRTD
INCLUDELIB OLDNAMES

CONST	SEGMENT
$SG125785 DB	'h264', 00H
	ORG $+3
$SG125786 DB	'hevc', 00H
	ORG $+3
$SG125787 DB	'mpeg2', 00H
	ORG $+2
$SG125788 DB	'vc-1', 00H
	ORG $+3
$SG125789 DB	'vp8', 00H
$SG125790 DB	'raw', 00H
$SG125792 DB	'CBR', 00H
$SG125793 DB	'VBR', 00H
$SG125794 DB	'CQP', 00H
$SG125795 DB	'AVBR', 00H
	ORG $+3
$SG125796 DB	'LA', 00H
	ORG $+1
$SG125797 DB	'LA-EXT', 00H
	ORG $+1
$SG125798 DB	'LA-HRD', 00H
	ORG $+1
$SG125799 DB	'LA-ICQ', 00H
	ORG $+1
$SG125800 DB	'ICQ', 00H
$SG125801 DB	'QVBR', 00H
	ORG $+3
$SG125802 DB	'VCM', 00H
$SG125804 DB	'auto', 00H
	ORG $+3
?list_avc_profile@@3QBUCX_DESC@@B DQ FLAT:$SG125804	; list_avc_profile
	DD	00H
	ORG $+4
	DQ	FLAT:$SG125805
	DD	042H
	ORG $+4
	DQ	FLAT:$SG125806
	DD	04dH
	ORG $+4
	DQ	FLAT:$SG125807
	DD	064H
	ORG $+4
	DQ	0000000000000000H
	DD	00H
	ORG $+4
$SG125805 DB	'Baseline', 00H
	ORG $+3
$SG125806 DB	'Main', 00H
	ORG $+3
$SG125807 DB	'High', 00H
	ORG $+7
?list_hevc_profile@@3QBUCX_DESC@@B DQ FLAT:$SG125809	; list_hevc_profile
	DD	00H
	ORG $+4
	DQ	FLAT:$SG125810
	DD	01H
	ORG $+4
	DQ	FLAT:$SG125811
	DD	02H
	ORG $+4
	DQ	0000000000000000H
	DD	00H
	ORG $+4
$SG125809 DB	'auto', 00H
	ORG $+3
$SG125810 DB	'main', 00H
	ORG $+3
$SG125811 DB	'main10', 00H
	ORG $+1
$SG125813 DB	'main', 00H
	ORG $+3
$SG125814 DB	'high', 00H
	ORG $+3
$SG125816 DB	'auto', 00H
	ORG $+3
?list_mpeg2_profile@@3QBUCX_DESC@@B DQ FLAT:$SG125816	; list_mpeg2_profile
	DD	00H
	ORG $+4
	DQ	FLAT:$SG125817
	DD	050H
	ORG $+4
	DQ	FLAT:$SG125818
	DD	040H
	ORG $+4
	DQ	FLAT:$SG125819
	DD	010H
	ORG $+4
	DQ	0000000000000000H
	DD	00H
	ORG $+4
$SG125817 DB	'Simple', 00H
	ORG $+1
$SG125818 DB	'Main', 00H
	ORG $+3
$SG125819 DB	'High', 00H
	ORG $+3
$SG125821 DB	'auto', 00H
	ORG $+3
?list_vc1_profile@@3QBUCX_DESC@@B DQ FLAT:$SG125821	; list_vc1_profile
	DD	00H
	ORG $+4
	DQ	FLAT:$SG125822
	DD	01H
	ORG $+4
	DQ	FLAT:$SG125823
	DD	05H
	ORG $+4
	DQ	FLAT:$SG125824
	DD	0dH
	ORG $+4
	DQ	0000000000000000H
	DD	00H
	ORG $+4
$SG125822 DB	'Simple', 00H
	ORG $+1
$SG125823 DB	'Main', 00H
	ORG $+3
$SG125824 DB	'Advanced', 00H
	ORG $+7
?list_vp8_profile@@3QBUCX_DESC@@B DQ FLAT:$SG125826	; list_vp8_profile
	DD	00H
	ORG $+4
	DQ	FLAT:$SG125827
	DD	01H
	ORG $+4
	DQ	FLAT:$SG125828
	DD	02H
	ORG $+4
	DQ	FLAT:$SG125829
	DD	03H
	ORG $+4
	DQ	FLAT:$SG125830
	DD	04H
	ORG $+4
	DQ	0000000000000000H
	DD	00H
	ORG $+4
$SG125826 DB	'auto', 00H
	ORG $+3
$SG125827 DB	'0', 00H
	ORG $+2
$SG125828 DB	'1', 00H
	ORG $+2
$SG125829 DB	'2', 00H
	ORG $+2
$SG125830 DB	'3', 00H
	ORG $+2
$SG125832 DB	'auto', 00H
	ORG $+3
?list_vp9_profile@@3QBUCX_DESC@@B DQ FLAT:$SG125832	; list_vp9_profile
	DD	00H
	ORG $+4
	DQ	FLAT:$SG125833
	DD	01H
	ORG $+4
	DQ	FLAT:$SG125834
	DD	02H
	ORG $+4
	DQ	FLAT:$SG125835
	DD	03H
	ORG $+4
	DQ	FLAT:$SG125836
	DD	04H
	ORG $+4
	DQ	0000000000000000H
	DD	00H
	ORG $+4
$SG125833 DB	'0', 00H
	ORG $+2
$SG125834 DB	'1', 00H
	ORG $+2
$SG125835 DB	'2', 00H
	ORG $+2
$SG125836 DB	'3', 00H
	ORG $+2
$SG125838 DB	'8', 00H
	ORG $+2
$SG125839 DB	'10', 00H
	ORG $+1
$SG125841 DB	'progressive', 00H
$SG125847 DB	'it', 00H
	ORG $+1
$SG125842 DB	'interlaced(tff)', 00H
$SG125843 DB	'interlaced(bff)', 00H
$SG125845 DB	'none', 00H
	ORG $+3
$SG125846 DB	'normal', 00H
	ORG $+1
$SG125848 DB	'bob', 00H
$SG125850 DB	'32', 00H
	ORG $+1
$SG125851 DB	'2332', 00H
	ORG $+3
$SG125852 DB	'repeat', 00H
	ORG $+1
$SG125853 DB	'41', 00H
	ORG $+1
$SG125855 DB	'auto', 00H
	ORG $+7
?list_avc_level@@3QBUCX_DESC@@B DQ FLAT:$SG125855	; list_avc_level
	DD	00H
	ORG $+4
	DQ	FLAT:$SG125856
	DD	0aH
	ORG $+4
	DQ	FLAT:$SG125857
	DD	09H
	ORG $+4
	DQ	FLAT:$SG125858
	DD	0bH
	ORG $+4
	DQ	FLAT:$SG125859
	DD	0cH
	ORG $+4
	DQ	FLAT:$SG125860
	DD	0dH
	ORG $+4
	DQ	FLAT:$SG125861
	DD	014H
	ORG $+4
	DQ	FLAT:$SG125862
	DD	015H
	ORG $+4
	DQ	FLAT:$SG125863
	DD	016H
	ORG $+4
	DQ	FLAT:$SG125864
	DD	01eH
	ORG $+4
	DQ	FLAT:$SG125865
	DD	01fH
	ORG $+4
	DQ	FLAT:$SG125866
	DD	020H
	ORG $+4
	DQ	FLAT:$SG125867
	DD	028H
	ORG $+4
	DQ	FLAT:$SG125868
	DD	029H
	ORG $+4
	DQ	FLAT:$SG125869
	DD	02aH
	ORG $+4
	DQ	FLAT:$SG125870
	DD	032H
	ORG $+4
	DQ	FLAT:$SG125871
	DD	033H
	ORG $+4
	DQ	FLAT:$SG125872
	DD	034H
	ORG $+4
	DQ	0000000000000000H
	DD	00H
	ORG $+4
$SG125856 DB	'1', 00H
	ORG $+2
$SG125857 DB	'1b', 00H
	ORG $+1
$SG125858 DB	'1.1', 00H
$SG125859 DB	'1.2', 00H
$SG125860 DB	'1.3', 00H
$SG125861 DB	'2', 00H
	ORG $+2
$SG125862 DB	'2.1', 00H
$SG125863 DB	'2.2', 00H
$SG125864 DB	'3', 00H
	ORG $+2
$SG125865 DB	'3.1', 00H
$SG125866 DB	'3.2', 00H
$SG125867 DB	'4', 00H
	ORG $+2
$SG125868 DB	'4.1', 00H
$SG125869 DB	'4.2', 00H
$SG125870 DB	'5', 00H
	ORG $+2
$SG125871 DB	'5.1', 00H
$SG125872 DB	'5.2', 00H
$SG125874 DB	'auto', 00H
	ORG $+7
?list_hevc_level@@3QBUCX_DESC@@B DQ FLAT:$SG125874	; list_hevc_level
	DD	00H
	ORG $+4
	DQ	FLAT:$SG125875
	DD	0aH
	ORG $+4
	DQ	FLAT:$SG125876
	DD	014H
	ORG $+4
	DQ	FLAT:$SG125877
	DD	015H
	ORG $+4
	DQ	FLAT:$SG125878
	DD	01eH
	ORG $+4
	DQ	FLAT:$SG125879
	DD	01fH
	ORG $+4
	DQ	FLAT:$SG125880
	DD	028H
	ORG $+4
	DQ	FLAT:$SG125881
	DD	029H
	ORG $+4
	DQ	FLAT:$SG125882
	DD	032H
	ORG $+4
	DQ	FLAT:$SG125883
	DD	033H
	ORG $+4
	DQ	FLAT:$SG125884
	DD	034H
	ORG $+4
	DQ	FLAT:$SG125885
	DD	03cH
	ORG $+4
	DQ	FLAT:$SG125886
	DD	03dH
	ORG $+4
	DQ	FLAT:$SG125887
	DD	03eH
	ORG $+4
	DQ	0000000000000000H
	DD	00H
	ORG $+4
$SG125875 DB	'1', 00H
	ORG $+2
$SG125876 DB	'2', 00H
	ORG $+2
$SG125877 DB	'2.1', 00H
$SG125878 DB	'3', 00H
	ORG $+2
$SG125879 DB	'3.1', 00H
$SG125880 DB	'4', 00H
	ORG $+2
$SG125881 DB	'4.1', 00H
$SG125882 DB	'5', 00H
	ORG $+2
$SG125883 DB	'5.1', 00H
$SG125884 DB	'5.2', 00H
$SG125885 DB	'6', 00H
	ORG $+2
$SG125886 DB	'6.1', 00H
$SG125887 DB	'6.2', 00H
$SG125889 DB	'auto', 00H
	ORG $+7
?list_mpeg2_level@@3QBUCX_DESC@@B DQ FLAT:$SG125889	; list_mpeg2_level
	DD	00H
	ORG $+4
	DQ	FLAT:$SG125890
	DD	0aH
	ORG $+4
	DQ	FLAT:$SG125891
	DD	08H
	ORG $+4
	DQ	FLAT:$SG125892
	DD	04H
	ORG $+4
	DQ	FLAT:$SG125893
	DD	06H
	ORG $+4
	DQ	0000000000000000H
	DD	00H
	ORG $+4
$SG125890 DB	'low', 00H
$SG125891 DB	'main', 00H
	ORG $+3
$SG125892 DB	'high', 00H
	ORG $+3
$SG125896 DB	'low', 00H
$SG125893 DB	'high1440', 00H
	ORG $+3
$SG125895 DB	'auto', 00H
	ORG $+7
?list_vc1_level@@3QBUCX_DESC@@B DQ FLAT:$SG125895	; list_vc1_level
	DD	00H
	ORG $+4
	DQ	FLAT:$SG125896
	DD	01H
	ORG $+4
	DQ	FLAT:$SG125897
	DD	03H
	ORG $+4
	DQ	FLAT:$SG125898
	DD	05H
	ORG $+4
	DQ	0000000000000000H
	DD	00H
	ORG $+4
$SG125897 DB	'median', 00H
	ORG $+1
$SG125898 DB	'high', 00H
	ORG $+3
$SG125900 DB	'auto', 00H
	ORG $+3
$SG125901 DB	'0', 00H
	ORG $+2
$SG125902 DB	'1', 00H
	ORG $+2
$SG125903 DB	'2', 00H
	ORG $+2
$SG125904 DB	'3', 00H
	ORG $+2
$SG125905 DB	'4', 00H
	ORG $+2
$SG125912 DB	'off', 00H
?list_vp8_level@@3QBUCX_DESC@@B DQ FLAT:$SG125907	; list_vp8_level
	DD	00H
	ORG $+4
	DQ	0000000000000000H
	DD	00H
	ORG $+4
$SG125907 DB	'auto', 00H
	ORG $+3
?list_vp9_level@@3QBUCX_DESC@@B DQ FLAT:$SG125909	; list_vp9_level
	DD	00H
	ORG $+4
	DQ	0000000000000000H
	DD	00H
	ORG $+4
$SG125909 DB	'auto', 00H
	ORG $+3
$SG125911 DB	'Auto', 00H
	ORG $+3
$SG125913 DB	'for I frames', 00H
	ORG $+3
$SG125914 DB	'for I,P frames', 00H
	ORG $+1
$SG125915 DB	'for All frames', 00H
	ORG $+1
$SG125917 DB	'auto', 00H
	ORG $+3
$SG125918 DB	'off', 00H
$SG125919 DB	'i', 00H
	ORG $+2
$SG125920 DB	'ip', 00H
	ORG $+1
$SG125921 DB	'all', 00H
$SG125922 DB	'ipb', 00H
$SG125923 DB	'ib', 00H
	ORG $+1
$SG125924 DB	'p', 00H
	ORG $+2
$SG125925 DB	'pb', 00H
	ORG $+1
$SG125926 DB	'b', 00H
	ORG $+2
$SG125928 DB	'auto', 00H
	ORG $+3
$SG125929 DB	'slow', 00H
	ORG $+3
$SG125930 DB	'medium', 00H
	ORG $+1
$SG125931 DB	'fast', 00H
	ORG $+3
$SG125934 DB	'0', 00H
	ORG $+2
$SG125933 DB	'default', 00H
$SG125935 DB	'1', 00H
	ORG $+2
$SG125936 DB	'2', 00H
	ORG $+2
$SG125937 DB	'3', 00H
	ORG $+2
$SG125938 DB	'4', 00H
	ORG $+2
$SG125940 DB	'low', 00H
$SG125941 DB	'normal', 00H
	ORG $+1
$SG125942 DB	'high', 00H
	ORG $+3
$SG125954 DB	'none', 00H
	ORG $+3
$SG125955 DB	'copy', 00H
	ORG $+3
$SG125956 DB	'aac', 00H
$SG125957 DB	'libmp3lame', 00H
	ORG $+1
$SG125962 DB	'ac3', 00H
$SG125958 DB	'libtwolame', 00H
	ORG $+1
$SG125993 DB	'tff', 00H
$SG125959 DB	'libvorbis', 00H
	ORG $+2
$SG125994 DB	'bff', 00H
$SG125960 DB	'pcm_s16le', 00H
	ORG $+2
$SG126005 DB	'higher', 00H
	ORG $+1
$SG126019 DB	'8x8', 00H
$SG125961 DB	'libopus', 00H
$SG125992 DB	'none', 00H
	ORG $+3
$SG125996 DB	' 1 - best quality', 00H
	ORG $+2
$SG126009 DB	'faster', 00H
	ORG $+1
$SG126020 DB	'4x4', 00H
$SG125997 DB	' 2 - higher', 00H
$SG126023 DB	'16', 00H
	ORG $+1
$SG125998 DB	' 3 - high quality', 00H
	ORG $+2
$SG126024 DB	'32', 00H
	ORG $+1
$SG125999 DB	' 4 - balanced', 00H
	ORG $+2
$SG126000 DB	' 5 - fast', 00H
	ORG $+2
$SG126025 DB	'64', 00H
	ORG $+1
$SG126001 DB	' 6 - faster', 00H
$SG126033 DB	'all', 00H
$SG126002 DB	' 7 - fastest', 00H
	ORG $+3
$SG126004 DB	'best', 00H
	ORG $+3
$SG126006 DB	'high', 00H
	ORG $+3
$SG126007 DB	'balanced', 00H
	ORG $+3
$SG126008 DB	'fast', 00H
	ORG $+3
$SG126015 DB	'Q-pel', 00H
	ORG $+2
$SG126032 DB	'chroma', 00H
	ORG $+1
$SG126037 DB	'box', 00H
$SG126010 DB	'fastest', 00H
$SG126012 DB	'Auto', 00H
	ORG $+3
$SG126013 DB	'full-pel', 00H
	ORG $+3
$SG126018 DB	'16x16', 00H
	ORG $+2
$SG126039 DB	'off', 00H
$SG126014 DB	'half-pel', 00H
	ORG $+3
$SG126017 DB	'Auto', 00H
	ORG $+3
$SG126022 DB	'auto', 00H
	ORG $+3
$SG126029 DB	'auto', 00H
	ORG $+3
$SG126030 DB	'none', 00H
	ORG $+3
$SG126031 DB	'luma', 00H
	ORG $+3
$SG126035 DB	'none', 00H
	ORG $+3
$SG126040 DB	'x2', 00H
	ORG $+1
$SG126036 DB	'upscale', 00H
$SG126041 DB	'x2.5', 00H
	ORG $+3
$SG126043 DB	'simple', 00H
	ORG $+1
$SG126044 DB	'complex', 00H
$SG126046 DB	'0', 00H
	ORG $+2
$SG126047 DB	'90', 00H
	ORG $+1
$SG126048 DB	'180', 00H
$SG126049 DB	'270', 00H
$SG126051 DB	'n', 00H
	ORG $+2
$SG126052 DB	'h', 00H
	ORG $+2
$SG126053 DB	'v', 00H
	ORG $+2
$SG126055 DB	'auto', 00H
	ORG $+3
$SG126056 DB	'simple', 00H
	ORG $+1
$SG126057 DB	'fine', 00H
	ORG $+3
$SG126059 DB	'auto', 00H
	ORG $+3
$SG126060 DB	'none', 00H
	ORG $+3
$SG126061 DB	'sse2', 00H
	ORG $+3
$SG126062 DB	'sse3', 00H
	ORG $+3
$SG126063 DB	'ssse3', 00H
	ORG $+2
$SG126064 DB	'sse41', 00H
	ORG $+2
$SG126065 DB	'avx', 00H
$SG126066 DB	'avx2', 00H
	ORG $+3
$SG126458 DB	'%s', 00H
	ORG $+1
$SG110664 DB	'rgb', 00H
$SG126780 DB	'QSVAllocator: FrameAlloc: %s, %d frames.', 0aH, 00H
	ORG $+2
$SG110636 DB	'yuv422', 00H
	ORG $+1
$SG110666 DB	'gbr', 00H
$SG126782 DB	'QSVAllocator: Failed CheckRequestType: %s', 0aH, 00H
	ORG $+1
$SG110669 DB	'y8', 00H
	ORG $+1
$SG126785 DB	'QSVAllocator: Allocate type external.', 0aH, 00H
	ORG $+1
$SG126790 DB	'QSVAllocator: NumFrameSuggested > it->NumFrameActual', 0aH
	DB	00H
	ORG $+2
$SG126794 DB	'QSVAllocator: Failed Allocate type external: %s', 0aH, 00H
	ORG $+3
$SG110638 DB	'yuv444', 00H
	ORG $+1
$SG111614 DB	'VP8', 00H
$SG126796 DB	'QSVAllocator: Allocate type internal.', 0aH, 00H
	ORG $+1
$SG126799 DB	'QSVAllocator: Failed Allocate type internal: %s', 0aH, 00H
	ORG $+3
$SG110658 DB	'rgb24r', 00H
	ORG $+1
$SG111616 DB	'VP9', 00H
$SG126800 DB	'QSVAllocator: FrameAlloc success.', 0aH, 00H
	ORG $+1
$SG112227 DB	'fcc', 00H
$SG110632 DB	'Invalid', 00H
$SG110633 DB	'nv12', 00H
	ORG $+3
$SG110634 DB	'yv12', 00H
	ORG $+3
$SG110635 DB	'yuy2', 00H
	ORG $+3
$SG110637 DB	'nv16', 00H
	ORG $+3
$SG110639 DB	'yv12(9bit)', 00H
	ORG $+1
$SG112228 DB	'GBR', 00H
$SG110640 DB	'yv12(10bit)', 00H
$SG112541 DB	'pal', 00H
$SG110641 DB	'yv12(12bit)', 00H
$SG112543 DB	'mac', 00H
$SG110642 DB	'yv12(14bit)', 00H
$SG112545 DB	'0', 00H
	ORG $+2
$SG110643 DB	'yv12(16bit)', 00H
$SG110644 DB	'p010', 00H
	ORG $+3
$SG110659 DB	'rgb32r', 00H
	ORG $+1
$SG112546 DB	'1', 00H
	ORG $+2
$SG110645 DB	'yuv422(9bit)', 00H
	ORG $+3
$SG110646 DB	'yuv422(10bit)', 00H
	ORG $+2
$SG110647 DB	'yuv422(12bit)', 00H
	ORG $+2
$SG110648 DB	'yuv422(14bit)', 00H
	ORG $+2
$SG110649 DB	'yuv422(16bit)', 00H
	ORG $+2
$SG110650 DB	'p210', 00H
	ORG $+3
$SG110651 DB	'yuv444(9bit)', 00H
	ORG $+3
$SG110652 DB	'yuv444(10bit)', 00H
	ORG $+2
$SG110653 DB	'yuv444(12bit)', 00H
	ORG $+2
$SG110654 DB	'yuv444(14bit)', 00H
	ORG $+2
$SG127039 DB	'QSVAllocator: FrameFree...', 0aH, 00H
$SG112547 DB	'2', 00H
	ORG $+2
$SG110655 DB	'yuv444(16bit)', 00H
	ORG $+2
$SG110656 DB	'yuva444', 00H
$SG110657 DB	'yuva444(16bit)', 00H
	ORG $+1
$SG127044 DB	'QSVAllocator: FrameFree external success.', 0aH, 00H
	ORG $+1
$SG110660 DB	'rgb24', 00H
	ORG $+2
$SG110661 DB	'rgb32', 00H
	ORG $+2
$SG110662 DB	'bgr24', 00H
	ORG $+2
$SG110663 DB	'bgr32', 00H
	ORG $+2
$SG112379 DB	'bt470m', 00H
	ORG $+1
$SG112548 DB	'3', 00H
	ORG $+2
$SG127048 DB	'QSVAllocator: FrameFree internal success.', 0aH, 00H
	ORG $+1
$SG110665 DB	'rgba', 00H
	ORG $+3
$SG110667 DB	'gbra', 00H
	ORG $+3
$SG110668 DB	'yc48', 00H
	ORG $+3
$SG110670 DB	'yc16', 00H
	ORG $+3
$SG111606 DB	'MPEG2', 00H
	ORG $+2
$SG112382 DB	'linear', 00H
	ORG $+1
$SG112549 DB	'4', 00H
	ORG $+2
$SG127087 DB	'QSVAllocator: Closed.', 0aH, 00H
	ORG $+1
$SG111602 DB	'H.264/AVC', 00H
	ORG $+2
$SG112383 DB	'log100', 00H
	ORG $+1
$SG112550 DB	'5', 00H
	ORG $+2
$SG111604 DB	'H.265/HEVC', 00H
	ORG $+1
$SG111608 DB	'MPEG1', 00H
	ORG $+2
$SG111610 DB	'VC-1', 00H
	ORG $+3
$SG111612 DB	'MPEG4', 00H
	ORG $+2
$SG112384 DB	'log316', 00H
	ORG $+1
$SG112554 DB	'tv', 00H
	ORG $+1
$SG111618 DB	'unknown', 00H
$SG111725 DB	'unknown', 00H
$SG112220 DB	'undef', 00H
	ORG $+2
?list_colormatrix@@3QBUCX_DESC@@B DQ FLAT:$SG112220	; list_colormatrix
	DD	02H
	ORG $+4
	DQ	FLAT:$SG112221
	DD	07fffffffH
	ORG $+4
	DQ	FLAT:$SG112222
	DD	01H
	ORG $+4
	DQ	FLAT:$SG112223
	DD	06H
	ORG $+4
	DQ	FLAT:$SG112224
	DD	05H
	ORG $+4
	DQ	FLAT:$SG112225
	DD	07H
	ORG $+4
	DQ	FLAT:$SG112226
	DD	08H
	ORG $+4
	DQ	FLAT:$SG112227
	DD	04H
	ORG $+4
	DQ	FLAT:$SG112228
	DD	00H
	ORG $+4
	DQ	FLAT:$SG112229
	DD	09H
	ORG $+4
	DQ	FLAT:$SG112230
	DD	0aH
	ORG $+4
	DQ	FLAT:$SG112231
	DD	0cH
	ORG $+4
	DQ	FLAT:$SG112232
	DD	0dH
	ORG $+4
	DQ	FLAT:$SG112233
	DD	0eH
	ORG $+4
	DQ	FLAT:$SG112234
	DD	0fH
	ORG $+4
	DQ	0000000000000000H
	DD	00H
	ORG $+4
$SG112221 DB	'auto', 00H
	ORG $+3
$SG112222 DB	'bt709', 00H
	ORG $+2
$SG112223 DB	'smpte170m', 00H
	ORG $+2
$SG112528 DB	'bt470m', 00H
	ORG $+1
$SG112555 DB	'pc', 00H
	ORG $+1
$SG112224 DB	'bt470bg', 00H
$SG112225 DB	'smpte240m', 00H
	ORG $+2
$SG112226 DB	'YCgCo', 00H
	ORG $+2
$SG112532 DB	'bt2020', 00H
	ORG $+1
$SG137323 DB	'%s', 00H
	ORG $+1
$SG112229 DB	'bt2020nc', 00H
	ORG $+3
$SG112233 DB	'ictco', 00H
	ORG $+2
$SG121504 DB	'.', 0aH, 00H
	ORG $+1
$SG112230 DB	'bt2020c', 00H
$SG112231 DB	'derived-ncl', 00H
$SG121584 DB	'srt', 00H
$SG112232 DB	'derived-cl', 00H
	ORG $+1
$SG121585 DB	'ass', 00H
$SG112234 DB	'2100-lms', 00H
	ORG $+7
?list_transfer@@3QBUCX_DESC@@B DQ FLAT:$SG112375	; list_transfer
	DD	02H
	ORG $+4
	DQ	FLAT:$SG112376
	DD	07fffffffH
	ORG $+4
	DQ	FLAT:$SG112377
	DD	01H
	ORG $+4
	DQ	FLAT:$SG112378
	DD	06H
	ORG $+4
	DQ	FLAT:$SG112379
	DD	04H
	ORG $+4
	DQ	FLAT:$SG112380
	DD	05H
	ORG $+4
	DQ	FLAT:$SG112381
	DD	07H
	ORG $+4
	DQ	FLAT:$SG112382
	DD	08H
	ORG $+4
	DQ	FLAT:$SG112383
	DD	09H
	ORG $+4
	DQ	FLAT:$SG112384
	DD	0aH
	ORG $+4
	DQ	FLAT:$SG112385
	DD	0bH
	ORG $+4
	DQ	FLAT:$SG112386
	DD	0cH
	ORG $+4
	DQ	FLAT:$SG112387
	DD	0dH
	ORG $+4
	DQ	FLAT:$SG112388
	DD	0eH
	ORG $+4
	DQ	FLAT:$SG112389
	DD	0fH
	ORG $+4
	DQ	FLAT:$SG112390
	DD	010H
	ORG $+4
	DQ	FLAT:$SG112391
	DD	011H
	ORG $+4
	DQ	FLAT:$SG112392
	DD	012H
	ORG $+4
	DQ	0000000000000000H
	DD	00H
	ORG $+4
$SG112375 DB	'undef', 00H
	ORG $+2
$SG112376 DB	'auto', 00H
	ORG $+3
$SG112377 DB	'bt709', 00H
	ORG $+2
$SG112378 DB	'smpte170m', 00H
	ORG $+2
$SG121594 DB	'box', 00H
$SG112380 DB	'bt470bg', 00H
$SG112381 DB	'smpte240m', 00H
	ORG $+2
$SG113644 DB	'cfr', 00H
$SG112385 DB	'iec61966-2-4', 00H
	ORG $+3
$SG112386 DB	'bt1361e', 00H
$SG112387 DB	'iec61966-2-1', 00H
	ORG $+3
$SG112388 DB	'bt2020-10', 00H
	ORG $+2
$SG113645 DB	'vfr', 00H
$SG112389 DB	'bt2020-12', 00H
	ORG $+2
$SG113648 DB	'swr', 00H
$SG112390 DB	'smpte2084', 00H
	ORG $+6
$SG112391 DB	'smpte428', 00H
	ORG $+7
$SG112392 DB	'arib-srd-b67', 00H
	ORG $+3
$SG112524 DB	'undef', 00H
	ORG $+2
?list_colorprim@@3QBUCX_DESC@@B DQ FLAT:$SG112524	; list_colorprim
	DD	02H
	ORG $+4
	DQ	FLAT:$SG112525
	DD	07fffffffH
	ORG $+4
	DQ	FLAT:$SG112526
	DD	01H
	ORG $+4
	DQ	FLAT:$SG112527
	DD	06H
	ORG $+4
	DQ	FLAT:$SG112528
	DD	04H
	ORG $+4
	DQ	FLAT:$SG112529
	DD	05H
	ORG $+4
	DQ	FLAT:$SG112530
	DD	07H
	ORG $+4
	DQ	FLAT:$SG112531
	DD	08H
	ORG $+4
	DQ	FLAT:$SG112532
	DD	09H
	ORG $+4
	DQ	FLAT:$SG112533
	DD	0aH
	ORG $+4
	DQ	FLAT:$SG112534
	DD	0bH
	ORG $+4
	DQ	FLAT:$SG112535
	DD	0cH
	ORG $+4
	DQ	FLAT:$SG112536
	DD	0dH
	ORG $+4
	DQ	0000000000000000H
	DD	00H
	ORG $+4
$SG112525 DB	'auto', 00H
	ORG $+3
$SG112526 DB	'bt709', 00H
	ORG $+2
$SG112527 DB	'smpte170m', 00H
	ORG $+6
$SG112529 DB	'bt470bg', 00H
$SG112530 DB	'smpte240m', 00H
	ORG $+2
$SG112531 DB	'film', 00H
	ORG $+3
$SG112533 DB	'st428', 00H
	ORG $+6
$SG112534 DB	'st431-2', 00H
$SG112535 DB	'st432-1', 00H
$SG112536 DB	'ebu3213-e', 00H
	ORG $+2
$SG112538 DB	'undef', 00H
	ORG $+6
?list_videoformat@@3QBUCX_DESC@@B DQ FLAT:$SG112538	; list_videoformat
	DD	05H
	ORG $+4
	DQ	FLAT:$SG112539
	DD	02H
	ORG $+4
	DQ	FLAT:$SG112540
	DD	00H
	ORG $+4
	DQ	FLAT:$SG112541
	DD	01H
	ORG $+4
	DQ	FLAT:$SG112542
	DD	03H
	ORG $+4
	DQ	FLAT:$SG112543
	DD	04H
	ORG $+4
	DQ	0000000000000000H
	DD	00H
	ORG $+4
$SG112539 DB	'ntsc', 00H
	ORG $+3
$SG112540 DB	'component', 00H
	ORG $+2
$SG112542 DB	'secam', 00H
	ORG $+6
$SG112552 DB	'limited', 00H
$SG112553 DB	'full', 00H
	ORG $+3
$SG137322 DB	'invalid argument', 00H
	ORG $+7
$SG137327 DB	'"', 00H, 'i', 00H, 'n', 00H, 'v', 00H, 'a', 00H, 'l', 00H
	DB	'i', 00H, 'd', 00H, ' ', 00H, 'a', 00H, 'r', 00H, 'g', 00H, 'u'
	DB	00H, 'm', 00H, 'e', 00H, 'n', 00H, 't', 00H, '"', 00H, 00H, 00H
	ORG $+2
$SG137324 DB	'C:\Program Files (x86)\Microsoft Visual Studio\2019\Comm'
	DB	'unity\VC\Tools\MSVC\14.23.28105\include\xmemory', 00H
$SG121377 DB	'auto', 00H
	ORG $+3
$SG137325 DB	'C', 00H, ':', 00H, '\', 00H, 'P', 00H, 'r', 00H, 'o', 00H
	DB	'g', 00H, 'r', 00H, 'a', 00H, 'm', 00H, ' ', 00H, 'F', 00H, 'i'
	DB	00H, 'l', 00H, 'e', 00H, 's', 00H, ' ', 00H, '(', 00H, 'x', 00H
	DB	'8', 00H, '6', 00H, ')', 00H, '\', 00H, 'M', 00H, 'i', 00H, 'c'
	DB	00H, 'r', 00H, 'o', 00H, 's', 00H, 'o', 00H, 'f', 00H, 't', 00H
	DB	' ', 00H, 'V', 00H, 'i', 00H, 's', 00H, 'u', 00H, 'a', 00H, 'l'
	DB	00H, ' ', 00H, 'S', 00H, 't', 00H, 'u', 00H, 'd', 00H, 'i', 00H
	DB	'o', 00H, '\', 00H, '2', 00H, '0', 00H, '1', 00H, '9', 00H, '\'
	DB	00H, 'C', 00H, 'o', 00H, 'm', 00H, 'm', 00H, 'u', 00H, 'n', 00H
	DB	'i', 00H, 't', 00H, 'y', 00H, '\', 00H, 'V', 00H, 'C', 00H, '\'
	DB	00H, 'T', 00H, 'o', 00H, 'o', 00H, 'l', 00H, 's', 00H, '\', 00H
	DB	'M', 00H, 'S', 00H, 'V', 00H, 'C', 00H, '\', 00H, '1', 00H, '4'
	DB	00H, '.', 00H, '2', 00H, '3', 00H, '.', 00H, '2', 00H, '8', 00H
	DB	'1', 00H, '0', 00H, '5', 00H, '\', 00H, 'i', 00H, 'n', 00H, 'c'
	DB	00H, 'l', 00H, 'u', 00H, 'd', 00H, 'e', 00H, '\', 00H, 'x', 00H
	DB	'm', 00H, 'e', 00H, 'm', 00H, 'o', 00H, 'r', 00H, 'y', 00H, 00H
	DB	00H
$SG137326 DB	's', 00H, 't', 00H, 'd', 00H, ':', 00H, ':', 00H, '_', 00H
	DB	'A', 00H, 'l', 00H, 'l', 00H, 'o', 00H, 'c', 00H, 'a', 00H, 't'
	DB	00H, 'e', 00H, '_', 00H, 'm', 00H, 'a', 00H, 'n', 00H, 'u', 00H
	DB	'a', 00H, 'l', 00H, 'l', 00H, 'y', 00H, '_', 00H, 'v', 00H, 'e'
	DB	00H, 'c', 00H, 't', 00H, 'o', 00H, 'r', 00H, '_', 00H, 'a', 00H
	DB	'l', 00H, 'i', 00H, 'g', 00H, 'n', 00H, 'e', 00H, 'd', 00H, 00H
	DB	00H
	ORG $+2
$SG137418 DB	'C:\Program Files (x86)\Microsoft Visual Studio\2019\Comm'
	DB	'unity\VC\Tools\MSVC\14.23.28105\include\xlocale', 00H
?HW_DECODE_LIST@@3QBUCodecMap@@B DD 01bH		; HW_DECODE_LIST
	DD	01H
	DD	0adH
	DD	02H
	DD	02H
	DD	04H
	DD	08bH
	DD	06H
	DD	0a7H
	DD	07H
	DD	046H
	DD	08H
$SG121379 DB	'copy', 00H
	ORG $+3
$SG121505 DB	' for ', 00H
	ORG $+2
$SG121508 DB	'avcodec-58.dll', 00H
	ORG $+1
$SG121509 DB	'avformat-58.dll', 00H
$SG121510 DB	'avutil-56.dll', 00H
	ORG $+2
$SG121511 DB	'avfilter-7.dll', 00H
	ORG $+1
$SG121512 DB	'swresample-3.dll', 00H
	ORG $+7
$SG121583 DB	'invalid', 00H
$SG121592 DB	'invalid', 00H
$SG121593 DB	'kigou', 00H
	ORG $+2
$SG121595 DB	'draw', 00H
	ORG $+3
?list_empty@@3QBUCX_DESC@@B DQ 0000000000000000H	; list_empty
	DD	00H
	ORG $+4
$SG113637 DB	'trace', 00H
	ORG $+2
$SG113638 DB	'debug', 00H
	ORG $+2
$SG113639 DB	'more', 00H
	ORG $+3
$SG113640 DB	'info', 00H
	ORG $+3
$SG113641 DB	'warn', 00H
	ORG $+3
$SG113642 DB	'error', 00H
	ORG $+2
$SG113646 DB	'forcecfr', 00H
	ORG $+3
$SG113649 DB	'soxr', 00H
CONST	ENDS
PUBLIC	?__empty_global_delete@@YAXPEAX@Z		; __empty_global_delete
PUBLIC	?__empty_global_delete@@YAXPEAX_K@Z		; __empty_global_delete
PUBLIC	??2@YAPEAX_KPEAX@Z				; operator new
PUBLIC	?max@?$numeric_limits@_J@std@@SA_JXZ		; std::numeric_limits<__int64>::max
PUBLIC	??0exception@std@@QEAA@QEBDH@Z			; std::exception::exception
PUBLIC	??0exception@std@@QEAA@AEBV01@@Z		; std::exception::exception
PUBLIC	??1exception@std@@UEAA@XZ			; std::exception::~exception
PUBLIC	?what@exception@std@@UEBAPEBDXZ			; std::exception::what
PUBLIC	??_Gexception@std@@UEAAPEAXI@Z			; std::exception::`scalar deleting destructor'
PUBLIC	??0bad_alloc@std@@AEAA@QEBD@Z			; std::bad_alloc::bad_alloc
PUBLIC	??1bad_alloc@std@@UEAA@XZ			; std::bad_alloc::~bad_alloc
PUBLIC	??0bad_alloc@std@@QEAA@AEBV01@@Z		; std::bad_alloc::bad_alloc
PUBLIC	??_Gbad_alloc@std@@UEAAPEAXI@Z			; std::bad_alloc::`scalar deleting destructor'
PUBLIC	??0bad_array_new_length@std@@QEAA@XZ		; std::bad_array_new_length::bad_array_new_length
PUBLIC	??1bad_array_new_length@std@@UEAA@XZ		; std::bad_array_new_length::~bad_array_new_length
PUBLIC	??0bad_array_new_length@std@@QEAA@AEBV01@@Z	; std::bad_array_new_length::bad_array_new_length
PUBLIC	??_Gbad_array_new_length@std@@UEAAPEAXI@Z	; std::bad_array_new_length::`scalar deleting destructor'
PUBLIC	?_Throw_bad_array_new_length@std@@YAXXZ		; std::_Throw_bad_array_new_length
PUBLIC	?_Allocate@_Default_allocate_traits@std@@SAPEAX_K@Z ; std::_Default_allocate_traits::_Allocate
PUBLIC	?_Adjust_manually_vector_aligned@std@@YAXAEAPEAXAEA_K@Z ; std::_Adjust_manually_vector_aligned
PUBLIC	?_Adopt@_Iterator_base0@std@@QEAAXPEBX@Z	; std::_Iterator_base0::_Adopt
PUBLIC	??0_Container_proxy@std@@QEAA@PEAU_Container_base12@1@@Z ; std::_Container_proxy::_Container_proxy
PUBLIC	??0_Container_base12@std@@QEAA@XZ		; std::_Container_base12::_Container_base12
PUBLIC	?_Orphan_all@_Container_base12@std@@QEAAXXZ	; std::_Container_base12::_Orphan_all
PUBLIC	??0_Iterator_base12@std@@QEAA@XZ		; std::_Iterator_base12::_Iterator_base12
PUBLIC	??0_Iterator_base12@std@@QEAA@AEBU01@@Z		; std::_Iterator_base12::_Iterator_base12
PUBLIC	??4_Iterator_base12@std@@QEAAAEAU01@AEBU01@@Z	; std::_Iterator_base12::operator=
PUBLIC	??1_Iterator_base12@std@@QEAA@XZ		; std::_Iterator_base12::~_Iterator_base12
PUBLIC	?_Adopt@_Iterator_base12@std@@QEAAXPEBU_Container_base12@2@@Z ; std::_Iterator_base12::_Adopt
PUBLIC	?_Getcont@_Iterator_base12@std@@QEBAPEBU_Container_base12@2@XZ ; std::_Iterator_base12::_Getcont
PUBLIC	?_Orphan_me@_Iterator_base12@std@@QEAAXXZ	; std::_Iterator_base12::_Orphan_me
PUBLIC	?_Release@_Basic_container_proxy_ptr12@std@@QEAAXXZ ; std::_Basic_container_proxy_ptr12::_Release
PUBLIC	?_Decref@_Ref_count_base@std@@QEAAXXZ		; std::_Ref_count_base::_Decref
PUBLIC	?_Decwref@_Ref_count_base@std@@QEAAXXZ		; std::_Ref_count_base::_Decwref
PUBLIC	?assign@?$_Narrow_char_traits@DH@std@@SAXAEADAEBD@Z ; std::_Narrow_char_traits<char,int>::assign
PUBLIC	?deallocate@?$allocator@D@std@@QEAAXQEAD_K@Z	; std::allocator<char>::deallocate
PUBLIC	?_Myptr@?$_String_val@U?$_Simple_types@D@std@@@std@@QEBAPEBDXZ ; std::_String_val<std::_Simple_types<char> >::_Myptr
PUBLIC	?_Large_string_engaged@?$_String_val@U?$_Simple_types@D@std@@@std@@QEBA_NXZ ; std::_String_val<std::_Simple_types<char> >::_Large_string_engaged
PUBLIC	??1_Bxty@?$_String_val@U?$_Simple_types@D@std@@@std@@QEAA@XZ ; std::_String_val<std::_Simple_types<char> >::_Bxty::~_Bxty
PUBLIC	??1?$_String_val@U?$_Simple_types@D@std@@@std@@QEAA@XZ ; std::_String_val<std::_Simple_types<char> >::~_String_val<std::_Simple_types<char> >
PUBLIC	??1?$basic_string@DU?$char_traits@D@std@@V?$allocator@D@2@@std@@QEAA@XZ ; std::basic_string<char,std::char_traits<char>,std::allocator<char> >::~basic_string<char,std::char_traits<char>,std::allocator<char> >
PUBLIC	?c_str@?$basic_string@DU?$char_traits@D@std@@V?$allocator@D@2@@std@@QEBAPEBDXZ ; std::basic_string<char,std::char_traits<char>,std::allocator<char> >::c_str
PUBLIC	?_Tidy_deallocate@?$basic_string@DU?$char_traits@D@std@@V?$allocator@D@2@@std@@AEAAXXZ ; std::basic_string<char,std::char_traits<char>,std::allocator<char> >::_Tidy_deallocate
PUBLIC	?_Getal@?$basic_string@DU?$char_traits@D@std@@V?$allocator@D@2@@std@@AEAAAEAV?$allocator@D@2@XZ ; std::basic_string<char,std::char_traits<char>,std::allocator<char> >::_Getal
PUBLIC	?_Get_first@?$_Compressed_pair@V?$allocator@D@std@@V?$_String_val@U?$_Simple_types@D@std@@@2@$00@std@@QEAAAEAV?$allocator@D@2@XZ ; std::_Compressed_pair<std::allocator<char>,std::_String_val<std::_Simple_types<char> >,1>::_Get_first
PUBLIC	??1?$_Compressed_pair@V?$allocator@D@std@@V?$_String_val@U?$_Simple_types@D@std@@@2@$00@std@@QEAA@XZ ; std::_Compressed_pair<std::allocator<char>,std::_String_val<std::_Simple_types<char> >,1>::~_Compressed_pair<std::allocator<char>,std::_String_val<std::_Simple_types<char> >,1>
PUBLIC	??$make_array@W4CspMatrix@@W41@W41@W41@W41@W41@W41@W41@W41@W41@W41@W41@W41@W41@W41@@@YA?AV?$array@W4CspMatrix@@$0O@@std@@$$QEAW4CspMatrix@@0000000000000@Z ; make_array<enum CspMatrix,enum CspMatrix,enum CspMatrix,enum CspMatrix,enum CspMatrix,enum CspMatrix,enum CspMatrix,enum CspMatrix,enum CspMatrix,enum CspMatrix,enum CspMatrix,enum CspMatrix,enum CspMatrix,enum CspMatrix,enum CspMatrix>
PUBLIC	??$make_array@W4CspTransfer@@W41@W41@W41@W41@W41@W41@W41@W41@W41@W41@W41@W41@W41@W41@W41@@@YA?AV?$array@W4CspTransfer@@$0P@@std@@$$QEAW4CspTransfer@@00000000000000@Z ; make_array<enum CspTransfer,enum CspTransfer,enum CspTransfer,enum CspTransfer,enum CspTransfer,enum CspTransfer,enum CspTransfer,enum CspTransfer,enum CspTransfer,enum CspTransfer,enum CspTransfer,enum CspTransfer,enum CspTransfer,enum CspTransfer,enum CspTransfer,enum CspTransfer>
PUBLIC	??$make_array@W4CspColorprim@@W41@W41@W41@W41@W41@W41@W41@W41@W41@W41@W41@W41@@@YA?AV?$array@W4CspColorprim@@$0M@@std@@$$QEAW4CspColorprim@@00000000000@Z ; make_array<enum CspColorprim,enum CspColorprim,enum CspColorprim,enum CspColorprim,enum CspColorprim,enum CspColorprim,enum CspColorprim,enum CspColorprim,enum CspColorprim,enum CspColorprim,enum CspColorprim,enum CspColorprim,enum CspColorprim>
PUBLIC	??0QSVBufferAllocator@@QEAA@XZ			; QSVBufferAllocator::QSVBufferAllocator
PUBLIC	??1QSVBufferAllocator@@UEAA@XZ			; QSVBufferAllocator::~QSVBufferAllocator
PUBLIC	?Alloc_@QSVBufferAllocator@@CA?AW4mfxStatus@@PEAXIGPEAPEAX@Z ; QSVBufferAllocator::Alloc_
PUBLIC	?Lock_@QSVBufferAllocator@@CA?AW4mfxStatus@@PEAX0PEAPEAE@Z ; QSVBufferAllocator::Lock_
PUBLIC	?Unlock_@QSVBufferAllocator@@CA?AW4mfxStatus@@PEAX0@Z ; QSVBufferAllocator::Unlock_
PUBLIC	?Free_@QSVBufferAllocator@@CA?AW4mfxStatus@@PEAX0@Z ; QSVBufferAllocator::Free_
PUBLIC	??_GQSVBufferAllocator@@UEAAPEAXI@Z		; QSVBufferAllocator::`scalar deleting destructor'
PUBLIC	??0QSVAllocator@@QEAA@XZ			; QSVAllocator::QSVAllocator
PUBLIC	??1QSVAllocator@@UEAA@XZ			; QSVAllocator::~QSVAllocator
PUBLIC	?Close@QSVAllocator@@UEAA?AW4mfxStatus@@XZ	; QSVAllocator::Close
PUBLIC	?FrameAlloc@QSVAllocator@@UEAA?AW4mfxStatus@@PEAUmfxFrameAllocRequest@@PEAUmfxFrameAllocResponse@@@Z ; QSVAllocator::FrameAlloc
PUBLIC	?FrameFree@QSVAllocator@@UEAA?AW4mfxStatus@@PEAUmfxFrameAllocResponse@@@Z ; QSVAllocator::FrameFree
PUBLIC	?Alloc_@QSVAllocator@@CA?AW4mfxStatus@@PEAXPEAUmfxFrameAllocRequest@@PEAUmfxFrameAllocResponse@@@Z ; QSVAllocator::Alloc_
PUBLIC	?Lock_@QSVAllocator@@CA?AW4mfxStatus@@PEAX0PEAUmfxFrameData@@@Z ; QSVAllocator::Lock_
PUBLIC	?Unlock_@QSVAllocator@@CA?AW4mfxStatus@@PEAX0PEAUmfxFrameData@@@Z ; QSVAllocator::Unlock_
PUBLIC	?GetHDL_@QSVAllocator@@CA?AW4mfxStatus@@PEAX0PEAPEAX@Z ; QSVAllocator::GetHDL_
PUBLIC	?Free_@QSVAllocator@@CA?AW4mfxStatus@@PEAXPEAUmfxFrameAllocResponse@@@Z ; QSVAllocator::Free_
PUBLIC	?CheckRequestType@QSVAllocator@@MEAA?AW4mfxStatus@@PEAUmfxFrameAllocRequest@@@Z ; QSVAllocator::CheckRequestType
PUBLIC	??0UniqueResponse@QSVAllocator@@QEAA@AEBUmfxFrameAllocResponse@@GGG@Z ; QSVAllocator::UniqueResponse::UniqueResponse
PUBLIC	??RUniqueResponse@QSVAllocator@@QEBA_NAEBU01@@Z	; QSVAllocator::UniqueResponse::operator()
PUBLIC	??0?$allocator@U?$_List_node@UmfxFrameAllocResponse@@PEAX@std@@@std@@QEAA@XZ ; std::allocator<std::_List_node<mfxFrameAllocResponse,void *> >::allocator<std::_List_node<mfxFrameAllocResponse,void *> >
PUBLIC	?deallocate@?$allocator@U?$_List_node@UmfxFrameAllocResponse@@PEAX@std@@@std@@QEAAXQEAU?$_List_node@UmfxFrameAllocResponse@@PEAX@2@_K@Z ; std::allocator<std::_List_node<mfxFrameAllocResponse,void *> >::deallocate
PUBLIC	?allocate@?$allocator@U?$_List_node@UmfxFrameAllocResponse@@PEAX@std@@@std@@QEAAPEAU?$_List_node@UmfxFrameAllocResponse@@PEAX@2@_K@Z ; std::allocator<std::_List_node<mfxFrameAllocResponse,void *> >::allocate
PUBLIC	?deallocate@?$_Default_allocator_traits@V?$allocator@U?$_List_node@UmfxFrameAllocResponse@@PEAX@std@@@std@@@std@@SAXAEAV?$allocator@U?$_List_node@UmfxFrameAllocResponse@@PEAX@std@@@2@QEAU?$_List_node@UmfxFrameAllocResponse@@PEAX@2@_K@Z ; std::_Default_allocator_traits<std::allocator<std::_List_node<mfxFrameAllocResponse,void *> > >::deallocate
PUBLIC	?max_size@?$_Default_allocator_traits@V?$allocator@U?$_List_node@UmfxFrameAllocResponse@@PEAX@std@@@std@@@std@@SA_KAEBV?$allocator@U?$_List_node@UmfxFrameAllocResponse@@PEAX@std@@@2@@Z ; std::_Default_allocator_traits<std::allocator<std::_List_node<mfxFrameAllocResponse,void *> > >::max_size
PUBLIC	??0?$list@UmfxFrameAllocResponse@@V?$allocator@UmfxFrameAllocResponse@@@std@@@std@@QEAA@XZ ; std::list<mfxFrameAllocResponse,std::allocator<mfxFrameAllocResponse> >::list<mfxFrameAllocResponse,std::allocator<mfxFrameAllocResponse> >
PUBLIC	?push_back@?$list@UmfxFrameAllocResponse@@V?$allocator@UmfxFrameAllocResponse@@@std@@@std@@QEAAX$$QEAUmfxFrameAllocResponse@@@Z ; std::list<mfxFrameAllocResponse,std::allocator<mfxFrameAllocResponse> >::push_back
PUBLIC	??1?$list@UmfxFrameAllocResponse@@V?$allocator@UmfxFrameAllocResponse@@@std@@@std@@QEAA@XZ ; std::list<mfxFrameAllocResponse,std::allocator<mfxFrameAllocResponse> >::~list<mfxFrameAllocResponse,std::allocator<mfxFrameAllocResponse> >
PUBLIC	?begin@?$list@UmfxFrameAllocResponse@@V?$allocator@UmfxFrameAllocResponse@@@std@@@std@@QEAA?AV?$_List_iterator@V?$_List_val@U?$_List_simple_types@UmfxFrameAllocResponse@@@std@@@std@@@2@XZ ; std::list<mfxFrameAllocResponse,std::allocator<mfxFrameAllocResponse> >::begin
PUBLIC	?end@?$list@UmfxFrameAllocResponse@@V?$allocator@UmfxFrameAllocResponse@@@std@@@std@@QEAA?AV?$_List_iterator@V?$_List_val@U?$_List_simple_types@UmfxFrameAllocResponse@@@std@@@std@@@2@XZ ; std::list<mfxFrameAllocResponse,std::allocator<mfxFrameAllocResponse> >::end
PUBLIC	?_Make_iter@?$list@UmfxFrameAllocResponse@@V?$allocator@UmfxFrameAllocResponse@@@std@@@std@@QEBA?AV?$_List_iterator@V?$_List_val@U?$_List_simple_types@UmfxFrameAllocResponse@@@std@@@std@@@2@PEAU?$_List_node@UmfxFrameAllocResponse@@PEAX@2@@Z ; std::list<mfxFrameAllocResponse,std::allocator<mfxFrameAllocResponse> >::_Make_iter
PUBLIC	?max_size@?$list@UmfxFrameAllocResponse@@V?$allocator@UmfxFrameAllocResponse@@@std@@@std@@QEBA_KXZ ; std::list<mfxFrameAllocResponse,std::allocator<mfxFrameAllocResponse> >::max_size
PUBLIC	?back@?$list@UmfxFrameAllocResponse@@V?$allocator@UmfxFrameAllocResponse@@@std@@@std@@QEAAAEAUmfxFrameAllocResponse@@XZ ; std::list<mfxFrameAllocResponse,std::allocator<mfxFrameAllocResponse> >::back
PUBLIC	?pop_back@?$list@UmfxFrameAllocResponse@@V?$allocator@UmfxFrameAllocResponse@@@std@@@std@@QEAAXXZ ; std::list<mfxFrameAllocResponse,std::allocator<mfxFrameAllocResponse> >::pop_back
PUBLIC	?erase@?$list@UmfxFrameAllocResponse@@V?$allocator@UmfxFrameAllocResponse@@@std@@@std@@QEAA?AV?$_List_iterator@V?$_List_val@U?$_List_simple_types@UmfxFrameAllocResponse@@@std@@@std@@@2@V?$_List_const_iterator@V?$_List_val@U?$_List_simple_types@UmfxFrameAllocResponse@@@std@@@std@@@2@@Z ; std::list<mfxFrameAllocResponse,std::allocator<mfxFrameAllocResponse> >::erase
PUBLIC	?_Unchecked_erase@?$list@UmfxFrameAllocResponse@@V?$allocator@UmfxFrameAllocResponse@@@std@@@std@@AEAAPEAU?$_List_node@UmfxFrameAllocResponse@@PEAX@2@QEAU32@@Z ; std::list<mfxFrameAllocResponse,std::allocator<mfxFrameAllocResponse> >::_Unchecked_erase
PUBLIC	?_Tidy@?$list@UmfxFrameAllocResponse@@V?$allocator@UmfxFrameAllocResponse@@@std@@@std@@AEAAXXZ ; std::list<mfxFrameAllocResponse,std::allocator<mfxFrameAllocResponse> >::_Tidy
PUBLIC	?_Alloc_sentinel_and_proxy@?$list@UmfxFrameAllocResponse@@V?$allocator@UmfxFrameAllocResponse@@@std@@@std@@AEAAXXZ ; std::list<mfxFrameAllocResponse,std::allocator<mfxFrameAllocResponse> >::_Alloc_sentinel_and_proxy
PUBLIC	?_Getal@?$list@UmfxFrameAllocResponse@@V?$allocator@UmfxFrameAllocResponse@@@std@@@std@@AEAAAEAV?$allocator@U?$_List_node@UmfxFrameAllocResponse@@PEAX@std@@@2@XZ ; std::list<mfxFrameAllocResponse,std::allocator<mfxFrameAllocResponse> >::_Getal
PUBLIC	?_Getal@?$list@UmfxFrameAllocResponse@@V?$allocator@UmfxFrameAllocResponse@@@std@@@std@@AEBAAEBV?$allocator@U?$_List_node@UmfxFrameAllocResponse@@PEAX@std@@@2@XZ ; std::list<mfxFrameAllocResponse,std::allocator<mfxFrameAllocResponse> >::_Getal
PUBLIC	??0?$_List_val@U?$_List_simple_types@UmfxFrameAllocResponse@@@std@@@std@@QEAA@XZ ; std::_List_val<std::_List_simple_types<mfxFrameAllocResponse> >::_List_val<std::_List_simple_types<mfxFrameAllocResponse> >
PUBLIC	?_Orphan_ptr2@?$_List_val@U?$_List_simple_types@UmfxFrameAllocResponse@@@std@@@std@@QEAAXPEAU?$_List_node@UmfxFrameAllocResponse@@PEAX@2@@Z ; std::_List_val<std::_List_simple_types<mfxFrameAllocResponse> >::_Orphan_ptr2
PUBLIC	?_Unlinknode@?$_List_val@U?$_List_simple_types@UmfxFrameAllocResponse@@@std@@@std@@QEAAPEAU?$_List_node@UmfxFrameAllocResponse@@PEAX@2@PEAU32@@Z ; std::_List_val<std::_List_simple_types<mfxFrameAllocResponse> >::_Unlinknode
PUBLIC	?_Get_first@?$_Compressed_pair@V?$allocator@U?$_List_node@UmfxFrameAllocResponse@@PEAX@std@@@std@@V?$_List_val@U?$_List_simple_types@UmfxFrameAllocResponse@@@std@@@2@$00@std@@QEAAAEAV?$allocator@U?$_List_node@UmfxFrameAllocResponse@@PEAX@std@@@2@XZ ; std::_Compressed_pair<std::allocator<std::_List_node<mfxFrameAllocResponse,void *> >,std::_List_val<std::_List_simple_types<mfxFrameAllocResponse> >,1>::_Get_first
PUBLIC	?_Get_first@?$_Compressed_pair@V?$allocator@U?$_List_node@UmfxFrameAllocResponse@@PEAX@std@@@std@@V?$_List_val@U?$_List_simple_types@UmfxFrameAllocResponse@@@std@@@2@$00@std@@QEBAAEBV?$allocator@U?$_List_node@UmfxFrameAllocResponse@@PEAX@std@@@2@XZ ; std::_Compressed_pair<std::allocator<std::_List_node<mfxFrameAllocResponse,void *> >,std::_List_val<std::_List_simple_types<mfxFrameAllocResponse> >,1>::_Get_first
PUBLIC	??0?$allocator@U?$_List_node@UUniqueResponse@QSVAllocator@@PEAX@std@@@std@@QEAA@XZ ; std::allocator<std::_List_node<QSVAllocator::UniqueResponse,void *> >::allocator<std::_List_node<QSVAllocator::UniqueResponse,void *> >
PUBLIC	?deallocate@?$allocator@U?$_List_node@UUniqueResponse@QSVAllocator@@PEAX@std@@@std@@QEAAXQEAU?$_List_node@UUniqueResponse@QSVAllocator@@PEAX@2@_K@Z ; std::allocator<std::_List_node<QSVAllocator::UniqueResponse,void *> >::deallocate
PUBLIC	?allocate@?$allocator@U?$_List_node@UUniqueResponse@QSVAllocator@@PEAX@std@@@std@@QEAAPEAU?$_List_node@UUniqueResponse@QSVAllocator@@PEAX@2@_K@Z ; std::allocator<std::_List_node<QSVAllocator::UniqueResponse,void *> >::allocate
PUBLIC	?deallocate@?$_Default_allocator_traits@V?$allocator@U?$_List_node@UUniqueResponse@QSVAllocator@@PEAX@std@@@std@@@std@@SAXAEAV?$allocator@U?$_List_node@UUniqueResponse@QSVAllocator@@PEAX@std@@@2@QEAU?$_List_node@UUniqueResponse@QSVAllocator@@PEAX@2@_K@Z ; std::_Default_allocator_traits<std::allocator<std::_List_node<QSVAllocator::UniqueResponse,void *> > >::deallocate
PUBLIC	?max_size@?$_Default_allocator_traits@V?$allocator@U?$_List_node@UUniqueResponse@QSVAllocator@@PEAX@std@@@std@@@std@@SA_KAEBV?$allocator@U?$_List_node@UUniqueResponse@QSVAllocator@@PEAX@std@@@2@@Z ; std::_Default_allocator_traits<std::allocator<std::_List_node<QSVAllocator::UniqueResponse,void *> > >::max_size
PUBLIC	??0?$list@UUniqueResponse@QSVAllocator@@V?$allocator@UUniqueResponse@QSVAllocator@@@std@@@std@@QEAA@XZ ; std::list<QSVAllocator::UniqueResponse,std::allocator<QSVAllocator::UniqueResponse> >::list<QSVAllocator::UniqueResponse,std::allocator<QSVAllocator::UniqueResponse> >
PUBLIC	?push_back@?$list@UUniqueResponse@QSVAllocator@@V?$allocator@UUniqueResponse@QSVAllocator@@@std@@@std@@QEAAX$$QEAUUniqueResponse@QSVAllocator@@@Z ; std::list<QSVAllocator::UniqueResponse,std::allocator<QSVAllocator::UniqueResponse> >::push_back
PUBLIC	??1?$list@UUniqueResponse@QSVAllocator@@V?$allocator@UUniqueResponse@QSVAllocator@@@std@@@std@@QEAA@XZ ; std::list<QSVAllocator::UniqueResponse,std::allocator<QSVAllocator::UniqueResponse> >::~list<QSVAllocator::UniqueResponse,std::allocator<QSVAllocator::UniqueResponse> >
PUBLIC	?begin@?$list@UUniqueResponse@QSVAllocator@@V?$allocator@UUniqueResponse@QSVAllocator@@@std@@@std@@QEAA?AV?$_List_iterator@V?$_List_val@U?$_List_simple_types@UUniqueResponse@QSVAllocator@@@std@@@std@@@2@XZ ; std::list<QSVAllocator::UniqueResponse,std::allocator<QSVAllocator::UniqueResponse> >::begin
PUBLIC	?end@?$list@UUniqueResponse@QSVAllocator@@V?$allocator@UUniqueResponse@QSVAllocator@@@std@@@std@@QEAA?AV?$_List_iterator@V?$_List_val@U?$_List_simple_types@UUniqueResponse@QSVAllocator@@@std@@@std@@@2@XZ ; std::list<QSVAllocator::UniqueResponse,std::allocator<QSVAllocator::UniqueResponse> >::end
PUBLIC	?_Make_iter@?$list@UUniqueResponse@QSVAllocator@@V?$allocator@UUniqueResponse@QSVAllocator@@@std@@@std@@QEBA?AV?$_List_iterator@V?$_List_val@U?$_List_simple_types@UUniqueResponse@QSVAllocator@@@std@@@std@@@2@PEAU?$_List_node@UUniqueResponse@QSVAllocator@@PEAX@2@@Z ; std::list<QSVAllocator::UniqueResponse,std::allocator<QSVAllocator::UniqueResponse> >::_Make_iter
PUBLIC	?max_size@?$list@UUniqueResponse@QSVAllocator@@V?$allocator@UUniqueResponse@QSVAllocator@@@std@@@std@@QEBA_KXZ ; std::list<QSVAllocator::UniqueResponse,std::allocator<QSVAllocator::UniqueResponse> >::max_size
PUBLIC	?erase@?$list@UUniqueResponse@QSVAllocator@@V?$allocator@UUniqueResponse@QSVAllocator@@@std@@@std@@QEAA?AV?$_List_iterator@V?$_List_val@U?$_List_simple_types@UUniqueResponse@QSVAllocator@@@std@@@std@@@2@V?$_List_const_iterator@V?$_List_val@U?$_List_simple_types@UUniqueResponse@QSVAllocator@@@std@@@std@@@2@@Z ; std::list<QSVAllocator::UniqueResponse,std::allocator<QSVAllocator::UniqueResponse> >::erase
PUBLIC	?clear@?$list@UUniqueResponse@QSVAllocator@@V?$allocator@UUniqueResponse@QSVAllocator@@@std@@@std@@QEAAXXZ ; std::list<QSVAllocator::UniqueResponse,std::allocator<QSVAllocator::UniqueResponse> >::clear
PUBLIC	?_Tidy@?$list@UUniqueResponse@QSVAllocator@@V?$allocator@UUniqueResponse@QSVAllocator@@@std@@@std@@AEAAXXZ ; std::list<QSVAllocator::UniqueResponse,std::allocator<QSVAllocator::UniqueResponse> >::_Tidy
PUBLIC	?_Alloc_sentinel_and_proxy@?$list@UUniqueResponse@QSVAllocator@@V?$allocator@UUniqueResponse@QSVAllocator@@@std@@@std@@AEAAXXZ ; std::list<QSVAllocator::UniqueResponse,std::allocator<QSVAllocator::UniqueResponse> >::_Alloc_sentinel_and_proxy
PUBLIC	?_Getal@?$list@UUniqueResponse@QSVAllocator@@V?$allocator@UUniqueResponse@QSVAllocator@@@std@@@std@@AEAAAEAV?$allocator@U?$_List_node@UUniqueResponse@QSVAllocator@@PEAX@std@@@2@XZ ; std::list<QSVAllocator::UniqueResponse,std::allocator<QSVAllocator::UniqueResponse> >::_Getal
PUBLIC	?_Getal@?$list@UUniqueResponse@QSVAllocator@@V?$allocator@UUniqueResponse@QSVAllocator@@@std@@@std@@AEBAAEBV?$allocator@U?$_List_node@UUniqueResponse@QSVAllocator@@PEAX@std@@@2@XZ ; std::list<QSVAllocator::UniqueResponse,std::allocator<QSVAllocator::UniqueResponse> >::_Getal
PUBLIC	??0?$_List_val@U?$_List_simple_types@UUniqueResponse@QSVAllocator@@@std@@@std@@QEAA@XZ ; std::_List_val<std::_List_simple_types<QSVAllocator::UniqueResponse> >::_List_val<std::_List_simple_types<QSVAllocator::UniqueResponse> >
PUBLIC	?_Orphan_ptr2@?$_List_val@U?$_List_simple_types@UUniqueResponse@QSVAllocator@@@std@@@std@@QEAAXPEAU?$_List_node@UUniqueResponse@QSVAllocator@@PEAX@2@@Z ; std::_List_val<std::_List_simple_types<QSVAllocator::UniqueResponse> >::_Orphan_ptr2
PUBLIC	?_Orphan_non_end@?$_List_val@U?$_List_simple_types@UUniqueResponse@QSVAllocator@@@std@@@std@@QEAAXXZ ; std::_List_val<std::_List_simple_types<QSVAllocator::UniqueResponse> >::_Orphan_non_end
PUBLIC	?_Unlinknode@?$_List_val@U?$_List_simple_types@UUniqueResponse@QSVAllocator@@@std@@@std@@QEAAPEAU?$_List_node@UUniqueResponse@QSVAllocator@@PEAX@2@PEAU32@@Z ; std::_List_val<std::_List_simple_types<QSVAllocator::UniqueResponse> >::_Unlinknode
PUBLIC	?_Get_first@?$_Compressed_pair@V?$allocator@U?$_List_node@UUniqueResponse@QSVAllocator@@PEAX@std@@@std@@V?$_List_val@U?$_List_simple_types@UUniqueResponse@QSVAllocator@@@std@@@2@$00@std@@QEAAAEAV?$allocator@U?$_List_node@UUniqueResponse@QSVAllocator@@PEAX@std@@@2@XZ ; std::_Compressed_pair<std::allocator<std::_List_node<QSVAllocator::UniqueResponse,void *> >,std::_List_val<std::_List_simple_types<QSVAllocator::UniqueResponse> >,1>::_Get_first
PUBLIC	?_Get_first@?$_Compressed_pair@V?$allocator@U?$_List_node@UUniqueResponse@QSVAllocator@@PEAX@std@@@std@@V?$_List_val@U?$_List_simple_types@UUniqueResponse@QSVAllocator@@@std@@@2@$00@std@@QEBAAEBV?$allocator@U?$_List_node@UUniqueResponse@QSVAllocator@@PEAX@std@@@2@XZ ; std::_Compressed_pair<std::allocator<std::_List_node<QSVAllocator::UniqueResponse,void *> >,std::_List_val<std::_List_simple_types<QSVAllocator::UniqueResponse> >,1>::_Get_first
PUBLIC	?get@?$_Ptr_base@VRGYLog@@@std@@IEBAPEAVRGYLog@@XZ ; std::_Ptr_base<RGYLog>::get
PUBLIC	??0?$_Ptr_base@VRGYLog@@@std@@IEAA@XZ		; std::_Ptr_base<RGYLog>::_Ptr_base<RGYLog>
PUBLIC	?_Decref@?$_Ptr_base@VRGYLog@@@std@@IEAAXXZ	; std::_Ptr_base<RGYLog>::_Decref
PUBLIC	?_Swap@?$_Ptr_base@VRGYLog@@@std@@IEAAXAEAV12@@Z ; std::_Ptr_base<RGYLog>::_Swap
PUBLIC	??0?$shared_ptr@VRGYLog@@@std@@QEAA@XZ		; std::shared_ptr<RGYLog>::shared_ptr<RGYLog>
PUBLIC	??1?$shared_ptr@VRGYLog@@@std@@QEAA@XZ		; std::shared_ptr<RGYLog>::~shared_ptr<RGYLog>
PUBLIC	?swap@?$shared_ptr@VRGYLog@@@std@@QEAAXAEAV12@@Z ; std::shared_ptr<RGYLog>::swap
PUBLIC	?reset@?$shared_ptr@VRGYLog@@@std@@QEAAXXZ	; std::shared_ptr<RGYLog>::reset
PUBLIC	??_GQSVAllocator@@UEAAPEAXI@Z			; QSVAllocator::`scalar deleting destructor'
PUBLIC	??$?CVRGYLog@@$0A@@?$shared_ptr@VRGYLog@@@std@@QEBAPEAVRGYLog@@XZ ; std::shared_ptr<RGYLog>::operator-><RGYLog,0>
PUBLIC	??0?$_List_unchecked_const_iterator@V?$_List_val@U?$_List_simple_types@UUniqueResponse@QSVAllocator@@@std@@@std@@U_Iterator_base12@2@@std@@QEAA@PEAU?$_List_node@UUniqueResponse@QSVAllocator@@PEAX@1@PEBV?$_List_val@U?$_List_simple_types@UUniqueResponse@QSVAllocator@@@std@@@1@@Z ; std::_List_unchecked_const_iterator<std::_List_val<std::_List_simple_types<QSVAllocator::UniqueResponse> >,std::_Iterator_base12>::_List_unchecked_const_iterator<std::_List_val<std::_List_simple_types<QSVAllocator::UniqueResponse> >,std::_Iterator_base12>
PUBLIC	??1?$_List_unchecked_const_iterator@V?$_List_val@U?$_List_simple_types@UUniqueResponse@QSVAllocator@@@std@@@std@@U_Iterator_base12@2@@std@@QEAA@XZ ; std::_List_unchecked_const_iterator<std::_List_val<std::_List_simple_types<QSVAllocator::UniqueResponse> >,std::_Iterator_base12>::~_List_unchecked_const_iterator<std::_List_val<std::_List_simple_types<QSVAllocator::UniqueResponse> >,std::_Iterator_base12>
PUBLIC	??0?$_List_unchecked_const_iterator@V?$_List_val@U?$_List_simple_types@UUniqueResponse@QSVAllocator@@@std@@@std@@U_Iterator_base12@2@@std@@QEAA@AEBV01@@Z ; std::_List_unchecked_const_iterator<std::_List_val<std::_List_simple_types<QSVAllocator::UniqueResponse> >,std::_Iterator_base12>::_List_unchecked_const_iterator<std::_List_val<std::_List_simple_types<QSVAllocator::UniqueResponse> >,std::_Iterator_base12>
PUBLIC	??0?$_List_unchecked_const_iterator@V?$_List_val@U?$_List_simple_types@UUniqueResponse@QSVAllocator@@@std@@@std@@U_Iterator_base12@2@@std@@QEAA@$$QEAV01@@Z ; std::_List_unchecked_const_iterator<std::_List_val<std::_List_simple_types<QSVAllocator::UniqueResponse> >,std::_Iterator_base12>::_List_unchecked_const_iterator<std::_List_val<std::_List_simple_types<QSVAllocator::UniqueResponse> >,std::_Iterator_base12>
PUBLIC	??0?$_List_const_iterator@V?$_List_val@U?$_List_simple_types@UUniqueResponse@QSVAllocator@@@std@@@std@@@std@@QEAA@PEAU?$_List_node@UUniqueResponse@QSVAllocator@@PEAX@1@PEBV?$_List_val@U?$_List_simple_types@UUniqueResponse@QSVAllocator@@@std@@@1@@Z ; std::_List_const_iterator<std::_List_val<std::_List_simple_types<QSVAllocator::UniqueResponse> > >::_List_const_iterator<std::_List_val<std::_List_simple_types<QSVAllocator::UniqueResponse> > >
PUBLIC	??D?$_List_const_iterator@V?$_List_val@U?$_List_simple_types@UUniqueResponse@QSVAllocator@@@std@@@std@@@std@@QEBAAEBUUniqueResponse@QSVAllocator@@XZ ; std::_List_const_iterator<std::_List_val<std::_List_simple_types<QSVAllocator::UniqueResponse> > >::operator*
PUBLIC	??E?$_List_const_iterator@V?$_List_val@U?$_List_simple_types@UUniqueResponse@QSVAllocator@@@std@@@std@@@std@@QEAAAEAV01@XZ ; std::_List_const_iterator<std::_List_val<std::_List_simple_types<QSVAllocator::UniqueResponse> > >::operator++
PUBLIC	??8?$_List_const_iterator@V?$_List_val@U?$_List_simple_types@UUniqueResponse@QSVAllocator@@@std@@@std@@@std@@QEBA_NAEBV01@@Z ; std::_List_const_iterator<std::_List_val<std::_List_simple_types<QSVAllocator::UniqueResponse> > >::operator==
PUBLIC	??9?$_List_const_iterator@V?$_List_val@U?$_List_simple_types@UUniqueResponse@QSVAllocator@@@std@@@std@@@std@@QEBA_NAEBV01@@Z ; std::_List_const_iterator<std::_List_val<std::_List_simple_types<QSVAllocator::UniqueResponse> > >::operator!=
PUBLIC	?_Verify_range@std@@YAXAEBV?$_List_const_iterator@V?$_List_val@U?$_List_simple_types@UUniqueResponse@QSVAllocator@@@std@@@std@@@1@0@Z ; std::_Verify_range
PUBLIC	?_Seek_to@?$_List_const_iterator@V?$_List_val@U?$_List_simple_types@UUniqueResponse@QSVAllocator@@@std@@@std@@@std@@QEAAXV?$_List_unchecked_const_iterator@V?$_List_val@U?$_List_simple_types@UUniqueResponse@QSVAllocator@@@std@@@std@@U_Iterator_base0@2@@2@@Z ; std::_List_const_iterator<std::_List_val<std::_List_simple_types<QSVAllocator::UniqueResponse> > >::_Seek_to
PUBLIC	??1?$_List_const_iterator@V?$_List_val@U?$_List_simple_types@UUniqueResponse@QSVAllocator@@@std@@@std@@@std@@QEAA@XZ ; std::_List_const_iterator<std::_List_val<std::_List_simple_types<QSVAllocator::UniqueResponse> > >::~_List_const_iterator<std::_List_val<std::_List_simple_types<QSVAllocator::UniqueResponse> > >
PUBLIC	??0?$_List_const_iterator@V?$_List_val@U?$_List_simple_types@UUniqueResponse@QSVAllocator@@@std@@@std@@@std@@QEAA@AEBV01@@Z ; std::_List_const_iterator<std::_List_val<std::_List_simple_types<QSVAllocator::UniqueResponse> > >::_List_const_iterator<std::_List_val<std::_List_simple_types<QSVAllocator::UniqueResponse> > >
PUBLIC	??0?$_List_const_iterator@V?$_List_val@U?$_List_simple_types@UUniqueResponse@QSVAllocator@@@std@@@std@@@std@@QEAA@$$QEAV01@@Z ; std::_List_const_iterator<std::_List_val<std::_List_simple_types<QSVAllocator::UniqueResponse> > >::_List_const_iterator<std::_List_val<std::_List_simple_types<QSVAllocator::UniqueResponse> > >
PUBLIC	??0?$_List_iterator@V?$_List_val@U?$_List_simple_types@UUniqueResponse@QSVAllocator@@@std@@@std@@@std@@QEAA@PEAU?$_List_node@UUniqueResponse@QSVAllocator@@PEAX@1@PEBV?$_List_val@U?$_List_simple_types@UUniqueResponse@QSVAllocator@@@std@@@1@@Z ; std::_List_iterator<std::_List_val<std::_List_simple_types<QSVAllocator::UniqueResponse> > >::_List_iterator<std::_List_val<std::_List_simple_types<QSVAllocator::UniqueResponse> > >
PUBLIC	??D?$_List_iterator@V?$_List_val@U?$_List_simple_types@UUniqueResponse@QSVAllocator@@@std@@@std@@@std@@QEBAAEAUUniqueResponse@QSVAllocator@@XZ ; std::_List_iterator<std::_List_val<std::_List_simple_types<QSVAllocator::UniqueResponse> > >::operator*
PUBLIC	??C?$_List_iterator@V?$_List_val@U?$_List_simple_types@UUniqueResponse@QSVAllocator@@@std@@@std@@@std@@QEBAPEAUUniqueResponse@QSVAllocator@@XZ ; std::_List_iterator<std::_List_val<std::_List_simple_types<QSVAllocator::UniqueResponse> > >::operator->
PUBLIC	??E?$_List_iterator@V?$_List_val@U?$_List_simple_types@UUniqueResponse@QSVAllocator@@@std@@@std@@@std@@QEAA?AV01@H@Z ; std::_List_iterator<std::_List_val<std::_List_simple_types<QSVAllocator::UniqueResponse> > >::operator++
PUBLIC	?_Unwrapped@?$_List_iterator@V?$_List_val@U?$_List_simple_types@UUniqueResponse@QSVAllocator@@@std@@@std@@@std@@QEBA?AV?$_List_unchecked_iterator@V?$_List_val@U?$_List_simple_types@UUniqueResponse@QSVAllocator@@@std@@@std@@@2@XZ ; std::_List_iterator<std::_List_val<std::_List_simple_types<QSVAllocator::UniqueResponse> > >::_Unwrapped
PUBLIC	??1?$_List_iterator@V?$_List_val@U?$_List_simple_types@UUniqueResponse@QSVAllocator@@@std@@@std@@@std@@QEAA@XZ ; std::_List_iterator<std::_List_val<std::_List_simple_types<QSVAllocator::UniqueResponse> > >::~_List_iterator<std::_List_val<std::_List_simple_types<QSVAllocator::UniqueResponse> > >
PUBLIC	??0?$_List_iterator@V?$_List_val@U?$_List_simple_types@UUniqueResponse@QSVAllocator@@@std@@@std@@@std@@QEAA@AEBV01@@Z ; std::_List_iterator<std::_List_val<std::_List_simple_types<QSVAllocator::UniqueResponse> > >::_List_iterator<std::_List_val<std::_List_simple_types<QSVAllocator::UniqueResponse> > >
PUBLIC	??0?$_List_iterator@V?$_List_val@U?$_List_simple_types@UUniqueResponse@QSVAllocator@@@std@@@std@@@std@@QEAA@$$QEAV01@@Z ; std::_List_iterator<std::_List_val<std::_List_simple_types<QSVAllocator::UniqueResponse> > >::_List_iterator<std::_List_val<std::_List_simple_types<QSVAllocator::UniqueResponse> > >
PUBLIC	??$find_if@V?$_List_iterator@V?$_List_val@U?$_List_simple_types@UUniqueResponse@QSVAllocator@@@std@@@std@@@std@@UUniqueResponse@QSVAllocator@@@std@@YA?AV?$_List_iterator@V?$_List_val@U?$_List_simple_types@UUniqueResponse@QSVAllocator@@@std@@@std@@@0@V10@V10@UUniqueResponse@QSVAllocator@@@Z ; std::find_if<std::_List_iterator<std::_List_val<std::_List_simple_types<QSVAllocator::UniqueResponse> > >,QSVAllocator::UniqueResponse>
PUBLIC	??0?$_List_unchecked_const_iterator@V?$_List_val@U?$_List_simple_types@UmfxFrameAllocResponse@@@std@@@std@@U_Iterator_base12@2@@std@@QEAA@PEAU?$_List_node@UmfxFrameAllocResponse@@PEAX@1@PEBV?$_List_val@U?$_List_simple_types@UmfxFrameAllocResponse@@@std@@@1@@Z ; std::_List_unchecked_const_iterator<std::_List_val<std::_List_simple_types<mfxFrameAllocResponse> >,std::_Iterator_base12>::_List_unchecked_const_iterator<std::_List_val<std::_List_simple_types<mfxFrameAllocResponse> >,std::_Iterator_base12>
PUBLIC	??1?$_List_unchecked_const_iterator@V?$_List_val@U?$_List_simple_types@UmfxFrameAllocResponse@@@std@@@std@@U_Iterator_base12@2@@std@@QEAA@XZ ; std::_List_unchecked_const_iterator<std::_List_val<std::_List_simple_types<mfxFrameAllocResponse> >,std::_Iterator_base12>::~_List_unchecked_const_iterator<std::_List_val<std::_List_simple_types<mfxFrameAllocResponse> >,std::_Iterator_base12>
PUBLIC	??0?$_List_unchecked_const_iterator@V?$_List_val@U?$_List_simple_types@UmfxFrameAllocResponse@@@std@@@std@@U_Iterator_base12@2@@std@@QEAA@AEBV01@@Z ; std::_List_unchecked_const_iterator<std::_List_val<std::_List_simple_types<mfxFrameAllocResponse> >,std::_Iterator_base12>::_List_unchecked_const_iterator<std::_List_val<std::_List_simple_types<mfxFrameAllocResponse> >,std::_Iterator_base12>
PUBLIC	??0?$_List_unchecked_const_iterator@V?$_List_val@U?$_List_simple_types@UmfxFrameAllocResponse@@@std@@@std@@U_Iterator_base12@2@@std@@QEAA@$$QEAV01@@Z ; std::_List_unchecked_const_iterator<std::_List_val<std::_List_simple_types<mfxFrameAllocResponse> >,std::_Iterator_base12>::_List_unchecked_const_iterator<std::_List_val<std::_List_simple_types<mfxFrameAllocResponse> >,std::_Iterator_base12>
PUBLIC	??0?$_List_const_iterator@V?$_List_val@U?$_List_simple_types@UmfxFrameAllocResponse@@@std@@@std@@@std@@QEAA@PEAU?$_List_node@UmfxFrameAllocResponse@@PEAX@1@PEBV?$_List_val@U?$_List_simple_types@UmfxFrameAllocResponse@@@std@@@1@@Z ; std::_List_const_iterator<std::_List_val<std::_List_simple_types<mfxFrameAllocResponse> > >::_List_const_iterator<std::_List_val<std::_List_simple_types<mfxFrameAllocResponse> > >
PUBLIC	??D?$_List_const_iterator@V?$_List_val@U?$_List_simple_types@UmfxFrameAllocResponse@@@std@@@std@@@std@@QEBAAEBUmfxFrameAllocResponse@@XZ ; std::_List_const_iterator<std::_List_val<std::_List_simple_types<mfxFrameAllocResponse> > >::operator*
PUBLIC	??E?$_List_const_iterator@V?$_List_val@U?$_List_simple_types@UmfxFrameAllocResponse@@@std@@@std@@@std@@QEAAAEAV01@XZ ; std::_List_const_iterator<std::_List_val<std::_List_simple_types<mfxFrameAllocResponse> > >::operator++
PUBLIC	??F?$_List_const_iterator@V?$_List_val@U?$_List_simple_types@UmfxFrameAllocResponse@@@std@@@std@@@std@@QEAAAEAV01@XZ ; std::_List_const_iterator<std::_List_val<std::_List_simple_types<mfxFrameAllocResponse> > >::operator--
PUBLIC	??8?$_List_const_iterator@V?$_List_val@U?$_List_simple_types@UmfxFrameAllocResponse@@@std@@@std@@@std@@QEBA_NAEBV01@@Z ; std::_List_const_iterator<std::_List_val<std::_List_simple_types<mfxFrameAllocResponse> > >::operator==
PUBLIC	??9?$_List_const_iterator@V?$_List_val@U?$_List_simple_types@UmfxFrameAllocResponse@@@std@@@std@@@std@@QEBA_NAEBV01@@Z ; std::_List_const_iterator<std::_List_val<std::_List_simple_types<mfxFrameAllocResponse> > >::operator!=
PUBLIC	?_Verify_range@std@@YAXAEBV?$_List_const_iterator@V?$_List_val@U?$_List_simple_types@UmfxFrameAllocResponse@@@std@@@std@@@1@0@Z ; std::_Verify_range
PUBLIC	?_Seek_to@?$_List_const_iterator@V?$_List_val@U?$_List_simple_types@UmfxFrameAllocResponse@@@std@@@std@@@std@@QEAAXV?$_List_unchecked_const_iterator@V?$_List_val@U?$_List_simple_types@UmfxFrameAllocResponse@@@std@@@std@@U_Iterator_base0@2@@2@@Z ; std::_List_const_iterator<std::_List_val<std::_List_simple_types<mfxFrameAllocResponse> > >::_Seek_to
PUBLIC	??1?$_List_const_iterator@V?$_List_val@U?$_List_simple_types@UmfxFrameAllocResponse@@@std@@@std@@@std@@QEAA@XZ ; std::_List_const_iterator<std::_List_val<std::_List_simple_types<mfxFrameAllocResponse> > >::~_List_const_iterator<std::_List_val<std::_List_simple_types<mfxFrameAllocResponse> > >
PUBLIC	??0?$_List_const_iterator@V?$_List_val@U?$_List_simple_types@UmfxFrameAllocResponse@@@std@@@std@@@std@@QEAA@AEBV01@@Z ; std::_List_const_iterator<std::_List_val<std::_List_simple_types<mfxFrameAllocResponse> > >::_List_const_iterator<std::_List_val<std::_List_simple_types<mfxFrameAllocResponse> > >
PUBLIC	??0?$_List_const_iterator@V?$_List_val@U?$_List_simple_types@UmfxFrameAllocResponse@@@std@@@std@@@std@@QEAA@$$QEAV01@@Z ; std::_List_const_iterator<std::_List_val<std::_List_simple_types<mfxFrameAllocResponse> > >::_List_const_iterator<std::_List_val<std::_List_simple_types<mfxFrameAllocResponse> > >
PUBLIC	??0?$_List_iterator@V?$_List_val@U?$_List_simple_types@UmfxFrameAllocResponse@@@std@@@std@@@std@@QEAA@PEAU?$_List_node@UmfxFrameAllocResponse@@PEAX@1@PEBV?$_List_val@U?$_List_simple_types@UmfxFrameAllocResponse@@@std@@@1@@Z ; std::_List_iterator<std::_List_val<std::_List_simple_types<mfxFrameAllocResponse> > >::_List_iterator<std::_List_val<std::_List_simple_types<mfxFrameAllocResponse> > >
PUBLIC	??D?$_List_iterator@V?$_List_val@U?$_List_simple_types@UmfxFrameAllocResponse@@@std@@@std@@@std@@QEBAAEAUmfxFrameAllocResponse@@XZ ; std::_List_iterator<std::_List_val<std::_List_simple_types<mfxFrameAllocResponse> > >::operator*
PUBLIC	??E?$_List_iterator@V?$_List_val@U?$_List_simple_types@UmfxFrameAllocResponse@@@std@@@std@@@std@@QEAA?AV01@H@Z ; std::_List_iterator<std::_List_val<std::_List_simple_types<mfxFrameAllocResponse> > >::operator++
PUBLIC	??F?$_List_iterator@V?$_List_val@U?$_List_simple_types@UmfxFrameAllocResponse@@@std@@@std@@@std@@QEAAAEAV01@XZ ; std::_List_iterator<std::_List_val<std::_List_simple_types<mfxFrameAllocResponse> > >::operator--
PUBLIC	?_Unwrapped@?$_List_iterator@V?$_List_val@U?$_List_simple_types@UmfxFrameAllocResponse@@@std@@@std@@@std@@QEBA?AV?$_List_unchecked_iterator@V?$_List_val@U?$_List_simple_types@UmfxFrameAllocResponse@@@std@@@std@@@2@XZ ; std::_List_iterator<std::_List_val<std::_List_simple_types<mfxFrameAllocResponse> > >::_Unwrapped
PUBLIC	??1?$_List_iterator@V?$_List_val@U?$_List_simple_types@UmfxFrameAllocResponse@@@std@@@std@@@std@@QEAA@XZ ; std::_List_iterator<std::_List_val<std::_List_simple_types<mfxFrameAllocResponse> > >::~_List_iterator<std::_List_val<std::_List_simple_types<mfxFrameAllocResponse> > >
PUBLIC	??0?$_List_iterator@V?$_List_val@U?$_List_simple_types@UmfxFrameAllocResponse@@@std@@@std@@@std@@QEAA@AEBV01@@Z ; std::_List_iterator<std::_List_val<std::_List_simple_types<mfxFrameAllocResponse> > >::_List_iterator<std::_List_val<std::_List_simple_types<mfxFrameAllocResponse> > >
PUBLIC	??0?$_List_iterator@V?$_List_val@U?$_List_simple_types@UmfxFrameAllocResponse@@@std@@@std@@@std@@QEAA@$$QEAV01@@Z ; std::_List_iterator<std::_List_val<std::_List_simple_types<mfxFrameAllocResponse> > >::_List_iterator<std::_List_val<std::_List_simple_types<mfxFrameAllocResponse> > >
PUBLIC	?pointer_to@?$pointer_traits@PEAUUniqueResponse@QSVAllocator@@@std@@SAPEAUUniqueResponse@QSVAllocator@@AEAU34@@Z ; std::pointer_traits<QSVAllocator::UniqueResponse *>::pointer_to
PUBLIC	?allocate@?$allocator@U_Container_proxy@std@@@std@@QEAAPEAU_Container_proxy@2@_K@Z ; std::allocator<std::_Container_proxy>::allocate
PUBLIC	??$_Delete_plain_internal@V?$allocator@U_Container_proxy@std@@@std@@@std@@YAXAEAV?$allocator@U_Container_proxy@std@@@0@QEAU_Container_proxy@0@@Z ; std::_Delete_plain_internal<std::allocator<std::_Container_proxy> >
PUBLIC	??$_Free_non_head@V?$allocator@U?$_List_node@UUniqueResponse@QSVAllocator@@PEAX@std@@@std@@@?$_List_node@UUniqueResponse@QSVAllocator@@PEAX@std@@SAXAEAV?$allocator@U?$_List_node@UUniqueResponse@QSVAllocator@@PEAX@std@@@1@PEAU01@@Z ; std::_List_node<QSVAllocator::UniqueResponse,void *>::_Free_non_head<std::allocator<std::_List_node<QSVAllocator::UniqueResponse,void *> > >
PUBLIC	??$addressof@V?$_List_val@U?$_List_simple_types@UUniqueResponse@QSVAllocator@@@std@@@std@@@std@@YAPEAV?$_List_val@U?$_List_simple_types@UUniqueResponse@QSVAllocator@@@std@@@0@AEAV10@@Z ; std::addressof<std::_List_val<std::_List_simple_types<QSVAllocator::UniqueResponse> > >
PUBLIC	??$_Freenode@V?$allocator@U?$_List_node@UUniqueResponse@QSVAllocator@@PEAX@std@@@std@@@?$_List_node@UUniqueResponse@QSVAllocator@@PEAX@std@@SAXAEAV?$allocator@U?$_List_node@UUniqueResponse@QSVAllocator@@PEAX@std@@@1@PEAU01@@Z ; std::_List_node<QSVAllocator::UniqueResponse,void *>::_Freenode<std::allocator<std::_List_node<QSVAllocator::UniqueResponse,void *> > >
PUBLIC	??$?0U?$_List_node@UUniqueResponse@QSVAllocator@@PEAX@std@@@?$allocator@U_Container_proxy@std@@@std@@QEAA@AEBV?$allocator@U?$_List_node@UUniqueResponse@QSVAllocator@@PEAX@std@@@1@@Z ; std::allocator<std::_Container_proxy>::allocator<std::_Container_proxy><std::_List_node<QSVAllocator::UniqueResponse,void *> >
PUBLIC	??$move@AEAUUniqueResponse@QSVAllocator@@@std@@YA$$QEAUUniqueResponse@QSVAllocator@@AEAU12@@Z ; std::move<QSVAllocator::UniqueResponse &>
PUBLIC	??$_Emplace@UUniqueResponse@QSVAllocator@@@?$list@UUniqueResponse@QSVAllocator@@V?$allocator@UUniqueResponse@QSVAllocator@@@std@@@std@@QEAAPEAU?$_List_node@UUniqueResponse@QSVAllocator@@PEAX@1@QEAU21@$$QEAUUniqueResponse@QSVAllocator@@@Z ; std::list<QSVAllocator::UniqueResponse,std::allocator<QSVAllocator::UniqueResponse> >::_Emplace<QSVAllocator::UniqueResponse>
PUBLIC	??$?0$$V@?$_Compressed_pair@V?$allocator@U?$_List_node@UUniqueResponse@QSVAllocator@@PEAX@std@@@std@@V?$_List_val@U?$_List_simple_types@UUniqueResponse@QSVAllocator@@@std@@@2@$00@std@@QEAA@U_Zero_then_variadic_args_t@1@@Z ; std::_Compressed_pair<std::allocator<std::_List_node<QSVAllocator::UniqueResponse,void *> >,std::_List_val<std::_List_simple_types<QSVAllocator::UniqueResponse> >,1>::_Compressed_pair<std::allocator<std::_List_node<QSVAllocator::UniqueResponse,void *> >,std::_List_val<std::_List_simple_types<QSVAllocator::UniqueResponse> >,1><>
PUBLIC	??$addressof@V?$_List_val@U?$_List_simple_types@UmfxFrameAllocResponse@@@std@@@std@@@std@@YAPEAV?$_List_val@U?$_List_simple_types@UmfxFrameAllocResponse@@@std@@@0@AEAV10@@Z ; std::addressof<std::_List_val<std::_List_simple_types<mfxFrameAllocResponse> > >
PUBLIC	??$_Freenode@V?$allocator@U?$_List_node@UmfxFrameAllocResponse@@PEAX@std@@@std@@@?$_List_node@UmfxFrameAllocResponse@@PEAX@std@@SAXAEAV?$allocator@U?$_List_node@UmfxFrameAllocResponse@@PEAX@std@@@1@PEAU01@@Z ; std::_List_node<mfxFrameAllocResponse,void *>::_Freenode<std::allocator<std::_List_node<mfxFrameAllocResponse,void *> > >
PUBLIC	??$?0U?$_List_node@UmfxFrameAllocResponse@@PEAX@std@@@?$allocator@U_Container_proxy@std@@@std@@QEAA@AEBV?$allocator@U?$_List_node@UmfxFrameAllocResponse@@PEAX@std@@@1@@Z ; std::allocator<std::_Container_proxy>::allocator<std::_Container_proxy><std::_List_node<mfxFrameAllocResponse,void *> >
PUBLIC	??$move@AEAUmfxFrameAllocResponse@@@std@@YA$$QEAUmfxFrameAllocResponse@@AEAU1@@Z ; std::move<mfxFrameAllocResponse &>
PUBLIC	??$_Emplace@UmfxFrameAllocResponse@@@?$list@UmfxFrameAllocResponse@@V?$allocator@UmfxFrameAllocResponse@@@std@@@std@@QEAAPEAU?$_List_node@UmfxFrameAllocResponse@@PEAX@1@QEAU21@$$QEAUmfxFrameAllocResponse@@@Z ; std::list<mfxFrameAllocResponse,std::allocator<mfxFrameAllocResponse> >::_Emplace<mfxFrameAllocResponse>
PUBLIC	??$?0$$V@?$_Compressed_pair@V?$allocator@U?$_List_node@UmfxFrameAllocResponse@@PEAX@std@@@std@@V?$_List_val@U?$_List_simple_types@UmfxFrameAllocResponse@@@std@@@2@$00@std@@QEAA@U_Zero_then_variadic_args_t@1@@Z ; std::_Compressed_pair<std::allocator<std::_List_node<mfxFrameAllocResponse,void *> >,std::_List_val<std::_List_simple_types<mfxFrameAllocResponse> >,1>::_Compressed_pair<std::allocator<std::_List_node<mfxFrameAllocResponse,void *> >,std::_List_val<std::_List_simple_types<mfxFrameAllocResponse> >,1><>
PUBLIC	??$_Min_value@_K@std@@YAAEB_KAEB_K0@Z		; std::_Min_value<unsigned __int64>
PUBLIC	??0?$_Container_proxy_ptr12@V?$allocator@U_Container_proxy@std@@@std@@@std@@QEAA@AEAV?$allocator@U_Container_proxy@std@@@1@AEAU_Container_base12@1@@Z ; std::_Container_proxy_ptr12<std::allocator<std::_Container_proxy> >::_Container_proxy_ptr12<std::allocator<std::_Container_proxy> >
PUBLIC	??1?$_Container_proxy_ptr12@V?$allocator@U_Container_proxy@std@@@std@@@std@@QEAA@XZ ; std::_Container_proxy_ptr12<std::allocator<std::_Container_proxy> >::~_Container_proxy_ptr12<std::allocator<std::_Container_proxy> >
PUBLIC	??$_Unfancy@D@std@@YAPEADPEAD@Z			; std::_Unfancy<char>
PUBLIC	??$?0D@?$allocator@U_Container_proxy@std@@@std@@QEAA@AEBV?$allocator@D@1@@Z ; std::allocator<std::_Container_proxy>::allocator<std::_Container_proxy><char>
PUBLIC	??$_Unfancy@U_Container_proxy@std@@@std@@YAPEAU_Container_proxy@0@PEAU10@@Z ; std::_Unfancy<std::_Container_proxy>
PUBLIC	??$addressof@U_Container_base12@std@@@std@@YAPEAU_Container_base12@0@AEAU10@@Z ; std::addressof<std::_Container_base12>
PUBLIC	??$_Construct_in_place@U_Container_proxy@std@@PEAU_Container_base12@2@@std@@YAXAEAU_Container_proxy@0@$$QEAPEAU_Container_base12@0@@Z ; std::_Construct_in_place<std::_Container_proxy,std::_Container_base12 *>
PUBLIC	??$addressof@UUniqueResponse@QSVAllocator@@@std@@YAPEAUUniqueResponse@QSVAllocator@@AEAU12@@Z ; std::addressof<QSVAllocator::UniqueResponse>
PUBLIC	??$_Construct_in_place@PEAU?$_List_node@UUniqueResponse@QSVAllocator@@PEAX@std@@AEAPEAU12@@std@@YAXAEAPEAU?$_List_node@UUniqueResponse@QSVAllocator@@PEAX@0@0@Z ; std::_Construct_in_place<std::_List_node<QSVAllocator::UniqueResponse,void *> *,std::_List_node<QSVAllocator::UniqueResponse,void *> * &>
PUBLIC	??$_Freenode0@V?$allocator@U?$_List_node@UUniqueResponse@QSVAllocator@@PEAX@std@@@std@@@?$_List_node@UUniqueResponse@QSVAllocator@@PEAX@std@@SAXAEAV?$allocator@U?$_List_node@UUniqueResponse@QSVAllocator@@PEAX@std@@@1@PEAU01@@Z ; std::_List_node<QSVAllocator::UniqueResponse,void *>::_Freenode0<std::allocator<std::_List_node<QSVAllocator::UniqueResponse,void *> > >
PUBLIC	??$addressof@$$CBV?$_List_val@U?$_List_simple_types@UUniqueResponse@QSVAllocator@@@std@@@std@@@std@@YAPEBV?$_List_val@U?$_List_simple_types@UUniqueResponse@QSVAllocator@@@std@@@0@AEBV10@@Z ; std::addressof<std::_List_val<std::_List_simple_types<QSVAllocator::UniqueResponse> > const >
PUBLIC	??$_Construct_in_place@PEAU?$_List_node@UmfxFrameAllocResponse@@PEAX@std@@AEAPEAU12@@std@@YAXAEAPEAU?$_List_node@UmfxFrameAllocResponse@@PEAX@0@0@Z ; std::_Construct_in_place<std::_List_node<mfxFrameAllocResponse,void *> *,std::_List_node<mfxFrameAllocResponse,void *> * &>
PUBLIC	??$_Free_non_head@V?$allocator@U?$_List_node@UmfxFrameAllocResponse@@PEAX@std@@@std@@@?$_List_node@UmfxFrameAllocResponse@@PEAX@std@@SAXAEAV?$allocator@U?$_List_node@UmfxFrameAllocResponse@@PEAX@std@@@1@PEAU01@@Z ; std::_List_node<mfxFrameAllocResponse,void *>::_Free_non_head<std::allocator<std::_List_node<mfxFrameAllocResponse,void *> > >
PUBLIC	??$_Freenode0@V?$allocator@U?$_List_node@UmfxFrameAllocResponse@@PEAX@std@@@std@@@?$_List_node@UmfxFrameAllocResponse@@PEAX@std@@SAXAEAV?$allocator@U?$_List_node@UmfxFrameAllocResponse@@PEAX@std@@@1@PEAU01@@Z ; std::_List_node<mfxFrameAllocResponse,void *>::_Freenode0<std::allocator<std::_List_node<mfxFrameAllocResponse,void *> > >
PUBLIC	??$addressof@$$CBV?$_List_val@U?$_List_simple_types@UmfxFrameAllocResponse@@@std@@@std@@@std@@YAPEBV?$_List_val@U?$_List_simple_types@UmfxFrameAllocResponse@@@std@@@0@AEBV10@@Z ; std::addressof<std::_List_val<std::_List_simple_types<mfxFrameAllocResponse> > const >
PUBLIC	??$_Destroy_in_place@PEAD@std@@YAXAEAPEAD@Z	; std::_Destroy_in_place<char *>
PUBLIC	??$_Allocate@$0BA@U_Default_allocate_traits@std@@$0A@@std@@YAPEAX_K@Z ; std::_Allocate<16,std::_Default_allocate_traits,0>
PUBLIC	??$_Deallocate@$0BA@$0A@@std@@YAXPEAX_K@Z	; std::_Deallocate<16,0>
PUBLIC	??$_Get_size_of_n@$0BA@@std@@YA_K_K@Z		; std::_Get_size_of_n<16>
PUBLIC	??$swap@PEAVRGYLog@@X@std@@YAXAEAPEAVRGYLog@@0@Z ; std::swap<RGYLog *,void>
PUBLIC	??$swap@PEAV_Ref_count_base@std@@X@std@@YAXAEAPEAV_Ref_count_base@0@0@Z ; std::swap<std::_Ref_count_base *,void>
PUBLIC	??$_Get_size_of_n@$0EA@@std@@YA_K_K@Z		; std::_Get_size_of_n<64>
PUBLIC	??$_Get_size_of_n@$0DA@@std@@YA_K_K@Z		; std::_Get_size_of_n<48>
PUBLIC	??$_Adl_verify_range@V?$_List_iterator@V?$_List_val@U?$_List_simple_types@UUniqueResponse@QSVAllocator@@@std@@@std@@@std@@V12@@std@@YAXAEBV?$_List_iterator@V?$_List_val@U?$_List_simple_types@UUniqueResponse@QSVAllocator@@@std@@@std@@@0@0@Z ; std::_Adl_verify_range<std::_List_iterator<std::_List_val<std::_List_simple_types<QSVAllocator::UniqueResponse> > >,std::_List_iterator<std::_List_val<std::_List_simple_types<QSVAllocator::UniqueResponse> > > >
PUBLIC	??0?$_List_unchecked_const_iterator@V?$_List_val@U?$_List_simple_types@UUniqueResponse@QSVAllocator@@@std@@@std@@U_Iterator_base0@2@@std@@QEAA@PEAU?$_List_node@UUniqueResponse@QSVAllocator@@PEAX@1@PEBV?$_List_val@U?$_List_simple_types@UUniqueResponse@QSVAllocator@@@std@@@1@@Z ; std::_List_unchecked_const_iterator<std::_List_val<std::_List_simple_types<QSVAllocator::UniqueResponse> >,std::_Iterator_base0>::_List_unchecked_const_iterator<std::_List_val<std::_List_simple_types<QSVAllocator::UniqueResponse> >,std::_Iterator_base0>
PUBLIC	??D?$_List_unchecked_const_iterator@V?$_List_val@U?$_List_simple_types@UUniqueResponse@QSVAllocator@@@std@@@std@@U_Iterator_base0@2@@std@@QEBAAEBUUniqueResponse@QSVAllocator@@XZ ; std::_List_unchecked_const_iterator<std::_List_val<std::_List_simple_types<QSVAllocator::UniqueResponse> >,std::_Iterator_base0>::operator*
PUBLIC	??E?$_List_unchecked_const_iterator@V?$_List_val@U?$_List_simple_types@UUniqueResponse@QSVAllocator@@@std@@@std@@U_Iterator_base0@2@@std@@QEAAAEAV01@XZ ; std::_List_unchecked_const_iterator<std::_List_val<std::_List_simple_types<QSVAllocator::UniqueResponse> >,std::_Iterator_base0>::operator++
PUBLIC	??8?$_List_unchecked_const_iterator@V?$_List_val@U?$_List_simple_types@UUniqueResponse@QSVAllocator@@@std@@@std@@U_Iterator_base0@2@@std@@QEBA_NAEBV01@@Z ; std::_List_unchecked_const_iterator<std::_List_val<std::_List_simple_types<QSVAllocator::UniqueResponse> >,std::_Iterator_base0>::operator==
PUBLIC	??9?$_List_unchecked_const_iterator@V?$_List_val@U?$_List_simple_types@UUniqueResponse@QSVAllocator@@@std@@@std@@U_Iterator_base0@2@@std@@QEBA_NAEBV01@@Z ; std::_List_unchecked_const_iterator<std::_List_val<std::_List_simple_types<QSVAllocator::UniqueResponse> >,std::_Iterator_base0>::operator!=
PUBLIC	??0?$_List_unchecked_iterator@V?$_List_val@U?$_List_simple_types@UUniqueResponse@QSVAllocator@@@std@@@std@@@std@@QEAA@PEAU?$_List_node@UUniqueResponse@QSVAllocator@@PEAX@1@PEBV?$_List_val@U?$_List_simple_types@UUniqueResponse@QSVAllocator@@@std@@@1@@Z ; std::_List_unchecked_iterator<std::_List_val<std::_List_simple_types<QSVAllocator::UniqueResponse> > >::_List_unchecked_iterator<std::_List_val<std::_List_simple_types<QSVAllocator::UniqueResponse> > >
PUBLIC	??D?$_List_unchecked_iterator@V?$_List_val@U?$_List_simple_types@UUniqueResponse@QSVAllocator@@@std@@@std@@@std@@QEBAAEAUUniqueResponse@QSVAllocator@@XZ ; std::_List_unchecked_iterator<std::_List_val<std::_List_simple_types<QSVAllocator::UniqueResponse> > >::operator*
PUBLIC	??E?$_List_unchecked_iterator@V?$_List_val@U?$_List_simple_types@UUniqueResponse@QSVAllocator@@@std@@@std@@@std@@QEAAAEAV01@XZ ; std::_List_unchecked_iterator<std::_List_val<std::_List_simple_types<QSVAllocator::UniqueResponse> > >::operator++
PUBLIC	??$_Get_unwrapped@V?$_List_iterator@V?$_List_val@U?$_List_simple_types@UUniqueResponse@QSVAllocator@@@std@@@std@@@std@@$0A@@std@@YA?AV?$_List_unchecked_iterator@V?$_List_val@U?$_List_simple_types@UUniqueResponse@QSVAllocator@@@std@@@std@@@0@AEBV?$_List_iterator@V?$_List_val@U?$_List_simple_types@UUniqueResponse@QSVAllocator@@@std@@@std@@@0@@Z ; std::_Get_unwrapped<std::_List_iterator<std::_List_val<std::_List_simple_types<QSVAllocator::UniqueResponse> > >,0>
PUBLIC	??$_Seek_wrapped@V?$_List_iterator@V?$_List_val@U?$_List_simple_types@UUniqueResponse@QSVAllocator@@@std@@@std@@@std@@V?$_List_unchecked_iterator@V?$_List_val@U?$_List_simple_types@UUniqueResponse@QSVAllocator@@@std@@@std@@@2@@std@@YAXAEAV?$_List_iterator@V?$_List_val@U?$_List_simple_types@UUniqueResponse@QSVAllocator@@@std@@@std@@@0@AEBV?$_List_unchecked_iterator@V?$_List_val@U?$_List_simple_types@UUniqueResponse@QSVAllocator@@@std@@@std@@@0@@Z ; std::_Seek_wrapped<std::_List_iterator<std::_List_val<std::_List_simple_types<QSVAllocator::UniqueResponse> > >,std::_List_unchecked_iterator<std::_List_val<std::_List_simple_types<QSVAllocator::UniqueResponse> > > >
PUBLIC	??$_Adl_verify_range@V?$_List_iterator@V?$_List_val@U?$_List_simple_types@UmfxFrameAllocResponse@@@std@@@std@@@std@@V12@@std@@YAXAEBV?$_List_iterator@V?$_List_val@U?$_List_simple_types@UmfxFrameAllocResponse@@@std@@@std@@@0@0@Z ; std::_Adl_verify_range<std::_List_iterator<std::_List_val<std::_List_simple_types<mfxFrameAllocResponse> > >,std::_List_iterator<std::_List_val<std::_List_simple_types<mfxFrameAllocResponse> > > >
PUBLIC	??0?$_List_unchecked_const_iterator@V?$_List_val@U?$_List_simple_types@UmfxFrameAllocResponse@@@std@@@std@@U_Iterator_base0@2@@std@@QEAA@PEAU?$_List_node@UmfxFrameAllocResponse@@PEAX@1@PEBV?$_List_val@U?$_List_simple_types@UmfxFrameAllocResponse@@@std@@@1@@Z ; std::_List_unchecked_const_iterator<std::_List_val<std::_List_simple_types<mfxFrameAllocResponse> >,std::_Iterator_base0>::_List_unchecked_const_iterator<std::_List_val<std::_List_simple_types<mfxFrameAllocResponse> >,std::_Iterator_base0>
PUBLIC	??D?$_List_unchecked_const_iterator@V?$_List_val@U?$_List_simple_types@UmfxFrameAllocResponse@@@std@@@std@@U_Iterator_base0@2@@std@@QEBAAEBUmfxFrameAllocResponse@@XZ ; std::_List_unchecked_const_iterator<std::_List_val<std::_List_simple_types<mfxFrameAllocResponse> >,std::_Iterator_base0>::operator*
PUBLIC	??E?$_List_unchecked_const_iterator@V?$_List_val@U?$_List_simple_types@UmfxFrameAllocResponse@@@std@@@std@@U_Iterator_base0@2@@std@@QEAAAEAV01@XZ ; std::_List_unchecked_const_iterator<std::_List_val<std::_List_simple_types<mfxFrameAllocResponse> >,std::_Iterator_base0>::operator++
PUBLIC	??8?$_List_unchecked_const_iterator@V?$_List_val@U?$_List_simple_types@UmfxFrameAllocResponse@@@std@@@std@@U_Iterator_base0@2@@std@@QEBA_NAEBV01@@Z ; std::_List_unchecked_const_iterator<std::_List_val<std::_List_simple_types<mfxFrameAllocResponse> >,std::_Iterator_base0>::operator==
PUBLIC	??9?$_List_unchecked_const_iterator@V?$_List_val@U?$_List_simple_types@UmfxFrameAllocResponse@@@std@@@std@@U_Iterator_base0@2@@std@@QEBA_NAEBV01@@Z ; std::_List_unchecked_const_iterator<std::_List_val<std::_List_simple_types<mfxFrameAllocResponse> >,std::_Iterator_base0>::operator!=
PUBLIC	??0?$_List_unchecked_iterator@V?$_List_val@U?$_List_simple_types@UmfxFrameAllocResponse@@@std@@@std@@@std@@QEAA@PEAU?$_List_node@UmfxFrameAllocResponse@@PEAX@1@PEBV?$_List_val@U?$_List_simple_types@UmfxFrameAllocResponse@@@std@@@1@@Z ; std::_List_unchecked_iterator<std::_List_val<std::_List_simple_types<mfxFrameAllocResponse> > >::_List_unchecked_iterator<std::_List_val<std::_List_simple_types<mfxFrameAllocResponse> > >
PUBLIC	??D?$_List_unchecked_iterator@V?$_List_val@U?$_List_simple_types@UmfxFrameAllocResponse@@@std@@@std@@@std@@QEBAAEAUmfxFrameAllocResponse@@XZ ; std::_List_unchecked_iterator<std::_List_val<std::_List_simple_types<mfxFrameAllocResponse> > >::operator*
PUBLIC	??E?$_List_unchecked_iterator@V?$_List_val@U?$_List_simple_types@UmfxFrameAllocResponse@@@std@@@std@@@std@@QEAAAEAV01@XZ ; std::_List_unchecked_iterator<std::_List_val<std::_List_simple_types<mfxFrameAllocResponse> > >::operator++
PUBLIC	??$_Get_unwrapped@V?$_List_iterator@V?$_List_val@U?$_List_simple_types@UmfxFrameAllocResponse@@@std@@@std@@@std@@$0A@@std@@YA?AV?$_List_unchecked_iterator@V?$_List_val@U?$_List_simple_types@UmfxFrameAllocResponse@@@std@@@std@@@0@AEBV?$_List_iterator@V?$_List_val@U?$_List_simple_types@UmfxFrameAllocResponse@@@std@@@std@@@0@@Z ; std::_Get_unwrapped<std::_List_iterator<std::_List_val<std::_List_simple_types<mfxFrameAllocResponse> > >,0>
PUBLIC	??$_Seek_wrapped@V?$_List_iterator@V?$_List_val@U?$_List_simple_types@UmfxFrameAllocResponse@@@std@@@std@@@std@@V?$_List_unchecked_iterator@V?$_List_val@U?$_List_simple_types@UmfxFrameAllocResponse@@@std@@@std@@@2@@std@@YAXAEAV?$_List_iterator@V?$_List_val@U?$_List_simple_types@UmfxFrameAllocResponse@@@std@@@std@@@0@AEBV?$_List_unchecked_iterator@V?$_List_val@U?$_List_simple_types@UmfxFrameAllocResponse@@@std@@@std@@@0@@Z ; std::_Seek_wrapped<std::_List_iterator<std::_List_val<std::_List_simple_types<mfxFrameAllocResponse> > >,std::_List_unchecked_iterator<std::_List_val<std::_List_simple_types<mfxFrameAllocResponse> > > >
PUBLIC	??$_Deallocate_plain@V?$allocator@U_Container_proxy@std@@@std@@@std@@YAXAEAV?$allocator@U_Container_proxy@std@@@0@QEAU_Container_proxy@0@@Z ; std::_Deallocate_plain<std::allocator<std::_Container_proxy> >
PUBLIC	??$destroy@UUniqueResponse@QSVAllocator@@@?$_Default_allocator_traits@V?$allocator@U?$_List_node@UUniqueResponse@QSVAllocator@@PEAX@std@@@std@@@std@@SAXAEAV?$allocator@U?$_List_node@UUniqueResponse@QSVAllocator@@PEAX@std@@@1@QEAUUniqueResponse@QSVAllocator@@@Z ; std::_Default_allocator_traits<std::allocator<std::_List_node<QSVAllocator::UniqueResponse,void *> > >::destroy<QSVAllocator::UniqueResponse>
PUBLIC	??0?$_Alloc_construct_ptr@V?$allocator@U?$_List_node@UUniqueResponse@QSVAllocator@@PEAX@std@@@std@@@std@@QEAA@AEAV?$allocator@U?$_List_node@UUniqueResponse@QSVAllocator@@PEAX@std@@@1@@Z ; std::_Alloc_construct_ptr<std::allocator<std::_List_node<QSVAllocator::UniqueResponse,void *> > >::_Alloc_construct_ptr<std::allocator<std::_List_node<QSVAllocator::UniqueResponse,void *> > >
PUBLIC	?_Allocate@?$_Alloc_construct_ptr@V?$allocator@U?$_List_node@UUniqueResponse@QSVAllocator@@PEAX@std@@@std@@@std@@QEAAXXZ ; std::_Alloc_construct_ptr<std::allocator<std::_List_node<QSVAllocator::UniqueResponse,void *> > >::_Allocate
PUBLIC	??1?$_Alloc_construct_ptr@V?$allocator@U?$_List_node@UUniqueResponse@QSVAllocator@@PEAX@std@@@std@@@std@@QEAA@XZ ; std::_Alloc_construct_ptr<std::allocator<std::_List_node<QSVAllocator::UniqueResponse,void *> > >::~_Alloc_construct_ptr<std::allocator<std::_List_node<QSVAllocator::UniqueResponse,void *> > >
PUBLIC	??1?$_List_node_emplace_op2@V?$allocator@U?$_List_node@UUniqueResponse@QSVAllocator@@PEAX@std@@@std@@@std@@QEAA@XZ ; std::_List_node_emplace_op2<std::allocator<std::_List_node<QSVAllocator::UniqueResponse,void *> > >::~_List_node_emplace_op2<std::allocator<std::_List_node<QSVAllocator::UniqueResponse,void *> > >
PUBLIC	?_Transfer_before@?$_List_node_emplace_op2@V?$allocator@U?$_List_node@UUniqueResponse@QSVAllocator@@PEAX@std@@@std@@@std@@QEAAPEAU?$_List_node@UUniqueResponse@QSVAllocator@@PEAX@2@QEAU32@@Z ; std::_List_node_emplace_op2<std::allocator<std::_List_node<QSVAllocator::UniqueResponse,void *> > >::_Transfer_before
PUBLIC	??$forward@UUniqueResponse@QSVAllocator@@@std@@YA$$QEAUUniqueResponse@QSVAllocator@@AEAU12@@Z ; std::forward<QSVAllocator::UniqueResponse>
PUBLIC	??$?0UUniqueResponse@QSVAllocator@@@?$_List_node_emplace_op2@V?$allocator@U?$_List_node@UUniqueResponse@QSVAllocator@@PEAX@std@@@std@@@std@@QEAA@AEAV?$allocator@U?$_List_node@UUniqueResponse@QSVAllocator@@PEAX@std@@@1@$$QEAUUniqueResponse@QSVAllocator@@@Z ; std::_List_node_emplace_op2<std::allocator<std::_List_node<QSVAllocator::UniqueResponse,void *> > >::_List_node_emplace_op2<std::allocator<std::_List_node<QSVAllocator::UniqueResponse,void *> > ><QSVAllocator::UniqueResponse>
PUBLIC	??$addressof@UmfxFrameAllocResponse@@@std@@YAPEAUmfxFrameAllocResponse@@AEAU1@@Z ; std::addressof<mfxFrameAllocResponse>
PUBLIC	??$destroy@UmfxFrameAllocResponse@@@?$_Default_allocator_traits@V?$allocator@U?$_List_node@UmfxFrameAllocResponse@@PEAX@std@@@std@@@std@@SAXAEAV?$allocator@U?$_List_node@UmfxFrameAllocResponse@@PEAX@std@@@1@QEAUmfxFrameAllocResponse@@@Z ; std::_Default_allocator_traits<std::allocator<std::_List_node<mfxFrameAllocResponse,void *> > >::destroy<mfxFrameAllocResponse>
PUBLIC	??0?$_Alloc_construct_ptr@V?$allocator@U?$_List_node@UmfxFrameAllocResponse@@PEAX@std@@@std@@@std@@QEAA@AEAV?$allocator@U?$_List_node@UmfxFrameAllocResponse@@PEAX@std@@@1@@Z ; std::_Alloc_construct_ptr<std::allocator<std::_List_node<mfxFrameAllocResponse,void *> > >::_Alloc_construct_ptr<std::allocator<std::_List_node<mfxFrameAllocResponse,void *> > >
PUBLIC	?_Allocate@?$_Alloc_construct_ptr@V?$allocator@U?$_List_node@UmfxFrameAllocResponse@@PEAX@std@@@std@@@std@@QEAAXXZ ; std::_Alloc_construct_ptr<std::allocator<std::_List_node<mfxFrameAllocResponse,void *> > >::_Allocate
PUBLIC	??1?$_Alloc_construct_ptr@V?$allocator@U?$_List_node@UmfxFrameAllocResponse@@PEAX@std@@@std@@@std@@QEAA@XZ ; std::_Alloc_construct_ptr<std::allocator<std::_List_node<mfxFrameAllocResponse,void *> > >::~_Alloc_construct_ptr<std::allocator<std::_List_node<mfxFrameAllocResponse,void *> > >
PUBLIC	??1?$_List_node_emplace_op2@V?$allocator@U?$_List_node@UmfxFrameAllocResponse@@PEAX@std@@@std@@@std@@QEAA@XZ ; std::_List_node_emplace_op2<std::allocator<std::_List_node<mfxFrameAllocResponse,void *> > >::~_List_node_emplace_op2<std::allocator<std::_List_node<mfxFrameAllocResponse,void *> > >
PUBLIC	?_Transfer_before@?$_List_node_emplace_op2@V?$allocator@U?$_List_node@UmfxFrameAllocResponse@@PEAX@std@@@std@@@std@@QEAAPEAU?$_List_node@UmfxFrameAllocResponse@@PEAX@2@QEAU32@@Z ; std::_List_node_emplace_op2<std::allocator<std::_List_node<mfxFrameAllocResponse,void *> > >::_Transfer_before
PUBLIC	??$forward@UmfxFrameAllocResponse@@@std@@YA$$QEAUmfxFrameAllocResponse@@AEAU1@@Z ; std::forward<mfxFrameAllocResponse>
PUBLIC	??$?0UmfxFrameAllocResponse@@@?$_List_node_emplace_op2@V?$allocator@U?$_List_node@UmfxFrameAllocResponse@@PEAX@std@@@std@@@std@@QEAA@AEAV?$allocator@U?$_List_node@UmfxFrameAllocResponse@@PEAX@std@@@1@$$QEAUmfxFrameAllocResponse@@@Z ; std::_List_node_emplace_op2<std::allocator<std::_List_node<mfxFrameAllocResponse,void *> > >::_List_node_emplace_op2<std::allocator<std::_List_node<mfxFrameAllocResponse,void *> > ><mfxFrameAllocResponse>
PUBLIC	??$addressof@U_Container_proxy@std@@@std@@YAPEAU_Container_proxy@0@AEAU10@@Z ; std::addressof<std::_Container_proxy>
PUBLIC	??$forward@PEAU_Container_base12@std@@@std@@YA$$QEAPEAU_Container_base12@0@AEAPEAU10@@Z ; std::forward<std::_Container_base12 *>
PUBLIC	??$addressof@PEAU?$_List_node@UUniqueResponse@QSVAllocator@@PEAX@std@@@std@@YAPEAPEAU?$_List_node@UUniqueResponse@QSVAllocator@@PEAX@0@AEAPEAU10@@Z ; std::addressof<std::_List_node<QSVAllocator::UniqueResponse,void *> *>
PUBLIC	??$forward@AEAPEAU?$_List_node@UUniqueResponse@QSVAllocator@@PEAX@std@@@std@@YAAEAPEAU?$_List_node@UUniqueResponse@QSVAllocator@@PEAX@0@AEAPEAU10@@Z ; std::forward<std::_List_node<QSVAllocator::UniqueResponse,void *> * &>
PUBLIC	??$_Destroy_in_place@PEAU?$_List_node@UUniqueResponse@QSVAllocator@@PEAX@std@@@std@@YAXAEAPEAU?$_List_node@UUniqueResponse@QSVAllocator@@PEAX@0@@Z ; std::_Destroy_in_place<std::_List_node<QSVAllocator::UniqueResponse,void *> *>
PUBLIC	??$addressof@PEAU?$_List_node@UmfxFrameAllocResponse@@PEAX@std@@@std@@YAPEAPEAU?$_List_node@UmfxFrameAllocResponse@@PEAX@0@AEAPEAU10@@Z ; std::addressof<std::_List_node<mfxFrameAllocResponse,void *> *>
PUBLIC	??$forward@AEAPEAU?$_List_node@UmfxFrameAllocResponse@@PEAX@std@@@std@@YAAEAPEAU?$_List_node@UmfxFrameAllocResponse@@PEAX@0@AEAPEAU10@@Z ; std::forward<std::_List_node<mfxFrameAllocResponse,void *> * &>
PUBLIC	??$_Destroy_in_place@PEAU?$_List_node@UmfxFrameAllocResponse@@PEAX@std@@@std@@YAXAEAPEAU?$_List_node@UmfxFrameAllocResponse@@PEAX@0@@Z ; std::_Destroy_in_place<std::_List_node<mfxFrameAllocResponse,void *> *>
PUBLIC	??$_Allocate_manually_vector_aligned@U_Default_allocate_traits@std@@@std@@YAPEAX_K@Z ; std::_Allocate_manually_vector_aligned<std::_Default_allocate_traits>
PUBLIC	??$move@AEAPEAVRGYLog@@@std@@YA$$QEAPEAVRGYLog@@AEAPEAV1@@Z ; std::move<RGYLog * &>
PUBLIC	??$move@AEAPEAV_Ref_count_base@std@@@std@@YA$$QEAPEAV_Ref_count_base@0@AEAPEAV10@@Z ; std::move<std::_Ref_count_base * &>
PUBLIC	??$_Construct_in_place@PEAU?$_List_node@UmfxFrameAllocResponse@@PEAX@std@@AEBQEAU12@@std@@YAXAEAPEAU?$_List_node@UmfxFrameAllocResponse@@PEAX@0@AEBQEAU10@@Z ; std::_Construct_in_place<std::_List_node<mfxFrameAllocResponse,void *> *,std::_List_node<mfxFrameAllocResponse,void *> * const &>
PUBLIC	??$_Construct_in_place@PEAU?$_List_node@UUniqueResponse@QSVAllocator@@PEAX@std@@AEBQEAU12@@std@@YAXAEAPEAU?$_List_node@UUniqueResponse@QSVAllocator@@PEAX@0@AEBQEAU10@@Z ; std::_Construct_in_place<std::_List_node<QSVAllocator::UniqueResponse,void *> *,std::_List_node<QSVAllocator::UniqueResponse,void *> * const &>
PUBLIC	?deallocate@?$_Default_allocator_traits@V?$allocator@U_Container_proxy@std@@@std@@@std@@SAXAEAV?$allocator@U_Container_proxy@std@@@2@QEAU_Container_proxy@2@_K@Z ; std::_Default_allocator_traits<std::allocator<std::_Container_proxy> >::deallocate
PUBLIC	??$construct@UUniqueResponse@QSVAllocator@@U12@@?$_Default_allocator_traits@V?$allocator@U?$_List_node@UUniqueResponse@QSVAllocator@@PEAX@std@@@std@@@std@@SAXAEAV?$allocator@U?$_List_node@UUniqueResponse@QSVAllocator@@PEAX@std@@@1@QEAUUniqueResponse@QSVAllocator@@$$QEAU34@@Z ; std::_Default_allocator_traits<std::allocator<std::_List_node<QSVAllocator::UniqueResponse,void *> > >::construct<QSVAllocator::UniqueResponse,QSVAllocator::UniqueResponse>
PUBLIC	??$construct@UmfxFrameAllocResponse@@U1@@?$_Default_allocator_traits@V?$allocator@U?$_List_node@UmfxFrameAllocResponse@@PEAX@std@@@std@@@std@@SAXAEAV?$allocator@U?$_List_node@UmfxFrameAllocResponse@@PEAX@std@@@1@QEAUmfxFrameAllocResponse@@$$QEAU3@@Z ; std::_Default_allocator_traits<std::allocator<std::_List_node<mfxFrameAllocResponse,void *> > >::construct<mfxFrameAllocResponse,mfxFrameAllocResponse>
PUBLIC	??$forward@AEBQEAU?$_List_node@UmfxFrameAllocResponse@@PEAX@std@@@std@@YAAEBQEAU?$_List_node@UmfxFrameAllocResponse@@PEAX@0@AEBQEAU10@@Z ; std::forward<std::_List_node<mfxFrameAllocResponse,void *> * const &>
PUBLIC	??$forward@AEBQEAU?$_List_node@UUniqueResponse@QSVAllocator@@PEAX@std@@@std@@YAAEBQEAU?$_List_node@UUniqueResponse@QSVAllocator@@PEAX@0@AEBQEAU10@@Z ; std::forward<std::_List_node<QSVAllocator::UniqueResponse,void *> * const &>
PUBLIC	??_7exception@std@@6B@				; std::exception::`vftable'
PUBLIC	??_C@_0BC@EOODALEL@Unknown?5exception@		; `string'
PUBLIC	??_7bad_alloc@std@@6B@				; std::bad_alloc::`vftable'
PUBLIC	??_7bad_array_new_length@std@@6B@		; std::bad_array_new_length::`vftable'
PUBLIC	??_C@_0BF@KINCDENJ@bad?5array?5new?5length@	; `string'
PUBLIC	_TI3?AVbad_array_new_length@std@@
PUBLIC	_CTA3?AVbad_array_new_length@std@@
PUBLIC	??_R0?AVbad_array_new_length@std@@@8		; std::bad_array_new_length `RTTI Type Descriptor'
PUBLIC	_CT??_R0?AVbad_array_new_length@std@@@8??0bad_array_new_length@std@@QEAA@AEBV01@@Z24
PUBLIC	??_R0?AVbad_alloc@std@@@8			; std::bad_alloc `RTTI Type Descriptor'
PUBLIC	_CT??_R0?AVbad_alloc@std@@@8??0bad_alloc@std@@QEAA@AEBV01@@Z24
PUBLIC	??_R0?AVexception@std@@@8			; std::exception `RTTI Type Descriptor'
PUBLIC	_CT??_R0?AVexception@std@@@8??0exception@std@@QEAA@AEBV01@@Z24
PUBLIC	??_C@_0BB@FCMFBGOM@invalid?5argument@		; `string'
PUBLIC	??_C@_02DKCKIIND@?$CFs@				; `string'
PUBLIC	??_C@_0GI@FJIKDGOA@C?3?2Program?5Files?5?$CIx86?$CJ?2Microsof@ ; `string'
PUBLIC	??_C@_1NA@CDBIFGMM@?$AAC?$AA?3?$AA?2?$AAP?$AAr?$AAo?$AAg?$AAr?$AAa?$AAm?$AA?5?$AAF?$AAi?$AAl?$AAe@ ; `string'
PUBLIC	??_C@_1EK@NIFDJFDG@?$AAs?$AAt?$AAd?$AA?3?$AA?3?$AA_?$AAA?$AAd?$AAj?$AAu?$AAs?$AAt?$AA_?$AAm?$AAa@ ; `string'
PUBLIC	??_C@_1CG@JNLFBNGN@?$AA?$CC?$AAi?$AAn?$AAv?$AAa?$AAl?$AAi?$AAd?$AA?5?$AAa?$AAr?$AAg?$AAu?$AAm?$AAe@ ; `string'
PUBLIC	??_C@_0BJ@LFDBABJJ@ITERATOR?5LIST?5CORRUPTED?$CB@ ; `string'
PUBLIC	??_C@_1EE@KLDMFDFL@?$AAs?$AAt?$AAd?$AA?3?$AA?3?$AA_?$AAI?$AAt?$AAe?$AAr?$AAa?$AAt?$AAo?$AAr?$AA_@ ; `string'
PUBLIC	??_C@_1DG@PLBPCAEM@?$AA?$CC?$AAI?$AAT?$AAE?$AAR?$AAA?$AAT?$AAO?$AAR?$AA?5?$AAL?$AAI?$AAS?$AAT?$AA?5@ ; `string'
PUBLIC	??_7QSVBufferAllocator@@6B@			; QSVBufferAllocator::`vftable'
PUBLIC	??_7QSVAllocator@@6B@				; QSVAllocator::`vftable'
PUBLIC	??_C@_0CC@KEJJOMBH@list?5erase?5iterator?5outside?5ran@ ; `string'
PUBLIC	??_C@_0GF@GNCHBLDJ@C?3?2Program?5Files?5?$CIx86?$CJ?2Microsof@ ; `string'
PUBLIC	??_C@_1MK@DPPFMAIA@?$AAC?$AA?3?$AA?2?$AAP?$AAr?$AAo?$AAg?$AAr?$AAa?$AAm?$AA?5?$AAF?$AAi?$AAl?$AAe@ ; `string'
PUBLIC	??_C@_1OC@FPLGCEPB@?$AAs?$AAt?$AAd?$AA?3?$AA?3?$AAl?$AAi?$AAs?$AAt?$AA?$DM?$AAs?$AAt?$AAr?$AAu?$AAc@ ; `string'
PUBLIC	??_C@_1EI@FHIDKIBN@?$AA?$CC?$AAl?$AAi?$AAs?$AAt?$AA?5?$AAe?$AAr?$AAa?$AAs?$AAe?$AA?5?$AAi?$AAt?$AAe@ ; `string'
PUBLIC	??_C@_1MG@IGJAEKKC@?$AAs?$AAt?$AAd?$AA?3?$AA?3?$AAl?$AAi?$AAs?$AAt?$AA?$DM?$AAs?$AAt?$AAr?$AAu?$AAc@ ; `string'
PUBLIC	??_C@_0CB@EKEMEMC@pop_back?5called?5on?5empty?5list?$DMT@ ; `string'
PUBLIC	??_C@_1MM@EBAHMKGK@?$AAs?$AAt?$AAd?$AA?3?$AA?3?$AAl?$AAi?$AAs?$AAt?$AA?$DM?$AAs?$AAt?$AAr?$AAu?$AAc@ ; `string'
PUBLIC	??_C@_1EG@IHNNOGFN@?$AA?$CC?$AAp?$AAo?$AAp?$AA_?$AAb?$AAa?$AAc?$AAk?$AA?5?$AAc?$AAa?$AAl?$AAl?$AAe@ ; `string'
PUBLIC	??_C@_0BM@BALDKKHE@list?5iterators?5incompatible@ ; `string'
PUBLIC	??_C@_1PK@BDINIFNN@?$AAs?$AAt?$AAd?$AA?3?$AA?3?$AA_?$AAL?$AAi?$AAs?$AAt?$AA_?$AAc?$AAo?$AAn?$AAs@ ; `string'
PUBLIC	??_C@_1DM@KDLJAKOP@?$AA?$CC?$AAl?$AAi?$AAs?$AAt?$AA?5?$AAi?$AAt?$AAe?$AAr?$AAa?$AAt?$AAo?$AAr?$AAs@ ; `string'
PUBLIC	??_C@_0DB@ENBCPNKO@cannot?5increment?5value?9initiali@ ; `string'
PUBLIC	??_C@_1PK@LDHAGMBI@?$AAs?$AAt?$AAd?$AA?3?$AA?3?$AA_?$AAL?$AAi?$AAs?$AAt?$AA_?$AAc?$AAo?$AAn?$AAs@ ; `string'
PUBLIC	??_C@_1GG@JLMAGPNK@?$AA?$CC?$AAc?$AAa?$AAn?$AAn?$AAo?$AAt?$AA?5?$AAi?$AAn?$AAc?$AAr?$AAe?$AAm?$AAe@ ; `string'
PUBLIC	??_C@_0CD@PMFMCEG@cannot?5increment?5end?5list?5itera@ ; `string'
PUBLIC	??_C@_1EK@OKKCFDJN@?$AA?$CC?$AAc?$AAa?$AAn?$AAn?$AAo?$AAt?$AA?5?$AAi?$AAn?$AAc?$AAr?$AAe?$AAm?$AAe@ ; `string'
PUBLIC	??_C@_0DD@MBIHGLJE@cannot?5dereference?5value?9initia@ ; `string'
PUBLIC	??_C@_1PI@LEDFCHND@?$AAs?$AAt?$AAd?$AA?3?$AA?3?$AA_?$AAL?$AAi?$AAs?$AAt?$AA_?$AAc?$AAo?$AAn?$AAs@ ; `string'
PUBLIC	??_C@_1GK@NKIMOCIG@?$AA?$CC?$AAc?$AAa?$AAn?$AAn?$AAo?$AAt?$AA?5?$AAd?$AAe?$AAr?$AAe?$AAf?$AAe?$AAr@ ; `string'
PUBLIC	??_C@_0CF@JCBFHMPL@cannot?5dereference?5end?5list?5ite@ ; `string'
PUBLIC	??_C@_1EO@CNEFBDCF@?$AA?$CC?$AAc?$AAa?$AAn?$AAn?$AAo?$AAt?$AA?5?$AAd?$AAe?$AAr?$AAe?$AAf?$AAe?$AAr@ ; `string'
PUBLIC	??_C@_1BAI@PDOPGBHP@?$AAs?$AAt?$AAd?$AA?3?$AA?3?$AA_?$AAL?$AAi?$AAs?$AAt?$AA_?$AAc?$AAo?$AAn?$AAs@ ; `string'
PUBLIC	??_C@_1BAI@FDBCIILK@?$AAs?$AAt?$AAd?$AA?3?$AA?3?$AA_?$AAL?$AAi?$AAs?$AAt?$AA_?$AAc?$AAo?$AAn?$AAs@ ; `string'
PUBLIC	??_C@_1BAG@ENFBGKN@?$AAs?$AAt?$AAd?$AA?3?$AA?3?$AA_?$AAL?$AAi?$AAs?$AAt?$AA_?$AAc?$AAo?$AAn?$AAs@ ; `string'
PUBLIC	??_C@_0DB@MCPEHPCC@cannot?5decrement?5value?9initiali@ ; `string'
PUBLIC	??_C@_1PK@EAECNANJ@?$AAs?$AAt?$AAd?$AA?3?$AA?3?$AA_?$AAL?$AAi?$AAs?$AAt?$AA_?$AAc?$AAo?$AAn?$AAs@ ; `string'
PUBLIC	??_C@_1GG@FLDKPFOH@?$AA?$CC?$AAc?$AAa?$AAn?$AAn?$AAo?$AAt?$AA?5?$AAd?$AAe?$AAc?$AAr?$AAe?$AAm?$AAe@ ; `string'
PUBLIC	??_C@_0CF@BAAFPBMN@cannot?5decrement?5begin?5list?5ite@ ; `string'
PUBLIC	??_C@_1EO@PPPLIDNC@?$AA?$CC?$AAc?$AAa?$AAn?$AAn?$AAo?$AAt?$AA?5?$AAd?$AAe?$AAc?$AAr?$AAe?$AAm?$AAe@ ; `string'
PUBLIC	??_C@_0BB@MOGOBHAF@list?$DMT?$DO?5too?5long@	; `string'
PUBLIC	??_C@_1CG@LJCPDKEJ@?$AAs?$AAt?$AAd?$AA?3?$AA?3?$AA_?$AAV?$AAe?$AAr?$AAi?$AAf?$AAy?$AA_?$AAr?$AAa@ ; `string'
PUBLIC	??_C@_0DG@GAGDEJEE@list?5iterators?5in?5range?5are?5fro@ ; `string'
PUBLIC	??_C@_1HA@KAMKPLHN@?$AA?$CC?$AAl?$AAi?$AAs?$AAt?$AA?5?$AAi?$AAt?$AAe?$AAr?$AAa?$AAt?$AAo?$AAr?$AAs@ ; `string'
PUBLIC	??_R4exception@std@@6B@				; std::exception::`RTTI Complete Object Locator'
PUBLIC	??_R3exception@std@@8				; std::exception::`RTTI Class Hierarchy Descriptor'
PUBLIC	??_R2exception@std@@8				; std::exception::`RTTI Base Class Array'
PUBLIC	??_R1A@?0A@EA@exception@std@@8			; std::exception::`RTTI Base Class Descriptor at (0,-1,0,64)'
PUBLIC	??_R4bad_alloc@std@@6B@				; std::bad_alloc::`RTTI Complete Object Locator'
PUBLIC	??_R3bad_alloc@std@@8				; std::bad_alloc::`RTTI Class Hierarchy Descriptor'
PUBLIC	??_R2bad_alloc@std@@8				; std::bad_alloc::`RTTI Base Class Array'
PUBLIC	??_R1A@?0A@EA@bad_alloc@std@@8			; std::bad_alloc::`RTTI Base Class Descriptor at (0,-1,0,64)'
PUBLIC	??_R4bad_array_new_length@std@@6B@		; std::bad_array_new_length::`RTTI Complete Object Locator'
PUBLIC	??_R3bad_array_new_length@std@@8		; std::bad_array_new_length::`RTTI Class Hierarchy Descriptor'
PUBLIC	??_R2bad_array_new_length@std@@8		; std::bad_array_new_length::`RTTI Base Class Array'
PUBLIC	??_R1A@?0A@EA@bad_array_new_length@std@@8	; std::bad_array_new_length::`RTTI Base Class Descriptor at (0,-1,0,64)'
PUBLIC	??_R4QSVBufferAllocator@@6B@			; QSVBufferAllocator::`RTTI Complete Object Locator'
PUBLIC	??_R0?AVQSVBufferAllocator@@@8			; QSVBufferAllocator `RTTI Type Descriptor'
PUBLIC	??_R3QSVBufferAllocator@@8			; QSVBufferAllocator::`RTTI Class Hierarchy Descriptor'
PUBLIC	??_R2QSVBufferAllocator@@8			; QSVBufferAllocator::`RTTI Base Class Array'
PUBLIC	??_R1A@?0A@EA@QSVBufferAllocator@@8		; QSVBufferAllocator::`RTTI Base Class Descriptor at (0,-1,0,64)'
PUBLIC	??_R17?0A@EA@mfxBufferAllocator@@8		; mfxBufferAllocator::`RTTI Base Class Descriptor at (8,-1,0,64)'
PUBLIC	??_R0?AUmfxBufferAllocator@@@8			; mfxBufferAllocator `RTTI Type Descriptor'
PUBLIC	??_R3mfxBufferAllocator@@8			; mfxBufferAllocator::`RTTI Class Hierarchy Descriptor'
PUBLIC	??_R2mfxBufferAllocator@@8			; mfxBufferAllocator::`RTTI Base Class Array'
PUBLIC	??_R1A@?0A@EA@mfxBufferAllocator@@8		; mfxBufferAllocator::`RTTI Base Class Descriptor at (0,-1,0,64)'
PUBLIC	??_R4QSVAllocator@@6B@				; QSVAllocator::`RTTI Complete Object Locator'
PUBLIC	??_R0?AVQSVAllocator@@@8			; QSVAllocator `RTTI Type Descriptor'
PUBLIC	??_R3QSVAllocator@@8				; QSVAllocator::`RTTI Class Hierarchy Descriptor'
PUBLIC	??_R2QSVAllocator@@8				; QSVAllocator::`RTTI Base Class Array'
PUBLIC	??_R1A@?0A@EA@QSVAllocator@@8			; QSVAllocator::`RTTI Base Class Descriptor at (0,-1,0,64)'
PUBLIC	??_R17?0A@EA@mfxFrameAllocator@@8		; mfxFrameAllocator::`RTTI Base Class Descriptor at (8,-1,0,64)'
PUBLIC	??_R0?AUmfxFrameAllocator@@@8			; mfxFrameAllocator `RTTI Type Descriptor'
PUBLIC	??_R3mfxFrameAllocator@@8			; mfxFrameAllocator::`RTTI Class Hierarchy Descriptor'
PUBLIC	??_R2mfxFrameAllocator@@8			; mfxFrameAllocator::`RTTI Base Class Array'
PUBLIC	??_R1A@?0A@EA@mfxFrameAllocator@@8		; mfxFrameAllocator::`RTTI Base Class Descriptor at (0,-1,0,64)'
EXTRN	_purecall:PROC
EXTRN	??2@YAPEAX_K@Z:PROC				; operator new
EXTRN	??3@YAXPEAX_K@Z:PROC				; operator delete
EXTRN	__imp__invalid_parameter:PROC
EXTRN	__imp__CrtDbgReport:PROC
EXTRN	__imp_??0_Lockit@std@@QEAA@H@Z:PROC
EXTRN	__imp_??1_Lockit@std@@QEAA@XZ:PROC
EXTRN	__std_exception_copy:PROC
EXTRN	__std_exception_destroy:PROC
EXTRN	??_Eexception@std@@UEAAPEAXI@Z:PROC		; std::exception::`vector deleting destructor'
EXTRN	??_Ebad_alloc@std@@UEAAPEAXI@Z:PROC		; std::bad_alloc::`vector deleting destructor'
EXTRN	??_Ebad_array_new_length@std@@UEAAPEAXI@Z:PROC	; std::bad_array_new_length::`vector deleting destructor'
EXTRN	?_Xlength_error@std@@YAXPEBD@Z:PROC		; std::_Xlength_error
EXTRN	??_EQSVBufferAllocator@@UEAAPEAXI@Z:PROC	; QSVBufferAllocator::`vector deleting destructor'
EXTRN	??_EQSVAllocator@@UEAAPEAXI@Z:PROC		; QSVAllocator::`vector deleting destructor'
EXTRN	?qsv_memtype_str@@YA?AV?$basic_string@DU?$char_traits@D@std@@V?$allocator@D@2@@std@@G@Z:PROC ; qsv_memtype_str
EXTRN	?get_err_mes@@YAPEBDH@Z:PROC			; get_err_mes
EXTRN	_CxxThrowException:PROC
EXTRN	_RTC_CheckStackVars:PROC
EXTRN	_RTC_InitBase:PROC
EXTRN	_RTC_Shutdown:PROC
EXTRN	__CxxFrameHandler4:PROC
EXTRN	__GSHandlerCheck:PROC
EXTRN	__GSHandlerCheck_EH4:PROC
EXTRN	__security_check_cookie:PROC
EXTRN	??_7type_info@@6B@:BYTE				; type_info::`vftable'
EXTRN	__security_cookie:QWORD
_BSS	SEGMENT
?CspMatrixList@@3V?$array@W4CspMatrix@@$0O@@std@@B DB 038H DUP (?) ; CspMatrixList
?CspTransferList@@3V?$array@W4CspTransfer@@$0P@@std@@B DB 03cH DUP (?) ; CspTransferList
?CspColorprimList@@3V?$array@W4CspColorprim@@$0M@@std@@B DB 030H DUP (?) ; CspColorprimList
_BSS	ENDS
;	COMDAT pdata
pdata	SEGMENT
$pdata$?__empty_global_delete@@YAXPEAX@Z DD imagerel $LN3
	DD	imagerel $LN3+8
	DD	imagerel $unwind$?__empty_global_delete@@YAXPEAX@Z
pdata	ENDS
;	COMDAT pdata
pdata	SEGMENT
$pdata$?__empty_global_delete@@YAXPEAX_K@Z DD imagerel $LN3
	DD	imagerel $LN3+13
	DD	imagerel $unwind$?__empty_global_delete@@YAXPEAX_K@Z
pdata	ENDS
;	COMDAT pdata
pdata	SEGMENT
$pdata$??2@YAPEAX_KPEAX@Z DD imagerel $LN3
	DD	imagerel $LN3+18
	DD	imagerel $unwind$??2@YAPEAX_KPEAX@Z
pdata	ENDS
;	COMDAT pdata
pdata	SEGMENT
$pdata$?max@?$numeric_limits@_J@std@@SA_JXZ DD imagerel $LN3
	DD	imagerel $LN3+14
	DD	imagerel $unwind$?max@?$numeric_limits@_J@std@@SA_JXZ
pdata	ENDS
;	COMDAT pdata
pdata	SEGMENT
$pdata$??0exception@std@@QEAA@QEBDH@Z DD imagerel $LN3
	DD	imagerel $LN3+73
	DD	imagerel $unwind$??0exception@std@@QEAA@QEBDH@Z
pdata	ENDS
;	COMDAT pdata
pdata	SEGMENT
$pdata$??0exception@std@@QEAA@AEBV01@@Z DD imagerel $LN3
	DD	imagerel $LN3+109
	DD	imagerel $unwind$??0exception@std@@QEAA@AEBV01@@Z
pdata	ENDS
;	COMDAT pdata
pdata	SEGMENT
$pdata$??1exception@std@@UEAA@XZ DD imagerel $LN3
	DD	imagerel $LN3+69
	DD	imagerel $unwind$??1exception@std@@UEAA@XZ
pdata	ENDS
;	COMDAT pdata
pdata	SEGMENT
$pdata$?what@exception@std@@UEBAPEBDXZ DD imagerel $LN5
	DD	imagerel $LN5+78
	DD	imagerel $unwind$?what@exception@std@@UEBAPEBDXZ
pdata	ENDS
;	COMDAT pdata
pdata	SEGMENT
$pdata$??_Gexception@std@@UEAAPEAXI@Z DD imagerel $LN4
	DD	imagerel $LN4+81
	DD	imagerel $unwind$??_Gexception@std@@UEAAPEAXI@Z
pdata	ENDS
;	COMDAT pdata
pdata	SEGMENT
$pdata$??0bad_alloc@std@@AEAA@QEBD@Z DD imagerel $LN4
	DD	imagerel $LN4+83
	DD	imagerel $unwind$??0bad_alloc@std@@AEAA@QEBD@Z
pdata	ENDS
;	COMDAT pdata
pdata	SEGMENT
$pdata$?dtor$0@?0???0bad_alloc@std@@AEAA@QEBD@Z@4HA DD imagerel ?dtor$0@?0???0bad_alloc@std@@AEAA@QEBD@Z@4HA
	DD	imagerel ?dtor$0@?0???0bad_alloc@std@@AEAA@QEBD@Z@4HA+35
	DD	imagerel $unwind$?dtor$0@?0???0bad_alloc@std@@AEAA@QEBD@Z@4HA
pdata	ENDS
;	COMDAT pdata
pdata	SEGMENT
$pdata$??1bad_alloc@std@@UEAA@XZ DD imagerel $LN4
	DD	imagerel $LN4+47
	DD	imagerel $unwind$??1bad_alloc@std@@UEAA@XZ
pdata	ENDS
;	COMDAT pdata
pdata	SEGMENT
$pdata$?dtor$0@?0???1bad_alloc@std@@UEAA@XZ@4HA DD imagerel ?dtor$0@?0???1bad_alloc@std@@UEAA@XZ@4HA
	DD	imagerel ?dtor$0@?0???1bad_alloc@std@@UEAA@XZ@4HA+35
	DD	imagerel $unwind$?dtor$0@?0???1bad_alloc@std@@UEAA@XZ@4HA
pdata	ENDS
;	COMDAT pdata
pdata	SEGMENT
$pdata$??0bad_alloc@std@@QEAA@AEBV01@@Z DD imagerel $LN4
	DD	imagerel $LN4+77
	DD	imagerel $unwind$??0bad_alloc@std@@QEAA@AEBV01@@Z
pdata	ENDS
;	COMDAT pdata
pdata	SEGMENT
$pdata$?dtor$0@?0???0bad_alloc@std@@QEAA@AEBV01@@Z@4HA DD imagerel ?dtor$0@?0???0bad_alloc@std@@QEAA@AEBV01@@Z@4HA
	DD	imagerel ?dtor$0@?0???0bad_alloc@std@@QEAA@AEBV01@@Z@4HA+35
	DD	imagerel $unwind$?dtor$0@?0???0bad_alloc@std@@QEAA@AEBV01@@Z@4HA
pdata	ENDS
;	COMDAT pdata
pdata	SEGMENT
$pdata$??_Gbad_alloc@std@@UEAAPEAXI@Z DD imagerel $LN4
	DD	imagerel $LN4+81
	DD	imagerel $unwind$??_Gbad_alloc@std@@UEAAPEAXI@Z
pdata	ENDS
;	COMDAT pdata
pdata	SEGMENT
$pdata$??0bad_array_new_length@std@@QEAA@XZ DD imagerel $LN4
	DD	imagerel $LN4+74
	DD	imagerel $unwind$??0bad_array_new_length@std@@QEAA@XZ
pdata	ENDS
;	COMDAT pdata
pdata	SEGMENT
$pdata$?dtor$0@?0???0bad_array_new_length@std@@QEAA@XZ@4HA DD imagerel ?dtor$0@?0???0bad_array_new_length@std@@QEAA@XZ@4HA
	DD	imagerel ?dtor$0@?0???0bad_array_new_length@std@@QEAA@XZ@4HA+35
	DD	imagerel $unwind$?dtor$0@?0???0bad_array_new_length@std@@QEAA@XZ@4HA
pdata	ENDS
;	COMDAT pdata
pdata	SEGMENT
$pdata$??1bad_array_new_length@std@@UEAA@XZ DD imagerel $LN4
	DD	imagerel $LN4+47
	DD	imagerel $unwind$??1bad_array_new_length@std@@UEAA@XZ
pdata	ENDS
;	COMDAT pdata
pdata	SEGMENT
$pdata$?dtor$0@?0???1bad_array_new_length@std@@UEAA@XZ@4HA DD imagerel ?dtor$0@?0???1bad_array_new_length@std@@UEAA@XZ@4HA
	DD	imagerel ?dtor$0@?0???1bad_array_new_length@std@@UEAA@XZ@4HA+35
	DD	imagerel $unwind$?dtor$0@?0???1bad_array_new_length@std@@UEAA@XZ@4HA
pdata	ENDS
;	COMDAT pdata
pdata	SEGMENT
$pdata$??0bad_array_new_length@std@@QEAA@AEBV01@@Z DD imagerel $LN4
	DD	imagerel $LN4+77
	DD	imagerel $unwind$??0bad_array_new_length@std@@QEAA@AEBV01@@Z
pdata	ENDS
;	COMDAT pdata
pdata	SEGMENT
$pdata$?dtor$0@?0???0bad_array_new_length@std@@QEAA@AEBV01@@Z@4HA DD imagerel ?dtor$0@?0???0bad_array_new_length@std@@QEAA@AEBV01@@Z@4HA
	DD	imagerel ?dtor$0@?0???0bad_array_new_length@std@@QEAA@AEBV01@@Z@4HA+35
	DD	imagerel $unwind$?dtor$0@?0???0bad_array_new_length@std@@QEAA@AEBV01@@Z@4HA
pdata	ENDS
;	COMDAT pdata
pdata	SEGMENT
$pdata$??_Gbad_array_new_length@std@@UEAAPEAXI@Z DD imagerel $LN4
	DD	imagerel $LN4+81
	DD	imagerel $unwind$??_Gbad_array_new_length@std@@UEAAPEAXI@Z
pdata	ENDS
;	COMDAT pdata
pdata	SEGMENT
$pdata$?_Throw_bad_array_new_length@std@@YAXXZ DD imagerel $LN3
	DD	imagerel $LN3+54
	DD	imagerel $unwind$?_Throw_bad_array_new_length@std@@YAXXZ
pdata	ENDS
;	COMDAT pdata
pdata	SEGMENT
$pdata$?_Allocate@_Default_allocate_traits@std@@SAPEAX_K@Z DD imagerel $LN3
	DD	imagerel $LN3+46
	DD	imagerel $unwind$?_Allocate@_Default_allocate_traits@std@@SAPEAX_K@Z
pdata	ENDS
;	COMDAT pdata
pdata	SEGMENT
$pdata$?_Adjust_manually_vector_aligned@std@@YAXAEAPEAXAEA_K@Z DD imagerel $LN21
	DD	imagerel $LN21+424
	DD	imagerel $unwind$?_Adjust_manually_vector_aligned@std@@YAXAEAPEAXAEA_K@Z
pdata	ENDS
;	COMDAT pdata
pdata	SEGMENT
$pdata$?_Adopt@_Iterator_base0@std@@QEAAXPEBX@Z DD imagerel $LN3
	DD	imagerel $LN3+13
	DD	imagerel $unwind$?_Adopt@_Iterator_base0@std@@QEAAXPEBX@Z
pdata	ENDS
;	COMDAT pdata
pdata	SEGMENT
$pdata$??0_Container_proxy@std@@QEAA@PEAU_Container_base12@1@@Z DD imagerel $LN3
	DD	imagerel $LN3+44
	DD	imagerel $unwind$??0_Container_proxy@std@@QEAA@PEAU_Container_base12@1@@Z
pdata	ENDS
;	COMDAT pdata
pdata	SEGMENT
$pdata$??0_Container_base12@std@@QEAA@XZ DD imagerel $LN3
	DD	imagerel $LN3+25
	DD	imagerel $unwind$??0_Container_base12@std@@QEAA@XZ
pdata	ENDS
;	COMDAT pdata
pdata	SEGMENT
$pdata$?_Orphan_all@_Container_base12@std@@QEAAXXZ DD imagerel $LN8
	DD	imagerel $LN8+175
	DD	imagerel $unwind$?_Orphan_all@_Container_base12@std@@QEAAXXZ
pdata	ENDS
;	COMDAT pdata
pdata	SEGMENT
$pdata$?dtor$0@?0??_Orphan_all@_Container_base12@std@@QEAAXXZ@4HA DD imagerel ?dtor$0@?0??_Orphan_all@_Container_base12@std@@QEAAXXZ@4HA
	DD	imagerel ?dtor$0@?0??_Orphan_all@_Container_base12@std@@QEAAXXZ@4HA+36
	DD	imagerel $unwind$?dtor$0@?0??_Orphan_all@_Container_base12@std@@QEAAXXZ@4HA
pdata	ENDS
;	COMDAT pdata
pdata	SEGMENT
$pdata$??0_Iterator_base12@std@@QEAA@XZ DD imagerel $LN3
	DD	imagerel $LN3+38
	DD	imagerel $unwind$??0_Iterator_base12@std@@QEAA@XZ
pdata	ENDS
;	COMDAT pdata
pdata	SEGMENT
$pdata$??0_Iterator_base12@std@@QEAA@AEBU01@@Z DD imagerel $LN3
	DD	imagerel $LN3+86
	DD	imagerel $unwind$??0_Iterator_base12@std@@QEAA@AEBU01@@Z
pdata	ENDS
;	COMDAT pdata
pdata	SEGMENT
$pdata$??4_Iterator_base12@std@@QEAAAEAU01@AEBU01@@Z DD imagerel $LN7
	DD	imagerel $LN7+161
	DD	imagerel $unwind$??4_Iterator_base12@std@@QEAAAEAU01@AEBU01@@Z
pdata	ENDS
;	COMDAT pdata
pdata	SEGMENT
$pdata$?dtor$0@?0???4_Iterator_base12@std@@QEAAAEAU01@AEBU01@@Z@4HA DD imagerel ?dtor$0@?0???4_Iterator_base12@std@@QEAAAEAU01@AEBU01@@Z@4HA
	DD	imagerel ?dtor$0@?0???4_Iterator_base12@std@@QEAAAEAU01@AEBU01@@Z@4HA+36
	DD	imagerel $unwind$?dtor$0@?0???4_Iterator_base12@std@@QEAAAEAU01@AEBU01@@Z@4HA
pdata	ENDS
;	COMDAT pdata
pdata	SEGMENT
$pdata$??1_Iterator_base12@std@@QEAA@XZ DD imagerel $LN4
	DD	imagerel $LN4+92
	DD	imagerel $unwind$??1_Iterator_base12@std@@QEAA@XZ
pdata	ENDS
;	COMDAT pdata
pdata	SEGMENT
$pdata$?dtor$0@?0???1_Iterator_base12@std@@QEAA@XZ@4HA DD imagerel ?dtor$0@?0???1_Iterator_base12@std@@QEAA@XZ@4HA
	DD	imagerel ?dtor$0@?0???1_Iterator_base12@std@@QEAA@XZ@4HA+36
	DD	imagerel $unwind$?dtor$0@?0???1_Iterator_base12@std@@QEAA@XZ@4HA
pdata	ENDS
;	COMDAT pdata
pdata	SEGMENT
$pdata$?_Adopt@_Iterator_base12@std@@QEAAXPEBU_Container_base12@2@@Z DD imagerel $LN8
	DD	imagerel $LN8+251
	DD	imagerel $unwind$?_Adopt@_Iterator_base12@std@@QEAAXPEBU_Container_base12@2@@Z
pdata	ENDS
;	COMDAT pdata
pdata	SEGMENT
$pdata$?dtor$0@?0??_Adopt@_Iterator_base12@std@@QEAAXPEBU_Container_base12@2@@Z@4HA DD imagerel ?dtor$0@?0??_Adopt@_Iterator_base12@std@@QEAAXPEBU_Container_base12@2@@Z@4HA
	DD	imagerel ?dtor$0@?0??_Adopt@_Iterator_base12@std@@QEAAXPEBU_Container_base12@2@@Z@4HA+36
	DD	imagerel $unwind$?dtor$0@?0??_Adopt@_Iterator_base12@std@@QEAAXPEBU_Container_base12@2@@Z@4HA
pdata	ENDS
;	COMDAT pdata
pdata	SEGMENT
$pdata$?dtor$1@?0??_Adopt@_Iterator_base12@std@@QEAAXPEBU_Container_base12@2@@Z@4HA DD imagerel ?dtor$1@?0??_Adopt@_Iterator_base12@std@@QEAAXPEBU_Container_base12@2@@Z@4HA
	DD	imagerel ?dtor$1@?0??_Adopt@_Iterator_base12@std@@QEAAXPEBU_Container_base12@2@@Z@4HA+36
	DD	imagerel $unwind$?dtor$1@?0??_Adopt@_Iterator_base12@std@@QEAAXPEBU_Container_base12@2@@Z@4HA
pdata	ENDS
;	COMDAT pdata
pdata	SEGMENT
$pdata$?_Getcont@_Iterator_base12@std@@QEBAPEBU_Container_base12@2@XZ DD imagerel $LN5
	DD	imagerel $LN5+76
	DD	imagerel $unwind$?_Getcont@_Iterator_base12@std@@QEBAPEBU_Container_base12@2@XZ
pdata	ENDS
;	COMDAT pdata
pdata	SEGMENT
$pdata$?_Orphan_me@_Iterator_base12@std@@QEAAXXZ DD imagerel $LN15
	DD	imagerel $LN15+270
	DD	imagerel $unwind$?_Orphan_me@_Iterator_base12@std@@QEAAXXZ
pdata	ENDS
;	COMDAT pdata
pdata	SEGMENT
$pdata$?_Release@_Basic_container_proxy_ptr12@std@@QEAAXXZ DD imagerel $LN3
	DD	imagerel $LN3+20
	DD	imagerel $unwind$?_Release@_Basic_container_proxy_ptr12@std@@QEAAXXZ
pdata	ENDS
;	COMDAT pdata
pdata	SEGMENT
$pdata$?_Decref@_Ref_count_base@std@@QEAAXXZ DD imagerel $LN4
	DD	imagerel $LN4+87
	DD	imagerel $unwind$?_Decref@_Ref_count_base@std@@QEAAXXZ
pdata	ENDS
;	COMDAT pdata
pdata	SEGMENT
$pdata$?_Decwref@_Ref_count_base@std@@QEAAXXZ DD imagerel $LN4
	DD	imagerel $LN4+78
	DD	imagerel $unwind$?_Decwref@_Ref_count_base@std@@QEAAXXZ
pdata	ENDS
;	COMDAT pdata
pdata	SEGMENT
$pdata$?assign@?$_Narrow_char_traits@DH@std@@SAXAEADAEBD@Z DD imagerel $LN3
	DD	imagerel $LN3+28
	DD	imagerel $unwind$?assign@?$_Narrow_char_traits@DH@std@@SAXAEADAEBD@Z
pdata	ENDS
;	COMDAT pdata
pdata	SEGMENT
$pdata$?deallocate@?$allocator@D@std@@QEAAXQEAD_K@Z DD imagerel $LN3
	DD	imagerel $LN3+61
	DD	imagerel $unwind$?deallocate@?$allocator@D@std@@QEAAXQEAD_K@Z
pdata	ENDS
;	COMDAT pdata
pdata	SEGMENT
$pdata$?_Myptr@?$_String_val@U?$_Simple_types@D@std@@@std@@QEBAPEBDXZ DD imagerel $LN4
	DD	imagerel $LN4+91
	DD	imagerel $unwind$?_Myptr@?$_String_val@U?$_Simple_types@D@std@@@std@@QEBAPEBDXZ
pdata	ENDS
;	COMDAT pdata
pdata	SEGMENT
$pdata$?_Large_string_engaged@?$_String_val@U?$_Simple_types@D@std@@@std@@QEBA_NXZ DD imagerel $LN5
	DD	imagerel $LN5+68
	DD	imagerel $unwind$?_Large_string_engaged@?$_String_val@U?$_Simple_types@D@std@@@std@@QEBA_NXZ
pdata	ENDS
;	COMDAT pdata
pdata	SEGMENT
$pdata$??1_Bxty@?$_String_val@U?$_Simple_types@D@std@@@std@@QEAA@XZ DD imagerel $LN3
	DD	imagerel $LN3+8
	DD	imagerel $unwind$??1_Bxty@?$_String_val@U?$_Simple_types@D@std@@@std@@QEAA@XZ
pdata	ENDS
;	COMDAT pdata
pdata	SEGMENT
$pdata$??1?$_String_val@U?$_Simple_types@D@std@@@std@@QEAA@XZ DD imagerel $LN4
	DD	imagerel $LN4+54
	DD	imagerel $unwind$??1?$_String_val@U?$_Simple_types@D@std@@@std@@QEAA@XZ
pdata	ENDS
;	COMDAT pdata
pdata	SEGMENT
$pdata$?dtor$0@?0???1?$_String_val@U?$_Simple_types@D@std@@@std@@QEAA@XZ@4HA DD imagerel ?dtor$0@?0???1?$_String_val@U?$_Simple_types@D@std@@@std@@QEAA@XZ@4HA
	DD	imagerel ?dtor$0@?0???1?$_String_val@U?$_Simple_types@D@std@@@std@@QEAA@XZ@4HA+39
	DD	imagerel $unwind$?dtor$0@?0???1?$_String_val@U?$_Simple_types@D@std@@@std@@QEAA@XZ@4HA
pdata	ENDS
;	COMDAT pdata
pdata	SEGMENT
$pdata$??1?$basic_string@DU?$char_traits@D@std@@V?$allocator@D@2@@std@@QEAA@XZ DD imagerel $LN4
	DD	imagerel $LN4+153
	DD	imagerel $unwind$??1?$basic_string@DU?$char_traits@D@std@@V?$allocator@D@2@@std@@QEAA@XZ
pdata	ENDS
;	COMDAT pdata
pdata	SEGMENT
$pdata$?dtor$0@?0???1?$basic_string@DU?$char_traits@D@std@@V?$allocator@D@2@@std@@QEAA@XZ@4HA DD imagerel ?dtor$0@?0???1?$basic_string@DU?$char_traits@D@std@@V?$allocator@D@2@@std@@QEAA@XZ@4HA
	DD	imagerel ?dtor$0@?0???1?$basic_string@DU?$char_traits@D@std@@V?$allocator@D@2@@std@@QEAA@XZ@4HA+35
	DD	imagerel $unwind$?dtor$0@?0???1?$basic_string@DU?$char_traits@D@std@@V?$allocator@D@2@@std@@QEAA@XZ@4HA
pdata	ENDS
;	COMDAT pdata
pdata	SEGMENT
$pdata$?c_str@?$basic_string@DU?$char_traits@D@std@@V?$allocator@D@2@@std@@QEBAPEBDXZ DD imagerel $LN3
	DD	imagerel $LN3+50
	DD	imagerel $unwind$?c_str@?$basic_string@DU?$char_traits@D@std@@V?$allocator@D@2@@std@@QEBAPEBDXZ
pdata	ENDS
;	COMDAT pdata
pdata	SEGMENT
$pdata$?_Tidy_deallocate@?$basic_string@DU?$char_traits@D@std@@V?$allocator@D@2@@std@@AEAAXXZ DD imagerel $LN4
	DD	imagerel $LN4+214
	DD	imagerel $unwind$?_Tidy_deallocate@?$basic_string@DU?$char_traits@D@std@@V?$allocator@D@2@@std@@AEAAXXZ
pdata	ENDS
;	COMDAT pdata
pdata	SEGMENT
$pdata$?_Getal@?$basic_string@DU?$char_traits@D@std@@V?$allocator@D@2@@std@@AEAAAEAV?$allocator@D@2@XZ DD imagerel $LN3
	DD	imagerel $LN3+49
	DD	imagerel $unwind$?_Getal@?$basic_string@DU?$char_traits@D@std@@V?$allocator@D@2@@std@@AEAAAEAV?$allocator@D@2@XZ
pdata	ENDS
;	COMDAT pdata
pdata	SEGMENT
$pdata$?_Get_first@?$_Compressed_pair@V?$allocator@D@std@@V?$_String_val@U?$_Simple_types@D@std@@@2@$00@std@@QEAAAEAV?$allocator@D@2@XZ DD imagerel $LN3
	DD	imagerel $LN3+13
	DD	imagerel $unwind$?_Get_first@?$_Compressed_pair@V?$allocator@D@std@@V?$_String_val@U?$_Simple_types@D@std@@@2@$00@std@@QEAAAEAV?$allocator@D@2@XZ
pdata	ENDS
;	COMDAT pdata
pdata	SEGMENT
$pdata$??1?$_Compressed_pair@V?$allocator@D@std@@V?$_String_val@U?$_Simple_types@D@std@@@2@$00@std@@QEAA@XZ DD imagerel $LN4
	DD	imagerel $LN4+50
	DD	imagerel $unwind$??1?$_Compressed_pair@V?$allocator@D@std@@V?$_String_val@U?$_Simple_types@D@std@@@2@$00@std@@QEAA@XZ
pdata	ENDS
;	COMDAT pdata
pdata	SEGMENT
$pdata$?dtor$0@?0???1?$_Compressed_pair@V?$allocator@D@std@@V?$_String_val@U?$_Simple_types@D@std@@@2@$00@std@@QEAA@XZ@4HA DD imagerel ?dtor$0@?0???1?$_Compressed_pair@V?$allocator@D@std@@V?$_String_val@U?$_Simple_types@D@std@@@2@$00@std@@QEAA@XZ@4HA
	DD	imagerel ?dtor$0@?0???1?$_Compressed_pair@V?$allocator@D@std@@V?$_String_val@U?$_Simple_types@D@std@@@2@$00@std@@QEAA@XZ@4HA+35
	DD	imagerel $unwind$?dtor$0@?0???1?$_Compressed_pair@V?$allocator@D@std@@V?$_String_val@U?$_Simple_types@D@std@@@2@$00@std@@QEAA@XZ@4HA
pdata	ENDS
;	COMDAT pdata
pdata	SEGMENT
$pdata$??$make_array@W4CspMatrix@@W41@W41@W41@W41@W41@W41@W41@W41@W41@W41@W41@W41@W41@W41@@@YA?AV?$array@W4CspMatrix@@$0O@@std@@$$QEAW4CspMatrix@@0000000000000@Z DD imagerel $LN3
	DD	imagerel $LN3+297
	DD	imagerel $unwind$??$make_array@W4CspMatrix@@W41@W41@W41@W41@W41@W41@W41@W41@W41@W41@W41@W41@W41@W41@@@YA?AV?$array@W4CspMatrix@@$0O@@std@@$$QEAW4CspMatrix@@0000000000000@Z
pdata	ENDS
;	COMDAT pdata
pdata	SEGMENT
$pdata$??__ECspMatrixList@@YAXXZ DD imagerel ??__ECspMatrixList@@YAXXZ
	DD	imagerel ??__ECspMatrixList@@YAXXZ+452
	DD	imagerel $unwind$??__ECspMatrixList@@YAXXZ
pdata	ENDS
;	COMDAT pdata
pdata	SEGMENT
$pdata$??$make_array@W4CspTransfer@@W41@W41@W41@W41@W41@W41@W41@W41@W41@W41@W41@W41@W41@W41@W41@@@YA?AV?$array@W4CspTransfer@@$0P@@std@@$$QEAW4CspTransfer@@00000000000000@Z DD imagerel $LN3
	DD	imagerel $LN3+311
	DD	imagerel $unwind$??$make_array@W4CspTransfer@@W41@W41@W41@W41@W41@W41@W41@W41@W41@W41@W41@W41@W41@W41@W41@@@YA?AV?$array@W4CspTransfer@@$0P@@std@@$$QEAW4CspTransfer@@00000000000000@Z
pdata	ENDS
;	COMDAT pdata
pdata	SEGMENT
$pdata$??__ECspTransferList@@YAXXZ DD imagerel ??__ECspTransferList@@YAXXZ
	DD	imagerel ??__ECspTransferList@@YAXXZ+476
	DD	imagerel $unwind$??__ECspTransferList@@YAXXZ
pdata	ENDS
;	COMDAT pdata
pdata	SEGMENT
$pdata$??$make_array@W4CspColorprim@@W41@W41@W41@W41@W41@W41@W41@W41@W41@W41@W41@W41@@@YA?AV?$array@W4CspColorprim@@$0M@@std@@$$QEAW4CspColorprim@@00000000000@Z DD imagerel $LN3
	DD	imagerel $LN3+263
	DD	imagerel $unwind$??$make_array@W4CspColorprim@@W41@W41@W41@W41@W41@W41@W41@W41@W41@W41@W41@W41@@@YA?AV?$array@W4CspColorprim@@$0M@@std@@$$QEAW4CspColorprim@@00000000000@Z
pdata	ENDS
;	COMDAT pdata
pdata	SEGMENT
$pdata$??__ECspColorprimList@@YAXXZ DD imagerel ??__ECspColorprimList@@YAXXZ
	DD	imagerel ??__ECspColorprimList@@YAXXZ+398
	DD	imagerel $unwind$??__ECspColorprimList@@YAXXZ
pdata	ENDS
pdata	SEGMENT
$pdata$??0QSVBufferAllocator@@QEAA@XZ DD imagerel $LN3
	DD	imagerel $LN3+106
	DD	imagerel $unwind$??0QSVBufferAllocator@@QEAA@XZ
$pdata$??1QSVBufferAllocator@@UEAA@XZ DD imagerel $LN3
	DD	imagerel $LN3+23
	DD	imagerel $unwind$??1QSVBufferAllocator@@UEAA@XZ
$pdata$?Alloc_@QSVBufferAllocator@@CA?AW4mfxStatus@@PEAXIGPEAPEAX@Z DD imagerel $LN3
	DD	imagerel $LN3+82
	DD	imagerel $unwind$?Alloc_@QSVBufferAllocator@@CA?AW4mfxStatus@@PEAXIGPEAPEAX@Z
$pdata$?Lock_@QSVBufferAllocator@@CA?AW4mfxStatus@@PEAX0PEAPEAE@Z DD imagerel $LN3
	DD	imagerel $LN3+72
	DD	imagerel $unwind$?Lock_@QSVBufferAllocator@@CA?AW4mfxStatus@@PEAX0PEAPEAE@Z
$pdata$?Unlock_@QSVBufferAllocator@@CA?AW4mfxStatus@@PEAX0@Z DD imagerel $LN3
	DD	imagerel $LN3+62
	DD	imagerel $unwind$?Unlock_@QSVBufferAllocator@@CA?AW4mfxStatus@@PEAX0@Z
$pdata$?Free_@QSVBufferAllocator@@CA?AW4mfxStatus@@PEAX0@Z DD imagerel $LN3
	DD	imagerel $LN3+62
	DD	imagerel $unwind$?Free_@QSVBufferAllocator@@CA?AW4mfxStatus@@PEAX0@Z
pdata	ENDS
;	COMDAT pdata
pdata	SEGMENT
$pdata$??_GQSVBufferAllocator@@UEAAPEAXI@Z DD imagerel $LN4
	DD	imagerel $LN4+81
	DD	imagerel $unwind$??_GQSVBufferAllocator@@UEAAPEAXI@Z
pdata	ENDS
pdata	SEGMENT
$pdata$??0QSVAllocator@@QEAA@XZ DD imagerel $LN6
	DD	imagerel $LN6+204
	DD	imagerel $unwind$??0QSVAllocator@@QEAA@XZ
pdata	ENDS
pdata	SEGMENT
$pdata$?dtor$0@?0???0QSVAllocator@@QEAA@XZ@4HA DD imagerel ?dtor$0@?0???0QSVAllocator@@QEAA@XZ@4HA
	DD	imagerel ?dtor$0@?0???0QSVAllocator@@QEAA@XZ@4HA+39
	DD	imagerel $unwind$?dtor$0@?0???0QSVAllocator@@QEAA@XZ@4HA
$pdata$?dtor$1@?0???0QSVAllocator@@QEAA@XZ@4HA DD imagerel ?dtor$1@?0???0QSVAllocator@@QEAA@XZ@4HA
	DD	imagerel ?dtor$1@?0???0QSVAllocator@@QEAA@XZ@4HA+39
	DD	imagerel $unwind$?dtor$1@?0???0QSVAllocator@@QEAA@XZ@4HA
$pdata$?dtor$2@?0???0QSVAllocator@@QEAA@XZ@4HA DD imagerel ?dtor$2@?0???0QSVAllocator@@QEAA@XZ@4HA
	DD	imagerel ?dtor$2@?0???0QSVAllocator@@QEAA@XZ@4HA+39
	DD	imagerel $unwind$?dtor$2@?0???0QSVAllocator@@QEAA@XZ@4HA
pdata	ENDS
pdata	SEGMENT
$pdata$??1QSVAllocator@@UEAA@XZ DD imagerel $LN6
	DD	imagerel $LN6+105
	DD	imagerel $unwind$??1QSVAllocator@@UEAA@XZ
pdata	ENDS
pdata	SEGMENT
$pdata$?dtor$0@?0???1QSVAllocator@@UEAA@XZ@4HA DD imagerel ?dtor$0@?0???1QSVAllocator@@UEAA@XZ@4HA
	DD	imagerel ?dtor$0@?0???1QSVAllocator@@UEAA@XZ@4HA+39
	DD	imagerel $unwind$?dtor$0@?0???1QSVAllocator@@UEAA@XZ@4HA
$pdata$?dtor$1@?0???1QSVAllocator@@UEAA@XZ@4HA DD imagerel ?dtor$1@?0???1QSVAllocator@@UEAA@XZ@4HA
	DD	imagerel ?dtor$1@?0???1QSVAllocator@@UEAA@XZ@4HA+39
	DD	imagerel $unwind$?dtor$1@?0???1QSVAllocator@@UEAA@XZ@4HA
$pdata$?dtor$2@?0???1QSVAllocator@@UEAA@XZ@4HA DD imagerel ?dtor$2@?0???1QSVAllocator@@UEAA@XZ@4HA
	DD	imagerel ?dtor$2@?0???1QSVAllocator@@UEAA@XZ@4HA+39
	DD	imagerel $unwind$?dtor$2@?0???1QSVAllocator@@UEAA@XZ@4HA
pdata	ENDS
pdata	SEGMENT
$pdata$?Close@QSVAllocator@@UEAA?AW4mfxStatus@@XZ DD imagerel $LN15
	DD	imagerel $LN15+622
	DD	imagerel $unwind$?Close@QSVAllocator@@UEAA?AW4mfxStatus@@XZ
pdata	ENDS
pdata	SEGMENT
$pdata$?dtor$0@?0??Close@QSVAllocator@@UEAA?AW4mfxStatus@@XZ@4HA DD imagerel ?dtor$0@?0??Close@QSVAllocator@@UEAA?AW4mfxStatus@@XZ@4HA
	DD	imagerel ?dtor$0@?0??Close@QSVAllocator@@UEAA?AW4mfxStatus@@XZ@4HA+35
	DD	imagerel $unwind$?dtor$0@?0??Close@QSVAllocator@@UEAA?AW4mfxStatus@@XZ@4HA
$pdata$?dtor$2@?0??Close@QSVAllocator@@UEAA?AW4mfxStatus@@XZ@4HA DD imagerel ?dtor$2@?0??Close@QSVAllocator@@UEAA?AW4mfxStatus@@XZ@4HA
	DD	imagerel ?dtor$2@?0??Close@QSVAllocator@@UEAA?AW4mfxStatus@@XZ@4HA+38
	DD	imagerel $unwind$?dtor$2@?0??Close@QSVAllocator@@UEAA?AW4mfxStatus@@XZ@4HA
$pdata$?dtor$3@?0??Close@QSVAllocator@@UEAA?AW4mfxStatus@@XZ@4HA DD imagerel ?dtor$3@?0??Close@QSVAllocator@@UEAA?AW4mfxStatus@@XZ@4HA
	DD	imagerel ?dtor$3@?0??Close@QSVAllocator@@UEAA?AW4mfxStatus@@XZ@4HA+35
	DD	imagerel $unwind$?dtor$3@?0??Close@QSVAllocator@@UEAA?AW4mfxStatus@@XZ@4HA
$pdata$?dtor$5@?0??Close@QSVAllocator@@UEAA?AW4mfxStatus@@XZ@4HA DD imagerel ?dtor$5@?0??Close@QSVAllocator@@UEAA?AW4mfxStatus@@XZ@4HA
	DD	imagerel ?dtor$5@?0??Close@QSVAllocator@@UEAA?AW4mfxStatus@@XZ@4HA+38
	DD	imagerel $unwind$?dtor$5@?0??Close@QSVAllocator@@UEAA?AW4mfxStatus@@XZ@4HA
pdata	ENDS
pdata	SEGMENT
$pdata$?FrameAlloc@QSVAllocator@@UEAA?AW4mfxStatus@@PEAUmfxFrameAllocRequest@@PEAUmfxFrameAllocResponse@@@Z DD imagerel $LN20
	DD	imagerel $LN20+1807
	DD	imagerel $unwind$?FrameAlloc@QSVAllocator@@UEAA?AW4mfxStatus@@PEAUmfxFrameAllocRequest@@PEAUmfxFrameAllocResponse@@@Z
pdata	ENDS
pdata	SEGMENT
$pdata$?dtor$0@?0??FrameAlloc@QSVAllocator@@UEAA?AW4mfxStatus@@PEAUmfxFrameAllocRequest@@PEAUmfxFrameAllocResponse@@@Z@4HA DD imagerel ?dtor$0@?0??FrameAlloc@QSVAllocator@@UEAA?AW4mfxStatus@@PEAUmfxFrameAllocRequest@@PEAUmfxFrameAllocResponse@@@Z@4HA
	DD	imagerel ?dtor$0@?0??FrameAlloc@QSVAllocator@@UEAA?AW4mfxStatus@@PEAUmfxFrameAllocRequest@@PEAUmfxFrameAllocResponse@@@Z@4HA+35
	DD	imagerel $unwind$?dtor$0@?0??FrameAlloc@QSVAllocator@@UEAA?AW4mfxStatus@@PEAUmfxFrameAllocRequest@@PEAUmfxFrameAllocResponse@@@Z@4HA
$pdata$?dtor$1@?0??FrameAlloc@QSVAllocator@@UEAA?AW4mfxStatus@@PEAUmfxFrameAllocRequest@@PEAUmfxFrameAllocResponse@@@Z@4HA DD imagerel ?dtor$1@?0??FrameAlloc@QSVAllocator@@UEAA?AW4mfxStatus@@PEAUmfxFrameAllocRequest@@PEAUmfxFrameAllocResponse@@@Z@4HA
	DD	imagerel ?dtor$1@?0??FrameAlloc@QSVAllocator@@UEAA?AW4mfxStatus@@PEAUmfxFrameAllocRequest@@PEAUmfxFrameAllocResponse@@@Z@4HA+38
	DD	imagerel $unwind$?dtor$1@?0??FrameAlloc@QSVAllocator@@UEAA?AW4mfxStatus@@PEAUmfxFrameAllocRequest@@PEAUmfxFrameAllocResponse@@@Z@4HA
$pdata$?dtor$2@?0??FrameAlloc@QSVAllocator@@UEAA?AW4mfxStatus@@PEAUmfxFrameAllocRequest@@PEAUmfxFrameAllocResponse@@@Z@4HA DD imagerel ?dtor$2@?0??FrameAlloc@QSVAllocator@@UEAA?AW4mfxStatus@@PEAUmfxFrameAllocRequest@@PEAUmfxFrameAllocResponse@@@Z@4HA
	DD	imagerel ?dtor$2@?0??FrameAlloc@QSVAllocator@@UEAA?AW4mfxStatus@@PEAUmfxFrameAllocRequest@@PEAUmfxFrameAllocResponse@@@Z@4HA+38
	DD	imagerel $unwind$?dtor$2@?0??FrameAlloc@QSVAllocator@@UEAA?AW4mfxStatus@@PEAUmfxFrameAllocRequest@@PEAUmfxFrameAllocResponse@@@Z@4HA
$pdata$?dtor$3@?0??FrameAlloc@QSVAllocator@@UEAA?AW4mfxStatus@@PEAUmfxFrameAllocRequest@@PEAUmfxFrameAllocResponse@@@Z@4HA DD imagerel ?dtor$3@?0??FrameAlloc@QSVAllocator@@UEAA?AW4mfxStatus@@PEAUmfxFrameAllocRequest@@PEAUmfxFrameAllocResponse@@@Z@4HA
	DD	imagerel ?dtor$3@?0??FrameAlloc@QSVAllocator@@UEAA?AW4mfxStatus@@PEAUmfxFrameAllocRequest@@PEAUmfxFrameAllocResponse@@@Z@4HA+35
	DD	imagerel $unwind$?dtor$3@?0??FrameAlloc@QSVAllocator@@UEAA?AW4mfxStatus@@PEAUmfxFrameAllocRequest@@PEAUmfxFrameAllocResponse@@@Z@4HA
$pdata$?dtor$4@?0??FrameAlloc@QSVAllocator@@UEAA?AW4mfxStatus@@PEAUmfxFrameAllocRequest@@PEAUmfxFrameAllocResponse@@@Z@4HA DD imagerel ?dtor$4@?0??FrameAlloc@QSVAllocator@@UEAA?AW4mfxStatus@@PEAUmfxFrameAllocRequest@@PEAUmfxFrameAllocResponse@@@Z@4HA
	DD	imagerel ?dtor$4@?0??FrameAlloc@QSVAllocator@@UEAA?AW4mfxStatus@@PEAUmfxFrameAllocRequest@@PEAUmfxFrameAllocResponse@@@Z@4HA+38
	DD	imagerel $unwind$?dtor$4@?0??FrameAlloc@QSVAllocator@@UEAA?AW4mfxStatus@@PEAUmfxFrameAllocRequest@@PEAUmfxFrameAllocResponse@@@Z@4HA
pdata	ENDS
pdata	SEGMENT
$pdata$?FrameFree@QSVAllocator@@UEAA?AW4mfxStatus@@PEAUmfxFrameAllocResponse@@@Z DD imagerel $LN19
	DD	imagerel $LN19+1323
	DD	imagerel $unwind$?FrameFree@QSVAllocator@@UEAA?AW4mfxStatus@@PEAUmfxFrameAllocResponse@@@Z
pdata	ENDS
pdata	SEGMENT
$pdata$?dtor$0@?0??FrameFree@QSVAllocator@@UEAA?AW4mfxStatus@@PEAUmfxFrameAllocResponse@@@Z@4HA DD imagerel ?dtor$0@?0??FrameFree@QSVAllocator@@UEAA?AW4mfxStatus@@PEAUmfxFrameAllocResponse@@@Z@4HA
	DD	imagerel ?dtor$0@?0??FrameFree@QSVAllocator@@UEAA?AW4mfxStatus@@PEAUmfxFrameAllocResponse@@@Z@4HA+38
	DD	imagerel $unwind$?dtor$0@?0??FrameFree@QSVAllocator@@UEAA?AW4mfxStatus@@PEAUmfxFrameAllocResponse@@@Z@4HA
$pdata$?dtor$1@?0??FrameFree@QSVAllocator@@UEAA?AW4mfxStatus@@PEAUmfxFrameAllocResponse@@@Z@4HA DD imagerel ?dtor$1@?0??FrameFree@QSVAllocator@@UEAA?AW4mfxStatus@@PEAUmfxFrameAllocResponse@@@Z@4HA
	DD	imagerel ?dtor$1@?0??FrameFree@QSVAllocator@@UEAA?AW4mfxStatus@@PEAUmfxFrameAllocResponse@@@Z@4HA+38
	DD	imagerel $unwind$?dtor$1@?0??FrameFree@QSVAllocator@@UEAA?AW4mfxStatus@@PEAUmfxFrameAllocResponse@@@Z@4HA
$pdata$?dtor$2@?0??FrameFree@QSVAllocator@@UEAA?AW4mfxStatus@@PEAUmfxFrameAllocResponse@@@Z@4HA DD imagerel ?dtor$2@?0??FrameFree@QSVAllocator@@UEAA?AW4mfxStatus@@PEAUmfxFrameAllocResponse@@@Z@4HA
	DD	imagerel ?dtor$2@?0??FrameFree@QSVAllocator@@UEAA?AW4mfxStatus@@PEAUmfxFrameAllocResponse@@@Z@4HA+35
	DD	imagerel $unwind$?dtor$2@?0??FrameFree@QSVAllocator@@UEAA?AW4mfxStatus@@PEAUmfxFrameAllocResponse@@@Z@4HA
$pdata$?dtor$3@?0??FrameFree@QSVAllocator@@UEAA?AW4mfxStatus@@PEAUmfxFrameAllocResponse@@@Z@4HA DD imagerel ?dtor$3@?0??FrameFree@QSVAllocator@@UEAA?AW4mfxStatus@@PEAUmfxFrameAllocResponse@@@Z@4HA
	DD	imagerel ?dtor$3@?0??FrameFree@QSVAllocator@@UEAA?AW4mfxStatus@@PEAUmfxFrameAllocResponse@@@Z@4HA+38
	DD	imagerel $unwind$?dtor$3@?0??FrameFree@QSVAllocator@@UEAA?AW4mfxStatus@@PEAUmfxFrameAllocResponse@@@Z@4HA
$pdata$?dtor$4@?0??FrameFree@QSVAllocator@@UEAA?AW4mfxStatus@@PEAUmfxFrameAllocResponse@@@Z@4HA DD imagerel ?dtor$4@?0??FrameFree@QSVAllocator@@UEAA?AW4mfxStatus@@PEAUmfxFrameAllocResponse@@@Z@4HA
	DD	imagerel ?dtor$4@?0??FrameFree@QSVAllocator@@UEAA?AW4mfxStatus@@PEAUmfxFrameAllocResponse@@@Z@4HA+38
	DD	imagerel $unwind$?dtor$4@?0??FrameFree@QSVAllocator@@UEAA?AW4mfxStatus@@PEAUmfxFrameAllocResponse@@@Z@4HA
$pdata$?dtor$6@?0??FrameFree@QSVAllocator@@UEAA?AW4mfxStatus@@PEAUmfxFrameAllocResponse@@@Z@4HA DD imagerel ?dtor$6@?0??FrameFree@QSVAllocator@@UEAA?AW4mfxStatus@@PEAUmfxFrameAllocResponse@@@Z@4HA
	DD	imagerel ?dtor$6@?0??FrameFree@QSVAllocator@@UEAA?AW4mfxStatus@@PEAUmfxFrameAllocResponse@@@Z@4HA+38
	DD	imagerel $unwind$?dtor$6@?0??FrameFree@QSVAllocator@@UEAA?AW4mfxStatus@@PEAUmfxFrameAllocResponse@@@Z@4HA
$pdata$?dtor$7@?0??FrameFree@QSVAllocator@@UEAA?AW4mfxStatus@@PEAUmfxFrameAllocResponse@@@Z@4HA DD imagerel ?dtor$7@?0??FrameFree@QSVAllocator@@UEAA?AW4mfxStatus@@PEAUmfxFrameAllocResponse@@@Z@4HA
	DD	imagerel ?dtor$7@?0??FrameFree@QSVAllocator@@UEAA?AW4mfxStatus@@PEAUmfxFrameAllocResponse@@@Z@4HA+38
	DD	imagerel $unwind$?dtor$7@?0??FrameFree@QSVAllocator@@UEAA?AW4mfxStatus@@PEAUmfxFrameAllocResponse@@@Z@4HA
$pdata$?dtor$8@?0??FrameFree@QSVAllocator@@UEAA?AW4mfxStatus@@PEAUmfxFrameAllocResponse@@@Z@4HA DD imagerel ?dtor$8@?0??FrameFree@QSVAllocator@@UEAA?AW4mfxStatus@@PEAUmfxFrameAllocResponse@@@Z@4HA
	DD	imagerel ?dtor$8@?0??FrameFree@QSVAllocator@@UEAA?AW4mfxStatus@@PEAUmfxFrameAllocResponse@@@Z@4HA+38
	DD	imagerel $unwind$?dtor$8@?0??FrameFree@QSVAllocator@@UEAA?AW4mfxStatus@@PEAUmfxFrameAllocResponse@@@Z@4HA
$pdata$?dtor$9@?0??FrameFree@QSVAllocator@@UEAA?AW4mfxStatus@@PEAUmfxFrameAllocResponse@@@Z@4HA DD imagerel ?dtor$9@?0??FrameFree@QSVAllocator@@UEAA?AW4mfxStatus@@PEAUmfxFrameAllocResponse@@@Z@4HA
	DD	imagerel ?dtor$9@?0??FrameFree@QSVAllocator@@UEAA?AW4mfxStatus@@PEAUmfxFrameAllocResponse@@@Z@4HA+38
	DD	imagerel $unwind$?dtor$9@?0??FrameFree@QSVAllocator@@UEAA?AW4mfxStatus@@PEAUmfxFrameAllocResponse@@@Z@4HA
$pdata$?dtor$10@?0??FrameFree@QSVAllocator@@UEAA?AW4mfxStatus@@PEAUmfxFrameAllocResponse@@@Z@4HA DD imagerel ?dtor$10@?0??FrameFree@QSVAllocator@@UEAA?AW4mfxStatus@@PEAUmfxFrameAllocResponse@@@Z@4HA
	DD	imagerel ?dtor$10@?0??FrameFree@QSVAllocator@@UEAA?AW4mfxStatus@@PEAUmfxFrameAllocResponse@@@Z@4HA+38
	DD	imagerel $unwind$?dtor$10@?0??FrameFree@QSVAllocator@@UEAA?AW4mfxStatus@@PEAUmfxFrameAllocResponse@@@Z@4HA
pdata	ENDS
pdata	SEGMENT
$pdata$?Alloc_@QSVAllocator@@CA?AW4mfxStatus@@PEAXPEAUmfxFrameAllocRequest@@PEAUmfxFrameAllocResponse@@@Z DD imagerel $LN3
	DD	imagerel $LN3+72
	DD	imagerel $unwind$?Alloc_@QSVAllocator@@CA?AW4mfxStatus@@PEAXPEAUmfxFrameAllocRequest@@PEAUmfxFrameAllocResponse@@@Z
$pdata$?Lock_@QSVAllocator@@CA?AW4mfxStatus@@PEAX0PEAUmfxFrameData@@@Z DD imagerel $LN3
	DD	imagerel $LN3+72
	DD	imagerel $unwind$?Lock_@QSVAllocator@@CA?AW4mfxStatus@@PEAX0PEAUmfxFrameData@@@Z
$pdata$?Unlock_@QSVAllocator@@CA?AW4mfxStatus@@PEAX0PEAUmfxFrameData@@@Z DD imagerel $LN3
	DD	imagerel $LN3+72
	DD	imagerel $unwind$?Unlock_@QSVAllocator@@CA?AW4mfxStatus@@PEAX0PEAUmfxFrameData@@@Z
$pdata$?GetHDL_@QSVAllocator@@CA?AW4mfxStatus@@PEAX0PEAPEAX@Z DD imagerel $LN3
	DD	imagerel $LN3+72
	DD	imagerel $unwind$?GetHDL_@QSVAllocator@@CA?AW4mfxStatus@@PEAX0PEAPEAX@Z
$pdata$?Free_@QSVAllocator@@CA?AW4mfxStatus@@PEAXPEAUmfxFrameAllocResponse@@@Z DD imagerel $LN3
	DD	imagerel $LN3+62
	DD	imagerel $unwind$?Free_@QSVAllocator@@CA?AW4mfxStatus@@PEAXPEAUmfxFrameAllocResponse@@@Z
$pdata$?CheckRequestType@QSVAllocator@@MEAA?AW4mfxStatus@@PEAUmfxFrameAllocRequest@@@Z DD imagerel $LN6
	DD	imagerel $LN6+57
	DD	imagerel $unwind$?CheckRequestType@QSVAllocator@@MEAA?AW4mfxStatus@@PEAUmfxFrameAllocRequest@@@Z
pdata	ENDS
;	COMDAT pdata
pdata	SEGMENT
$pdata$??0UniqueResponse@QSVAllocator@@QEAA@AEBUmfxFrameAllocResponse@@GGG@Z DD imagerel $LN3
	DD	imagerel $LN3+103
	DD	imagerel $unwind$??0UniqueResponse@QSVAllocator@@QEAA@AEBUmfxFrameAllocResponse@@GGG@Z
pdata	ENDS
;	COMDAT pdata
pdata	SEGMENT
$pdata$??RUniqueResponse@QSVAllocator@@QEBA_NAEBU01@@Z DD imagerel $LN5
	DD	imagerel $LN5+105
	DD	imagerel $unwind$??RUniqueResponse@QSVAllocator@@QEBA_NAEBU01@@Z
pdata	ENDS
;	COMDAT pdata
pdata	SEGMENT
$pdata$??0?$allocator@U?$_List_node@UmfxFrameAllocResponse@@PEAX@std@@@std@@QEAA@XZ DD imagerel $LN3
	DD	imagerel $LN3+13
	DD	imagerel $unwind$??0?$allocator@U?$_List_node@UmfxFrameAllocResponse@@PEAX@std@@@std@@QEAA@XZ
pdata	ENDS
;	COMDAT pdata
pdata	SEGMENT
$pdata$?deallocate@?$allocator@U?$_List_node@UmfxFrameAllocResponse@@PEAX@std@@@std@@QEAAXQEAU?$_List_node@UmfxFrameAllocResponse@@PEAX@2@_K@Z DD imagerel $LN3
	DD	imagerel $LN3+65
	DD	imagerel $unwind$?deallocate@?$allocator@U?$_List_node@UmfxFrameAllocResponse@@PEAX@std@@@std@@QEAAXQEAU?$_List_node@UmfxFrameAllocResponse@@PEAX@2@_K@Z
pdata	ENDS
;	COMDAT pdata
pdata	SEGMENT
$pdata$?allocate@?$allocator@U?$_List_node@UmfxFrameAllocResponse@@PEAX@std@@@std@@QEAAPEAU?$_List_node@UmfxFrameAllocResponse@@PEAX@2@_K@Z DD imagerel $LN3
	DD	imagerel $LN3+59
	DD	imagerel $unwind$?allocate@?$allocator@U?$_List_node@UmfxFrameAllocResponse@@PEAX@std@@@std@@QEAAPEAU?$_List_node@UmfxFrameAllocResponse@@PEAX@2@_K@Z
pdata	ENDS
;	COMDAT pdata
pdata	SEGMENT
$pdata$?deallocate@?$_Default_allocator_traits@V?$allocator@U?$_List_node@UmfxFrameAllocResponse@@PEAX@std@@@std@@@std@@SAXAEAV?$allocator@U?$_List_node@UmfxFrameAllocResponse@@PEAX@std@@@2@QEAU?$_List_node@UmfxFrameAllocResponse@@PEAX@2@_K@Z DD imagerel $LN3
	DD	imagerel $LN3+65
	DD	imagerel $unwind$?deallocate@?$_Default_allocator_traits@V?$allocator@U?$_List_node@UmfxFrameAllocResponse@@PEAX@std@@@std@@@std@@SAXAEAV?$allocator@U?$_List_node@UmfxFrameAllocResponse@@PEAX@std@@@2@QEAU?$_List_node@UmfxFrameAllocResponse@@PEAX@2@_K@Z
pdata	ENDS
;	COMDAT pdata
pdata	SEGMENT
$pdata$?max_size@?$_Default_allocator_traits@V?$allocator@U?$_List_node@UmfxFrameAllocResponse@@PEAX@std@@@std@@@std@@SA_KAEBV?$allocator@U?$_List_node@UmfxFrameAllocResponse@@PEAX@std@@@2@@Z DD imagerel $LN3
	DD	imagerel $LN3+18
	DD	imagerel $unwind$?max_size@?$_Default_allocator_traits@V?$allocator@U?$_List_node@UmfxFrameAllocResponse@@PEAX@std@@@std@@@std@@SA_KAEBV?$allocator@U?$_List_node@UmfxFrameAllocResponse@@PEAX@std@@@2@@Z
pdata	ENDS
;	COMDAT pdata
pdata	SEGMENT
$pdata$??0?$list@UmfxFrameAllocResponse@@V?$allocator@UmfxFrameAllocResponse@@@std@@@std@@QEAA@XZ DD imagerel $LN3
	DD	imagerel $LN3+69
	DD	imagerel $unwind$??0?$list@UmfxFrameAllocResponse@@V?$allocator@UmfxFrameAllocResponse@@@std@@@std@@QEAA@XZ
pdata	ENDS
;	COMDAT pdata
pdata	SEGMENT
$pdata$?push_back@?$list@UmfxFrameAllocResponse@@V?$allocator@UmfxFrameAllocResponse@@@std@@@std@@QEAAX$$QEAUmfxFrameAllocResponse@@@Z DD imagerel $LN3
	DD	imagerel $LN3+73
	DD	imagerel $unwind$?push_back@?$list@UmfxFrameAllocResponse@@V?$allocator@UmfxFrameAllocResponse@@@std@@@std@@QEAAX$$QEAUmfxFrameAllocResponse@@@Z
pdata	ENDS
;	COMDAT pdata
pdata	SEGMENT
$pdata$??1?$list@UmfxFrameAllocResponse@@V?$allocator@UmfxFrameAllocResponse@@@std@@@std@@QEAA@XZ DD imagerel $LN3
	DD	imagerel $LN3+112
	DD	imagerel $unwind$??1?$list@UmfxFrameAllocResponse@@V?$allocator@UmfxFrameAllocResponse@@@std@@@std@@QEAA@XZ
pdata	ENDS
;	COMDAT pdata
pdata	SEGMENT
$pdata$?begin@?$list@UmfxFrameAllocResponse@@V?$allocator@UmfxFrameAllocResponse@@@std@@@std@@QEAA?AV?$_List_iterator@V?$_List_val@U?$_List_simple_types@UmfxFrameAllocResponse@@@std@@@std@@@2@XZ DD imagerel $LN5
	DD	imagerel $LN5+106
	DD	imagerel $unwind$?begin@?$list@UmfxFrameAllocResponse@@V?$allocator@UmfxFrameAllocResponse@@@std@@@std@@QEAA?AV?$_List_iterator@V?$_List_val@U?$_List_simple_types@UmfxFrameAllocResponse@@@std@@@std@@@2@XZ
pdata	ENDS
;	COMDAT pdata
pdata	SEGMENT
$pdata$?dtor$0@?0??begin@?$list@UmfxFrameAllocResponse@@V?$allocator@UmfxFrameAllocResponse@@@std@@@std@@QEAA?AV?$_List_iterator@V?$_List_val@U?$_List_simple_types@UmfxFrameAllocResponse@@@std@@@std@@@2@XZ@4HA DD imagerel ?dtor$0@?0??begin@?$list@UmfxFrameAllocResponse@@V?$allocator@UmfxFrameAllocResponse@@@std@@@std@@QEAA?AV?$_List_iterator@V?$_List_val@U?$_List_simple_types@UmfxFrameAllocResponse@@@std@@@std@@@2@XZ@4HA
	DD	imagerel ?dtor$0@?0??begin@?$list@UmfxFrameAllocResponse@@V?$allocator@UmfxFrameAllocResponse@@@std@@@std@@QEAA?AV?$_List_iterator@V?$_List_val@U?$_List_simple_types@UmfxFrameAllocResponse@@@std@@@std@@@2@XZ@4HA+49
	DD	imagerel $unwind$?dtor$0@?0??begin@?$list@UmfxFrameAllocResponse@@V?$allocator@UmfxFrameAllocResponse@@@std@@@std@@QEAA?AV?$_List_iterator@V?$_List_val@U?$_List_simple_types@UmfxFrameAllocResponse@@@std@@@std@@@2@XZ@4HA
pdata	ENDS
;	COMDAT pdata
pdata	SEGMENT
$pdata$?end@?$list@UmfxFrameAllocResponse@@V?$allocator@UmfxFrameAllocResponse@@@std@@@std@@QEAA?AV?$_List_iterator@V?$_List_val@U?$_List_simple_types@UmfxFrameAllocResponse@@@std@@@std@@@2@XZ DD imagerel $LN5
	DD	imagerel $LN5+103
	DD	imagerel $unwind$?end@?$list@UmfxFrameAllocResponse@@V?$allocator@UmfxFrameAllocResponse@@@std@@@std@@QEAA?AV?$_List_iterator@V?$_List_val@U?$_List_simple_types@UmfxFrameAllocResponse@@@std@@@std@@@2@XZ
pdata	ENDS
;	COMDAT pdata
pdata	SEGMENT
$pdata$?dtor$0@?0??end@?$list@UmfxFrameAllocResponse@@V?$allocator@UmfxFrameAllocResponse@@@std@@@std@@QEAA?AV?$_List_iterator@V?$_List_val@U?$_List_simple_types@UmfxFrameAllocResponse@@@std@@@std@@@2@XZ@4HA DD imagerel ?dtor$0@?0??end@?$list@UmfxFrameAllocResponse@@V?$allocator@UmfxFrameAllocResponse@@@std@@@std@@QEAA?AV?$_List_iterator@V?$_List_val@U?$_List_simple_types@UmfxFrameAllocResponse@@@std@@@std@@@2@XZ@4HA
	DD	imagerel ?dtor$0@?0??end@?$list@UmfxFrameAllocResponse@@V?$allocator@UmfxFrameAllocResponse@@@std@@@std@@QEAA?AV?$_List_iterator@V?$_List_val@U?$_List_simple_types@UmfxFrameAllocResponse@@@std@@@std@@@2@XZ@4HA+49
	DD	imagerel $unwind$?dtor$0@?0??end@?$list@UmfxFrameAllocResponse@@V?$allocator@UmfxFrameAllocResponse@@@std@@@std@@QEAA?AV?$_List_iterator@V?$_List_val@U?$_List_simple_types@UmfxFrameAllocResponse@@@std@@@std@@@2@XZ@4HA
pdata	ENDS
;	COMDAT pdata
pdata	SEGMENT
$pdata$?_Make_iter@?$list@UmfxFrameAllocResponse@@V?$allocator@UmfxFrameAllocResponse@@@std@@@std@@QEBA?AV?$_List_iterator@V?$_List_val@U?$_List_simple_types@UmfxFrameAllocResponse@@@std@@@std@@@2@PEAU?$_List_node@UmfxFrameAllocResponse@@PEAX@2@@Z DD imagerel $LN5
	DD	imagerel $LN5+103
	DD	imagerel $unwind$?_Make_iter@?$list@UmfxFrameAllocResponse@@V?$allocator@UmfxFrameAllocResponse@@@std@@@std@@QEBA?AV?$_List_iterator@V?$_List_val@U?$_List_simple_types@UmfxFrameAllocResponse@@@std@@@std@@@2@PEAU?$_List_node@UmfxFrameAllocResponse@@PEAX@2@@Z
pdata	ENDS
;	COMDAT pdata
pdata	SEGMENT
$pdata$?dtor$0@?0??_Make_iter@?$list@UmfxFrameAllocResponse@@V?$allocator@UmfxFrameAllocResponse@@@std@@@std@@QEBA?AV?$_List_iterator@V?$_List_val@U?$_List_simple_types@UmfxFrameAllocResponse@@@std@@@std@@@2@PEAU?$_List_node@UmfxFrameAllocResponse@@PEAX@2@@Z@4HA DD imagerel ?dtor$0@?0??_Make_iter@?$list@UmfxFrameAllocResponse@@V?$allocator@UmfxFrameAllocResponse@@@std@@@std@@QEBA?AV?$_List_iterator@V?$_List_val@U?$_List_simple_types@UmfxFrameAllocResponse@@@std@@@std@@@2@PEAU?$_List_node@UmfxFrameAllocResponse@@PEAX@2@@Z@4HA
	DD	imagerel ?dtor$0@?0??_Make_iter@?$list@UmfxFrameAllocResponse@@V?$allocator@UmfxFrameAllocResponse@@@std@@@std@@QEBA?AV?$_List_iterator@V?$_List_val@U?$_List_simple_types@UmfxFrameAllocResponse@@@std@@@std@@@2@PEAU?$_List_node@UmfxFrameAllocResponse@@PEAX@2@@Z@4HA+49
	DD	imagerel $unwind$?dtor$0@?0??_Make_iter@?$list@UmfxFrameAllocResponse@@V?$allocator@UmfxFrameAllocResponse@@@std@@@std@@QEBA?AV?$_List_iterator@V?$_List_val@U?$_List_simple_types@UmfxFrameAllocResponse@@@std@@@std@@@2@PEAU?$_List_node@UmfxFrameAllocResponse@@PEAX@2@@Z@4HA
pdata	ENDS
;	COMDAT pdata
pdata	SEGMENT
$pdata$?max_size@?$list@UmfxFrameAllocResponse@@V?$allocator@UmfxFrameAllocResponse@@@std@@@std@@QEBA_KXZ DD imagerel $LN3
	DD	imagerel $LN3+87
	DD	imagerel $unwind$?max_size@?$list@UmfxFrameAllocResponse@@V?$allocator@UmfxFrameAllocResponse@@@std@@@std@@QEBA_KXZ
pdata	ENDS
;	COMDAT pdata
pdata	SEGMENT
$pdata$?back@?$list@UmfxFrameAllocResponse@@V?$allocator@UmfxFrameAllocResponse@@@std@@@std@@QEAAAEAUmfxFrameAllocResponse@@XZ DD imagerel $LN4
	DD	imagerel $LN4+104
	DD	imagerel $unwind$?back@?$list@UmfxFrameAllocResponse@@V?$allocator@UmfxFrameAllocResponse@@@std@@@std@@QEAAAEAUmfxFrameAllocResponse@@XZ
pdata	ENDS
;	COMDAT pdata
pdata	SEGMENT
$pdata$?dtor$0@?0??back@?$list@UmfxFrameAllocResponse@@V?$allocator@UmfxFrameAllocResponse@@@std@@@std@@QEAAAEAUmfxFrameAllocResponse@@XZ@4HA DD imagerel ?dtor$0@?0??back@?$list@UmfxFrameAllocResponse@@V?$allocator@UmfxFrameAllocResponse@@@std@@@std@@QEAAAEAUmfxFrameAllocResponse@@XZ@4HA
	DD	imagerel ?dtor$0@?0??back@?$list@UmfxFrameAllocResponse@@V?$allocator@UmfxFrameAllocResponse@@@std@@@std@@QEAAAEAUmfxFrameAllocResponse@@XZ@4HA+35
	DD	imagerel $unwind$?dtor$0@?0??back@?$list@UmfxFrameAllocResponse@@V?$allocator@UmfxFrameAllocResponse@@@std@@@std@@QEAAAEAUmfxFrameAllocResponse@@XZ@4HA
pdata	ENDS
;	COMDAT pdata
pdata	SEGMENT
$pdata$?pop_back@?$list@UmfxFrameAllocResponse@@V?$allocator@UmfxFrameAllocResponse@@@std@@@std@@QEAAXXZ DD imagerel $LN12
	DD	imagerel $LN12+186
	DD	imagerel $unwind$?pop_back@?$list@UmfxFrameAllocResponse@@V?$allocator@UmfxFrameAllocResponse@@@std@@@std@@QEAAXXZ
pdata	ENDS
;	COMDAT pdata
pdata	SEGMENT
$pdata$?erase@?$list@UmfxFrameAllocResponse@@V?$allocator@UmfxFrameAllocResponse@@@std@@@std@@QEAA?AV?$_List_iterator@V?$_List_val@U?$_List_simple_types@UmfxFrameAllocResponse@@@std@@@std@@@2@V?$_List_const_iterator@V?$_List_val@U?$_List_simple_types@UmfxFrameAllocResponse@@@std@@@std@@@2@@Z DD imagerel $LN15
	DD	imagerel $LN15+325
	DD	imagerel $unwind$?erase@?$list@UmfxFrameAllocResponse@@V?$allocator@UmfxFrameAllocResponse@@@std@@@std@@QEAA?AV?$_List_iterator@V?$_List_val@U?$_List_simple_types@UmfxFrameAllocResponse@@@std@@@std@@@2@V?$_List_const_iterator@V?$_List_val@U?$_List_simple_types@UmfxFrameAllocResponse@@@std@@@std@@@2@@Z
pdata	ENDS
;	COMDAT pdata
pdata	SEGMENT
$pdata$?dtor$0@?0??erase@?$list@UmfxFrameAllocResponse@@V?$allocator@UmfxFrameAllocResponse@@@std@@@std@@QEAA?AV?$_List_iterator@V?$_List_val@U?$_List_simple_types@UmfxFrameAllocResponse@@@std@@@std@@@2@V?$_List_const_iterator@V?$_List_val@U?$_List_simple_types@UmfxFrameAllocResponse@@@std@@@std@@@2@@Z@4HA DD imagerel ?dtor$0@?0??erase@?$list@UmfxFrameAllocResponse@@V?$allocator@UmfxFrameAllocResponse@@@std@@@std@@QEAA?AV?$_List_iterator@V?$_List_val@U?$_List_simple_types@UmfxFrameAllocResponse@@@std@@@std@@@2@V?$_List_const_iterator@V?$_List_val@U?$_List_simple_types@UmfxFrameAllocResponse@@@std@@@std@@@2@@Z@4HA
	DD	imagerel ?dtor$0@?0??erase@?$list@UmfxFrameAllocResponse@@V?$allocator@UmfxFrameAllocResponse@@@std@@@std@@QEAA?AV?$_List_iterator@V?$_List_val@U?$_List_simple_types@UmfxFrameAllocResponse@@@std@@@std@@@2@V?$_List_const_iterator@V?$_List_val@U?$_List_simple_types@UmfxFrameAllocResponse@@@std@@@std@@@2@@Z@4HA+35
	DD	imagerel $unwind$?dtor$0@?0??erase@?$list@UmfxFrameAllocResponse@@V?$allocator@UmfxFrameAllocResponse@@@std@@@std@@QEAA?AV?$_List_iterator@V?$_List_val@U?$_List_simple_types@UmfxFrameAllocResponse@@@std@@@std@@@2@V?$_List_const_iterator@V?$_List_val@U?$_List_simple_types@UmfxFrameAllocResponse@@@std@@@std@@@2@@Z@4HA
pdata	ENDS
;	COMDAT pdata
pdata	SEGMENT
$pdata$?dtor$1@?0??erase@?$list@UmfxFrameAllocResponse@@V?$allocator@UmfxFrameAllocResponse@@@std@@@std@@QEAA?AV?$_List_iterator@V?$_List_val@U?$_List_simple_types@UmfxFrameAllocResponse@@@std@@@std@@@2@V?$_List_const_iterator@V?$_List_val@U?$_List_simple_types@UmfxFrameAllocResponse@@@std@@@std@@@2@@Z@4HA DD imagerel ?dtor$1@?0??erase@?$list@UmfxFrameAllocResponse@@V?$allocator@UmfxFrameAllocResponse@@@std@@@std@@QEAA?AV?$_List_iterator@V?$_List_val@U?$_List_simple_types@UmfxFrameAllocResponse@@@std@@@std@@@2@V?$_List_const_iterator@V?$_List_val@U?$_List_simple_types@UmfxFrameAllocResponse@@@std@@@std@@@2@@Z@4HA
	DD	imagerel ?dtor$1@?0??erase@?$list@UmfxFrameAllocResponse@@V?$allocator@UmfxFrameAllocResponse@@@std@@@std@@QEAA?AV?$_List_iterator@V?$_List_val@U?$_List_simple_types@UmfxFrameAllocResponse@@@std@@@std@@@2@V?$_List_const_iterator@V?$_List_val@U?$_List_simple_types@UmfxFrameAllocResponse@@@std@@@std@@@2@@Z@4HA+49
	DD	imagerel $unwind$?dtor$1@?0??erase@?$list@UmfxFrameAllocResponse@@V?$allocator@UmfxFrameAllocResponse@@@std@@@std@@QEAA?AV?$_List_iterator@V?$_List_val@U?$_List_simple_types@UmfxFrameAllocResponse@@@std@@@std@@@2@V?$_List_const_iterator@V?$_List_val@U?$_List_simple_types@UmfxFrameAllocResponse@@@std@@@std@@@2@@Z@4HA
pdata	ENDS
;	COMDAT pdata
pdata	SEGMENT
$pdata$?_Unchecked_erase@?$list@UmfxFrameAllocResponse@@V?$allocator@UmfxFrameAllocResponse@@@std@@@std@@AEAAPEAU?$_List_node@UmfxFrameAllocResponse@@PEAX@2@QEAU32@@Z DD imagerel $LN3
	DD	imagerel $LN3+138
	DD	imagerel $unwind$?_Unchecked_erase@?$list@UmfxFrameAllocResponse@@V?$allocator@UmfxFrameAllocResponse@@@std@@@std@@AEAAPEAU?$_List_node@UmfxFrameAllocResponse@@PEAX@2@QEAU32@@Z
pdata	ENDS
;	COMDAT pdata
pdata	SEGMENT
$pdata$?_Tidy@?$list@UmfxFrameAllocResponse@@V?$allocator@UmfxFrameAllocResponse@@@std@@@std@@AEAAXXZ DD imagerel $LN3
	DD	imagerel $LN3+109
	DD	imagerel $unwind$?_Tidy@?$list@UmfxFrameAllocResponse@@V?$allocator@UmfxFrameAllocResponse@@@std@@@std@@AEAAXXZ
pdata	ENDS
;	COMDAT pdata
pdata	SEGMENT
$pdata$?_Alloc_sentinel_and_proxy@?$list@UmfxFrameAllocResponse@@V?$allocator@UmfxFrameAllocResponse@@@std@@@std@@AEAAXXZ DD imagerel $LN4
	DD	imagerel $LN4+257
	DD	imagerel $unwind$?_Alloc_sentinel_and_proxy@?$list@UmfxFrameAllocResponse@@V?$allocator@UmfxFrameAllocResponse@@@std@@@std@@AEAAXXZ
pdata	ENDS
;	COMDAT pdata
pdata	SEGMENT
$pdata$?dtor$0@?0??_Alloc_sentinel_and_proxy@?$list@UmfxFrameAllocResponse@@V?$allocator@UmfxFrameAllocResponse@@@std@@@std@@AEAAXXZ@4HA DD imagerel ?dtor$0@?0??_Alloc_sentinel_and_proxy@?$list@UmfxFrameAllocResponse@@V?$allocator@UmfxFrameAllocResponse@@@std@@@std@@AEAAXXZ@4HA
	DD	imagerel ?dtor$0@?0??_Alloc_sentinel_and_proxy@?$list@UmfxFrameAllocResponse@@V?$allocator@UmfxFrameAllocResponse@@@std@@@std@@AEAAXXZ@4HA+35
	DD	imagerel $unwind$?dtor$0@?0??_Alloc_sentinel_and_proxy@?$list@UmfxFrameAllocResponse@@V?$allocator@UmfxFrameAllocResponse@@@std@@@std@@AEAAXXZ@4HA
pdata	ENDS
;	COMDAT pdata
pdata	SEGMENT
$pdata$?_Getal@?$list@UmfxFrameAllocResponse@@V?$allocator@UmfxFrameAllocResponse@@@std@@@std@@AEAAAEAV?$allocator@U?$_List_node@UmfxFrameAllocResponse@@PEAX@std@@@2@XZ DD imagerel $LN3
	DD	imagerel $LN3+49
	DD	imagerel $unwind$?_Getal@?$list@UmfxFrameAllocResponse@@V?$allocator@UmfxFrameAllocResponse@@@std@@@std@@AEAAAEAV?$allocator@U?$_List_node@UmfxFrameAllocResponse@@PEAX@std@@@2@XZ
pdata	ENDS
;	COMDAT pdata
pdata	SEGMENT
$pdata$?_Getal@?$list@UmfxFrameAllocResponse@@V?$allocator@UmfxFrameAllocResponse@@@std@@@std@@AEBAAEBV?$allocator@U?$_List_node@UmfxFrameAllocResponse@@PEAX@std@@@2@XZ DD imagerel $LN3
	DD	imagerel $LN3+49
	DD	imagerel $unwind$?_Getal@?$list@UmfxFrameAllocResponse@@V?$allocator@UmfxFrameAllocResponse@@@std@@@std@@AEBAAEBV?$allocator@U?$_List_node@UmfxFrameAllocResponse@@PEAX@std@@@2@XZ
pdata	ENDS
;	COMDAT pdata
pdata	SEGMENT
$pdata$??0?$_List_val@U?$_List_simple_types@UmfxFrameAllocResponse@@@std@@@std@@QEAA@XZ DD imagerel $LN3
	DD	imagerel $LN3+77
	DD	imagerel $unwind$??0?$_List_val@U?$_List_simple_types@UmfxFrameAllocResponse@@@std@@@std@@QEAA@XZ
pdata	ENDS
;	COMDAT pdata
pdata	SEGMENT
$pdata$?_Orphan_ptr2@?$_List_val@U?$_List_simple_types@UmfxFrameAllocResponse@@@std@@@std@@QEAAXPEAU?$_List_node@UmfxFrameAllocResponse@@PEAX@2@@Z DD imagerel $LN9
	DD	imagerel $LN9+231
	DD	imagerel $unwind$?_Orphan_ptr2@?$_List_val@U?$_List_simple_types@UmfxFrameAllocResponse@@@std@@@std@@QEAAXPEAU?$_List_node@UmfxFrameAllocResponse@@PEAX@2@@Z
pdata	ENDS
;	COMDAT pdata
pdata	SEGMENT
$pdata$?dtor$0@?0??_Orphan_ptr2@?$_List_val@U?$_List_simple_types@UmfxFrameAllocResponse@@@std@@@std@@QEAAXPEAU?$_List_node@UmfxFrameAllocResponse@@PEAX@2@@Z@4HA DD imagerel ?dtor$0@?0??_Orphan_ptr2@?$_List_val@U?$_List_simple_types@UmfxFrameAllocResponse@@@std@@@std@@QEAAXPEAU?$_List_node@UmfxFrameAllocResponse@@PEAX@2@@Z@4HA
	DD	imagerel ?dtor$0@?0??_Orphan_ptr2@?$_List_val@U?$_List_simple_types@UmfxFrameAllocResponse@@@std@@@std@@QEAAXPEAU?$_List_node@UmfxFrameAllocResponse@@PEAX@2@@Z@4HA+36
	DD	imagerel $unwind$?dtor$0@?0??_Orphan_ptr2@?$_List_val@U?$_List_simple_types@UmfxFrameAllocResponse@@@std@@@std@@QEAAXPEAU?$_List_node@UmfxFrameAllocResponse@@PEAX@2@@Z@4HA
pdata	ENDS
;	COMDAT pdata
pdata	SEGMENT
$pdata$?_Unlinknode@?$_List_val@U?$_List_simple_types@UmfxFrameAllocResponse@@@std@@@std@@QEAAPEAU?$_List_node@UmfxFrameAllocResponse@@PEAX@2@PEAU32@@Z DD imagerel $LN3
	DD	imagerel $LN3+123
	DD	imagerel $unwind$?_Unlinknode@?$_List_val@U?$_List_simple_types@UmfxFrameAllocResponse@@@std@@@std@@QEAAPEAU?$_List_node@UmfxFrameAllocResponse@@PEAX@2@PEAU32@@Z
pdata	ENDS
;	COMDAT pdata
pdata	SEGMENT
$pdata$?_Get_first@?$_Compressed_pair@V?$allocator@U?$_List_node@UmfxFrameAllocResponse@@PEAX@std@@@std@@V?$_List_val@U?$_List_simple_types@UmfxFrameAllocResponse@@@std@@@2@$00@std@@QEAAAEAV?$allocator@U?$_List_node@UmfxFrameAllocResponse@@PEAX@std@@@2@XZ DD imagerel $LN3
	DD	imagerel $LN3+13
	DD	imagerel $unwind$?_Get_first@?$_Compressed_pair@V?$allocator@U?$_List_node@UmfxFrameAllocResponse@@PEAX@std@@@std@@V?$_List_val@U?$_List_simple_types@UmfxFrameAllocResponse@@@std@@@2@$00@std@@QEAAAEAV?$allocator@U?$_List_node@UmfxFrameAllocResponse@@PEAX@std@@@2@XZ
pdata	ENDS
;	COMDAT pdata
pdata	SEGMENT
$pdata$?_Get_first@?$_Compressed_pair@V?$allocator@U?$_List_node@UmfxFrameAllocResponse@@PEAX@std@@@std@@V?$_List_val@U?$_List_simple_types@UmfxFrameAllocResponse@@@std@@@2@$00@std@@QEBAAEBV?$allocator@U?$_List_node@UmfxFrameAllocResponse@@PEAX@std@@@2@XZ DD imagerel $LN3
	DD	imagerel $LN3+13
	DD	imagerel $unwind$?_Get_first@?$_Compressed_pair@V?$allocator@U?$_List_node@UmfxFrameAllocResponse@@PEAX@std@@@std@@V?$_List_val@U?$_List_simple_types@UmfxFrameAllocResponse@@@std@@@2@$00@std@@QEBAAEBV?$allocator@U?$_List_node@UmfxFrameAllocResponse@@PEAX@std@@@2@XZ
pdata	ENDS
;	COMDAT pdata
pdata	SEGMENT
$pdata$??0?$allocator@U?$_List_node@UUniqueResponse@QSVAllocator@@PEAX@std@@@std@@QEAA@XZ DD imagerel $LN3
	DD	imagerel $LN3+13
	DD	imagerel $unwind$??0?$allocator@U?$_List_node@UUniqueResponse@QSVAllocator@@PEAX@std@@@std@@QEAA@XZ
pdata	ENDS
;	COMDAT pdata
pdata	SEGMENT
$pdata$?deallocate@?$allocator@U?$_List_node@UUniqueResponse@QSVAllocator@@PEAX@std@@@std@@QEAAXQEAU?$_List_node@UUniqueResponse@QSVAllocator@@PEAX@2@_K@Z DD imagerel $LN3
	DD	imagerel $LN3+65
	DD	imagerel $unwind$?deallocate@?$allocator@U?$_List_node@UUniqueResponse@QSVAllocator@@PEAX@std@@@std@@QEAAXQEAU?$_List_node@UUniqueResponse@QSVAllocator@@PEAX@2@_K@Z
pdata	ENDS
;	COMDAT pdata
pdata	SEGMENT
$pdata$?allocate@?$allocator@U?$_List_node@UUniqueResponse@QSVAllocator@@PEAX@std@@@std@@QEAAPEAU?$_List_node@UUniqueResponse@QSVAllocator@@PEAX@2@_K@Z DD imagerel $LN3
	DD	imagerel $LN3+59
	DD	imagerel $unwind$?allocate@?$allocator@U?$_List_node@UUniqueResponse@QSVAllocator@@PEAX@std@@@std@@QEAAPEAU?$_List_node@UUniqueResponse@QSVAllocator@@PEAX@2@_K@Z
pdata	ENDS
;	COMDAT pdata
pdata	SEGMENT
$pdata$?deallocate@?$_Default_allocator_traits@V?$allocator@U?$_List_node@UUniqueResponse@QSVAllocator@@PEAX@std@@@std@@@std@@SAXAEAV?$allocator@U?$_List_node@UUniqueResponse@QSVAllocator@@PEAX@std@@@2@QEAU?$_List_node@UUniqueResponse@QSVAllocator@@PEAX@2@_K@Z DD imagerel $LN3
	DD	imagerel $LN3+65
	DD	imagerel $unwind$?deallocate@?$_Default_allocator_traits@V?$allocator@U?$_List_node@UUniqueResponse@QSVAllocator@@PEAX@std@@@std@@@std@@SAXAEAV?$allocator@U?$_List_node@UUniqueResponse@QSVAllocator@@PEAX@std@@@2@QEAU?$_List_node@UUniqueResponse@QSVAllocator@@PEAX@2@_K@Z
pdata	ENDS
;	COMDAT pdata
pdata	SEGMENT
$pdata$?max_size@?$_Default_allocator_traits@V?$allocator@U?$_List_node@UUniqueResponse@QSVAllocator@@PEAX@std@@@std@@@std@@SA_KAEBV?$allocator@U?$_List_node@UUniqueResponse@QSVAllocator@@PEAX@std@@@2@@Z DD imagerel $LN3
	DD	imagerel $LN3+18
	DD	imagerel $unwind$?max_size@?$_Default_allocator_traits@V?$allocator@U?$_List_node@UUniqueResponse@QSVAllocator@@PEAX@std@@@std@@@std@@SA_KAEBV?$allocator@U?$_List_node@UUniqueResponse@QSVAllocator@@PEAX@std@@@2@@Z
pdata	ENDS
;	COMDAT pdata
pdata	SEGMENT
$pdata$??0?$list@UUniqueResponse@QSVAllocator@@V?$allocator@UUniqueResponse@QSVAllocator@@@std@@@std@@QEAA@XZ DD imagerel $LN3
	DD	imagerel $LN3+69
	DD	imagerel $unwind$??0?$list@UUniqueResponse@QSVAllocator@@V?$allocator@UUniqueResponse@QSVAllocator@@@std@@@std@@QEAA@XZ
pdata	ENDS
;	COMDAT pdata
pdata	SEGMENT
$pdata$?push_back@?$list@UUniqueResponse@QSVAllocator@@V?$allocator@UUniqueResponse@QSVAllocator@@@std@@@std@@QEAAX$$QEAUUniqueResponse@QSVAllocator@@@Z DD imagerel $LN3
	DD	imagerel $LN3+73
	DD	imagerel $unwind$?push_back@?$list@UUniqueResponse@QSVAllocator@@V?$allocator@UUniqueResponse@QSVAllocator@@@std@@@std@@QEAAX$$QEAUUniqueResponse@QSVAllocator@@@Z
pdata	ENDS
;	COMDAT pdata
pdata	SEGMENT
$pdata$??1?$list@UUniqueResponse@QSVAllocator@@V?$allocator@UUniqueResponse@QSVAllocator@@@std@@@std@@QEAA@XZ DD imagerel $LN3
	DD	imagerel $LN3+112
	DD	imagerel $unwind$??1?$list@UUniqueResponse@QSVAllocator@@V?$allocator@UUniqueResponse@QSVAllocator@@@std@@@std@@QEAA@XZ
pdata	ENDS
;	COMDAT pdata
pdata	SEGMENT
$pdata$?begin@?$list@UUniqueResponse@QSVAllocator@@V?$allocator@UUniqueResponse@QSVAllocator@@@std@@@std@@QEAA?AV?$_List_iterator@V?$_List_val@U?$_List_simple_types@UUniqueResponse@QSVAllocator@@@std@@@std@@@2@XZ DD imagerel $LN5
	DD	imagerel $LN5+106
	DD	imagerel $unwind$?begin@?$list@UUniqueResponse@QSVAllocator@@V?$allocator@UUniqueResponse@QSVAllocator@@@std@@@std@@QEAA?AV?$_List_iterator@V?$_List_val@U?$_List_simple_types@UUniqueResponse@QSVAllocator@@@std@@@std@@@2@XZ
pdata	ENDS
;	COMDAT pdata
pdata	SEGMENT
$pdata$?dtor$0@?0??begin@?$list@UUniqueResponse@QSVAllocator@@V?$allocator@UUniqueResponse@QSVAllocator@@@std@@@std@@QEAA?AV?$_List_iterator@V?$_List_val@U?$_List_simple_types@UUniqueResponse@QSVAllocator@@@std@@@std@@@2@XZ@4HA DD imagerel ?dtor$0@?0??begin@?$list@UUniqueResponse@QSVAllocator@@V?$allocator@UUniqueResponse@QSVAllocator@@@std@@@std@@QEAA?AV?$_List_iterator@V?$_List_val@U?$_List_simple_types@UUniqueResponse@QSVAllocator@@@std@@@std@@@2@XZ@4HA
	DD	imagerel ?dtor$0@?0??begin@?$list@UUniqueResponse@QSVAllocator@@V?$allocator@UUniqueResponse@QSVAllocator@@@std@@@std@@QEAA?AV?$_List_iterator@V?$_List_val@U?$_List_simple_types@UUniqueResponse@QSVAllocator@@@std@@@std@@@2@XZ@4HA+49
	DD	imagerel $unwind$?dtor$0@?0??begin@?$list@UUniqueResponse@QSVAllocator@@V?$allocator@UUniqueResponse@QSVAllocator@@@std@@@std@@QEAA?AV?$_List_iterator@V?$_List_val@U?$_List_simple_types@UUniqueResponse@QSVAllocator@@@std@@@std@@@2@XZ@4HA
pdata	ENDS
;	COMDAT pdata
pdata	SEGMENT
$pdata$?end@?$list@UUniqueResponse@QSVAllocator@@V?$allocator@UUniqueResponse@QSVAllocator@@@std@@@std@@QEAA?AV?$_List_iterator@V?$_List_val@U?$_List_simple_types@UUniqueResponse@QSVAllocator@@@std@@@std@@@2@XZ DD imagerel $LN5
	DD	imagerel $LN5+103
	DD	imagerel $unwind$?end@?$list@UUniqueResponse@QSVAllocator@@V?$allocator@UUniqueResponse@QSVAllocator@@@std@@@std@@QEAA?AV?$_List_iterator@V?$_List_val@U?$_List_simple_types@UUniqueResponse@QSVAllocator@@@std@@@std@@@2@XZ
pdata	ENDS
;	COMDAT pdata
pdata	SEGMENT
$pdata$?dtor$0@?0??end@?$list@UUniqueResponse@QSVAllocator@@V?$allocator@UUniqueResponse@QSVAllocator@@@std@@@std@@QEAA?AV?$_List_iterator@V?$_List_val@U?$_List_simple_types@UUniqueResponse@QSVAllocator@@@std@@@std@@@2@XZ@4HA DD imagerel ?dtor$0@?0??end@?$list@UUniqueResponse@QSVAllocator@@V?$allocator@UUniqueResponse@QSVAllocator@@@std@@@std@@QEAA?AV?$_List_iterator@V?$_List_val@U?$_List_simple_types@UUniqueResponse@QSVAllocator@@@std@@@std@@@2@XZ@4HA
	DD	imagerel ?dtor$0@?0??end@?$list@UUniqueResponse@QSVAllocator@@V?$allocator@UUniqueResponse@QSVAllocator@@@std@@@std@@QEAA?AV?$_List_iterator@V?$_List_val@U?$_List_simple_types@UUniqueResponse@QSVAllocator@@@std@@@std@@@2@XZ@4HA+49
	DD	imagerel $unwind$?dtor$0@?0??end@?$list@UUniqueResponse@QSVAllocator@@V?$allocator@UUniqueResponse@QSVAllocator@@@std@@@std@@QEAA?AV?$_List_iterator@V?$_List_val@U?$_List_simple_types@UUniqueResponse@QSVAllocator@@@std@@@std@@@2@XZ@4HA
pdata	ENDS
;	COMDAT pdata
pdata	SEGMENT
$pdata$?_Make_iter@?$list@UUniqueResponse@QSVAllocator@@V?$allocator@UUniqueResponse@QSVAllocator@@@std@@@std@@QEBA?AV?$_List_iterator@V?$_List_val@U?$_List_simple_types@UUniqueResponse@QSVAllocator@@@std@@@std@@@2@PEAU?$_List_node@UUniqueResponse@QSVAllocator@@PEAX@2@@Z DD imagerel $LN5
	DD	imagerel $LN5+103
	DD	imagerel $unwind$?_Make_iter@?$list@UUniqueResponse@QSVAllocator@@V?$allocator@UUniqueResponse@QSVAllocator@@@std@@@std@@QEBA?AV?$_List_iterator@V?$_List_val@U?$_List_simple_types@UUniqueResponse@QSVAllocator@@@std@@@std@@@2@PEAU?$_List_node@UUniqueResponse@QSVAllocator@@PEAX@2@@Z
pdata	ENDS
;	COMDAT pdata
pdata	SEGMENT
$pdata$?dtor$0@?0??_Make_iter@?$list@UUniqueResponse@QSVAllocator@@V?$allocator@UUniqueResponse@QSVAllocator@@@std@@@std@@QEBA?AV?$_List_iterator@V?$_List_val@U?$_List_simple_types@UUniqueResponse@QSVAllocator@@@std@@@std@@@2@PEAU?$_List_node@UUniqueResponse@QSVAllocator@@PEAX@2@@Z@4HA DD imagerel ?dtor$0@?0??_Make_iter@?$list@UUniqueResponse@QSVAllocator@@V?$allocator@UUniqueResponse@QSVAllocator@@@std@@@std@@QEBA?AV?$_List_iterator@V?$_List_val@U?$_List_simple_types@UUniqueResponse@QSVAllocator@@@std@@@std@@@2@PEAU?$_List_node@UUniqueResponse@QSVAllocator@@PEAX@2@@Z@4HA
	DD	imagerel ?dtor$0@?0??_Make_iter@?$list@UUniqueResponse@QSVAllocator@@V?$allocator@UUniqueResponse@QSVAllocator@@@std@@@std@@QEBA?AV?$_List_iterator@V?$_List_val@U?$_List_simple_types@UUniqueResponse@QSVAllocator@@@std@@@std@@@2@PEAU?$_List_node@UUniqueResponse@QSVAllocator@@PEAX@2@@Z@4HA+49
	DD	imagerel $unwind$?dtor$0@?0??_Make_iter@?$list@UUniqueResponse@QSVAllocator@@V?$allocator@UUniqueResponse@QSVAllocator@@@std@@@std@@QEBA?AV?$_List_iterator@V?$_List_val@U?$_List_simple_types@UUniqueResponse@QSVAllocator@@@std@@@std@@@2@PEAU?$_List_node@UUniqueResponse@QSVAllocator@@PEAX@2@@Z@4HA
pdata	ENDS
;	COMDAT pdata
pdata	SEGMENT
$pdata$?max_size@?$list@UUniqueResponse@QSVAllocator@@V?$allocator@UUniqueResponse@QSVAllocator@@@std@@@std@@QEBA_KXZ DD imagerel $LN3
	DD	imagerel $LN3+87
	DD	imagerel $unwind$?max_size@?$list@UUniqueResponse@QSVAllocator@@V?$allocator@UUniqueResponse@QSVAllocator@@@std@@@std@@QEBA_KXZ
pdata	ENDS
;	COMDAT pdata
pdata	SEGMENT
$pdata$?erase@?$list@UUniqueResponse@QSVAllocator@@V?$allocator@UUniqueResponse@QSVAllocator@@@std@@@std@@QEAA?AV?$_List_iterator@V?$_List_val@U?$_List_simple_types@UUniqueResponse@QSVAllocator@@@std@@@std@@@2@V?$_List_const_iterator@V?$_List_val@U?$_List_simple_types@UUniqueResponse@QSVAllocator@@@std@@@std@@@2@@Z DD imagerel $LN15
	DD	imagerel $LN15+325
	DD	imagerel $unwind$?erase@?$list@UUniqueResponse@QSVAllocator@@V?$allocator@UUniqueResponse@QSVAllocator@@@std@@@std@@QEAA?AV?$_List_iterator@V?$_List_val@U?$_List_simple_types@UUniqueResponse@QSVAllocator@@@std@@@std@@@2@V?$_List_const_iterator@V?$_List_val@U?$_List_simple_types@UUniqueResponse@QSVAllocator@@@std@@@std@@@2@@Z
pdata	ENDS
;	COMDAT pdata
pdata	SEGMENT
$pdata$?dtor$0@?0??erase@?$list@UUniqueResponse@QSVAllocator@@V?$allocator@UUniqueResponse@QSVAllocator@@@std@@@std@@QEAA?AV?$_List_iterator@V?$_List_val@U?$_List_simple_types@UUniqueResponse@QSVAllocator@@@std@@@std@@@2@V?$_List_const_iterator@V?$_List_val@U?$_List_simple_types@UUniqueResponse@QSVAllocator@@@std@@@std@@@2@@Z@4HA DD imagerel ?dtor$0@?0??erase@?$list@UUniqueResponse@QSVAllocator@@V?$allocator@UUniqueResponse@QSVAllocator@@@std@@@std@@QEAA?AV?$_List_iterator@V?$_List_val@U?$_List_simple_types@UUniqueResponse@QSVAllocator@@@std@@@std@@@2@V?$_List_const_iterator@V?$_List_val@U?$_List_simple_types@UUniqueResponse@QSVAllocator@@@std@@@std@@@2@@Z@4HA
	DD	imagerel ?dtor$0@?0??erase@?$list@UUniqueResponse@QSVAllocator@@V?$allocator@UUniqueResponse@QSVAllocator@@@std@@@std@@QEAA?AV?$_List_iterator@V?$_List_val@U?$_List_simple_types@UUniqueResponse@QSVAllocator@@@std@@@std@@@2@V?$_List_const_iterator@V?$_List_val@U?$_List_simple_types@UUniqueResponse@QSVAllocator@@@std@@@std@@@2@@Z@4HA+35
	DD	imagerel $unwind$?dtor$0@?0??erase@?$list@UUniqueResponse@QSVAllocator@@V?$allocator@UUniqueResponse@QSVAllocator@@@std@@@std@@QEAA?AV?$_List_iterator@V?$_List_val@U?$_List_simple_types@UUniqueResponse@QSVAllocator@@@std@@@std@@@2@V?$_List_const_iterator@V?$_List_val@U?$_List_simple_types@UUniqueResponse@QSVAllocator@@@std@@@std@@@2@@Z@4HA
pdata	ENDS
;	COMDAT pdata
pdata	SEGMENT
$pdata$?dtor$1@?0??erase@?$list@UUniqueResponse@QSVAllocator@@V?$allocator@UUniqueResponse@QSVAllocator@@@std@@@std@@QEAA?AV?$_List_iterator@V?$_List_val@U?$_List_simple_types@UUniqueResponse@QSVAllocator@@@std@@@std@@@2@V?$_List_const_iterator@V?$_List_val@U?$_List_simple_types@UUniqueResponse@QSVAllocator@@@std@@@std@@@2@@Z@4HA DD imagerel ?dtor$1@?0??erase@?$list@UUniqueResponse@QSVAllocator@@V?$allocator@UUniqueResponse@QSVAllocator@@@std@@@std@@QEAA?AV?$_List_iterator@V?$_List_val@U?$_List_simple_types@UUniqueResponse@QSVAllocator@@@std@@@std@@@2@V?$_List_const_iterator@V?$_List_val@U?$_List_simple_types@UUniqueResponse@QSVAllocator@@@std@@@std@@@2@@Z@4HA
	DD	imagerel ?dtor$1@?0??erase@?$list@UUniqueResponse@QSVAllocator@@V?$allocator@UUniqueResponse@QSVAllocator@@@std@@@std@@QEAA?AV?$_List_iterator@V?$_List_val@U?$_List_simple_types@UUniqueResponse@QSVAllocator@@@std@@@std@@@2@V?$_List_const_iterator@V?$_List_val@U?$_List_simple_types@UUniqueResponse@QSVAllocator@@@std@@@std@@@2@@Z@4HA+49
	DD	imagerel $unwind$?dtor$1@?0??erase@?$list@UUniqueResponse@QSVAllocator@@V?$allocator@UUniqueResponse@QSVAllocator@@@std@@@std@@QEAA?AV?$_List_iterator@V?$_List_val@U?$_List_simple_types@UUniqueResponse@QSVAllocator@@@std@@@std@@@2@V?$_List_const_iterator@V?$_List_val@U?$_List_simple_types@UUniqueResponse@QSVAllocator@@@std@@@std@@@2@@Z@4HA
pdata	ENDS
;	COMDAT pdata
pdata	SEGMENT
$pdata$?clear@?$list@UUniqueResponse@QSVAllocator@@V?$allocator@UUniqueResponse@QSVAllocator@@@std@@@std@@QEAAXXZ DD imagerel $LN3
	DD	imagerel $LN3+139
	DD	imagerel $unwind$?clear@?$list@UUniqueResponse@QSVAllocator@@V?$allocator@UUniqueResponse@QSVAllocator@@@std@@@std@@QEAAXXZ
pdata	ENDS
;	COMDAT pdata
pdata	SEGMENT
$pdata$?_Tidy@?$list@UUniqueResponse@QSVAllocator@@V?$allocator@UUniqueResponse@QSVAllocator@@@std@@@std@@AEAAXXZ DD imagerel $LN3
	DD	imagerel $LN3+109
	DD	imagerel $unwind$?_Tidy@?$list@UUniqueResponse@QSVAllocator@@V?$allocator@UUniqueResponse@QSVAllocator@@@std@@@std@@AEAAXXZ
pdata	ENDS
;	COMDAT pdata
pdata	SEGMENT
$pdata$?_Alloc_sentinel_and_proxy@?$list@UUniqueResponse@QSVAllocator@@V?$allocator@UUniqueResponse@QSVAllocator@@@std@@@std@@AEAAXXZ DD imagerel $LN4
	DD	imagerel $LN4+257
	DD	imagerel $unwind$?_Alloc_sentinel_and_proxy@?$list@UUniqueResponse@QSVAllocator@@V?$allocator@UUniqueResponse@QSVAllocator@@@std@@@std@@AEAAXXZ
pdata	ENDS
;	COMDAT pdata
pdata	SEGMENT
$pdata$?dtor$0@?0??_Alloc_sentinel_and_proxy@?$list@UUniqueResponse@QSVAllocator@@V?$allocator@UUniqueResponse@QSVAllocator@@@std@@@std@@AEAAXXZ@4HA DD imagerel ?dtor$0@?0??_Alloc_sentinel_and_proxy@?$list@UUniqueResponse@QSVAllocator@@V?$allocator@UUniqueResponse@QSVAllocator@@@std@@@std@@AEAAXXZ@4HA
	DD	imagerel ?dtor$0@?0??_Alloc_sentinel_and_proxy@?$list@UUniqueResponse@QSVAllocator@@V?$allocator@UUniqueResponse@QSVAllocator@@@std@@@std@@AEAAXXZ@4HA+35
	DD	imagerel $unwind$?dtor$0@?0??_Alloc_sentinel_and_proxy@?$list@UUniqueResponse@QSVAllocator@@V?$allocator@UUniqueResponse@QSVAllocator@@@std@@@std@@AEAAXXZ@4HA
pdata	ENDS
;	COMDAT pdata
pdata	SEGMENT
$pdata$?_Getal@?$list@UUniqueResponse@QSVAllocator@@V?$allocator@UUniqueResponse@QSVAllocator@@@std@@@std@@AEAAAEAV?$allocator@U?$_List_node@UUniqueResponse@QSVAllocator@@PEAX@std@@@2@XZ DD imagerel $LN3
	DD	imagerel $LN3+49
	DD	imagerel $unwind$?_Getal@?$list@UUniqueResponse@QSVAllocator@@V?$allocator@UUniqueResponse@QSVAllocator@@@std@@@std@@AEAAAEAV?$allocator@U?$_List_node@UUniqueResponse@QSVAllocator@@PEAX@std@@@2@XZ
pdata	ENDS
;	COMDAT pdata
pdata	SEGMENT
$pdata$?_Getal@?$list@UUniqueResponse@QSVAllocator@@V?$allocator@UUniqueResponse@QSVAllocator@@@std@@@std@@AEBAAEBV?$allocator@U?$_List_node@UUniqueResponse@QSVAllocator@@PEAX@std@@@2@XZ DD imagerel $LN3
	DD	imagerel $LN3+49
	DD	imagerel $unwind$?_Getal@?$list@UUniqueResponse@QSVAllocator@@V?$allocator@UUniqueResponse@QSVAllocator@@@std@@@std@@AEBAAEBV?$allocator@U?$_List_node@UUniqueResponse@QSVAllocator@@PEAX@std@@@2@XZ
pdata	ENDS
;	COMDAT pdata
pdata	SEGMENT
$pdata$??0?$_List_val@U?$_List_simple_types@UUniqueResponse@QSVAllocator@@@std@@@std@@QEAA@XZ DD imagerel $LN3
	DD	imagerel $LN3+77
	DD	imagerel $unwind$??0?$_List_val@U?$_List_simple_types@UUniqueResponse@QSVAllocator@@@std@@@std@@QEAA@XZ
pdata	ENDS
;	COMDAT pdata
pdata	SEGMENT
$pdata$?_Orphan_ptr2@?$_List_val@U?$_List_simple_types@UUniqueResponse@QSVAllocator@@@std@@@std@@QEAAXPEAU?$_List_node@UUniqueResponse@QSVAllocator@@PEAX@2@@Z DD imagerel $LN9
	DD	imagerel $LN9+231
	DD	imagerel $unwind$?_Orphan_ptr2@?$_List_val@U?$_List_simple_types@UUniqueResponse@QSVAllocator@@@std@@@std@@QEAAXPEAU?$_List_node@UUniqueResponse@QSVAllocator@@PEAX@2@@Z
pdata	ENDS
;	COMDAT pdata
pdata	SEGMENT
$pdata$?dtor$0@?0??_Orphan_ptr2@?$_List_val@U?$_List_simple_types@UUniqueResponse@QSVAllocator@@@std@@@std@@QEAAXPEAU?$_List_node@UUniqueResponse@QSVAllocator@@PEAX@2@@Z@4HA DD imagerel ?dtor$0@?0??_Orphan_ptr2@?$_List_val@U?$_List_simple_types@UUniqueResponse@QSVAllocator@@@std@@@std@@QEAAXPEAU?$_List_node@UUniqueResponse@QSVAllocator@@PEAX@2@@Z@4HA
	DD	imagerel ?dtor$0@?0??_Orphan_ptr2@?$_List_val@U?$_List_simple_types@UUniqueResponse@QSVAllocator@@@std@@@std@@QEAAXPEAU?$_List_node@UUniqueResponse@QSVAllocator@@PEAX@2@@Z@4HA+36
	DD	imagerel $unwind$?dtor$0@?0??_Orphan_ptr2@?$_List_val@U?$_List_simple_types@UUniqueResponse@QSVAllocator@@@std@@@std@@QEAAXPEAU?$_List_node@UUniqueResponse@QSVAllocator@@PEAX@2@@Z@4HA
pdata	ENDS
;	COMDAT pdata
pdata	SEGMENT
$pdata$?_Orphan_non_end@?$_List_val@U?$_List_simple_types@UUniqueResponse@QSVAllocator@@@std@@@std@@QEAAXXZ DD imagerel $LN8
	DD	imagerel $LN8+204
	DD	imagerel $unwind$?_Orphan_non_end@?$_List_val@U?$_List_simple_types@UUniqueResponse@QSVAllocator@@@std@@@std@@QEAAXXZ
pdata	ENDS
;	COMDAT pdata
pdata	SEGMENT
$pdata$?dtor$0@?0??_Orphan_non_end@?$_List_val@U?$_List_simple_types@UUniqueResponse@QSVAllocator@@@std@@@std@@QEAAXXZ@4HA DD imagerel ?dtor$0@?0??_Orphan_non_end@?$_List_val@U?$_List_simple_types@UUniqueResponse@QSVAllocator@@@std@@@std@@QEAAXXZ@4HA
	DD	imagerel ?dtor$0@?0??_Orphan_non_end@?$_List_val@U?$_List_simple_types@UUniqueResponse@QSVAllocator@@@std@@@std@@QEAAXXZ@4HA+36
	DD	imagerel $unwind$?dtor$0@?0??_Orphan_non_end@?$_List_val@U?$_List_simple_types@UUniqueResponse@QSVAllocator@@@std@@@std@@QEAAXXZ@4HA
pdata	ENDS
;	COMDAT pdata
pdata	SEGMENT
$pdata$?_Unlinknode@?$_List_val@U?$_List_simple_types@UUniqueResponse@QSVAllocator@@@std@@@std@@QEAAPEAU?$_List_node@UUniqueResponse@QSVAllocator@@PEAX@2@PEAU32@@Z DD imagerel $LN3
	DD	imagerel $LN3+123
	DD	imagerel $unwind$?_Unlinknode@?$_List_val@U?$_List_simple_types@UUniqueResponse@QSVAllocator@@@std@@@std@@QEAAPEAU?$_List_node@UUniqueResponse@QSVAllocator@@PEAX@2@PEAU32@@Z
pdata	ENDS
;	COMDAT pdata
pdata	SEGMENT
$pdata$?_Get_first@?$_Compressed_pair@V?$allocator@U?$_List_node@UUniqueResponse@QSVAllocator@@PEAX@std@@@std@@V?$_List_val@U?$_List_simple_types@UUniqueResponse@QSVAllocator@@@std@@@2@$00@std@@QEAAAEAV?$allocator@U?$_List_node@UUniqueResponse@QSVAllocator@@PEAX@std@@@2@XZ DD imagerel $LN3
	DD	imagerel $LN3+13
	DD	imagerel $unwind$?_Get_first@?$_Compressed_pair@V?$allocator@U?$_List_node@UUniqueResponse@QSVAllocator@@PEAX@std@@@std@@V?$_List_val@U?$_List_simple_types@UUniqueResponse@QSVAllocator@@@std@@@2@$00@std@@QEAAAEAV?$allocator@U?$_List_node@UUniqueResponse@QSVAllocator@@PEAX@std@@@2@XZ
pdata	ENDS
;	COMDAT pdata
pdata	SEGMENT
$pdata$?_Get_first@?$_Compressed_pair@V?$allocator@U?$_List_node@UUniqueResponse@QSVAllocator@@PEAX@std@@@std@@V?$_List_val@U?$_List_simple_types@UUniqueResponse@QSVAllocator@@@std@@@2@$00@std@@QEBAAEBV?$allocator@U?$_List_node@UUniqueResponse@QSVAllocator@@PEAX@std@@@2@XZ DD imagerel $LN3
	DD	imagerel $LN3+13
	DD	imagerel $unwind$?_Get_first@?$_Compressed_pair@V?$allocator@U?$_List_node@UUniqueResponse@QSVAllocator@@PEAX@std@@@std@@V?$_List_val@U?$_List_simple_types@UUniqueResponse@QSVAllocator@@@std@@@2@$00@std@@QEBAAEBV?$allocator@U?$_List_node@UUniqueResponse@QSVAllocator@@PEAX@std@@@2@XZ
pdata	ENDS
;	COMDAT pdata
pdata	SEGMENT
$pdata$?get@?$_Ptr_base@VRGYLog@@@std@@IEBAPEAVRGYLog@@XZ DD imagerel $LN3
	DD	imagerel $LN3+16
	DD	imagerel $unwind$?get@?$_Ptr_base@VRGYLog@@@std@@IEBAPEAVRGYLog@@XZ
pdata	ENDS
;	COMDAT pdata
pdata	SEGMENT
$pdata$??0?$_Ptr_base@VRGYLog@@@std@@IEAA@XZ DD imagerel $LN3
	DD	imagerel $LN3+38
	DD	imagerel $unwind$??0?$_Ptr_base@VRGYLog@@@std@@IEAA@XZ
pdata	ENDS
;	COMDAT pdata
pdata	SEGMENT
$pdata$?_Decref@?$_Ptr_base@VRGYLog@@@std@@IEAAXXZ DD imagerel $LN4
	DD	imagerel $LN4+62
	DD	imagerel $unwind$?_Decref@?$_Ptr_base@VRGYLog@@@std@@IEAAXXZ
pdata	ENDS
;	COMDAT pdata
pdata	SEGMENT
$pdata$?_Swap@?$_Ptr_base@VRGYLog@@@std@@IEAAXAEAV12@@Z DD imagerel $LN3
	DD	imagerel $LN3+85
	DD	imagerel $unwind$?_Swap@?$_Ptr_base@VRGYLog@@@std@@IEAAXAEAV12@@Z
pdata	ENDS
;	COMDAT pdata
pdata	SEGMENT
$pdata$??0?$shared_ptr@VRGYLog@@@std@@QEAA@XZ DD imagerel $LN3
	DD	imagerel $LN3+51
	DD	imagerel $unwind$??0?$shared_ptr@VRGYLog@@@std@@QEAA@XZ
pdata	ENDS
;	COMDAT pdata
pdata	SEGMENT
$pdata$??1?$shared_ptr@VRGYLog@@@std@@QEAA@XZ DD imagerel $LN3
	DD	imagerel $LN3+46
	DD	imagerel $unwind$??1?$shared_ptr@VRGYLog@@@std@@QEAA@XZ
pdata	ENDS
;	COMDAT pdata
pdata	SEGMENT
$pdata$?swap@?$shared_ptr@VRGYLog@@@std@@QEAAXAEAV12@@Z DD imagerel $LN3
	DD	imagerel $LN3+56
	DD	imagerel $unwind$?swap@?$shared_ptr@VRGYLog@@@std@@QEAAXAEAV12@@Z
pdata	ENDS
;	COMDAT pdata
pdata	SEGMENT
$pdata$?reset@?$shared_ptr@VRGYLog@@@std@@QEAAXXZ DD imagerel $LN4
	DD	imagerel $LN4+89
	DD	imagerel $unwind$?reset@?$shared_ptr@VRGYLog@@@std@@QEAAXXZ
pdata	ENDS
;	COMDAT pdata
pdata	SEGMENT
$pdata$?dtor$0@?0??reset@?$shared_ptr@VRGYLog@@@std@@QEAAXXZ@4HA DD imagerel ?dtor$0@?0??reset@?$shared_ptr@VRGYLog@@@std@@QEAAXXZ@4HA
	DD	imagerel ?dtor$0@?0??reset@?$shared_ptr@VRGYLog@@@std@@QEAAXXZ@4HA+35
	DD	imagerel $unwind$?dtor$0@?0??reset@?$shared_ptr@VRGYLog@@@std@@QEAAXXZ@4HA
pdata	ENDS
;	COMDAT pdata
pdata	SEGMENT
$pdata$??_GQSVAllocator@@UEAAPEAXI@Z DD imagerel $LN4
	DD	imagerel $LN4+81
	DD	imagerel $unwind$??_GQSVAllocator@@UEAAPEAXI@Z
pdata	ENDS
;	COMDAT pdata
pdata	SEGMENT
$pdata$??$?CVRGYLog@@$0A@@?$shared_ptr@VRGYLog@@@std@@QEBAPEAVRGYLog@@XZ DD imagerel $LN3
	DD	imagerel $LN3+46
	DD	imagerel $unwind$??$?CVRGYLog@@$0A@@?$shared_ptr@VRGYLog@@@std@@QEBAPEAVRGYLog@@XZ
pdata	ENDS
;	COMDAT pdata
pdata	SEGMENT
$pdata$??0?$_List_unchecked_const_iterator@V?$_List_val@U?$_List_simple_types@UUniqueResponse@QSVAllocator@@@std@@@std@@U_Iterator_base12@2@@std@@QEAA@PEAU?$_List_node@UUniqueResponse@QSVAllocator@@PEAX@1@PEBV?$_List_val@U?$_List_simple_types@UUniqueResponse@QSVAllocator@@@std@@@1@@Z DD imagerel $LN4
	DD	imagerel $LN4+92
	DD	imagerel $unwind$??0?$_List_unchecked_const_iterator@V?$_List_val@U?$_List_simple_types@UUniqueResponse@QSVAllocator@@@std@@@std@@U_Iterator_base12@2@@std@@QEAA@PEAU?$_List_node@UUniqueResponse@QSVAllocator@@PEAX@1@PEBV?$_List_val@U?$_List_simple_types@UUniqueResponse@QSVAllocator@@@std@@@1@@Z
pdata	ENDS
;	COMDAT pdata
pdata	SEGMENT
$pdata$?dtor$0@?0???0?$_List_unchecked_const_iterator@V?$_List_val@U?$_List_simple_types@UUniqueResponse@QSVAllocator@@@std@@@std@@U_Iterator_base12@2@@std@@QEAA@PEAU?$_List_node@UUniqueResponse@QSVAllocator@@PEAX@1@PEBV?$_List_val@U?$_List_simple_types@UUniqueResponse@QSVAllocator@@@std@@@1@@Z@4HA DD imagerel ?dtor$0@?0???0?$_List_unchecked_const_iterator@V?$_List_val@U?$_List_simple_types@UUniqueResponse@QSVAllocator@@@std@@@std@@U_Iterator_base12@2@@std@@QEAA@PEAU?$_List_node@UUniqueResponse@QSVAllocator@@PEAX@1@PEBV?$_List_val@U?$_List_simple_types@UUniqueResponse@QSVAllocator@@@std@@@1@@Z@4HA
	DD	imagerel ?dtor$0@?0???0?$_List_unchecked_const_iterator@V?$_List_val@U?$_List_simple_types@UUniqueResponse@QSVAllocator@@@std@@@std@@U_Iterator_base12@2@@std@@QEAA@PEAU?$_List_node@UUniqueResponse@QSVAllocator@@PEAX@1@PEBV?$_List_val@U?$_List_simple_types@UUniqueResponse@QSVAllocator@@@std@@@1@@Z@4HA+35
	DD	imagerel $unwind$?dtor$0@?0???0?$_List_unchecked_const_iterator@V?$_List_val@U?$_List_simple_types@UUniqueResponse@QSVAllocator@@@std@@@std@@U_Iterator_base12@2@@std@@QEAA@PEAU?$_List_node@UUniqueResponse@QSVAllocator@@PEAX@1@PEBV?$_List_val@U?$_List_simple_types@UUniqueResponse@QSVAllocator@@@std@@@1@@Z@4HA
pdata	ENDS
;	COMDAT pdata
pdata	SEGMENT
$pdata$??1?$_List_unchecked_const_iterator@V?$_List_val@U?$_List_simple_types@UUniqueResponse@QSVAllocator@@@std@@@std@@U_Iterator_base12@2@@std@@QEAA@XZ DD imagerel $LN4
	DD	imagerel $LN4+47
	DD	imagerel $unwind$??1?$_List_unchecked_const_iterator@V?$_List_val@U?$_List_simple_types@UUniqueResponse@QSVAllocator@@@std@@@std@@U_Iterator_base12@2@@std@@QEAA@XZ
pdata	ENDS
;	COMDAT pdata
pdata	SEGMENT
$pdata$?dtor$0@?0???1?$_List_unchecked_const_iterator@V?$_List_val@U?$_List_simple_types@UUniqueResponse@QSVAllocator@@@std@@@std@@U_Iterator_base12@2@@std@@QEAA@XZ@4HA DD imagerel ?dtor$0@?0???1?$_List_unchecked_const_iterator@V?$_List_val@U?$_List_simple_types@UUniqueResponse@QSVAllocator@@@std@@@std@@U_Iterator_base12@2@@std@@QEAA@XZ@4HA
	DD	imagerel ?dtor$0@?0???1?$_List_unchecked_const_iterator@V?$_List_val@U?$_List_simple_types@UUniqueResponse@QSVAllocator@@@std@@@std@@U_Iterator_base12@2@@std@@QEAA@XZ@4HA+35
	DD	imagerel $unwind$?dtor$0@?0???1?$_List_unchecked_const_iterator@V?$_List_val@U?$_List_simple_types@UUniqueResponse@QSVAllocator@@@std@@@std@@U_Iterator_base12@2@@std@@QEAA@XZ@4HA
pdata	ENDS
;	COMDAT pdata
pdata	SEGMENT
$pdata$??0?$_List_unchecked_const_iterator@V?$_List_val@U?$_List_simple_types@UUniqueResponse@QSVAllocator@@@std@@@std@@U_Iterator_base12@2@@std@@QEAA@AEBV01@@Z DD imagerel $LN4
	DD	imagerel $LN4+80
	DD	imagerel $unwind$??0?$_List_unchecked_const_iterator@V?$_List_val@U?$_List_simple_types@UUniqueResponse@QSVAllocator@@@std@@@std@@U_Iterator_base12@2@@std@@QEAA@AEBV01@@Z
pdata	ENDS
;	COMDAT pdata
pdata	SEGMENT
$pdata$?dtor$0@?0???0?$_List_unchecked_const_iterator@V?$_List_val@U?$_List_simple_types@UUniqueResponse@QSVAllocator@@@std@@@std@@U_Iterator_base12@2@@std@@QEAA@AEBV01@@Z@4HA DD imagerel ?dtor$0@?0???0?$_List_unchecked_const_iterator@V?$_List_val@U?$_List_simple_types@UUniqueResponse@QSVAllocator@@@std@@@std@@U_Iterator_base12@2@@std@@QEAA@AEBV01@@Z@4HA
	DD	imagerel ?dtor$0@?0???0?$_List_unchecked_const_iterator@V?$_List_val@U?$_List_simple_types@UUniqueResponse@QSVAllocator@@@std@@@std@@U_Iterator_base12@2@@std@@QEAA@AEBV01@@Z@4HA+35
	DD	imagerel $unwind$?dtor$0@?0???0?$_List_unchecked_const_iterator@V?$_List_val@U?$_List_simple_types@UUniqueResponse@QSVAllocator@@@std@@@std@@U_Iterator_base12@2@@std@@QEAA@AEBV01@@Z@4HA
pdata	ENDS
;	COMDAT pdata
pdata	SEGMENT
$pdata$??0?$_List_unchecked_const_iterator@V?$_List_val@U?$_List_simple_types@UUniqueResponse@QSVAllocator@@@std@@@std@@U_Iterator_base12@2@@std@@QEAA@$$QEAV01@@Z DD imagerel $LN4
	DD	imagerel $LN4+80
	DD	imagerel $unwind$??0?$_List_unchecked_const_iterator@V?$_List_val@U?$_List_simple_types@UUniqueResponse@QSVAllocator@@@std@@@std@@U_Iterator_base12@2@@std@@QEAA@$$QEAV01@@Z
pdata	ENDS
;	COMDAT pdata
pdata	SEGMENT
$pdata$?dtor$0@?0???0?$_List_unchecked_const_iterator@V?$_List_val@U?$_List_simple_types@UUniqueResponse@QSVAllocator@@@std@@@std@@U_Iterator_base12@2@@std@@QEAA@$$QEAV01@@Z@4HA DD imagerel ?dtor$0@?0???0?$_List_unchecked_const_iterator@V?$_List_val@U?$_List_simple_types@UUniqueResponse@QSVAllocator@@@std@@@std@@U_Iterator_base12@2@@std@@QEAA@$$QEAV01@@Z@4HA
	DD	imagerel ?dtor$0@?0???0?$_List_unchecked_const_iterator@V?$_List_val@U?$_List_simple_types@UUniqueResponse@QSVAllocator@@@std@@@std@@U_Iterator_base12@2@@std@@QEAA@$$QEAV01@@Z@4HA+35
	DD	imagerel $unwind$?dtor$0@?0???0?$_List_unchecked_const_iterator@V?$_List_val@U?$_List_simple_types@UUniqueResponse@QSVAllocator@@@std@@@std@@U_Iterator_base12@2@@std@@QEAA@$$QEAV01@@Z@4HA
pdata	ENDS
;	COMDAT pdata
pdata	SEGMENT
$pdata$??0?$_List_const_iterator@V?$_List_val@U?$_List_simple_types@UUniqueResponse@QSVAllocator@@@std@@@std@@@std@@QEAA@PEAU?$_List_node@UUniqueResponse@QSVAllocator@@PEAX@1@PEBV?$_List_val@U?$_List_simple_types@UUniqueResponse@QSVAllocator@@@std@@@1@@Z DD imagerel $LN4
	DD	imagerel $LN4+72
	DD	imagerel $unwind$??0?$_List_const_iterator@V?$_List_val@U?$_List_simple_types@UUniqueResponse@QSVAllocator@@@std@@@std@@@std@@QEAA@PEAU?$_List_node@UUniqueResponse@QSVAllocator@@PEAX@1@PEBV?$_List_val@U?$_List_simple_types@UUniqueResponse@QSVAllocator@@@std@@@1@@Z
pdata	ENDS
;	COMDAT pdata
pdata	SEGMENT
$pdata$?dtor$0@?0???0?$_List_const_iterator@V?$_List_val@U?$_List_simple_types@UUniqueResponse@QSVAllocator@@@std@@@std@@@std@@QEAA@PEAU?$_List_node@UUniqueResponse@QSVAllocator@@PEAX@1@PEBV?$_List_val@U?$_List_simple_types@UUniqueResponse@QSVAllocator@@@std@@@1@@Z@4HA DD imagerel ?dtor$0@?0???0?$_List_const_iterator@V?$_List_val@U?$_List_simple_types@UUniqueResponse@QSVAllocator@@@std@@@std@@@std@@QEAA@PEAU?$_List_node@UUniqueResponse@QSVAllocator@@PEAX@1@PEBV?$_List_val@U?$_List_simple_types@UUniqueResponse@QSVAllocator@@@std@@@1@@Z@4HA
	DD	imagerel ?dtor$0@?0???0?$_List_const_iterator@V?$_List_val@U?$_List_simple_types@UUniqueResponse@QSVAllocator@@@std@@@std@@@std@@QEAA@PEAU?$_List_node@UUniqueResponse@QSVAllocator@@PEAX@1@PEBV?$_List_val@U?$_List_simple_types@UUniqueResponse@QSVAllocator@@@std@@@1@@Z@4HA+35
	DD	imagerel $unwind$?dtor$0@?0???0?$_List_const_iterator@V?$_List_val@U?$_List_simple_types@UUniqueResponse@QSVAllocator@@@std@@@std@@@std@@QEAA@PEAU?$_List_node@UUniqueResponse@QSVAllocator@@PEAX@1@PEBV?$_List_val@U?$_List_simple_types@UUniqueResponse@QSVAllocator@@@std@@@1@@Z@4HA
pdata	ENDS
;	COMDAT pdata
pdata	SEGMENT
$pdata$??D?$_List_const_iterator@V?$_List_val@U?$_List_simple_types@UUniqueResponse@QSVAllocator@@@std@@@std@@@std@@QEBAAEBUUniqueResponse@QSVAllocator@@XZ DD imagerel $LN21
	DD	imagerel $LN21+326
	DD	imagerel $unwind$??D?$_List_const_iterator@V?$_List_val@U?$_List_simple_types@UUniqueResponse@QSVAllocator@@@std@@@std@@@std@@QEBAAEBUUniqueResponse@QSVAllocator@@XZ
pdata	ENDS
;	COMDAT pdata
pdata	SEGMENT
$pdata$??E?$_List_const_iterator@V?$_List_val@U?$_List_simple_types@UUniqueResponse@QSVAllocator@@@std@@@std@@@std@@QEAAAEAV01@XZ DD imagerel $LN21
	DD	imagerel $LN21+339
	DD	imagerel $unwind$??E?$_List_const_iterator@V?$_List_val@U?$_List_simple_types@UUniqueResponse@QSVAllocator@@@std@@@std@@@std@@QEAAAEAV01@XZ
pdata	ENDS
;	COMDAT pdata
pdata	SEGMENT
$pdata$??8?$_List_const_iterator@V?$_List_val@U?$_List_simple_types@UUniqueResponse@QSVAllocator@@@std@@@std@@@std@@QEBA_NAEBV01@@Z DD imagerel $LN14
	DD	imagerel $LN14+238
	DD	imagerel $unwind$??8?$_List_const_iterator@V?$_List_val@U?$_List_simple_types@UUniqueResponse@QSVAllocator@@@std@@@std@@@std@@QEBA_NAEBV01@@Z
pdata	ENDS
;	COMDAT pdata
pdata	SEGMENT
$pdata$??9?$_List_const_iterator@V?$_List_val@U?$_List_simple_types@UUniqueResponse@QSVAllocator@@@std@@@std@@@std@@QEBA_NAEBV01@@Z DD imagerel $LN5
	DD	imagerel $LN5+86
	DD	imagerel $unwind$??9?$_List_const_iterator@V?$_List_val@U?$_List_simple_types@UUniqueResponse@QSVAllocator@@@std@@@std@@@std@@QEBA_NAEBV01@@Z
pdata	ENDS
;	COMDAT pdata
pdata	SEGMENT
$pdata$?_Verify_range@std@@YAXAEBV?$_List_const_iterator@V?$_List_val@U?$_List_simple_types@UUniqueResponse@QSVAllocator@@@std@@@std@@@1@0@Z DD imagerel $LN12
	DD	imagerel $LN12+195
	DD	imagerel $unwind$?_Verify_range@std@@YAXAEBV?$_List_const_iterator@V?$_List_val@U?$_List_simple_types@UUniqueResponse@QSVAllocator@@@std@@@std@@@1@0@Z
pdata	ENDS
;	COMDAT pdata
pdata	SEGMENT
$pdata$?_Seek_to@?$_List_const_iterator@V?$_List_val@U?$_List_simple_types@UUniqueResponse@QSVAllocator@@@std@@@std@@@std@@QEAAXV?$_List_unchecked_const_iterator@V?$_List_val@U?$_List_simple_types@UUniqueResponse@QSVAllocator@@@std@@@std@@U_Iterator_base0@2@@2@@Z DD imagerel $LN3
	DD	imagerel $LN3+27
	DD	imagerel $unwind$?_Seek_to@?$_List_const_iterator@V?$_List_val@U?$_List_simple_types@UUniqueResponse@QSVAllocator@@@std@@@std@@@std@@QEAAXV?$_List_unchecked_const_iterator@V?$_List_val@U?$_List_simple_types@UUniqueResponse@QSVAllocator@@@std@@@std@@U_Iterator_base0@2@@2@@Z
pdata	ENDS
;	COMDAT pdata
pdata	SEGMENT
$pdata$??1?$_List_const_iterator@V?$_List_val@U?$_List_simple_types@UUniqueResponse@QSVAllocator@@@std@@@std@@@std@@QEAA@XZ DD imagerel $LN4
	DD	imagerel $LN4+47
	DD	imagerel $unwind$??1?$_List_const_iterator@V?$_List_val@U?$_List_simple_types@UUniqueResponse@QSVAllocator@@@std@@@std@@@std@@QEAA@XZ
pdata	ENDS
;	COMDAT pdata
pdata	SEGMENT
$pdata$?dtor$0@?0???1?$_List_const_iterator@V?$_List_val@U?$_List_simple_types@UUniqueResponse@QSVAllocator@@@std@@@std@@@std@@QEAA@XZ@4HA DD imagerel ?dtor$0@?0???1?$_List_const_iterator@V?$_List_val@U?$_List_simple_types@UUniqueResponse@QSVAllocator@@@std@@@std@@@std@@QEAA@XZ@4HA
	DD	imagerel ?dtor$0@?0???1?$_List_const_iterator@V?$_List_val@U?$_List_simple_types@UUniqueResponse@QSVAllocator@@@std@@@std@@@std@@QEAA@XZ@4HA+35
	DD	imagerel $unwind$?dtor$0@?0???1?$_List_const_iterator@V?$_List_val@U?$_List_simple_types@UUniqueResponse@QSVAllocator@@@std@@@std@@@std@@QEAA@XZ@4HA
pdata	ENDS
;	COMDAT pdata
pdata	SEGMENT
$pdata$??0?$_List_const_iterator@V?$_List_val@U?$_List_simple_types@UUniqueResponse@QSVAllocator@@@std@@@std@@@std@@QEAA@AEBV01@@Z DD imagerel $LN4
	DD	imagerel $LN4+62
	DD	imagerel $unwind$??0?$_List_const_iterator@V?$_List_val@U?$_List_simple_types@UUniqueResponse@QSVAllocator@@@std@@@std@@@std@@QEAA@AEBV01@@Z
pdata	ENDS
;	COMDAT pdata
pdata	SEGMENT
$pdata$?dtor$0@?0???0?$_List_const_iterator@V?$_List_val@U?$_List_simple_types@UUniqueResponse@QSVAllocator@@@std@@@std@@@std@@QEAA@AEBV01@@Z@4HA DD imagerel ?dtor$0@?0???0?$_List_const_iterator@V?$_List_val@U?$_List_simple_types@UUniqueResponse@QSVAllocator@@@std@@@std@@@std@@QEAA@AEBV01@@Z@4HA
	DD	imagerel ?dtor$0@?0???0?$_List_const_iterator@V?$_List_val@U?$_List_simple_types@UUniqueResponse@QSVAllocator@@@std@@@std@@@std@@QEAA@AEBV01@@Z@4HA+35
	DD	imagerel $unwind$?dtor$0@?0???0?$_List_const_iterator@V?$_List_val@U?$_List_simple_types@UUniqueResponse@QSVAllocator@@@std@@@std@@@std@@QEAA@AEBV01@@Z@4HA
pdata	ENDS
;	COMDAT pdata
pdata	SEGMENT
$pdata$??0?$_List_const_iterator@V?$_List_val@U?$_List_simple_types@UUniqueResponse@QSVAllocator@@@std@@@std@@@std@@QEAA@$$QEAV01@@Z DD imagerel $LN4
	DD	imagerel $LN4+62
	DD	imagerel $unwind$??0?$_List_const_iterator@V?$_List_val@U?$_List_simple_types@UUniqueResponse@QSVAllocator@@@std@@@std@@@std@@QEAA@$$QEAV01@@Z
pdata	ENDS
;	COMDAT pdata
pdata	SEGMENT
$pdata$?dtor$0@?0???0?$_List_const_iterator@V?$_List_val@U?$_List_simple_types@UUniqueResponse@QSVAllocator@@@std@@@std@@@std@@QEAA@$$QEAV01@@Z@4HA DD imagerel ?dtor$0@?0???0?$_List_const_iterator@V?$_List_val@U?$_List_simple_types@UUniqueResponse@QSVAllocator@@@std@@@std@@@std@@QEAA@$$QEAV01@@Z@4HA
	DD	imagerel ?dtor$0@?0???0?$_List_const_iterator@V?$_List_val@U?$_List_simple_types@UUniqueResponse@QSVAllocator@@@std@@@std@@@std@@QEAA@$$QEAV01@@Z@4HA+35
	DD	imagerel $unwind$?dtor$0@?0???0?$_List_const_iterator@V?$_List_val@U?$_List_simple_types@UUniqueResponse@QSVAllocator@@@std@@@std@@@std@@QEAA@$$QEAV01@@Z@4HA
pdata	ENDS
;	COMDAT pdata
pdata	SEGMENT
$pdata$??0?$_List_iterator@V?$_List_val@U?$_List_simple_types@UUniqueResponse@QSVAllocator@@@std@@@std@@@std@@QEAA@PEAU?$_List_node@UUniqueResponse@QSVAllocator@@PEAX@1@PEBV?$_List_val@U?$_List_simple_types@UUniqueResponse@QSVAllocator@@@std@@@1@@Z DD imagerel $LN4
	DD	imagerel $LN4+72
	DD	imagerel $unwind$??0?$_List_iterator@V?$_List_val@U?$_List_simple_types@UUniqueResponse@QSVAllocator@@@std@@@std@@@std@@QEAA@PEAU?$_List_node@UUniqueResponse@QSVAllocator@@PEAX@1@PEBV?$_List_val@U?$_List_simple_types@UUniqueResponse@QSVAllocator@@@std@@@1@@Z
pdata	ENDS
;	COMDAT pdata
pdata	SEGMENT
$pdata$?dtor$0@?0???0?$_List_iterator@V?$_List_val@U?$_List_simple_types@UUniqueResponse@QSVAllocator@@@std@@@std@@@std@@QEAA@PEAU?$_List_node@UUniqueResponse@QSVAllocator@@PEAX@1@PEBV?$_List_val@U?$_List_simple_types@UUniqueResponse@QSVAllocator@@@std@@@1@@Z@4HA DD imagerel ?dtor$0@?0???0?$_List_iterator@V?$_List_val@U?$_List_simple_types@UUniqueResponse@QSVAllocator@@@std@@@std@@@std@@QEAA@PEAU?$_List_node@UUniqueResponse@QSVAllocator@@PEAX@1@PEBV?$_List_val@U?$_List_simple_types@UUniqueResponse@QSVAllocator@@@std@@@1@@Z@4HA
	DD	imagerel ?dtor$0@?0???0?$_List_iterator@V?$_List_val@U?$_List_simple_types@UUniqueResponse@QSVAllocator@@@std@@@std@@@std@@QEAA@PEAU?$_List_node@UUniqueResponse@QSVAllocator@@PEAX@1@PEBV?$_List_val@U?$_List_simple_types@UUniqueResponse@QSVAllocator@@@std@@@1@@Z@4HA+35
	DD	imagerel $unwind$?dtor$0@?0???0?$_List_iterator@V?$_List_val@U?$_List_simple_types@UUniqueResponse@QSVAllocator@@@std@@@std@@@std@@QEAA@PEAU?$_List_node@UUniqueResponse@QSVAllocator@@PEAX@1@PEBV?$_List_val@U?$_List_simple_types@UUniqueResponse@QSVAllocator@@@std@@@1@@Z@4HA
pdata	ENDS
;	COMDAT pdata
pdata	SEGMENT
$pdata$??D?$_List_iterator@V?$_List_val@U?$_List_simple_types@UUniqueResponse@QSVAllocator@@@std@@@std@@@std@@QEBAAEAUUniqueResponse@QSVAllocator@@XZ DD imagerel $LN3
	DD	imagerel $LN3+46
	DD	imagerel $unwind$??D?$_List_iterator@V?$_List_val@U?$_List_simple_types@UUniqueResponse@QSVAllocator@@@std@@@std@@@std@@QEBAAEAUUniqueResponse@QSVAllocator@@XZ
pdata	ENDS
;	COMDAT pdata
pdata	SEGMENT
$pdata$??C?$_List_iterator@V?$_List_val@U?$_List_simple_types@UUniqueResponse@QSVAllocator@@@std@@@std@@@std@@QEBAPEAUUniqueResponse@QSVAllocator@@XZ DD imagerel $LN3
	DD	imagerel $LN3+54
	DD	imagerel $unwind$??C?$_List_iterator@V?$_List_val@U?$_List_simple_types@UUniqueResponse@QSVAllocator@@@std@@@std@@@std@@QEBAPEAUUniqueResponse@QSVAllocator@@XZ
pdata	ENDS
;	COMDAT pdata
pdata	SEGMENT
$pdata$??E?$_List_iterator@V?$_List_val@U?$_List_simple_types@UUniqueResponse@QSVAllocator@@@std@@@std@@@std@@QEAA?AV01@H@Z DD imagerel $LN6
	DD	imagerel $LN6+143
	DD	imagerel $unwind$??E?$_List_iterator@V?$_List_val@U?$_List_simple_types@UUniqueResponse@QSVAllocator@@@std@@@std@@@std@@QEAA?AV01@H@Z
pdata	ENDS
;	COMDAT pdata
pdata	SEGMENT
$pdata$?dtor$0@?0???E?$_List_iterator@V?$_List_val@U?$_List_simple_types@UUniqueResponse@QSVAllocator@@@std@@@std@@@std@@QEAA?AV01@H@Z@4HA DD imagerel ?dtor$0@?0???E?$_List_iterator@V?$_List_val@U?$_List_simple_types@UUniqueResponse@QSVAllocator@@@std@@@std@@@std@@QEAA?AV01@H@Z@4HA
	DD	imagerel ?dtor$0@?0???E?$_List_iterator@V?$_List_val@U?$_List_simple_types@UUniqueResponse@QSVAllocator@@@std@@@std@@@std@@QEAA?AV01@H@Z@4HA+35
	DD	imagerel $unwind$?dtor$0@?0???E?$_List_iterator@V?$_List_val@U?$_List_simple_types@UUniqueResponse@QSVAllocator@@@std@@@std@@@std@@QEAA?AV01@H@Z@4HA
pdata	ENDS
;	COMDAT pdata
pdata	SEGMENT
$pdata$?dtor$1@?0???E?$_List_iterator@V?$_List_val@U?$_List_simple_types@UUniqueResponse@QSVAllocator@@@std@@@std@@@std@@QEAA?AV01@H@Z@4HA DD imagerel ?dtor$1@?0???E?$_List_iterator@V?$_List_val@U?$_List_simple_types@UUniqueResponse@QSVAllocator@@@std@@@std@@@std@@QEAA?AV01@H@Z@4HA
	DD	imagerel ?dtor$1@?0???E?$_List_iterator@V?$_List_val@U?$_List_simple_types@UUniqueResponse@QSVAllocator@@@std@@@std@@@std@@QEAA?AV01@H@Z@4HA+49
	DD	imagerel $unwind$?dtor$1@?0???E?$_List_iterator@V?$_List_val@U?$_List_simple_types@UUniqueResponse@QSVAllocator@@@std@@@std@@@std@@QEAA?AV01@H@Z@4HA
pdata	ENDS
;	COMDAT pdata
pdata	SEGMENT
$pdata$?_Unwrapped@?$_List_iterator@V?$_List_val@U?$_List_simple_types@UUniqueResponse@QSVAllocator@@@std@@@std@@@std@@QEBA?AV?$_List_unchecked_iterator@V?$_List_val@U?$_List_simple_types@UUniqueResponse@QSVAllocator@@@std@@@std@@@2@XZ DD imagerel $LN3
	DD	imagerel $LN3+78
	DD	imagerel $unwind$?_Unwrapped@?$_List_iterator@V?$_List_val@U?$_List_simple_types@UUniqueResponse@QSVAllocator@@@std@@@std@@@std@@QEBA?AV?$_List_unchecked_iterator@V?$_List_val@U?$_List_simple_types@UUniqueResponse@QSVAllocator@@@std@@@std@@@2@XZ
pdata	ENDS
;	COMDAT pdata
pdata	SEGMENT
$pdata$??1?$_List_iterator@V?$_List_val@U?$_List_simple_types@UUniqueResponse@QSVAllocator@@@std@@@std@@@std@@QEAA@XZ DD imagerel $LN4
	DD	imagerel $LN4+47
	DD	imagerel $unwind$??1?$_List_iterator@V?$_List_val@U?$_List_simple_types@UUniqueResponse@QSVAllocator@@@std@@@std@@@std@@QEAA@XZ
pdata	ENDS
;	COMDAT pdata
pdata	SEGMENT
$pdata$?dtor$0@?0???1?$_List_iterator@V?$_List_val@U?$_List_simple_types@UUniqueResponse@QSVAllocator@@@std@@@std@@@std@@QEAA@XZ@4HA DD imagerel ?dtor$0@?0???1?$_List_iterator@V?$_List_val@U?$_List_simple_types@UUniqueResponse@QSVAllocator@@@std@@@std@@@std@@QEAA@XZ@4HA
	DD	imagerel ?dtor$0@?0???1?$_List_iterator@V?$_List_val@U?$_List_simple_types@UUniqueResponse@QSVAllocator@@@std@@@std@@@std@@QEAA@XZ@4HA+35
	DD	imagerel $unwind$?dtor$0@?0???1?$_List_iterator@V?$_List_val@U?$_List_simple_types@UUniqueResponse@QSVAllocator@@@std@@@std@@@std@@QEAA@XZ@4HA
pdata	ENDS
;	COMDAT pdata
pdata	SEGMENT
$pdata$??0?$_List_iterator@V?$_List_val@U?$_List_simple_types@UUniqueResponse@QSVAllocator@@@std@@@std@@@std@@QEAA@AEBV01@@Z DD imagerel $LN4
	DD	imagerel $LN4+62
	DD	imagerel $unwind$??0?$_List_iterator@V?$_List_val@U?$_List_simple_types@UUniqueResponse@QSVAllocator@@@std@@@std@@@std@@QEAA@AEBV01@@Z
pdata	ENDS
;	COMDAT pdata
pdata	SEGMENT
$pdata$?dtor$0@?0???0?$_List_iterator@V?$_List_val@U?$_List_simple_types@UUniqueResponse@QSVAllocator@@@std@@@std@@@std@@QEAA@AEBV01@@Z@4HA DD imagerel ?dtor$0@?0???0?$_List_iterator@V?$_List_val@U?$_List_simple_types@UUniqueResponse@QSVAllocator@@@std@@@std@@@std@@QEAA@AEBV01@@Z@4HA
	DD	imagerel ?dtor$0@?0???0?$_List_iterator@V?$_List_val@U?$_List_simple_types@UUniqueResponse@QSVAllocator@@@std@@@std@@@std@@QEAA@AEBV01@@Z@4HA+35
	DD	imagerel $unwind$?dtor$0@?0???0?$_List_iterator@V?$_List_val@U?$_List_simple_types@UUniqueResponse@QSVAllocator@@@std@@@std@@@std@@QEAA@AEBV01@@Z@4HA
pdata	ENDS
;	COMDAT pdata
pdata	SEGMENT
$pdata$??0?$_List_iterator@V?$_List_val@U?$_List_simple_types@UUniqueResponse@QSVAllocator@@@std@@@std@@@std@@QEAA@$$QEAV01@@Z DD imagerel $LN4
	DD	imagerel $LN4+62
	DD	imagerel $unwind$??0?$_List_iterator@V?$_List_val@U?$_List_simple_types@UUniqueResponse@QSVAllocator@@@std@@@std@@@std@@QEAA@$$QEAV01@@Z
pdata	ENDS
;	COMDAT pdata
pdata	SEGMENT
$pdata$?dtor$0@?0???0?$_List_iterator@V?$_List_val@U?$_List_simple_types@UUniqueResponse@QSVAllocator@@@std@@@std@@@std@@QEAA@$$QEAV01@@Z@4HA DD imagerel ?dtor$0@?0???0?$_List_iterator@V?$_List_val@U?$_List_simple_types@UUniqueResponse@QSVAllocator@@@std@@@std@@@std@@QEAA@$$QEAV01@@Z@4HA
	DD	imagerel ?dtor$0@?0???0?$_List_iterator@V?$_List_val@U?$_List_simple_types@UUniqueResponse@QSVAllocator@@@std@@@std@@@std@@QEAA@$$QEAV01@@Z@4HA+35
	DD	imagerel $unwind$?dtor$0@?0???0?$_List_iterator@V?$_List_val@U?$_List_simple_types@UUniqueResponse@QSVAllocator@@@std@@@std@@@std@@QEAA@$$QEAV01@@Z@4HA
pdata	ENDS
;	COMDAT pdata
pdata	SEGMENT
$pdata$??$find_if@V?$_List_iterator@V?$_List_val@U?$_List_simple_types@UUniqueResponse@QSVAllocator@@@std@@@std@@@std@@UUniqueResponse@QSVAllocator@@@std@@YA?AV?$_List_iterator@V?$_List_val@U?$_List_simple_types@UUniqueResponse@QSVAllocator@@@std@@@std@@@0@V10@V10@UUniqueResponse@QSVAllocator@@@Z DD imagerel $LN11
	DD	imagerel $LN11+273
	DD	imagerel $unwind$??$find_if@V?$_List_iterator@V?$_List_val@U?$_List_simple_types@UUniqueResponse@QSVAllocator@@@std@@@std@@@std@@UUniqueResponse@QSVAllocator@@@std@@YA?AV?$_List_iterator@V?$_List_val@U?$_List_simple_types@UUniqueResponse@QSVAllocator@@@std@@@std@@@0@V10@V10@UUniqueResponse@QSVAllocator@@@Z
pdata	ENDS
;	COMDAT pdata
pdata	SEGMENT
$pdata$?dtor$0@?0???$find_if@V?$_List_iterator@V?$_List_val@U?$_List_simple_types@UUniqueResponse@QSVAllocator@@@std@@@std@@@std@@UUniqueResponse@QSVAllocator@@@std@@YA?AV?$_List_iterator@V?$_List_val@U?$_List_simple_types@UUniqueResponse@QSVAllocator@@@std@@@std@@@0@V10@V10@UUniqueResponse@QSVAllocator@@@Z@4HA DD imagerel ?dtor$0@?0???$find_if@V?$_List_iterator@V?$_List_val@U?$_List_simple_types@UUniqueResponse@QSVAllocator@@@std@@@std@@@std@@UUniqueResponse@QSVAllocator@@@std@@YA?AV?$_List_iterator@V?$_List_val@U?$_List_simple_types@UUniqueResponse@QSVAllocator@@@std@@@std@@@0@V10@V10@UUniqueResponse@QSVAllocator@@@Z@4HA
	DD	imagerel ?dtor$0@?0???$find_if@V?$_List_iterator@V?$_List_val@U?$_List_simple_types@UUniqueResponse@QSVAllocator@@@std@@@std@@@std@@UUniqueResponse@QSVAllocator@@@std@@YA?AV?$_List_iterator@V?$_List_val@U?$_List_simple_types@UUniqueResponse@QSVAllocator@@@std@@@std@@@0@V10@V10@UUniqueResponse@QSVAllocator@@@Z@4HA+38
	DD	imagerel $unwind$?dtor$0@?0???$find_if@V?$_List_iterator@V?$_List_val@U?$_List_simple_types@UUniqueResponse@QSVAllocator@@@std@@@std@@@std@@UUniqueResponse@QSVAllocator@@@std@@YA?AV?$_List_iterator@V?$_List_val@U?$_List_simple_types@UUniqueResponse@QSVAllocator@@@std@@@std@@@0@V10@V10@UUniqueResponse@QSVAllocator@@@Z@4HA
pdata	ENDS
;	COMDAT pdata
pdata	SEGMENT
$pdata$?dtor$1@?0???$find_if@V?$_List_iterator@V?$_List_val@U?$_List_simple_types@UUniqueResponse@QSVAllocator@@@std@@@std@@@std@@UUniqueResponse@QSVAllocator@@@std@@YA?AV?$_List_iterator@V?$_List_val@U?$_List_simple_types@UUniqueResponse@QSVAllocator@@@std@@@std@@@0@V10@V10@UUniqueResponse@QSVAllocator@@@Z@4HA DD imagerel ?dtor$1@?0???$find_if@V?$_List_iterator@V?$_List_val@U?$_List_simple_types@UUniqueResponse@QSVAllocator@@@std@@@std@@@std@@UUniqueResponse@QSVAllocator@@@std@@YA?AV?$_List_iterator@V?$_List_val@U?$_List_simple_types@UUniqueResponse@QSVAllocator@@@std@@@std@@@0@V10@V10@UUniqueResponse@QSVAllocator@@@Z@4HA
	DD	imagerel ?dtor$1@?0???$find_if@V?$_List_iterator@V?$_List_val@U?$_List_simple_types@UUniqueResponse@QSVAllocator@@@std@@@std@@@std@@UUniqueResponse@QSVAllocator@@@std@@YA?AV?$_List_iterator@V?$_List_val@U?$_List_simple_types@UUniqueResponse@QSVAllocator@@@std@@@std@@@0@V10@V10@UUniqueResponse@QSVAllocator@@@Z@4HA+35
	DD	imagerel $unwind$?dtor$1@?0???$find_if@V?$_List_iterator@V?$_List_val@U?$_List_simple_types@UUniqueResponse@QSVAllocator@@@std@@@std@@@std@@UUniqueResponse@QSVAllocator@@@std@@YA?AV?$_List_iterator@V?$_List_val@U?$_List_simple_types@UUniqueResponse@QSVAllocator@@@std@@@std@@@0@V10@V10@UUniqueResponse@QSVAllocator@@@Z@4HA
pdata	ENDS
;	COMDAT pdata
pdata	SEGMENT
$pdata$?dtor$2@?0???$find_if@V?$_List_iterator@V?$_List_val@U?$_List_simple_types@UUniqueResponse@QSVAllocator@@@std@@@std@@@std@@UUniqueResponse@QSVAllocator@@@std@@YA?AV?$_List_iterator@V?$_List_val@U?$_List_simple_types@UUniqueResponse@QSVAllocator@@@std@@@std@@@0@V10@V10@UUniqueResponse@QSVAllocator@@@Z@4HA DD imagerel ?dtor$2@?0???$find_if@V?$_List_iterator@V?$_List_val@U?$_List_simple_types@UUniqueResponse@QSVAllocator@@@std@@@std@@@std@@UUniqueResponse@QSVAllocator@@@std@@YA?AV?$_List_iterator@V?$_List_val@U?$_List_simple_types@UUniqueResponse@QSVAllocator@@@std@@@std@@@0@V10@V10@UUniqueResponse@QSVAllocator@@@Z@4HA
	DD	imagerel ?dtor$2@?0???$find_if@V?$_List_iterator@V?$_List_val@U?$_List_simple_types@UUniqueResponse@QSVAllocator@@@std@@@std@@@std@@UUniqueResponse@QSVAllocator@@@std@@YA?AV?$_List_iterator@V?$_List_val@U?$_List_simple_types@UUniqueResponse@QSVAllocator@@@std@@@std@@@0@V10@V10@UUniqueResponse@QSVAllocator@@@Z@4HA+49
	DD	imagerel $unwind$?dtor$2@?0???$find_if@V?$_List_iterator@V?$_List_val@U?$_List_simple_types@UUniqueResponse@QSVAllocator@@@std@@@std@@@std@@UUniqueResponse@QSVAllocator@@@std@@YA?AV?$_List_iterator@V?$_List_val@U?$_List_simple_types@UUniqueResponse@QSVAllocator@@@std@@@std@@@0@V10@V10@UUniqueResponse@QSVAllocator@@@Z@4HA
pdata	ENDS
;	COMDAT pdata
pdata	SEGMENT
$pdata$??R<lambda_165c5b987e3af5787a0fe9ef2e83e952>@@QEBA_NAEBUmfxFrameAllocResponse@@@Z DD imagerel ??R<lambda_165c5b987e3af5787a0fe9ef2e83e952>@@QEBA_NAEBUmfxFrameAllocResponse@@@Z
	DD	imagerel ??R<lambda_165c5b987e3af5787a0fe9ef2e83e952>@@QEBA_NAEBUmfxFrameAllocResponse@@@Z+163
	DD	imagerel $unwind$??R<lambda_165c5b987e3af5787a0fe9ef2e83e952>@@QEBA_NAEBUmfxFrameAllocResponse@@@Z
pdata	ENDS
;	COMDAT pdata
pdata	SEGMENT
$pdata$??0<lambda_165c5b987e3af5787a0fe9ef2e83e952>@@QEAA@AEBQEAUmfxFrameAllocResponse@@@Z DD imagerel ??0<lambda_165c5b987e3af5787a0fe9ef2e83e952>@@QEAA@AEBQEAUmfxFrameAllocResponse@@@Z
	DD	imagerel ??0<lambda_165c5b987e3af5787a0fe9ef2e83e952>@@QEAA@AEBQEAUmfxFrameAllocResponse@@@Z+34
	DD	imagerel $unwind$??0<lambda_165c5b987e3af5787a0fe9ef2e83e952>@@QEAA@AEBQEAUmfxFrameAllocResponse@@@Z
pdata	ENDS
;	COMDAT pdata
pdata	SEGMENT
$pdata$??$find_if@V?$_List_iterator@V?$_List_val@U?$_List_simple_types@UUniqueResponse@QSVAllocator@@@std@@@std@@@std@@V<lambda_165c5b987e3af5787a0fe9ef2e83e952>@@@std@@YA?AV?$_List_iterator@V?$_List_val@U?$_List_simple_types@UUniqueResponse@QSVAllocator@@@std@@@std@@@0@V10@V10@V<lambda_165c5b987e3af5787a0fe9ef2e83e952>@@@Z DD imagerel ??$find_if@V?$_List_iterator@V?$_List_val@U?$_List_simple_types@UUniqueResponse@QSVAllocator@@@std@@@std@@@std@@V<lambda_165c5b987e3af5787a0fe9ef2e83e952>@@@std@@YA?AV?$_List_iterator@V?$_List_val@U?$_List_simple_types@UUniqueResponse@QSVAllocator@@@std@@@std@@@0@V10@V10@V<lambda_165c5b987e3af5787a0fe9ef2e83e952>@@@Z
	DD	imagerel ??$find_if@V?$_List_iterator@V?$_List_val@U?$_List_simple_types@UUniqueResponse@QSVAllocator@@@std@@@std@@@std@@V<lambda_165c5b987e3af5787a0fe9ef2e83e952>@@@std@@YA?AV?$_List_iterator@V?$_List_val@U?$_List_simple_types@UUniqueResponse@QSVAllocator@@@std@@@std@@@0@V10@V10@V<lambda_165c5b987e3af5787a0fe9ef2e83e952>@@@Z+273
	DD	imagerel $unwind$??$find_if@V?$_List_iterator@V?$_List_val@U?$_List_simple_types@UUniqueResponse@QSVAllocator@@@std@@@std@@@std@@V<lambda_165c5b987e3af5787a0fe9ef2e83e952>@@@std@@YA?AV?$_List_iterator@V?$_List_val@U?$_List_simple_types@UUniqueResponse@QSVAllocator@@@std@@@std@@@0@V10@V10@V<lambda_165c5b987e3af5787a0fe9ef2e83e952>@@@Z
pdata	ENDS
;	COMDAT pdata
pdata	SEGMENT
$pdata$?dtor$0@?0???$find_if@V?$_List_iterator@V?$_List_val@U?$_List_simple_types@UUniqueResponse@QSVAllocator@@@std@@@std@@@std@@V<lambda_165c5b987e3af5787a0fe9ef2e83e952>@@@std@@YA?AV?$_List_iterator@V?$_List_val@U?$_List_simple_types@UUniqueResponse@QSVAllocator@@@std@@@std@@@0@V10@V10@V<lambda_165c5b987e3af5787a0fe9ef2e83e952>@@@Z@4HA DD imagerel ?dtor$0@?0???$find_if@V?$_List_iterator@V?$_List_val@U?$_List_simple_types@UUniqueResponse@QSVAllocator@@@std@@@std@@@std@@V<lambda_165c5b987e3af5787a0fe9ef2e83e952>@@@std@@YA?AV?$_List_iterator@V?$_List_val@U?$_List_simple_types@UUniqueResponse@QSVAllocator@@@std@@@std@@@0@V10@V10@V<lambda_165c5b987e3af5787a0fe9ef2e83e952>@@@Z@4HA
	DD	imagerel ?dtor$0@?0???$find_if@V?$_List_iterator@V?$_List_val@U?$_List_simple_types@UUniqueResponse@QSVAllocator@@@std@@@std@@@std@@V<lambda_165c5b987e3af5787a0fe9ef2e83e952>@@@std@@YA?AV?$_List_iterator@V?$_List_val@U?$_List_simple_types@UUniqueResponse@QSVAllocator@@@std@@@std@@@0@V10@V10@V<lambda_165c5b987e3af5787a0fe9ef2e83e952>@@@Z@4HA+38
	DD	imagerel $unwind$?dtor$0@?0???$find_if@V?$_List_iterator@V?$_List_val@U?$_List_simple_types@UUniqueResponse@QSVAllocator@@@std@@@std@@@std@@V<lambda_165c5b987e3af5787a0fe9ef2e83e952>@@@std@@YA?AV?$_List_iterator@V?$_List_val@U?$_List_simple_types@UUniqueResponse@QSVAllocator@@@std@@@std@@@0@V10@V10@V<lambda_165c5b987e3af5787a0fe9ef2e83e952>@@@Z@4HA
pdata	ENDS
;	COMDAT pdata
pdata	SEGMENT
$pdata$?dtor$1@?0???$find_if@V?$_List_iterator@V?$_List_val@U?$_List_simple_types@UUniqueResponse@QSVAllocator@@@std@@@std@@@std@@V<lambda_165c5b987e3af5787a0fe9ef2e83e952>@@@std@@YA?AV?$_List_iterator@V?$_List_val@U?$_List_simple_types@UUniqueResponse@QSVAllocator@@@std@@@std@@@0@V10@V10@V<lambda_165c5b987e3af5787a0fe9ef2e83e952>@@@Z@4HA DD imagerel ?dtor$1@?0???$find_if@V?$_List_iterator@V?$_List_val@U?$_List_simple_types@UUniqueResponse@QSVAllocator@@@std@@@std@@@std@@V<lambda_165c5b987e3af5787a0fe9ef2e83e952>@@@std@@YA?AV?$_List_iterator@V?$_List_val@U?$_List_simple_types@UUniqueResponse@QSVAllocator@@@std@@@std@@@0@V10@V10@V<lambda_165c5b987e3af5787a0fe9ef2e83e952>@@@Z@4HA
	DD	imagerel ?dtor$1@?0???$find_if@V?$_List_iterator@V?$_List_val@U?$_List_simple_types@UUniqueResponse@QSVAllocator@@@std@@@std@@@std@@V<lambda_165c5b987e3af5787a0fe9ef2e83e952>@@@std@@YA?AV?$_List_iterator@V?$_List_val@U?$_List_simple_types@UUniqueResponse@QSVAllocator@@@std@@@std@@@0@V10@V10@V<lambda_165c5b987e3af5787a0fe9ef2e83e952>@@@Z@4HA+35
	DD	imagerel $unwind$?dtor$1@?0???$find_if@V?$_List_iterator@V?$_List_val@U?$_List_simple_types@UUniqueResponse@QSVAllocator@@@std@@@std@@@std@@V<lambda_165c5b987e3af5787a0fe9ef2e83e952>@@@std@@YA?AV?$_List_iterator@V?$_List_val@U?$_List_simple_types@UUniqueResponse@QSVAllocator@@@std@@@std@@@0@V10@V10@V<lambda_165c5b987e3af5787a0fe9ef2e83e952>@@@Z@4HA
pdata	ENDS
;	COMDAT pdata
pdata	SEGMENT
$pdata$?dtor$2@?0???$find_if@V?$_List_iterator@V?$_List_val@U?$_List_simple_types@UUniqueResponse@QSVAllocator@@@std@@@std@@@std@@V<lambda_165c5b987e3af5787a0fe9ef2e83e952>@@@std@@YA?AV?$_List_iterator@V?$_List_val@U?$_List_simple_types@UUniqueResponse@QSVAllocator@@@std@@@std@@@0@V10@V10@V<lambda_165c5b987e3af5787a0fe9ef2e83e952>@@@Z@4HA DD imagerel ?dtor$2@?0???$find_if@V?$_List_iterator@V?$_List_val@U?$_List_simple_types@UUniqueResponse@QSVAllocator@@@std@@@std@@@std@@V<lambda_165c5b987e3af5787a0fe9ef2e83e952>@@@std@@YA?AV?$_List_iterator@V?$_List_val@U?$_List_simple_types@UUniqueResponse@QSVAllocator@@@std@@@std@@@0@V10@V10@V<lambda_165c5b987e3af5787a0fe9ef2e83e952>@@@Z@4HA
	DD	imagerel ?dtor$2@?0???$find_if@V?$_List_iterator@V?$_List_val@U?$_List_simple_types@UUniqueResponse@QSVAllocator@@@std@@@std@@@std@@V<lambda_165c5b987e3af5787a0fe9ef2e83e952>@@@std@@YA?AV?$_List_iterator@V?$_List_val@U?$_List_simple_types@UUniqueResponse@QSVAllocator@@@std@@@std@@@0@V10@V10@V<lambda_165c5b987e3af5787a0fe9ef2e83e952>@@@Z@4HA+49
	DD	imagerel $unwind$?dtor$2@?0???$find_if@V?$_List_iterator@V?$_List_val@U?$_List_simple_types@UUniqueResponse@QSVAllocator@@@std@@@std@@@std@@V<lambda_165c5b987e3af5787a0fe9ef2e83e952>@@@std@@YA?AV?$_List_iterator@V?$_List_val@U?$_List_simple_types@UUniqueResponse@QSVAllocator@@@std@@@std@@@0@V10@V10@V<lambda_165c5b987e3af5787a0fe9ef2e83e952>@@@Z@4HA
pdata	ENDS
;	COMDAT pdata
pdata	SEGMENT
$pdata$??0?$_List_unchecked_const_iterator@V?$_List_val@U?$_List_simple_types@UmfxFrameAllocResponse@@@std@@@std@@U_Iterator_base12@2@@std@@QEAA@PEAU?$_List_node@UmfxFrameAllocResponse@@PEAX@1@PEBV?$_List_val@U?$_List_simple_types@UmfxFrameAllocResponse@@@std@@@1@@Z DD imagerel $LN4
	DD	imagerel $LN4+92
	DD	imagerel $unwind$??0?$_List_unchecked_const_iterator@V?$_List_val@U?$_List_simple_types@UmfxFrameAllocResponse@@@std@@@std@@U_Iterator_base12@2@@std@@QEAA@PEAU?$_List_node@UmfxFrameAllocResponse@@PEAX@1@PEBV?$_List_val@U?$_List_simple_types@UmfxFrameAllocResponse@@@std@@@1@@Z
pdata	ENDS
;	COMDAT pdata
pdata	SEGMENT
$pdata$?dtor$0@?0???0?$_List_unchecked_const_iterator@V?$_List_val@U?$_List_simple_types@UmfxFrameAllocResponse@@@std@@@std@@U_Iterator_base12@2@@std@@QEAA@PEAU?$_List_node@UmfxFrameAllocResponse@@PEAX@1@PEBV?$_List_val@U?$_List_simple_types@UmfxFrameAllocResponse@@@std@@@1@@Z@4HA DD imagerel ?dtor$0@?0???0?$_List_unchecked_const_iterator@V?$_List_val@U?$_List_simple_types@UmfxFrameAllocResponse@@@std@@@std@@U_Iterator_base12@2@@std@@QEAA@PEAU?$_List_node@UmfxFrameAllocResponse@@PEAX@1@PEBV?$_List_val@U?$_List_simple_types@UmfxFrameAllocResponse@@@std@@@1@@Z@4HA
	DD	imagerel ?dtor$0@?0???0?$_List_unchecked_const_iterator@V?$_List_val@U?$_List_simple_types@UmfxFrameAllocResponse@@@std@@@std@@U_Iterator_base12@2@@std@@QEAA@PEAU?$_List_node@UmfxFrameAllocResponse@@PEAX@1@PEBV?$_List_val@U?$_List_simple_types@UmfxFrameAllocResponse@@@std@@@1@@Z@4HA+35
	DD	imagerel $unwind$?dtor$0@?0???0?$_List_unchecked_const_iterator@V?$_List_val@U?$_List_simple_types@UmfxFrameAllocResponse@@@std@@@std@@U_Iterator_base12@2@@std@@QEAA@PEAU?$_List_node@UmfxFrameAllocResponse@@PEAX@1@PEBV?$_List_val@U?$_List_simple_types@UmfxFrameAllocResponse@@@std@@@1@@Z@4HA
pdata	ENDS
;	COMDAT pdata
pdata	SEGMENT
$pdata$??1?$_List_unchecked_const_iterator@V?$_List_val@U?$_List_simple_types@UmfxFrameAllocResponse@@@std@@@std@@U_Iterator_base12@2@@std@@QEAA@XZ DD imagerel $LN4
	DD	imagerel $LN4+47
	DD	imagerel $unwind$??1?$_List_unchecked_const_iterator@V?$_List_val@U?$_List_simple_types@UmfxFrameAllocResponse@@@std@@@std@@U_Iterator_base12@2@@std@@QEAA@XZ
pdata	ENDS
;	COMDAT pdata
pdata	SEGMENT
$pdata$?dtor$0@?0???1?$_List_unchecked_const_iterator@V?$_List_val@U?$_List_simple_types@UmfxFrameAllocResponse@@@std@@@std@@U_Iterator_base12@2@@std@@QEAA@XZ@4HA DD imagerel ?dtor$0@?0???1?$_List_unchecked_const_iterator@V?$_List_val@U?$_List_simple_types@UmfxFrameAllocResponse@@@std@@@std@@U_Iterator_base12@2@@std@@QEAA@XZ@4HA
	DD	imagerel ?dtor$0@?0???1?$_List_unchecked_const_iterator@V?$_List_val@U?$_List_simple_types@UmfxFrameAllocResponse@@@std@@@std@@U_Iterator_base12@2@@std@@QEAA@XZ@4HA+35
	DD	imagerel $unwind$?dtor$0@?0???1?$_List_unchecked_const_iterator@V?$_List_val@U?$_List_simple_types@UmfxFrameAllocResponse@@@std@@@std@@U_Iterator_base12@2@@std@@QEAA@XZ@4HA
pdata	ENDS
;	COMDAT pdata
pdata	SEGMENT
$pdata$??0?$_List_unchecked_const_iterator@V?$_List_val@U?$_List_simple_types@UmfxFrameAllocResponse@@@std@@@std@@U_Iterator_base12@2@@std@@QEAA@AEBV01@@Z DD imagerel $LN4
	DD	imagerel $LN4+80
	DD	imagerel $unwind$??0?$_List_unchecked_const_iterator@V?$_List_val@U?$_List_simple_types@UmfxFrameAllocResponse@@@std@@@std@@U_Iterator_base12@2@@std@@QEAA@AEBV01@@Z
pdata	ENDS
;	COMDAT pdata
pdata	SEGMENT
$pdata$?dtor$0@?0???0?$_List_unchecked_const_iterator@V?$_List_val@U?$_List_simple_types@UmfxFrameAllocResponse@@@std@@@std@@U_Iterator_base12@2@@std@@QEAA@AEBV01@@Z@4HA DD imagerel ?dtor$0@?0???0?$_List_unchecked_const_iterator@V?$_List_val@U?$_List_simple_types@UmfxFrameAllocResponse@@@std@@@std@@U_Iterator_base12@2@@std@@QEAA@AEBV01@@Z@4HA
	DD	imagerel ?dtor$0@?0???0?$_List_unchecked_const_iterator@V?$_List_val@U?$_List_simple_types@UmfxFrameAllocResponse@@@std@@@std@@U_Iterator_base12@2@@std@@QEAA@AEBV01@@Z@4HA+35
	DD	imagerel $unwind$?dtor$0@?0???0?$_List_unchecked_const_iterator@V?$_List_val@U?$_List_simple_types@UmfxFrameAllocResponse@@@std@@@std@@U_Iterator_base12@2@@std@@QEAA@AEBV01@@Z@4HA
pdata	ENDS
;	COMDAT pdata
pdata	SEGMENT
$pdata$??0?$_List_unchecked_const_iterator@V?$_List_val@U?$_List_simple_types@UmfxFrameAllocResponse@@@std@@@std@@U_Iterator_base12@2@@std@@QEAA@$$QEAV01@@Z DD imagerel $LN4
	DD	imagerel $LN4+80
	DD	imagerel $unwind$??0?$_List_unchecked_const_iterator@V?$_List_val@U?$_List_simple_types@UmfxFrameAllocResponse@@@std@@@std@@U_Iterator_base12@2@@std@@QEAA@$$QEAV01@@Z
pdata	ENDS
;	COMDAT pdata
pdata	SEGMENT
$pdata$?dtor$0@?0???0?$_List_unchecked_const_iterator@V?$_List_val@U?$_List_simple_types@UmfxFrameAllocResponse@@@std@@@std@@U_Iterator_base12@2@@std@@QEAA@$$QEAV01@@Z@4HA DD imagerel ?dtor$0@?0???0?$_List_unchecked_const_iterator@V?$_List_val@U?$_List_simple_types@UmfxFrameAllocResponse@@@std@@@std@@U_Iterator_base12@2@@std@@QEAA@$$QEAV01@@Z@4HA
	DD	imagerel ?dtor$0@?0???0?$_List_unchecked_const_iterator@V?$_List_val@U?$_List_simple_types@UmfxFrameAllocResponse@@@std@@@std@@U_Iterator_base12@2@@std@@QEAA@$$QEAV01@@Z@4HA+35
	DD	imagerel $unwind$?dtor$0@?0???0?$_List_unchecked_const_iterator@V?$_List_val@U?$_List_simple_types@UmfxFrameAllocResponse@@@std@@@std@@U_Iterator_base12@2@@std@@QEAA@$$QEAV01@@Z@4HA
pdata	ENDS
;	COMDAT pdata
pdata	SEGMENT
$pdata$??0?$_List_const_iterator@V?$_List_val@U?$_List_simple_types@UmfxFrameAllocResponse@@@std@@@std@@@std@@QEAA@PEAU?$_List_node@UmfxFrameAllocResponse@@PEAX@1@PEBV?$_List_val@U?$_List_simple_types@UmfxFrameAllocResponse@@@std@@@1@@Z DD imagerel $LN4
	DD	imagerel $LN4+72
	DD	imagerel $unwind$??0?$_List_const_iterator@V?$_List_val@U?$_List_simple_types@UmfxFrameAllocResponse@@@std@@@std@@@std@@QEAA@PEAU?$_List_node@UmfxFrameAllocResponse@@PEAX@1@PEBV?$_List_val@U?$_List_simple_types@UmfxFrameAllocResponse@@@std@@@1@@Z
pdata	ENDS
;	COMDAT pdata
pdata	SEGMENT
$pdata$?dtor$0@?0???0?$_List_const_iterator@V?$_List_val@U?$_List_simple_types@UmfxFrameAllocResponse@@@std@@@std@@@std@@QEAA@PEAU?$_List_node@UmfxFrameAllocResponse@@PEAX@1@PEBV?$_List_val@U?$_List_simple_types@UmfxFrameAllocResponse@@@std@@@1@@Z@4HA DD imagerel ?dtor$0@?0???0?$_List_const_iterator@V?$_List_val@U?$_List_simple_types@UmfxFrameAllocResponse@@@std@@@std@@@std@@QEAA@PEAU?$_List_node@UmfxFrameAllocResponse@@PEAX@1@PEBV?$_List_val@U?$_List_simple_types@UmfxFrameAllocResponse@@@std@@@1@@Z@4HA
	DD	imagerel ?dtor$0@?0???0?$_List_const_iterator@V?$_List_val@U?$_List_simple_types@UmfxFrameAllocResponse@@@std@@@std@@@std@@QEAA@PEAU?$_List_node@UmfxFrameAllocResponse@@PEAX@1@PEBV?$_List_val@U?$_List_simple_types@UmfxFrameAllocResponse@@@std@@@1@@Z@4HA+35
	DD	imagerel $unwind$?dtor$0@?0???0?$_List_const_iterator@V?$_List_val@U?$_List_simple_types@UmfxFrameAllocResponse@@@std@@@std@@@std@@QEAA@PEAU?$_List_node@UmfxFrameAllocResponse@@PEAX@1@PEBV?$_List_val@U?$_List_simple_types@UmfxFrameAllocResponse@@@std@@@1@@Z@4HA
pdata	ENDS
;	COMDAT pdata
pdata	SEGMENT
$pdata$??D?$_List_const_iterator@V?$_List_val@U?$_List_simple_types@UmfxFrameAllocResponse@@@std@@@std@@@std@@QEBAAEBUmfxFrameAllocResponse@@XZ DD imagerel $LN21
	DD	imagerel $LN21+326
	DD	imagerel $unwind$??D?$_List_const_iterator@V?$_List_val@U?$_List_simple_types@UmfxFrameAllocResponse@@@std@@@std@@@std@@QEBAAEBUmfxFrameAllocResponse@@XZ
pdata	ENDS
;	COMDAT pdata
pdata	SEGMENT
$pdata$??E?$_List_const_iterator@V?$_List_val@U?$_List_simple_types@UmfxFrameAllocResponse@@@std@@@std@@@std@@QEAAAEAV01@XZ DD imagerel $LN21
	DD	imagerel $LN21+339
	DD	imagerel $unwind$??E?$_List_const_iterator@V?$_List_val@U?$_List_simple_types@UmfxFrameAllocResponse@@@std@@@std@@@std@@QEAAAEAV01@XZ
pdata	ENDS
;	COMDAT pdata
pdata	SEGMENT
$pdata$??F?$_List_const_iterator@V?$_List_val@U?$_List_simple_types@UmfxFrameAllocResponse@@@std@@@std@@@std@@QEAAAEAV01@XZ DD imagerel $LN21
	DD	imagerel $LN21+346
	DD	imagerel $unwind$??F?$_List_const_iterator@V?$_List_val@U?$_List_simple_types@UmfxFrameAllocResponse@@@std@@@std@@@std@@QEAAAEAV01@XZ
pdata	ENDS
;	COMDAT pdata
pdata	SEGMENT
$pdata$??8?$_List_const_iterator@V?$_List_val@U?$_List_simple_types@UmfxFrameAllocResponse@@@std@@@std@@@std@@QEBA_NAEBV01@@Z DD imagerel $LN14
	DD	imagerel $LN14+238
	DD	imagerel $unwind$??8?$_List_const_iterator@V?$_List_val@U?$_List_simple_types@UmfxFrameAllocResponse@@@std@@@std@@@std@@QEBA_NAEBV01@@Z
pdata	ENDS
;	COMDAT pdata
pdata	SEGMENT
$pdata$??9?$_List_const_iterator@V?$_List_val@U?$_List_simple_types@UmfxFrameAllocResponse@@@std@@@std@@@std@@QEBA_NAEBV01@@Z DD imagerel $LN5
	DD	imagerel $LN5+86
	DD	imagerel $unwind$??9?$_List_const_iterator@V?$_List_val@U?$_List_simple_types@UmfxFrameAllocResponse@@@std@@@std@@@std@@QEBA_NAEBV01@@Z
pdata	ENDS
;	COMDAT pdata
pdata	SEGMENT
$pdata$?_Verify_range@std@@YAXAEBV?$_List_const_iterator@V?$_List_val@U?$_List_simple_types@UmfxFrameAllocResponse@@@std@@@std@@@1@0@Z DD imagerel $LN12
	DD	imagerel $LN12+195
	DD	imagerel $unwind$?_Verify_range@std@@YAXAEBV?$_List_const_iterator@V?$_List_val@U?$_List_simple_types@UmfxFrameAllocResponse@@@std@@@std@@@1@0@Z
pdata	ENDS
;	COMDAT pdata
pdata	SEGMENT
$pdata$?_Seek_to@?$_List_const_iterator@V?$_List_val@U?$_List_simple_types@UmfxFrameAllocResponse@@@std@@@std@@@std@@QEAAXV?$_List_unchecked_const_iterator@V?$_List_val@U?$_List_simple_types@UmfxFrameAllocResponse@@@std@@@std@@U_Iterator_base0@2@@2@@Z DD imagerel $LN3
	DD	imagerel $LN3+27
	DD	imagerel $unwind$?_Seek_to@?$_List_const_iterator@V?$_List_val@U?$_List_simple_types@UmfxFrameAllocResponse@@@std@@@std@@@std@@QEAAXV?$_List_unchecked_const_iterator@V?$_List_val@U?$_List_simple_types@UmfxFrameAllocResponse@@@std@@@std@@U_Iterator_base0@2@@2@@Z
pdata	ENDS
;	COMDAT pdata
pdata	SEGMENT
$pdata$??1?$_List_const_iterator@V?$_List_val@U?$_List_simple_types@UmfxFrameAllocResponse@@@std@@@std@@@std@@QEAA@XZ DD imagerel $LN4
	DD	imagerel $LN4+47
	DD	imagerel $unwind$??1?$_List_const_iterator@V?$_List_val@U?$_List_simple_types@UmfxFrameAllocResponse@@@std@@@std@@@std@@QEAA@XZ
pdata	ENDS
;	COMDAT pdata
pdata	SEGMENT
$pdata$?dtor$0@?0???1?$_List_const_iterator@V?$_List_val@U?$_List_simple_types@UmfxFrameAllocResponse@@@std@@@std@@@std@@QEAA@XZ@4HA DD imagerel ?dtor$0@?0???1?$_List_const_iterator@V?$_List_val@U?$_List_simple_types@UmfxFrameAllocResponse@@@std@@@std@@@std@@QEAA@XZ@4HA
	DD	imagerel ?dtor$0@?0???1?$_List_const_iterator@V?$_List_val@U?$_List_simple_types@UmfxFrameAllocResponse@@@std@@@std@@@std@@QEAA@XZ@4HA+35
	DD	imagerel $unwind$?dtor$0@?0???1?$_List_const_iterator@V?$_List_val@U?$_List_simple_types@UmfxFrameAllocResponse@@@std@@@std@@@std@@QEAA@XZ@4HA
pdata	ENDS
;	COMDAT pdata
pdata	SEGMENT
$pdata$??0?$_List_const_iterator@V?$_List_val@U?$_List_simple_types@UmfxFrameAllocResponse@@@std@@@std@@@std@@QEAA@AEBV01@@Z DD imagerel $LN4
	DD	imagerel $LN4+62
	DD	imagerel $unwind$??0?$_List_const_iterator@V?$_List_val@U?$_List_simple_types@UmfxFrameAllocResponse@@@std@@@std@@@std@@QEAA@AEBV01@@Z
pdata	ENDS
;	COMDAT pdata
pdata	SEGMENT
$pdata$?dtor$0@?0???0?$_List_const_iterator@V?$_List_val@U?$_List_simple_types@UmfxFrameAllocResponse@@@std@@@std@@@std@@QEAA@AEBV01@@Z@4HA DD imagerel ?dtor$0@?0???0?$_List_const_iterator@V?$_List_val@U?$_List_simple_types@UmfxFrameAllocResponse@@@std@@@std@@@std@@QEAA@AEBV01@@Z@4HA
	DD	imagerel ?dtor$0@?0???0?$_List_const_iterator@V?$_List_val@U?$_List_simple_types@UmfxFrameAllocResponse@@@std@@@std@@@std@@QEAA@AEBV01@@Z@4HA+35
	DD	imagerel $unwind$?dtor$0@?0???0?$_List_const_iterator@V?$_List_val@U?$_List_simple_types@UmfxFrameAllocResponse@@@std@@@std@@@std@@QEAA@AEBV01@@Z@4HA
pdata	ENDS
;	COMDAT pdata
pdata	SEGMENT
$pdata$??0?$_List_const_iterator@V?$_List_val@U?$_List_simple_types@UmfxFrameAllocResponse@@@std@@@std@@@std@@QEAA@$$QEAV01@@Z DD imagerel $LN4
	DD	imagerel $LN4+62
	DD	imagerel $unwind$??0?$_List_const_iterator@V?$_List_val@U?$_List_simple_types@UmfxFrameAllocResponse@@@std@@@std@@@std@@QEAA@$$QEAV01@@Z
pdata	ENDS
;	COMDAT pdata
pdata	SEGMENT
$pdata$?dtor$0@?0???0?$_List_const_iterator@V?$_List_val@U?$_List_simple_types@UmfxFrameAllocResponse@@@std@@@std@@@std@@QEAA@$$QEAV01@@Z@4HA DD imagerel ?dtor$0@?0???0?$_List_const_iterator@V?$_List_val@U?$_List_simple_types@UmfxFrameAllocResponse@@@std@@@std@@@std@@QEAA@$$QEAV01@@Z@4HA
	DD	imagerel ?dtor$0@?0???0?$_List_const_iterator@V?$_List_val@U?$_List_simple_types@UmfxFrameAllocResponse@@@std@@@std@@@std@@QEAA@$$QEAV01@@Z@4HA+35
	DD	imagerel $unwind$?dtor$0@?0???0?$_List_const_iterator@V?$_List_val@U?$_List_simple_types@UmfxFrameAllocResponse@@@std@@@std@@@std@@QEAA@$$QEAV01@@Z@4HA
pdata	ENDS
;	COMDAT pdata
pdata	SEGMENT
$pdata$??0?$_List_iterator@V?$_List_val@U?$_List_simple_types@UmfxFrameAllocResponse@@@std@@@std@@@std@@QEAA@PEAU?$_List_node@UmfxFrameAllocResponse@@PEAX@1@PEBV?$_List_val@U?$_List_simple_types@UmfxFrameAllocResponse@@@std@@@1@@Z DD imagerel $LN4
	DD	imagerel $LN4+72
	DD	imagerel $unwind$??0?$_List_iterator@V?$_List_val@U?$_List_simple_types@UmfxFrameAllocResponse@@@std@@@std@@@std@@QEAA@PEAU?$_List_node@UmfxFrameAllocResponse@@PEAX@1@PEBV?$_List_val@U?$_List_simple_types@UmfxFrameAllocResponse@@@std@@@1@@Z
pdata	ENDS
;	COMDAT pdata
pdata	SEGMENT
$pdata$?dtor$0@?0???0?$_List_iterator@V?$_List_val@U?$_List_simple_types@UmfxFrameAllocResponse@@@std@@@std@@@std@@QEAA@PEAU?$_List_node@UmfxFrameAllocResponse@@PEAX@1@PEBV?$_List_val@U?$_List_simple_types@UmfxFrameAllocResponse@@@std@@@1@@Z@4HA DD imagerel ?dtor$0@?0???0?$_List_iterator@V?$_List_val@U?$_List_simple_types@UmfxFrameAllocResponse@@@std@@@std@@@std@@QEAA@PEAU?$_List_node@UmfxFrameAllocResponse@@PEAX@1@PEBV?$_List_val@U?$_List_simple_types@UmfxFrameAllocResponse@@@std@@@1@@Z@4HA
	DD	imagerel ?dtor$0@?0???0?$_List_iterator@V?$_List_val@U?$_List_simple_types@UmfxFrameAllocResponse@@@std@@@std@@@std@@QEAA@PEAU?$_List_node@UmfxFrameAllocResponse@@PEAX@1@PEBV?$_List_val@U?$_List_simple_types@UmfxFrameAllocResponse@@@std@@@1@@Z@4HA+35
	DD	imagerel $unwind$?dtor$0@?0???0?$_List_iterator@V?$_List_val@U?$_List_simple_types@UmfxFrameAllocResponse@@@std@@@std@@@std@@QEAA@PEAU?$_List_node@UmfxFrameAllocResponse@@PEAX@1@PEBV?$_List_val@U?$_List_simple_types@UmfxFrameAllocResponse@@@std@@@1@@Z@4HA
pdata	ENDS
;	COMDAT pdata
pdata	SEGMENT
$pdata$??D?$_List_iterator@V?$_List_val@U?$_List_simple_types@UmfxFrameAllocResponse@@@std@@@std@@@std@@QEBAAEAUmfxFrameAllocResponse@@XZ DD imagerel $LN3
	DD	imagerel $LN3+46
	DD	imagerel $unwind$??D?$_List_iterator@V?$_List_val@U?$_List_simple_types@UmfxFrameAllocResponse@@@std@@@std@@@std@@QEBAAEAUmfxFrameAllocResponse@@XZ
pdata	ENDS
;	COMDAT pdata
pdata	SEGMENT
$pdata$??E?$_List_iterator@V?$_List_val@U?$_List_simple_types@UmfxFrameAllocResponse@@@std@@@std@@@std@@QEAA?AV01@H@Z DD imagerel $LN6
	DD	imagerel $LN6+143
	DD	imagerel $unwind$??E?$_List_iterator@V?$_List_val@U?$_List_simple_types@UmfxFrameAllocResponse@@@std@@@std@@@std@@QEAA?AV01@H@Z
pdata	ENDS
;	COMDAT pdata
pdata	SEGMENT
$pdata$?dtor$0@?0???E?$_List_iterator@V?$_List_val@U?$_List_simple_types@UmfxFrameAllocResponse@@@std@@@std@@@std@@QEAA?AV01@H@Z@4HA DD imagerel ?dtor$0@?0???E?$_List_iterator@V?$_List_val@U?$_List_simple_types@UmfxFrameAllocResponse@@@std@@@std@@@std@@QEAA?AV01@H@Z@4HA
	DD	imagerel ?dtor$0@?0???E?$_List_iterator@V?$_List_val@U?$_List_simple_types@UmfxFrameAllocResponse@@@std@@@std@@@std@@QEAA?AV01@H@Z@4HA+35
	DD	imagerel $unwind$?dtor$0@?0???E?$_List_iterator@V?$_List_val@U?$_List_simple_types@UmfxFrameAllocResponse@@@std@@@std@@@std@@QEAA?AV01@H@Z@4HA
pdata	ENDS
;	COMDAT pdata
pdata	SEGMENT
$pdata$?dtor$1@?0???E?$_List_iterator@V?$_List_val@U?$_List_simple_types@UmfxFrameAllocResponse@@@std@@@std@@@std@@QEAA?AV01@H@Z@4HA DD imagerel ?dtor$1@?0???E?$_List_iterator@V?$_List_val@U?$_List_simple_types@UmfxFrameAllocResponse@@@std@@@std@@@std@@QEAA?AV01@H@Z@4HA
	DD	imagerel ?dtor$1@?0???E?$_List_iterator@V?$_List_val@U?$_List_simple_types@UmfxFrameAllocResponse@@@std@@@std@@@std@@QEAA?AV01@H@Z@4HA+49
	DD	imagerel $unwind$?dtor$1@?0???E?$_List_iterator@V?$_List_val@U?$_List_simple_types@UmfxFrameAllocResponse@@@std@@@std@@@std@@QEAA?AV01@H@Z@4HA
pdata	ENDS
;	COMDAT pdata
pdata	SEGMENT
$pdata$??F?$_List_iterator@V?$_List_val@U?$_List_simple_types@UmfxFrameAllocResponse@@@std@@@std@@@std@@QEAAAEAV01@XZ DD imagerel $LN3
	DD	imagerel $LN3+51
	DD	imagerel $unwind$??F?$_List_iterator@V?$_List_val@U?$_List_simple_types@UmfxFrameAllocResponse@@@std@@@std@@@std@@QEAAAEAV01@XZ
pdata	ENDS
;	COMDAT pdata
pdata	SEGMENT
$pdata$?_Unwrapped@?$_List_iterator@V?$_List_val@U?$_List_simple_types@UmfxFrameAllocResponse@@@std@@@std@@@std@@QEBA?AV?$_List_unchecked_iterator@V?$_List_val@U?$_List_simple_types@UmfxFrameAllocResponse@@@std@@@std@@@2@XZ DD imagerel $LN3
	DD	imagerel $LN3+78
	DD	imagerel $unwind$?_Unwrapped@?$_List_iterator@V?$_List_val@U?$_List_simple_types@UmfxFrameAllocResponse@@@std@@@std@@@std@@QEBA?AV?$_List_unchecked_iterator@V?$_List_val@U?$_List_simple_types@UmfxFrameAllocResponse@@@std@@@std@@@2@XZ
pdata	ENDS
;	COMDAT pdata
pdata	SEGMENT
$pdata$??1?$_List_iterator@V?$_List_val@U?$_List_simple_types@UmfxFrameAllocResponse@@@std@@@std@@@std@@QEAA@XZ DD imagerel $LN4
	DD	imagerel $LN4+47
	DD	imagerel $unwind$??1?$_List_iterator@V?$_List_val@U?$_List_simple_types@UmfxFrameAllocResponse@@@std@@@std@@@std@@QEAA@XZ
pdata	ENDS
;	COMDAT pdata
pdata	SEGMENT
$pdata$?dtor$0@?0???1?$_List_iterator@V?$_List_val@U?$_List_simple_types@UmfxFrameAllocResponse@@@std@@@std@@@std@@QEAA@XZ@4HA DD imagerel ?dtor$0@?0???1?$_List_iterator@V?$_List_val@U?$_List_simple_types@UmfxFrameAllocResponse@@@std@@@std@@@std@@QEAA@XZ@4HA
	DD	imagerel ?dtor$0@?0???1?$_List_iterator@V?$_List_val@U?$_List_simple_types@UmfxFrameAllocResponse@@@std@@@std@@@std@@QEAA@XZ@4HA+35
	DD	imagerel $unwind$?dtor$0@?0???1?$_List_iterator@V?$_List_val@U?$_List_simple_types@UmfxFrameAllocResponse@@@std@@@std@@@std@@QEAA@XZ@4HA
pdata	ENDS
;	COMDAT pdata
pdata	SEGMENT
$pdata$??0?$_List_iterator@V?$_List_val@U?$_List_simple_types@UmfxFrameAllocResponse@@@std@@@std@@@std@@QEAA@AEBV01@@Z DD imagerel $LN4
	DD	imagerel $LN4+62
	DD	imagerel $unwind$??0?$_List_iterator@V?$_List_val@U?$_List_simple_types@UmfxFrameAllocResponse@@@std@@@std@@@std@@QEAA@AEBV01@@Z
pdata	ENDS
;	COMDAT pdata
pdata	SEGMENT
$pdata$?dtor$0@?0???0?$_List_iterator@V?$_List_val@U?$_List_simple_types@UmfxFrameAllocResponse@@@std@@@std@@@std@@QEAA@AEBV01@@Z@4HA DD imagerel ?dtor$0@?0???0?$_List_iterator@V?$_List_val@U?$_List_simple_types@UmfxFrameAllocResponse@@@std@@@std@@@std@@QEAA@AEBV01@@Z@4HA
	DD	imagerel ?dtor$0@?0???0?$_List_iterator@V?$_List_val@U?$_List_simple_types@UmfxFrameAllocResponse@@@std@@@std@@@std@@QEAA@AEBV01@@Z@4HA+35
	DD	imagerel $unwind$?dtor$0@?0???0?$_List_iterator@V?$_List_val@U?$_List_simple_types@UmfxFrameAllocResponse@@@std@@@std@@@std@@QEAA@AEBV01@@Z@4HA
pdata	ENDS
;	COMDAT pdata
pdata	SEGMENT
$pdata$??0?$_List_iterator@V?$_List_val@U?$_List_simple_types@UmfxFrameAllocResponse@@@std@@@std@@@std@@QEAA@$$QEAV01@@Z DD imagerel $LN4
	DD	imagerel $LN4+62
	DD	imagerel $unwind$??0?$_List_iterator@V?$_List_val@U?$_List_simple_types@UmfxFrameAllocResponse@@@std@@@std@@@std@@QEAA@$$QEAV01@@Z
pdata	ENDS
;	COMDAT pdata
pdata	SEGMENT
$pdata$?dtor$0@?0???0?$_List_iterator@V?$_List_val@U?$_List_simple_types@UmfxFrameAllocResponse@@@std@@@std@@@std@@QEAA@$$QEAV01@@Z@4HA DD imagerel ?dtor$0@?0???0?$_List_iterator@V?$_List_val@U?$_List_simple_types@UmfxFrameAllocResponse@@@std@@@std@@@std@@QEAA@$$QEAV01@@Z@4HA
	DD	imagerel ?dtor$0@?0???0?$_List_iterator@V?$_List_val@U?$_List_simple_types@UmfxFrameAllocResponse@@@std@@@std@@@std@@QEAA@$$QEAV01@@Z@4HA+35
	DD	imagerel $unwind$?dtor$0@?0???0?$_List_iterator@V?$_List_val@U?$_List_simple_types@UmfxFrameAllocResponse@@@std@@@std@@@std@@QEAA@$$QEAV01@@Z@4HA
pdata	ENDS
;	COMDAT pdata
pdata	SEGMENT
$pdata$??$find_if@V?$_List_iterator@V?$_List_val@U?$_List_simple_types@UmfxFrameAllocResponse@@@std@@@std@@@std@@V<lambda_165c5b987e3af5787a0fe9ef2e83e952>@@@std@@YA?AV?$_List_iterator@V?$_List_val@U?$_List_simple_types@UmfxFrameAllocResponse@@@std@@@std@@@0@V10@V10@V<lambda_165c5b987e3af5787a0fe9ef2e83e952>@@@Z DD imagerel ??$find_if@V?$_List_iterator@V?$_List_val@U?$_List_simple_types@UmfxFrameAllocResponse@@@std@@@std@@@std@@V<lambda_165c5b987e3af5787a0fe9ef2e83e952>@@@std@@YA?AV?$_List_iterator@V?$_List_val@U?$_List_simple_types@UmfxFrameAllocResponse@@@std@@@std@@@0@V10@V10@V<lambda_165c5b987e3af5787a0fe9ef2e83e952>@@@Z
	DD	imagerel ??$find_if@V?$_List_iterator@V?$_List_val@U?$_List_simple_types@UmfxFrameAllocResponse@@@std@@@std@@@std@@V<lambda_165c5b987e3af5787a0fe9ef2e83e952>@@@std@@YA?AV?$_List_iterator@V?$_List_val@U?$_List_simple_types@UmfxFrameAllocResponse@@@std@@@std@@@0@V10@V10@V<lambda_165c5b987e3af5787a0fe9ef2e83e952>@@@Z+273
	DD	imagerel $unwind$??$find_if@V?$_List_iterator@V?$_List_val@U?$_List_simple_types@UmfxFrameAllocResponse@@@std@@@std@@@std@@V<lambda_165c5b987e3af5787a0fe9ef2e83e952>@@@std@@YA?AV?$_List_iterator@V?$_List_val@U?$_List_simple_types@UmfxFrameAllocResponse@@@std@@@std@@@0@V10@V10@V<lambda_165c5b987e3af5787a0fe9ef2e83e952>@@@Z
pdata	ENDS
;	COMDAT pdata
pdata	SEGMENT
$pdata$?dtor$0@?0???$find_if@V?$_List_iterator@V?$_List_val@U?$_List_simple_types@UmfxFrameAllocResponse@@@std@@@std@@@std@@V<lambda_165c5b987e3af5787a0fe9ef2e83e952>@@@std@@YA?AV?$_List_iterator@V?$_List_val@U?$_List_simple_types@UmfxFrameAllocResponse@@@std@@@std@@@0@V10@V10@V<lambda_165c5b987e3af5787a0fe9ef2e83e952>@@@Z@4HA DD imagerel ?dtor$0@?0???$find_if@V?$_List_iterator@V?$_List_val@U?$_List_simple_types@UmfxFrameAllocResponse@@@std@@@std@@@std@@V<lambda_165c5b987e3af5787a0fe9ef2e83e952>@@@std@@YA?AV?$_List_iterator@V?$_List_val@U?$_List_simple_types@UmfxFrameAllocResponse@@@std@@@std@@@0@V10@V10@V<lambda_165c5b987e3af5787a0fe9ef2e83e952>@@@Z@4HA
	DD	imagerel ?dtor$0@?0???$find_if@V?$_List_iterator@V?$_List_val@U?$_List_simple_types@UmfxFrameAllocResponse@@@std@@@std@@@std@@V<lambda_165c5b987e3af5787a0fe9ef2e83e952>@@@std@@YA?AV?$_List_iterator@V?$_List_val@U?$_List_simple_types@UmfxFrameAllocResponse@@@std@@@std@@@0@V10@V10@V<lambda_165c5b987e3af5787a0fe9ef2e83e952>@@@Z@4HA+38
	DD	imagerel $unwind$?dtor$0@?0???$find_if@V?$_List_iterator@V?$_List_val@U?$_List_simple_types@UmfxFrameAllocResponse@@@std@@@std@@@std@@V<lambda_165c5b987e3af5787a0fe9ef2e83e952>@@@std@@YA?AV?$_List_iterator@V?$_List_val@U?$_List_simple_types@UmfxFrameAllocResponse@@@std@@@std@@@0@V10@V10@V<lambda_165c5b987e3af5787a0fe9ef2e83e952>@@@Z@4HA
pdata	ENDS
;	COMDAT pdata
pdata	SEGMENT
$pdata$?dtor$1@?0???$find_if@V?$_List_iterator@V?$_List_val@U?$_List_simple_types@UmfxFrameAllocResponse@@@std@@@std@@@std@@V<lambda_165c5b987e3af5787a0fe9ef2e83e952>@@@std@@YA?AV?$_List_iterator@V?$_List_val@U?$_List_simple_types@UmfxFrameAllocResponse@@@std@@@std@@@0@V10@V10@V<lambda_165c5b987e3af5787a0fe9ef2e83e952>@@@Z@4HA DD imagerel ?dtor$1@?0???$find_if@V?$_List_iterator@V?$_List_val@U?$_List_simple_types@UmfxFrameAllocResponse@@@std@@@std@@@std@@V<lambda_165c5b987e3af5787a0fe9ef2e83e952>@@@std@@YA?AV?$_List_iterator@V?$_List_val@U?$_List_simple_types@UmfxFrameAllocResponse@@@std@@@std@@@0@V10@V10@V<lambda_165c5b987e3af5787a0fe9ef2e83e952>@@@Z@4HA
	DD	imagerel ?dtor$1@?0???$find_if@V?$_List_iterator@V?$_List_val@U?$_List_simple_types@UmfxFrameAllocResponse@@@std@@@std@@@std@@V<lambda_165c5b987e3af5787a0fe9ef2e83e952>@@@std@@YA?AV?$_List_iterator@V?$_List_val@U?$_List_simple_types@UmfxFrameAllocResponse@@@std@@@std@@@0@V10@V10@V<lambda_165c5b987e3af5787a0fe9ef2e83e952>@@@Z@4HA+35
	DD	imagerel $unwind$?dtor$1@?0???$find_if@V?$_List_iterator@V?$_List_val@U?$_List_simple_types@UmfxFrameAllocResponse@@@std@@@std@@@std@@V<lambda_165c5b987e3af5787a0fe9ef2e83e952>@@@std@@YA?AV?$_List_iterator@V?$_List_val@U?$_List_simple_types@UmfxFrameAllocResponse@@@std@@@std@@@0@V10@V10@V<lambda_165c5b987e3af5787a0fe9ef2e83e952>@@@Z@4HA
pdata	ENDS
;	COMDAT pdata
pdata	SEGMENT
$pdata$?dtor$2@?0???$find_if@V?$_List_iterator@V?$_List_val@U?$_List_simple_types@UmfxFrameAllocResponse@@@std@@@std@@@std@@V<lambda_165c5b987e3af5787a0fe9ef2e83e952>@@@std@@YA?AV?$_List_iterator@V?$_List_val@U?$_List_simple_types@UmfxFrameAllocResponse@@@std@@@std@@@0@V10@V10@V<lambda_165c5b987e3af5787a0fe9ef2e83e952>@@@Z@4HA DD imagerel ?dtor$2@?0???$find_if@V?$_List_iterator@V?$_List_val@U?$_List_simple_types@UmfxFrameAllocResponse@@@std@@@std@@@std@@V<lambda_165c5b987e3af5787a0fe9ef2e83e952>@@@std@@YA?AV?$_List_iterator@V?$_List_val@U?$_List_simple_types@UmfxFrameAllocResponse@@@std@@@std@@@0@V10@V10@V<lambda_165c5b987e3af5787a0fe9ef2e83e952>@@@Z@4HA
	DD	imagerel ?dtor$2@?0???$find_if@V?$_List_iterator@V?$_List_val@U?$_List_simple_types@UmfxFrameAllocResponse@@@std@@@std@@@std@@V<lambda_165c5b987e3af5787a0fe9ef2e83e952>@@@std@@YA?AV?$_List_iterator@V?$_List_val@U?$_List_simple_types@UmfxFrameAllocResponse@@@std@@@std@@@0@V10@V10@V<lambda_165c5b987e3af5787a0fe9ef2e83e952>@@@Z@4HA+49
	DD	imagerel $unwind$?dtor$2@?0???$find_if@V?$_List_iterator@V?$_List_val@U?$_List_simple_types@UmfxFrameAllocResponse@@@std@@@std@@@std@@V<lambda_165c5b987e3af5787a0fe9ef2e83e952>@@@std@@YA?AV?$_List_iterator@V?$_List_val@U?$_List_simple_types@UmfxFrameAllocResponse@@@std@@@std@@@0@V10@V10@V<lambda_165c5b987e3af5787a0fe9ef2e83e952>@@@Z@4HA
pdata	ENDS
;	COMDAT pdata
pdata	SEGMENT
$pdata$?pointer_to@?$pointer_traits@PEAUUniqueResponse@QSVAllocator@@@std@@SAPEAUUniqueResponse@QSVAllocator@@AEAU34@@Z DD imagerel $LN3
	DD	imagerel $LN3+46
	DD	imagerel $unwind$?pointer_to@?$pointer_traits@PEAUUniqueResponse@QSVAllocator@@@std@@SAPEAUUniqueResponse@QSVAllocator@@AEAU34@@Z
pdata	ENDS
;	COMDAT pdata
pdata	SEGMENT
$pdata$?allocate@?$allocator@U_Container_proxy@std@@@std@@QEAAPEAU_Container_proxy@2@_K@Z DD imagerel $LN3
	DD	imagerel $LN3+59
	DD	imagerel $unwind$?allocate@?$allocator@U_Container_proxy@std@@@std@@QEAAPEAU_Container_proxy@2@_K@Z
pdata	ENDS
;	COMDAT pdata
pdata	SEGMENT
$pdata$??$_Delete_plain_internal@V?$allocator@U_Container_proxy@std@@@std@@@std@@YAXAEAV?$allocator@U_Container_proxy@std@@@0@QEAU_Container_proxy@0@@Z DD imagerel $LN3
	DD	imagerel $LN3+56
	DD	imagerel $unwind$??$_Delete_plain_internal@V?$allocator@U_Container_proxy@std@@@std@@@std@@YAXAEAV?$allocator@U_Container_proxy@std@@@0@QEAU_Container_proxy@0@@Z
pdata	ENDS
;	COMDAT pdata
pdata	SEGMENT
$pdata$??$_Free_non_head@V?$allocator@U?$_List_node@UUniqueResponse@QSVAllocator@@PEAX@std@@@std@@@?$_List_node@UUniqueResponse@QSVAllocator@@PEAX@std@@SAXAEAV?$allocator@U?$_List_node@UUniqueResponse@QSVAllocator@@PEAX@std@@@1@PEAU01@@Z DD imagerel $LN6
	DD	imagerel $LN6+120
	DD	imagerel $unwind$??$_Free_non_head@V?$allocator@U?$_List_node@UUniqueResponse@QSVAllocator@@PEAX@std@@@std@@@?$_List_node@UUniqueResponse@QSVAllocator@@PEAX@std@@SAXAEAV?$allocator@U?$_List_node@UUniqueResponse@QSVAllocator@@PEAX@std@@@1@PEAU01@@Z
pdata	ENDS
;	COMDAT pdata
pdata	SEGMENT
$pdata$??$addressof@V?$_List_val@U?$_List_simple_types@UUniqueResponse@QSVAllocator@@@std@@@std@@@std@@YAPEAV?$_List_val@U?$_List_simple_types@UUniqueResponse@QSVAllocator@@@std@@@0@AEAV10@@Z DD imagerel $LN3
	DD	imagerel $LN3+13
	DD	imagerel $unwind$??$addressof@V?$_List_val@U?$_List_simple_types@UUniqueResponse@QSVAllocator@@@std@@@std@@@std@@YAPEAV?$_List_val@U?$_List_simple_types@UUniqueResponse@QSVAllocator@@@std@@@0@AEAV10@@Z
pdata	ENDS
;	COMDAT pdata
pdata	SEGMENT
$pdata$??$_Freenode@V?$allocator@U?$_List_node@UUniqueResponse@QSVAllocator@@PEAX@std@@@std@@@?$_List_node@UUniqueResponse@QSVAllocator@@PEAX@std@@SAXAEAV?$allocator@U?$_List_node@UUniqueResponse@QSVAllocator@@PEAX@std@@@1@PEAU01@@Z DD imagerel $LN3
	DD	imagerel $LN3+89
	DD	imagerel $unwind$??$_Freenode@V?$allocator@U?$_List_node@UUniqueResponse@QSVAllocator@@PEAX@std@@@std@@@?$_List_node@UUniqueResponse@QSVAllocator@@PEAX@std@@SAXAEAV?$allocator@U?$_List_node@UUniqueResponse@QSVAllocator@@PEAX@std@@@1@PEAU01@@Z
pdata	ENDS
;	COMDAT pdata
pdata	SEGMENT
$pdata$??$?0U?$_List_node@UUniqueResponse@QSVAllocator@@PEAX@std@@@?$allocator@U_Container_proxy@std@@@std@@QEAA@AEBV?$allocator@U?$_List_node@UUniqueResponse@QSVAllocator@@PEAX@std@@@1@@Z DD imagerel $LN3
	DD	imagerel $LN3+18
	DD	imagerel $unwind$??$?0U?$_List_node@UUniqueResponse@QSVAllocator@@PEAX@std@@@?$allocator@U_Container_proxy@std@@@std@@QEAA@AEBV?$allocator@U?$_List_node@UUniqueResponse@QSVAllocator@@PEAX@std@@@1@@Z
pdata	ENDS
;	COMDAT pdata
pdata	SEGMENT
$pdata$??$move@AEAUUniqueResponse@QSVAllocator@@@std@@YA$$QEAUUniqueResponse@QSVAllocator@@AEAU12@@Z DD imagerel $LN3
	DD	imagerel $LN3+13
	DD	imagerel $unwind$??$move@AEAUUniqueResponse@QSVAllocator@@@std@@YA$$QEAUUniqueResponse@QSVAllocator@@AEAU12@@Z
pdata	ENDS
;	COMDAT pdata
pdata	SEGMENT
$pdata$??$_Emplace@UUniqueResponse@QSVAllocator@@@?$list@UUniqueResponse@QSVAllocator@@V?$allocator@UUniqueResponse@QSVAllocator@@@std@@@std@@QEAAPEAU?$_List_node@UUniqueResponse@QSVAllocator@@PEAX@1@QEAU21@$$QEAUUniqueResponse@QSVAllocator@@@Z DD imagerel $LN6
	DD	imagerel $LN6+236
	DD	imagerel $unwind$??$_Emplace@UUniqueResponse@QSVAllocator@@@?$list@UUniqueResponse@QSVAllocator@@V?$allocator@UUniqueResponse@QSVAllocator@@@std@@@std@@QEAAPEAU?$_List_node@UUniqueResponse@QSVAllocator@@PEAX@1@QEAU21@$$QEAUUniqueResponse@QSVAllocator@@@Z
pdata	ENDS
;	COMDAT pdata
pdata	SEGMENT
$pdata$?dtor$0@?0???$_Emplace@UUniqueResponse@QSVAllocator@@@?$list@UUniqueResponse@QSVAllocator@@V?$allocator@UUniqueResponse@QSVAllocator@@@std@@@std@@QEAAPEAU?$_List_node@UUniqueResponse@QSVAllocator@@PEAX@1@QEAU21@$$QEAUUniqueResponse@QSVAllocator@@@Z@4HA DD imagerel ?dtor$0@?0???$_Emplace@UUniqueResponse@QSVAllocator@@@?$list@UUniqueResponse@QSVAllocator@@V?$allocator@UUniqueResponse@QSVAllocator@@@std@@@std@@QEAAPEAU?$_List_node@UUniqueResponse@QSVAllocator@@PEAX@1@QEAU21@$$QEAUUniqueResponse@QSVAllocator@@@Z@4HA
	DD	imagerel ?dtor$0@?0???$_Emplace@UUniqueResponse@QSVAllocator@@@?$list@UUniqueResponse@QSVAllocator@@V?$allocator@UUniqueResponse@QSVAllocator@@@std@@@std@@QEAAPEAU?$_List_node@UUniqueResponse@QSVAllocator@@PEAX@1@QEAU21@$$QEAUUniqueResponse@QSVAllocator@@@Z@4HA+35
	DD	imagerel $unwind$?dtor$0@?0???$_Emplace@UUniqueResponse@QSVAllocator@@@?$list@UUniqueResponse@QSVAllocator@@V?$allocator@UUniqueResponse@QSVAllocator@@@std@@@std@@QEAAPEAU?$_List_node@UUniqueResponse@QSVAllocator@@PEAX@1@QEAU21@$$QEAUUniqueResponse@QSVAllocator@@@Z@4HA
pdata	ENDS
;	COMDAT pdata
pdata	SEGMENT
$pdata$??$?0$$V@?$_Compressed_pair@V?$allocator@U?$_List_node@UUniqueResponse@QSVAllocator@@PEAX@std@@@std@@V?$_List_val@U?$_List_simple_types@UUniqueResponse@QSVAllocator@@@std@@@2@$00@std@@QEAA@U_Zero_then_variadic_args_t@1@@Z DD imagerel $LN3
	DD	imagerel $LN3+68
	DD	imagerel $unwind$??$?0$$V@?$_Compressed_pair@V?$allocator@U?$_List_node@UUniqueResponse@QSVAllocator@@PEAX@std@@@std@@V?$_List_val@U?$_List_simple_types@UUniqueResponse@QSVAllocator@@@std@@@2@$00@std@@QEAA@U_Zero_then_variadic_args_t@1@@Z
pdata	ENDS
;	COMDAT pdata
pdata	SEGMENT
$pdata$??$addressof@V?$_List_val@U?$_List_simple_types@UmfxFrameAllocResponse@@@std@@@std@@@std@@YAPEAV?$_List_val@U?$_List_simple_types@UmfxFrameAllocResponse@@@std@@@0@AEAV10@@Z DD imagerel $LN3
	DD	imagerel $LN3+13
	DD	imagerel $unwind$??$addressof@V?$_List_val@U?$_List_simple_types@UmfxFrameAllocResponse@@@std@@@std@@@std@@YAPEAV?$_List_val@U?$_List_simple_types@UmfxFrameAllocResponse@@@std@@@0@AEAV10@@Z
pdata	ENDS
;	COMDAT pdata
pdata	SEGMENT
$pdata$??$_Freenode@V?$allocator@U?$_List_node@UmfxFrameAllocResponse@@PEAX@std@@@std@@@?$_List_node@UmfxFrameAllocResponse@@PEAX@std@@SAXAEAV?$allocator@U?$_List_node@UmfxFrameAllocResponse@@PEAX@std@@@1@PEAU01@@Z DD imagerel $LN3
	DD	imagerel $LN3+89
	DD	imagerel $unwind$??$_Freenode@V?$allocator@U?$_List_node@UmfxFrameAllocResponse@@PEAX@std@@@std@@@?$_List_node@UmfxFrameAllocResponse@@PEAX@std@@SAXAEAV?$allocator@U?$_List_node@UmfxFrameAllocResponse@@PEAX@std@@@1@PEAU01@@Z
pdata	ENDS
;	COMDAT pdata
pdata	SEGMENT
$pdata$??$?0U?$_List_node@UmfxFrameAllocResponse@@PEAX@std@@@?$allocator@U_Container_proxy@std@@@std@@QEAA@AEBV?$allocator@U?$_List_node@UmfxFrameAllocResponse@@PEAX@std@@@1@@Z DD imagerel $LN3
	DD	imagerel $LN3+18
	DD	imagerel $unwind$??$?0U?$_List_node@UmfxFrameAllocResponse@@PEAX@std@@@?$allocator@U_Container_proxy@std@@@std@@QEAA@AEBV?$allocator@U?$_List_node@UmfxFrameAllocResponse@@PEAX@std@@@1@@Z
pdata	ENDS
;	COMDAT pdata
pdata	SEGMENT
$pdata$??$move@AEAUmfxFrameAllocResponse@@@std@@YA$$QEAUmfxFrameAllocResponse@@AEAU1@@Z DD imagerel $LN3
	DD	imagerel $LN3+13
	DD	imagerel $unwind$??$move@AEAUmfxFrameAllocResponse@@@std@@YA$$QEAUmfxFrameAllocResponse@@AEAU1@@Z
pdata	ENDS
;	COMDAT pdata
pdata	SEGMENT
$pdata$??$_Emplace@UmfxFrameAllocResponse@@@?$list@UmfxFrameAllocResponse@@V?$allocator@UmfxFrameAllocResponse@@@std@@@std@@QEAAPEAU?$_List_node@UmfxFrameAllocResponse@@PEAX@1@QEAU21@$$QEAUmfxFrameAllocResponse@@@Z DD imagerel $LN6
	DD	imagerel $LN6+236
	DD	imagerel $unwind$??$_Emplace@UmfxFrameAllocResponse@@@?$list@UmfxFrameAllocResponse@@V?$allocator@UmfxFrameAllocResponse@@@std@@@std@@QEAAPEAU?$_List_node@UmfxFrameAllocResponse@@PEAX@1@QEAU21@$$QEAUmfxFrameAllocResponse@@@Z
pdata	ENDS
;	COMDAT pdata
pdata	SEGMENT
$pdata$?dtor$0@?0???$_Emplace@UmfxFrameAllocResponse@@@?$list@UmfxFrameAllocResponse@@V?$allocator@UmfxFrameAllocResponse@@@std@@@std@@QEAAPEAU?$_List_node@UmfxFrameAllocResponse@@PEAX@1@QEAU21@$$QEAUmfxFrameAllocResponse@@@Z@4HA DD imagerel ?dtor$0@?0???$_Emplace@UmfxFrameAllocResponse@@@?$list@UmfxFrameAllocResponse@@V?$allocator@UmfxFrameAllocResponse@@@std@@@std@@QEAAPEAU?$_List_node@UmfxFrameAllocResponse@@PEAX@1@QEAU21@$$QEAUmfxFrameAllocResponse@@@Z@4HA
	DD	imagerel ?dtor$0@?0???$_Emplace@UmfxFrameAllocResponse@@@?$list@UmfxFrameAllocResponse@@V?$allocator@UmfxFrameAllocResponse@@@std@@@std@@QEAAPEAU?$_List_node@UmfxFrameAllocResponse@@PEAX@1@QEAU21@$$QEAUmfxFrameAllocResponse@@@Z@4HA+35
	DD	imagerel $unwind$?dtor$0@?0???$_Emplace@UmfxFrameAllocResponse@@@?$list@UmfxFrameAllocResponse@@V?$allocator@UmfxFrameAllocResponse@@@std@@@std@@QEAAPEAU?$_List_node@UmfxFrameAllocResponse@@PEAX@1@QEAU21@$$QEAUmfxFrameAllocResponse@@@Z@4HA
pdata	ENDS
;	COMDAT pdata
pdata	SEGMENT
$pdata$??$?0$$V@?$_Compressed_pair@V?$allocator@U?$_List_node@UmfxFrameAllocResponse@@PEAX@std@@@std@@V?$_List_val@U?$_List_simple_types@UmfxFrameAllocResponse@@@std@@@2@$00@std@@QEAA@U_Zero_then_variadic_args_t@1@@Z DD imagerel $LN3
	DD	imagerel $LN3+68
	DD	imagerel $unwind$??$?0$$V@?$_Compressed_pair@V?$allocator@U?$_List_node@UmfxFrameAllocResponse@@PEAX@std@@@std@@V?$_List_val@U?$_List_simple_types@UmfxFrameAllocResponse@@@std@@@2@$00@std@@QEAA@U_Zero_then_variadic_args_t@1@@Z
pdata	ENDS
;	COMDAT pdata
pdata	SEGMENT
$pdata$??$_Min_value@_K@std@@YAAEB_KAEB_K0@Z DD imagerel $LN5
	DD	imagerel $LN5+94
	DD	imagerel $unwind$??$_Min_value@_K@std@@YAAEB_KAEB_K0@Z
pdata	ENDS
;	COMDAT pdata
pdata	SEGMENT
$pdata$??0?$_Container_proxy_ptr12@V?$allocator@U_Container_proxy@std@@@std@@@std@@QEAA@AEAV?$allocator@U_Container_proxy@std@@@1@AEAU_Container_base12@1@@Z DD imagerel $LN3
	DD	imagerel $LN3+145
	DD	imagerel $unwind$??0?$_Container_proxy_ptr12@V?$allocator@U_Container_proxy@std@@@std@@@std@@QEAA@AEAV?$allocator@U_Container_proxy@std@@@1@AEAU_Container_base12@1@@Z
pdata	ENDS
;	COMDAT pdata
pdata	SEGMENT
$pdata$??1?$_Container_proxy_ptr12@V?$allocator@U_Container_proxy@std@@@std@@@std@@QEAA@XZ DD imagerel $LN4
	DD	imagerel $LN4+69
	DD	imagerel $unwind$??1?$_Container_proxy_ptr12@V?$allocator@U_Container_proxy@std@@@std@@@std@@QEAA@XZ
pdata	ENDS
;	COMDAT pdata
pdata	SEGMENT
$pdata$??$_Unfancy@D@std@@YAPEADPEAD@Z DD imagerel $LN3
	DD	imagerel $LN3+13
	DD	imagerel $unwind$??$_Unfancy@D@std@@YAPEADPEAD@Z
pdata	ENDS
;	COMDAT pdata
pdata	SEGMENT
$pdata$??$?0D@?$allocator@U_Container_proxy@std@@@std@@QEAA@AEBV?$allocator@D@1@@Z DD imagerel $LN3
	DD	imagerel $LN3+18
	DD	imagerel $unwind$??$?0D@?$allocator@U_Container_proxy@std@@@std@@QEAA@AEBV?$allocator@D@1@@Z
pdata	ENDS
;	COMDAT pdata
pdata	SEGMENT
$pdata$??$_Unfancy@U_Container_proxy@std@@@std@@YAPEAU_Container_proxy@0@PEAU10@@Z DD imagerel $LN3
	DD	imagerel $LN3+13
	DD	imagerel $unwind$??$_Unfancy@U_Container_proxy@std@@@std@@YAPEAU_Container_proxy@0@PEAU10@@Z
pdata	ENDS
;	COMDAT pdata
pdata	SEGMENT
$pdata$??$addressof@U_Container_base12@std@@@std@@YAPEAU_Container_base12@0@AEAU10@@Z DD imagerel $LN3
	DD	imagerel $LN3+13
	DD	imagerel $unwind$??$addressof@U_Container_base12@std@@@std@@YAPEAU_Container_base12@0@AEAU10@@Z
pdata	ENDS
;	COMDAT pdata
pdata	SEGMENT
$pdata$??$_Construct_in_place@U_Container_proxy@std@@PEAU_Container_base12@2@@std@@YAXAEAU_Container_proxy@0@$$QEAPEAU_Container_base12@0@@Z DD imagerel $LN3
	DD	imagerel $LN3+92
	DD	imagerel $unwind$??$_Construct_in_place@U_Container_proxy@std@@PEAU_Container_base12@2@@std@@YAXAEAU_Container_proxy@0@$$QEAPEAU_Container_base12@0@@Z
pdata	ENDS
;	COMDAT pdata
pdata	SEGMENT
$pdata$??$addressof@UUniqueResponse@QSVAllocator@@@std@@YAPEAUUniqueResponse@QSVAllocator@@AEAU12@@Z DD imagerel $LN3
	DD	imagerel $LN3+13
	DD	imagerel $unwind$??$addressof@UUniqueResponse@QSVAllocator@@@std@@YAPEAUUniqueResponse@QSVAllocator@@AEAU12@@Z
pdata	ENDS
;	COMDAT pdata
pdata	SEGMENT
$pdata$??$_Construct_in_place@PEAU?$_List_node@UUniqueResponse@QSVAllocator@@PEAX@std@@AEAPEAU12@@std@@YAXAEAPEAU?$_List_node@UUniqueResponse@QSVAllocator@@PEAX@0@0@Z DD imagerel $LN3
	DD	imagerel $LN3+90
	DD	imagerel $unwind$??$_Construct_in_place@PEAU?$_List_node@UUniqueResponse@QSVAllocator@@PEAX@std@@AEAPEAU12@@std@@YAXAEAPEAU?$_List_node@UUniqueResponse@QSVAllocator@@PEAX@0@0@Z
pdata	ENDS
;	COMDAT pdata
pdata	SEGMENT
$pdata$??$_Freenode0@V?$allocator@U?$_List_node@UUniqueResponse@QSVAllocator@@PEAX@std@@@std@@@?$_List_node@UUniqueResponse@QSVAllocator@@PEAX@std@@SAXAEAV?$allocator@U?$_List_node@UUniqueResponse@QSVAllocator@@PEAX@std@@@1@PEAU01@@Z DD imagerel $LN3
	DD	imagerel $LN3+95
	DD	imagerel $unwind$??$_Freenode0@V?$allocator@U?$_List_node@UUniqueResponse@QSVAllocator@@PEAX@std@@@std@@@?$_List_node@UUniqueResponse@QSVAllocator@@PEAX@std@@SAXAEAV?$allocator@U?$_List_node@UUniqueResponse@QSVAllocator@@PEAX@std@@@1@PEAU01@@Z
pdata	ENDS
;	COMDAT pdata
pdata	SEGMENT
$pdata$??$addressof@$$CBV?$_List_val@U?$_List_simple_types@UUniqueResponse@QSVAllocator@@@std@@@std@@@std@@YAPEBV?$_List_val@U?$_List_simple_types@UUniqueResponse@QSVAllocator@@@std@@@0@AEBV10@@Z DD imagerel $LN3
	DD	imagerel $LN3+13
	DD	imagerel $unwind$??$addressof@$$CBV?$_List_val@U?$_List_simple_types@UUniqueResponse@QSVAllocator@@@std@@@std@@@std@@YAPEBV?$_List_val@U?$_List_simple_types@UUniqueResponse@QSVAllocator@@@std@@@0@AEBV10@@Z
pdata	ENDS
;	COMDAT pdata
pdata	SEGMENT
$pdata$??$_Construct_in_place@PEAU?$_List_node@UmfxFrameAllocResponse@@PEAX@std@@AEAPEAU12@@std@@YAXAEAPEAU?$_List_node@UmfxFrameAllocResponse@@PEAX@0@0@Z DD imagerel $LN3
	DD	imagerel $LN3+90
	DD	imagerel $unwind$??$_Construct_in_place@PEAU?$_List_node@UmfxFrameAllocResponse@@PEAX@std@@AEAPEAU12@@std@@YAXAEAPEAU?$_List_node@UmfxFrameAllocResponse@@PEAX@0@0@Z
pdata	ENDS
;	COMDAT pdata
pdata	SEGMENT
$pdata$??$_Free_non_head@V?$allocator@U?$_List_node@UmfxFrameAllocResponse@@PEAX@std@@@std@@@?$_List_node@UmfxFrameAllocResponse@@PEAX@std@@SAXAEAV?$allocator@U?$_List_node@UmfxFrameAllocResponse@@PEAX@std@@@1@PEAU01@@Z DD imagerel $LN6
	DD	imagerel $LN6+120
	DD	imagerel $unwind$??$_Free_non_head@V?$allocator@U?$_List_node@UmfxFrameAllocResponse@@PEAX@std@@@std@@@?$_List_node@UmfxFrameAllocResponse@@PEAX@std@@SAXAEAV?$allocator@U?$_List_node@UmfxFrameAllocResponse@@PEAX@std@@@1@PEAU01@@Z
pdata	ENDS
;	COMDAT pdata
pdata	SEGMENT
$pdata$??$_Freenode0@V?$allocator@U?$_List_node@UmfxFrameAllocResponse@@PEAX@std@@@std@@@?$_List_node@UmfxFrameAllocResponse@@PEAX@std@@SAXAEAV?$allocator@U?$_List_node@UmfxFrameAllocResponse@@PEAX@std@@@1@PEAU01@@Z DD imagerel $LN3
	DD	imagerel $LN3+95
	DD	imagerel $unwind$??$_Freenode0@V?$allocator@U?$_List_node@UmfxFrameAllocResponse@@PEAX@std@@@std@@@?$_List_node@UmfxFrameAllocResponse@@PEAX@std@@SAXAEAV?$allocator@U?$_List_node@UmfxFrameAllocResponse@@PEAX@std@@@1@PEAU01@@Z
pdata	ENDS
;	COMDAT pdata
pdata	SEGMENT
$pdata$??$addressof@$$CBV?$_List_val@U?$_List_simple_types@UmfxFrameAllocResponse@@@std@@@std@@@std@@YAPEBV?$_List_val@U?$_List_simple_types@UmfxFrameAllocResponse@@@std@@@0@AEBV10@@Z DD imagerel $LN3
	DD	imagerel $LN3+13
	DD	imagerel $unwind$??$addressof@$$CBV?$_List_val@U?$_List_simple_types@UmfxFrameAllocResponse@@@std@@@std@@@std@@YAPEBV?$_List_val@U?$_List_simple_types@UmfxFrameAllocResponse@@@std@@@0@AEBV10@@Z
pdata	ENDS
;	COMDAT pdata
pdata	SEGMENT
$pdata$??$_Destroy_in_place@PEAD@std@@YAXAEAPEAD@Z DD imagerel $LN3
	DD	imagerel $LN3+8
	DD	imagerel $unwind$??$_Destroy_in_place@PEAD@std@@YAXAEAPEAD@Z
pdata	ENDS
;	COMDAT pdata
pdata	SEGMENT
$pdata$??$_Allocate@$0BA@U_Default_allocate_traits@std@@$0A@@std@@YAPEAX_K@Z DD imagerel $LN5
	DD	imagerel $LN5+81
	DD	imagerel $unwind$??$_Allocate@$0BA@U_Default_allocate_traits@std@@$0A@@std@@YAPEAX_K@Z
pdata	ENDS
;	COMDAT pdata
pdata	SEGMENT
$pdata$??$_Deallocate@$0BA@$0A@@std@@YAXPEAX_K@Z DD imagerel $LN4
	DD	imagerel $LN4+84
	DD	imagerel $unwind$??$_Deallocate@$0BA@$0A@@std@@YAXPEAX_K@Z
pdata	ENDS
;	COMDAT pdata
pdata	SEGMENT
$pdata$??$_Get_size_of_n@$0BA@@std@@YA_K_K@Z DD imagerel $LN4
	DD	imagerel $LN4+84
	DD	imagerel $unwind$??$_Get_size_of_n@$0BA@@std@@YA_K_K@Z
pdata	ENDS
;	COMDAT pdata
pdata	SEGMENT
$pdata$??$swap@PEAVRGYLog@@X@std@@YAXAEAPEAVRGYLog@@0@Z DD imagerel $LN3
	DD	imagerel $LN3+116
	DD	imagerel $unwind$??$swap@PEAVRGYLog@@X@std@@YAXAEAPEAVRGYLog@@0@Z
pdata	ENDS
;	COMDAT pdata
pdata	SEGMENT
$pdata$??$swap@PEAV_Ref_count_base@std@@X@std@@YAXAEAPEAV_Ref_count_base@0@0@Z DD imagerel $LN3
	DD	imagerel $LN3+116
	DD	imagerel $unwind$??$swap@PEAV_Ref_count_base@std@@X@std@@YAXAEAPEAV_Ref_count_base@0@0@Z
pdata	ENDS
;	COMDAT pdata
pdata	SEGMENT
$pdata$??$_Get_size_of_n@$0EA@@std@@YA_K_K@Z DD imagerel $LN4
	DD	imagerel $LN4+84
	DD	imagerel $unwind$??$_Get_size_of_n@$0EA@@std@@YA_K_K@Z
pdata	ENDS
;	COMDAT pdata
pdata	SEGMENT
$pdata$??$_Get_size_of_n@$0DA@@std@@YA_K_K@Z DD imagerel $LN4
	DD	imagerel $LN4+84
	DD	imagerel $unwind$??$_Get_size_of_n@$0DA@@std@@YA_K_K@Z
pdata	ENDS
;	COMDAT pdata
pdata	SEGMENT
$pdata$??$_Adl_verify_range@V?$_List_iterator@V?$_List_val@U?$_List_simple_types@UUniqueResponse@QSVAllocator@@@std@@@std@@@std@@V12@@std@@YAXAEBV?$_List_iterator@V?$_List_val@U?$_List_simple_types@UUniqueResponse@QSVAllocator@@@std@@@std@@@0@0@Z DD imagerel $LN3
	DD	imagerel $LN3+56
	DD	imagerel $unwind$??$_Adl_verify_range@V?$_List_iterator@V?$_List_val@U?$_List_simple_types@UUniqueResponse@QSVAllocator@@@std@@@std@@@std@@V12@@std@@YAXAEBV?$_List_iterator@V?$_List_val@U?$_List_simple_types@UUniqueResponse@QSVAllocator@@@std@@@std@@@0@0@Z
pdata	ENDS
;	COMDAT pdata
pdata	SEGMENT
$pdata$??0?$_List_unchecked_const_iterator@V?$_List_val@U?$_List_simple_types@UUniqueResponse@QSVAllocator@@@std@@@std@@U_Iterator_base0@2@@std@@QEAA@PEAU?$_List_node@UUniqueResponse@QSVAllocator@@PEAX@1@PEBV?$_List_val@U?$_List_simple_types@UUniqueResponse@QSVAllocator@@@std@@@1@@Z DD imagerel $LN3
	DD	imagerel $LN3+79
	DD	imagerel $unwind$??0?$_List_unchecked_const_iterator@V?$_List_val@U?$_List_simple_types@UUniqueResponse@QSVAllocator@@@std@@@std@@U_Iterator_base0@2@@std@@QEAA@PEAU?$_List_node@UUniqueResponse@QSVAllocator@@PEAX@1@PEBV?$_List_val@U?$_List_simple_types@UUniqueResponse@QSVAllocator@@@std@@@1@@Z
pdata	ENDS
;	COMDAT pdata
pdata	SEGMENT
$pdata$??D?$_List_unchecked_const_iterator@V?$_List_val@U?$_List_simple_types@UUniqueResponse@QSVAllocator@@@std@@@std@@U_Iterator_base0@2@@std@@QEBAAEBUUniqueResponse@QSVAllocator@@XZ DD imagerel $LN3
	DD	imagerel $LN3+20
	DD	imagerel $unwind$??D?$_List_unchecked_const_iterator@V?$_List_val@U?$_List_simple_types@UUniqueResponse@QSVAllocator@@@std@@@std@@U_Iterator_base0@2@@std@@QEBAAEBUUniqueResponse@QSVAllocator@@XZ
pdata	ENDS
;	COMDAT pdata
pdata	SEGMENT
$pdata$??E?$_List_unchecked_const_iterator@V?$_List_val@U?$_List_simple_types@UUniqueResponse@QSVAllocator@@@std@@@std@@U_Iterator_base0@2@@std@@QEAAAEAV01@XZ DD imagerel $LN3
	DD	imagerel $LN3+32
	DD	imagerel $unwind$??E?$_List_unchecked_const_iterator@V?$_List_val@U?$_List_simple_types@UUniqueResponse@QSVAllocator@@@std@@@std@@U_Iterator_base0@2@@std@@QEAAAEAV01@XZ
pdata	ENDS
;	COMDAT pdata
pdata	SEGMENT
$pdata$??8?$_List_unchecked_const_iterator@V?$_List_val@U?$_List_simple_types@UUniqueResponse@QSVAllocator@@@std@@@std@@U_Iterator_base0@2@@std@@QEBA_NAEBV01@@Z DD imagerel $LN5
	DD	imagerel $LN5+79
	DD	imagerel $unwind$??8?$_List_unchecked_const_iterator@V?$_List_val@U?$_List_simple_types@UUniqueResponse@QSVAllocator@@@std@@@std@@U_Iterator_base0@2@@std@@QEBA_NAEBV01@@Z
pdata	ENDS
;	COMDAT pdata
pdata	SEGMENT
$pdata$??9?$_List_unchecked_const_iterator@V?$_List_val@U?$_List_simple_types@UUniqueResponse@QSVAllocator@@@std@@@std@@U_Iterator_base0@2@@std@@QEBA_NAEBV01@@Z DD imagerel $LN5
	DD	imagerel $LN5+86
	DD	imagerel $unwind$??9?$_List_unchecked_const_iterator@V?$_List_val@U?$_List_simple_types@UUniqueResponse@QSVAllocator@@@std@@@std@@U_Iterator_base0@2@@std@@QEBA_NAEBV01@@Z
pdata	ENDS
;	COMDAT pdata
pdata	SEGMENT
$pdata$??0?$_List_unchecked_iterator@V?$_List_val@U?$_List_simple_types@UUniqueResponse@QSVAllocator@@@std@@@std@@@std@@QEAA@PEAU?$_List_node@UUniqueResponse@QSVAllocator@@PEAX@1@PEBV?$_List_val@U?$_List_simple_types@UUniqueResponse@QSVAllocator@@@std@@@1@@Z DD imagerel $LN3
	DD	imagerel $LN3+71
	DD	imagerel $unwind$??0?$_List_unchecked_iterator@V?$_List_val@U?$_List_simple_types@UUniqueResponse@QSVAllocator@@@std@@@std@@@std@@QEAA@PEAU?$_List_node@UUniqueResponse@QSVAllocator@@PEAX@1@PEBV?$_List_val@U?$_List_simple_types@UUniqueResponse@QSVAllocator@@@std@@@1@@Z
pdata	ENDS
;	COMDAT pdata
pdata	SEGMENT
$pdata$??D?$_List_unchecked_iterator@V?$_List_val@U?$_List_simple_types@UUniqueResponse@QSVAllocator@@@std@@@std@@@std@@QEBAAEAUUniqueResponse@QSVAllocator@@XZ DD imagerel $LN3
	DD	imagerel $LN3+46
	DD	imagerel $unwind$??D?$_List_unchecked_iterator@V?$_List_val@U?$_List_simple_types@UUniqueResponse@QSVAllocator@@@std@@@std@@@std@@QEBAAEAUUniqueResponse@QSVAllocator@@XZ
pdata	ENDS
;	COMDAT pdata
pdata	SEGMENT
$pdata$??E?$_List_unchecked_iterator@V?$_List_val@U?$_List_simple_types@UUniqueResponse@QSVAllocator@@@std@@@std@@@std@@QEAAAEAV01@XZ DD imagerel $LN3
	DD	imagerel $LN3+51
	DD	imagerel $unwind$??E?$_List_unchecked_iterator@V?$_List_val@U?$_List_simple_types@UUniqueResponse@QSVAllocator@@@std@@@std@@@std@@QEAAAEAV01@XZ
pdata	ENDS
;	COMDAT pdata
pdata	SEGMENT
$pdata$??$_Get_unwrapped@V?$_List_iterator@V?$_List_val@U?$_List_simple_types@UUniqueResponse@QSVAllocator@@@std@@@std@@@std@@$0A@@std@@YA?AV?$_List_unchecked_iterator@V?$_List_val@U?$_List_simple_types@UUniqueResponse@QSVAllocator@@@std@@@std@@@0@AEBV?$_List_iterator@V?$_List_val@U?$_List_simple_types@UUniqueResponse@QSVAllocator@@@std@@@std@@@0@@Z DD imagerel $LN3
	DD	imagerel $LN3+61
	DD	imagerel $unwind$??$_Get_unwrapped@V?$_List_iterator@V?$_List_val@U?$_List_simple_types@UUniqueResponse@QSVAllocator@@@std@@@std@@@std@@$0A@@std@@YA?AV?$_List_unchecked_iterator@V?$_List_val@U?$_List_simple_types@UUniqueResponse@QSVAllocator@@@std@@@std@@@0@AEBV?$_List_iterator@V?$_List_val@U?$_List_simple_types@UUniqueResponse@QSVAllocator@@@std@@@std@@@0@@Z
pdata	ENDS
;	COMDAT pdata
pdata	SEGMENT
$pdata$??$_Seek_wrapped@V?$_List_iterator@V?$_List_val@U?$_List_simple_types@UUniqueResponse@QSVAllocator@@@std@@@std@@@std@@V?$_List_unchecked_iterator@V?$_List_val@U?$_List_simple_types@UUniqueResponse@QSVAllocator@@@std@@@std@@@2@@std@@YAXAEAV?$_List_iterator@V?$_List_val@U?$_List_simple_types@UUniqueResponse@QSVAllocator@@@std@@@std@@@0@AEBV?$_List_unchecked_iterator@V?$_List_val@U?$_List_simple_types@UUniqueResponse@QSVAllocator@@@std@@@std@@@0@@Z DD imagerel $LN3
	DD	imagerel $LN3+69
	DD	imagerel $unwind$??$_Seek_wrapped@V?$_List_iterator@V?$_List_val@U?$_List_simple_types@UUniqueResponse@QSVAllocator@@@std@@@std@@@std@@V?$_List_unchecked_iterator@V?$_List_val@U?$_List_simple_types@UUniqueResponse@QSVAllocator@@@std@@@std@@@2@@std@@YAXAEAV?$_List_iterator@V?$_List_val@U?$_List_simple_types@UUniqueResponse@QSVAllocator@@@std@@@std@@@0@AEBV?$_List_unchecked_iterator@V?$_List_val@U?$_List_simple_types@UUniqueResponse@QSVAllocator@@@std@@@std@@@0@@Z
pdata	ENDS
;	COMDAT pdata
pdata	SEGMENT
$pdata$??$_Adl_verify_range@V?$_List_iterator@V?$_List_val@U?$_List_simple_types@UmfxFrameAllocResponse@@@std@@@std@@@std@@V12@@std@@YAXAEBV?$_List_iterator@V?$_List_val@U?$_List_simple_types@UmfxFrameAllocResponse@@@std@@@std@@@0@0@Z DD imagerel $LN3
	DD	imagerel $LN3+56
	DD	imagerel $unwind$??$_Adl_verify_range@V?$_List_iterator@V?$_List_val@U?$_List_simple_types@UmfxFrameAllocResponse@@@std@@@std@@@std@@V12@@std@@YAXAEBV?$_List_iterator@V?$_List_val@U?$_List_simple_types@UmfxFrameAllocResponse@@@std@@@std@@@0@0@Z
pdata	ENDS
;	COMDAT pdata
pdata	SEGMENT
$pdata$??0?$_List_unchecked_const_iterator@V?$_List_val@U?$_List_simple_types@UmfxFrameAllocResponse@@@std@@@std@@U_Iterator_base0@2@@std@@QEAA@PEAU?$_List_node@UmfxFrameAllocResponse@@PEAX@1@PEBV?$_List_val@U?$_List_simple_types@UmfxFrameAllocResponse@@@std@@@1@@Z DD imagerel $LN3
	DD	imagerel $LN3+79
	DD	imagerel $unwind$??0?$_List_unchecked_const_iterator@V?$_List_val@U?$_List_simple_types@UmfxFrameAllocResponse@@@std@@@std@@U_Iterator_base0@2@@std@@QEAA@PEAU?$_List_node@UmfxFrameAllocResponse@@PEAX@1@PEBV?$_List_val@U?$_List_simple_types@UmfxFrameAllocResponse@@@std@@@1@@Z
pdata	ENDS
;	COMDAT pdata
pdata	SEGMENT
$pdata$??D?$_List_unchecked_const_iterator@V?$_List_val@U?$_List_simple_types@UmfxFrameAllocResponse@@@std@@@std@@U_Iterator_base0@2@@std@@QEBAAEBUmfxFrameAllocResponse@@XZ DD imagerel $LN3
	DD	imagerel $LN3+20
	DD	imagerel $unwind$??D?$_List_unchecked_const_iterator@V?$_List_val@U?$_List_simple_types@UmfxFrameAllocResponse@@@std@@@std@@U_Iterator_base0@2@@std@@QEBAAEBUmfxFrameAllocResponse@@XZ
pdata	ENDS
;	COMDAT pdata
pdata	SEGMENT
$pdata$??E?$_List_unchecked_const_iterator@V?$_List_val@U?$_List_simple_types@UmfxFrameAllocResponse@@@std@@@std@@U_Iterator_base0@2@@std@@QEAAAEAV01@XZ DD imagerel $LN3
	DD	imagerel $LN3+32
	DD	imagerel $unwind$??E?$_List_unchecked_const_iterator@V?$_List_val@U?$_List_simple_types@UmfxFrameAllocResponse@@@std@@@std@@U_Iterator_base0@2@@std@@QEAAAEAV01@XZ
pdata	ENDS
;	COMDAT pdata
pdata	SEGMENT
$pdata$??8?$_List_unchecked_const_iterator@V?$_List_val@U?$_List_simple_types@UmfxFrameAllocResponse@@@std@@@std@@U_Iterator_base0@2@@std@@QEBA_NAEBV01@@Z DD imagerel $LN5
	DD	imagerel $LN5+79
	DD	imagerel $unwind$??8?$_List_unchecked_const_iterator@V?$_List_val@U?$_List_simple_types@UmfxFrameAllocResponse@@@std@@@std@@U_Iterator_base0@2@@std@@QEBA_NAEBV01@@Z
pdata	ENDS
;	COMDAT pdata
pdata	SEGMENT
$pdata$??9?$_List_unchecked_const_iterator@V?$_List_val@U?$_List_simple_types@UmfxFrameAllocResponse@@@std@@@std@@U_Iterator_base0@2@@std@@QEBA_NAEBV01@@Z DD imagerel $LN5
	DD	imagerel $LN5+86
	DD	imagerel $unwind$??9?$_List_unchecked_const_iterator@V?$_List_val@U?$_List_simple_types@UmfxFrameAllocResponse@@@std@@@std@@U_Iterator_base0@2@@std@@QEBA_NAEBV01@@Z
pdata	ENDS
;	COMDAT pdata
pdata	SEGMENT
$pdata$??0?$_List_unchecked_iterator@V?$_List_val@U?$_List_simple_types@UmfxFrameAllocResponse@@@std@@@std@@@std@@QEAA@PEAU?$_List_node@UmfxFrameAllocResponse@@PEAX@1@PEBV?$_List_val@U?$_List_simple_types@UmfxFrameAllocResponse@@@std@@@1@@Z DD imagerel $LN3
	DD	imagerel $LN3+71
	DD	imagerel $unwind$??0?$_List_unchecked_iterator@V?$_List_val@U?$_List_simple_types@UmfxFrameAllocResponse@@@std@@@std@@@std@@QEAA@PEAU?$_List_node@UmfxFrameAllocResponse@@PEAX@1@PEBV?$_List_val@U?$_List_simple_types@UmfxFrameAllocResponse@@@std@@@1@@Z
pdata	ENDS
;	COMDAT pdata
pdata	SEGMENT
$pdata$??D?$_List_unchecked_iterator@V?$_List_val@U?$_List_simple_types@UmfxFrameAllocResponse@@@std@@@std@@@std@@QEBAAEAUmfxFrameAllocResponse@@XZ DD imagerel $LN3
	DD	imagerel $LN3+46
	DD	imagerel $unwind$??D?$_List_unchecked_iterator@V?$_List_val@U?$_List_simple_types@UmfxFrameAllocResponse@@@std@@@std@@@std@@QEBAAEAUmfxFrameAllocResponse@@XZ
pdata	ENDS
;	COMDAT pdata
pdata	SEGMENT
$pdata$??E?$_List_unchecked_iterator@V?$_List_val@U?$_List_simple_types@UmfxFrameAllocResponse@@@std@@@std@@@std@@QEAAAEAV01@XZ DD imagerel $LN3
	DD	imagerel $LN3+51
	DD	imagerel $unwind$??E?$_List_unchecked_iterator@V?$_List_val@U?$_List_simple_types@UmfxFrameAllocResponse@@@std@@@std@@@std@@QEAAAEAV01@XZ
pdata	ENDS
;	COMDAT pdata
pdata	SEGMENT
$pdata$??$_Get_unwrapped@V?$_List_iterator@V?$_List_val@U?$_List_simple_types@UmfxFrameAllocResponse@@@std@@@std@@@std@@$0A@@std@@YA?AV?$_List_unchecked_iterator@V?$_List_val@U?$_List_simple_types@UmfxFrameAllocResponse@@@std@@@std@@@0@AEBV?$_List_iterator@V?$_List_val@U?$_List_simple_types@UmfxFrameAllocResponse@@@std@@@std@@@0@@Z DD imagerel $LN3
	DD	imagerel $LN3+61
	DD	imagerel $unwind$??$_Get_unwrapped@V?$_List_iterator@V?$_List_val@U?$_List_simple_types@UmfxFrameAllocResponse@@@std@@@std@@@std@@$0A@@std@@YA?AV?$_List_unchecked_iterator@V?$_List_val@U?$_List_simple_types@UmfxFrameAllocResponse@@@std@@@std@@@0@AEBV?$_List_iterator@V?$_List_val@U?$_List_simple_types@UmfxFrameAllocResponse@@@std@@@std@@@0@@Z
pdata	ENDS
;	COMDAT pdata
pdata	SEGMENT
$pdata$??$_Seek_wrapped@V?$_List_iterator@V?$_List_val@U?$_List_simple_types@UmfxFrameAllocResponse@@@std@@@std@@@std@@V?$_List_unchecked_iterator@V?$_List_val@U?$_List_simple_types@UmfxFrameAllocResponse@@@std@@@std@@@2@@std@@YAXAEAV?$_List_iterator@V?$_List_val@U?$_List_simple_types@UmfxFrameAllocResponse@@@std@@@std@@@0@AEBV?$_List_unchecked_iterator@V?$_List_val@U?$_List_simple_types@UmfxFrameAllocResponse@@@std@@@std@@@0@@Z DD imagerel $LN3
	DD	imagerel $LN3+69
	DD	imagerel $unwind$??$_Seek_wrapped@V?$_List_iterator@V?$_List_val@U?$_List_simple_types@UmfxFrameAllocResponse@@@std@@@std@@@std@@V?$_List_unchecked_iterator@V?$_List_val@U?$_List_simple_types@UmfxFrameAllocResponse@@@std@@@std@@@2@@std@@YAXAEAV?$_List_iterator@V?$_List_val@U?$_List_simple_types@UmfxFrameAllocResponse@@@std@@@std@@@0@AEBV?$_List_unchecked_iterator@V?$_List_val@U?$_List_simple_types@UmfxFrameAllocResponse@@@std@@@std@@@0@@Z
pdata	ENDS
;	COMDAT pdata
pdata	SEGMENT
$pdata$??$_Deallocate_plain@V?$allocator@U_Container_proxy@std@@@std@@@std@@YAXAEAV?$allocator@U_Container_proxy@std@@@0@QEAU_Container_proxy@0@@Z DD imagerel $LN3
	DD	imagerel $LN3+63
	DD	imagerel $unwind$??$_Deallocate_plain@V?$allocator@U_Container_proxy@std@@@std@@@std@@YAXAEAV?$allocator@U_Container_proxy@std@@@0@QEAU_Container_proxy@0@@Z
pdata	ENDS
;	COMDAT pdata
pdata	SEGMENT
$pdata$??$destroy@UUniqueResponse@QSVAllocator@@@?$_Default_allocator_traits@V?$allocator@U?$_List_node@UUniqueResponse@QSVAllocator@@PEAX@std@@@std@@@std@@SAXAEAV?$allocator@U?$_List_node@UUniqueResponse@QSVAllocator@@PEAX@std@@@1@QEAUUniqueResponse@QSVAllocator@@@Z DD imagerel $LN3
	DD	imagerel $LN3+13
	DD	imagerel $unwind$??$destroy@UUniqueResponse@QSVAllocator@@@?$_Default_allocator_traits@V?$allocator@U?$_List_node@UUniqueResponse@QSVAllocator@@PEAX@std@@@std@@@std@@SAXAEAV?$allocator@U?$_List_node@UUniqueResponse@QSVAllocator@@PEAX@std@@@1@QEAUUniqueResponse@QSVAllocator@@@Z
pdata	ENDS
;	COMDAT pdata
pdata	SEGMENT
$pdata$??0?$_Alloc_construct_ptr@V?$allocator@U?$_List_node@UUniqueResponse@QSVAllocator@@PEAX@std@@@std@@@std@@QEAA@AEAV?$allocator@U?$_List_node@UUniqueResponse@QSVAllocator@@PEAX@std@@@1@@Z DD imagerel $LN3
	DD	imagerel $LN3+44
	DD	imagerel $unwind$??0?$_Alloc_construct_ptr@V?$allocator@U?$_List_node@UUniqueResponse@QSVAllocator@@PEAX@std@@@std@@@std@@QEAA@AEAV?$allocator@U?$_List_node@UUniqueResponse@QSVAllocator@@PEAX@std@@@1@@Z
pdata	ENDS
;	COMDAT pdata
pdata	SEGMENT
$pdata$?_Allocate@?$_Alloc_construct_ptr@V?$allocator@U?$_List_node@UUniqueResponse@QSVAllocator@@PEAX@std@@@std@@@std@@QEAAXXZ DD imagerel $LN3
	DD	imagerel $LN3+76
	DD	imagerel $unwind$?_Allocate@?$_Alloc_construct_ptr@V?$allocator@U?$_List_node@UUniqueResponse@QSVAllocator@@PEAX@std@@@std@@@std@@QEAAXXZ
pdata	ENDS
;	COMDAT pdata
pdata	SEGMENT
$pdata$??1?$_Alloc_construct_ptr@V?$allocator@U?$_List_node@UUniqueResponse@QSVAllocator@@PEAX@std@@@std@@@std@@QEAA@XZ DD imagerel $LN4
	DD	imagerel $LN4+77
