; Listing generated by Microsoft (R) Optimizing Compiler Version 19.23.28106.4 

include listing.inc

INCLUDELIB MSVCRTD
INCLUDELIB OLDNAMES

PUBLIC	CLSID_Registrar
PUBLIC	IID_IRegistrar
PUBLIC	IID_IDocHostUIHandlerDispatch
PUBLIC	IID_IAxWinHostWindow
PUBLIC	IID_IAxWinHostWindowLic
PUBLIC	IID_IAxWinAmbientDispatch
PUBLIC	IID_IAxWinAmbientDispatchEx
PUBLIC	IID_IInternalConnection
PUBLIC	LIBID_ATLLib
PUBLIC	__pobjMapEntryFirst
PUBLIC	__pobjMapEntryLast
PUBLIC	?_pPerfRegFunc@ATL@@3P6AJPEAUHINSTANCE__@@@ZEA	; ATL::_pPerfRegFunc
PUBLIC	?_pPerfUnRegFunc@ATL@@3P6AJXZEA			; ATL::_pPerfUnRegFunc
PUBLIC	?_AtlRegisterPerUser@ATL@@3_NA			; ATL::_AtlRegisterPerUser
PUBLIC	?_pAtlModule@ATL@@3PEAVCAtlModule@1@EA		; ATL::_pAtlModule
PUBLIC	?_pModule@ATL@@3PEAVCComModule@1@EA		; ATL::_pModule
PUBLIC	?_pAtlAutoThreadModule@ATL@@3PEAUIAtlAutoThreadModule@1@EA ; ATL::_pAtlAutoThreadModule
PUBLIC	?chDirSep@ATL@@3DB				; ATL::chDirSep
PUBLIC	?chRightBracket@ATL@@3DB			; ATL::chRightBracket
PUBLIC	?chLeftBracket@ATL@@3DB				; ATL::chLeftBracket
PUBLIC	?chQuote@ATL@@3DB				; ATL::chQuote
PUBLIC	?chEquals@ATL@@3DB				; ATL::chEquals
PUBLIC	?szStringVal@ATL@@3QEBDEB			; ATL::szStringVal
PUBLIC	?multiszStringVal@ATL@@3QEBDEB			; ATL::multiszStringVal
PUBLIC	?szDwordVal@ATL@@3QEBDEB			; ATL::szDwordVal
PUBLIC	?szBinaryVal@ATL@@3QEBDEB			; ATL::szBinaryVal
PUBLIC	?szValToken@ATL@@3QEBDEB			; ATL::szValToken
PUBLIC	?szForceRemove@ATL@@3QEBDEB			; ATL::szForceRemove
PUBLIC	?szNoRemove@ATL@@3QEBDEB			; ATL::szNoRemove
PUBLIC	?szDelete@ATL@@3QEBDEB				; ATL::szDelete
;	COMDAT ?_pPerfRegFunc@ATL@@3P6AJPEAUHINSTANCE__@@@ZEA
_BSS	SEGMENT
?_pPerfRegFunc@ATL@@3P6AJPEAUHINSTANCE__@@@ZEA DQ 01H DUP (?) ; ATL::_pPerfRegFunc
_BSS	ENDS
;	COMDAT ?_pPerfUnRegFunc@ATL@@3P6AJXZEA
_BSS	SEGMENT
?_pPerfUnRegFunc@ATL@@3P6AJXZEA DQ 01H DUP (?)		; ATL::_pPerfUnRegFunc
_BSS	ENDS
;	COMDAT ?_AtlRegisterPerUser@ATL@@3_NA
_BSS	SEGMENT
?_AtlRegisterPerUser@ATL@@3_NA DB 01H DUP (?)		; ATL::_AtlRegisterPerUser
_BSS	ENDS
;	COMDAT ?_pAtlModule@ATL@@3PEAVCAtlModule@1@EA
_BSS	SEGMENT
?_pAtlModule@ATL@@3PEAVCAtlModule@1@EA DQ 01H DUP (?)	; ATL::_pAtlModule
_BSS	ENDS
;	COMDAT ?_pModule@ATL@@3PEAVCComModule@1@EA
_BSS	SEGMENT
?_pModule@ATL@@3PEAVCComModule@1@EA DQ 01H DUP (?)	; ATL::_pModule
_BSS	ENDS
;	COMDAT ?_pAtlAutoThreadModule@ATL@@3PEAUIAtlAutoThreadModule@1@EA
_BSS	SEGMENT
?_pAtlAutoThreadModule@ATL@@3PEAUIAtlAutoThreadModule@1@EA DQ 01H DUP (?) ; ATL::_pAtlAutoThreadModule
_BSS	ENDS
;	COMDAT ?szDelete@ATL@@3QEBDEB
CONST	SEGMENT
?szDelete@ATL@@3QEBDEB DQ FLAT:$SG144195		; ATL::szDelete
CONST	ENDS
;	COMDAT ?szNoRemove@ATL@@3QEBDEB
CONST	SEGMENT
?szNoRemove@ATL@@3QEBDEB DQ FLAT:$SG144193		; ATL::szNoRemove
CONST	ENDS
;	COMDAT ?szForceRemove@ATL@@3QEBDEB
CONST	SEGMENT
?szForceRemove@ATL@@3QEBDEB DQ FLAT:$SG144191		; ATL::szForceRemove
CONST	ENDS
;	COMDAT ?szValToken@ATL@@3QEBDEB
CONST	SEGMENT
?szValToken@ATL@@3QEBDEB DQ FLAT:$SG144189		; ATL::szValToken
CONST	ENDS
;	COMDAT ?szBinaryVal@ATL@@3QEBDEB
CONST	SEGMENT
?szBinaryVal@ATL@@3QEBDEB DQ FLAT:$SG144187		; ATL::szBinaryVal
CONST	ENDS
;	COMDAT ?szDwordVal@ATL@@3QEBDEB
CONST	SEGMENT
?szDwordVal@ATL@@3QEBDEB DQ FLAT:$SG144185		; ATL::szDwordVal
CONST	ENDS
;	COMDAT ?multiszStringVal@ATL@@3QEBDEB
CONST	SEGMENT
?multiszStringVal@ATL@@3QEBDEB DQ FLAT:$SG144183	; ATL::multiszStringVal
CONST	ENDS
;	COMDAT ?szStringVal@ATL@@3QEBDEB
CONST	SEGMENT
?szStringVal@ATL@@3QEBDEB DQ FLAT:$SG144181		; ATL::szStringVal
CONST	ENDS
;	COMDAT ?chEquals@ATL@@3DB
CONST	SEGMENT
?chEquals@ATL@@3DB DB 03dH				; ATL::chEquals
CONST	ENDS
;	COMDAT ?chQuote@ATL@@3DB
CONST	SEGMENT
?chQuote@ATL@@3DB DB 027H				; ATL::chQuote
CONST	ENDS
;	COMDAT ?chLeftBracket@ATL@@3DB
CONST	SEGMENT
?chLeftBracket@ATL@@3DB DB 07bH				; ATL::chLeftBracket
CONST	ENDS
;	COMDAT ?chRightBracket@ATL@@3DB
CONST	SEGMENT
?chRightBracket@ATL@@3DB DB 07dH			; ATL::chRightBracket
CONST	ENDS
;	COMDAT ?chDirSep@ATL@@3DB
CONST	SEGMENT
?chDirSep@ATL@@3DB DB 05cH				; ATL::chDirSep
CONST	ENDS
;	COMDAT __pobjMapEntryLast
ATL$__z	SEGMENT
__pobjMapEntryLast DQ 0000000000000000H
ATL$__z	ENDS
;	COMDAT __pobjMapEntryFirst
ATL$__a	SEGMENT
__pobjMapEntryFirst DQ 0000000000000000H
ATL$__a	ENDS
;	COMDAT LIBID_ATLLib
CONST	SEGMENT
LIBID_ATLLib DD	044ec0535H
	DW	0400fH
	DW	011d0H
	DB	09dH
	DB	0cdH
	DB	00H
	DB	0a0H
	DB	0c9H
	DB	03H
	DB	091H
	DB	0d3H
CONST	ENDS
;	COMDAT IID_IInternalConnection
CONST	SEGMENT
IID_IInternalConnection DD 072ad0770H
	DW	06a9fH
	DW	011d1H
	DB	0bcH
	DB	0ecH
	DB	00H
	DB	060H
	DB	08H
	DB	08fH
	DB	044H
	DB	04eH
CONST	ENDS
;	COMDAT IID_IAxWinAmbientDispatchEx
CONST	SEGMENT
IID_IAxWinAmbientDispatchEx DD 0b2d0778bH
	DW	0ac99H
	DW	04c58H
	DB	0a5H
	DB	0c8H
	DB	0e7H
	DB	072H
	DB	04eH
	DB	053H
	DB	016H
	DB	0b5H
CONST	ENDS
;	COMDAT IID_IAxWinAmbientDispatch
CONST	SEGMENT
IID_IAxWinAmbientDispatch DD 0b6ea2051H
	DW	048aH
	DW	011d1H
	DB	082H
	DB	0b9H
	DB	00H
	DB	0c0H
	DB	04fH
	DB	0b9H
	DB	094H
	DB	02eH
CONST	ENDS
;	COMDAT IID_IAxWinHostWindowLic
CONST	SEGMENT
IID_IAxWinHostWindowLic DD 03935bda8H
	DW	04ed9H
	DW	0495cH
	DB	086H
	DB	050H
	DB	0e0H
	DB	01fH
	DB	0c1H
	DB	0e3H
	DB	08aH
	DB	04bH
CONST	ENDS
;	COMDAT IID_IAxWinHostWindow
CONST	SEGMENT
IID_IAxWinHostWindow DD 0b6ea2050H
	DW	048aH
	DW	011d1H
	DB	082H
	DB	0b9H
	DB	00H
	DB	0c0H
	DB	04fH
	DB	0b9H
	DB	094H
	DB	02eH
CONST	ENDS
;	COMDAT IID_IDocHostUIHandlerDispatch
CONST	SEGMENT
IID_IDocHostUIHandlerDispatch DD 0425b5af0H
	DW	065f1H
	DW	011d1H
	DB	096H
	DB	011H
	DB	00H
	DB	00H
	DB	0f8H
	DB	01eH
	DB	0dH
	DB	0dH
CONST	ENDS
;	COMDAT IID_IRegistrar
CONST	SEGMENT
IID_IRegistrar DD 044ec053bH
	DW	0400fH
	DW	011d0H
	DB	09dH
	DB	0cdH
	DB	00H
	DB	0a0H
	DB	0c9H
	DB	03H
	DB	091H
	DB	0d3H
CONST	ENDS
;	COMDAT CLSID_Registrar
CONST	SEGMENT
CLSID_Registrar DD 044ec053aH
	DW	0400fH
	DW	011d0H
	DB	09dH
	DB	0cdH
	DB	00H
	DB	0a0H
	DB	0c9H
	DB	03H
	DB	091H
	DB	0d3H
CONST	ENDS
CONST	SEGMENT
$SG188941 DB	'invalid argument', 00H
?piecewise_construct@std@@3Upiecewise_construct_t@1@B	ORG $+1 ; std::piecewise_construct
$SG128982 DB	00H
	ORG $+1
$SG188942 DB	'%s', 00H
	ORG $+1
$SG188946 DB	'"', 00H, 'i', 00H, 'n', 00H, 'v', 00H, 'a', 00H, 'l', 00H
	DB	'i', 00H, 'd', 00H, ' ', 00H, 'a', 00H, 'r', 00H, 'g', 00H, 'u'
	DB	00H, 'm', 00H, 'e', 00H, 'n', 00H, 't', 00H, '"', 00H, 00H, 00H
	ORG $+2
$SG188943 DB	'C:\Program Files (x86)\Microsoft Visual Studio\2019\Comm'
	DB	'unity\VC\Tools\MSVC\14.23.28105\include\xmemory', 00H
$SG132225 DB	'atlTraceRegistrar', 00H
	ORG $+6
$SG188944 DB	'C', 00H, ':', 00H, '\', 00H, 'P', 00H, 'r', 00H, 'o', 00H
	DB	'g', 00H, 'r', 00H, 'a', 00H, 'm', 00H, ' ', 00H, 'F', 00H, 'i'
	DB	00H, 'l', 00H, 'e', 00H, 's', 00H, ' ', 00H, '(', 00H, 'x', 00H
	DB	'8', 00H, '6', 00H, ')', 00H, '\', 00H, 'M', 00H, 'i', 00H, 'c'
	DB	00H, 'r', 00H, 'o', 00H, 's', 00H, 'o', 00H, 'f', 00H, 't', 00H
	DB	' ', 00H, 'V', 00H, 'i', 00H, 's', 00H, 'u', 00H, 'a', 00H, 'l'
	DB	00H, ' ', 00H, 'S', 00H, 't', 00H, 'u', 00H, 'd', 00H, 'i', 00H
	DB	'o', 00H, '\', 00H, '2', 00H, '0', 00H, '1', 00H, '9', 00H, '\'
	DB	00H, 'C', 00H, 'o', 00H, 'm', 00H, 'm', 00H, 'u', 00H, 'n', 00H
	DB	'i', 00H, 't', 00H, 'y', 00H, '\', 00H, 'V', 00H, 'C', 00H, '\'
	DB	00H, 'T', 00H, 'o', 00H, 'o', 00H, 'l', 00H, 's', 00H, '\', 00H
	DB	'M', 00H, 'S', 00H, 'V', 00H, 'C', 00H, '\', 00H, '1', 00H, '4'
	DB	00H, '.', 00H, '2', 00H, '3', 00H, '.', 00H, '2', 00H, '8', 00H
	DB	'1', 00H, '0', 00H, '5', 00H, '\', 00H, 'i', 00H, 'n', 00H, 'c'
	DB	00H, 'l', 00H, 'u', 00H, 'd', 00H, 'e', 00H, '\', 00H, 'x', 00H
	DB	'm', 00H, 'e', 00H, 'm', 00H, 'o', 00H, 'r', 00H, 'y', 00H, 00H
	DB	00H
$SG188945 DB	's', 00H, 't', 00H, 'd', 00H, ':', 00H, ':', 00H, '_', 00H
	DB	'A', 00H, 'l', 00H, 'l', 00H, 'o', 00H, 'c', 00H, 'a', 00H, 't'
	DB	00H, 'e', 00H, '_', 00H, 'm', 00H, 'a', 00H, 'n', 00H, 'u', 00H
	DB	'a', 00H, 'l', 00H, 'l', 00H, 'y', 00H, '_', 00H, 'v', 00H, 'e'
	DB	00H, 'c', 00H, 't', 00H, 'o', 00H, 'r', 00H, '_', 00H, 'a', 00H
	DB	'l', 00H, 'i', 00H, 'g', 00H, 'n', 00H, 'e', 00H, 'd', 00H, 00H
	DB	00H
	ORG $+2
$SG189102 DB	'C:\Program Files (x86)\Microsoft Visual Studio\2019\Comm'
	DB	'unity\VC\Tools\MSVC\14.23.28105\include\xlocale', 00H
$SG132078 DB	'atlTraceGeneral', 00H
$SG132127 DB	'atlTraceCOM', 00H
$SG124544 DB	'vp8', 00H
$SG132176 DB	'atlTraceQI', 00H
	ORG $+1
$SG124545 DB	'raw', 00H
$SG132274 DB	'atlTraceRefcount', 00H
	ORG $+3
$SG124542 DB	'mpeg2', 00H
	ORG $+2
$SG124547 DB	'CBR', 00H
$SG132323 DB	'atlTraceWindowing', 00H
	ORG $+2
$SG124548 DB	'VBR', 00H
$SG132372 DB	'atlTraceControls', 00H
	ORG $+3
$SG124549 DB	'CQP', 00H
$SG132421 DB	'atlTraceHosting', 00H
$SG132470 DB	'atlTraceDBClient', 00H
	ORG $+3
$SG124551 DB	'LA', 00H
	ORG $+1
$SG132519 DB	'atlTraceDBProvider', 00H
	ORG $+1
$SG124555 DB	'ICQ', 00H
$SG132568 DB	'atlTraceSnapin', 00H
	ORG $+1
$SG132617 DB	'atlTraceNotImpl', 00H
$SG132666 DB	'atlTraceAllocation', 00H
	ORG $+1
$SG124557 DB	'VCM', 00H
$SG132715 DB	'atlTraceException', 00H
	ORG $+2
$SG124540 DB	'h264', 00H
	ORG $+3
$SG124541 DB	'hevc', 00H
	ORG $+3
$SG124543 DB	'vc-1', 00H
	ORG $+3
$SG124550 DB	'AVBR', 00H
	ORG $+3
$SG124552 DB	'LA-EXT', 00H
	ORG $+1
$SG124553 DB	'LA-HRD', 00H
	ORG $+1
$SG124554 DB	'LA-ICQ', 00H
	ORG $+1
$SG124556 DB	'QVBR', 00H
	ORG $+3
$SG124559 DB	'auto', 00H
	ORG $+7
?list_avc_profile@@3QBUCX_DESC@@B DQ FLAT:$SG124559	; list_avc_profile
	DD	00H
	ORG $+4
	DQ	FLAT:$SG124560
	DD	042H
	ORG $+4
	DQ	FLAT:$SG124561
	DD	04dH
	ORG $+4
	DQ	FLAT:$SG124562
	DD	064H
	ORG $+4
	DQ	0000000000000000H
	DD	00H
	ORG $+4
$SG124560 DB	'Baseline', 00H
	ORG $+3
$SG124561 DB	'Main', 00H
	ORG $+3
$SG124562 DB	'High', 00H
	ORG $+7
?list_hevc_profile@@3QBUCX_DESC@@B DQ FLAT:$SG124564	; list_hevc_profile
	DD	00H
	ORG $+4
	DQ	FLAT:$SG124565
	DD	01H
	ORG $+4
	DQ	FLAT:$SG124566
	DD	02H
	ORG $+4
	DQ	0000000000000000H
	DD	00H
	ORG $+4
$SG124564 DB	'auto', 00H
	ORG $+3
$SG124565 DB	'main', 00H
	ORG $+3
$SG124566 DB	'main10', 00H
	ORG $+1
$SG124568 DB	'main', 00H
	ORG $+3
$SG124569 DB	'high', 00H
	ORG $+3
$SG124571 DB	'auto', 00H
	ORG $+3
?list_mpeg2_profile@@3QBUCX_DESC@@B DQ FLAT:$SG124571	; list_mpeg2_profile
	DD	00H
	ORG $+4
	DQ	FLAT:$SG124572
	DD	050H
	ORG $+4
	DQ	FLAT:$SG124573
	DD	040H
	ORG $+4
	DQ	FLAT:$SG124574
	DD	010H
	ORG $+4
	DQ	0000000000000000H
	DD	00H
	ORG $+4
$SG132764 DB	'atlTraceTime', 00H
	ORG $+3
$SG124572 DB	'Simple', 00H
	ORG $+1
$SG124573 DB	'Main', 00H
	ORG $+3
$SG124574 DB	'High', 00H
	ORG $+3
$SG124576 DB	'auto', 00H
	ORG $+3
?list_vc1_profile@@3QBUCX_DESC@@B DQ FLAT:$SG124576	; list_vc1_profile
	DD	00H
	ORG $+4
	DQ	FLAT:$SG124577
	DD	01H
	ORG $+4
	DQ	FLAT:$SG124578
	DD	05H
	ORG $+4
	DQ	FLAT:$SG124579
	DD	0dH
	ORG $+4
	DQ	0000000000000000H
	DD	00H
	ORG $+4
$SG124577 DB	'Simple', 00H
	ORG $+1
$SG124578 DB	'Main', 00H
	ORG $+3
$SG124579 DB	'Advanced', 00H
	ORG $+7
?list_vp8_profile@@3QBUCX_DESC@@B DQ FLAT:$SG124581	; list_vp8_profile
	DD	00H
	ORG $+4
	DQ	FLAT:$SG124582
	DD	01H
	ORG $+4
	DQ	FLAT:$SG124583
	DD	02H
	ORG $+4
	DQ	FLAT:$SG124584
	DD	03H
	ORG $+4
	DQ	FLAT:$SG124585
	DD	04H
	ORG $+4
	DQ	0000000000000000H
	DD	00H
	ORG $+4
$SG124581 DB	'auto', 00H
	ORG $+3
$SG124582 DB	'0', 00H
	ORG $+2
$SG124583 DB	'1', 00H
	ORG $+2
$SG124584 DB	'2', 00H
	ORG $+2
$SG124585 DB	'3', 00H
	ORG $+2
$SG124587 DB	'auto', 00H
	ORG $+3
?list_vp9_profile@@3QBUCX_DESC@@B DQ FLAT:$SG124587	; list_vp9_profile
	DD	00H
	ORG $+4
	DQ	FLAT:$SG124588
	DD	01H
	ORG $+4
	DQ	FLAT:$SG124589
	DD	02H
	ORG $+4
	DQ	FLAT:$SG124590
	DD	03H
	ORG $+4
	DQ	FLAT:$SG124591
	DD	04H
	ORG $+4
	DQ	0000000000000000H
	DD	00H
	ORG $+4
$SG124588 DB	'0', 00H
	ORG $+2
$SG124589 DB	'1', 00H
	ORG $+2
$SG124590 DB	'2', 00H
	ORG $+2
$SG124591 DB	'3', 00H
	ORG $+2
$SG124593 DB	'8', 00H
	ORG $+2
$SG124594 DB	'10', 00H
	ORG $+1
$SG124596 DB	'progressive', 00H
$SG124602 DB	'it', 00H
	ORG $+1
$SG124597 DB	'interlaced(tff)', 00H
$SG124598 DB	'interlaced(bff)', 00H
$SG124600 DB	'none', 00H
	ORG $+3
$SG124601 DB	'normal', 00H
	ORG $+1
$SG124603 DB	'bob', 00H
$SG124605 DB	'32', 00H
	ORG $+1
$SG124606 DB	'2332', 00H
	ORG $+3
$SG124607 DB	'repeat', 00H
	ORG $+1
$SG124608 DB	'41', 00H
	ORG $+1
$SG124610 DB	'auto', 00H
	ORG $+7
?list_avc_level@@3QBUCX_DESC@@B DQ FLAT:$SG124610	; list_avc_level
	DD	00H
	ORG $+4
	DQ	FLAT:$SG124611
	DD	0aH
	ORG $+4
	DQ	FLAT:$SG124612
	DD	09H
	ORG $+4
	DQ	FLAT:$SG124613
	DD	0bH
	ORG $+4
	DQ	FLAT:$SG124614
	DD	0cH
	ORG $+4
	DQ	FLAT:$SG124615
	DD	0dH
	ORG $+4
	DQ	FLAT:$SG124616
	DD	014H
	ORG $+4
	DQ	FLAT:$SG124617
	DD	015H
	ORG $+4
	DQ	FLAT:$SG124618
	DD	016H
	ORG $+4
	DQ	FLAT:$SG124619
	DD	01eH
	ORG $+4
	DQ	FLAT:$SG124620
	DD	01fH
	ORG $+4
	DQ	FLAT:$SG124621
	DD	020H
	ORG $+4
	DQ	FLAT:$SG124622
	DD	028H
	ORG $+4
	DQ	FLAT:$SG124623
	DD	029H
	ORG $+4
	DQ	FLAT:$SG124624
	DD	02aH
	ORG $+4
	DQ	FLAT:$SG124625
	DD	032H
	ORG $+4
	DQ	FLAT:$SG124626
	DD	033H
	ORG $+4
	DQ	FLAT:$SG124627
	DD	034H
	ORG $+4
	DQ	0000000000000000H
	DD	00H
	ORG $+4
$SG124611 DB	'1', 00H
	ORG $+2
$SG124612 DB	'1b', 00H
	ORG $+1
$SG124613 DB	'1.1', 00H
$SG124614 DB	'1.2', 00H
$SG124615 DB	'1.3', 00H
$SG124616 DB	'2', 00H
	ORG $+2
$SG124617 DB	'2.1', 00H
$SG124618 DB	'2.2', 00H
$SG124619 DB	'3', 00H
	ORG $+2
$SG124620 DB	'3.1', 00H
$SG132813 DB	'atlTraceCache', 00H
	ORG $+2
$SG124621 DB	'3.2', 00H
$SG124622 DB	'4', 00H
	ORG $+2
$SG124623 DB	'4.1', 00H
$SG124624 DB	'4.2', 00H
$SG124625 DB	'5', 00H
	ORG $+2
$SG124626 DB	'5.1', 00H
$SG124627 DB	'5.2', 00H
$SG124629 DB	'auto', 00H
	ORG $+7
?list_hevc_level@@3QBUCX_DESC@@B DQ FLAT:$SG124629	; list_hevc_level
	DD	00H
	ORG $+4
	DQ	FLAT:$SG124630
	DD	0aH
	ORG $+4
	DQ	FLAT:$SG124631
	DD	014H
	ORG $+4
	DQ	FLAT:$SG124632
	DD	015H
	ORG $+4
	DQ	FLAT:$SG124633
	DD	01eH
	ORG $+4
	DQ	FLAT:$SG124634
	DD	01fH
	ORG $+4
	DQ	FLAT:$SG124635
	DD	028H
	ORG $+4
	DQ	FLAT:$SG124636
	DD	029H
	ORG $+4
	DQ	FLAT:$SG124637
	DD	032H
	ORG $+4
	DQ	FLAT:$SG124638
	DD	033H
	ORG $+4
	DQ	FLAT:$SG124639
	DD	034H
	ORG $+4
	DQ	FLAT:$SG124640
	DD	03cH
	ORG $+4
	DQ	FLAT:$SG124641
	DD	03dH
	ORG $+4
	DQ	FLAT:$SG124642
	DD	03eH
	ORG $+4
	DQ	0000000000000000H
	DD	00H
	ORG $+4
$SG124630 DB	'1', 00H
	ORG $+2
$SG124631 DB	'2', 00H
	ORG $+2
$SG124632 DB	'2.1', 00H
$SG124633 DB	'3', 00H
	ORG $+2
$SG124634 DB	'3.1', 00H
$SG124635 DB	'4', 00H
	ORG $+2
$SG124636 DB	'4.1', 00H
$SG124637 DB	'5', 00H
	ORG $+2
$SG124638 DB	'5.1', 00H
$SG124639 DB	'5.2', 00H
$SG124640 DB	'6', 00H
	ORG $+2
$SG124641 DB	'6.1', 00H
$SG124642 DB	'6.2', 00H
$SG124644 DB	'auto', 00H
	ORG $+7
?list_mpeg2_level@@3QBUCX_DESC@@B DQ FLAT:$SG124644	; list_mpeg2_level
	DD	00H
	ORG $+4
	DQ	FLAT:$SG124645
	DD	0aH
	ORG $+4
	DQ	FLAT:$SG124646
	DD	08H
	ORG $+4
	DQ	FLAT:$SG124647
	DD	04H
	ORG $+4
	DQ	FLAT:$SG124648
	DD	06H
	ORG $+4
	DQ	0000000000000000H
	DD	00H
	ORG $+4
$SG124645 DB	'low', 00H
$SG124646 DB	'main', 00H
	ORG $+3
$SG124647 DB	'high', 00H
	ORG $+3
$SG124651 DB	'low', 00H
$SG124648 DB	'high1440', 00H
	ORG $+3
$SG124650 DB	'auto', 00H
	ORG $+7
?list_vc1_level@@3QBUCX_DESC@@B DQ FLAT:$SG124650	; list_vc1_level
	DD	00H
	ORG $+4
	DQ	FLAT:$SG124651
	DD	01H
	ORG $+4
	DQ	FLAT:$SG124652
	DD	03H
	ORG $+4
	DQ	FLAT:$SG124653
	DD	05H
	ORG $+4
	DQ	0000000000000000H
	DD	00H
	ORG $+4
$SG124652 DB	'median', 00H
	ORG $+1
$SG124653 DB	'high', 00H
	ORG $+3
$SG124655 DB	'auto', 00H
	ORG $+3
$SG124656 DB	'0', 00H
	ORG $+2
$SG124657 DB	'1', 00H
	ORG $+2
$SG124658 DB	'2', 00H
	ORG $+2
$SG124659 DB	'3', 00H
	ORG $+2
$SG124660 DB	'4', 00H
	ORG $+2
$SG124667 DB	'off', 00H
?list_vp8_level@@3QBUCX_DESC@@B DQ FLAT:$SG124662	; list_vp8_level
	DD	00H
	ORG $+4
	DQ	0000000000000000H
	DD	00H
	ORG $+4
$SG124662 DB	'auto', 00H
	ORG $+3
?list_vp9_level@@3QBUCX_DESC@@B DQ FLAT:$SG124664	; list_vp9_level
	DD	00H
	ORG $+4
	DQ	0000000000000000H
	DD	00H
	ORG $+4
$SG124664 DB	'auto', 00H
	ORG $+3
$SG124666 DB	'Auto', 00H
	ORG $+3
$SG124668 DB	'for I frames', 00H
	ORG $+3
$SG124669 DB	'for I,P frames', 00H
	ORG $+1
$SG132862 DB	'atlTraceStencil', 00H
$SG124670 DB	'for All frames', 00H
	ORG $+1
$SG124672 DB	'auto', 00H
	ORG $+3
$SG124673 DB	'off', 00H
$SG124674 DB	'i', 00H
	ORG $+2
$SG124675 DB	'ip', 00H
	ORG $+1
$SG124676 DB	'all', 00H
$SG124677 DB	'ipb', 00H
$SG124678 DB	'ib', 00H
	ORG $+1
$SG124679 DB	'p', 00H
	ORG $+2
$SG124680 DB	'pb', 00H
	ORG $+1
$SG124681 DB	'b', 00H
	ORG $+2
$SG124683 DB	'auto', 00H
	ORG $+3
$SG124684 DB	'slow', 00H
	ORG $+3
$SG124685 DB	'medium', 00H
	ORG $+1
$SG124686 DB	'fast', 00H
	ORG $+3
$SG124689 DB	'0', 00H
	ORG $+2
$SG124688 DB	'default', 00H
$SG124690 DB	'1', 00H
	ORG $+2
$SG124691 DB	'2', 00H
	ORG $+2
$SG124692 DB	'3', 00H
	ORG $+2
$SG124693 DB	'4', 00H
	ORG $+2
?list_priority@@3QBUCX_DESC@@B DQ FLAT:$SG124695	; list_priority
	DD	00H
	ORG $+4
	DQ	FLAT:$SG124696
	DD	01H
	ORG $+4
	DQ	FLAT:$SG124697
	DD	02H
	ORG $+4
$SG124695 DB	'low', 00H
$SG124696 DB	'normal', 00H
	ORG $+1
$SG124697 DB	'high', 00H
	ORG $+3
$SG124709 DB	'none', 00H
	ORG $+3
$SG124710 DB	'copy', 00H
	ORG $+3
$SG124711 DB	'aac', 00H
$SG124712 DB	'libmp3lame', 00H
	ORG $+1
$SG124717 DB	'ac3', 00H
$SG124713 DB	'libtwolame', 00H
	ORG $+1
$SG124748 DB	'tff', 00H
$SG124714 DB	'libvorbis', 00H
	ORG $+2
$SG124749 DB	'bff', 00H
$SG124715 DB	'pcm_s16le', 00H
	ORG $+2
$SG124760 DB	'higher', 00H
	ORG $+1
$SG124774 DB	'8x8', 00H
$SG124716 DB	'libopus', 00H
$SG132911 DB	'atlTraceString', 00H
	ORG $+1
$SG124747 DB	'none', 00H
	ORG $+3
$SG124751 DB	' 1 - best quality', 00H
	ORG $+2
$SG124764 DB	'faster', 00H
	ORG $+1
$SG124775 DB	'4x4', 00H
$SG124752 DB	' 2 - higher', 00H
$SG124778 DB	'16', 00H
	ORG $+1
$SG124753 DB	' 3 - high quality', 00H
	ORG $+2
$SG124779 DB	'32', 00H
	ORG $+1
$SG124754 DB	' 4 - balanced', 00H
	ORG $+2
$SG124755 DB	' 5 - fast', 00H
	ORG $+2
$SG124780 DB	'64', 00H
	ORG $+1
$SG124756 DB	' 6 - faster', 00H
$SG124788 DB	'all', 00H
$SG124757 DB	' 7 - fastest', 00H
	ORG $+3
$SG124759 DB	'best', 00H
	ORG $+3
$SG124761 DB	'high', 00H
	ORG $+3
$SG124762 DB	'balanced', 00H
	ORG $+3
$SG124763 DB	'fast', 00H
	ORG $+3
$SG124770 DB	'Q-pel', 00H
	ORG $+2
$SG124787 DB	'chroma', 00H
	ORG $+1
$SG124792 DB	'box', 00H
$SG124765 DB	'fastest', 00H
$SG124767 DB	'Auto', 00H
	ORG $+3
$SG132960 DB	'atlTraceMap', 00H
$SG124794 DB	'off', 00H
$SG124768 DB	'full-pel', 00H
	ORG $+3
$SG124773 DB	'16x16', 00H
	ORG $+2
$SG124795 DB	'x2', 00H
	ORG $+1
$SG124769 DB	'half-pel', 00H
	ORG $+3
$SG124772 DB	'Auto', 00H
	ORG $+3
$SG124798 DB	'simple', 00H
	ORG $+1
$SG124801 DB	'0', 00H
	ORG $+2
$SG132965 DB	'atlTraceUtil', 00H
	ORG $+3
$SG124777 DB	'auto', 00H
	ORG $+3
$SG124784 DB	'auto', 00H
	ORG $+3
$SG124785 DB	'none', 00H
	ORG $+3
$SG124786 DB	'luma', 00H
	ORG $+3
$SG124790 DB	'none', 00H
	ORG $+3
$SG124791 DB	'upscale', 00H
$SG124796 DB	'x2.5', 00H
	ORG $+3
$SG124799 DB	'complex', 00H
$SG124802 DB	'90', 00H
	ORG $+1
$SG124803 DB	'180', 00H
$SG124804 DB	'270', 00H
$SG124806 DB	'n', 00H
	ORG $+2
$SG124807 DB	'h', 00H
	ORG $+2
$SG124808 DB	'v', 00H
	ORG $+2
$SG124810 DB	'auto', 00H
	ORG $+3
$SG124811 DB	'simple', 00H
	ORG $+1
$SG124812 DB	'fine', 00H
	ORG $+3
$SG124814 DB	'auto', 00H
	ORG $+3
?list_simd@@3QBUCX_DESC@@B DQ FLAT:$SG124814		; list_simd
	DD	0ffffffffH
	ORG $+4
	DQ	FLAT:$SG124815
	DD	00H
	ORG $+4
	DQ	FLAT:$SG124816
	DD	01H
	ORG $+4
	DQ	FLAT:$SG124817
	DD	03H
	ORG $+4
	DQ	FLAT:$SG124818
	DD	07H
	ORG $+4
	DQ	FLAT:$SG124819
	DD	0fH
	ORG $+4
	DQ	FLAT:$SG124820
	DD	05fH
	ORG $+4
	DQ	FLAT:$SG124821
	DD	0dfH
	ORG $+4
	DQ	0000000000000000H
	DD	00H
	ORG $+4
$SG124815 DB	'none', 00H
	ORG $+3
$SG124816 DB	'sse2', 00H
	ORG $+3
$SG124817 DB	'sse3', 00H
	ORG $+3
$SG124818 DB	'ssse3', 00H
	ORG $+2
$SG124819 DB	'sse41', 00H
	ORG $+2
$SG124820 DB	'avx', 00H
$SG124821 DB	'avx2', 00H
	ORG $+3
$SG174635 DB	'normal', 00H
	ORG $+1
$SG159069 DB	'all', 00H
$SG133014 DB	'atlTraceSecurity', 00H
	ORG $+3
$SG159070 DB	'cpu', 00H
$SG133063 DB	'atlTraceSync', 00H
	ORG $+3
$SG133112 DB	'atlTraceISAPI', 00H
	ORG $+2
$SG174634 DB	'auto', 00H
	ORG $+3
$SG159071 DB	'cpu_total', 00H
	ORG $+2
$SG159075 DB	'cpu_in', 00H
	ORG $+1
$SG159080 DB	'mem', 00H
$SG159072 DB	'cpu_kernel', 00H
	ORG $+1
$SG159083 DB	'io', 00H
	ORG $+1
$SG159073 DB	'cpu_main', 00H
	ORG $+3
$SG159086 DB	'fps', 00H
$SG159074 DB	'cpu_enc', 00H
$SG159076 DB	'cpu_aud', 00H
$SG159077 DB	'cpu_aud_proc', 00H
	ORG $+3
$SG159078 DB	'cpu_aud_enc', 00H
$SG159091 DB	'gpu', 00H
$SG159079 DB	'cpu_out', 00H
$SG159081 DB	'mem_private', 00H
$SG110588 DB	'rgb', 00H
$SG159082 DB	'mem_virtual', 00H
$SG110590 DB	'gbr', 00H
$SG159084 DB	'io_read', 00H
$SG159085 DB	'io_write', 00H
	ORG $+3
$SG159098 DB	'queue', 00H
	ORG $+2
$SG110560 DB	'yuv422', 00H
	ORG $+1
$SG110593 DB	'y8', 00H
	ORG $+1
$SG159087 DB	'fps_avg', 00H
$SG159088 DB	'bitrate', 00H
$SG159089 DB	'bitrate_avg', 00H
$SG144181 DB	'S', 00H
	ORG $+2
$SG159090 DB	'frame_out', 00H
	ORG $+2
$SG110562 DB	'yuv444', 00H
	ORG $+1
$SG144183 DB	'M', 00H
	ORG $+2
$SG159092 DB	'gpu_load', 00H
	ORG $+3
$SG110582 DB	'rgb24r', 00H
	ORG $+1
$SG144185 DB	'D', 00H
	ORG $+2
$SG159093 DB	'gpu_clock', 00H
	ORG $+2
$SG110583 DB	'rgb32r', 00H
	ORG $+1
$SG144187 DB	'B', 00H
	ORG $+2
$SG159094 DB	'vee_load', 00H
	ORG $+3
$SG110584 DB	'rgb24', 00H
	ORG $+2
$SG144189 DB	'Val', 00H
$SG159095 DB	'ved_load', 00H
	ORG $+3
$SG110585 DB	'rgb32', 00H
	ORG $+2
$SG144195 DB	'Delete', 00H
	ORG $+1
$SG111538 DB	'VP8', 00H
$SG159096 DB	'pcie_load', 00H
	ORG $+2
$SG111540 DB	'VP9', 00H
$SG159097 DB	've_clock', 00H
	ORG $+3
$SG110586 DB	'bgr24', 00H
	ORG $+2
$SG119862 DB	'.', 0aH, 00H
	ORG $+1
$SG110556 DB	'Invalid', 00H
$SG110557 DB	'nv12', 00H
	ORG $+3
$SG110558 DB	'yv12', 00H
	ORG $+3
$SG110559 DB	'yuy2', 00H
	ORG $+3
$SG110561 DB	'nv16', 00H
	ORG $+3
$SG110563 DB	'yv12(9bit)', 00H
	ORG $+1
$SG120165 DB	'srt', 00H
$SG110564 DB	'yv12(10bit)', 00H
$SG120166 DB	'ass', 00H
$SG110565 DB	'yv12(12bit)', 00H
$SG120175 DB	'box', 00H
$SG110566 DB	'yv12(14bit)', 00H
$SG112151 DB	'fcc', 00H
$SG110567 DB	'yv12(16bit)', 00H
$SG110568 DB	'p010', 00H
	ORG $+3
$SG110587 DB	'bgr32', 00H
	ORG $+2
$SG112152 DB	'GBR', 00H
$SG110569 DB	'yuv422(9bit)', 00H
	ORG $+3
$SG110570 DB	'yuv422(10bit)', 00H
	ORG $+2
$SG110571 DB	'yuv422(12bit)', 00H
	ORG $+2
$SG110572 DB	'yuv422(14bit)', 00H
	ORG $+2
$SG110573 DB	'yuv422(16bit)', 00H
	ORG $+2
$SG110574 DB	'p210', 00H
	ORG $+3
$SG110575 DB	'yuv444(9bit)', 00H
	ORG $+3
$SG110576 DB	'yuv444(10bit)', 00H
	ORG $+2
$SG110577 DB	'yuv444(12bit)', 00H
	ORG $+2
$SG110578 DB	'yuv444(14bit)', 00H
	ORG $+2
$SG110579 DB	'yuv444(16bit)', 00H
	ORG $+2
$SG110580 DB	'yuva444', 00H
$SG110581 DB	'yuva444(16bit)', 00H
	ORG $+1
$SG110589 DB	'rgba', 00H
	ORG $+3
$SG110591 DB	'gbra', 00H
	ORG $+3
$SG110592 DB	'yc48', 00H
	ORG $+3
$SG110594 DB	'yc16', 00H
	ORG $+3
$SG144191 DB	'ForceRemove', 00H
$SG144975 DB	'SAM', 00H
$SG144193 DB	'NoRemove', 00H
	ORG $+3
$SG111530 DB	'MPEG2', 00H
	ORG $+2
$SG144977 DB	'SYSTEM', 00H
	ORG $+1
$SG112465 DB	'pal', 00H
$SG111526 DB	'H.264/AVC', 00H
	ORG $+2
$SG112303 DB	'bt470m', 00H
	ORG $+1
$SG112467 DB	'mac', 00H
?HW_DECODE_LIST@@3QBUCodecMap@@B DD 01bH		; HW_DECODE_LIST
	DD	01H
	DD	0adH
	DD	02H
	DD	02H
	DD	04H
	DD	08bH
	DD	06H
	DD	0a7H
	DD	07H
	DD	046H
	DD	08H
$SG111528 DB	'H.265/HEVC', 00H
	ORG $+1
$SG111532 DB	'MPEG1', 00H
	ORG $+2
$SG111534 DB	'VC-1', 00H
	ORG $+3
$SG111536 DB	'MPEG4', 00H
	ORG $+2
$SG112306 DB	'linear', 00H
	ORG $+1
$SG112469 DB	'0', 00H
	ORG $+2
$SG111542 DB	'unknown', 00H
$SG119736 DB	'auto', 00H
	ORG $+3
$SG119738 DB	'copy', 00H
	ORG $+3
$SG111649 DB	'unknown', 00H
$SG119863 DB	' for ', 00H
	ORG $+2
$SG119866 DB	'avcodec-58.dll', 00H
	ORG $+1
$SG119867 DB	'avformat-58.dll', 00H
$SG119868 DB	'avutil-56.dll', 00H
	ORG $+2
$SG119869 DB	'avfilter-7.dll', 00H
	ORG $+1
$SG119870 DB	'swresample-3.dll', 00H
	ORG $+3
$SG120174 DB	'kigou', 00H
	ORG $+2
$SG112307 DB	'log100', 00H
	ORG $+1
$SG112470 DB	'1', 00H
	ORG $+2
$SG120164 DB	'invalid', 00H
$SG120173 DB	'invalid', 00H
$SG120176 DB	'draw', 00H
	ORG $+3
$SG112144 DB	'undef', 00H
	ORG $+2
?list_colormatrix@@3QBUCX_DESC@@B DQ FLAT:$SG112144	; list_colormatrix
	DD	02H
	ORG $+4
	DQ	FLAT:$SG112145
	DD	07fffffffH
	ORG $+4
	DQ	FLAT:$SG112146
	DD	01H
	ORG $+4
	DQ	FLAT:$SG112147
	DD	06H
	ORG $+4
	DQ	FLAT:$SG112148
	DD	05H
	ORG $+4
	DQ	FLAT:$SG112149
	DD	07H
	ORG $+4
	DQ	FLAT:$SG112150
	DD	08H
	ORG $+4
	DQ	FLAT:$SG112151
	DD	04H
	ORG $+4
	DQ	FLAT:$SG112152
	DD	00H
	ORG $+4
	DQ	FLAT:$SG112153
	DD	09H
	ORG $+4
	DQ	FLAT:$SG112154
	DD	0aH
	ORG $+4
	DQ	FLAT:$SG112155
	DD	0cH
	ORG $+4
	DQ	FLAT:$SG112156
	DD	0dH
	ORG $+4
	DQ	FLAT:$SG112157
	DD	0eH
	ORG $+4
	DQ	FLAT:$SG112158
	DD	0fH
	ORG $+4
	DQ	0000000000000000H
	DD	00H
	ORG $+4
$SG112145 DB	'auto', 00H
	ORG $+3
$SG112146 DB	'bt709', 00H
	ORG $+2
$SG112147 DB	'smpte170m', 00H
	ORG $+2
$SG112308 DB	'log316', 00H
	ORG $+1
$SG112471 DB	'2', 00H
	ORG $+2
$SG112148 DB	'bt470bg', 00H
$SG112149 DB	'smpte240m', 00H
	ORG $+2
$SG112150 DB	'YCgCo', 00H
	ORG $+2
$SG112452 DB	'bt470m', 00H
	ORG $+1
$SG112472 DB	'3', 00H
	ORG $+2
$SG112153 DB	'bt2020nc', 00H
	ORG $+3
$SG112157 DB	'ictco', 00H
	ORG $+2
$SG112456 DB	'bt2020', 00H
	ORG $+1
$SG112473 DB	'4', 00H
	ORG $+2
$SG112154 DB	'bt2020c', 00H
$SG112155 DB	'derived-ncl', 00H
$SG112474 DB	'5', 00H
	ORG $+2
$SG112156 DB	'derived-cl', 00H
	ORG $+1
$SG112478 DB	'tv', 00H
	ORG $+1
$SG112158 DB	'2100-lms', 00H
	ORG $+3
$SG144968 DB	'AppID', 00H
	ORG $+2
$SG144969 DB	'CLSID', 00H
	ORG $+2
$SG112479 DB	'pc', 00H
	ORG $+1
$SG144970 DB	'Component Categories', 00H
	ORG $+3
$SG144971 DB	'FileType', 00H
	ORG $+3
$SG112299 DB	'undef', 00H
	ORG $+2
$SG113568 DB	'cfr', 00H
$SG144972 DB	'Interface', 00H
	ORG $+2
$SG113569 DB	'vfr', 00H
$SG144973 DB	'Hardware', 00H
	ORG $+3
$SG144974 DB	'Mime', 00H
	ORG $+3
$SG112301 DB	'bt709', 00H
	ORG $+2
$SG113572 DB	'swr', 00H
$SG144976 DB	'SECURITY', 00H
	ORG $+3
$SG112448 DB	'undef', 00H
	ORG $+2
$SG114198 DB	'%s', 00H
	ORG $+1
$SG144978 DB	'Software', 00H
	ORG $+3
$SG112450 DB	'bt709', 00H
	ORG $+6
$SG144979 DB	'TypeLib', 00H
?list_transfer@@3QBUCX_DESC@@B DQ FLAT:$SG112299	; list_transfer
	DD	02H
	ORG $+4
	DQ	FLAT:$SG112300
	DD	07fffffffH
	ORG $+4
	DQ	FLAT:$SG112301
	DD	01H
	ORG $+4
	DQ	FLAT:$SG112302
	DD	06H
	ORG $+4
	DQ	FLAT:$SG112303
	DD	04H
	ORG $+4
	DQ	FLAT:$SG112304
	DD	05H
	ORG $+4
	DQ	FLAT:$SG112305
	DD	07H
	ORG $+4
	DQ	FLAT:$SG112306
	DD	08H
	ORG $+4
	DQ	FLAT:$SG112307
	DD	09H
	ORG $+4
	DQ	FLAT:$SG112308
	DD	0aH
	ORG $+4
	DQ	FLAT:$SG112309
	DD	0bH
	ORG $+4
	DQ	FLAT:$SG112310
	DD	0cH
	ORG $+4
	DQ	FLAT:$SG112311
	DD	0dH
	ORG $+4
	DQ	FLAT:$SG112312
	DD	0eH
	ORG $+4
	DQ	FLAT:$SG112313
	DD	0fH
	ORG $+4
	DQ	FLAT:$SG112314
	DD	010H
	ORG $+4
	DQ	FLAT:$SG112315
	DD	011H
	ORG $+4
	DQ	FLAT:$SG112316
	DD	012H
	ORG $+4
	DQ	0000000000000000H
	DD	00H
	ORG $+4
$SG112300 DB	'auto', 00H
	ORG $+3
$SG112302 DB	'smpte170m', 00H
	ORG $+6
$SG112304 DB	'bt470bg', 00H
$SG112305 DB	'smpte240m', 00H
	ORG $+6
$SG112309 DB	'iec61966-2-4', 00H
	ORG $+3
$SG112310 DB	'bt1361e', 00H
$SG112311 DB	'iec61966-2-1', 00H
	ORG $+3
$SG112312 DB	'bt2020-10', 00H
	ORG $+6
$SG112313 DB	'bt2020-12', 00H
	ORG $+6
$SG112314 DB	'smpte2084', 00H
	ORG $+6
$SG112315 DB	'smpte428', 00H
	ORG $+7
$SG112316 DB	'arib-srd-b67', 00H
	ORG $+3
$SG112449 DB	'auto', 00H
	ORG $+3
?list_colorprim@@3QBUCX_DESC@@B DQ FLAT:$SG112448	; list_colorprim
	DD	02H
	ORG $+4
	DQ	FLAT:$SG112449
	DD	07fffffffH
	ORG $+4
	DQ	FLAT:$SG112450
	DD	01H
	ORG $+4
	DQ	FLAT:$SG112451
	DD	06H
	ORG $+4
	DQ	FLAT:$SG112452
	DD	04H
	ORG $+4
	DQ	FLAT:$SG112453
	DD	05H
	ORG $+4
	DQ	FLAT:$SG112454
	DD	07H
	ORG $+4
	DQ	FLAT:$SG112455
	DD	08H
	ORG $+4
	DQ	FLAT:$SG112456
	DD	09H
	ORG $+4
	DQ	FLAT:$SG112457
	DD	0aH
	ORG $+4
	DQ	FLAT:$SG112458
	DD	0bH
	ORG $+4
	DQ	FLAT:$SG112459
	DD	0cH
	ORG $+4
	DQ	FLAT:$SG112460
	DD	0dH
	ORG $+4
	DQ	0000000000000000H
	DD	00H
	ORG $+4
$SG112451 DB	'smpte170m', 00H
	ORG $+6
$SG112453 DB	'bt470bg', 00H
$SG112454 DB	'smpte240m', 00H
	ORG $+2
$SG112455 DB	'film', 00H
	ORG $+3
$SG112457 DB	'st428', 00H
	ORG $+6
$SG112458 DB	'st431-2', 00H
$SG112459 DB	'st432-1', 00H
$SG112460 DB	'ebu3213-e', 00H
	ORG $+2
$SG112462 DB	'undef', 00H
	ORG $+6
?list_videoformat@@3QBUCX_DESC@@B DQ FLAT:$SG112462	; list_videoformat
	DD	05H
	ORG $+4
	DQ	FLAT:$SG112463
	DD	02H
	ORG $+4
	DQ	FLAT:$SG112464
	DD	00H
	ORG $+4
	DQ	FLAT:$SG112465
	DD	01H
	ORG $+4
	DQ	FLAT:$SG112466
	DD	03H
	ORG $+4
	DQ	FLAT:$SG112467
	DD	04H
	ORG $+4
	DQ	0000000000000000H
	DD	00H
	ORG $+4
$SG112463 DB	'ntsc', 00H
	ORG $+3
$SG112464 DB	'component', 00H
	ORG $+2
$SG112466 DB	'secam', 00H
	ORG $+6
$SG112476 DB	'limited', 00H
$SG112477 DB	'full', 00H
	ORG $+3
$SG128983 DB	'SandyBridge', 00H
	ORG $+4
$SG128984 DB	'IvyBridge', 00H
	ORG $+6
$SG128985 DB	'Silvermont', 00H
	ORG $+5
$SG128986 DB	'Haswell', 00H
$SG128987 DB	'Airmont', 00H
$SG128988 DB	'Broadwell', 00H
	ORG $+6
$SG128989 DB	'Skylake', 00H
$SG128990 DB	'Apollolake', 00H
	ORG $+5
$SG128991 DB	'Kabylake', 00H
	ORG $+7
$SG128992 DB	'Geminilake', 00H
	ORG $+5
$SG128993 DB	'Coffeelake', 00H
	ORG $+5
$SG128994 DB	'Cannonlake', 00H
	ORG $+5
$SG128995 DB	'Icelake', 00H
?LIB_VER_LIST@@3QBTmfxVersion@@B DW 00H			; LIB_VER_LIST
	DW	00H
	DW	00H
	DW	01H
	DW	01H
	DW	01H
	DW	03H
	DW	01H
	DW	04H
	DW	01H
	DW	06H
	DW	01H
	DW	07H
	DW	01H
	DW	08H
	DW	01H
	DW	09H
	DW	01H
	DW	0aH
	DW	01H
	DW	0bH
	DW	01H
	DW	0dH
	DW	01H
	DW	0fH
	DW	01H
	DW	010H
	DW	01H
	DW	011H
	DW	01H
	DW	013H
	DW	01H
	DW	017H
	DW	01H
	DW	01aH
	DW	01H
	DW	01bH
	DW	01H
	DW	00H
	DW	00H
$SG129084 DB	'CBR  ', 00H
	ORG $+2
$SG129085 DB	'VBR  ', 00H
	ORG $+2
$SG129086 DB	'AVBR ', 00H
	ORG $+2
$SG129087 DB	'QVBR ', 00H
	ORG $+2
$SG129088 DB	'CQP  ', 00H
	ORG $+2
$SG129089 DB	'LA   ', 00H
	ORG $+2
$SG129090 DB	'LAHRD', 00H
	ORG $+2
$SG129091 DB	'ICQ  ', 00H
	ORG $+2
$SG129092 DB	'LAICQ', 00H
	ORG $+2
$SG129093 DB	'VCM  ', 00H
	ORG $+2
$SG129095 DB	'RC mode      ', 00H
	ORG $+2
$SG129096 DB	'10bit depth  ', 00H
	ORG $+2
$SG129097 DB	'Fixed Func   ', 00H
	ORG $+2
$SG129098 DB	'Interlace    ', 00H
	ORG $+2
$SG129099 DB	'VUI info     ', 00H
	ORG $+2
$SG129100 DB	'Trellis      ', 00H
	ORG $+2
$SG129101 DB	'Adaptive_I   ', 00H
	ORG $+2
$SG129102 DB	'Adaptive_B   ', 00H
	ORG $+2
$SG129103 DB	'WeightP      ', 00H
	ORG $+2
$SG129104 DB	'WeightB      ', 00H
	ORG $+2
$SG129105 DB	'FadeDetect   ', 00H
	ORG $+2
$SG129106 DB	'B_Pyramid    ', 00H
	ORG $+2
$SG129107 DB	' +ManyBframes', 00H
	ORG $+2
$SG129108 DB	'PyramQPOffset', 00H
	ORG $+2
$SG129109 DB	'MBBRC        ', 00H
	ORG $+2
$SG129110 DB	'ExtBRC       ', 00H
	ORG $+2
$SG129111 DB	'Adaptive_LTR ', 00H
	ORG $+2
$SG129112 DB	'LA Quality   ', 00H
	ORG $+2
$SG129113 DB	'QP Min/Max   ', 00H
	ORG $+2
$SG129114 DB	'IntraRefresh ', 00H
	ORG $+2
$SG129115 DB	'No Deblock   ', 00H
	ORG $+2
$SG129116 DB	'No GPB       ', 00H
	ORG $+2
$SG129117 DB	'Windowed BRC ', 00H
	ORG $+2
$SG129118 DB	'PerMBQP(CQP) ', 00H
	ORG $+2
$SG129119 DB	'DirectBiasAdj', 00H
	ORG $+2
$SG129120 DB	'MVCostScaling', 00H
	ORG $+2
$SG129121 DB	'SAO          ', 00H
	ORG $+2
$SG129122 DB	'Max CTU Size ', 00H
	ORG $+2
$SG129123 DB	'TSkip        ', 00H
	ORG $+2
$SG129125 DB	'Resize               ', 00H
	ORG $+2
$SG129126 DB	'Deinterlace          ', 00H
	ORG $+2
$SG129127 DB	'Scaling Quality      ', 00H
	ORG $+2
$SG129128 DB	'Denoise              ', 00H
	ORG $+2
$SG129129 DB	'Mctf                 ', 00H
	ORG $+2
$SG129130 DB	'Rotate               ', 00H
	ORG $+2
$SG129131 DB	'Mirror               ', 00H
	ORG $+2
$SG129132 DB	'Detail Enhancement   ', 00H
	ORG $+2
$SG129133 DB	'Proc Amp.            ', 00H
	ORG $+2
$SG129134 DB	'Image Stabilization  ', 00H
	ORG $+2
$SG129135 DB	'Video Signal Info    ', 00H
	ORG $+2
$SG129136 DB	'FPS Conversion       ', 00H
	ORG $+2
$SG129137 DB	'FPS Conversion (Adv.)', 00H
	ORG $+2
$SG146186 DB	'l', 00H, 'p', 00H, 's', 00H, 'z', 00H, 'P', 00H, 'a', 00H
	DB	't', 00H, 'h', 00H, 'N', 00H, 'a', 00H, 'm', 00H, 'e', 00H, ' '
	DB	00H, '!', 00H, '=', 00H, ' ', 00H, '0', 00H, 00H, 00H
	ORG $+4
$SG146187 DB	'%', 00H, 'l', 00H, 's', 00H, 00H, 00H
$SG113561 DB	'trace', 00H
	ORG $+2
$SG146188 DB	'C', 00H, ':', 00H, '\', 00H, 'P', 00H, 'r', 00H, 'o', 00H
	DB	'g', 00H, 'r', 00H, 'a', 00H, 'm', 00H, ' ', 00H, 'F', 00H, 'i'
	DB	00H, 'l', 00H, 'e', 00H, 's', 00H, ' ', 00H, '(', 00H, 'x', 00H
	DB	'8', 00H, '6', 00H, ')', 00H, '\', 00H, 'M', 00H, 'i', 00H, 'c'
	DB	00H, 'r', 00H, 'o', 00H, 's', 00H, 'o', 00H, 'f', 00H, 't', 00H
	DB	' ', 00H, 'V', 00H, 'i', 00H, 's', 00H, 'u', 00H, 'a', 00H, 'l'
	DB	00H, ' ', 00H, 'S', 00H, 't', 00H, 'u', 00H, 'd', 00H, 'i', 00H
	DB	'o', 00H, '\', 00H, '2', 00H, '0', 00H, '1', 00H, '9', 00H, '\'
	DB	00H, 'C', 00H, 'o', 00H, 'm', 00H, 'm', 00H, 'u', 00H, 'n', 00H
	DB	'i', 00H, 't', 00H, 'y', 00H, '\', 00H, 'V', 00H, 'C', 00H, '\'
	DB	00H, 'T', 00H, 'o', 00H, 'o', 00H, 'l', 00H, 's', 00H, '\', 00H
	DB	'M', 00H, 'S', 00H, 'V', 00H, 'C', 00H, '\', 00H, '1', 00H, '4'
	DB	00H, '.', 00H, '2', 00H, '3', 00H, '.', 00H, '2', 00H, '8', 00H
	DB	'1', 00H, '0', 00H, '5', 00H, '\', 00H, 'a', 00H, 't', 00H, 'l'
	DB	00H, 'm', 00H, 'f', 00H, 'c', 00H, '\', 00H, 'i', 00H, 'n', 00H
	DB	'c', 00H, 'l', 00H, 'u', 00H, 'd', 00H, 'e', 00H, '\', 00H, 'a'
	DB	00H, 't', 00H, 'l', 00H, 'b', 00H, 'a', 00H, 's', 00H, 'e', 00H
	DB	'.', 00H, 'h', 00H, 00H, 00H
	ORG $+6
?list_empty@@3QBUCX_DESC@@B DQ 0000000000000000H	; list_empty
	DD	00H
	ORG $+4
$SG113562 DB	'debug', 00H
	ORG $+2
$SG113563 DB	'more', 00H
	ORG $+3
$SG113564 DB	'info', 00H
	ORG $+3
$SG113565 DB	'warn', 00H
	ORG $+3
$SG113566 DB	'error', 00H
	ORG $+2
$SG113570 DB	'forcecfr', 00H
	ORG $+3
$SG113573 DB	'soxr', 00H
CONST	ENDS
PUBLIC	?__empty_global_delete@@YAXPEAX@Z		; __empty_global_delete
PUBLIC	?__empty_global_delete@@YAXPEAX_K@Z		; __empty_global_delete
PUBLIC	__local_stdio_printf_options
PUBLIC	_vswprintf_s_l
PUBLIC	swprintf_s
PUBLIC	_vsnprintf_s_l
PUBLIC	_vsnprintf_s
PUBLIC	_vscprintf_l
PUBLIC	_vscprintf
PUBLIC	_tcscmp
PUBLIC	_tcsicmp
PUBLIC	HRESULT_FROM_WIN32
PUBLIC	??$make_array@W4CspMatrix@@W41@W41@W41@W41@W41@W41@W41@W41@W41@W41@W41@W41@W41@W41@@@YA?AV?$array@W4CspMatrix@@$0O@@std@@$$QEAW4CspMatrix@@0000000000000@Z ; make_array<enum CspMatrix,enum CspMatrix,enum CspMatrix,enum CspMatrix,enum CspMatrix,enum CspMatrix,enum CspMatrix,enum CspMatrix,enum CspMatrix,enum CspMatrix,enum CspMatrix,enum CspMatrix,enum CspMatrix,enum CspMatrix,enum CspMatrix>
PUBLIC	??$make_array@W4CspTransfer@@W41@W41@W41@W41@W41@W41@W41@W41@W41@W41@W41@W41@W41@W41@W41@@@YA?AV?$array@W4CspTransfer@@$0P@@std@@$$QEAW4CspTransfer@@00000000000000@Z ; make_array<enum CspTransfer,enum CspTransfer,enum CspTransfer,enum CspTransfer,enum CspTransfer,enum CspTransfer,enum CspTransfer,enum CspTransfer,enum CspTransfer,enum CspTransfer,enum CspTransfer,enum CspTransfer,enum CspTransfer,enum CspTransfer,enum CspTransfer,enum CspTransfer>
PUBLIC	??$make_array@W4CspColorprim@@W41@W41@W41@W41@W41@W41@W41@W41@W41@W41@W41@W41@@@YA?AV?$array@W4CspColorprim@@$0M@@std@@$$QEAW4CspColorprim@@00000000000@Z ; make_array<enum CspColorprim,enum CspColorprim,enum CspColorprim,enum CspColorprim,enum CspColorprim,enum CspColorprim,enum CspColorprim,enum CspColorprim,enum CspColorprim,enum CspColorprim,enum CspColorprim,enum CspColorprim,enum CspColorprim>
PUBLIC	?init_qsvp_prm@@YAXPEAUsInputParams@@@Z		; init_qsvp_prm
PUBLIC	?Allocate@CCRTAllocator@ATL@@SAPEAX_K@Z		; ATL::CCRTAllocator::Allocate
PUBLIC	?Free@CCRTAllocator@ATL@@SAXPEAX@Z		; ATL::CCRTAllocator::Free
PUBLIC	??0?$CTraceCategoryEx@$0IAAAA@$0A@@ATL@@QEAA@PEBD@Z ; ATL::CTraceCategoryEx<524288,0>::CTraceCategoryEx<524288,0>
PUBLIC	??0?$CTraceCategoryEx@$00$0A@@ATL@@QEAA@PEBD@Z	; ATL::CTraceCategoryEx<1,0>::CTraceCategoryEx<1,0>
PUBLIC	??0?$CTraceCategoryEx@$01$0A@@ATL@@QEAA@PEBD@Z	; ATL::CTraceCategoryEx<2,0>::CTraceCategoryEx<2,0>
PUBLIC	??B?$CTraceCategoryEx@$01$0A@@ATL@@QEAAIXZ	; ATL::CTraceCategoryEx<2,0>::operator unsigned int
PUBLIC	??0?$CTraceCategoryEx@$03$0A@@ATL@@QEAA@PEBD@Z	; ATL::CTraceCategoryEx<4,0>::CTraceCategoryEx<4,0>
PUBLIC	??0?$CTraceCategoryEx@$07$0A@@ATL@@QEAA@PEBD@Z	; ATL::CTraceCategoryEx<8,0>::CTraceCategoryEx<8,0>
PUBLIC	??0?$CTraceCategoryEx@$0BA@$0A@@ATL@@QEAA@PEBD@Z ; ATL::CTraceCategoryEx<16,0>::CTraceCategoryEx<16,0>
PUBLIC	??0?$CTraceCategoryEx@$0CA@$0A@@ATL@@QEAA@PEBD@Z ; ATL::CTraceCategoryEx<32,0>::CTraceCategoryEx<32,0>
PUBLIC	??B?$CTraceCategoryEx@$0CA@$0A@@ATL@@QEAAIXZ	; ATL::CTraceCategoryEx<32,0>::operator unsigned int
PUBLIC	??0?$CTraceCategoryEx@$0EA@$0A@@ATL@@QEAA@PEBD@Z ; ATL::CTraceCategoryEx<64,0>::CTraceCategoryEx<64,0>
PUBLIC	??0?$CTraceCategoryEx@$0IA@$0A@@ATL@@QEAA@PEBD@Z ; ATL::CTraceCategoryEx<128,0>::CTraceCategoryEx<128,0>
PUBLIC	??0?$CTraceCategoryEx@$0BAA@$0A@@ATL@@QEAA@PEBD@Z ; ATL::CTraceCategoryEx<256,0>::CTraceCategoryEx<256,0>
PUBLIC	??0?$CTraceCategoryEx@$0CAA@$0A@@ATL@@QEAA@PEBD@Z ; ATL::CTraceCategoryEx<512,0>::CTraceCategoryEx<512,0>
PUBLIC	??0?$CTraceCategoryEx@$0EAA@$0A@@ATL@@QEAA@PEBD@Z ; ATL::CTraceCategoryEx<1024,0>::CTraceCategoryEx<1024,0>
PUBLIC	??0?$CTraceCategoryEx@$0IAA@$0A@@ATL@@QEAA@PEBD@Z ; ATL::CTraceCategoryEx<2048,0>::CTraceCategoryEx<2048,0>
PUBLIC	??0?$CTraceCategoryEx@$0BAAA@$0A@@ATL@@QEAA@PEBD@Z ; ATL::CTraceCategoryEx<4096,0>::CTraceCategoryEx<4096,0>
PUBLIC	??0?$CTraceCategoryEx@$0CAAA@$0A@@ATL@@QEAA@PEBD@Z ; ATL::CTraceCategoryEx<8192,0>::CTraceCategoryEx<8192,0>
PUBLIC	??0?$CTraceCategoryEx@$0EAAA@$0A@@ATL@@QEAA@PEBD@Z ; ATL::CTraceCategoryEx<16384,0>::CTraceCategoryEx<16384,0>
PUBLIC	??0?$CTraceCategoryEx@$0IAAA@$0A@@ATL@@QEAA@PEBD@Z ; ATL::CTraceCategoryEx<32768,0>::CTraceCategoryEx<32768,0>
PUBLIC	??0?$CTraceCategoryEx@$0BAAAA@$0A@@ATL@@QEAA@PEBD@Z ; ATL::CTraceCategoryEx<65536,0>::CTraceCategoryEx<65536,0>
PUBLIC	??0?$CTraceCategoryEx@$0CAAAA@$0A@@ATL@@QEAA@PEBD@Z ; ATL::CTraceCategoryEx<131072,0>::CTraceCategoryEx<131072,0>
PUBLIC	??0?$CTraceCategoryEx@$0EAAAA@$0A@@ATL@@QEAA@PEBD@Z ; ATL::CTraceCategoryEx<262144,0>::CTraceCategoryEx<262144,0>
PUBLIC	??0?$CTraceCategoryEx@$0BAAAAA@$0A@@ATL@@QEAA@PEBD@Z ; ATL::CTraceCategoryEx<1048576,0>::CTraceCategoryEx<1048576,0>
PUBLIC	??0?$CTraceCategoryEx@$0CAAAAA@$0A@@ATL@@QEAA@PEBD@Z ; ATL::CTraceCategoryEx<2097152,0>::CTraceCategoryEx<2097152,0>
PUBLIC	??0?$CTraceCategoryEx@$0EAAAAA@$0A@@ATL@@QEAA@PEBD@Z ; ATL::CTraceCategoryEx<4194304,0>::CTraceCategoryEx<4194304,0>
PUBLIC	?GetCategoryName@CTrace@ATL@@CAPEA_WI@Z		; ATL::CTrace::GetCategoryName
PUBLIC	?TraceV@CTrace@ATL@@CAXPEBDHIIPEB_W@Z		; ATL::CTrace::TraceV
PUBLIC	?TraceV@CTrace@ATL@@SAXPEBDHII0PEAD@Z		; ATL::CTrace::TraceV
PUBLIC	?RegisterCategory@CTrace@ATL@@SAXPEBDI@Z	; ATL::CTrace::RegisterCategory
PUBLIC	??0?$CHeapPtrBase@_WVCCRTAllocator@ATL@@@ATL@@IEAA@XZ ; ATL::CHeapPtrBase<wchar_t,ATL::CCRTAllocator>::CHeapPtrBase<wchar_t,ATL::CCRTAllocator>
PUBLIC	??1?$CHeapPtrBase@_WVCCRTAllocator@ATL@@@ATL@@QEAA@XZ ; ATL::CHeapPtrBase<wchar_t,ATL::CCRTAllocator>::~CHeapPtrBase<wchar_t,ATL::CCRTAllocator>
PUBLIC	??B?$CHeapPtrBase@_WVCCRTAllocator@ATL@@@ATL@@QEBAPEA_WXZ ; ATL::CHeapPtrBase<wchar_t,ATL::CCRTAllocator>::operator wchar_t *
PUBLIC	?AllocateBytes@?$CHeapPtrBase@_WVCCRTAllocator@ATL@@@ATL@@QEAA_N_K@Z ; ATL::CHeapPtrBase<wchar_t,ATL::CCRTAllocator>::AllocateBytes
PUBLIC	?Free@?$CHeapPtrBase@_WVCCRTAllocator@ATL@@@ATL@@QEAAXXZ ; ATL::CHeapPtrBase<wchar_t,ATL::CCRTAllocator>::Free
PUBLIC	??0?$CHeapPtr@_WVCCRTAllocator@ATL@@@ATL@@QEAA@XZ ; ATL::CHeapPtr<wchar_t,ATL::CCRTAllocator>::CHeapPtr<wchar_t,ATL::CCRTAllocator>
PUBLIC	?Allocate@?$CHeapPtr@_WVCCRTAllocator@ATL@@@ATL@@QEAA_N_K@Z ; ATL::CHeapPtr<wchar_t,ATL::CCRTAllocator>::Allocate
PUBLIC	??1?$CHeapPtr@_WVCCRTAllocator@ATL@@@ATL@@QEAA@XZ ; ATL::CHeapPtr<wchar_t,ATL::CCRTAllocator>::~CHeapPtr<wchar_t,ATL::CCRTAllocator>
PUBLIC	??0?$CHeapPtrBase@DVCCRTAllocator@ATL@@@ATL@@IEAA@XZ ; ATL::CHeapPtrBase<char,ATL::CCRTAllocator>::CHeapPtrBase<char,ATL::CCRTAllocator>
PUBLIC	??1?$CHeapPtrBase@DVCCRTAllocator@ATL@@@ATL@@QEAA@XZ ; ATL::CHeapPtrBase<char,ATL::CCRTAllocator>::~CHeapPtrBase<char,ATL::CCRTAllocator>
PUBLIC	??B?$CHeapPtrBase@DVCCRTAllocator@ATL@@@ATL@@QEBAPEADXZ ; ATL::CHeapPtrBase<char,ATL::CCRTAllocator>::operator char *
PUBLIC	?AllocateBytes@?$CHeapPtrBase@DVCCRTAllocator@ATL@@@ATL@@QEAA_N_K@Z ; ATL::CHeapPtrBase<char,ATL::CCRTAllocator>::AllocateBytes
PUBLIC	?Free@?$CHeapPtrBase@DVCCRTAllocator@ATL@@@ATL@@QEAAXXZ ; ATL::CHeapPtrBase<char,ATL::CCRTAllocator>::Free
PUBLIC	??0?$CHeapPtr@DVCCRTAllocator@ATL@@@ATL@@QEAA@XZ ; ATL::CHeapPtr<char,ATL::CCRTAllocator>::CHeapPtr<char,ATL::CCRTAllocator>
PUBLIC	?Allocate@?$CHeapPtr@DVCCRTAllocator@ATL@@@ATL@@QEAA_N_K@Z ; ATL::CHeapPtr<char,ATL::CCRTAllocator>::Allocate
PUBLIC	??1?$CHeapPtr@DVCCRTAllocator@ATL@@@ATL@@QEAA@XZ ; ATL::CHeapPtr<char,ATL::CCRTAllocator>::~CHeapPtr<char,ATL::CCRTAllocator>
PUBLIC	??0CPreserveLastError@ATL@@QEAA@XZ		; ATL::CPreserveLastError::CPreserveLastError
PUBLIC	??1CPreserveLastError@ATL@@QEAA@XZ		; ATL::CPreserveLastError::~CPreserveLastError
PUBLIC	??0CTraceFileAndLineInfo@ATL@@QEAA@PEBDH@Z	; ATL::CTraceFileAndLineInfo::CTraceFileAndLineInfo
PUBLIC	??RCTraceFileAndLineInfo@ATL@@QEBAXHIPEBDZZ	; ATL::CTraceFileAndLineInfo::operator()
PUBLIC	?_AtlRaiseException@ATL@@YAXKK@Z		; ATL::_AtlRaiseException
PUBLIC	?_AtlInitializeCriticalSectionEx@ATL@@YAHPEAU_RTL_CRITICAL_SECTION@@KK@Z ; ATL::_AtlInitializeCriticalSectionEx
PUBLIC	??0CComCriticalSection@ATL@@QEAA@XZ		; ATL::CComCriticalSection::CComCriticalSection
PUBLIC	??1CComCriticalSection@ATL@@QEAA@XZ		; ATL::CComCriticalSection::~CComCriticalSection
PUBLIC	?Init@CComCriticalSection@ATL@@QEAAJXZ		; ATL::CComCriticalSection::Init
PUBLIC	?Term@CComCriticalSection@ATL@@QEAAJXZ		; ATL::CComCriticalSection::Term
PUBLIC	?GetModuleInstance@CAtlBaseModule@ATL@@QEAAPEAUHINSTANCE__@@XZ ; ATL::CAtlBaseModule::GetModuleInstance
PUBLIC	??0_ATL_COM_MODULE70@ATL@@QEAA@XZ		; ATL::_ATL_COM_MODULE70::_ATL_COM_MODULE70
PUBLIC	??1_ATL_COM_MODULE70@ATL@@QEAA@XZ		; ATL::_ATL_COM_MODULE70::~_ATL_COM_MODULE70
PUBLIC	??0?$CSimpleArray@GV?$CSimpleArrayEqualHelper@G@ATL@@@ATL@@QEAA@XZ ; ATL::CSimpleArray<unsigned short,ATL::CSimpleArrayEqualHelper<unsigned short> >::CSimpleArray<unsigned short,ATL::CSimpleArrayEqualHelper<unsigned short> >
PUBLIC	??1?$CSimpleArray@GV?$CSimpleArrayEqualHelper@G@ATL@@@ATL@@QEAA@XZ ; ATL::CSimpleArray<unsigned short,ATL::CSimpleArrayEqualHelper<unsigned short> >::~CSimpleArray<unsigned short,ATL::CSimpleArrayEqualHelper<unsigned short> >
PUBLIC	?GetSize@?$CSimpleArray@GV?$CSimpleArrayEqualHelper@G@ATL@@@ATL@@QEBAHXZ ; ATL::CSimpleArray<unsigned short,ATL::CSimpleArrayEqualHelper<unsigned short> >::GetSize
PUBLIC	?RemoveAll@?$CSimpleArray@GV?$CSimpleArrayEqualHelper@G@ATL@@@ATL@@QEAAXXZ ; ATL::CSimpleArray<unsigned short,ATL::CSimpleArrayEqualHelper<unsigned short> >::RemoveAll
PUBLIC	??A?$CSimpleArray@GV?$CSimpleArrayEqualHelper@G@ATL@@@ATL@@QEAAAEAGH@Z ; ATL::CSimpleArray<unsigned short,ATL::CSimpleArrayEqualHelper<unsigned short> >::operator[]
PUBLIC	??0_ATL_WIN_MODULE70@ATL@@QEAA@XZ		; ATL::_ATL_WIN_MODULE70::_ATL_WIN_MODULE70
PUBLIC	??1_ATL_WIN_MODULE70@ATL@@QEAA@XZ		; ATL::_ATL_WIN_MODULE70::~_ATL_WIN_MODULE70
PUBLIC	?AtlWinModuleInit@ATL@@YAJPEAU_ATL_WIN_MODULE70@1@@Z ; ATL::AtlWinModuleInit
PUBLIC	?AtlWinModuleTerm@ATL@@YAJPEAU_ATL_WIN_MODULE70@1@PEAUHINSTANCE__@@@Z ; ATL::AtlWinModuleTerm
PUBLIC	??0CAtlComModule@ATL@@QEAA@XZ			; ATL::CAtlComModule::CAtlComModule
PUBLIC	??1CAtlComModule@ATL@@QEAA@XZ			; ATL::CAtlComModule::~CAtlComModule
PUBLIC	?Term@CAtlComModule@ATL@@QEAAXXZ		; ATL::CAtlComModule::Term
PUBLIC	??0CAtlWinModule@ATL@@QEAA@XZ			; ATL::CAtlWinModule::CAtlWinModule
PUBLIC	??1CAtlWinModule@ATL@@QEAA@XZ			; ATL::CAtlWinModule::~CAtlWinModule
PUBLIC	?Term@CAtlWinModule@ATL@@QEAAXXZ		; ATL::CAtlWinModule::Term
PUBLIC	??$AtlMultiply@_K@ATL@@YAJPEA_K_K1@Z		; ATL::AtlMultiply<unsigned __int64>
PUBLIC	?_OptionsStorage@?1??__local_stdio_printf_options@@9@4_KA ; `__local_stdio_printf_options'::`2'::_OptionsStorage
PUBLIC	??_C@_17CNPHIMPH@?$AA?$CF?$AAl?$AAs@		; `string'
PUBLIC	??_C@_13COJANIEC@?$AA0@				; `string'
PUBLIC	??_C@_1OE@BPCMJDLP@?$AAC?$AA?3?$AA?2?$AAP?$AAr?$AAo?$AAg?$AAr?$AAa?$AAm?$AA?5?$AAF?$AAi?$AAl?$AAe@ ; `string'
PUBLIC	?atlTraceGeneral@ATL@@3V?$CTraceCategoryEx@$00$0A@@1@A ; ATL::atlTraceGeneral
PUBLIC	?atlTraceCOM@ATL@@3V?$CTraceCategoryEx@$01$0A@@1@A ; ATL::atlTraceCOM
PUBLIC	?atlTraceQI@ATL@@3V?$CTraceCategoryEx@$03$0A@@1@A ; ATL::atlTraceQI
PUBLIC	?atlTraceRegistrar@ATL@@3V?$CTraceCategoryEx@$07$0A@@1@A ; ATL::atlTraceRegistrar
PUBLIC	?atlTraceRefcount@ATL@@3V?$CTraceCategoryEx@$0BA@$0A@@1@A ; ATL::atlTraceRefcount
PUBLIC	?atlTraceWindowing@ATL@@3V?$CTraceCategoryEx@$0CA@$0A@@1@A ; ATL::atlTraceWindowing
PUBLIC	?atlTraceControls@ATL@@3V?$CTraceCategoryEx@$0EA@$0A@@1@A ; ATL::atlTraceControls
PUBLIC	?atlTraceHosting@ATL@@3V?$CTraceCategoryEx@$0IA@$0A@@1@A ; ATL::atlTraceHosting
PUBLIC	?atlTraceDBClient@ATL@@3V?$CTraceCategoryEx@$0BAA@$0A@@1@A ; ATL::atlTraceDBClient
PUBLIC	?atlTraceDBProvider@ATL@@3V?$CTraceCategoryEx@$0CAA@$0A@@1@A ; ATL::atlTraceDBProvider
PUBLIC	?atlTraceSnapin@ATL@@3V?$CTraceCategoryEx@$0EAA@$0A@@1@A ; ATL::atlTraceSnapin
PUBLIC	?atlTraceNotImpl@ATL@@3V?$CTraceCategoryEx@$0IAA@$0A@@1@A ; ATL::atlTraceNotImpl
PUBLIC	?atlTraceAllocation@ATL@@3V?$CTraceCategoryEx@$0BAAA@$0A@@1@A ; ATL::atlTraceAllocation
PUBLIC	?atlTraceException@ATL@@3V?$CTraceCategoryEx@$0CAAA@$0A@@1@A ; ATL::atlTraceException
PUBLIC	?atlTraceTime@ATL@@3V?$CTraceCategoryEx@$0EAAA@$0A@@1@A ; ATL::atlTraceTime
PUBLIC	?atlTraceCache@ATL@@3V?$CTraceCategoryEx@$0IAAA@$0A@@1@A ; ATL::atlTraceCache
PUBLIC	?atlTraceStencil@ATL@@3V?$CTraceCategoryEx@$0BAAAA@$0A@@1@A ; ATL::atlTraceStencil
PUBLIC	?atlTraceString@ATL@@3V?$CTraceCategoryEx@$0CAAAA@$0A@@1@A ; ATL::atlTraceString
PUBLIC	?atlTraceMap@ATL@@3V?$CTraceCategoryEx@$0EAAAA@$0A@@1@A ; ATL::atlTraceMap
PUBLIC	?atlTraceUtil@ATL@@3V?$CTraceCategoryEx@$0IAAAA@$0A@@1@A ; ATL::atlTraceUtil
PUBLIC	?atlTraceSecurity@ATL@@3V?$CTraceCategoryEx@$0BAAAAA@$0A@@1@A ; ATL::atlTraceSecurity
PUBLIC	?atlTraceSync@ATL@@3V?$CTraceCategoryEx@$0CAAAAA@$0A@@1@A ; ATL::atlTraceSync
PUBLIC	?atlTraceISAPI@ATL@@3V?$CTraceCategoryEx@$0EAAAAA@$0A@@1@A ; ATL::atlTraceISAPI
PUBLIC	?m_nLevel@CTrace@ATL@@1IA			; ATL::CTrace::m_nLevel
PUBLIC	?m_nCategory@CTrace@ATL@@1IA			; ATL::CTrace::m_nCategory
PUBLIC	?m_nLastCategory@CTrace@ATL@@1IA		; ATL::CTrace::m_nLastCategory
PUBLIC	?m_nMap@CTrace@ATL@@1PAUCategoryMap@12@A	; ATL::CTrace::m_nMap
PUBLIC	??_C@_1O@LFNDFEBP@?$AA?$CF?$AAl?$AAs?$AA?5?$AA?9?$AA?5@ ; `string'
PUBLIC	??_C@_1M@PGKOAACE@?$AA?$CF?$AAu?$AA?5?$AA?9?$AA?5@ ; `string'
PUBLIC	??_C@_1O@OAIPCDPO@?$AA?$CF?$AAl?$AAs?$AA?$CF?$AAl?$AAs@ ; `string'
PUBLIC	??_C@_17LGGGMOOB@?$AA?$CF?$AAh?$AAs@		; `string'
PUBLIC	??_C@_1EO@EBPPKGOM@?$AAf?$AAa?$AAl?$AAs?$AAe?$AA?5?$AA?$CG?$AA?$CG?$AA?5?$AA?$CC?$AAT?$AAo?$AAo?$AA?5?$AAm@ ; `string'
PUBLIC	??_C@_1OE@GMIHPBDM@?$AAC?$AA?3?$AA?2?$AAP?$AAr?$AAo?$AAg?$AAr?$AAa?$AAm?$AA?5?$AAF?$AAi?$AAl?$AAe@ ; `string'
PUBLIC	?m_bInitFailed@CAtlBaseModule@ATL@@2_NA		; ATL::CAtlBaseModule::m_bInitFailed
PUBLIC	??_C@_1OC@KMMBJFLB@?$AAC?$AA?3?$AA?2?$AAP?$AAr?$AAo?$AAg?$AAr?$AAa?$AAm?$AA?5?$AAF?$AAi?$AAl?$AAe@ ; `string'
PUBLIC	??_C@_0HB@NHAHFMOE@C?3?2Program?5Files?5?$CIx86?$CJ?2Microsof@ ; `string'
PUBLIC	??_C@_0EA@EJEMLPD@ERROR?5?3?5Unable?5to?5initialize?5cr@ ; `string'
PUBLIC	?_AtlComModule@ATL@@3VCAtlComModule@1@A		; ATL::_AtlComModule
PUBLIC	?_AtlWinModule@ATL@@3VCAtlWinModule@1@A		; ATL::_AtlWinModule
PUBLIC	??_C@_0ED@GFNHMOFC@ERROR?5?3?5Unable?5to?5initialize?5cr@ ; `string'
PUBLIC	??_C@_1EA@JHMKKLFC@?$AAn?$AAI?$AAn?$AAd?$AAe?$AAx?$AA?5?$AA?$DO?$AA?$DN?$AA?5?$AA0?$AA?5?$AA?$CG?$AA?$CG?$AA?5@ ; `string'
PUBLIC	??_C@_1OK@ENELOBIL@?$AAC?$AA?3?$AA?2?$AAP?$AAr?$AAo?$AAg?$AAr?$AAa?$AAm?$AA?5?$AAF?$AAi?$AAl?$AAe@ ; `string'
PUBLIC	??_C@_1BK@NHECDDNK@?$AAm?$AA_?$AAp?$AAD?$AAa?$AAt?$AAa?$AA?5?$AA?$DN?$AA?$DN?$AA?5?$AA0@ ; `string'
EXTRN	atexit:PROC
EXTRN	__imp__CrtDbgReportW:PROC
EXTRN	__imp_free:PROC
EXTRN	__imp_malloc:PROC
EXTRN	__imp___stdio_common_vswprintf_s:PROC
EXTRN	__imp___stdio_common_vsprintf:PROC
EXTRN	__imp___stdio_common_vsnprintf_s:PROC
EXTRN	memset:PROC
EXTRN	__imp_wcscpy_s:PROC
EXTRN	__imp_wcslen:PROC
EXTRN	__imp__mbscmp:PROC
EXTRN	__imp__mbsicmp:PROC
EXTRN	__imp_DecodePointer:PROC
EXTRN	__imp_RaiseException:PROC
EXTRN	__imp_GetLastError:PROC
EXTRN	__imp_SetLastError:PROC
EXTRN	__imp_InitializeCriticalSectionEx:PROC
EXTRN	__imp_DeleteCriticalSection:PROC
EXTRN	__imp_UnregisterClassA:PROC
EXTRN	__imp_MultiByteToWideChar:PROC
EXTRN	?getCPUGenCpuid@@YAHXZ:PROC			; getCPUGenCpuid
EXTRN	_RTC_CheckStackVars:PROC
EXTRN	_RTC_InitBase:PROC
EXTRN	_RTC_Shutdown:PROC
EXTRN	__CxxFrameHandler4:PROC
EXTRN	__GSHandlerCheck:PROC
EXTRN	__GSHandlerCheck_EH4:PROC
EXTRN	__security_check_cookie:PROC
EXTRN	?_AtlBaseModule@ATL@@3VCAtlBaseModule@1@A:BYTE	; ATL::_AtlBaseModule
EXTRN	__ImageBase:BYTE
EXTRN	__security_cookie:QWORD
;	COMDAT ?_OptionsStorage@?1??__local_stdio_printf_options@@9@4_KA
_BSS	SEGMENT
?_OptionsStorage@?1??__local_stdio_printf_options@@9@4_KA DQ 01H DUP (?) ; `__local_stdio_printf_options'::`2'::_OptionsStorage
_BSS	ENDS
_BSS	SEGMENT
?CspMatrixList@@3V?$array@W4CspMatrix@@$0O@@std@@B DB 038H DUP (?) ; CspMatrixList
?CspTransferList@@3V?$array@W4CspTransfer@@$0P@@std@@B DB 03cH DUP (?) ; CspTransferList
?CspColorprimList@@3V?$array@W4CspColorprim@@$0M@@std@@B DB 030H DUP (?) ; CspColorprimList
_BSS	ENDS
;	COMDAT ?atlTraceGeneral@ATL@@3V?$CTraceCategoryEx@$00$0A@@1@A
_BSS	SEGMENT
?atlTraceGeneral@ATL@@3V?$CTraceCategoryEx@$00$0A@@1@A DD 01H DUP (?) ; ATL::atlTraceGeneral
_BSS	ENDS
;	COMDAT ?atlTraceCOM@ATL@@3V?$CTraceCategoryEx@$01$0A@@1@A
_BSS	SEGMENT
?atlTraceCOM@ATL@@3V?$CTraceCategoryEx@$01$0A@@1@A DD 01H DUP (?) ; ATL::atlTraceCOM
_BSS	ENDS
;	COMDAT ?atlTraceQI@ATL@@3V?$CTraceCategoryEx@$03$0A@@1@A
_BSS	SEGMENT
?atlTraceQI@ATL@@3V?$CTraceCategoryEx@$03$0A@@1@A DD 01H DUP (?) ; ATL::atlTraceQI
_BSS	ENDS
;	COMDAT ?atlTraceRegistrar@ATL@@3V?$CTraceCategoryEx@$07$0A@@1@A
_BSS	SEGMENT
?atlTraceRegistrar@ATL@@3V?$CTraceCategoryEx@$07$0A@@1@A DD 01H DUP (?) ; ATL::atlTraceRegistrar
_BSS	ENDS
;	COMDAT ?atlTraceRefcount@ATL@@3V?$CTraceCategoryEx@$0BA@$0A@@1@A
_BSS	SEGMENT
?atlTraceRefcount@ATL@@3V?$CTraceCategoryEx@$0BA@$0A@@1@A DD 01H DUP (?) ; ATL::atlTraceRefcount
_BSS	ENDS
;	COMDAT ?atlTraceWindowing@ATL@@3V?$CTraceCategoryEx@$0CA@$0A@@1@A
_BSS	SEGMENT
?atlTraceWindowing@ATL@@3V?$CTraceCategoryEx@$0CA@$0A@@1@A DD 01H DUP (?) ; ATL::atlTraceWindowing
_BSS	ENDS
;	COMDAT ?atlTraceControls@ATL@@3V?$CTraceCategoryEx@$0EA@$0A@@1@A
_BSS	SEGMENT
?atlTraceControls@ATL@@3V?$CTraceCategoryEx@$0EA@$0A@@1@A DD 01H DUP (?) ; ATL::atlTraceControls
_BSS	ENDS
;	COMDAT ?atlTraceHosting@ATL@@3V?$CTraceCategoryEx@$0IA@$0A@@1@A
_BSS	SEGMENT
?atlTraceHosting@ATL@@3V?$CTraceCategoryEx@$0IA@$0A@@1@A DD 01H DUP (?) ; ATL::atlTraceHosting
_BSS	ENDS
;	COMDAT ?atlTraceDBClient@ATL@@3V?$CTraceCategoryEx@$0BAA@$0A@@1@A
_BSS	SEGMENT
?atlTraceDBClient@ATL@@3V?$CTraceCategoryEx@$0BAA@$0A@@1@A DD 01H DUP (?) ; ATL::atlTraceDBClient
_BSS	ENDS
;	COMDAT ?atlTraceDBProvider@ATL@@3V?$CTraceCategoryEx@$0CAA@$0A@@1@A
_BSS	SEGMENT
?atlTraceDBProvider@ATL@@3V?$CTraceCategoryEx@$0CAA@$0A@@1@A DD 01H DUP (?) ; ATL::atlTraceDBProvider
_BSS	ENDS
;	COMDAT ?atlTraceSnapin@ATL@@3V?$CTraceCategoryEx@$0EAA@$0A@@1@A
_BSS	SEGMENT
?atlTraceSnapin@ATL@@3V?$CTraceCategoryEx@$0EAA@$0A@@1@A DD 01H DUP (?) ; ATL::atlTraceSnapin
_BSS	ENDS
;	COMDAT ?atlTraceNotImpl@ATL@@3V?$CTraceCategoryEx@$0IAA@$0A@@1@A
_BSS	SEGMENT
?atlTraceNotImpl@ATL@@3V?$CTraceCategoryEx@$0IAA@$0A@@1@A DD 01H DUP (?) ; ATL::atlTraceNotImpl
_BSS	ENDS
;	COMDAT ?atlTraceAllocation@ATL@@3V?$CTraceCategoryEx@$0BAAA@$0A@@1@A
_BSS	SEGMENT
?atlTraceAllocation@ATL@@3V?$CTraceCategoryEx@$0BAAA@$0A@@1@A DD 01H DUP (?) ; ATL::atlTraceAllocation
_BSS	ENDS
;	COMDAT ?atlTraceException@ATL@@3V?$CTraceCategoryEx@$0CAAA@$0A@@1@A
_BSS	SEGMENT
?atlTraceException@ATL@@3V?$CTraceCategoryEx@$0CAAA@$0A@@1@A DD 01H DUP (?) ; ATL::atlTraceException
_BSS	ENDS
;	COMDAT ?atlTraceTime@ATL@@3V?$CTraceCategoryEx@$0EAAA@$0A@@1@A
_BSS	SEGMENT
?atlTraceTime@ATL@@3V?$CTraceCategoryEx@$0EAAA@$0A@@1@A DD 01H DUP (?) ; ATL::atlTraceTime
_BSS	ENDS
;	COMDAT ?atlTraceCache@ATL@@3V?$CTraceCategoryEx@$0IAAA@$0A@@1@A
_BSS	SEGMENT
?atlTraceCache@ATL@@3V?$CTraceCategoryEx@$0IAAA@$0A@@1@A DD 01H DUP (?) ; ATL::atlTraceCache
_BSS	ENDS
;	COMDAT ?atlTraceStencil@ATL@@3V?$CTraceCategoryEx@$0BAAAA@$0A@@1@A
_BSS	SEGMENT
?atlTraceStencil@ATL@@3V?$CTraceCategoryEx@$0BAAAA@$0A@@1@A DD 01H DUP (?) ; ATL::atlTraceStencil
_BSS	ENDS
;	COMDAT ?atlTraceString@ATL@@3V?$CTraceCategoryEx@$0CAAAA@$0A@@1@A
_BSS	SEGMENT
?atlTraceString@ATL@@3V?$CTraceCategoryEx@$0CAAAA@$0A@@1@A DD 01H DUP (?) ; ATL::atlTraceString
_BSS	ENDS
;	COMDAT ?atlTraceMap@ATL@@3V?$CTraceCategoryEx@$0EAAAA@$0A@@1@A
_BSS	SEGMENT
?atlTraceMap@ATL@@3V?$CTraceCategoryEx@$0EAAAA@$0A@@1@A DD 01H DUP (?) ; ATL::atlTraceMap
_BSS	ENDS
;	COMDAT ?atlTraceUtil@ATL@@3V?$CTraceCategoryEx@$0IAAAA@$0A@@1@A
_BSS	SEGMENT
?atlTraceUtil@ATL@@3V?$CTraceCategoryEx@$0IAAAA@$0A@@1@A DD 01H DUP (?) ; ATL::atlTraceUtil
_BSS	ENDS
;	COMDAT ?atlTraceSecurity@ATL@@3V?$CTraceCategoryEx@$0BAAAAA@$0A@@1@A
_BSS	SEGMENT
?atlTraceSecurity@ATL@@3V?$CTraceCategoryEx@$0BAAAAA@$0A@@1@A DD 01H DUP (?) ; ATL::atlTraceSecurity
_BSS	ENDS
;	COMDAT ?atlTraceSync@ATL@@3V?$CTraceCategoryEx@$0CAAAAA@$0A@@1@A
_BSS	SEGMENT
?atlTraceSync@ATL@@3V?$CTraceCategoryEx@$0CAAAAA@$0A@@1@A DD 01H DUP (?) ; ATL::atlTraceSync
_BSS	ENDS
;	COMDAT ?atlTraceISAPI@ATL@@3V?$CTraceCategoryEx@$0EAAAAA@$0A@@1@A
_BSS	SEGMENT
?atlTraceISAPI@ATL@@3V?$CTraceCategoryEx@$0EAAAAA@$0A@@1@A DD 01H DUP (?) ; ATL::atlTraceISAPI
_BSS	ENDS
;	COMDAT ?m_nLevel@CTrace@ATL@@1IA
_BSS	SEGMENT
?m_nLevel@CTrace@ATL@@1IA DD 01H DUP (?)		; ATL::CTrace::m_nLevel
_BSS	ENDS
;	COMDAT ?m_nLastCategory@CTrace@ATL@@1IA
_BSS	SEGMENT
?m_nLastCategory@CTrace@ATL@@1IA DD 01H DUP (?)		; ATL::CTrace::m_nLastCategory
_BSS	ENDS
;	COMDAT ?m_nMap@CTrace@ATL@@1PAUCategoryMap@12@A
_BSS	SEGMENT
?m_nMap@CTrace@ATL@@1PAUCategoryMap@12@A DB 02080H DUP (?) ; ATL::CTrace::m_nMap
_BSS	ENDS
;	COMDAT ?m_bInitFailed@CAtlBaseModule@ATL@@2_NA
_BSS	SEGMENT
?m_bInitFailed@CAtlBaseModule@ATL@@2_NA DB 01H DUP (?)	; ATL::CAtlBaseModule::m_bInitFailed
_BSS	ENDS
;	COMDAT ?_AtlComModule@ATL@@3VCAtlComModule@1@A
_BSS	SEGMENT
?_AtlComModule@ATL@@3VCAtlComModule@1@A DB 048H DUP (?)	; ATL::_AtlComModule
_BSS	ENDS
;	COMDAT ?_AtlWinModule@ATL@@3VCAtlWinModule@1@A
_BSS	SEGMENT
?_AtlWinModule@ATL@@3VCAtlWinModule@1@A DB 048H DUP (?)	; ATL::_AtlWinModule
_BSS	ENDS
;	COMDAT pdata
pdata	SEGMENT
$pdata$?__empty_global_delete@@YAXPEAX@Z DD imagerel $LN3
	DD	imagerel $LN3+8
	DD	imagerel $unwind$?__empty_global_delete@@YAXPEAX@Z
pdata	ENDS
;	COMDAT pdata
pdata	SEGMENT
$pdata$?__empty_global_delete@@YAXPEAX_K@Z DD imagerel $LN3
	DD	imagerel $LN3+13
	DD	imagerel $unwind$?__empty_global_delete@@YAXPEAX_K@Z
pdata	ENDS
;	COMDAT pdata
pdata	SEGMENT
$pdata$__local_stdio_printf_options DD imagerel $LN3
	DD	imagerel $LN3+11
	DD	imagerel $unwind$__local_stdio_printf_options
pdata	ENDS
;	COMDAT pdata
pdata	SEGMENT
$pdata$_vswprintf_s_l DD imagerel $LN5
	DD	imagerel $LN5+133
	DD	imagerel $unwind$_vswprintf_s_l
pdata	ENDS
;	COMDAT pdata
pdata	SEGMENT
$pdata$swprintf_s DD imagerel $LN3
	DD	imagerel $LN3+136
	DD	imagerel $unwind$swprintf_s
pdata	ENDS
;	COMDAT pdata
pdata	SEGMENT
$pdata$_vsnprintf_s_l DD imagerel $LN5
	DD	imagerel $LN5+149
	DD	imagerel $unwind$_vsnprintf_s_l
pdata	ENDS
;	COMDAT pdata
pdata	SEGMENT
$pdata$_vsnprintf_s DD imagerel $LN3
	DD	imagerel $LN3+95
	DD	imagerel $unwind$_vsnprintf_s
pdata	ENDS
;	COMDAT pdata
pdata	SEGMENT
$pdata$_vscprintf_l DD imagerel $LN5
	DD	imagerel $LN5+130
	DD	imagerel $unwind$_vscprintf_l
pdata	ENDS
;	COMDAT pdata
pdata	SEGMENT
$pdata$_vscprintf DD imagerel $LN3
	DD	imagerel $LN3+58
	DD	imagerel $unwind$_vscprintf
pdata	ENDS
;	COMDAT pdata
pdata	SEGMENT
$pdata$_tcscmp DD imagerel $LN3
	DD	imagerel $LN3+57
	DD	imagerel $unwind$_tcscmp
pdata	ENDS
;	COMDAT pdata
pdata	SEGMENT
$pdata$_tcsicmp DD imagerel $LN3
	DD	imagerel $LN3+57
	DD	imagerel $unwind$_tcsicmp
pdata	ENDS
;	COMDAT pdata
pdata	SEGMENT
$pdata$HRESULT_FROM_WIN32 DD imagerel $LN5
	DD	imagerel $LN5+74
	DD	imagerel $unwind$HRESULT_FROM_WIN32
pdata	ENDS
pdata	SEGMENT
$pdata$?get_cx_value@@YAHPEBUCX_DESC@@PEBD@Z DD imagerel ?get_cx_value@@YAHPEBUCX_DESC@@PEBD@Z
	DD	imagerel ?get_cx_value@@YAHPEBUCX_DESC@@PEBD@Z+138
	DD	imagerel $unwind$?get_cx_value@@YAHPEBUCX_DESC@@PEBD@Z
$pdata$?get_value_from_chr@@YAHPEBUCX_DESC@@PEBD@Z DD imagerel ?get_value_from_chr@@YAHPEBUCX_DESC@@PEBD@Z
	DD	imagerel ?get_value_from_chr@@YAHPEBUCX_DESC@@PEBD@Z+142
	DD	imagerel $unwind$?get_value_from_chr@@YAHPEBUCX_DESC@@PEBD@Z
pdata	ENDS
;	COMDAT pdata
pdata	SEGMENT
$pdata$??$make_array@W4CspMatrix@@W41@W41@W41@W41@W41@W41@W41@W41@W41@W41@W41@W41@W41@W41@@@YA?AV?$array@W4CspMatrix@@$0O@@std@@$$QEAW4CspMatrix@@0000000000000@Z DD imagerel $LN3
	DD	imagerel $LN3+297
	DD	imagerel $unwind$??$make_array@W4CspMatrix@@W41@W41@W41@W41@W41@W41@W41@W41@W41@W41@W41@W41@W41@W41@@@YA?AV?$array@W4CspMatrix@@$0O@@std@@$$QEAW4CspMatrix@@0000000000000@Z
pdata	ENDS
;	COMDAT pdata
pdata	SEGMENT
$pdata$??__ECspMatrixList@@YAXXZ DD imagerel ??__ECspMatrixList@@YAXXZ
	DD	imagerel ??__ECspMatrixList@@YAXXZ+452
	DD	imagerel $unwind$??__ECspMatrixList@@YAXXZ
pdata	ENDS
;	COMDAT pdata
pdata	SEGMENT
$pdata$??$make_array@W4CspTransfer@@W41@W41@W41@W41@W41@W41@W41@W41@W41@W41@W41@W41@W41@W41@W41@@@YA?AV?$array@W4CspTransfer@@$0P@@std@@$$QEAW4CspTransfer@@00000000000000@Z DD imagerel $LN3
	DD	imagerel $LN3+311
	DD	imagerel $unwind$??$make_array@W4CspTransfer@@W41@W41@W41@W41@W41@W41@W41@W41@W41@W41@W41@W41@W41@W41@W41@@@YA?AV?$array@W4CspTransfer@@$0P@@std@@$$QEAW4CspTransfer@@00000000000000@Z
pdata	ENDS
;	COMDAT pdata
pdata	SEGMENT
$pdata$??__ECspTransferList@@YAXXZ DD imagerel ??__ECspTransferList@@YAXXZ
	DD	imagerel ??__ECspTransferList@@YAXXZ+476
	DD	imagerel $unwind$??__ECspTransferList@@YAXXZ
pdata	ENDS
;	COMDAT pdata
pdata	SEGMENT
$pdata$??$make_array@W4CspColorprim@@W41@W41@W41@W41@W41@W41@W41@W41@W41@W41@W41@W41@@@YA?AV?$array@W4CspColorprim@@$0M@@std@@$$QEAW4CspColorprim@@00000000000@Z DD imagerel $LN3
	DD	imagerel $LN3+263
	DD	imagerel $unwind$??$make_array@W4CspColorprim@@W41@W41@W41@W41@W41@W41@W41@W41@W41@W41@W41@W41@@@YA?AV?$array@W4CspColorprim@@$0M@@std@@$$QEAW4CspColorprim@@00000000000@Z
pdata	ENDS
;	COMDAT pdata
pdata	SEGMENT
$pdata$??__ECspColorprimList@@YAXXZ DD imagerel ??__ECspColorprimList@@YAXXZ
	DD	imagerel ??__ECspColorprimList@@YAXXZ+398
	DD	imagerel $unwind$??__ECspColorprimList@@YAXXZ
pdata	ENDS
pdata	SEGMENT
$pdata$?init_qsvp_prm@@YAXPEAUsInputParams@@@Z DD imagerel $LN5
	DD	imagerel $LN5+876
	DD	imagerel $unwind$?init_qsvp_prm@@YAXPEAUsInputParams@@@Z
pdata	ENDS
;	COMDAT pdata
pdata	SEGMENT
$pdata$?Allocate@CCRTAllocator@ATL@@SAPEAX_K@Z DD imagerel $LN3
	DD	imagerel $LN3+47
	DD	imagerel $unwind$?Allocate@CCRTAllocator@ATL@@SAPEAX_K@Z
pdata	ENDS
;	COMDAT pdata
pdata	SEGMENT
$pdata$?Free@CCRTAllocator@ATL@@SAXPEAX@Z DD imagerel $LN3
	DD	imagerel $LN3+47
	DD	imagerel $unwind$?Free@CCRTAllocator@ATL@@SAXPEAX@Z
pdata	ENDS
;	COMDAT pdata
pdata	SEGMENT
$pdata$??0?$CTraceCategoryEx@$0IAAAA@$0A@@ATL@@QEAA@PEBD@Z DD imagerel $LN3
	DD	imagerel $LN3+61
	DD	imagerel $unwind$??0?$CTraceCategoryEx@$0IAAAA@$0A@@ATL@@QEAA@PEBD@Z
pdata	ENDS
;	COMDAT pdata
pdata	SEGMENT
$pdata$??0?$CTraceCategoryEx@$00$0A@@ATL@@QEAA@PEBD@Z DD imagerel $LN3
	DD	imagerel $LN3+61
	DD	imagerel $unwind$??0?$CTraceCategoryEx@$00$0A@@ATL@@QEAA@PEBD@Z
pdata	ENDS
;	COMDAT pdata
pdata	SEGMENT
$pdata$??__EatlTraceGeneral@ATL@@YAXXZ DD imagerel ??__EatlTraceGeneral@ATL@@YAXXZ
	DD	imagerel ??__EatlTraceGeneral@ATL@@YAXXZ+46
	DD	imagerel $unwind$??__EatlTraceGeneral@ATL@@YAXXZ
pdata	ENDS
;	COMDAT pdata
pdata	SEGMENT
$pdata$??0?$CTraceCategoryEx@$01$0A@@ATL@@QEAA@PEBD@Z DD imagerel $LN3
	DD	imagerel $LN3+61
	DD	imagerel $unwind$??0?$CTraceCategoryEx@$01$0A@@ATL@@QEAA@PEBD@Z
pdata	ENDS
;	COMDAT pdata
pdata	SEGMENT
$pdata$??B?$CTraceCategoryEx@$01$0A@@ATL@@QEAAIXZ DD imagerel $LN3
	DD	imagerel $LN3+13
	DD	imagerel $unwind$??B?$CTraceCategoryEx@$01$0A@@ATL@@QEAAIXZ
pdata	ENDS
;	COMDAT pdata
pdata	SEGMENT
$pdata$??__EatlTraceCOM@ATL@@YAXXZ DD imagerel ??__EatlTraceCOM@ATL@@YAXXZ
	DD	imagerel ??__EatlTraceCOM@ATL@@YAXXZ+46
	DD	imagerel $unwind$??__EatlTraceCOM@ATL@@YAXXZ
pdata	ENDS
;	COMDAT pdata
pdata	SEGMENT
$pdata$??0?$CTraceCategoryEx@$03$0A@@ATL@@QEAA@PEBD@Z DD imagerel $LN3
	DD	imagerel $LN3+61
	DD	imagerel $unwind$??0?$CTraceCategoryEx@$03$0A@@ATL@@QEAA@PEBD@Z
pdata	ENDS
;	COMDAT pdata
pdata	SEGMENT
$pdata$??__EatlTraceQI@ATL@@YAXXZ DD imagerel ??__EatlTraceQI@ATL@@YAXXZ
	DD	imagerel ??__EatlTraceQI@ATL@@YAXXZ+46
	DD	imagerel $unwind$??__EatlTraceQI@ATL@@YAXXZ
pdata	ENDS
;	COMDAT pdata
pdata	SEGMENT
$pdata$??0?$CTraceCategoryEx@$07$0A@@ATL@@QEAA@PEBD@Z DD imagerel $LN3
	DD	imagerel $LN3+61
	DD	imagerel $unwind$??0?$CTraceCategoryEx@$07$0A@@ATL@@QEAA@PEBD@Z
pdata	ENDS
;	COMDAT pdata
pdata	SEGMENT
$pdata$??__EatlTraceRegistrar@ATL@@YAXXZ DD imagerel ??__EatlTraceRegistrar@ATL@@YAXXZ
	DD	imagerel ??__EatlTraceRegistrar@ATL@@YAXXZ+46
	DD	imagerel $unwind$??__EatlTraceRegistrar@ATL@@YAXXZ
pdata	ENDS
;	COMDAT pdata
pdata	SEGMENT
$pdata$??0?$CTraceCategoryEx@$0BA@$0A@@ATL@@QEAA@PEBD@Z DD imagerel $LN3
	DD	imagerel $LN3+61
	DD	imagerel $unwind$??0?$CTraceCategoryEx@$0BA@$0A@@ATL@@QEAA@PEBD@Z
pdata	ENDS
;	COMDAT pdata
pdata	SEGMENT
$pdata$??__EatlTraceRefcount@ATL@@YAXXZ DD imagerel ??__EatlTraceRefcount@ATL@@YAXXZ
	DD	imagerel ??__EatlTraceRefcount@ATL@@YAXXZ+46
	DD	imagerel $unwind$??__EatlTraceRefcount@ATL@@YAXXZ
pdata	ENDS
;	COMDAT pdata
pdata	SEGMENT
$pdata$??0?$CTraceCategoryEx@$0CA@$0A@@ATL@@QEAA@PEBD@Z DD imagerel $LN3
	DD	imagerel $LN3+61
	DD	imagerel $unwind$??0?$CTraceCategoryEx@$0CA@$0A@@ATL@@QEAA@PEBD@Z
pdata	ENDS
;	COMDAT pdata
pdata	SEGMENT
$pdata$??B?$CTraceCategoryEx@$0CA@$0A@@ATL@@QEAAIXZ DD imagerel $LN3
	DD	imagerel $LN3+13
	DD	imagerel $unwind$??B?$CTraceCategoryEx@$0CA@$0A@@ATL@@QEAAIXZ
pdata	ENDS
;	COMDAT pdata
pdata	SEGMENT
$pdata$??__EatlTraceWindowing@ATL@@YAXXZ DD imagerel ??__EatlTraceWindowing@ATL@@YAXXZ
	DD	imagerel ??__EatlTraceWindowing@ATL@@YAXXZ+46
	DD	imagerel $unwind$??__EatlTraceWindowing@ATL@@YAXXZ
pdata	ENDS
;	COMDAT pdata
pdata	SEGMENT
$pdata$??0?$CTraceCategoryEx@$0EA@$0A@@ATL@@QEAA@PEBD@Z DD imagerel $LN3
	DD	imagerel $LN3+61
	DD	imagerel $unwind$??0?$CTraceCategoryEx@$0EA@$0A@@ATL@@QEAA@PEBD@Z
pdata	ENDS
;	COMDAT pdata
pdata	SEGMENT
$pdata$??__EatlTraceControls@ATL@@YAXXZ DD imagerel ??__EatlTraceControls@ATL@@YAXXZ
	DD	imagerel ??__EatlTraceControls@ATL@@YAXXZ+46
	DD	imagerel $unwind$??__EatlTraceControls@ATL@@YAXXZ
pdata	ENDS
;	COMDAT pdata
pdata	SEGMENT
$pdata$??0?$CTraceCategoryEx@$0IA@$0A@@ATL@@QEAA@PEBD@Z DD imagerel $LN3
	DD	imagerel $LN3+61
	DD	imagerel $unwind$??0?$CTraceCategoryEx@$0IA@$0A@@ATL@@QEAA@PEBD@Z
pdata	ENDS
;	COMDAT pdata
pdata	SEGMENT
$pdata$??__EatlTraceHosting@ATL@@YAXXZ DD imagerel ??__EatlTraceHosting@ATL@@YAXXZ
	DD	imagerel ??__EatlTraceHosting@ATL@@YAXXZ+46
	DD	imagerel $unwind$??__EatlTraceHosting@ATL@@YAXXZ
pdata	ENDS
;	COMDAT pdata
pdata	SEGMENT
$pdata$??0?$CTraceCategoryEx@$0BAA@$0A@@ATL@@QEAA@PEBD@Z DD imagerel $LN3
	DD	imagerel $LN3+61
	DD	imagerel $unwind$??0?$CTraceCategoryEx@$0BAA@$0A@@ATL@@QEAA@PEBD@Z
pdata	ENDS
;	COMDAT pdata
pdata	SEGMENT
$pdata$??__EatlTraceDBClient@ATL@@YAXXZ DD imagerel ??__EatlTraceDBClient@ATL@@YAXXZ
	DD	imagerel ??__EatlTraceDBClient@ATL@@YAXXZ+46
	DD	imagerel $unwind$??__EatlTraceDBClient@ATL@@YAXXZ
pdata	ENDS
;	COMDAT pdata
pdata	SEGMENT
$pdata$??0?$CTraceCategoryEx@$0CAA@$0A@@ATL@@QEAA@PEBD@Z DD imagerel $LN3
	DD	imagerel $LN3+61
	DD	imagerel $unwind$??0?$CTraceCategoryEx@$0CAA@$0A@@ATL@@QEAA@PEBD@Z
pdata	ENDS
;	COMDAT pdata
pdata	SEGMENT
$pdata$??__EatlTraceDBProvider@ATL@@YAXXZ DD imagerel ??__EatlTraceDBProvider@ATL@@YAXXZ
	DD	imagerel ??__EatlTraceDBProvider@ATL@@YAXXZ+46
	DD	imagerel $unwind$??__EatlTraceDBProvider@ATL@@YAXXZ
pdata	ENDS
;	COMDAT pdata
pdata	SEGMENT
$pdata$??0?$CTraceCategoryEx@$0EAA@$0A@@ATL@@QEAA@PEBD@Z DD imagerel $LN3
	DD	imagerel $LN3+61
	DD	imagerel $unwind$??0?$CTraceCategoryEx@$0EAA@$0A@@ATL@@QEAA@PEBD@Z
pdata	ENDS
;	COMDAT pdata
pdata	SEGMENT
$pdata$??__EatlTraceSnapin@ATL@@YAXXZ DD imagerel ??__EatlTraceSnapin@ATL@@YAXXZ
	DD	imagerel ??__EatlTraceSnapin@ATL@@YAXXZ+46
	DD	imagerel $unwind$??__EatlTraceSnapin@ATL@@YAXXZ
pdata	ENDS
;	COMDAT pdata
pdata	SEGMENT
$pdata$??0?$CTraceCategoryEx@$0IAA@$0A@@ATL@@QEAA@PEBD@Z DD imagerel $LN3
	DD	imagerel $LN3+61
	DD	imagerel $unwind$??0?$CTraceCategoryEx@$0IAA@$0A@@ATL@@QEAA@PEBD@Z
pdata	ENDS
;	COMDAT pdata
pdata	SEGMENT
$pdata$??__EatlTraceNotImpl@ATL@@YAXXZ DD imagerel ??__EatlTraceNotImpl@ATL@@YAXXZ
	DD	imagerel ??__EatlTraceNotImpl@ATL@@YAXXZ+46
	DD	imagerel $unwind$??__EatlTraceNotImpl@ATL@@YAXXZ
pdata	ENDS
;	COMDAT pdata
pdata	SEGMENT
$pdata$??0?$CTraceCategoryEx@$0BAAA@$0A@@ATL@@QEAA@PEBD@Z DD imagerel $LN3
	DD	imagerel $LN3+61
	DD	imagerel $unwind$??0?$CTraceCategoryEx@$0BAAA@$0A@@ATL@@QEAA@PEBD@Z
pdata	ENDS
;	COMDAT pdata
pdata	SEGMENT
$pdata$??__EatlTraceAllocation@ATL@@YAXXZ DD imagerel ??__EatlTraceAllocation@ATL@@YAXXZ
	DD	imagerel ??__EatlTraceAllocation@ATL@@YAXXZ+46
	DD	imagerel $unwind$??__EatlTraceAllocation@ATL@@YAXXZ
pdata	ENDS
;	COMDAT pdata
pdata	SEGMENT
$pdata$??0?$CTraceCategoryEx@$0CAAA@$0A@@ATL@@QEAA@PEBD@Z DD imagerel $LN3
	DD	imagerel $LN3+61
	DD	imagerel $unwind$??0?$CTraceCategoryEx@$0CAAA@$0A@@ATL@@QEAA@PEBD@Z
pdata	ENDS
;	COMDAT pdata
pdata	SEGMENT
$pdata$??__EatlTraceException@ATL@@YAXXZ DD imagerel ??__EatlTraceException@ATL@@YAXXZ
	DD	imagerel ??__EatlTraceException@ATL@@YAXXZ+46
	DD	imagerel $unwind$??__EatlTraceException@ATL@@YAXXZ
pdata	ENDS
;	COMDAT pdata
pdata	SEGMENT
$pdata$??0?$CTraceCategoryEx@$0EAAA@$0A@@ATL@@QEAA@PEBD@Z DD imagerel $LN3
	DD	imagerel $LN3+61
	DD	imagerel $unwind$??0?$CTraceCategoryEx@$0EAAA@$0A@@ATL@@QEAA@PEBD@Z
pdata	ENDS
;	COMDAT pdata
pdata	SEGMENT
$pdata$??__EatlTraceTime@ATL@@YAXXZ DD imagerel ??__EatlTraceTime@ATL@@YAXXZ
	DD	imagerel ??__EatlTraceTime@ATL@@YAXXZ+46
	DD	imagerel $unwind$??__EatlTraceTime@ATL@@YAXXZ
pdata	ENDS
;	COMDAT pdata
pdata	SEGMENT
$pdata$??0?$CTraceCategoryEx@$0IAAA@$0A@@ATL@@QEAA@PEBD@Z DD imagerel $LN3
	DD	imagerel $LN3+61
	DD	imagerel $unwind$??0?$CTraceCategoryEx@$0IAAA@$0A@@ATL@@QEAA@PEBD@Z
pdata	ENDS
;	COMDAT pdata
pdata	SEGMENT
$pdata$??__EatlTraceCache@ATL@@YAXXZ DD imagerel ??__EatlTraceCache@ATL@@YAXXZ
	DD	imagerel ??__EatlTraceCache@ATL@@YAXXZ+46
	DD	imagerel $unwind$??__EatlTraceCache@ATL@@YAXXZ
pdata	ENDS
;	COMDAT pdata
pdata	SEGMENT
$pdata$??0?$CTraceCategoryEx@$0BAAAA@$0A@@ATL@@QEAA@PEBD@Z DD imagerel $LN3
	DD	imagerel $LN3+61
	DD	imagerel $unwind$??0?$CTraceCategoryEx@$0BAAAA@$0A@@ATL@@QEAA@PEBD@Z
pdata	ENDS
;	COMDAT pdata
pdata	SEGMENT
$pdata$??__EatlTraceStencil@ATL@@YAXXZ DD imagerel ??__EatlTraceStencil@ATL@@YAXXZ
	DD	imagerel ??__EatlTraceStencil@ATL@@YAXXZ+46
	DD	imagerel $unwind$??__EatlTraceStencil@ATL@@YAXXZ
pdata	ENDS
;	COMDAT pdata
pdata	SEGMENT
$pdata$??0?$CTraceCategoryEx@$0CAAAA@$0A@@ATL@@QEAA@PEBD@Z DD imagerel $LN3
	DD	imagerel $LN3+61
	DD	imagerel $unwind$??0?$CTraceCategoryEx@$0CAAAA@$0A@@ATL@@QEAA@PEBD@Z
pdata	ENDS
;	COMDAT pdata
pdata	SEGMENT
$pdata$??__EatlTraceString@ATL@@YAXXZ DD imagerel ??__EatlTraceString@ATL@@YAXXZ
	DD	imagerel ??__EatlTraceString@ATL@@YAXXZ+46
	DD	imagerel $unwind$??__EatlTraceString@ATL@@YAXXZ
pdata	ENDS
;	COMDAT pdata
pdata	SEGMENT
$pdata$??0?$CTraceCategoryEx@$0EAAAA@$0A@@ATL@@QEAA@PEBD@Z DD imagerel $LN3
	DD	imagerel $LN3+61
	DD	imagerel $unwind$??0?$CTraceCategoryEx@$0EAAAA@$0A@@ATL@@QEAA@PEBD@Z
pdata	ENDS
;	COMDAT pdata
pdata	SEGMENT
$pdata$??__EatlTraceMap@ATL@@YAXXZ DD imagerel ??__EatlTraceMap@ATL@@YAXXZ
	DD	imagerel ??__EatlTraceMap@ATL@@YAXXZ+46
	DD	imagerel $unwind$??__EatlTraceMap@ATL@@YAXXZ
pdata	ENDS
;	COMDAT pdata
pdata	SEGMENT
$pdata$??__EatlTraceUtil@ATL@@YAXXZ DD imagerel ??__EatlTraceUtil@ATL@@YAXXZ
	DD	imagerel ??__EatlTraceUtil@ATL@@YAXXZ+46
	DD	imagerel $unwind$??__EatlTraceUtil@ATL@@YAXXZ
pdata	ENDS
;	COMDAT pdata
pdata	SEGMENT
$pdata$??0?$CTraceCategoryEx@$0BAAAAA@$0A@@ATL@@QEAA@PEBD@Z DD imagerel $LN3
	DD	imagerel $LN3+61
	DD	imagerel $unwind$??0?$CTraceCategoryEx@$0BAAAAA@$0A@@ATL@@QEAA@PEBD@Z
pdata	ENDS
;	COMDAT pdata
pdata	SEGMENT
$pdata$??__EatlTraceSecurity@ATL@@YAXXZ DD imagerel ??__EatlTraceSecurity@ATL@@YAXXZ
	DD	imagerel ??__EatlTraceSecurity@ATL@@YAXXZ+46
	DD	imagerel $unwind$??__EatlTraceSecurity@ATL@@YAXXZ
pdata	ENDS
;	COMDAT pdata
pdata	SEGMENT
$pdata$??0?$CTraceCategoryEx@$0CAAAAA@$0A@@ATL@@QEAA@PEBD@Z DD imagerel $LN3
	DD	imagerel $LN3+61
	DD	imagerel $unwind$??0?$CTraceCategoryEx@$0CAAAAA@$0A@@ATL@@QEAA@PEBD@Z
pdata	ENDS
;	COMDAT pdata
pdata	SEGMENT
$pdata$??__EatlTraceSync@ATL@@YAXXZ DD imagerel ??__EatlTraceSync@ATL@@YAXXZ
	DD	imagerel ??__EatlTraceSync@ATL@@YAXXZ+46
	DD	imagerel $unwind$??__EatlTraceSync@ATL@@YAXXZ
pdata	ENDS
;	COMDAT pdata
pdata	SEGMENT
$pdata$??0?$CTraceCategoryEx@$0EAAAAA@$0A@@ATL@@QEAA@PEBD@Z DD imagerel $LN3
	DD	imagerel $LN3+61
	DD	imagerel $unwind$??0?$CTraceCategoryEx@$0EAAAAA@$0A@@ATL@@QEAA@PEBD@Z
pdata	ENDS
;	COMDAT pdata
pdata	SEGMENT
$pdata$??__EatlTraceISAPI@ATL@@YAXXZ DD imagerel ??__EatlTraceISAPI@ATL@@YAXXZ
	DD	imagerel ??__EatlTraceISAPI@ATL@@YAXXZ+46
	DD	imagerel $unwind$??__EatlTraceISAPI@ATL@@YAXXZ
pdata	ENDS
;	COMDAT pdata
pdata	SEGMENT
$pdata$?GetCategoryName@CTrace@ATL@@CAPEA_WI@Z DD imagerel $LN7
	DD	imagerel $LN7+116
	DD	imagerel $unwind$?GetCategoryName@CTrace@ATL@@CAPEA_WI@Z
pdata	ENDS
;	COMDAT pdata
pdata	SEGMENT
$pdata$?TraceV@CTrace@ATL@@CAXPEBDHIIPEB_W@Z DD imagerel $LN13
	DD	imagerel $LN13+686
	DD	imagerel $unwind$?TraceV@CTrace@ATL@@CAXPEBDHIIPEB_W@Z
pdata	ENDS
;	COMDAT pdata
pdata	SEGMENT
$pdata$?dtor$0@?0??TraceV@CTrace@ATL@@CAXPEBDHIIPEB_W@Z@4HA DD imagerel ?dtor$0@?0??TraceV@CTrace@ATL@@CAXPEBDHIIPEB_W@Z@4HA
	DD	imagerel ?dtor$0@?0??TraceV@CTrace@ATL@@CAXPEBDHIIPEB_W@Z@4HA+38
	DD	imagerel $unwind$?dtor$0@?0??TraceV@CTrace@ATL@@CAXPEBDHIIPEB_W@Z@4HA
pdata	ENDS
;	COMDAT pdata
pdata	SEGMENT
$pdata$?TraceV@CTrace@ATL@@SAXPEBDHII0PEAD@Z DD imagerel $LN10
	DD	imagerel $LN10+567
	DD	imagerel $unwind$?TraceV@CTrace@ATL@@SAXPEBDHII0PEAD@Z
pdata	ENDS
;	COMDAT pdata
pdata	SEGMENT
$pdata$?dtor$0@?0??TraceV@CTrace@ATL@@SAXPEBDHII0PEAD@Z@4HA DD imagerel ?dtor$0@?0??TraceV@CTrace@ATL@@SAXPEBDHII0PEAD@Z@4HA
	DD	imagerel ?dtor$0@?0??TraceV@CTrace@ATL@@SAXPEBDHII0PEAD@Z@4HA+35
	DD	imagerel $unwind$?dtor$0@?0??TraceV@CTrace@ATL@@SAXPEBDHII0PEAD@Z@4HA
pdata	ENDS
;	COMDAT pdata
pdata	SEGMENT
$pdata$?dtor$1@?0??TraceV@CTrace@ATL@@SAXPEBDHII0PEAD@Z@4HA DD imagerel ?dtor$1@?0??TraceV@CTrace@ATL@@SAXPEBDHII0PEAD@Z@4HA
	DD	imagerel ?dtor$1@?0??TraceV@CTrace@ATL@@SAXPEBDHII0PEAD@Z@4HA+35
	DD	imagerel $unwind$?dtor$1@?0??TraceV@CTrace@ATL@@SAXPEBDHII0PEAD@Z@4HA
pdata	ENDS
;	COMDAT pdata
pdata	SEGMENT
$pdata$?RegisterCategory@CTrace@ATL@@SAXPEBDI@Z DD imagerel $LN6
	DD	imagerel $LN6+328
	DD	imagerel $unwind$?RegisterCategory@CTrace@ATL@@SAXPEBDI@Z
pdata	ENDS
;	COMDAT pdata
pdata	SEGMENT
$pdata$??0?$CHeapPtrBase@_WVCCRTAllocator@ATL@@@ATL@@IEAA@XZ DD imagerel $LN3
	DD	imagerel $LN3+25
	DD	imagerel $unwind$??0?$CHeapPtrBase@_WVCCRTAllocator@ATL@@@ATL@@IEAA@XZ
pdata	ENDS
;	COMDAT pdata
pdata	SEGMENT
$pdata$??1?$CHeapPtrBase@_WVCCRTAllocator@ATL@@@ATL@@QEAA@XZ DD imagerel $LN3
	DD	imagerel $LN3+46
	DD	imagerel $unwind$??1?$CHeapPtrBase@_WVCCRTAllocator@ATL@@@ATL@@QEAA@XZ
pdata	ENDS
;	COMDAT pdata
pdata	SEGMENT
$pdata$??B?$CHeapPtrBase@_WVCCRTAllocator@ATL@@@ATL@@QEBAPEA_WXZ DD imagerel $LN3
	DD	imagerel $LN3+16
	DD	imagerel $unwind$??B?$CHeapPtrBase@_WVCCRTAllocator@ATL@@@ATL@@QEBAPEA_WXZ
pdata	ENDS
;	COMDAT pdata
pdata	SEGMENT
$pdata$?AllocateBytes@?$CHeapPtrBase@_WVCCRTAllocator@ATL@@@ATL@@QEAA_N_K@Z DD imagerel $LN5
	DD	imagerel $LN5+146
	DD	imagerel $unwind$?AllocateBytes@?$CHeapPtrBase@_WVCCRTAllocator@ATL@@@ATL@@QEAA_N_K@Z
pdata	ENDS
;	COMDAT pdata
pdata	SEGMENT
$pdata$?Free@?$CHeapPtrBase@_WVCCRTAllocator@ATL@@@ATL@@QEAAXXZ DD imagerel $LN3
	DD	imagerel $LN3+61
	DD	imagerel $unwind$?Free@?$CHeapPtrBase@_WVCCRTAllocator@ATL@@@ATL@@QEAAXXZ
pdata	ENDS
;	COMDAT pdata
pdata	SEGMENT
$pdata$??0?$CHeapPtr@_WVCCRTAllocator@ATL@@@ATL@@QEAA@XZ DD imagerel $LN4
	DD	imagerel $LN4+52
	DD	imagerel $unwind$??0?$CHeapPtr@_WVCCRTAllocator@ATL@@@ATL@@QEAA@XZ
pdata	ENDS
;	COMDAT pdata
pdata	SEGMENT
$pdata$?dtor$0@?0???0?$CHeapPtr@_WVCCRTAllocator@ATL@@@ATL@@QEAA@XZ@4HA DD imagerel ?dtor$0@?0???0?$CHeapPtr@_WVCCRTAllocator@ATL@@@ATL@@QEAA@XZ@4HA
	DD	imagerel ?dtor$0@?0???0?$CHeapPtr@_WVCCRTAllocator@ATL@@@ATL@@QEAA@XZ@4HA+35
	DD	imagerel $unwind$?dtor$0@?0???0?$CHeapPtr@_WVCCRTAllocator@ATL@@@ATL@@QEAA@XZ@4HA
pdata	ENDS
;	COMDAT pdata
pdata	SEGMENT
$pdata$?Allocate@?$CHeapPtr@_WVCCRTAllocator@ATL@@@ATL@@QEAA_N_K@Z DD imagerel $LN4
	DD	imagerel $LN4+115
	DD	imagerel $unwind$?Allocate@?$CHeapPtr@_WVCCRTAllocator@ATL@@@ATL@@QEAA_N_K@Z
pdata	ENDS
;	COMDAT pdata
pdata	SEGMENT
$pdata$??1?$CHeapPtr@_WVCCRTAllocator@ATL@@@ATL@@QEAA@XZ DD imagerel $LN4
	DD	imagerel $LN4+47
	DD	imagerel $unwind$??1?$CHeapPtr@_WVCCRTAllocator@ATL@@@ATL@@QEAA@XZ
pdata	ENDS
;	COMDAT pdata
pdata	SEGMENT
$pdata$?dtor$0@?0???1?$CHeapPtr@_WVCCRTAllocator@ATL@@@ATL@@QEAA@XZ@4HA DD imagerel ?dtor$0@?0???1?$CHeapPtr@_WVCCRTAllocator@ATL@@@ATL@@QEAA@XZ@4HA
	DD	imagerel ?dtor$0@?0???1?$CHeapPtr@_WVCCRTAllocator@ATL@@@ATL@@QEAA@XZ@4HA+35
	DD	imagerel $unwind$?dtor$0@?0???1?$CHeapPtr@_WVCCRTAllocator@ATL@@@ATL@@QEAA@XZ@4HA
pdata	ENDS
;	COMDAT pdata
pdata	SEGMENT
$pdata$??0?$CHeapPtrBase@DVCCRTAllocator@ATL@@@ATL@@IEAA@XZ DD imagerel $LN3
	DD	imagerel $LN3+25
	DD	imagerel $unwind$??0?$CHeapPtrBase@DVCCRTAllocator@ATL@@@ATL@@IEAA@XZ
pdata	ENDS
;	COMDAT pdata
pdata	SEGMENT
$pdata$??1?$CHeapPtrBase@DVCCRTAllocator@ATL@@@ATL@@QEAA@XZ DD imagerel $LN3
	DD	imagerel $LN3+46
	DD	imagerel $unwind$??1?$CHeapPtrBase@DVCCRTAllocator@ATL@@@ATL@@QEAA@XZ
pdata	ENDS
;	COMDAT pdata
pdata	SEGMENT
$pdata$??B?$CHeapPtrBase@DVCCRTAllocator@ATL@@@ATL@@QEBAPEADXZ DD imagerel $LN3
	DD	imagerel $LN3+16
	DD	imagerel $unwind$??B?$CHeapPtrBase@DVCCRTAllocator@ATL@@@ATL@@QEBAPEADXZ
pdata	ENDS
;	COMDAT pdata
pdata	SEGMENT
$pdata$?AllocateBytes@?$CHeapPtrBase@DVCCRTAllocator@ATL@@@ATL@@QEAA_N_K@Z DD imagerel $LN5
	DD	imagerel $LN5+146
	DD	imagerel $unwind$?AllocateBytes@?$CHeapPtrBase@DVCCRTAllocator@ATL@@@ATL@@QEAA_N_K@Z
pdata	ENDS
;	COMDAT pdata
pdata	SEGMENT
$pdata$?Free@?$CHeapPtrBase@DVCCRTAllocator@ATL@@@ATL@@QEAAXXZ DD imagerel $LN3
	DD	imagerel $LN3+61
	DD	imagerel $unwind$?Free@?$CHeapPtrBase@DVCCRTAllocator@ATL@@@ATL@@QEAAXXZ
pdata	ENDS
;	COMDAT pdata
pdata	SEGMENT
$pdata$??0?$CHeapPtr@DVCCRTAllocator@ATL@@@ATL@@QEAA@XZ DD imagerel $LN4
	DD	imagerel $LN4+52
	DD	imagerel $unwind$??0?$CHeapPtr@DVCCRTAllocator@ATL@@@ATL@@QEAA@XZ
pdata	ENDS
;	COMDAT pdata
pdata	SEGMENT
$pdata$?dtor$0@?0???0?$CHeapPtr@DVCCRTAllocator@ATL@@@ATL@@QEAA@XZ@4HA DD imagerel ?dtor$0@?0???0?$CHeapPtr@DVCCRTAllocator@ATL@@@ATL@@QEAA@XZ@4HA
	DD	imagerel ?dtor$0@?0???0?$CHeapPtr@DVCCRTAllocator@ATL@@@ATL@@QEAA@XZ@4HA+35
	DD	imagerel $unwind$?dtor$0@?0???0?$CHeapPtr@DVCCRTAllocator@ATL@@@ATL@@QEAA@XZ@4HA
pdata	ENDS
;	COMDAT pdata
pdata	SEGMENT
$pdata$?Allocate@?$CHeapPtr@DVCCRTAllocator@ATL@@@ATL@@QEAA_N_K@Z DD imagerel $LN4
	DD	imagerel $LN4+115
	DD	imagerel $unwind$?Allocate@?$CHeapPtr@DVCCRTAllocator@ATL@@@ATL@@QEAA_N_K@Z
pdata	ENDS
;	COMDAT pdata
pdata	SEGMENT
$pdata$??1?$CHeapPtr@DVCCRTAllocator@ATL@@@ATL@@QEAA@XZ DD imagerel $LN4
	DD	imagerel $LN4+47
	DD	imagerel $unwind$??1?$CHeapPtr@DVCCRTAllocator@ATL@@@ATL@@QEAA@XZ
pdata	ENDS
;	COMDAT pdata
pdata	SEGMENT
$pdata$?dtor$0@?0???1?$CHeapPtr@DVCCRTAllocator@ATL@@@ATL@@QEAA@XZ@4HA DD imagerel ?dtor$0@?0???1?$CHeapPtr@DVCCRTAllocator@ATL@@@ATL@@QEAA@XZ@4HA
	DD	imagerel ?dtor$0@?0???1?$CHeapPtr@DVCCRTAllocator@ATL@@@ATL@@QEAA@XZ@4HA+35
	DD	imagerel $unwind$?dtor$0@?0???1?$CHeapPtr@DVCCRTAllocator@ATL@@@ATL@@QEAA@XZ@4HA
pdata	ENDS
;	COMDAT pdata
pdata	SEGMENT
$pdata$??0CPreserveLastError@ATL@@QEAA@XZ DD imagerel $LN3
	DD	imagerel $LN3+54
	DD	imagerel $unwind$??0CPreserveLastError@ATL@@QEAA@XZ
pdata	ENDS
;	COMDAT pdata
pdata	SEGMENT
$pdata$??1CPreserveLastError@ATL@@QEAA@XZ DD imagerel $LN3
	DD	imagerel $LN3+50
	DD	imagerel $unwind$??1CPreserveLastError@ATL@@QEAA@XZ
pdata	ENDS
;	COMDAT pdata
pdata	SEGMENT
$pdata$??0CTraceFileAndLineInfo@ATL@@QEAA@PEBDH@Z DD imagerel $LN3
	DD	imagerel $LN3+48
	DD	imagerel $unwind$??0CTraceFileAndLineInfo@ATL@@QEAA@PEBDH@Z
pdata	ENDS
;	COMDAT pdata
pdata	SEGMENT
$pdata$??RCTraceFileAndLineInfo@ATL@@QEBAXHIPEBDZZ DD imagerel $LN4
	DD	imagerel $LN4+177
	DD	imagerel $unwind$??RCTraceFileAndLineInfo@ATL@@QEBAXHIPEBDZZ
pdata	ENDS
;	COMDAT pdata
pdata	SEGMENT
$pdata$?dtor$0@?0???RCTraceFileAndLineInfo@ATL@@QEBAXHIPEBDZZ@4HA DD imagerel ?dtor$0@?0???RCTraceFileAndLineInfo@ATL@@QEBAXHIPEBDZZ@4HA
	DD	imagerel ?dtor$0@?0???RCTraceFileAndLineInfo@ATL@@QEBAXHIPEBDZZ@4HA+35
	DD	imagerel $unwind$?dtor$0@?0???RCTraceFileAndLineInfo@ATL@@QEBAXHIPEBDZZ@4HA
pdata	ENDS
;	COMDAT pdata
pdata	SEGMENT
$pdata$?_AtlRaiseException@ATL@@YAXKK@Z DD imagerel $LN3
	DD	imagerel $LN3+58
	DD	imagerel $unwind$?_AtlRaiseException@ATL@@YAXKK@Z
pdata	ENDS
;	COMDAT pdata
pdata	SEGMENT
$pdata$?_AtlInitializeCriticalSectionEx@ATL@@YAHPEAU_RTL_CRITICAL_SECTION@@KK@Z DD imagerel $LN3
	DD	imagerel $LN3+65
	DD	imagerel $unwind$?_AtlInitializeCriticalSectionEx@ATL@@YAHPEAU_RTL_CRITICAL_SECTION@@KK@Z
pdata	ENDS
;	COMDAT pdata
pdata	SEGMENT
$pdata$??0CComCriticalSection@ATL@@QEAA@XZ DD imagerel $LN3
	DD	imagerel $LN3+62
	DD	imagerel $unwind$??0CComCriticalSection@ATL@@QEAA@XZ
pdata	ENDS
;	COMDAT pdata
pdata	SEGMENT
$pdata$??1CComCriticalSection@ATL@@QEAA@XZ DD imagerel $LN3
	DD	imagerel $LN3+8
	DD	imagerel $unwind$??1CComCriticalSection@ATL@@QEAA@XZ
pdata	ENDS
;	COMDAT pdata
pdata	SEGMENT
$pdata$?Init@CComCriticalSection@ATL@@QEAAJXZ DD imagerel $LN4
	DD	imagerel $LN4+87
	DD	imagerel $unwind$?Init@CComCriticalSection@ATL@@QEAAJXZ
pdata	ENDS
;	COMDAT pdata
pdata	SEGMENT
$pdata$?Term@CComCriticalSection@ATL@@QEAAJXZ DD imagerel $LN3
	DD	imagerel $LN3+52
	DD	imagerel $unwind$?Term@CComCriticalSection@ATL@@QEAAJXZ
pdata	ENDS
;	COMDAT pdata
pdata	SEGMENT
$pdata$?GetModuleInstance@CAtlBaseModule@ATL@@QEAAPEAUHINSTANCE__@@XZ DD imagerel $LN3
	DD	imagerel $LN3+17
	DD	imagerel $unwind$?GetModuleInstance@CAtlBaseModule@ATL@@QEAAPEAUHINSTANCE__@@XZ
pdata	ENDS
;	COMDAT pdata
pdata	SEGMENT
$pdata$??0_ATL_COM_MODULE70@ATL@@QEAA@XZ DD imagerel $LN4
	DD	imagerel $LN4+59
	DD	imagerel $unwind$??0_ATL_COM_MODULE70@ATL@@QEAA@XZ
pdata	ENDS
;	COMDAT pdata
pdata	SEGMENT
$pdata$?dtor$0@?0???0_ATL_COM_MODULE70@ATL@@QEAA@XZ@4HA DD imagerel ?dtor$0@?0???0_ATL_COM_MODULE70@ATL@@QEAA@XZ@4HA
	DD	imagerel ?dtor$0@?0???0_ATL_COM_MODULE70@ATL@@QEAA@XZ@4HA+39
	DD	imagerel $unwind$?dtor$0@?0???0_ATL_COM_MODULE70@ATL@@QEAA@XZ@4HA
pdata	ENDS
;	COMDAT pdata
pdata	SEGMENT
$pdata$??1_ATL_COM_MODULE70@ATL@@QEAA@XZ DD imagerel $LN4
	DD	imagerel $LN4+54
	DD	imagerel $unwind$??1_ATL_COM_MODULE70@ATL@@QEAA@XZ
pdata	ENDS
;	COMDAT pdata
pdata	SEGMENT
$pdata$?dtor$0@?0???1_ATL_COM_MODULE70@ATL@@QEAA@XZ@4HA DD imagerel ?dtor$0@?0???1_ATL_COM_MODULE70@ATL@@QEAA@XZ@4HA
	DD	imagerel ?dtor$0@?0???1_ATL_COM_MODULE70@ATL@@QEAA@XZ@4HA+39
	DD	imagerel $unwind$?dtor$0@?0???1_ATL_COM_MODULE70@ATL@@QEAA@XZ@4HA
pdata	ENDS
;	COMDAT pdata
pdata	SEGMENT
$pdata$??0?$CSimpleArray@GV?$CSimpleArrayEqualHelper@G@ATL@@@ATL@@QEAA@XZ DD imagerel $LN3
	DD	imagerel $LN3+49
	DD	imagerel $unwind$??0?$CSimpleArray@GV?$CSimpleArrayEqualHelper@G@ATL@@@ATL@@QEAA@XZ
pdata	ENDS
;	COMDAT pdata
pdata	SEGMENT
$pdata$??1?$CSimpleArray@GV?$CSimpleArrayEqualHelper@G@ATL@@@ATL@@QEAA@XZ DD imagerel $LN3
	DD	imagerel $LN3+47
	DD	imagerel $unwind$??1?$CSimpleArray@GV?$CSimpleArrayEqualHelper@G@ATL@@@ATL@@QEAA@XZ
pdata	ENDS
;	COMDAT pdata
pdata	SEGMENT
$pdata$?GetSize@?$CSimpleArray@GV?$CSimpleArrayEqualHelper@G@ATL@@@ATL@@QEBAHXZ DD imagerel $LN3
	DD	imagerel $LN3+16
	DD	imagerel $unwind$?GetSize@?$CSimpleArray@GV?$CSimpleArrayEqualHelper@G@ATL@@@ATL@@QEBAHXZ
pdata	ENDS
;	COMDAT pdata
pdata	SEGMENT
$pdata$?RemoveAll@?$CSimpleArray@GV?$CSimpleArrayEqualHelper@G@ATL@@@ATL@@QEAAXXZ DD imagerel $LN7
	DD	imagerel $LN7+133
	DD	imagerel $unwind$?RemoveAll@?$CSimpleArray@GV?$CSimpleArrayEqualHelper@G@ATL@@@ATL@@QEAAXXZ
pdata	ENDS
;	COMDAT pdata
pdata	SEGMENT
$pdata$??A?$CSimpleArray@GV?$CSimpleArrayEqualHelper@G@ATL@@@ATL@@QEAAAEAGH@Z DD imagerel $LN7
	DD	imagerel $LN7+173
	DD	imagerel $unwind$??A?$CSimpleArray@GV?$CSimpleArrayEqualHelper@G@ATL@@@ATL@@QEAAAEAGH@Z
pdata	ENDS
;	COMDAT pdata
pdata	SEGMENT
$pdata$??0_ATL_WIN_MODULE70@ATL@@QEAA@XZ DD imagerel $LN5
	DD	imagerel $LN5+77
	DD	imagerel $unwind$??0_ATL_WIN_MODULE70@ATL@@QEAA@XZ
pdata	ENDS
;	COMDAT pdata
pdata	SEGMENT
$pdata$?dtor$0@?0???0_ATL_WIN_MODULE70@ATL@@QEAA@XZ@4HA DD imagerel ?dtor$0@?0???0_ATL_WIN_MODULE70@ATL@@QEAA@XZ@4HA
	DD	imagerel ?dtor$0@?0???0_ATL_WIN_MODULE70@ATL@@QEAA@XZ@4HA+39
	DD	imagerel $unwind$?dtor$0@?0???0_ATL_WIN_MODULE70@ATL@@QEAA@XZ@4HA
pdata	ENDS
;	COMDAT pdata
pdata	SEGMENT
$pdata$?dtor$1@?0???0_ATL_WIN_MODULE70@ATL@@QEAA@XZ@4HA DD imagerel ?dtor$1@?0???0_ATL_WIN_MODULE70@ATL@@QEAA@XZ@4HA
	DD	imagerel ?dtor$1@?0???0_ATL_WIN_MODULE70@ATL@@QEAA@XZ@4HA+39
	DD	imagerel $unwind$?dtor$1@?0???0_ATL_WIN_MODULE70@ATL@@QEAA@XZ@4HA
pdata	ENDS
;	COMDAT pdata
pdata	SEGMENT
$pdata$??1_ATL_WIN_MODULE70@ATL@@QEAA@XZ DD imagerel $LN5
	DD	imagerel $LN5+72
	DD	imagerel $unwind$??1_ATL_WIN_MODULE70@ATL@@QEAA@XZ
pdata	ENDS
;	COMDAT pdata
pdata	SEGMENT
$pdata$?dtor$0@?0???1_ATL_WIN_MODULE70@ATL@@QEAA@XZ@4HA DD imagerel ?dtor$0@?0???1_ATL_WIN_MODULE70@ATL@@QEAA@XZ@4HA
	DD	imagerel ?dtor$0@?0???1_ATL_WIN_MODULE70@ATL@@QEAA@XZ@4HA+39
	DD	imagerel $unwind$?dtor$0@?0???1_ATL_WIN_MODULE70@ATL@@QEAA@XZ@4HA
pdata	ENDS
;	COMDAT pdata
pdata	SEGMENT
$pdata$?dtor$1@?0???1_ATL_WIN_MODULE70@ATL@@QEAA@XZ@4HA DD imagerel ?dtor$1@?0???1_ATL_WIN_MODULE70@ATL@@QEAA@XZ@4HA
	DD	imagerel ?dtor$1@?0???1_ATL_WIN_MODULE70@ATL@@QEAA@XZ@4HA+39
	DD	imagerel $unwind$?dtor$1@?0???1_ATL_WIN_MODULE70@ATL@@QEAA@XZ@4HA
pdata	ENDS
;	COMDAT pdata
pdata	SEGMENT
$pdata$?AtlWinModuleInit@ATL@@YAJPEAU_ATL_WIN_MODULE70@1@@Z DD imagerel $LN7
	DD	imagerel $LN7+254
	DD	imagerel $unwind$?AtlWinModuleInit@ATL@@YAJPEAU_ATL_WIN_MODULE70@1@@Z
pdata	ENDS
;	COMDAT pdata
pdata	SEGMENT
$pdata$?AtlWinModuleTerm@ATL@@YAJPEAU_ATL_WIN_MODULE70@1@PEAUHINSTANCE__@@@Z DD imagerel $LN9
	DD	imagerel $LN9+228
	DD	imagerel $unwind$?AtlWinModuleTerm@ATL@@YAJPEAU_ATL_WIN_MODULE70@1@PEAUHINSTANCE__@@@Z
pdata	ENDS
;	COMDAT pdata
pdata	SEGMENT
$pdata$??0CAtlComModule@ATL@@QEAA@XZ DD imagerel $LN6
	DD	imagerel $LN6+288
	DD	imagerel $unwind$??0CAtlComModule@ATL@@QEAA@XZ
pdata	ENDS
;	COMDAT pdata
pdata	SEGMENT
$pdata$?dtor$0@?0???0CAtlComModule@ATL@@QEAA@XZ@4HA DD imagerel ?dtor$0@?0???0CAtlComModule@ATL@@QEAA@XZ@4HA
	DD	imagerel ?dtor$0@?0???0CAtlComModule@ATL@@QEAA@XZ@4HA+35
	DD	imagerel $unwind$?dtor$0@?0???0CAtlComModule@ATL@@QEAA@XZ@4HA
pdata	ENDS
;	COMDAT pdata
pdata	SEGMENT
$pdata$??1CAtlComModule@ATL@@QEAA@XZ DD imagerel $LN4
	DD	imagerel $LN4+58
	DD	imagerel $unwind$??1CAtlComModule@ATL@@QEAA@XZ
pdata	ENDS
;	COMDAT pdata
pdata	SEGMENT
$pdata$?dtor$0@?0???1CAtlComModule@ATL@@QEAA@XZ@4HA DD imagerel ?dtor$0@?0???1CAtlComModule@ATL@@QEAA@XZ@4HA
	DD	imagerel ?dtor$0@?0???1CAtlComModule@ATL@@QEAA@XZ@4HA+35
	DD	imagerel $unwind$?dtor$0@?0???1CAtlComModule@ATL@@QEAA@XZ@4HA
pdata	ENDS
;	COMDAT pdata
pdata	SEGMENT
$pdata$?Term@CAtlComModule@ATL@@QEAAXXZ DD imagerel $LN9
	DD	imagerel $LN9+213
	DD	imagerel $unwind$?Term@CAtlComModule@ATL@@QEAAXXZ
pdata	ENDS
;	COMDAT pdata
pdata	SEGMENT
$pdata$??__E_AtlComModule@ATL@@YAXXZ DD imagerel ??__E_AtlComModule@ATL@@YAXXZ
	DD	imagerel ??__E_AtlComModule@ATL@@YAXXZ+51
	DD	imagerel $unwind$??__E_AtlComModule@ATL@@YAXXZ
pdata	ENDS
;	COMDAT pdata
pdata	SEGMENT
$pdata$??__F_AtlComModule@ATL@@YAXXZ DD imagerel ??__F_AtlComModule@ATL@@YAXXZ
	DD	imagerel ??__F_AtlComModule@ATL@@YAXXZ+39
	DD	imagerel $unwind$??__F_AtlComModule@ATL@@YAXXZ
pdata	ENDS
;	COMDAT pdata
pdata	SEGMENT
$pdata$??0CAtlWinModule@ATL@@QEAA@XZ DD imagerel $LN6
	DD	imagerel $LN6+167
	DD	imagerel $unwind$??0CAtlWinModule@ATL@@QEAA@XZ
pdata	ENDS
;	COMDAT pdata
pdata	SEGMENT
$pdata$?dtor$0@?0???0CAtlWinModule@ATL@@QEAA@XZ@4HA DD imagerel ?dtor$0@?0???0CAtlWinModule@ATL@@QEAA@XZ@4HA
	DD	imagerel ?dtor$0@?0???0CAtlWinModule@ATL@@QEAA@XZ@4HA+35
	DD	imagerel $unwind$?dtor$0@?0???0CAtlWinModule@ATL@@QEAA@XZ@4HA
pdata	ENDS
;	COMDAT pdata
pdata	SEGMENT
$pdata$??1CAtlWinModule@ATL@@QEAA@XZ DD imagerel $LN4
	DD	imagerel $LN4+58
	DD	imagerel $unwind$??1CAtlWinModule@ATL@@QEAA@XZ
pdata	ENDS
;	COMDAT pdata
pdata	SEGMENT
$pdata$?dtor$0@?0???1CAtlWinModule@ATL@@QEAA@XZ@4HA DD imagerel ?dtor$0@?0???1CAtlWinModule@ATL@@QEAA@XZ@4HA
	DD	imagerel ?dtor$0@?0???1CAtlWinModule@ATL@@QEAA@XZ@4HA+35
	DD	imagerel $unwind$?dtor$0@?0???1CAtlWinModule@ATL@@QEAA@XZ@4HA
pdata	ENDS
;	COMDAT pdata
pdata	SEGMENT
$pdata$?Term@CAtlWinModule@ATL@@QEAAXXZ DD imagerel $LN3
	DD	imagerel $LN3+61
	DD	imagerel $unwind$?Term@CAtlWinModule@ATL@@QEAAXXZ
pdata	ENDS
;	COMDAT pdata
pdata	SEGMENT
$pdata$??__E_AtlWinModule@ATL@@YAXXZ DD imagerel ??__E_AtlWinModule@ATL@@YAXXZ
	DD	imagerel ??__E_AtlWinModule@ATL@@YAXXZ+51
	DD	imagerel $unwind$??__E_AtlWinModule@ATL@@YAXXZ
pdata	ENDS
;	COMDAT pdata
pdata	SEGMENT
$pdata$??__F_AtlWinModule@ATL@@YAXXZ DD imagerel ??__F_AtlWinModule@ATL@@YAXXZ
	DD	imagerel ??__F_AtlWinModule@ATL@@YAXXZ+39
	DD	imagerel $unwind$??__F_AtlWinModule@ATL@@YAXXZ
pdata	ENDS
;	COMDAT pdata
pdata	SEGMENT
$pdata$??$AtlMultiply@_K@ATL@@YAJPEA_K_K1@Z DD imagerel $LN5
	DD	imagerel $LN5+124
	DD	imagerel $unwind$??$AtlMultiply@_K@ATL@@YAJPEA_K_K1@Z
pdata	ENDS
CRT$XCU	SEGMENT
?CspMatrixList$initializer$@@3P6AXXZEA DQ FLAT:??__ECspMatrixList@@YAXXZ ; CspMatrixList$initializer$
CRT$XCU	ENDS
;	COMDAT rtc$TMZ
rtc$TMZ	SEGMENT
_RTC_Shutdown.rtc$TMZ DQ FLAT:_RTC_Shutdown
rtc$TMZ	ENDS
;	COMDAT rtc$IMZ
rtc$IMZ	SEGMENT
_RTC_InitBase.rtc$IMZ DQ FLAT:_RTC_InitBase
rtc$IMZ	ENDS
;	COMDAT ??_C@_1BK@NHECDDNK@?$AAm?$AA_?$AAp?$AAD?$AAa?$AAt?$AAa?$AA?5?$AA?$DN?$AA?$DN?$AA?5?$AA0@
CONST	SEGMENT
??_C@_1BK@NHECDDNK@?$AAm?$AA_?$AAp?$AAD?$AAa?$AAt?$AAa?$AA?5?$AA?$DN?$AA?$DN?$AA?5?$AA0@ DB 'm'
	DB	00H, '_', 00H, 'p', 00H, 'D', 00H, 'a', 00H, 't', 00H, 'a', 00H
	DB	' ', 00H, '=', 00H, '=', 00H, ' ', 00H, '0', 00H, 00H, 00H ; `string'
CONST	ENDS
;	COMDAT ??_C@_1OK@ENELOBIL@?$AAC?$AA?3?$AA?2?$AAP?$AAr?$AAo?$AAg?$AAr?$AAa?$AAm?$AA?5?$AAF?$AAi?$AAl?$AAe@
CONST	SEGMENT
??_C@_1OK@ENELOBIL@?$AAC?$AA?3?$AA?2?$AAP?$AAr?$AAo?$AAg?$AAr?$AAa?$AAm?$AA?5?$AAF?$AAi?$AAl?$AAe@ DB 'C'
	DB	00H, ':', 00H, '\', 00H, 'P', 00H, 'r', 00H, 'o', 00H, 'g', 00H
	DB	'r', 00H, 'a', 00H, 'm', 00H, ' ', 00H, 'F', 00H, 'i', 00H, 'l'
	DB	00H, 'e', 00H, 's', 00H, ' ', 00H, '(', 00H, 'x', 00H, '8', 00H
	DB	'6', 00H, ')', 00H, '\', 00H, 'M', 00H, 'i', 00H, 'c', 00H, 'r'
	DB	00H, 'o', 00H, 's', 00H, 'o', 00H, 'f', 00H, 't', 00H, ' ', 00H
	DB	'V', 00H, 'i', 00H, 's', 00H, 'u', 00H, 'a', 00H, 'l', 00H, ' '
	DB	00H, 'S', 00H, 't', 00H, 'u', 00H, 'd', 00H, 'i', 00H, 'o', 00H
	DB	'\', 00H, '2', 00H, '0', 00H, '1', 00H, '9', 00H, '\', 00H, 'C'
	DB	00H, 'o', 00H, 'm', 00H, 'm', 00H, 'u', 00H, 'n', 00H, 'i', 00H
	DB	't', 00H, 'y', 00H, '\', 00H, 'V', 00H, 'C', 00H, '\', 00H, 'T'
	DB	00H, 'o', 00H, 'o', 00H, 'l', 00H, 's', 00H, '\', 00H, 'M', 00H
	DB	'S', 00H, 'V', 00H, 'C', 00H, '\', 00H, '1', 00H, '4', 00H, '.'
	DB	00H, '2', 00H, '3', 00H, '.', 00H, '2', 00H, '8', 00H, '1', 00H
	DB	'0', 00H, '5', 00H, '\', 00H, 'a', 00H, 't', 00H, 'l', 00H, 'm'
	DB	00H, 'f', 00H, 'c', 00H, '\', 00H, 'i', 00H, 'n', 00H, 'c', 00H
	DB	'l', 00H, 'u', 00H, 'd', 00H, 'e', 00H, '\', 00H, 'a', 00H, 't'
	DB	00H, 'l', 00H, 's', 00H, 'i', 00H, 'm', 00H, 'p', 00H, 'c', 00H
	DB	'o', 00H, 'l', 00H, 'l', 00H, '.', 00H, 'h', 00H, 00H, 00H ; `string'
CONST	ENDS
;	COMDAT ??_C@_1EA@JHMKKLFC@?$AAn?$AAI?$AAn?$AAd?$AAe?$AAx?$AA?5?$AA?$DO?$AA?$DN?$AA?5?$AA0?$AA?5?$AA?$CG?$AA?$CG?$AA?5@
CONST	SEGMENT
??_C@_1EA@JHMKKLFC@?$AAn?$AAI?$AAn?$AAd?$AAe?$AAx?$AA?5?$AA?$DO?$AA?$DN?$AA?5?$AA0?$AA?5?$AA?$CG?$AA?$CG?$AA?5@ DB 'n'
	DB	00H, 'I', 00H, 'n', 00H, 'd', 00H, 'e', 00H, 'x', 00H, ' ', 00H
	DB	'>', 00H, '=', 00H, ' ', 00H, '0', 00H, ' ', 00H, '&', 00H, '&'
	DB	00H, ' ', 00H, 'n', 00H, 'I', 00H, 'n', 00H, 'd', 00H, 'e', 00H
	DB	'x', 00H, ' ', 00H, '<', 00H, ' ', 00H, 'm', 00H, '_', 00H, 'n'
	DB	00H, 'S', 00H, 'i', 00H, 'z', 00H, 'e', 00H, 00H, 00H ; `string'
CONST	ENDS
;	COMDAT ??_C@_0ED@GFNHMOFC@ERROR?5?3?5Unable?5to?5initialize?5cr@
CONST	SEGMENT
??_C@_0ED@GFNHMOFC@ERROR?5?3?5Unable?5to?5initialize?5cr@ DB 'ERROR : Una'
	DB	'ble to initialize critical section in AtlWinModuleInit', 0aH, 00H ; `string'
CONST	ENDS
;	COMDAT ??_C@_0EA@EJEMLPD@ERROR?5?3?5Unable?5to?5initialize?5cr@
CONST	SEGMENT
??_C@_0EA@EJEMLPD@ERROR?5?3?5Unable?5to?5initialize?5cr@ DB 'ERROR : Unab'
	DB	'le to initialize critical section in CAtlComModule', 0aH, 00H ; `string'
CONST	ENDS
;	COMDAT ??_C@_0HB@NHAHFMOE@C?3?2Program?5Files?5?$CIx86?$CJ?2Microsof@
CONST	SEGMENT
??_C@_0HB@NHAHFMOE@C?3?2Program?5Files?5?$CIx86?$CJ?2Microsof@ DB 'C:\Pro'
	DB	'gram Files (x86)\Microsoft Visual Studio\2019\Community\VC\To'
	DB	'ols\MSVC\14.23.28105\atlmfc\include\atlbase.h', 00H ; `string'
CONST	ENDS
;	COMDAT ??_C@_1OC@KMMBJFLB@?$AAC?$AA?3?$AA?2?$AAP?$AAr?$AAo?$AAg?$AAr?$AAa?$AAm?$AA?5?$AAF?$AAi?$AAl?$AAe@
CONST	SEGMENT
??_C@_1OC@KMMBJFLB@?$AAC?$AA?3?$AA?2?$AAP?$AAr?$AAo?$AAg?$AAr?$AAa?$AAm?$AA?5?$AAF?$AAi?$AAl?$AAe@ DB 'C'
	DB	00H, ':', 00H, '\', 00H, 'P', 00H, 'r', 00H, 'o', 00H, 'g', 00H
	DB	'r', 00H, 'a', 00H, 'm', 00H, ' ', 00H, 'F', 00H, 'i', 00H, 'l'
	DB	00H, 'e', 00H, 's', 00H, ' ', 00H, '(', 00H, 'x', 00H, '8', 00H
	DB	'6', 00H, ')', 00H, '\', 00H, 'M', 00H, 'i', 00H, 'c', 00H, 'r'
	DB	00H, 'o', 00H, 's', 00H, 'o', 00H, 'f', 00H, 't', 00H, ' ', 00H
	DB	'V', 00H, 'i', 00H, 's', 00H, 'u', 00H, 'a', 00H, 'l', 00H, ' '
	DB	00H, 'S', 00H, 't', 00H, 'u', 00H, 'd', 00H, 'i', 00H, 'o', 00H
	DB	'\', 00H, '2', 00H, '0', 00H, '1', 00H, '9', 00H, '\', 00H, 'C'
	DB	00H, 'o', 00H, 'm', 00H, 'm', 00H, 'u', 00H, 'n', 00H, 'i', 00H
	DB	't', 00H, 'y', 00H, '\', 00H, 'V', 00H, 'C', 00H, '\', 00H, 'T'
	DB	00H, 'o', 00H, 'o', 00H, 'l', 00H, 's', 00H, '\', 00H, 'M', 00H
	DB	'S', 00H, 'V', 00H, 'C', 00H, '\', 00H, '1', 00H, '4', 00H, '.'
	DB	00H, '2', 00H, '3', 00H, '.', 00H, '2', 00H, '8', 00H, '1', 00H
	DB	'0', 00H, '5', 00H, '\', 00H, 'a', 00H, 't', 00H, 'l', 00H, 'm'
	DB	00H, 'f', 00H, 'c', 00H, '\', 00H, 'i', 00H, 'n', 00H, 'c', 00H
	DB	'l', 00H, 'u', 00H, 'd', 00H, 'e', 00H, '\', 00H, 'a', 00H, 't'
	DB	00H, 'l', 00H, 'b', 00H, 'a', 00H, 's', 00H, 'e', 00H, '.', 00H
	DB	'h', 00H, 00H, 00H				; `string'
CONST	ENDS
;	COMDAT ??_C@_1OE@GMIHPBDM@?$AAC?$AA?3?$AA?2?$AAP?$AAr?$AAo?$AAg?$AAr?$AAa?$AAm?$AA?5?$AAF?$AAi?$AAl?$AAe@
CONST	SEGMENT
??_C@_1OE@GMIHPBDM@?$AAC?$AA?3?$AA?2?$AAP?$AAr?$AAo?$AAg?$AAr?$AAa?$AAm?$AA?5?$AAF?$AAi?$AAl?$AAe@ DB 'C'
	DB	00H, ':', 00H, '\', 00H, 'P', 00H, 'r', 00H, 'o', 00H, 'g', 00H
	DB	'r', 00H, 'a', 00H, 'm', 00H, ' ', 00H, 'F', 00H, 'i', 00H, 'l'
	DB	00H, 'e', 00H, 's', 00H, ' ', 00H, '(', 00H, 'x', 00H, '8', 00H
	DB	'6', 00H, ')', 00H, '\', 00H, 'M', 00H, 'i', 00H, 'c', 00H, 'r'
	DB	00H, 'o', 00H, 's', 00H, 'o', 00H, 'f', 00H, 't', 00H, ' ', 00H
	DB	'V', 00H, 'i', 00H, 's', 00H, 'u', 00H, 'a', 00H, 'l', 00H, ' '
	DB	00H, 'S', 00H, 't', 00H, 'u', 00H, 'd', 00H, 'i', 00H, 'o', 00H
	DB	'\', 00H, '2', 00H, '0', 00H, '1', 00H, '9', 00H, '\', 00H, 'C'
	DB	00H, 'o', 00H, 'm', 00H, 'm', 00H, 'u', 00H, 'n', 00H, 'i', 00H
	DB	't', 00H, 'y', 00H, '\', 00H, 'V', 00H, 'C', 00H, '\', 00H, 'T'
	DB	00H, 'o', 00H, 'o', 00H, 'l', 00H, 's', 00H, '\', 00H, 'M', 00H
	DB	'S', 00H, 'V', 00H, 'C', 00H, '\', 00H, '1', 00H, '4', 00H, '.'
	DB	00H, '2', 00H, '3', 00H, '.', 00H, '2', 00H, '8', 00H, '1', 00H
	DB	'0', 00H, '5', 00H, '\', 00H, 'a', 00H, 't', 00H, 'l', 00H, 'm'
	DB	00H, 'f', 00H, 'c', 00H, '\', 00H, 'i', 00H, 'n', 00H, 'c', 00H
	DB	'l', 00H, 'u', 00H, 'd', 00H, 'e', 00H, '\', 00H, 'a', 00H, 't'
	DB	00H, 'l', 00H, 't', 00H, 'r', 00H, 'a', 00H, 'c', 00H, 'e', 00H
	DB	'.', 00H, 'h', 00H, 00H, 00H			; `string'
CONST	ENDS
;	COMDAT ??_C@_1EO@EBPPKGOM@?$AAf?$AAa?$AAl?$AAs?$AAe?$AA?5?$AA?$CG?$AA?$CG?$AA?5?$AA?$CC?$AAT?$AAo?$AAo?$AA?5?$AAm@
CONST	SEGMENT
??_C@_1EO@EBPPKGOM@?$AAf?$AAa?$AAl?$AAs?$AAe?$AA?5?$AA?$CG?$AA?$CG?$AA?5?$AA?$CC?$AAT?$AAo?$AAo?$AA?5?$AAm@ DB 'f'
	DB	00H, 'a', 00H, 'l', 00H, 's', 00H, 'e', 00H, ' ', 00H, '&', 00H
	DB	'&', 00H, ' ', 00H, '"', 00H, 'T', 00H, 'o', 00H, 'o', 00H, ' '
	DB	00H, 'm', 00H, 'a', 00H, 'n', 00H, 'y', 00H, ' ', 00H, 'c', 00H
	DB	'a', 00H, 't', 00H, 'e', 00H, 'g', 00H, 'o', 00H, 'r', 00H, 'i'
	DB	00H, 'e', 00H, 's', 00H, ' ', 00H, 'd', 00H, 'e', 00H, 'f', 00H
	DB	'i', 00H, 'n', 00H, 'e', 00H, 'd', 00H, '"', 00H, 00H, 00H ; `string'
CONST	ENDS
;	COMDAT ??_C@_17LGGGMOOB@?$AA?$CF?$AAh?$AAs@
CONST	SEGMENT
??_C@_17LGGGMOOB@?$AA?$CF?$AAh?$AAs@ DB '%', 00H, 'h', 00H, 's', 00H, 00H
	DB	00H						; `string'
CONST	ENDS
;	COMDAT ??_C@_1O@OAIPCDPO@?$AA?$CF?$AAl?$AAs?$AA?$CF?$AAl?$AAs@
CONST	SEGMENT
??_C@_1O@OAIPCDPO@?$AA?$CF?$AAl?$AAs?$AA?$CF?$AAl?$AAs@ DB '%', 00H, 'l', 00H
	DB	's', 00H, '%', 00H, 'l', 00H, 's', 00H, 00H, 00H ; `string'
CONST	ENDS
;	COMDAT ??_C@_1M@PGKOAACE@?$AA?$CF?$AAu?$AA?5?$AA?9?$AA?5@
CONST	SEGMENT
??_C@_1M@PGKOAACE@?$AA?$CF?$AAu?$AA?5?$AA?9?$AA?5@ DB '%', 00H, 'u', 00H, ' '
	DB	00H, '-', 00H, ' ', 00H, 00H, 00H		; `string'
CONST	ENDS
;	COMDAT ??_C@_1O@LFNDFEBP@?$AA?$CF?$AAl?$AAs?$AA?5?$AA?9?$AA?5@
CONST	SEGMENT
??_C@_1O@LFNDFEBP@?$AA?$CF?$AAl?$AAs?$AA?5?$AA?9?$AA?5@ DB '%', 00H, 'l', 00H
	DB	's', 00H, ' ', 00H, '-', 00H, ' ', 00H, 00H, 00H ; `string'
CONST	ENDS
;	COMDAT ?m_nCategory@CTrace@ATL@@1IA
_DATA	SEGMENT
?m_nCategory@CTrace@ATL@@1IA DD 0ffffffffH		; ATL::CTrace::m_nCategory
_DATA	ENDS
;	COMDAT ??_C@_1OE@BPCMJDLP@?$AAC?$AA?3?$AA?2?$AAP?$AAr?$AAo?$AAg?$AAr?$AAa?$AAm?$AA?5?$AAF?$AAi?$AAl?$AAe@
CONST	SEGMENT
??_C@_1OE@BPCMJDLP@?$AAC?$AA?3?$AA?2?$AAP?$AAr?$AAo?$AAg?$AAr?$AAa?$AAm?$AA?5?$AAF?$AAi?$AAl?$AAe@ DB 'C'
	DB	00H, ':', 00H, '\', 00H, 'P', 00H, 'r', 00H, 'o', 00H, 'g', 00H
	DB	'r', 00H, 'a', 00H, 'm', 00H, ' ', 00H, 'F', 00H, 'i', 00H, 'l'
	DB	00H, 'e', 00H, 's', 00H, ' ', 00H, '(', 00H, 'x', 00H, '8', 00H
	DB	'6', 00H, ')', 00H, '\', 00H, 'M', 00H, 'i', 00H, 'c', 00H, 'r'
	DB	00H, 'o', 00H, 's', 00H, 'o', 00H, 'f', 00H, 't', 00H, ' ', 00H
	DB	'V', 00H, 'i', 00H, 's', 00H, 'u', 00H, 'a', 00H, 'l', 00H, ' '
	DB	00H, 'S', 00H, 't', 00H, 'u', 00H, 'd', 00H, 'i', 00H, 'o', 00H
	DB	'\', 00H, '2', 00H, '0', 00H, '1', 00H, '9', 00H, '\', 00H, 'C'
	DB	00H, 'o', 00H, 'm', 00H, 'm', 00H, 'u', 00H, 'n', 00H, 'i', 00H
	DB	't', 00H, 'y', 00H, '\', 00H, 'V', 00H, 'C', 00H, '\', 00H, 'T'
	DB	00H, 'o', 00H, 'o', 00H, 'l', 00H, 's', 00H, '\', 00H, 'M', 00H
	DB	'S', 00H, 'V', 00H, 'C', 00H, '\', 00H, '1', 00H, '4', 00H, '.'
	DB	00H, '2', 00H, '3', 00H, '.', 00H, '2', 00H, '8', 00H, '1', 00H
	DB	'0', 00H, '5', 00H, '\', 00H, 'a', 00H, 't', 00H, 'l', 00H, 'm'
	DB	00H, 'f', 00H, 'c', 00H, '\', 00H, 'i', 00H, 'n', 00H, 'c', 00H
	DB	'l', 00H, 'u', 00H, 'd', 00H, 'e', 00H, '\', 00H, 'a', 00H, 't'
	DB	00H, 'l', 00H, 'a', 00H, 'l', 00H, 'l', 00H, 'o', 00H, 'c', 00H
	DB	'.', 00H, 'h', 00H, 00H, 00H			; `string'
CONST	ENDS
;	COMDAT ??_C@_13COJANIEC@?$AA0@
CONST	SEGMENT
??_C@_13COJANIEC@?$AA0@ DB '0', 00H, 00H, 00H		; `string'
CONST	ENDS
_DATA	SEGMENT
?PARSE_ERROR_FLAG@@3HA DD 080000000H			; PARSE_ERROR_FLAG
_DATA	ENDS
;	COMDAT ??_C@_17CNPHIMPH@?$AA?$CF?$AAl?$AAs@
CONST	SEGMENT
??_C@_17CNPHIMPH@?$AA?$CF?$AAl?$AAs@ DB '%', 00H, 'l', 00H, 's', 00H, 00H
	DB	00H						; `string'
CONST	ENDS
;	COMDAT xdata
xdata	SEGMENT
$unwind$??$AtlMultiply@_K@ATL@@YAJPEA_K_K1@Z DD 022801H
	DD	070103214H
xdata	ENDS
;	COMDAT xdata
xdata	SEGMENT
$unwind$??__F_AtlWinModule@ATL@@YAXXZ DD 021501H
	DD	070023206H
xdata	ENDS
;	COMDAT xdata
xdata	SEGMENT
$unwind$??__E_AtlWinModule@ATL@@YAXXZ DD 021501H
	DD	070023206H
xdata	ENDS
;	COMDAT xdata
xdata	SEGMENT
$unwind$?Term@CAtlWinModule@ATL@@QEAAXXZ DD 021e01H
	DD	07006320aH
xdata	ENDS
;	COMDAT xdata
xdata	SEGMENT
$unwind$?dtor$0@?0???1CAtlWinModule@ATL@@QEAA@XZ@4HA DD 031001H
	DD	0700c4210H
	DD	0500bH
xdata	ENDS
;	COMDAT xdata
xdata	SEGMENT
$ip2state$??1CAtlWinModule@ATL@@QEAA@XZ DB 06H
	DB	00H
	DB	00H
	DB	'<'
	DB	02H
	DB	016H
	DB	00H
xdata	ENDS
;	COMDAT xdata
xdata	SEGMENT
$stateUnwindMap$??1CAtlWinModule@ATL@@QEAA@XZ DB 02H
	DB	0eH
	DD	imagerel ?dtor$0@?0???1CAtlWinModule@ATL@@QEAA@XZ@4HA
xdata	ENDS
;	COMDAT xdata
xdata	SEGMENT
$cppxdata$??1CAtlWinModule@ATL@@QEAA@XZ DB 048H
	DD	imagerel $stateUnwindMap$??1CAtlWinModule@ATL@@QEAA@XZ
	DD	imagerel $ip2state$??1CAtlWinModule@ATL@@QEAA@XZ
xdata	ENDS
;	COMDAT xdata
xdata	SEGMENT
$unwind$??1CAtlWinModule@ATL@@QEAA@XZ DD 021e19H
	DD	07006320aH
	DD	imagerel __CxxFrameHandler4
	DD	imagerel $cppxdata$??1CAtlWinModule@ATL@@QEAA@XZ
xdata	ENDS
;	COMDAT xdata
xdata	SEGMENT
$unwind$?dtor$0@?0???0CAtlWinModule@ATL@@QEAA@XZ@4HA DD 031001H
	DD	0700c4210H
	DD	0500bH
xdata	ENDS
;	COMDAT xdata
xdata	SEGMENT
$ip2state$??0CAtlWinModule@ATL@@QEAA@XZ DB 06H
	DB	00H
	DB	00H
	DB	'R'
	DB	02H
	DB	0e6H
	DB	00H
xdata	ENDS
;	COMDAT xdata
xdata	SEGMENT
$stateUnwindMap$??0CAtlWinModule@ATL@@QEAA@XZ DB 02H
	DB	0eH
	DD	imagerel ?dtor$0@?0???0CAtlWinModule@ATL@@QEAA@XZ@4HA
xdata	ENDS
;	COMDAT xdata
xdata	SEGMENT
$cppxdata$??0CAtlWinModule@ATL@@QEAA@XZ DB 08H
	DD	imagerel $stateUnwindMap$??0CAtlWinModule@ATL@@QEAA@XZ
	DD	imagerel $ip2state$??0CAtlWinModule@ATL@@QEAA@XZ
xdata	ENDS
;	COMDAT xdata
xdata	SEGMENT
$unwind$??0CAtlWinModule@ATL@@QEAA@XZ DD 021e11H
	DD	07006720aH
	DD	imagerel __CxxFrameHandler4
	DD	imagerel $cppxdata$??0CAtlWinModule@ATL@@QEAA@XZ
xdata	ENDS
;	COMDAT xdata
xdata	SEGMENT
$unwind$??__F_AtlComModule@ATL@@YAXXZ DD 021501H
	DD	070023206H
xdata	ENDS
;	COMDAT xdata
xdata	SEGMENT
$unwind$??__E_AtlComModule@ATL@@YAXXZ DD 021501H
	DD	070023206H
xdata	ENDS
;	COMDAT xdata
xdata	SEGMENT
$unwind$?Term@CAtlComModule@ATL@@QEAAXXZ DD 021e01H
	DD	07006720aH
xdata	ENDS
;	COMDAT xdata
xdata	SEGMENT
$unwind$?dtor$0@?0???1CAtlComModule@ATL@@QEAA@XZ@4HA DD 031001H
	DD	0700c4210H
	DD	0500bH
xdata	ENDS
;	COMDAT xdata
xdata	SEGMENT
$ip2state$??1CAtlComModule@ATL@@QEAA@XZ DB 06H
	DB	00H
	DB	00H
	DB	'<'
	DB	02H
	DB	016H
	DB	00H
xdata	ENDS
;	COMDAT xdata
xdata	SEGMENT
$stateUnwindMap$??1CAtlComModule@ATL@@QEAA@XZ DB 02H
	DB	0eH
	DD	imagerel ?dtor$0@?0???1CAtlComModule@ATL@@QEAA@XZ@4HA
xdata	ENDS
;	COMDAT xdata
xdata	SEGMENT
$cppxdata$??1CAtlComModule@ATL@@QEAA@XZ DB 048H
	DD	imagerel $stateUnwindMap$??1CAtlComModule@ATL@@QEAA@XZ
	DD	imagerel $ip2state$??1CAtlComModule@ATL@@QEAA@XZ
xdata	ENDS
;	COMDAT xdata
xdata	SEGMENT
$unwind$??1CAtlComModule@ATL@@QEAA@XZ DD 021e19H
	DD	07006320aH
	DD	imagerel __CxxFrameHandler4
	DD	imagerel $cppxdata$??1CAtlComModule@ATL@@QEAA@XZ
xdata	ENDS
;	COMDAT xdata
xdata	SEGMENT
$unwind$?dtor$0@?0???0CAtlComModule@ATL@@QEAA@XZ@4HA DD 031001H
	DD	0700c4210H
	DD	0500bH
xdata	ENDS
;	COMDAT xdata
xdata	SEGMENT
$ip2state$??0CAtlComModule@ATL@@QEAA@XZ DB 06H
	DB	00H
	DB	00H
	DB	'R'
	DB	02H
	DB	0b1H, 03H
	DB	00H
xdata	ENDS
;	COMDAT xdata
xdata	SEGMENT
$stateUnwindMap$??0CAtlComModule@ATL@@QEAA@XZ DB 02H
	DB	0eH
	DD	imagerel ?dtor$0@?0???0CAtlComModule@ATL@@QEAA@XZ@4HA
xdata	ENDS
;	COMDAT xdata
xdata	SEGMENT
$cppxdata$??0CAtlComModule@ATL@@QEAA@XZ DB 08H
	DD	imagerel $stateUnwindMap$??0CAtlComModule@ATL@@QEAA@XZ
	DD	imagerel $ip2state$??0CAtlComModule@ATL@@QEAA@XZ
xdata	ENDS
;	COMDAT xdata
xdata	SEGMENT
$unwind$??0CAtlComModule@ATL@@QEAA@XZ DD 021e11H
	DD	07006920aH
	DD	imagerel __CxxFrameHandler4
	DD	imagerel $cppxdata$??0CAtlComModule@ATL@@QEAA@XZ
xdata	ENDS
;	COMDAT xdata
xdata	SEGMENT
$unwind$?AtlWinModuleTerm@ATL@@YAJPEAU_ATL_WIN_MODULE70@1@PEAUHINSTANCE__@@@Z DD 022301H
	DD	0700b520fH
xdata	ENDS
;	COMDAT xdata
xdata	SEGMENT
$unwind$?AtlWinModuleInit@ATL@@YAJPEAU_ATL_WIN_MODULE70@1@@Z DD 021e01H
	DD	07006920aH
xdata	ENDS
;	COMDAT xdata
xdata	SEGMENT
$unwind$?dtor$1@?0???1_ATL_WIN_MODULE70@ATL@@QEAA@XZ@4HA DD 031001H
	DD	0700c4210H
	DD	0500bH
xdata	ENDS
;	COMDAT xdata
xdata	SEGMENT
$unwind$?dtor$0@?0???1_ATL_WIN_MODULE70@ATL@@QEAA@XZ@4HA DD 031001H
	DD	0700c4210H
	DD	0500bH
xdata	ENDS
;	COMDAT xdata
xdata	SEGMENT
$ip2state$??1_ATL_WIN_MODULE70@ATL@@QEAA@XZ DB 06H
	DB	00H
	DB	00H
	DB	'<'
	DB	02H
	DB	'$'
	DB	00H
xdata	ENDS
;	COMDAT xdata
xdata	SEGMENT
$stateUnwindMap$??1_ATL_WIN_MODULE70@ATL@@QEAA@XZ DB 04H
	DB	0eH
	DD	imagerel ?dtor$0@?0???1_ATL_WIN_MODULE70@ATL@@QEAA@XZ@4HA
	DB	02eH
	DD	imagerel ?dtor$1@?0???1_ATL_WIN_MODULE70@ATL@@QEAA@XZ@4HA
xdata	ENDS
;	COMDAT xdata
xdata	SEGMENT
$cppxdata$??1_ATL_WIN_MODULE70@ATL@@QEAA@XZ DB 048H
	DD	imagerel $stateUnwindMap$??1_ATL_WIN_MODULE70@ATL@@QEAA@XZ
	DD	imagerel $ip2state$??1_ATL_WIN_MODULE70@ATL@@QEAA@XZ
xdata	ENDS
;	COMDAT xdata
xdata	SEGMENT
$unwind$??1_ATL_WIN_MODULE70@ATL@@QEAA@XZ DD 021e11H
	DD	07006320aH
	DD	imagerel __CxxFrameHandler4
	DD	imagerel $cppxdata$??1_ATL_WIN_MODULE70@ATL@@QEAA@XZ
xdata	ENDS
;	COMDAT xdata
xdata	SEGMENT
$unwind$?dtor$1@?0???0_ATL_WIN_MODULE70@ATL@@QEAA@XZ@4HA DD 031001H
	DD	0700c4210H
	DD	0500bH
xdata	ENDS
;	COMDAT xdata
xdata	SEGMENT
$unwind$?dtor$0@?0???0_ATL_WIN_MODULE70@ATL@@QEAA@XZ@4HA DD 031001H
	DD	0700c4210H
	DD	0500bH
xdata	ENDS
;	COMDAT xdata
xdata	SEGMENT
$ip2state$??0_ATL_WIN_MODULE70@ATL@@QEAA@XZ DB 06H
	DB	00H
	DB	00H
	DB	'`'
	DB	02H
	DB	'$'
	DB	00H
xdata	ENDS
;	COMDAT xdata
xdata	SEGMENT
$stateUnwindMap$??0_ATL_WIN_MODULE70@ATL@@QEAA@XZ DB 04H
	DB	0eH
	DD	imagerel ?dtor$0@?0???0_ATL_WIN_MODULE70@ATL@@QEAA@XZ@4HA
	DB	02eH
	DD	imagerel ?dtor$1@?0???0_ATL_WIN_MODULE70@ATL@@QEAA@XZ@4HA
xdata	ENDS
;	COMDAT xdata
xdata	SEGMENT
$cppxdata$??0_ATL_WIN_MODULE70@ATL@@QEAA@XZ DB 08H
	DD	imagerel $stateUnwindMap$??0_ATL_WIN_MODULE70@ATL@@QEAA@XZ
	DD	imagerel $ip2state$??0_ATL_WIN_MODULE70@ATL@@QEAA@XZ
xdata	ENDS
;	COMDAT xdata
xdata	SEGMENT
$unwind$??0_ATL_WIN_MODULE70@ATL@@QEAA@XZ DD 021e11H
	DD	07006320aH
	DD	imagerel __CxxFrameHandler4
	DD	imagerel $cppxdata$??0_ATL_WIN_MODULE70@ATL@@QEAA@XZ
xdata	ENDS
;	COMDAT xdata
xdata	SEGMENT
$unwind$??A?$CSimpleArray@GV?$CSimpleArrayEqualHelper@G@ATL@@@ATL@@QEAAAEAGH@Z DD 022201H
	DD	0700a520eH
xdata	ENDS
;	COMDAT xdata
xdata	SEGMENT
$unwind$?RemoveAll@?$CSimpleArray@GV?$CSimpleArrayEqualHelper@G@ATL@@@ATL@@QEAAXXZ DD 021e01H
	DD	07006520aH
xdata	ENDS
;	COMDAT xdata
xdata	SEGMENT
$unwind$?GetSize@?$CSimpleArray@GV?$CSimpleArrayEqualHelper@G@ATL@@@ATL@@QEBAHXZ DD 010601H
	DD	07006H
xdata	ENDS
;	COMDAT xdata
xdata	SEGMENT
$ip2state$??1?$CSimpleArray@GV?$CSimpleArrayEqualHelper@G@ATL@@@ATL@@QEAA@XZ DB 02H
	DB	00H
	DB	00H
xdata	ENDS
;	COMDAT xdata
xdata	SEGMENT
$cppxdata$??1?$CSimpleArray@GV?$CSimpleArrayEqualHelper@G@ATL@@@ATL@@QEAA@XZ DB 040H
	DD	imagerel $ip2state$??1?$CSimpleArray@GV?$CSimpleArrayEqualHelper@G@ATL@@@ATL@@QEAA@XZ
xdata	ENDS
;	COMDAT xdata
xdata	SEGMENT
$unwind$??1?$CSimpleArray@GV?$CSimpleArrayEqualHelper@G@ATL@@@ATL@@QEAA@XZ DD 021e19H
	DD	07006320aH
	DD	imagerel __CxxFrameHandler4
	DD	imagerel $cppxdata$??1?$CSimpleArray@GV?$CSimpleArrayEqualHelper@G@ATL@@@ATL@@QEAA@XZ
xdata	ENDS
;	COMDAT xdata
xdata	SEGMENT
$unwind$??0?$CSimpleArray@GV?$CSimpleArrayEqualHelper@G@ATL@@@ATL@@QEAA@XZ DD 010601H
	DD	07006H
xdata	ENDS
;	COMDAT xdata
xdata	SEGMENT
$unwind$?dtor$0@?0???1_ATL_COM_MODULE70@ATL@@QEAA@XZ@4HA DD 031001H
	DD	0700c4210H
	DD	0500bH
xdata	ENDS
;	COMDAT xdata
xdata	SEGMENT
$ip2state$??1_ATL_COM_MODULE70@ATL@@QEAA@XZ DB 02H
	DB	00H
	DB	00H
xdata	ENDS
;	COMDAT xdata
xdata	SEGMENT
$stateUnwindMap$??1_ATL_COM_MODULE70@ATL@@QEAA@XZ DB 02H
	DB	0eH
	DD	imagerel ?dtor$0@?0???1_ATL_COM_MODULE70@ATL@@QEAA@XZ@4HA
xdata	ENDS
;	COMDAT xdata
xdata	SEGMENT
$cppxdata$??1_ATL_COM_MODULE70@ATL@@QEAA@XZ DB 048H
	DD	imagerel $stateUnwindMap$??1_ATL_COM_MODULE70@ATL@@QEAA@XZ
	DD	imagerel $ip2state$??1_ATL_COM_MODULE70@ATL@@QEAA@XZ
xdata	ENDS
;	COMDAT xdata
xdata	SEGMENT
$unwind$??1_ATL_COM_MODULE70@ATL@@QEAA@XZ DD 021e11H
	DD	07006320aH
	DD	imagerel __CxxFrameHandler4
	DD	imagerel $cppxdata$??1_ATL_COM_MODULE70@ATL@@QEAA@XZ
xdata	ENDS
;	COMDAT xdata
xdata	SEGMENT
$unwind$?dtor$0@?0???0_ATL_COM_MODULE70@ATL@@QEAA@XZ@4HA DD 031001H
	DD	0700c4210H
	DD	0500bH
xdata	ENDS
;	COMDAT xdata
xdata	SEGMENT
$ip2state$??0_ATL_COM_MODULE70@ATL@@QEAA@XZ DB 02H
	DB	00H
	DB	00H
xdata	ENDS
;	COMDAT xdata
xdata	SEGMENT
$stateUnwindMap$??0_ATL_COM_MODULE70@ATL@@QEAA@XZ DB 02H
	DB	0eH
	DD	imagerel ?dtor$0@?0???0_ATL_COM_MODULE70@ATL@@QEAA@XZ@4HA
xdata	ENDS
;	COMDAT xdata
xdata	SEGMENT
$cppxdata$??0_ATL_COM_MODULE70@ATL@@QEAA@XZ DB 048H
	DD	imagerel $stateUnwindMap$??0_ATL_COM_MODULE70@ATL@@QEAA@XZ
	DD	imagerel $ip2state$??0_ATL_COM_MODULE70@ATL@@QEAA@XZ
xdata	ENDS
;	COMDAT xdata
xdata	SEGMENT
$unwind$??0_ATL_COM_MODULE70@ATL@@QEAA@XZ DD 021e11H
	DD	07006320aH
	DD	imagerel __CxxFrameHandler4
	DD	imagerel $cppxdata$??0_ATL_COM_MODULE70@ATL@@QEAA@XZ
xdata	ENDS
;	COMDAT xdata
xdata	SEGMENT
$unwind$?GetModuleInstance@CAtlBaseModule@ATL@@QEAAPEAUHINSTANCE__@@XZ DD 010601H
	DD	07006H
xdata	ENDS
;	COMDAT xdata
xdata	SEGMENT
$unwind$?Term@CComCriticalSection@ATL@@QEAAJXZ DD 021e01H
	DD	07006320aH
xdata	ENDS
;	COMDAT xdata
xdata	SEGMENT
$unwind$?Init@CComCriticalSection@ATL@@QEAAJXZ DD 021e01H
	DD	07006520aH
xdata	ENDS
;	COMDAT xdata
xdata	SEGMENT
$unwind$??1CComCriticalSection@ATL@@QEAA@XZ DD 010601H
	DD	07006H
xdata	ENDS
;	COMDAT xdata
xdata	SEGMENT
$unwind$??0CComCriticalSection@ATL@@QEAA@XZ DD 021e01H
	DD	07006320aH
xdata	ENDS
;	COMDAT xdata
xdata	SEGMENT
$unwind$?_AtlInitializeCriticalSectionEx@ATL@@YAHPEAU_RTL_CRITICAL_SECTION@@KK@Z DD 022701H
	DD	0700f3213H
xdata	ENDS
;	COMDAT xdata
xdata	SEGMENT
$unwind$?_AtlRaiseException@ATL@@YAXKK@Z DD 022001H
	DD	07009320dH
xdata	ENDS
;	COMDAT xdata
xdata	SEGMENT
$unwind$?dtor$0@?0???RCTraceFileAndLineInfo@ATL@@QEBAXHIPEBDZZ@4HA DD 031001H
	DD	0700c4210H
	DD	0500bH
xdata	ENDS
;	COMDAT xdata
xdata	SEGMENT
$ip2state$??RCTraceFileAndLineInfo@ATL@@QEBAXHIPEBDZZ DB 06H
	DB	00H
	DB	00H
	DB	't'
	DB	02H
	DB	0b0H
	DB	00H
xdata	ENDS
;	COMDAT xdata
xdata	SEGMENT
$stateUnwindMap$??RCTraceFileAndLineInfo@ATL@@QEBAXHIPEBDZZ DB 02H
	DB	0eH
	DD	imagerel ?dtor$0@?0???RCTraceFileAndLineInfo@ATL@@QEBAXHIPEBDZZ@4HA
xdata	ENDS
;	COMDAT xdata
xdata	SEGMENT
$cppxdata$??RCTraceFileAndLineInfo@ATL@@QEBAXHIPEBDZZ DB 08H
	DD	imagerel $stateUnwindMap$??RCTraceFileAndLineInfo@ATL@@QEBAXHIPEBDZZ
	DD	imagerel $ip2state$??RCTraceFileAndLineInfo@ATL@@QEBAXHIPEBDZZ
xdata	ENDS
;	COMDAT xdata
xdata	SEGMENT
$unwind$??RCTraceFileAndLineInfo@ATL@@QEBAXHIPEBDZZ DD 022f11H
	DD	07014d218H
	DD	imagerel __CxxFrameHandler4
	DD	imagerel $cppxdata$??RCTraceFileAndLineInfo@ATL@@QEBAXHIPEBDZZ
xdata	ENDS
;	COMDAT CONST
CONST	SEGMENT
??RCTraceFileAndLineInfo@ATL@@QEBAXHIPEBDZZ$rtcName$0 DB 070H ; ATL::CTraceFileAndLineInfo::operator()
	DB	06cH
	DB	065H
	DB	00H
??RCTraceFileAndLineInfo@ATL@@QEBAXHIPEBDZZ$rtcName$1 DB 070H ; ATL::CTraceFileAndLineInfo::operator()
	DB	074H
	DB	072H
	DB	00H
	ORG $+8
??RCTraceFileAndLineInfo@ATL@@QEBAXHIPEBDZZ$rtcVarDesc DD 058H ; ATL::CTraceFileAndLineInfo::operator()
	DD	08H
	DQ	FLAT:??RCTraceFileAndLineInfo@ATL@@QEBAXHIPEBDZZ$rtcName$1
	DD	034H
	DD	04H
	DQ	FLAT:??RCTraceFileAndLineInfo@ATL@@QEBAXHIPEBDZZ$rtcName$0
	ORG $+96
??RCTraceFileAndLineInfo@ATL@@QEBAXHIPEBDZZ$rtcFrameData DD 02H ; ATL::CTraceFileAndLineInfo::operator()
	DD	00H
	DQ	FLAT:??RCTraceFileAndLineInfo@ATL@@QEBAXHIPEBDZZ$rtcVarDesc
CONST	ENDS
;	COMDAT xdata
xdata	SEGMENT
$unwind$??0CTraceFileAndLineInfo@ATL@@QEAA@PEBDH@Z DD 011001H
	DD	07010H
xdata	ENDS
;	COMDAT xdata
xdata	SEGMENT
$ip2state$??1CPreserveLastError@ATL@@QEAA@XZ DB 02H
	DB	00H
	DB	00H
xdata	ENDS
;	COMDAT xdata
xdata	SEGMENT
$cppxdata$??1CPreserveLastError@ATL@@QEAA@XZ DB 040H
	DD	imagerel $ip2state$??1CPreserveLastError@ATL@@QEAA@XZ
xdata	ENDS
;	COMDAT xdata
xdata	SEGMENT
$unwind$??1CPreserveLastError@ATL@@QEAA@XZ DD 021e19H
	DD	07006320aH
	DD	imagerel __CxxFrameHandler4
	DD	imagerel $cppxdata$??1CPreserveLastError@ATL@@QEAA@XZ
xdata	ENDS
;	COMDAT xdata
xdata	SEGMENT
$unwind$??0CPreserveLastError@ATL@@QEAA@XZ DD 021e01H
	DD	07006320aH
xdata	ENDS
;	COMDAT xdata
xdata	SEGMENT
$unwind$?dtor$0@?0???1?$CHeapPtr@DVCCRTAllocator@ATL@@@ATL@@QEAA@XZ@4HA DD 031001H
	DD	0700c4210H
	DD	0500bH
xdata	ENDS
;	COMDAT xdata
xdata	SEGMENT
$ip2state$??1?$CHeapPtr@DVCCRTAllocator@ATL@@@ATL@@QEAA@XZ DB 02H
	DB	00H
	DB	00H
xdata	ENDS
;	COMDAT xdata
xdata	SEGMENT
$stateUnwindMap$??1?$CHeapPtr@DVCCRTAllocator@ATL@@@ATL@@QEAA@XZ DB 02H
	DB	0eH
	DD	imagerel ?dtor$0@?0???1?$CHeapPtr@DVCCRTAllocator@ATL@@@ATL@@QEAA@XZ@4HA
xdata	ENDS
;	COMDAT xdata
xdata	SEGMENT
$cppxdata$??1?$CHeapPtr@DVCCRTAllocator@ATL@@@ATL@@QEAA@XZ DB 048H
	DD	imagerel $stateUnwindMap$??1?$CHeapPtr@DVCCRTAllocator@ATL@@@ATL@@QEAA@XZ
	DD	imagerel $ip2state$??1?$CHeapPtr@DVCCRTAllocator@ATL@@@ATL@@QEAA@XZ
xdata	ENDS
;	COMDAT xdata
xdata	SEGMENT
$unwind$??1?$CHeapPtr@DVCCRTAllocator@ATL@@@ATL@@QEAA@XZ DD 021e11H
	DD	07006320aH
	DD	imagerel __CxxFrameHandler4
	DD	imagerel $cppxdata$??1?$CHeapPtr@DVCCRTAllocator@ATL@@@ATL@@QEAA@XZ
xdata	ENDS
;	COMDAT xdata
xdata	SEGMENT
$unwind$?Allocate@?$CHeapPtr@DVCCRTAllocator@ATL@@@ATL@@QEAA_N_K@Z DD 022301H
	DD	0700b720fH
xdata	ENDS
;	COMDAT CONST
CONST	SEGMENT
?Allocate@?$CHeapPtr@DVCCRTAllocator@ATL@@@ATL@@QEAA_N_K@Z$rtcName$0 DB 06eH ; ATL::CHeapPtr<char,ATL::CCRTAllocator>::Allocate
	DB	042H
	DB	079H
	DB	074H
	DB	065H
	DB	073H
	DB	00H
	ORG $+9
?Allocate@?$CHeapPtr@DVCCRTAllocator@ATL@@@ATL@@QEAA_N_K@Z$rtcVarDesc DD 028H ; ATL::CHeapPtr<char,ATL::CCRTAllocator>::Allocate
	DD	08H
	DQ	FLAT:?Allocate@?$CHeapPtr@DVCCRTAllocator@ATL@@@ATL@@QEAA_N_K@Z$rtcName$0
	ORG $+48
?Allocate@?$CHeapPtr@DVCCRTAllocator@ATL@@@ATL@@QEAA_N_K@Z$rtcFrameData DD 01H ; ATL::CHeapPtr<char,ATL::CCRTAllocator>::Allocate
	DD	00H
	DQ	FLAT:?Allocate@?$CHeapPtr@DVCCRTAllocator@ATL@@@ATL@@QEAA_N_K@Z$rtcVarDesc
CONST	ENDS
;	COMDAT xdata
xdata	SEGMENT
$unwind$?dtor$0@?0???0?$CHeapPtr@DVCCRTAllocator@ATL@@@ATL@@QEAA@XZ@4HA DD 031001H
	DD	0700c4210H
	DD	0500bH
xdata	ENDS
;	COMDAT xdata
xdata	SEGMENT
$ip2state$??0?$CHeapPtr@DVCCRTAllocator@ATL@@@ATL@@QEAA@XZ DB 02H
	DB	00H
	DB	00H
xdata	ENDS
;	COMDAT xdata
xdata	SEGMENT
$stateUnwindMap$??0?$CHeapPtr@DVCCRTAllocator@ATL@@@ATL@@QEAA@XZ DB 02H
	DB	0eH
	DD	imagerel ?dtor$0@?0???0?$CHeapPtr@DVCCRTAllocator@ATL@@@ATL@@QEAA@XZ@4HA
xdata	ENDS
;	COMDAT xdata
xdata	SEGMENT
$cppxdata$??0?$CHeapPtr@DVCCRTAllocator@ATL@@@ATL@@QEAA@XZ DB 08H
	DD	imagerel $stateUnwindMap$??0?$CHeapPtr@DVCCRTAllocator@ATL@@@ATL@@QEAA@XZ
	DD	imagerel $ip2state$??0?$CHeapPtr@DVCCRTAllocator@ATL@@@ATL@@QEAA@XZ
xdata	ENDS
;	COMDAT xdata
xdata	SEGMENT
$unwind$??0?$CHeapPtr@DVCCRTAllocator@ATL@@@ATL@@QEAA@XZ DD 021e11H
	DD	07006320aH
	DD	imagerel __CxxFrameHandler4
	DD	imagerel $cppxdata$??0?$CHeapPtr@DVCCRTAllocator@ATL@@@ATL@@QEAA@XZ
xdata	ENDS
;	COMDAT xdata
xdata	SEGMENT
$unwind$?Free@?$CHeapPtrBase@DVCCRTAllocator@ATL@@@ATL@@QEAAXXZ DD 021e01H
	DD	07006320aH
xdata	ENDS
;	COMDAT xdata
xdata	SEGMENT
$unwind$?AllocateBytes@?$CHeapPtrBase@DVCCRTAllocator@ATL@@@ATL@@QEAA_N_K@Z DD 022301H
	DD	0700b520fH
xdata	ENDS
;	COMDAT xdata
xdata	SEGMENT
$unwind$??B?$CHeapPtrBase@DVCCRTAllocator@ATL@@@ATL@@QEBAPEADXZ DD 010601H
	DD	07006H
xdata	ENDS
;	COMDAT xdata
xdata	SEGMENT
$unwind$??1?$CHeapPtrBase@DVCCRTAllocator@ATL@@@ATL@@QEAA@XZ DD 021e01H
	DD	07006320aH
xdata	ENDS
;	COMDAT xdata
xdata	SEGMENT
$unwind$??0?$CHeapPtrBase@DVCCRTAllocator@ATL@@@ATL@@IEAA@XZ DD 010601H
	DD	07006H
xdata	ENDS
;	COMDAT xdata
xdata	SEGMENT
$unwind$?dtor$0@?0???1?$CHeapPtr@_WVCCRTAllocator@ATL@@@ATL@@QEAA@XZ@4HA DD 031001H
	DD	0700c4210H
	DD	0500bH
xdata	ENDS
;	COMDAT xdata
xdata	SEGMENT
$ip2state$??1?$CHeapPtr@_WVCCRTAllocator@ATL@@@ATL@@QEAA@XZ DB 02H
	DB	00H
	DB	00H
xdata	ENDS
;	COMDAT xdata
xdata	SEGMENT
$stateUnwindMap$??1?$CHeapPtr@_WVCCRTAllocator@ATL@@@ATL@@QEAA@XZ DB 02H
	DB	0eH
	DD	imagerel ?dtor$0@?0???1?$CHeapPtr@_WVCCRTAllocator@ATL@@@ATL@@QEAA@XZ@4HA
xdata	ENDS
;	COMDAT xdata
xdata	SEGMENT
$cppxdata$??1?$CHeapPtr@_WVCCRTAllocator@ATL@@@ATL@@QEAA@XZ DB 048H
	DD	imagerel $stateUnwindMap$??1?$CHeapPtr@_WVCCRTAllocator@ATL@@@ATL@@QEAA@XZ
	DD	imagerel $ip2state$??1?$CHeapPtr@_WVCCRTAllocator@ATL@@@ATL@@QEAA@XZ
xdata	ENDS
;	COMDAT xdata
xdata	SEGMENT
$unwind$??1?$CHeapPtr@_WVCCRTAllocator@ATL@@@ATL@@QEAA@XZ DD 021e11H
	DD	07006320aH
	DD	imagerel __CxxFrameHandler4
	DD	imagerel $cppxdata$??1?$CHeapPtr@_WVCCRTAllocator@ATL@@@ATL@@QEAA@XZ
xdata	ENDS
;	COMDAT xdata
xdata	SEGMENT
$unwind$?Allocate@?$CHeapPtr@_WVCCRTAllocator@ATL@@@ATL@@QEAA_N_K@Z DD 022301H
	DD	0700b720fH
xdata	ENDS
;	COMDAT CONST
CONST	SEGMENT
?Allocate@?$CHeapPtr@_WVCCRTAllocator@ATL@@@ATL@@QEAA_N_K@Z$rtcName$0 DB 06eH ; ATL::CHeapPtr<wchar_t,ATL::CCRTAllocator>::Allocate
	DB	042H
	DB	079H
	DB	074H
	DB	065H
	DB	073H
	DB	00H
	ORG $+9
?Allocate@?$CHeapPtr@_WVCCRTAllocator@ATL@@@ATL@@QEAA_N_K@Z$rtcVarDesc DD 028H ; ATL::CHeapPtr<wchar_t,ATL::CCRTAllocator>::Allocate
	DD	08H
	DQ	FLAT:?Allocate@?$CHeapPtr@_WVCCRTAllocator@ATL@@@ATL@@QEAA_N_K@Z$rtcName$0
	ORG $+48
?Allocate@?$CHeapPtr@_WVCCRTAllocator@ATL@@@ATL@@QEAA_N_K@Z$rtcFrameData DD 01H ; ATL::CHeapPtr<wchar_t,ATL::CCRTAllocator>::Allocate
	DD	00H
	DQ	FLAT:?Allocate@?$CHeapPtr@_WVCCRTAllocator@ATL@@@ATL@@QEAA_N_K@Z$rtcVarDesc
CONST	ENDS
;	COMDAT xdata
xdata	SEGMENT
$unwind$?dtor$0@?0???0?$CHeapPtr@_WVCCRTAllocator@ATL@@@ATL@@QEAA@XZ@4HA DD 031001H
	DD	0700c4210H
	DD	0500bH
xdata	ENDS
;	COMDAT xdata
xdata	SEGMENT
$ip2state$??0?$CHeapPtr@_WVCCRTAllocator@ATL@@@ATL@@QEAA@XZ DB 02H
	DB	00H
	DB	00H
xdata	ENDS
;	COMDAT xdata
xdata	SEGMENT
$stateUnwindMap$??0?$CHeapPtr@_WVCCRTAllocator@ATL@@@ATL@@QEAA@XZ DB 02H
	DB	0eH
	DD	imagerel ?dtor$0@?0???0?$CHeapPtr@_WVCCRTAllocator@ATL@@@ATL@@QEAA@XZ@4HA
xdata	ENDS
;	COMDAT xdata
xdata	SEGMENT
$cppxdata$??0?$CHeapPtr@_WVCCRTAllocator@ATL@@@ATL@@QEAA@XZ DB 08H
	DD	imagerel $stateUnwindMap$??0?$CHeapPtr@_WVCCRTAllocator@ATL@@@ATL@@QEAA@XZ
	DD	imagerel $ip2state$??0?$CHeapPtr@_WVCCRTAllocator@ATL@@@ATL@@QEAA@XZ
xdata	ENDS
;	COMDAT xdata
xdata	SEGMENT
$unwind$??0?$CHeapPtr@_WVCCRTAllocator@ATL@@@ATL@@QEAA@XZ DD 021e11H
	DD	07006320aH
	DD	imagerel __CxxFrameHandler4
	DD	imagerel $cppxdata$??0?$CHeapPtr@_WVCCRTAllocator@ATL@@@ATL@@QEAA@XZ
xdata	ENDS
;	COMDAT xdata
xdata	SEGMENT
$unwind$?Free@?$CHeapPtrBase@_WVCCRTAllocator@ATL@@@ATL@@QEAAXXZ DD 021e01H
	DD	07006320aH
xdata	ENDS
;	COMDAT xdata
xdata	SEGMENT
$unwind$?AllocateBytes@?$CHeapPtrBase@_WVCCRTAllocator@ATL@@@ATL@@QEAA_N_K@Z DD 022301H
	DD	0700b520fH
xdata	ENDS
;	COMDAT xdata
xdata	SEGMENT
$unwind$??B?$CHeapPtrBase@_WVCCRTAllocator@ATL@@@ATL@@QEBAPEA_WXZ DD 010601H
	DD	07006H
xdata	ENDS
;	COMDAT xdata
xdata	SEGMENT
$unwind$??1?$CHeapPtrBase@_WVCCRTAllocator@ATL@@@ATL@@QEAA@XZ DD 021e01H
	DD	07006320aH
xdata	ENDS
;	COMDAT xdata
xdata	SEGMENT
$unwind$??0?$CHeapPtrBase@_WVCCRTAllocator@ATL@@@ATL@@IEAA@XZ DD 010601H
	DD	07006H
xdata	ENDS
;	COMDAT xdata
xdata	SEGMENT
$unwind$?RegisterCategory@CTrace@ATL@@SAXPEBDI@Z DD 033a19H
	DD	02c0111H
	DD	0700aH
	DD	imagerel __GSHandlerCheck
	DD	0150H
xdata	ENDS
;	COMDAT CONST
CONST	SEGMENT
?RegisterCategory@CTrace@ATL@@SAXPEBDI@Z$rtcName$0 DB 062H ; ATL::CTrace::RegisterCategory
	DB	075H
	DB	066H
	DB	066H
	DB	065H
	DB	072H
	DB	00H
	ORG $+9
?RegisterCategory@CTrace@ATL@@SAXPEBDI@Z$rtcVarDesc DD 040H ; ATL::CTrace::RegisterCategory
	DD	0100H
	DQ	FLAT:?RegisterCategory@CTrace@ATL@@SAXPEBDI@Z$rtcName$0
	ORG $+48
?RegisterCategory@CTrace@ATL@@SAXPEBDI@Z$rtcFrameData DD 01H ; ATL::CTrace::RegisterCategory
	DD	00H
	DQ	FLAT:?RegisterCategory@CTrace@ATL@@SAXPEBDI@Z$rtcVarDesc
CONST	ENDS
;	COMDAT xdata
xdata	SEGMENT
$unwind$?dtor$1@?0??TraceV@CTrace@ATL@@SAXPEBDHII0PEAD@Z@4HA DD 031001H
	DD	0700c4210H
	DD	0500bH
xdata	ENDS
;	COMDAT xdata
xdata	SEGMENT
$unwind$?dtor$0@?0??TraceV@CTrace@ATL@@SAXPEBDHII0PEAD@Z@4HA DD 031001H
	DD	0700c4210H
	DD	0500bH
xdata	ENDS
;	COMDAT xdata
xdata	SEGMENT
$ip2state$?TraceV@CTrace@ATL@@SAXPEBDHII0PEAD@Z DB 01eH
	DB	00H
	DB	00H
	DB	0c4H
	DB	02H
	DB	'8'
	DB	00H
	DB	01eH
	DB	02H
	DB	0e2H
	DB	00H
	DB	01eH
	DB	02H
	DB	016H
	DB	04H
	DB	'8'
	DB	02H
	DB	016H
	DB	00H
	DB	01eH
	DB	04H
	DB	0e2H
	DB	02H
	DB	016H
	DB	00H
	DB	018H
	DB	04H
	DB	'h'
	DB	02H
	DB	016H
	DB	00H
xdata	ENDS
;	COMDAT xdata
xdata	SEGMENT
$stateUnwindMap$?TraceV@CTrace@ATL@@SAXPEBDHII0PEAD@Z DB 04H
	DB	0eH
	DD	imagerel ?dtor$0@?0??TraceV@CTrace@ATL@@SAXPEBDHII0PEAD@Z@4HA
	DB	02eH
	DD	imagerel ?dtor$1@?0??TraceV@CTrace@ATL@@SAXPEBDHII0PEAD@Z@4HA
xdata	ENDS
;	COMDAT xdata
xdata	SEGMENT
$cppxdata$?TraceV@CTrace@ATL@@SAXPEBDHII0PEAD@Z DB 08H
	DD	imagerel $stateUnwindMap$?TraceV@CTrace@ATL@@SAXPEBDHII0PEAD@Z
	DD	imagerel $ip2state$?TraceV@CTrace@ATL@@SAXPEBDHII0PEAD@Z
xdata	ENDS
;	COMDAT xdata
xdata	SEGMENT
$unwind$?TraceV@CTrace@ATL@@SAXPEBDHII0PEAD@Z DD 033211H
	DD	014011bH
	DD	07014H
	DD	imagerel __CxxFrameHandler4
	DD	imagerel $cppxdata$?TraceV@CTrace@ATL@@SAXPEBDHII0PEAD@Z
xdata	ENDS
;	COMDAT CONST
CONST	SEGMENT
?TraceV@CTrace@ATL@@SAXPEBDHII0PEAD@Z$rtcName$0 DB 073H	; ATL::CTrace::TraceV
	DB	07aH
	DB	042H
	DB	075H
	DB	066H
	DB	00H
	ORG $+2
?TraceV@CTrace@ATL@@SAXPEBDHII0PEAD@Z$rtcName$1 DB 077H	; ATL::CTrace::TraceV
	DB	073H
	DB	07aH
	DB	042H
	DB	075H
	DB	066H
	DB	00H
	ORG $+1
?TraceV@CTrace@ATL@@SAXPEBDHII0PEAD@Z$rtcVarDesc DD 068H ; ATL::CTrace::TraceV
	DD	08H
	DQ	FLAT:?TraceV@CTrace@ATL@@SAXPEBDHII0PEAD@Z$rtcName$1
	DD	048H
	DD	08H
	DQ	FLAT:?TraceV@CTrace@ATL@@SAXPEBDHII0PEAD@Z$rtcName$0
	ORG $+96
?TraceV@CTrace@ATL@@SAXPEBDHII0PEAD@Z$rtcFrameData DD 02H ; ATL::CTrace::TraceV
	DD	00H
	DQ	FLAT:?TraceV@CTrace@ATL@@SAXPEBDHII0PEAD@Z$rtcVarDesc
CONST	ENDS
;	COMDAT xdata
xdata	SEGMENT
$unwind$?dtor$0@?0??TraceV@CTrace@ATL@@CAXPEBDHIIPEB_W@Z@4HA DD 031001H
	DD	0700c4210H
	DD	0500bH
xdata	ENDS
;	COMDAT xdata
xdata	SEGMENT
$ip2state$?TraceV@CTrace@ATL@@CAXPEBDHIIPEB_W@Z DB 012H
	DB	00H
	DB	00H
	DB	'%', 05H
	DB	02H
	DB	'>'
	DB	00H
	DB	'$'
	DB	02H
	DB	0d4H
	DB	00H
	DB	'$'
	DB	02H
	DB	't'
	DB	00H
	DB	01eH
	DB	02H
	DB	't'
	DB	00H
xdata	ENDS
;	COMDAT xdata
xdata	SEGMENT
$stateUnwindMap$?TraceV@CTrace@ATL@@CAXPEBDHIIPEB_W@Z DB 02H
	DB	0eH
	DD	imagerel ?dtor$0@?0??TraceV@CTrace@ATL@@CAXPEBDHIIPEB_W@Z@4HA
xdata	ENDS
;	COMDAT xdata
xdata	SEGMENT
$cppxdata$?TraceV@CTrace@ATL@@CAXPEBDHIIPEB_W@Z DB 08H
	DD	imagerel $stateUnwindMap$?TraceV@CTrace@ATL@@CAXPEBDHIIPEB_W@Z
	DD	imagerel $ip2state$?TraceV@CTrace@ATL@@CAXPEBDHIIPEB_W@Z
xdata	ENDS
;	COMDAT xdata
xdata	SEGMENT
$unwind$?TraceV@CTrace@ATL@@CAXPEBDHIIPEB_W@Z DD 034419H
	DD	0158011bH
	DD	07014H
	DD	imagerel __GSHandlerCheck_EH4
	DD	imagerel $cppxdata$?TraceV@CTrace@ATL@@CAXPEBDHIIPEB_W@Z
	DD	0abaH
xdata	ENDS
;	COMDAT CONST
CONST	SEGMENT
?TraceV@CTrace@ATL@@CAXPEBDHIIPEB_W@Z$rtcName$0 DB 077H	; ATL::CTrace::TraceV
	DB	073H
	DB	07aH
	DB	043H
	DB	061H
	DB	074H
	DB	065H
	DB	067H
	DB	06fH
	DB	072H
	DB	079H
	DB	00H
?TraceV@CTrace@ATL@@CAXPEBDHIIPEB_W@Z$rtcName$1 DB 077H	; ATL::CTrace::TraceV
	DB	073H
	DB	07aH
	DB	042H
	DB	075H
	DB	066H
	DB	00H
	ORG $+5
?TraceV@CTrace@ATL@@CAXPEBDHIIPEB_W@Z$rtcName$2 DB 066H	; ATL::CTrace::TraceV
	DB	069H
	DB	06cH
	DB	065H
	DB	04eH
	DB	061H
	DB	06dH
	DB	065H
	DB	00H
	ORG $+15
?TraceV@CTrace@ATL@@CAXPEBDHIIPEB_W@Z$rtcVarDesc DD 0890H ; ATL::CTrace::TraceV
	DD	0208H
	DQ	FLAT:?TraceV@CTrace@ATL@@CAXPEBDHIIPEB_W@Z$rtcName$2
	DD	0868H
	DD	08H
	DQ	FLAT:?TraceV@CTrace@ATL@@CAXPEBDHIIPEB_W@Z$rtcName$1
	DD	040H
	DD	0800H
	DQ	FLAT:?TraceV@CTrace@ATL@@CAXPEBDHIIPEB_W@Z$rtcName$0
	ORG $+144
?TraceV@CTrace@ATL@@CAXPEBDHIIPEB_W@Z$rtcFrameData DD 03H ; ATL::CTrace::TraceV
	DD	00H
	DQ	FLAT:?TraceV@CTrace@ATL@@CAXPEBDHIIPEB_W@Z$rtcVarDesc
CONST	ENDS
;	COMDAT xdata
xdata	SEGMENT
$unwind$?GetCategoryName@CTrace@ATL@@CAPEA_WI@Z DD 021c01H
	DD	070051209H
xdata	ENDS
;	COMDAT xdata
xdata	SEGMENT
$unwind$??__EatlTraceISAPI@ATL@@YAXXZ DD 021501H
	DD	070023206H
xdata	ENDS
;	COMDAT xdata
xdata	SEGMENT
$unwind$??0?$CTraceCategoryEx@$0EAAAAA@$0A@@ATL@@QEAA@PEBD@Z DD 022301H
	DD	0700b320fH
xdata	ENDS
;	COMDAT xdata
xdata	SEGMENT
$unwind$??__EatlTraceSync@ATL@@YAXXZ DD 021501H
	DD	070023206H
xdata	ENDS
;	COMDAT xdata
xdata	SEGMENT
$unwind$??0?$CTraceCategoryEx@$0CAAAAA@$0A@@ATL@@QEAA@PEBD@Z DD 022301H
	DD	0700b320fH
xdata	ENDS
;	COMDAT xdata
xdata	SEGMENT
$unwind$??__EatlTraceSecurity@ATL@@YAXXZ DD 021501H
	DD	070023206H
xdata	ENDS
;	COMDAT xdata
xdata	SEGMENT
$unwind$??0?$CTraceCategoryEx@$0BAAAAA@$0A@@ATL@@QEAA@PEBD@Z DD 022301H
	DD	0700b320fH
xdata	ENDS
;	COMDAT xdata
xdata	SEGMENT
$unwind$??__EatlTraceUtil@ATL@@YAXXZ DD 021501H
	DD	070023206H
xdata	ENDS
;	COMDAT xdata
xdata	SEGMENT
$unwind$??__EatlTraceMap@ATL@@YAXXZ DD 021501H
	DD	070023206H
xdata	ENDS
;	COMDAT xdata
xdata	SEGMENT
$unwind$??0?$CTraceCategoryEx@$0EAAAA@$0A@@ATL@@QEAA@PEBD@Z DD 022301H
	DD	0700b320fH
xdata	ENDS
;	COMDAT xdata
xdata	SEGMENT
$unwind$??__EatlTraceString@ATL@@YAXXZ DD 021501H
	DD	070023206H
xdata	ENDS
;	COMDAT xdata
xdata	SEGMENT
$unwind$??0?$CTraceCategoryEx@$0CAAAA@$0A@@ATL@@QEAA@PEBD@Z DD 022301H
	DD	0700b320fH
xdata	ENDS
;	COMDAT xdata
xdata	SEGMENT
$unwind$??__EatlTraceStencil@ATL@@YAXXZ DD 021501H
	DD	070023206H
xdata	ENDS
;	COMDAT xdata
xdata	SEGMENT
$unwind$??0?$CTraceCategoryEx@$0BAAAA@$0A@@ATL@@QEAA@PEBD@Z DD 022301H
	DD	0700b320fH
xdata	ENDS
;	COMDAT xdata
xdata	SEGMENT
$unwind$??__EatlTraceCache@ATL@@YAXXZ DD 021501H
	DD	070023206H
xdata	ENDS
;	COMDAT xdata
xdata	SEGMENT
$unwind$??0?$CTraceCategoryEx@$0IAAA@$0A@@ATL@@QEAA@PEBD@Z DD 022301H
	DD	0700b320fH
xdata	ENDS
;	COMDAT xdata
xdata	SEGMENT
$unwind$??__EatlTraceTime@ATL@@YAXXZ DD 021501H
	DD	070023206H
xdata	ENDS
;	COMDAT xdata
xdata	SEGMENT
$unwind$??0?$CTraceCategoryEx@$0EAAA@$0A@@ATL@@QEAA@PEBD@Z DD 022301H
	DD	0700b320fH
xdata	ENDS
;	COMDAT xdata
xdata	SEGMENT
$unwind$??__EatlTraceException@ATL@@YAXXZ DD 021501H
	DD	070023206H
xdata	ENDS
;	COMDAT xdata
xdata	SEGMENT
$unwind$??0?$CTraceCategoryEx@$0CAAA@$0A@@ATL@@QEAA@PEBD@Z DD 022301H
	DD	0700b320fH
xdata	ENDS
;	COMDAT xdata
xdata	SEGMENT
$unwind$??__EatlTraceAllocation@ATL@@YAXXZ DD 021501H
	DD	070023206H
xdata	ENDS
;	COMDAT xdata
xdata	SEGMENT
$unwind$??0?$CTraceCategoryEx@$0BAAA@$0A@@ATL@@QEAA@PEBD@Z DD 022301H
	DD	0700b320fH
xdata	ENDS
;	COMDAT xdata
xdata	SEGMENT
$unwind$??__EatlTraceNotImpl@ATL@@YAXXZ DD 021501H
	DD	070023206H
xdata	ENDS
;	COMDAT xdata
xdata	SEGMENT
$unwind$??0?$CTraceCategoryEx@$0IAA@$0A@@ATL@@QEAA@PEBD@Z DD 022301H
	DD	0700b320fH
xdata	ENDS
;	COMDAT xdata
xdata	SEGMENT
$unwind$??__EatlTraceSnapin@ATL@@YAXXZ DD 021501H
	DD	070023206H
xdata	ENDS
;	COMDAT xdata
xdata	SEGMENT
$unwind$??0?$CTraceCategoryEx@$0EAA@$0A@@ATL@@QEAA@PEBD@Z DD 022301H
	DD	0700b320fH
xdata	ENDS
;	COMDAT xdata
xdata	SEGMENT
$unwind$??__EatlTraceDBProvider@ATL@@YAXXZ DD 021501H
	DD	070023206H
xdata	ENDS
;	COMDAT xdata
xdata	SEGMENT
$unwind$??0?$CTraceCategoryEx@$0CAA@$0A@@ATL@@QEAA@PEBD@Z DD 022301H
	DD	0700b320fH
xdata	ENDS
;	COMDAT xdata
xdata	SEGMENT
$unwind$??__EatlTraceDBClient@ATL@@YAXXZ DD 021501H
	DD	070023206H
xdata	ENDS
;	COMDAT xdata
xdata	SEGMENT
$unwind$??0?$CTraceCategoryEx@$0BAA@$0A@@ATL@@QEAA@PEBD@Z DD 022301H
	DD	0700b320fH
xdata	ENDS
;	COMDAT xdata
xdata	SEGMENT
$unwind$??__EatlTraceHosting@ATL@@YAXXZ DD 021501H
	DD	070023206H
xdata	ENDS
;	COMDAT xdata
xdata	SEGMENT
$unwind$??0?$CTraceCategoryEx@$0IA@$0A@@ATL@@QEAA@PEBD@Z DD 022301H
	DD	0700b320fH
xdata	ENDS
;	COMDAT xdata
xdata	SEGMENT
$unwind$??__EatlTraceControls@ATL@@YAXXZ DD 021501H
	DD	070023206H
xdata	ENDS
;	COMDAT xdata
xdata	SEGMENT
$unwind$??0?$CTraceCategoryEx@$0EA@$0A@@ATL@@QEAA@PEBD@Z DD 022301H
	DD	0700b320fH
xdata	ENDS
;	COMDAT xdata
xdata	SEGMENT
$unwind$??__EatlTraceWindowing@ATL@@YAXXZ DD 021501H
	DD	070023206H
xdata	ENDS
;	COMDAT xdata
xdata	SEGMENT
$unwind$??B?$CTraceCategoryEx@$0CA@$0A@@ATL@@QEAAIXZ DD 010601H
	DD	07006H
xdata	ENDS
;	COMDAT xdata
xdata	SEGMENT
$unwind$??0?$CTraceCategoryEx@$0CA@$0A@@ATL@@QEAA@PEBD@Z DD 022301H
	DD	0700b320fH
xdata	ENDS
;	COMDAT xdata
xdata	SEGMENT
$unwind$??__EatlTraceRefcount@ATL@@YAXXZ DD 021501H
	DD	070023206H
xdata	ENDS
;	COMDAT xdata
xdata	SEGMENT
$unwind$??0?$CTraceCategoryEx@$0BA@$0A@@ATL@@QEAA@PEBD@Z DD 022301H
	DD	0700b320fH
xdata	ENDS
;	COMDAT xdata
xdata	SEGMENT
$unwind$??__EatlTraceRegistrar@ATL@@YAXXZ DD 021501H
	DD	070023206H
xdata	ENDS
;	COMDAT xdata
xdata	SEGMENT
$unwind$??0?$CTraceCategoryEx@$07$0A@@ATL@@QEAA@PEBD@Z DD 022301H
	DD	0700b320fH
xdata	ENDS
;	COMDAT xdata
xdata	SEGMENT
$unwind$??__EatlTraceQI@ATL@@YAXXZ DD 021501H
	DD	070023206H
xdata	ENDS
;	COMDAT xdata
xdata	SEGMENT
$unwind$??0?$CTraceCategoryEx@$03$0A@@ATL@@QEAA@PEBD@Z DD 022301H
	DD	0700b320fH
xdata	ENDS
;	COMDAT xdata
xdata	SEGMENT
$unwind$??__EatlTraceCOM@ATL@@YAXXZ DD 021501H
	DD	070023206H
xdata	ENDS
;	COMDAT xdata
xdata	SEGMENT
$unwind$??B?$CTraceCategoryEx@$01$0A@@ATL@@QEAAIXZ DD 010601H
	DD	07006H
xdata	ENDS
;	COMDAT xdata
xdata	SEGMENT
$unwind$??0?$CTraceCategoryEx@$01$0A@@ATL@@QEAA@PEBD@Z DD 022301H
	DD	0700b320fH
xdata	ENDS
;	COMDAT xdata
xdata	SEGMENT
$unwind$??__EatlTraceGeneral@ATL@@YAXXZ DD 021501H
	DD	070023206H
xdata	ENDS
;	COMDAT xdata
xdata	SEGMENT
$unwind$??0?$CTraceCategoryEx@$00$0A@@ATL@@QEAA@PEBD@Z DD 022301H
	DD	0700b320fH
xdata	ENDS
;	COMDAT xdata
xdata	SEGMENT
$unwind$??0?$CTraceCategoryEx@$0IAAAA@$0A@@ATL@@QEAA@PEBD@Z DD 022301H
	DD	0700b320fH
xdata	ENDS
;	COMDAT xdata
xdata	SEGMENT
$unwind$?Free@CCRTAllocator@ATL@@SAXPEAX@Z DD 021e01H
	DD	07006320aH
xdata	ENDS
;	COMDAT xdata
xdata	SEGMENT
$unwind$?Allocate@CCRTAllocator@ATL@@SAPEAX_K@Z DD 021e01H
	DD	07006320aH
xdata	ENDS
;	COMDAT xdata
xdata	SEGMENT
$unwind$??__ECspColorprimList@@YAXXZ DD 042b19H
	DD	023010aH
	DD	060027003H
	DD	imagerel __GSHandlerCheck
	DD	0108H
xdata	ENDS
;	COMDAT xdata
xdata	SEGMENT
$unwind$??$make_array@W4CspColorprim@@W41@W41@W41@W41@W41@W41@W41@W41@W41@W41@W41@W41@@@YA?AV?$array@W4CspColorprim@@$0M@@std@@$$QEAW4CspColorprim@@00000000000@Z DD 033d19H
	DD	07016821aH
	DD	06015H
	DD	imagerel __GSHandlerCheck
	DD	038H
xdata	ENDS
;	COMDAT xdata
xdata	SEGMENT
$unwind$??__ECspTransferList@@YAXXZ DD 042b19H
	DD	02b010aH
	DD	060027003H
	DD	imagerel __GSHandlerCheck
	DD	0148H
xdata	ENDS
;	COMDAT xdata
xdata	SEGMENT
$unwind$??$make_array@W4CspTransfer@@W41@W41@W41@W41@W41@W41@W41@W41@W41@W41@W41@W41@W41@W41@W41@@@YA?AV?$array@W4CspTransfer@@$0P@@std@@$$QEAW4CspTransfer@@00000000000000@Z DD 033d19H
	DD	07016a21aH
	DD	06015H
	DD	imagerel __GSHandlerCheck
	DD	048H
xdata	ENDS
;	COMDAT xdata
xdata	SEGMENT
$unwind$??__ECspMatrixList@@YAXXZ DD 042b19H
	DD	029010aH
	DD	060027003H
	DD	imagerel __GSHandlerCheck
	DD	0130H
xdata	ENDS
;	COMDAT xdata
xdata	SEGMENT
$unwind$??$make_array@W4CspMatrix@@W41@W41@W41@W41@W41@W41@W41@W41@W41@W41@W41@W41@W41@W41@@@YA?AV?$array@W4CspMatrix@@$0O@@std@@$$QEAW4CspMatrix@@0000000000000@Z DD 033d19H
	DD	07016a21aH
	DD	06015H
	DD	imagerel __GSHandlerCheck
	DD	040H
xdata	ENDS
xdata	SEGMENT
$unwind$?get_cx_value@@YAHPEBUCX_DESC@@PEBD@Z DD 022301H
	DD	0700b520fH
$unwind$?get_value_from_chr@@YAHPEBUCX_DESC@@PEBD@Z DD 022301H
	DD	0700b520fH
$unwind$?init_qsvp_prm@@YAXPEAUsInputParams@@@Z DD 021e01H
	DD	07006520aH
xdata	ENDS
;	COMDAT xdata
xdata	SEGMENT
$unwind$HRESULT_FROM_WIN32 DD 021c01H
	DD	070051209H
xdata	ENDS
;	COMDAT xdata
xdata	SEGMENT
$unwind$_tcsicmp DD 022301H
	DD	0700b320fH
xdata	ENDS
;	COMDAT xdata
xdata	SEGMENT
$unwind$_tcscmp DD 022301H
	DD	0700b320fH
xdata	ENDS
;	COMDAT xdata
xdata	SEGMENT
$unwind$_vscprintf DD 022301H
	DD	0700b320fH
xdata	ENDS
;	COMDAT xdata
xdata	SEGMENT
$unwind$_vscprintf_l DD 022801H
	DD	070107214H
xdata	ENDS
;	COMDAT xdata
xdata	SEGMENT
$unwind$_vsnprintf_s DD 022d01H
	DD	070155219H
xdata	ENDS
;	COMDAT xdata
xdata	SEGMENT
$unwind$_vsnprintf_s_l DD 022d01H
	DD	070159219H
xdata	ENDS
;	COMDAT xdata
xdata	SEGMENT
$unwind$swprintf_s DD 022d01H
	DD	07015b219H
xdata	ENDS
;	COMDAT CONST
CONST	SEGMENT
swprintf_s$rtcName$0 DB 05fH
	DB	041H
	DB	072H
	DB	067H
	DB	04cH
	DB	069H
	DB	073H
	DB	074H
	DB	00H
	ORG $+7
swprintf_s$rtcVarDesc DD 048H
	DD	08H
	DQ	FLAT:swprintf_s$rtcName$0
	ORG $+48
swprintf_s$rtcFrameData DD 01H
	DD	00H
	DQ	FLAT:swprintf_s$rtcVarDesc
CONST	ENDS
;	COMDAT xdata
xdata	SEGMENT
$unwind$_vswprintf_s_l DD 022d01H
	DD	070157219H
xdata	ENDS
;	COMDAT xdata
xdata	SEGMENT
$unwind$__local_stdio_printf_options DD 010201H
	DD	07002H
xdata	ENDS
;	COMDAT xdata
xdata	SEGMENT
$unwind$?__empty_global_delete@@YAXPEAX_K@Z DD 010b01H
	DD	0700bH
xdata	ENDS
;	COMDAT xdata
xdata	SEGMENT
$unwind$?__empty_global_delete@@YAXPEAX@Z DD 010601H
	DD	07006H
xdata	ENDS
CRT$XCU	SEGMENT
?CspTransferList$initializer$@@3P6AXXZEA DQ FLAT:??__ECspTransferList@@YAXXZ ; CspTransferList$initializer$
CRT$XCU	ENDS
CRT$XCU	SEGMENT
?CspColorprimList$initializer$@@3P6AXXZEA DQ FLAT:??__ECspColorprimList@@YAXXZ ; CspColorprimList$initializer$
CRT$XCU	ENDS
;	COMDAT CRT$XCU
CRT$XCU	SEGMENT
?atlTraceGeneral$initializer$@ATL@@3P6AXXZEA DQ FLAT:??__EatlTraceGeneral@ATL@@YAXXZ ; ATL::atlTraceGeneral$initializer$
CRT$XCU	ENDS
;	COMDAT CRT$XCU
CRT$XCU	SEGMENT
?atlTraceCOM$initializer$@ATL@@3P6AXXZEA DQ FLAT:??__EatlTraceCOM@ATL@@YAXXZ ; ATL::atlTraceCOM$initializer$
CRT$XCU	ENDS
;	COMDAT CRT$XCU
CRT$XCU	SEGMENT
?atlTraceQI$initializer$@ATL@@3P6AXXZEA DQ FLAT:??__EatlTraceQI@ATL@@YAXXZ ; ATL::atlTraceQI$initializer$
CRT$XCU	ENDS
;	COMDAT CRT$XCU
CRT$XCU	SEGMENT
?atlTraceRegistrar$initializer$@ATL@@3P6AXXZEA DQ FLAT:??__EatlTraceRegistrar@ATL@@YAXXZ ; ATL::atlTraceRegistrar$initializer$
CRT$XCU	ENDS
;	COMDAT CRT$XCU
CRT$XCU	SEGMENT
?atlTraceRefcount$initializer$@ATL@@3P6AXXZEA DQ FLAT:??__EatlTraceRefcount@ATL@@YAXXZ ; ATL::atlTraceRefcount$initializer$
CRT$XCU	ENDS
;	COMDAT CRT$XCU
CRT$XCU	SEGMENT
?atlTraceWindowing$initializer$@ATL@@3P6AXXZEA DQ FLAT:??__EatlTraceWindowing@ATL@@YAXXZ ; ATL::atlTraceWindowing$initializer$
CRT$XCU	ENDS
;	COMDAT CRT$XCU
CRT$XCU	SEGMENT
?atlTraceControls$initializer$@ATL@@3P6AXXZEA DQ FLAT:??__EatlTraceControls@ATL@@YAXXZ ; ATL::atlTraceControls$initializer$
CRT$XCU	ENDS
;	COMDAT CRT$XCU
CRT$XCU	SEGMENT
?atlTraceHosting$initializer$@ATL@@3P6AXXZEA DQ FLAT:??__EatlTraceHosting@ATL@@YAXXZ ; ATL::atlTraceHosting$initializer$
CRT$XCU	ENDS
;	COMDAT CRT$XCU
CRT$XCU	SEGMENT
?atlTraceDBClient$initializer$@ATL@@3P6AXXZEA DQ FLAT:??__EatlTraceDBClient@ATL@@YAXXZ ; ATL::atlTraceDBClient$initializer$
CRT$XCU	ENDS
;	COMDAT CRT$XCU
CRT$XCU	SEGMENT
?atlTraceDBProvider$initializer$@ATL@@3P6AXXZEA DQ FLAT:??__EatlTraceDBProvider@ATL@@YAXXZ ; ATL::atlTraceDBProvider$initializer$
CRT$XCU	ENDS
;	COMDAT CRT$XCU
CRT$XCU	SEGMENT
?atlTraceSnapin$initializer$@ATL@@3P6AXXZEA DQ FLAT:??__EatlTraceSnapin@ATL@@YAXXZ ; ATL::atlTraceSnapin$initializer$
CRT$XCU	ENDS
;	COMDAT CRT$XCU
CRT$XCU	SEGMENT
?atlTraceNotImpl$initializer$@ATL@@3P6AXXZEA DQ FLAT:??__EatlTraceNotImpl@ATL@@YAXXZ ; ATL::atlTraceNotImpl$initializer$
CRT$XCU	ENDS
;	COMDAT CRT$XCU
CRT$XCU	SEGMENT
?atlTraceAllocation$initializer$@ATL@@3P6AXXZEA DQ FLAT:??__EatlTraceAllocation@ATL@@YAXXZ ; ATL::atlTraceAllocation$initializer$
CRT$XCU	ENDS
;	COMDAT CRT$XCU
CRT$XCU	SEGMENT
?atlTraceException$initializer$@ATL@@3P6AXXZEA DQ FLAT:??__EatlTraceException@ATL@@YAXXZ ; ATL::atlTraceException$initializer$
CRT$XCU	ENDS
;	COMDAT CRT$XCU
CRT$XCU	SEGMENT
?atlTraceTime$initializer$@ATL@@3P6AXXZEA DQ FLAT:??__EatlTraceTime@ATL@@YAXXZ ; ATL::atlTraceTime$initializer$
CRT$XCU	ENDS
;	COMDAT CRT$XCU
CRT$XCU	SEGMENT
?atlTraceCache$initializer$@ATL@@3P6AXXZEA DQ FLAT:??__EatlTraceCache@ATL@@YAXXZ ; ATL::atlTraceCache$initializer$
CRT$XCU	ENDS
;	COMDAT CRT$XCU
CRT$XCU	SEGMENT
?atlTraceStencil$initializer$@ATL@@3P6AXXZEA DQ FLAT:??__EatlTraceStencil@ATL@@YAXXZ ; ATL::atlTraceStencil$initializer$
CRT$XCU	ENDS
;	COMDAT CRT$XCU
CRT$XCU	SEGMENT
?atlTraceString$initializer$@ATL@@3P6AXXZEA DQ FLAT:??__EatlTraceString@ATL@@YAXXZ ; ATL::atlTraceString$initializer$
CRT$XCU	ENDS
;	COMDAT CRT$XCU
CRT$XCU	SEGMENT
?atlTraceMap$initializer$@ATL@@3P6AXXZEA DQ FLAT:??__EatlTraceMap@ATL@@YAXXZ ; ATL::atlTraceMap$initializer$
CRT$XCU	ENDS
;	COMDAT CRT$XCU
CRT$XCU	SEGMENT
?atlTraceUtil$initializer$@ATL@@3P6AXXZEA DQ FLAT:??__EatlTraceUtil@ATL@@YAXXZ ; ATL::atlTraceUtil$initializer$
CRT$XCU	ENDS
;	COMDAT CRT$XCU
CRT$XCU	SEGMENT
?atlTraceSecurity$initializer$@ATL@@3P6AXXZEA DQ FLAT:??__EatlTraceSecurity@ATL@@YAXXZ ; ATL::atlTraceSecurity$initializer$
CRT$XCU	ENDS
;	COMDAT CRT$XCU
CRT$XCU	SEGMENT
?atlTraceSync$initializer$@ATL@@3P6AXXZEA DQ FLAT:??__EatlTraceSync@ATL@@YAXXZ ; ATL::atlTraceSync$initializer$
CRT$XCU	ENDS
;	COMDAT CRT$XCU
CRT$XCU	SEGMENT
?atlTraceISAPI$initializer$@ATL@@3P6AXXZEA DQ FLAT:??__EatlTraceISAPI@ATL@@YAXXZ ; ATL::atlTraceISAPI$initializer$
CRT$XCU	ENDS
;	COMDAT CRT$XCU
CRT$XCU	SEGMENT
?_AtlComModule$initializer$@ATL@@3P6AXXZEA DQ FLAT:??__E_AtlComModule@ATL@@YAXXZ ; ATL::_AtlComModule$initializer$
CRT$XCU	ENDS
;	COMDAT CRT$XCU
CRT$XCU	SEGMENT
?_AtlWinModule$initializer$@ATL@@3P6AXXZEA DQ FLAT:??__E_AtlWinModule@ATL@@YAXXZ ; ATL::_AtlWinModule$initializer$
CRT$XCU	ENDS
; Function compile flags: /Odtp /RTCsu
; File C:\Program Files (x86)\Microsoft Visual Studio\2019\Community\VC\Tools\MSVC\14.23.28105\atlmfc\include\atlalloc.h
;	COMDAT ??$AtlMultiply@_K@ATL@@YAJPEA_K_K1@Z
_TEXT	SEGMENT
ptResult$ = 48
tLeft$ = 56
tRight$ = 64
??$AtlMultiply@_K@ATL@@YAJPEA_K_K1@Z PROC		; ATL::AtlMultiply<unsigned __int64>, COMDAT

; 99   : {

$LN5:
  00000	4c 89 44 24 18	 mov	 QWORD PTR [rsp+24], r8
  00005	48 89 54 24 10	 mov	 QWORD PTR [rsp+16], rdx
  0000a	48 89 4c 24 08	 mov	 QWORD PTR [rsp+8], rcx
  0000f	57		 push	 rdi
  00010	48 83 ec 20	 sub	 rsp, 32			; 00000020H
  00014	48 8b fc	 mov	 rdi, rsp
  00017	b9 08 00 00 00	 mov	 ecx, 8
  0001c	b8 cc cc cc cc	 mov	 eax, -858993460		; ccccccccH
  00021	f3 ab		 rep stosd
  00023	48 8b 4c 24 30	 mov	 rcx, QWORD PTR [rsp+48]

; 100  : 	/* avoid divide 0 */
; 101  : 	if(tLeft==0)

  00028	48 83 7c 24 38
	00		 cmp	 QWORD PTR tLeft$[rsp], 0
  0002e	75 10		 jne	 SHORT $LN2@AtlMultipl

; 102  : 	{
; 103  : 		*ptResult=0;

  00030	48 8b 44 24 30	 mov	 rax, QWORD PTR ptResult$[rsp]
  00035	48 c7 00 00 00
	00 00		 mov	 QWORD PTR [rax], 0

; 104  : 		return S_OK;

  0003c	33 c0		 xor	 eax, eax
  0003e	eb 36		 jmp	 SHORT $LN1@AtlMultipl
$LN2@AtlMultipl:

; 105  : 	}
; 106  : 	if(::ATL::AtlLimits<T>::_Max/tLeft < tRight)

  00040	33 d2		 xor	 edx, edx
  00042	48 c7 c0 ff ff
	ff ff		 mov	 rax, -1
  00049	48 f7 74 24 38	 div	 QWORD PTR tLeft$[rsp]
  0004e	48 3b 44 24 40	 cmp	 rax, QWORD PTR tRight$[rsp]
  00053	73 0c		 jae	 SHORT $LN3@AtlMultipl

; 107  : 	{
; 108  : 		return HRESULT_FROM_WIN32(ERROR_ARITHMETIC_OVERFLOW);

  00055	b9 16 02 00 00	 mov	 ecx, 534		; 00000216H
  0005a	e8 00 00 00 00	 call	 HRESULT_FROM_WIN32
  0005f	eb 15		 jmp	 SHORT $LN1@AtlMultipl
$LN3@AtlMultipl:

; 109  : 	}
; 110  : 	*ptResult= tLeft * tRight;

  00061	48 8b 44 24 38	 mov	 rax, QWORD PTR tLeft$[rsp]
  00066	48 0f af 44 24
	40		 imul	 rax, QWORD PTR tRight$[rsp]
  0006c	48 8b 4c 24 30	 mov	 rcx, QWORD PTR ptResult$[rsp]
  00071	48 89 01	 mov	 QWORD PTR [rcx], rax

; 111  : 	return S_OK;

  00074	33 c0		 xor	 eax, eax
$LN1@AtlMultipl:

; 112  : }

  00076	48 83 c4 20	 add	 rsp, 32			; 00000020H
  0007a	5f		 pop	 rdi
  0007b	c3		 ret	 0
??$AtlMultiply@_K@ATL@@YAJPEA_K_K1@Z ENDP		; ATL::AtlMultiply<unsigned __int64>
_TEXT	ENDS
; Function compile flags: /Odtp /RTCsu
;	COMDAT ??__F_AtlWinModule@ATL@@YAXXZ
text$yd	SEGMENT
??__F_AtlWinModule@ATL@@YAXXZ PROC			; ATL::`dynamic atexit destructor for '_AtlWinModule'', COMDAT
  00000	40 57		 push	 rdi
  00002	48 83 ec 20	 sub	 rsp, 32			; 00000020H
  00006	48 8b fc	 mov	 rdi, rsp
  00009	b9 08 00 00 00	 mov	 ecx, 8
  0000e	b8 cc cc cc cc	 mov	 eax, -858993460		; ccccccccH
  00013	f3 ab		 rep stosd
  00015	48 8d 0d 00 00
	00 00		 lea	 rcx, OFFSET FLAT:?_AtlWinModule@ATL@@3VCAtlWinModule@1@A ; ATL::_AtlWinModule
  0001c	e8 00 00 00 00	 call	 ??1CAtlWinModule@ATL@@QEAA@XZ ; ATL::CAtlWinModule::~CAtlWinModule
  00021	48 83 c4 20	 add	 rsp, 32			; 00000020H
  00025	5f		 pop	 rdi
  00026	c3		 ret	 0
??__F_AtlWinModule@ATL@@YAXXZ ENDP			; ATL::`dynamic atexit destructor for '_AtlWinModule''
text$yd	ENDS
; Function compile flags: /Odtp /RTCsu
; File C:\Program Files (x86)\Microsoft Visual Studio\2019\Community\VC\Tools\MSVC\14.23.28105\atlmfc\include\atlbase.h
;	COMDAT ??__E_AtlWinModule@ATL@@YAXXZ
text$di	SEGMENT
??__E_AtlWinModule@ATL@@YAXXZ PROC			; ATL::`dynamic initializer for '_AtlWinModule'', COMDAT

; 2972 : __declspec(selectany) CAtlWinModule _AtlWinModule;

  00000	40 57		 push	 rdi
  00002	48 83 ec 20	 sub	 rsp, 32			; 00000020H
  00006	48 8b fc	 mov	 rdi, rsp
  00009	b9 08 00 00 00	 mov	 ecx, 8
  0000e	b8 cc cc cc cc	 mov	 eax, -858993460		; ccccccccH
  00013	f3 ab		 rep stosd
  00015	48 8d 0d 00 00
	00 00		 lea	 rcx, OFFSET FLAT:?_AtlWinModule@ATL@@3VCAtlWinModule@1@A ; ATL::_AtlWinModule
  0001c	e8 00 00 00 00	 call	 ??0CAtlWinModule@ATL@@QEAA@XZ ; ATL::CAtlWinModule::CAtlWinModule
  00021	48 8d 0d 00 00
	00 00		 lea	 rcx, OFFSET FLAT:??__F_AtlWinModule@ATL@@YAXXZ ; ATL::`dynamic atexit destructor for '_AtlWinModule''
  00028	e8 00 00 00 00	 call	 atexit
  0002d	48 83 c4 20	 add	 rsp, 32			; 00000020H
  00031	5f		 pop	 rdi
  00032	c3		 ret	 0
??__E_AtlWinModule@ATL@@YAXXZ ENDP			; ATL::`dynamic initializer for '_AtlWinModule''
text$di	ENDS
; Function compile flags: /Odtp /RTCsu
; File C:\Program Files (x86)\Microsoft Visual Studio\2019\Community\VC\Tools\MSVC\14.23.28105\atlmfc\include\atlbase.h
;	COMDAT ?Term@CAtlWinModule@ATL@@QEAAXXZ
_TEXT	SEGMENT
this$ = 48
?Term@CAtlWinModule@ATL@@QEAAXXZ PROC			; ATL::CAtlWinModule::Term, COMDAT

; 2956 : 	{

$LN3:
  00000	48 89 4c 24 08	 mov	 QWORD PTR [rsp+8], rcx
  00005	57		 push	 rdi
  00006	48 83 ec 20	 sub	 rsp, 32			; 00000020H
  0000a	48 8b fc	 mov	 rdi, rsp
  0000d	b9 08 00 00 00	 mov	 ecx, 8
  00012	b8 cc cc cc cc	 mov	 eax, -858993460		; ccccccccH
  00017	f3 ab		 rep stosd
  00019	48 8b 4c 24 30	 mov	 rcx, QWORD PTR [rsp+48]

; 2957 : 		AtlWinModuleTerm(this, _AtlBaseModule.GetModuleInstance());

  0001e	48 8d 0d 00 00
	00 00		 lea	 rcx, OFFSET FLAT:?_AtlBaseModule@ATL@@3VCAtlBaseModule@1@A ; ATL::_AtlBaseModule
  00025	e8 00 00 00 00	 call	 ?GetModuleInstance@CAtlBaseModule@ATL@@QEAAPEAUHINSTANCE__@@XZ ; ATL::CAtlBaseModule::GetModuleInstance
  0002a	48 8b d0	 mov	 rdx, rax
  0002d	48 8b 4c 24 30	 mov	 rcx, QWORD PTR this$[rsp]
  00032	e8 00 00 00 00	 call	 ?AtlWinModuleTerm@ATL@@YAJPEAU_ATL_WIN_MODULE70@1@PEAUHINSTANCE__@@@Z ; ATL::AtlWinModuleTerm

; 2958 : 	}

  00037	48 83 c4 20	 add	 rsp, 32			; 00000020H
  0003b	5f		 pop	 rdi
  0003c	c3		 ret	 0
?Term@CAtlWinModule@ATL@@QEAAXXZ ENDP			; ATL::CAtlWinModule::Term
_TEXT	ENDS
; Function compile flags: /Odtp /RTCsu
; File C:\Program Files (x86)\Microsoft Visual Studio\2019\Community\VC\Tools\MSVC\14.23.28105\atlmfc\include\atlbase.h
;	COMDAT ??1CAtlWinModule@ATL@@QEAA@XZ
_TEXT	SEGMENT
this$ = 48
??1CAtlWinModule@ATL@@QEAA@XZ PROC			; ATL::CAtlWinModule::~CAtlWinModule, COMDAT

; 2951 : 	{

$LN4:
  00000	48 89 4c 24 08	 mov	 QWORD PTR [rsp+8], rcx
  00005	57		 push	 rdi
  00006	48 83 ec 20	 sub	 rsp, 32			; 00000020H
  0000a	48 8b fc	 mov	 rdi, rsp
  0000d	b9 08 00 00 00	 mov	 ecx, 8
  00012	b8 cc cc cc cc	 mov	 eax, -858993460		; ccccccccH
  00017	f3 ab		 rep stosd
  00019	48 8b 4c 24 30	 mov	 rcx, QWORD PTR [rsp+48]

; 2952 : 		Term();

  0001e	48 8b 4c 24 30	 mov	 rcx, QWORD PTR this$[rsp]
  00023	e8 00 00 00 00	 call	 ?Term@CAtlWinModule@ATL@@QEAAXXZ ; ATL::CAtlWinModule::Term
  00028	90		 npad	 1

; 2953 : 	}

  00029	48 8b 4c 24 30	 mov	 rcx, QWORD PTR this$[rsp]
  0002e	e8 00 00 00 00	 call	 ??1_ATL_WIN_MODULE70@ATL@@QEAA@XZ
  00033	90		 npad	 1
  00034	48 83 c4 20	 add	 rsp, 32			; 00000020H
  00038	5f		 pop	 rdi
  00039	c3		 ret	 0
??1CAtlWinModule@ATL@@QEAA@XZ ENDP			; ATL::CAtlWinModule::~CAtlWinModule
_TEXT	ENDS
;	COMDAT text$x
text$x	SEGMENT
this$ = 48
?dtor$0@?0???1CAtlWinModule@ATL@@QEAA@XZ@4HA PROC	; `ATL::CAtlWinModule::~CAtlWinModule'::`1'::dtor$0
  00000	48 89 4c 24 08	 mov	 QWORD PTR [rsp+8], rcx
  00005	48 89 54 24 10	 mov	 QWORD PTR [rsp+16], rdx
  0000a	55		 push	 rbp
  0000b	57		 push	 rdi
  0000c	48 83 ec 28	 sub	 rsp, 40			; 00000028H
  00010	48 8b ea	 mov	 rbp, rdx
  00013	48 8b 4d 30	 mov	 rcx, QWORD PTR this$[rbp]
  00017	e8 00 00 00 00	 call	 ??1_ATL_WIN_MODULE70@ATL@@QEAA@XZ
  0001c	48 83 c4 28	 add	 rsp, 40			; 00000028H
  00020	5f		 pop	 rdi
  00021	5d		 pop	 rbp
  00022	c3		 ret	 0
?dtor$0@?0???1CAtlWinModule@ATL@@QEAA@XZ@4HA ENDP	; `ATL::CAtlWinModule::~CAtlWinModule'::`1'::dtor$0
text$x	ENDS
; Function compile flags: /Odtp /RTCsu
;	COMDAT text$x
text$x	SEGMENT
this$ = 48
?dtor$0@?0???1CAtlWinModule@ATL@@QEAA@XZ@4HA PROC	; `ATL::CAtlWinModule::~CAtlWinModule'::`1'::dtor$0
  00000	48 89 4c 24 08	 mov	 QWORD PTR [rsp+8], rcx
  00005	48 89 54 24 10	 mov	 QWORD PTR [rsp+16], rdx
  0000a	55		 push	 rbp
  0000b	57		 push	 rdi
  0000c	48 83 ec 28	 sub	 rsp, 40			; 00000028H
  00010	48 8b ea	 mov	 rbp, rdx
  00013	48 8b 4d 30	 mov	 rcx, QWORD PTR this$[rbp]
  00017	e8 00 00 00 00	 call	 ??1_ATL_WIN_MODULE70@ATL@@QEAA@XZ
  0001c	48 83 c4 28	 add	 rsp, 40			; 00000028H
  00020	5f		 pop	 rdi
  00021	5d		 pop	 rbp
  00022	c3		 ret	 0
?dtor$0@?0???1CAtlWinModule@ATL@@QEAA@XZ@4HA ENDP	; `ATL::CAtlWinModule::~CAtlWinModule'::`1'::dtor$0
text$x	ENDS
; Function compile flags: /Odtp /RTCsu
; File C:\Program Files (x86)\Microsoft Visual Studio\2019\Community\VC\Tools\MSVC\14.23.28105\atlmfc\include\atlbase.h
;	COMDAT ??0CAtlWinModule@ATL@@QEAA@XZ
_TEXT	SEGMENT
hr$ = 48
this$ = 80
??0CAtlWinModule@ATL@@QEAA@XZ PROC			; ATL::CAtlWinModule::CAtlWinModule, COMDAT

; 2937 : 	CAtlWinModule()

$LN6:
  00000	48 89 4c 24 08	 mov	 QWORD PTR [rsp+8], rcx
  00005	57		 push	 rdi
  00006	48 83 ec 40	 sub	 rsp, 64			; 00000040H
  0000a	48 8b fc	 mov	 rdi, rsp
  0000d	b9 10 00 00 00	 mov	 ecx, 16
  00012	b8 cc cc cc cc	 mov	 eax, -858993460		; ccccccccH
  00017	f3 ab		 rep stosd
  00019	48 8b 4c 24 50	 mov	 rcx, QWORD PTR [rsp+80]
  0001e	48 8b 4c 24 50	 mov	 rcx, QWORD PTR this$[rsp]
  00023	e8 00 00 00 00	 call	 ??0_ATL_WIN_MODULE70@ATL@@QEAA@XZ
  00028	90		 npad	 1

; 2938 : 	{
; 2939 : 		cbSize = sizeof(_ATL_WIN_MODULE);

  00029	48 8b 44 24 50	 mov	 rax, QWORD PTR this$[rsp]
  0002e	c7 00 48 00 00
	00		 mov	 DWORD PTR [rax], 72	; 00000048H

; 2940 : 		HRESULT hr = AtlWinModuleInit(this);

  00034	48 8b 4c 24 50	 mov	 rcx, QWORD PTR this$[rsp]
  00039	e8 00 00 00 00	 call	 ?AtlWinModuleInit@ATL@@YAJPEAU_ATL_WIN_MODULE70@1@@Z ; ATL::AtlWinModuleInit
  0003e	89 44 24 30	 mov	 DWORD PTR hr$[rsp], eax

; 2941 : 		if (FAILED(hr))

  00042	83 7c 24 30 00	 cmp	 DWORD PTR hr$[rsp], 0
  00047	7d 53		 jge	 SHORT $LN2@CAtlWinMod

; 2942 : 		{
; 2943 : 			ATLASSERT(0);

  00049	33 c0		 xor	 eax, eax
  0004b	85 c0		 test	 eax, eax
  0004d	75 3b		 jne	 SHORT $LN4@CAtlWinMod
  0004f	48 8d 05 00 00
	00 00		 lea	 rax, OFFSET FLAT:??_C@_13COJANIEC@?$AA0@
  00056	48 89 44 24 28	 mov	 QWORD PTR [rsp+40], rax
  0005b	48 8d 05 00 00
	00 00		 lea	 rax, OFFSET FLAT:??_C@_17CNPHIMPH@?$AA?$CF?$AAl?$AAs@
  00062	48 89 44 24 20	 mov	 QWORD PTR [rsp+32], rax
  00067	45 33 c9	 xor	 r9d, r9d
  0006a	41 b8 7f 0b 00
	00		 mov	 r8d, 2943		; 00000b7fH
  00070	48 8d 15 00 00
	00 00		 lea	 rdx, OFFSET FLAT:??_C@_1OC@KMMBJFLB@?$AAC?$AA?3?$AA?2?$AAP?$AAr?$AAo?$AAg?$AAr?$AAa?$AAm?$AA?5?$AAF?$AAi?$AAl?$AAe@
  00077	b9 02 00 00 00	 mov	 ecx, 2
  0007c	ff 15 00 00 00
	00		 call	 QWORD PTR __imp__CrtDbgReportW
  00082	83 f8 01	 cmp	 eax, 1
  00085	75 03		 jne	 SHORT $LN4@CAtlWinMod
  00087	cc		 int	 3
  00088	33 c0		 xor	 eax, eax
$LN4@CAtlWinMod:

; 2944 : 			CAtlBaseModule::m_bInitFailed = true;

  0008a	c6 05 00 00 00
	00 01		 mov	 BYTE PTR ?m_bInitFailed@CAtlBaseModule@ATL@@2_NA, 1 ; ATL::CAtlBaseModule::m_bInitFailed

; 2945 : 			cbSize = 0;

  00091	48 8b 44 24 50	 mov	 rax, QWORD PTR this$[rsp]
  00096	c7 00 00 00 00
	00		 mov	 DWORD PTR [rax], 0
$LN2@CAtlWinMod:

; 2946 : 			return;
; 2947 : 		}
; 2948 : 	}

  0009c	48 8b 44 24 50	 mov	 rax, QWORD PTR this$[rsp]
  000a1	48 83 c4 40	 add	 rsp, 64			; 00000040H
  000a5	5f		 pop	 rdi
  000a6	c3		 ret	 0
??0CAtlWinModule@ATL@@QEAA@XZ ENDP			; ATL::CAtlWinModule::CAtlWinModule
_TEXT	ENDS
;	COMDAT text$x
text$x	SEGMENT
hr$ = 48
this$ = 80
?dtor$0@?0???0CAtlWinModule@ATL@@QEAA@XZ@4HA PROC	; `ATL::CAtlWinModule::CAtlWinModule'::`1'::dtor$0
  00000	48 89 4c 24 08	 mov	 QWORD PTR [rsp+8], rcx
  00005	48 89 54 24 10	 mov	 QWORD PTR [rsp+16], rdx
  0000a	55		 push	 rbp
  0000b	57		 push	 rdi
  0000c	48 83 ec 28	 sub	 rsp, 40			; 00000028H
  00010	48 8b ea	 mov	 rbp, rdx
  00013	48 8b 4d 50	 mov	 rcx, QWORD PTR this$[rbp]
  00017	e8 00 00 00 00	 call	 ??1_ATL_WIN_MODULE70@ATL@@QEAA@XZ
  0001c	48 83 c4 28	 add	 rsp, 40			; 00000028H
  00020	5f		 pop	 rdi
  00021	5d		 pop	 rbp
  00022	c3		 ret	 0
?dtor$0@?0???0CAtlWinModule@ATL@@QEAA@XZ@4HA ENDP	; `ATL::CAtlWinModule::CAtlWinModule'::`1'::dtor$0
text$x	ENDS
; Function compile flags: /Odtp /RTCsu
;	COMDAT text$x
text$x	SEGMENT
hr$ = 48
this$ = 80
?dtor$0@?0???0CAtlWinModule@ATL@@QEAA@XZ@4HA PROC	; `ATL::CAtlWinModule::CAtlWinModule'::`1'::dtor$0
  00000	48 89 4c 24 08	 mov	 QWORD PTR [rsp+8], rcx
  00005	48 89 54 24 10	 mov	 QWORD PTR [rsp+16], rdx
  0000a	55		 push	 rbp
  0000b	57		 push	 rdi
  0000c	48 83 ec 28	 sub	 rsp, 40			; 00000028H
  00010	48 8b ea	 mov	 rbp, rdx
  00013	48 8b 4d 50	 mov	 rcx, QWORD PTR this$[rbp]
  00017	e8 00 00 00 00	 call	 ??1_ATL_WIN_MODULE70@ATL@@QEAA@XZ
  0001c	48 83 c4 28	 add	 rsp, 40			; 00000028H
  00020	5f		 pop	 rdi
  00021	5d		 pop	 rbp
  00022	c3		 ret	 0
?dtor$0@?0???0CAtlWinModule@ATL@@QEAA@XZ@4HA ENDP	; `ATL::CAtlWinModule::CAtlWinModule'::`1'::dtor$0
text$x	ENDS
; Function compile flags: /Odtp /RTCsu
;	COMDAT ??__F_AtlComModule@ATL@@YAXXZ
text$yd	SEGMENT
??__F_AtlComModule@ATL@@YAXXZ PROC			; ATL::`dynamic atexit destructor for '_AtlComModule'', COMDAT
  00000	40 57		 push	 rdi
  00002	48 83 ec 20	 sub	 rsp, 32			; 00000020H
  00006	48 8b fc	 mov	 rdi, rsp
  00009	b9 08 00 00 00	 mov	 ecx, 8
  0000e	b8 cc cc cc cc	 mov	 eax, -858993460		; ccccccccH
  00013	f3 ab		 rep stosd
  00015	48 8d 0d 00 00
	00 00		 lea	 rcx, OFFSET FLAT:?_AtlComModule@ATL@@3VCAtlComModule@1@A ; ATL::_AtlComModule
  0001c	e8 00 00 00 00	 call	 ??1CAtlComModule@ATL@@QEAA@XZ ; ATL::CAtlComModule::~CAtlComModule
  00021	48 83 c4 20	 add	 rsp, 32			; 00000020H
  00025	5f		 pop	 rdi
  00026	c3		 ret	 0
??__F_AtlComModule@ATL@@YAXXZ ENDP			; ATL::`dynamic atexit destructor for '_AtlComModule''
text$yd	ENDS
; Function compile flags: /Odtp /RTCsu
; File C:\Program Files (x86)\Microsoft Visual Studio\2019\Community\VC\Tools\MSVC\14.23.28105\atlmfc\include\atlbase.h
;	COMDAT ??__E_AtlComModule@ATL@@YAXXZ
text$di	SEGMENT
??__E_AtlComModule@ATL@@YAXXZ PROC			; ATL::`dynamic initializer for '_AtlComModule'', COMDAT

; 2716 : __declspec(selectany) CAtlComModule _AtlComModule;

  00000	40 57		 push	 rdi
  00002	48 83 ec 20	 sub	 rsp, 32			; 00000020H
  00006	48 8b fc	 mov	 rdi, rsp
  00009	b9 08 00 00 00	 mov	 ecx, 8
  0000e	b8 cc cc cc cc	 mov	 eax, -858993460		; ccccccccH
  00013	f3 ab		 rep stosd
  00015	48 8d 0d 00 00
	00 00		 lea	 rcx, OFFSET FLAT:?_AtlComModule@ATL@@3VCAtlComModule@1@A ; ATL::_AtlComModule
  0001c	e8 00 00 00 00	 call	 ??0CAtlComModule@ATL@@QEAA@XZ ; ATL::CAtlComModule::CAtlComModule
  00021	48 8d 0d 00 00
	00 00		 lea	 rcx, OFFSET FLAT:??__F_AtlComModule@ATL@@YAXXZ ; ATL::`dynamic atexit destructor for '_AtlComModule''
  00028	e8 00 00 00 00	 call	 atexit
  0002d	48 83 c4 20	 add	 rsp, 32			; 00000020H
  00031	5f		 pop	 rdi
  00032	c3		 ret	 0
??__E_AtlComModule@ATL@@YAXXZ ENDP			; ATL::`dynamic initializer for '_AtlComModule''
text$di	ENDS
; Function compile flags: /Odtp /RTCsu
; File C:\Program Files (x86)\Microsoft Visual Studio\2019\Community\VC\Tools\MSVC\14.23.28105\atlmfc\include\atlbase.h
;	COMDAT ?Term@CAtlComModule@ATL@@QEAAXXZ
_TEXT	SEGMENT
ppEntry$1 = 32
pCache$2 = 40
factory$3 = 48
this$ = 80
?Term@CAtlComModule@ATL@@QEAAXXZ PROC			; ATL::CAtlComModule::Term, COMDAT

; 2613 : 	{

$LN9:
  00000	48 89 4c 24 08	 mov	 QWORD PTR [rsp+8], rcx
  00005	57		 push	 rdi
  00006	48 83 ec 40	 sub	 rsp, 64			; 00000040H
  0000a	48 8b fc	 mov	 rdi, rsp
  0000d	b9 10 00 00 00	 mov	 ecx, 16
  00012	b8 cc cc cc cc	 mov	 eax, -858993460		; ccccccccH
  00017	f3 ab		 rep stosd
  00019	48 8b 4c 24 50	 mov	 rcx, QWORD PTR [rsp+80]

; 2614 : 		if (cbSize == 0)

  0001e	48 8b 44 24 50	 mov	 rax, QWORD PTR this$[rsp]
  00023	83 38 00	 cmp	 DWORD PTR [rax], 0
  00026	75 05		 jne	 SHORT $LN5@Term

; 2615 : 			return;

  00028	e9 a2 00 00 00	 jmp	 $LN1@Term
$LN5@Term:

; 2616 : 
; 2617 : 		for (_ATL_OBJMAP_ENTRY_EX** ppEntry = m_ppAutoObjMapFirst; ppEntry < m_ppAutoObjMapLast; ppEntry++)

  0002d	48 8b 44 24 50	 mov	 rax, QWORD PTR this$[rsp]
  00032	48 8b 40 10	 mov	 rax, QWORD PTR [rax+16]
  00036	48 89 44 24 20	 mov	 QWORD PTR ppEntry$1[rsp], rax
  0003b	eb 0e		 jmp	 SHORT $LN4@Term
$LN2@Term:
  0003d	48 8b 44 24 20	 mov	 rax, QWORD PTR ppEntry$1[rsp]
  00042	48 83 c0 08	 add	 rax, 8
  00046	48 89 44 24 20	 mov	 QWORD PTR ppEntry$1[rsp], rax
$LN4@Term:
  0004b	48 8b 44 24 50	 mov	 rax, QWORD PTR this$[rsp]
  00050	48 8b 40 18	 mov	 rax, QWORD PTR [rax+24]
  00054	48 39 44 24 20	 cmp	 QWORD PTR ppEntry$1[rsp], rax
  00059	73 58		 jae	 SHORT $LN3@Term

; 2618 : 		{
; 2619 : 			if (*ppEntry != NULL)

  0005b	48 8b 44 24 20	 mov	 rax, QWORD PTR ppEntry$1[rsp]
  00060	48 83 38 00	 cmp	 QWORD PTR [rax], 0
  00064	74 4b		 je	 SHORT $LN6@Term

; 2620 : 			{
; 2621 : 				_ATL_OBJMAP_CACHE* pCache = (**ppEntry).pCache;

  00066	48 8b 44 24 20	 mov	 rax, QWORD PTR ppEntry$1[rsp]
  0006b	48 8b 00	 mov	 rax, QWORD PTR [rax]
  0006e	48 8b 40 20	 mov	 rax, QWORD PTR [rax+32]
  00072	48 89 44 24 28	 mov	 QWORD PTR pCache$2[rsp], rax

; 2622 : 
; 2623 : 				if (pCache->pCF != NULL)

  00077	48 8b 44 24 28	 mov	 rax, QWORD PTR pCache$2[rsp]
  0007c	48 83 38 00	 cmp	 QWORD PTR [rax], 0
  00080	74 2f		 je	 SHORT $LN7@Term

; 2624 : 				{
; 2625 : 					// Decode factory pointer if it's not null
; 2626 : 					IUnknown *factory = reinterpret_cast<IUnknown*>(::DecodePointer(pCache->pCF));

  00082	48 8b 44 24 28	 mov	 rax, QWORD PTR pCache$2[rsp]
  00087	48 8b 08	 mov	 rcx, QWORD PTR [rax]
  0008a	ff 15 00 00 00
	00		 call	 QWORD PTR __imp_DecodePointer
  00090	48 89 44 24 30	 mov	 QWORD PTR factory$3[rsp], rax

; 2627 : 					_Analysis_assume_(factory != nullptr);
; 2628 : 					factory->Release();

  00095	48 8b 44 24 30	 mov	 rax, QWORD PTR factory$3[rsp]
  0009a	48 8b 00	 mov	 rax, QWORD PTR [rax]
  0009d	48 8b 4c 24 30	 mov	 rcx, QWORD PTR factory$3[rsp]
  000a2	ff 50 10	 call	 QWORD PTR [rax+16]

; 2629 : 					pCache->pCF = NULL;

  000a5	48 8b 44 24 28	 mov	 rax, QWORD PTR pCache$2[rsp]
  000aa	48 c7 00 00 00
	00 00		 mov	 QWORD PTR [rax], 0
$LN7@Term:
$LN6@Term:

; 2630 : 				}
; 2631 : 			}
; 2632 : 		}

  000b1	eb 8a		 jmp	 SHORT $LN2@Term
$LN3@Term:

; 2633 : 		m_csObjMap.Term();

  000b3	48 8b 44 24 50	 mov	 rax, QWORD PTR this$[rsp]
  000b8	48 83 c0 20	 add	 rax, 32			; 00000020H
  000bc	48 8b c8	 mov	 rcx, rax
  000bf	e8 00 00 00 00	 call	 ?Term@CComCriticalSection@ATL@@QEAAJXZ ; ATL::CComCriticalSection::Term

; 2634 : 		// Set to 0 to indicate that this function has been called
; 2635 : 		// At this point no one should be concerned about cbsize
; 2636 : 		// having the correct value
; 2637 : 		cbSize = 0;

  000c4	48 8b 44 24 50	 mov	 rax, QWORD PTR this$[rsp]
  000c9	c7 00 00 00 00
	00		 mov	 DWORD PTR [rax], 0
$LN1@Term:

; 2638 : 	}

  000cf	48 83 c4 40	 add	 rsp, 64			; 00000040H
  000d3	5f		 pop	 rdi
  000d4	c3		 ret	 0
?Term@CAtlComModule@ATL@@QEAAXXZ ENDP			; ATL::CAtlComModule::Term
_TEXT	ENDS
; Function compile flags: /Odtp /RTCsu
; File C:\Program Files (x86)\Microsoft Visual Studio\2019\Community\VC\Tools\MSVC\14.23.28105\atlmfc\include\atlbase.h
;	COMDAT ??1CAtlComModule@ATL@@QEAA@XZ
_TEXT	SEGMENT
this$ = 48
??1CAtlComModule@ATL@@QEAA@XZ PROC			; ATL::CAtlComModule::~CAtlComModule, COMDAT

; 2607 : 	{

$LN4:
  00000	48 89 4c 24 08	 mov	 QWORD PTR [rsp+8], rcx
  00005	57		 push	 rdi
  00006	48 83 ec 20	 sub	 rsp, 32			; 00000020H
  0000a	48 8b fc	 mov	 rdi, rsp
  0000d	b9 08 00 00 00	 mov	 ecx, 8
  00012	b8 cc cc cc cc	 mov	 eax, -858993460		; ccccccccH
  00017	f3 ab		 rep stosd
  00019	48 8b 4c 24 30	 mov	 rcx, QWORD PTR [rsp+48]

; 2608 : 		Term();

  0001e	48 8b 4c 24 30	 mov	 rcx, QWORD PTR this$[rsp]
  00023	e8 00 00 00 00	 call	 ?Term@CAtlComModule@ATL@@QEAAXXZ ; ATL::CAtlComModule::Term
  00028	90		 npad	 1

; 2609 : 	}

  00029	48 8b 4c 24 30	 mov	 rcx, QWORD PTR this$[rsp]
  0002e	e8 00 00 00 00	 call	 ??1_ATL_COM_MODULE70@ATL@@QEAA@XZ
  00033	90		 npad	 1
  00034	48 83 c4 20	 add	 rsp, 32			; 00000020H
  00038	5f		 pop	 rdi
  00039	c3		 ret	 0
??1CAtlComModule@ATL@@QEAA@XZ ENDP			; ATL::CAtlComModule::~CAtlComModule
_TEXT	ENDS
;	COMDAT text$x
text$x	SEGMENT
this$ = 48
?dtor$0@?0???1CAtlComModule@ATL@@QEAA@XZ@4HA PROC	; `ATL::CAtlComModule::~CAtlComModule'::`1'::dtor$0
  00000	48 89 4c 24 08	 mov	 QWORD PTR [rsp+8], rcx
  00005	48 89 54 24 10	 mov	 QWORD PTR [rsp+16], rdx
  0000a	55		 push	 rbp
  0000b	57		 push	 rdi
  0000c	48 83 ec 28	 sub	 rsp, 40			; 00000028H
  00010	48 8b ea	 mov	 rbp, rdx
  00013	48 8b 4d 30	 mov	 rcx, QWORD PTR this$[rbp]
  00017	e8 00 00 00 00	 call	 ??1_ATL_COM_MODULE70@ATL@@QEAA@XZ
  0001c	48 83 c4 28	 add	 rsp, 40			; 00000028H
  00020	5f		 pop	 rdi
  00021	5d		 pop	 rbp
  00022	c3		 ret	 0
?dtor$0@?0???1CAtlComModule@ATL@@QEAA@XZ@4HA ENDP	; `ATL::CAtlComModule::~CAtlComModule'::`1'::dtor$0
text$x	ENDS
; Function compile flags: /Odtp /RTCsu
;	COMDAT text$x
text$x	SEGMENT
this$ = 48
?dtor$0@?0???1CAtlComModule@ATL@@QEAA@XZ@4HA PROC	; `ATL::CAtlComModule::~CAtlComModule'::`1'::dtor$0
  00000	48 89 4c 24 08	 mov	 QWORD PTR [rsp+8], rcx
  00005	48 89 54 24 10	 mov	 QWORD PTR [rsp+16], rdx
  0000a	55		 push	 rbp
  0000b	57		 push	 rdi
  0000c	48 83 ec 28	 sub	 rsp, 40			; 00000028H
  00010	48 8b ea	 mov	 rbp, rdx
  00013	48 8b 4d 30	 mov	 rcx, QWORD PTR this$[rbp]
  00017	e8 00 00 00 00	 call	 ??1_ATL_COM_MODULE70@ATL@@QEAA@XZ
  0001c	48 83 c4 28	 add	 rsp, 40			; 00000028H
  00020	5f		 pop	 rdi
  00021	5d		 pop	 rbp
  00022	c3		 ret	 0
?dtor$0@?0???1CAtlComModule@ATL@@QEAA@XZ@4HA ENDP	; `ATL::CAtlComModule::~CAtlComModule'::`1'::dtor$0
text$x	ENDS
; Function compile flags: /Odtp /RTCsu
; File C:\Program Files (x86)\Microsoft Visual Studio\2019\Community\VC\Tools\MSVC\14.23.28105\atlmfc\include\atlbase.h
;	COMDAT ??0CAtlComModule@ATL@@QEAA@XZ
_TEXT	SEGMENT
$T1 = 48
tv144 = 64
this$ = 96
??0CAtlComModule@ATL@@QEAA@XZ PROC			; ATL::CAtlComModule::CAtlComModule, COMDAT

; 2586 : 	CAtlComModule() throw()

$LN6:
  00000	48 89 4c 24 08	 mov	 QWORD PTR [rsp+8], rcx
  00005	57		 push	 rdi
  00006	48 83 ec 50	 sub	 rsp, 80			; 00000050H
  0000a	48 8b fc	 mov	 rdi, rsp
  0000d	b9 14 00 00 00	 mov	 ecx, 20
  00012	b8 cc cc cc cc	 mov	 eax, -858993460		; ccccccccH
  00017	f3 ab		 rep stosd
  00019	48 8b 4c 24 60	 mov	 rcx, QWORD PTR [rsp+96]
  0001e	48 8b 4c 24 60	 mov	 rcx, QWORD PTR this$[rsp]
  00023	e8 00 00 00 00	 call	 ??0_ATL_COM_MODULE70@ATL@@QEAA@XZ
  00028	90		 npad	 1

; 2587 : 	{
; 2588 : 		cbSize = 0;

  00029	48 8b 44 24 60	 mov	 rax, QWORD PTR this$[rsp]
  0002e	c7 00 00 00 00
	00		 mov	 DWORD PTR [rax], 0

; 2589 : 
; 2590 : 		m_hInstTypeLib = reinterpret_cast<HINSTANCE>(&__ImageBase);

  00034	48 8b 44 24 60	 mov	 rax, QWORD PTR this$[rsp]
  00039	48 8d 0d 00 00
	00 00		 lea	 rcx, OFFSET FLAT:__ImageBase
  00040	48 89 48 08	 mov	 QWORD PTR [rax+8], rcx

; 2591 : 
; 2592 : 		m_ppAutoObjMapFirst = &__pobjMapEntryFirst + 1;

  00044	48 8d 05 00 00
	00 00		 lea	 rax, OFFSET FLAT:__pobjMapEntryFirst
  0004b	48 83 c0 08	 add	 rax, 8
  0004f	48 8b 4c 24 60	 mov	 rcx, QWORD PTR this$[rsp]
  00054	48 89 41 10	 mov	 QWORD PTR [rcx+16], rax

; 2593 : 		m_ppAutoObjMapLast = &__pobjMapEntryLast;

  00058	48 8b 44 24 60	 mov	 rax, QWORD PTR this$[rsp]
  0005d	48 8d 0d 00 00
	00 00		 lea	 rcx, OFFSET FLAT:__pobjMapEntryLast
  00064	48 89 48 18	 mov	 QWORD PTR [rax+24], rcx

; 2594 : 
; 2595 : 		if (FAILED(m_csObjMap.Init()))

  00068	48 8b 44 24 60	 mov	 rax, QWORD PTR this$[rsp]
  0006d	48 83 c0 20	 add	 rax, 32			; 00000020H
  00071	48 8b c8	 mov	 rcx, rax
  00074	e8 00 00 00 00	 call	 ?Init@CComCriticalSection@ATL@@QEAAJXZ ; ATL::CComCriticalSection::Init
  00079	85 c0		 test	 eax, eax
  0007b	0f 8d 89 00 00
	00		 jge	 $LN2@CAtlComMod

; 2596 : 		{
; 2597 : 			ATLTRACE(atlTraceCOM, 0, _T("ERROR : Unable to initialize critical section in CAtlComModule\n"));

  00081	48 8d 0d 00 00
	00 00		 lea	 rcx, OFFSET FLAT:?atlTraceCOM@ATL@@3V?$CTraceCategoryEx@$01$0A@@1@A ; ATL::atlTraceCOM
  00088	e8 00 00 00 00	 call	 ??B?$CTraceCategoryEx@$01$0A@@ATL@@QEAAIXZ ; ATL::CTraceCategoryEx<2,0>::operator unsigned int
  0008d	89 44 24 40	 mov	 DWORD PTR tv144[rsp], eax
  00091	41 b8 25 0a 00
	00		 mov	 r8d, 2597		; 00000a25H
  00097	48 8d 15 00 00
	00 00		 lea	 rdx, OFFSET FLAT:??_C@_0HB@NHAHFMOE@C?3?2Program?5Files?5?$CIx86?$CJ?2Microsof@
  0009e	48 8d 4c 24 30	 lea	 rcx, QWORD PTR $T1[rsp]
  000a3	e8 00 00 00 00	 call	 ??0CTraceFileAndLineInfo@ATL@@QEAA@PEBDH@Z ; ATL::CTraceFileAndLineInfo::CTraceFileAndLineInfo
  000a8	4c 8d 0d 00 00
	00 00		 lea	 r9, OFFSET FLAT:??_C@_0EA@EJEMLPD@ERROR?5?3?5Unable?5to?5initialize?5cr@
  000af	45 33 c0	 xor	 r8d, r8d
  000b2	8b 4c 24 40	 mov	 ecx, DWORD PTR tv144[rsp]
  000b6	8b d1		 mov	 edx, ecx
  000b8	48 8b c8	 mov	 rcx, rax
  000bb	e8 00 00 00 00	 call	 ??RCTraceFileAndLineInfo@ATL@@QEBAXHIPEBDZZ ; ATL::CTraceFileAndLineInfo::operator()

; 2598 : 			ATLASSERT(0);

  000c0	33 c0		 xor	 eax, eax
  000c2	85 c0		 test	 eax, eax
  000c4	75 3b		 jne	 SHORT $LN4@CAtlComMod
  000c6	48 8d 05 00 00
	00 00		 lea	 rax, OFFSET FLAT:??_C@_13COJANIEC@?$AA0@
  000cd	48 89 44 24 28	 mov	 QWORD PTR [rsp+40], rax
  000d2	48 8d 05 00 00
	00 00		 lea	 rax, OFFSET FLAT:??_C@_17CNPHIMPH@?$AA?$CF?$AAl?$AAs@
  000d9	48 89 44 24 20	 mov	 QWORD PTR [rsp+32], rax
  000de	45 33 c9	 xor	 r9d, r9d
  000e1	41 b8 26 0a 00
	00		 mov	 r8d, 2598		; 00000a26H
  000e7	48 8d 15 00 00
	00 00		 lea	 rdx, OFFSET FLAT:??_C@_1OC@KMMBJFLB@?$AAC?$AA?3?$AA?2?$AAP?$AAr?$AAo?$AAg?$AAr?$AAa?$AAm?$AA?5?$AAF?$AAi?$AAl?$AAe@
  000ee	b9 02 00 00 00	 mov	 ecx, 2
  000f3	ff 15 00 00 00
	00		 call	 QWORD PTR __imp__CrtDbgReportW
  000f9	83 f8 01	 cmp	 eax, 1
  000fc	75 03		 jne	 SHORT $LN4@CAtlComMod
  000fe	cc		 int	 3
  000ff	33 c0		 xor	 eax, eax
$LN4@CAtlComMod:

; 2599 : 			CAtlBaseModule::m_bInitFailed = true;

  00101	c6 05 00 00 00
	00 01		 mov	 BYTE PTR ?m_bInitFailed@CAtlBaseModule@ATL@@2_NA, 1 ; ATL::CAtlBaseModule::m_bInitFailed

; 2600 : 			return;

  00108	eb 0b		 jmp	 SHORT $LN1@CAtlComMod
$LN2@CAtlComMod:

; 2601 : 		}
; 2602 : 		// Set cbSize on success.
; 2603 : 		cbSize = sizeof(_ATL_COM_MODULE);

  0010a	48 8b 44 24 60	 mov	 rax, QWORD PTR this$[rsp]
  0010f	c7 00 48 00 00
	00		 mov	 DWORD PTR [rax], 72	; 00000048H
$LN1@CAtlComMod:

; 2604 : 	}

  00115	48 8b 44 24 60	 mov	 rax, QWORD PTR this$[rsp]
  0011a	48 83 c4 50	 add	 rsp, 80			; 00000050H
  0011e	5f		 pop	 rdi
  0011f	c3		 ret	 0
??0CAtlComModule@ATL@@QEAA@XZ ENDP			; ATL::CAtlComModule::CAtlComModule
_TEXT	ENDS
;	COMDAT text$x
text$x	SEGMENT
$T1 = 48
tv144 = 64
this$ = 96
?dtor$0@?0???0CAtlComModule@ATL@@QEAA@XZ@4HA PROC	; `ATL::CAtlComModule::CAtlComModule'::`1'::dtor$0
  00000	48 89 4c 24 08	 mov	 QWORD PTR [rsp+8], rcx
  00005	48 89 54 24 10	 mov	 QWORD PTR [rsp+16], rdx
  0000a	55		 push	 rbp
  0000b	57		 push	 rdi
  0000c	48 83 ec 28	 sub	 rsp, 40			; 00000028H
  00010	48 8b ea	 mov	 rbp, rdx
  00013	48 8b 4d 60	 mov	 rcx, QWORD PTR this$[rbp]
  00017	e8 00 00 00 00	 call	 ??1_ATL_COM_MODULE70@ATL@@QEAA@XZ
  0001c	48 83 c4 28	 add	 rsp, 40			; 00000028H
  00020	5f		 pop	 rdi
  00021	5d		 pop	 rbp
  00022	c3		 ret	 0
?dtor$0@?0???0CAtlComModule@ATL@@QEAA@XZ@4HA ENDP	; `ATL::CAtlComModule::CAtlComModule'::`1'::dtor$0
text$x	ENDS
; Function compile flags: /Odtp /RTCsu
;	COMDAT text$x
text$x	SEGMENT
$T1 = 48
tv144 = 64
this$ = 96
?dtor$0@?0???0CAtlComModule@ATL@@QEAA@XZ@4HA PROC	; `ATL::CAtlComModule::CAtlComModule'::`1'::dtor$0
  00000	48 89 4c 24 08	 mov	 QWORD PTR [rsp+8], rcx
  00005	48 89 54 24 10	 mov	 QWORD PTR [rsp+16], rdx
  0000a	55		 push	 rbp
  0000b	57		 push	 rdi
  0000c	48 83 ec 28	 sub	 rsp, 40			; 00000028H
  00010	48 8b ea	 mov	 rbp, rdx
  00013	48 8b 4d 60	 mov	 rcx, QWORD PTR this$[rbp]
  00017	e8 00 00 00 00	 call	 ??1_ATL_COM_MODULE70@ATL@@QEAA@XZ
  0001c	48 83 c4 28	 add	 rsp, 40			; 00000028H
  00020	5f		 pop	 rdi
  00021	5d		 pop	 rbp
  00022	c3		 ret	 0
?dtor$0@?0???0CAtlComModule@ATL@@QEAA@XZ@4HA ENDP	; `ATL::CAtlComModule::CAtlComModule'::`1'::dtor$0
text$x	ENDS
; Function compile flags: /Odtp /RTCsu
; File C:\Program Files (x86)\Microsoft Visual Studio\2019\Community\VC\Tools\MSVC\14.23.28105\atlmfc\include\atlbase.h
;	COMDAT ?AtlWinModuleTerm@ATL@@YAJPEAU_ATL_WIN_MODULE70@1@PEAUHINSTANCE__@@@Z
_TEXT	SEGMENT
i$1 = 32
pWinModule$ = 64
hInst$ = 72
?AtlWinModuleTerm@ATL@@YAJPEAU_ATL_WIN_MODULE70@1@PEAUHINSTANCE__@@@Z PROC ; ATL::AtlWinModuleTerm, COMDAT

; 7652 : {

$LN9:
  00000	48 89 54 24 10	 mov	 QWORD PTR [rsp+16], rdx
  00005	48 89 4c 24 08	 mov	 QWORD PTR [rsp+8], rcx
  0000a	57		 push	 rdi
  0000b	48 83 ec 30	 sub	 rsp, 48			; 00000030H
  0000f	48 8b fc	 mov	 rdi, rsp
  00012	b9 0c 00 00 00	 mov	 ecx, 12
  00017	b8 cc cc cc cc	 mov	 eax, -858993460		; ccccccccH
  0001c	f3 ab		 rep stosd
  0001e	48 8b 4c 24 40	 mov	 rcx, QWORD PTR [rsp+64]

; 7653 : 	if (pWinModule == NULL)

  00023	48 83 7c 24 40
	00		 cmp	 QWORD PTR pWinModule$[rsp], 0
  00029	75 0a		 jne	 SHORT $LN5@AtlWinModu

; 7654 : 		return E_INVALIDARG;

  0002b	b8 57 00 07 80	 mov	 eax, -2147024809	; ffffffff80070057H
  00030	e9 a9 00 00 00	 jmp	 $LN1@AtlWinModu
$LN5@AtlWinModu:

; 7655 : 	if (pWinModule->cbSize == 0)

  00035	48 8b 44 24 40	 mov	 rax, QWORD PTR pWinModule$[rsp]
  0003a	83 38 00	 cmp	 DWORD PTR [rax], 0
  0003d	75 07		 jne	 SHORT $LN6@AtlWinModu

; 7656 : 		return S_OK;

  0003f	33 c0		 xor	 eax, eax
  00041	e9 98 00 00 00	 jmp	 $LN1@AtlWinModu
$LN6@AtlWinModu:

; 7657 : 	if (pWinModule->cbSize != sizeof(_ATL_WIN_MODULE))

  00046	48 8b 44 24 40	 mov	 rax, QWORD PTR pWinModule$[rsp]
  0004b	8b 00		 mov	 eax, DWORD PTR [rax]
  0004d	48 83 f8 48	 cmp	 rax, 72			; 00000048H
  00051	74 0a		 je	 SHORT $LN7@AtlWinModu

; 7658 : 		return E_INVALIDARG;

  00053	b8 57 00 07 80	 mov	 eax, -2147024809	; ffffffff80070057H
  00058	e9 81 00 00 00	 jmp	 $LN1@AtlWinModu
$LN7@AtlWinModu:

; 7659 : 
; 7660 : 	for (int i = 0; i < pWinModule->m_rgWindowClassAtoms.GetSize(); i++)

  0005d	c7 44 24 20 00
	00 00 00	 mov	 DWORD PTR i$1[rsp], 0
  00065	eb 0a		 jmp	 SHORT $LN4@AtlWinModu
$LN2@AtlWinModu:
  00067	8b 44 24 20	 mov	 eax, DWORD PTR i$1[rsp]
  0006b	ff c0		 inc	 eax
  0006d	89 44 24 20	 mov	 DWORD PTR i$1[rsp], eax
$LN4@AtlWinModu:
  00071	48 8b 44 24 40	 mov	 rax, QWORD PTR pWinModule$[rsp]
  00076	48 83 c0 38	 add	 rax, 56			; 00000038H
  0007a	48 8b c8	 mov	 rcx, rax
  0007d	e8 00 00 00 00	 call	 ?GetSize@?$CSimpleArray@GV?$CSimpleArrayEqualHelper@G@ATL@@@ATL@@QEBAHXZ ; ATL::CSimpleArray<unsigned short,ATL::CSimpleArrayEqualHelper<unsigned short> >::GetSize
  00082	39 44 24 20	 cmp	 DWORD PTR i$1[rsp], eax
  00086	7d 27		 jge	 SHORT $LN3@AtlWinModu

; 7661 : 		UnregisterClass((LPCTSTR)pWinModule->m_rgWindowClassAtoms[i], hInst);

  00088	48 8b 44 24 40	 mov	 rax, QWORD PTR pWinModule$[rsp]
  0008d	48 83 c0 38	 add	 rax, 56			; 00000038H
  00091	8b 54 24 20	 mov	 edx, DWORD PTR i$1[rsp]
  00095	48 8b c8	 mov	 rcx, rax
  00098	e8 00 00 00 00	 call	 ??A?$CSimpleArray@GV?$CSimpleArrayEqualHelper@G@ATL@@@ATL@@QEAAAEAGH@Z ; ATL::CSimpleArray<unsigned short,ATL::CSimpleArrayEqualHelper<unsigned short> >::operator[]
  0009d	0f b7 00	 movzx	 eax, WORD PTR [rax]
  000a0	48 8b 54 24 48	 mov	 rdx, QWORD PTR hInst$[rsp]
  000a5	8b c8		 mov	 ecx, eax
  000a7	ff 15 00 00 00
	00		 call	 QWORD PTR __imp_UnregisterClassA
  000ad	eb b8		 jmp	 SHORT $LN2@AtlWinModu
$LN3@AtlWinModu:

; 7662 : 	pWinModule->m_rgWindowClassAtoms.RemoveAll();

  000af	48 8b 44 24 40	 mov	 rax, QWORD PTR pWinModule$[rsp]
  000b4	48 83 c0 38	 add	 rax, 56			; 00000038H
  000b8	48 8b c8	 mov	 rcx, rax
  000bb	e8 00 00 00 00	 call	 ?RemoveAll@?$CSimpleArray@GV?$CSimpleArrayEqualHelper@G@ATL@@@ATL@@QEAAXXZ ; ATL::CSimpleArray<unsigned short,ATL::CSimpleArrayEqualHelper<unsigned short> >::RemoveAll

; 7663 : 	pWinModule->m_csWindowCreate.Term();

  000c0	48 8b 44 24 40	 mov	 rax, QWORD PTR pWinModule$[rsp]
  000c5	48 83 c0 08	 add	 rax, 8
  000c9	48 8b c8	 mov	 rcx, rax
  000cc	e8 00 00 00 00	 call	 ?Term@CComCriticalSection@ATL@@QEAAJXZ ; ATL::CComCriticalSection::Term

; 7664 : 	pWinModule->cbSize = 0;

  000d1	48 8b 44 24 40	 mov	 rax, QWORD PTR pWinModule$[rsp]
  000d6	c7 00 00 00 00
	00		 mov	 DWORD PTR [rax], 0

; 7665 : 	return S_OK;

  000dc	33 c0		 xor	 eax, eax
$LN1@AtlWinModu:

; 7666 : }

  000de	48 83 c4 30	 add	 rsp, 48			; 00000030H
  000e2	5f		 pop	 rdi
  000e3	c3		 ret	 0
?AtlWinModuleTerm@ATL@@YAJPEAU_ATL_WIN_MODULE70@1@PEAUHINSTANCE__@@@Z ENDP ; ATL::AtlWinModuleTerm
_TEXT	ENDS
; Function compile flags: /Odtp /RTCsu
; File C:\Program Files (x86)\Microsoft Visual Studio\2019\Community\VC\Tools\MSVC\14.23.28105\atlmfc\include\atlbase.h
;	COMDAT ?AtlWinModuleInit@ATL@@YAJPEAU_ATL_WIN_MODULE70@1@@Z
_TEXT	SEGMENT
hr$ = 48
$T1 = 56
tv81 = 72
pWinModule$ = 96
?AtlWinModuleInit@ATL@@YAJPEAU_ATL_WIN_MODULE70@1@@Z PROC ; ATL::AtlWinModuleInit, COMDAT

; 8396 : {

$LN7:
  00000	48 89 4c 24 08	 mov	 QWORD PTR [rsp+8], rcx
  00005	57		 push	 rdi
  00006	48 83 ec 50	 sub	 rsp, 80			; 00000050H
  0000a	48 8b fc	 mov	 rdi, rsp
  0000d	b9 14 00 00 00	 mov	 ecx, 20
  00012	b8 cc cc cc cc	 mov	 eax, -858993460		; ccccccccH
  00017	f3 ab		 rep stosd
  00019	48 8b 4c 24 60	 mov	 rcx, QWORD PTR [rsp+96]

; 8397 : 	if (pWinModule == NULL)

  0001e	48 83 7c 24 60
	00		 cmp	 QWORD PTR pWinModule$[rsp], 0
  00024	75 0a		 jne	 SHORT $LN2@AtlWinModu

; 8398 : 		return E_INVALIDARG;

  00026	b8 57 00 07 80	 mov	 eax, -2147024809	; ffffffff80070057H
  0002b	e9 c8 00 00 00	 jmp	 $LN1@AtlWinModu
$LN2@AtlWinModu:

; 8399 : 
; 8400 : 	// check only in the DLL
; 8401 : 	if (pWinModule->cbSize != sizeof(_ATL_WIN_MODULE))

  00030	48 8b 44 24 60	 mov	 rax, QWORD PTR pWinModule$[rsp]
  00035	8b 00		 mov	 eax, DWORD PTR [rax]
  00037	48 83 f8 48	 cmp	 rax, 72			; 00000048H
  0003b	74 0a		 je	 SHORT $LN3@AtlWinModu

; 8402 : 		return E_INVALIDARG;

  0003d	b8 57 00 07 80	 mov	 eax, -2147024809	; ffffffff80070057H
  00042	e9 b1 00 00 00	 jmp	 $LN1@AtlWinModu
$LN3@AtlWinModu:

; 8403 : 
; 8404 : 	pWinModule->m_pCreateWndList = NULL;

  00047	48 8b 44 24 60	 mov	 rax, QWORD PTR pWinModule$[rsp]
  0004c	48 c7 40 30 00
	00 00 00	 mov	 QWORD PTR [rax+48], 0

; 8405 : 
; 8406 : 	HRESULT hr = pWinModule->m_csWindowCreate.Init();

  00054	48 8b 44 24 60	 mov	 rax, QWORD PTR pWinModule$[rsp]
  00059	48 83 c0 08	 add	 rax, 8
  0005d	48 8b c8	 mov	 rcx, rax
  00060	e8 00 00 00 00	 call	 ?Init@CComCriticalSection@ATL@@QEAAJXZ ; ATL::CComCriticalSection::Init
  00065	89 44 24 30	 mov	 DWORD PTR hr$[rsp], eax

; 8407 : 	if (FAILED(hr))

  00069	83 7c 24 30 00	 cmp	 DWORD PTR hr$[rsp], 0
  0006e	0f 8d 80 00 00
	00		 jge	 $LN4@AtlWinModu

; 8408 : 	{
; 8409 : 		ATLTRACE(atlTraceWindowing, 0, _T("ERROR : Unable to initialize critical section in AtlWinModuleInit\n"));

  00074	48 8d 0d 00 00
	00 00		 lea	 rcx, OFFSET FLAT:?atlTraceWindowing@ATL@@3V?$CTraceCategoryEx@$0CA@$0A@@1@A ; ATL::atlTraceWindowing
  0007b	e8 00 00 00 00	 call	 ??B?$CTraceCategoryEx@$0CA@$0A@@ATL@@QEAAIXZ ; ATL::CTraceCategoryEx<32,0>::operator unsigned int
  00080	89 44 24 48	 mov	 DWORD PTR tv81[rsp], eax
  00084	41 b8 d9 20 00
	00		 mov	 r8d, 8409		; 000020d9H
  0008a	48 8d 15 00 00
	00 00		 lea	 rdx, OFFSET FLAT:??_C@_0HB@NHAHFMOE@C?3?2Program?5Files?5?$CIx86?$CJ?2Microsof@
  00091	48 8d 4c 24 38	 lea	 rcx, QWORD PTR $T1[rsp]
  00096	e8 00 00 00 00	 call	 ??0CTraceFileAndLineInfo@ATL@@QEAA@PEBDH@Z ; ATL::CTraceFileAndLineInfo::CTraceFileAndLineInfo
  0009b	4c 8d 0d 00 00
	00 00		 lea	 r9, OFFSET FLAT:??_C@_0ED@GFNHMOFC@ERROR?5?3?5Unable?5to?5initialize?5cr@
  000a2	45 33 c0	 xor	 r8d, r8d
  000a5	8b 4c 24 48	 mov	 ecx, DWORD PTR tv81[rsp]
  000a9	8b d1		 mov	 edx, ecx
  000ab	48 8b c8	 mov	 rcx, rax
  000ae	e8 00 00 00 00	 call	 ??RCTraceFileAndLineInfo@ATL@@QEBAXHIPEBDZZ ; ATL::CTraceFileAndLineInfo::operator()

; 8410 : 		ATLASSERT(0);

  000b3	33 c0		 xor	 eax, eax
  000b5	85 c0		 test	 eax, eax
  000b7	75 3b		 jne	 SHORT $LN6@AtlWinModu
  000b9	48 8d 05 00 00
	00 00		 lea	 rax, OFFSET FLAT:??_C@_13COJANIEC@?$AA0@
  000c0	48 89 44 24 28	 mov	 QWORD PTR [rsp+40], rax
  000c5	48 8d 05 00 00
	00 00		 lea	 rax, OFFSET FLAT:??_C@_17CNPHIMPH@?$AA?$CF?$AAl?$AAs@
  000cc	48 89 44 24 20	 mov	 QWORD PTR [rsp+32], rax
  000d1	45 33 c9	 xor	 r9d, r9d
  000d4	41 b8 da 20 00
	00		 mov	 r8d, 8410		; 000020daH
  000da	48 8d 15 00 00
	00 00		 lea	 rdx, OFFSET FLAT:??_C@_1OC@KMMBJFLB@?$AAC?$AA?3?$AA?2?$AAP?$AAr?$AAo?$AAg?$AAr?$AAa?$AAm?$AA?5?$AAF?$AAi?$AAl?$AAe@
  000e1	b9 02 00 00 00	 mov	 ecx, 2
  000e6	ff 15 00 00 00
	00		 call	 QWORD PTR __imp__CrtDbgReportW
  000ec	83 f8 01	 cmp	 eax, 1
  000ef	75 03		 jne	 SHORT $LN6@AtlWinModu
  000f1	cc		 int	 3
  000f2	33 c0		 xor	 eax, eax
$LN6@AtlWinModu:
$LN4@AtlWinModu:

; 8411 : 	}
; 8412 : 	return hr;

  000f4	8b 44 24 30	 mov	 eax, DWORD PTR hr$[rsp]
$LN1@AtlWinModu:

; 8413 : }

  000f8	48 83 c4 50	 add	 rsp, 80			; 00000050H
  000fc	5f		 pop	 rdi
  000fd	c3		 ret	 0
?AtlWinModuleInit@ATL@@YAJPEAU_ATL_WIN_MODULE70@1@@Z ENDP ; ATL::AtlWinModuleInit
_TEXT	ENDS
; Function compile flags: /Odtp /RTCsu
;	COMDAT ??1_ATL_WIN_MODULE70@ATL@@QEAA@XZ
_TEXT	SEGMENT
this$ = 48
??1_ATL_WIN_MODULE70@ATL@@QEAA@XZ PROC			; ATL::_ATL_WIN_MODULE70::~_ATL_WIN_MODULE70, COMDAT
$LN5:
  00000	48 89 4c 24 08	 mov	 QWORD PTR [rsp+8], rcx
  00005	57		 push	 rdi
  00006	48 83 ec 20	 sub	 rsp, 32			; 00000020H
  0000a	48 8b fc	 mov	 rdi, rsp
  0000d	b9 08 00 00 00	 mov	 ecx, 8
  00012	b8 cc cc cc cc	 mov	 eax, -858993460		; ccccccccH
  00017	f3 ab		 rep stosd
  00019	48 8b 4c 24 30	 mov	 rcx, QWORD PTR [rsp+48]
  0001e	48 8b 44 24 30	 mov	 rax, QWORD PTR this$[rsp]
  00023	48 83 c0 38	 add	 rax, 56			; 00000038H
  00027	48 8b c8	 mov	 rcx, rax
  0002a	e8 00 00 00 00	 call	 ??1?$CSimpleArray@GV?$CSimpleArrayEqualHelper@G@ATL@@@ATL@@QEAA@XZ ; ATL::CSimpleArray<unsigned short,ATL::CSimpleArrayEqualHelper<unsigned short> >::~CSimpleArray<unsigned short,ATL::CSimpleArrayEqualHelper<unsigned short> >
  0002f	90		 npad	 1
  00030	48 8b 44 24 30	 mov	 rax, QWORD PTR this$[rsp]
  00035	48 83 c0 08	 add	 rax, 8
  00039	48 8b c8	 mov	 rcx, rax
  0003c	e8 00 00 00 00	 call	 ??1CComCriticalSection@ATL@@QEAA@XZ ; ATL::CComCriticalSection::~CComCriticalSection
  00041	90		 npad	 1
  00042	48 83 c4 20	 add	 rsp, 32			; 00000020H
  00046	5f		 pop	 rdi
  00047	c3		 ret	 0
??1_ATL_WIN_MODULE70@ATL@@QEAA@XZ ENDP			; ATL::_ATL_WIN_MODULE70::~_ATL_WIN_MODULE70
_TEXT	ENDS
;	COMDAT text$x
text$x	SEGMENT
this$ = 48
?dtor$0@?0???1_ATL_WIN_MODULE70@ATL@@QEAA@XZ@4HA PROC	; `ATL::_ATL_WIN_MODULE70::~_ATL_WIN_MODULE70'::`1'::dtor$0
  00000	48 89 4c 24 08	 mov	 QWORD PTR [rsp+8], rcx
  00005	48 89 54 24 10	 mov	 QWORD PTR [rsp+16], rdx
  0000a	55		 push	 rbp
  0000b	57		 push	 rdi
  0000c	48 83 ec 28	 sub	 rsp, 40			; 00000028H
  00010	48 8b ea	 mov	 rbp, rdx
  00013	48 8b 4d 30	 mov	 rcx, QWORD PTR this$[rbp]
  00017	48 83 c1 08	 add	 rcx, 8
  0001b	e8 00 00 00 00	 call	 ??1CComCriticalSection@ATL@@QEAA@XZ ; ATL::CComCriticalSection::~CComCriticalSection
  00020	48 83 c4 28	 add	 rsp, 40			; 00000028H
  00024	5f		 pop	 rdi
  00025	5d		 pop	 rbp
  00026	c3		 ret	 0
?dtor$0@?0???1_ATL_WIN_MODULE70@ATL@@QEAA@XZ@4HA ENDP	; `ATL::_ATL_WIN_MODULE70::~_ATL_WIN_MODULE70'::`1'::dtor$0
text$x	ENDS
;	COMDAT text$x
text$x	SEGMENT
this$ = 48
?dtor$1@?0???1_ATL_WIN_MODULE70@ATL@@QEAA@XZ@4HA PROC	; `ATL::_ATL_WIN_MODULE70::~_ATL_WIN_MODULE70'::`1'::dtor$1
  00000	48 89 4c 24 08	 mov	 QWORD PTR [rsp+8], rcx
  00005	48 89 54 24 10	 mov	 QWORD PTR [rsp+16], rdx
  0000a	55		 push	 rbp
  0000b	57		 push	 rdi
  0000c	48 83 ec 28	 sub	 rsp, 40			; 00000028H
  00010	48 8b ea	 mov	 rbp, rdx
  00013	48 8b 4d 30	 mov	 rcx, QWORD PTR this$[rbp]
  00017	48 83 c1 38	 add	 rcx, 56			; 00000038H
  0001b	e8 00 00 00 00	 call	 ??1?$CSimpleArray@GV?$CSimpleArrayEqualHelper@G@ATL@@@ATL@@QEAA@XZ ; ATL::CSimpleArray<unsigned short,ATL::CSimpleArrayEqualHelper<unsigned short> >::~CSimpleArray<unsigned short,ATL::CSimpleArrayEqualHelper<unsigned short> >
  00020	48 83 c4 28	 add	 rsp, 40			; 00000028H
  00024	5f		 pop	 rdi
  00025	5d		 pop	 rbp
  00026	c3		 ret	 0
?dtor$1@?0???1_ATL_WIN_MODULE70@ATL@@QEAA@XZ@4HA ENDP	; `ATL::_ATL_WIN_MODULE70::~_ATL_WIN_MODULE70'::`1'::dtor$1
text$x	ENDS
; Function compile flags: /Odtp /RTCsu
;	COMDAT text$x
text$x	SEGMENT
this$ = 48
?dtor$0@?0???1_ATL_WIN_MODULE70@ATL@@QEAA@XZ@4HA PROC	; `ATL::_ATL_WIN_MODULE70::~_ATL_WIN_MODULE70'::`1'::dtor$0
  00000	48 89 4c 24 08	 mov	 QWORD PTR [rsp+8], rcx
  00005	48 89 54 24 10	 mov	 QWORD PTR [rsp+16], rdx
  0000a	55		 push	 rbp
  0000b	57		 push	 rdi
  0000c	48 83 ec 28	 sub	 rsp, 40			; 00000028H
  00010	48 8b ea	 mov	 rbp, rdx
  00013	48 8b 4d 30	 mov	 rcx, QWORD PTR this$[rbp]
  00017	48 83 c1 08	 add	 rcx, 8
  0001b	e8 00 00 00 00	 call	 ??1CComCriticalSection@ATL@@QEAA@XZ ; ATL::CComCriticalSection::~CComCriticalSection
  00020	48 83 c4 28	 add	 rsp, 40			; 00000028H
  00024	5f		 pop	 rdi
  00025	5d		 pop	 rbp
  00026	c3		 ret	 0
?dtor$0@?0???1_ATL_WIN_MODULE70@ATL@@QEAA@XZ@4HA ENDP	; `ATL::_ATL_WIN_MODULE70::~_ATL_WIN_MODULE70'::`1'::dtor$0
text$x	ENDS
; Function compile flags: /Odtp /RTCsu
;	COMDAT text$x
text$x	SEGMENT
this$ = 48
?dtor$1@?0???1_ATL_WIN_MODULE70@ATL@@QEAA@XZ@4HA PROC	; `ATL::_ATL_WIN_MODULE70::~_ATL_WIN_MODULE70'::`1'::dtor$1
  00000	48 89 4c 24 08	 mov	 QWORD PTR [rsp+8], rcx
  00005	48 89 54 24 10	 mov	 QWORD PTR [rsp+16], rdx
  0000a	55		 push	 rbp
  0000b	57		 push	 rdi
  0000c	48 83 ec 28	 sub	 rsp, 40			; 00000028H
  00010	48 8b ea	 mov	 rbp, rdx
  00013	48 8b 4d 30	 mov	 rcx, QWORD PTR this$[rbp]
  00017	48 83 c1 38	 add	 rcx, 56			; 00000038H
  0001b	e8 00 00 00 00	 call	 ??1?$CSimpleArray@GV?$CSimpleArrayEqualHelper@G@ATL@@@ATL@@QEAA@XZ ; ATL::CSimpleArray<unsigned short,ATL::CSimpleArrayEqualHelper<unsigned short> >::~CSimpleArray<unsigned short,ATL::CSimpleArrayEqualHelper<unsigned short> >
  00020	48 83 c4 28	 add	 rsp, 40			; 00000028H
  00024	5f		 pop	 rdi
  00025	5d		 pop	 rbp
  00026	c3		 ret	 0
?dtor$1@?0???1_ATL_WIN_MODULE70@ATL@@QEAA@XZ@4HA ENDP	; `ATL::_ATL_WIN_MODULE70::~_ATL_WIN_MODULE70'::`1'::dtor$1
text$x	ENDS
; Function compile flags: /Odtp /RTCsu
;	COMDAT ??0_ATL_WIN_MODULE70@ATL@@QEAA@XZ
_TEXT	SEGMENT
this$ = 48
??0_ATL_WIN_MODULE70@ATL@@QEAA@XZ PROC			; ATL::_ATL_WIN_MODULE70::_ATL_WIN_MODULE70, COMDAT
$LN5:
  00000	48 89 4c 24 08	 mov	 QWORD PTR [rsp+8], rcx
  00005	57		 push	 rdi
  00006	48 83 ec 20	 sub	 rsp, 32			; 00000020H
  0000a	48 8b fc	 mov	 rdi, rsp
  0000d	b9 08 00 00 00	 mov	 ecx, 8
  00012	b8 cc cc cc cc	 mov	 eax, -858993460		; ccccccccH
  00017	f3 ab		 rep stosd
  00019	48 8b 4c 24 30	 mov	 rcx, QWORD PTR [rsp+48]
  0001e	48 8b 44 24 30	 mov	 rax, QWORD PTR this$[rsp]
  00023	48 83 c0 08	 add	 rax, 8
  00027	48 8b c8	 mov	 rcx, rax
  0002a	e8 00 00 00 00	 call	 ??0CComCriticalSection@ATL@@QEAA@XZ ; ATL::CComCriticalSection::CComCriticalSection
  0002f	90		 npad	 1
  00030	48 8b 44 24 30	 mov	 rax, QWORD PTR this$[rsp]
  00035	48 83 c0 38	 add	 rax, 56			; 00000038H
  00039	48 8b c8	 mov	 rcx, rax
  0003c	e8 00 00 00 00	 call	 ??0?$CSimpleArray@GV?$CSimpleArrayEqualHelper@G@ATL@@@ATL@@QEAA@XZ ; ATL::CSimpleArray<unsigned short,ATL::CSimpleArrayEqualHelper<unsigned short> >::CSimpleArray<unsigned short,ATL::CSimpleArrayEqualHelper<unsigned short> >
  00041	90		 npad	 1
  00042	48 8b 44 24 30	 mov	 rax, QWORD PTR this$[rsp]
  00047	48 83 c4 20	 add	 rsp, 32			; 00000020H
  0004b	5f		 pop	 rdi
  0004c	c3		 ret	 0
??0_ATL_WIN_MODULE70@ATL@@QEAA@XZ ENDP			; ATL::_ATL_WIN_MODULE70::_ATL_WIN_MODULE70
_TEXT	ENDS
;	COMDAT text$x
text$x	SEGMENT
this$ = 48
?dtor$0@?0???0_ATL_WIN_MODULE70@ATL@@QEAA@XZ@4HA PROC	; `ATL::_ATL_WIN_MODULE70::_ATL_WIN_MODULE70'::`1'::dtor$0
  00000	48 89 4c 24 08	 mov	 QWORD PTR [rsp+8], rcx
  00005	48 89 54 24 10	 mov	 QWORD PTR [rsp+16], rdx
  0000a	55		 push	 rbp
  0000b	57		 push	 rdi
  0000c	48 83 ec 28	 sub	 rsp, 40			; 00000028H
  00010	48 8b ea	 mov	 rbp, rdx
  00013	48 8b 4d 30	 mov	 rcx, QWORD PTR this$[rbp]
  00017	48 83 c1 08	 add	 rcx, 8
  0001b	e8 00 00 00 00	 call	 ??1CComCriticalSection@ATL@@QEAA@XZ ; ATL::CComCriticalSection::~CComCriticalSection
  00020	48 83 c4 28	 add	 rsp, 40			; 00000028H
  00024	5f		 pop	 rdi
  00025	5d		 pop	 rbp
  00026	c3		 ret	 0
?dtor$0@?0???0_ATL_WIN_MODULE70@ATL@@QEAA@XZ@4HA ENDP	; `ATL::_ATL_WIN_MODULE70::_ATL_WIN_MODULE70'::`1'::dtor$0
text$x	ENDS
;	COMDAT text$x
text$x	SEGMENT
this$ = 48
?dtor$1@?0???0_ATL_WIN_MODULE70@ATL@@QEAA@XZ@4HA PROC	; `ATL::_ATL_WIN_MODULE70::_ATL_WIN_MODULE70'::`1'::dtor$1
  00000	48 89 4c 24 08	 mov	 QWORD PTR [rsp+8], rcx
  00005	48 89 54 24 10	 mov	 QWORD PTR [rsp+16], rdx
  0000a	55		 push	 rbp
  0000b	57		 push	 rdi
  0000c	48 83 ec 28	 sub	 rsp, 40			; 00000028H
  00010	48 8b ea	 mov	 rbp, rdx
  00013	48 8b 4d 30	 mov	 rcx, QWORD PTR this$[rbp]
  00017	48 83 c1 38	 add	 rcx, 56			; 00000038H
  0001b	e8 00 00 00 00	 call	 ??1?$CSimpleArray@GV?$CSimpleArrayEqualHelper@G@ATL@@@ATL@@QEAA@XZ ; ATL::CSimpleArray<unsigned short,ATL::CSimpleArrayEqualHelper<unsigned short> >::~CSimpleArray<unsigned short,ATL::CSimpleArrayEqualHelper<unsigned short> >
  00020	48 83 c4 28	 add	 rsp, 40			; 00000028H
  00024	5f		 pop	 rdi
  00025	5d		 pop	 rbp
  00026	c3		 ret	 0
?dtor$1@?0???0_ATL_WIN_MODULE70@ATL@@QEAA@XZ@4HA ENDP	; `ATL::_ATL_WIN_MODULE70::_ATL_WIN_MODULE70'::`1'::dtor$1
text$x	ENDS
; Function compile flags: /Odtp /RTCsu
;	COMDAT text$x
text$x	SEGMENT
this$ = 48
?dtor$0@?0???0_ATL_WIN_MODULE70@ATL@@QEAA@XZ@4HA PROC	; `ATL::_ATL_WIN_MODULE70::_ATL_WIN_MODULE70'::`1'::dtor$0
  00000	48 89 4c 24 08	 mov	 QWORD PTR [rsp+8], rcx
  00005	48 89 54 24 10	 mov	 QWORD PTR [rsp+16], rdx
  0000a	55		 push	 rbp
  0000b	57		 push	 rdi
  0000c	48 83 ec 28	 sub	 rsp, 40			; 00000028H
  00010	48 8b ea	 mov	 rbp, rdx
  00013	48 8b 4d 30	 mov	 rcx, QWORD PTR this$[rbp]
  00017	48 83 c1 08	 add	 rcx, 8
  0001b	e8 00 00 00 00	 call	 ??1CComCriticalSection@ATL@@QEAA@XZ ; ATL::CComCriticalSection::~CComCriticalSection
  00020	48 83 c4 28	 add	 rsp, 40			; 00000028H
  00024	5f		 pop	 rdi
  00025	5d		 pop	 rbp
  00026	c3		 ret	 0
?dtor$0@?0???0_ATL_WIN_MODULE70@ATL@@QEAA@XZ@4HA ENDP	; `ATL::_ATL_WIN_MODULE70::_ATL_WIN_MODULE70'::`1'::dtor$0
text$x	ENDS
; Function compile flags: /Odtp /RTCsu
;	COMDAT text$x
text$x	SEGMENT
this$ = 48
?dtor$1@?0???0_ATL_WIN_MODULE70@ATL@@QEAA@XZ@4HA PROC	; `ATL::_ATL_WIN_MODULE70::_ATL_WIN_MODULE70'::`1'::dtor$1
  00000	48 89 4c 24 08	 mov	 QWORD PTR [rsp+8], rcx
  00005	48 89 54 24 10	 mov	 QWORD PTR [rsp+16], rdx
  0000a	55		 push	 rbp
  0000b	57		 push	 rdi
  0000c	48 83 ec 28	 sub	 rsp, 40			; 00000028H
  00010	48 8b ea	 mov	 rbp, rdx
  00013	48 8b 4d 30	 mov	 rcx, QWORD PTR this$[rbp]
  00017	48 83 c1 38	 add	 rcx, 56			; 00000038H
  0001b	e8 00 00 00 00	 call	 ??1?$CSimpleArray@GV?$CSimpleArrayEqualHelper@G@ATL@@@ATL@@QEAA@XZ ; ATL::CSimpleArray<unsigned short,ATL::CSimpleArrayEqualHelper<unsigned short> >::~CSimpleArray<unsigned short,ATL::CSimpleArrayEqualHelper<unsigned short> >
  00020	48 83 c4 28	 add	 rsp, 40			; 00000028H
  00024	5f		 pop	 rdi
  00025	5d		 pop	 rbp
  00026	c3		 ret	 0
?dtor$1@?0???0_ATL_WIN_MODULE70@ATL@@QEAA@XZ@4HA ENDP	; `ATL::_ATL_WIN_MODULE70::_ATL_WIN_MODULE70'::`1'::dtor$1
text$x	ENDS
; Function compile flags: /Odtp /RTCsu
; File C:\Program Files (x86)\Microsoft Visual Studio\2019\Community\VC\Tools\MSVC\14.23.28105\atlmfc\include\atlsimpcoll.h
;	COMDAT ??A?$CSimpleArray@GV?$CSimpleArrayEqualHelper@G@ATL@@@ATL@@QEAAAEAGH@Z
_TEXT	SEGMENT
this$ = 64
nIndex$ = 72
??A?$CSimpleArray@GV?$CSimpleArrayEqualHelper@G@ATL@@@ATL@@QEAAAEAGH@Z PROC ; ATL::CSimpleArray<unsigned short,ATL::CSimpleArrayEqualHelper<unsigned short> >::operator[], COMDAT

; 236  : 	{

$LN7:
  00000	89 54 24 10	 mov	 DWORD PTR [rsp+16], edx
  00004	48 89 4c 24 08	 mov	 QWORD PTR [rsp+8], rcx
  00009	57		 push	 rdi
  0000a	48 83 ec 30	 sub	 rsp, 48			; 00000030H
  0000e	48 8b fc	 mov	 rdi, rsp
  00011	b9 0c 00 00 00	 mov	 ecx, 12
  00016	b8 cc cc cc cc	 mov	 eax, -858993460		; ccccccccH
  0001b	f3 ab		 rep stosd
  0001d	48 8b 4c 24 40	 mov	 rcx, QWORD PTR [rsp+64]

; 237  : 		ATLASSERT(nIndex >= 0 && nIndex < m_nSize);

  00022	83 7c 24 48 00	 cmp	 DWORD PTR nIndex$[rsp], 0
  00027	7c 0e		 jl	 SHORT $LN5@operator
  00029	48 8b 44 24 40	 mov	 rax, QWORD PTR this$[rsp]
  0002e	8b 40 08	 mov	 eax, DWORD PTR [rax+8]
  00031	39 44 24 48	 cmp	 DWORD PTR nIndex$[rsp], eax
  00035	7c 3b		 jl	 SHORT $LN6@operator
$LN5@operator:
  00037	48 8d 05 00 00
	00 00		 lea	 rax, OFFSET FLAT:??_C@_1EA@JHMKKLFC@?$AAn?$AAI?$AAn?$AAd?$AAe?$AAx?$AA?5?$AA?$DO?$AA?$DN?$AA?5?$AA0?$AA?5?$AA?$CG?$AA?$CG?$AA?5@
  0003e	48 89 44 24 28	 mov	 QWORD PTR [rsp+40], rax
  00043	48 8d 05 00 00
	00 00		 lea	 rax, OFFSET FLAT:??_C@_17CNPHIMPH@?$AA?$CF?$AAl?$AAs@
  0004a	48 89 44 24 20	 mov	 QWORD PTR [rsp+32], rax
  0004f	45 33 c9	 xor	 r9d, r9d
  00052	41 b8 ed 00 00
	00		 mov	 r8d, 237		; 000000edH
  00058	48 8d 15 00 00
	00 00		 lea	 rdx, OFFSET FLAT:??_C@_1OK@ENELOBIL@?$AAC?$AA?3?$AA?2?$AAP?$AAr?$AAo?$AAg?$AAr?$AAa?$AAm?$AA?5?$AAF?$AAi?$AAl?$AAe@
  0005f	b9 02 00 00 00	 mov	 ecx, 2
  00064	ff 15 00 00 00
	00		 call	 QWORD PTR __imp__CrtDbgReportW
  0006a	83 f8 01	 cmp	 eax, 1
  0006d	75 03		 jne	 SHORT $LN6@operator
  0006f	cc		 int	 3
  00070	33 c0		 xor	 eax, eax
$LN6@operator:

; 238  : 		if(nIndex < 0 || nIndex >= m_nSize)

  00072	83 7c 24 48 00	 cmp	 DWORD PTR nIndex$[rsp], 0
  00077	7c 0e		 jl	 SHORT $LN3@operator
  00079	48 8b 44 24 40	 mov	 rax, QWORD PTR this$[rsp]
  0007e	8b 40 08	 mov	 eax, DWORD PTR [rax+8]
  00081	39 44 24 48	 cmp	 DWORD PTR nIndex$[rsp], eax
  00085	7c 0f		 jl	 SHORT $LN2@operator
$LN3@operator:

; 239  : 		{
; 240  : 			_AtlRaiseException((DWORD)EXCEPTION_ARRAY_BOUNDS_EXCEEDED);

  00087	ba 01 00 00 00	 mov	 edx, 1
  0008c	b9 8c 00 00 c0	 mov	 ecx, -1073741684	; c000008cH
  00091	e8 00 00 00 00	 call	 ?_AtlRaiseException@ATL@@YAXKK@Z ; ATL::_AtlRaiseException
$LN2@operator:

; 241  : 		}
; 242  : 		return m_aT[nIndex];

  00096	48 63 44 24 48	 movsxd	 rax, DWORD PTR nIndex$[rsp]
  0009b	48 8b 4c 24 40	 mov	 rcx, QWORD PTR this$[rsp]
  000a0	48 8b 09	 mov	 rcx, QWORD PTR [rcx]
  000a3	48 8d 04 41	 lea	 rax, QWORD PTR [rcx+rax*2]
$LN4@operator:

; 243  : 	}

  000a7	48 83 c4 30	 add	 rsp, 48			; 00000030H
  000ab	5f		 pop	 rdi
  000ac	c3		 ret	 0
??A?$CSimpleArray@GV?$CSimpleArrayEqualHelper@G@ATL@@@ATL@@QEAAAEAGH@Z ENDP ; ATL::CSimpleArray<unsigned short,ATL::CSimpleArrayEqualHelper<unsigned short> >::operator[]
_TEXT	ENDS
; Function compile flags: /Odtp /RTCsu
; File C:\Program Files (x86)\Microsoft Visual Studio\2019\Community\VC\Tools\MSVC\14.23.28105\atlmfc\include\atlsimpcoll.h
;	COMDAT ?RemoveAll@?$CSimpleArray@GV?$CSimpleArrayEqualHelper@G@ATL@@@ATL@@QEAAXXZ
_TEXT	SEGMENT
i$1 = 32
this$ = 64
?RemoveAll@?$CSimpleArray@GV?$CSimpleArrayEqualHelper@G@ATL@@@ATL@@QEAAXXZ PROC ; ATL::CSimpleArray<unsigned short,ATL::CSimpleArrayEqualHelper<unsigned short> >::RemoveAll, COMDAT

; 215  : 	{

$LN7:
  00000	48 89 4c 24 08	 mov	 QWORD PTR [rsp+8], rcx
  00005	57		 push	 rdi
  00006	48 83 ec 30	 sub	 rsp, 48			; 00000030H
  0000a	48 8b fc	 mov	 rdi, rsp
  0000d	b9 0c 00 00 00	 mov	 ecx, 12
  00012	b8 cc cc cc cc	 mov	 eax, -858993460		; ccccccccH
  00017	f3 ab		 rep stosd
  00019	48 8b 4c 24 40	 mov	 rcx, QWORD PTR [rsp+64]

; 216  : 		if(m_aT != NULL)

  0001e	48 8b 44 24 40	 mov	 rax, QWORD PTR this$[rsp]
  00023	48 83 38 00	 cmp	 QWORD PTR [rax], 0
  00027	74 3e		 je	 SHORT $LN5@RemoveAll

; 217  : 		{
; 218  : 			for(int i = 0; i < m_nSize; i++)

  00029	c7 44 24 20 00
	00 00 00	 mov	 DWORD PTR i$1[rsp], 0
  00031	eb 0a		 jmp	 SHORT $LN4@RemoveAll
$LN2@RemoveAll:
  00033	8b 44 24 20	 mov	 eax, DWORD PTR i$1[rsp]
  00037	ff c0		 inc	 eax
  00039	89 44 24 20	 mov	 DWORD PTR i$1[rsp], eax
$LN4@RemoveAll:
  0003d	48 8b 44 24 40	 mov	 rax, QWORD PTR this$[rsp]
  00042	8b 40 08	 mov	 eax, DWORD PTR [rax+8]
  00045	39 44 24 20	 cmp	 DWORD PTR i$1[rsp], eax
  00049	7d 02		 jge	 SHORT $LN3@RemoveAll

; 219  : 				m_aT[i].~T();

  0004b	eb e6		 jmp	 SHORT $LN2@RemoveAll
$LN3@RemoveAll:

; 220  : 			free(m_aT);

  0004d	48 8b 44 24 40	 mov	 rax, QWORD PTR this$[rsp]
  00052	48 8b 08	 mov	 rcx, QWORD PTR [rax]
  00055	ff 15 00 00 00
	00		 call	 QWORD PTR __imp_free

; 221  : 			m_aT = NULL;

  0005b	48 8b 44 24 40	 mov	 rax, QWORD PTR this$[rsp]
  00060	48 c7 00 00 00
	00 00		 mov	 QWORD PTR [rax], 0
$LN5@RemoveAll:

; 222  : 		}
; 223  : 		m_nSize = 0;

  00067	48 8b 44 24 40	 mov	 rax, QWORD PTR this$[rsp]
  0006c	c7 40 08 00 00
	00 00		 mov	 DWORD PTR [rax+8], 0

; 224  : 		m_nAllocSize = 0;

  00073	48 8b 44 24 40	 mov	 rax, QWORD PTR this$[rsp]
  00078	c7 40 0c 00 00
	00 00		 mov	 DWORD PTR [rax+12], 0

; 225  :     }

  0007f	48 83 c4 30	 add	 rsp, 48			; 00000030H
  00083	5f		 pop	 rdi
  00084	c3		 ret	 0
?RemoveAll@?$CSimpleArray@GV?$CSimpleArrayEqualHelper@G@ATL@@@ATL@@QEAAXXZ ENDP ; ATL::CSimpleArray<unsigned short,ATL::CSimpleArrayEqualHelper<unsigned short> >::RemoveAll
_TEXT	ENDS
; Function compile flags: /Odtp /RTCsu
; File C:\Program Files (x86)\Microsoft Visual Studio\2019\Community\VC\Tools\MSVC\14.23.28105\atlmfc\include\atlsimpcoll.h
;	COMDAT ?GetSize@?$CSimpleArray@GV?$CSimpleArrayEqualHelper@G@ATL@@@ATL@@QEBAHXZ
_TEXT	SEGMENT
this$ = 16
?GetSize@?$CSimpleArray@GV?$CSimpleArrayEqualHelper@G@ATL@@@ATL@@QEBAHXZ PROC ; ATL::CSimpleArray<unsigned short,ATL::CSimpleArrayEqualHelper<unsigned short> >::GetSize, COMDAT

; 160  : 	{

$LN3:
  00000	48 89 4c 24 08	 mov	 QWORD PTR [rsp+8], rcx
  00005	57		 push	 rdi

; 161  : 		return m_nSize;

  00006	48 8b 44 24 10	 mov	 rax, QWORD PTR this$[rsp]
  0000b	8b 40 08	 mov	 eax, DWORD PTR [rax+8]

; 162  : 	}

  0000e	5f		 pop	 rdi
  0000f	c3		 ret	 0
?GetSize@?$CSimpleArray@GV?$CSimpleArrayEqualHelper@G@ATL@@@ATL@@QEBAHXZ ENDP ; ATL::CSimpleArray<unsigned short,ATL::CSimpleArrayEqualHelper<unsigned short> >::GetSize
_TEXT	ENDS
; Function compile flags: /Odtp /RTCsu
; File C:\Program Files (x86)\Microsoft Visual Studio\2019\Community\VC\Tools\MSVC\14.23.28105\atlmfc\include\atlsimpcoll.h
;	COMDAT ??1?$CSimpleArray@GV?$CSimpleArrayEqualHelper@G@ATL@@@ATL@@QEAA@XZ
_TEXT	SEGMENT
this$ = 48
??1?$CSimpleArray@GV?$CSimpleArrayEqualHelper@G@ATL@@@ATL@@QEAA@XZ PROC ; ATL::CSimpleArray<unsigned short,ATL::CSimpleArrayEqualHelper<unsigned short> >::~CSimpleArray<unsigned short,ATL::CSimpleArrayEqualHelper<unsigned short> >, COMDAT

; 310  : {

$LN3:
  00000	48 89 4c 24 08	 mov	 QWORD PTR [rsp+8], rcx
  00005	57		 push	 rdi
  00006	48 83 ec 20	 sub	 rsp, 32			; 00000020H
  0000a	48 8b fc	 mov	 rdi, rsp
  0000d	b9 08 00 00 00	 mov	 ecx, 8
  00012	b8 cc cc cc cc	 mov	 eax, -858993460		; ccccccccH
  00017	f3 ab		 rep stosd
  00019	48 8b 4c 24 30	 mov	 rcx, QWORD PTR [rsp+48]

; 311  : 	RemoveAll();

  0001e	48 8b 4c 24 30	 mov	 rcx, QWORD PTR this$[rsp]
  00023	e8 00 00 00 00	 call	 ?RemoveAll@?$CSimpleArray@GV?$CSimpleArrayEqualHelper@G@ATL@@@ATL@@QEAAXXZ ; ATL::CSimpleArray<unsigned short,ATL::CSimpleArrayEqualHelper<unsigned short> >::RemoveAll
  00028	90		 npad	 1

; 312  : }

  00029	48 83 c4 20	 add	 rsp, 32			; 00000020H
  0002d	5f		 pop	 rdi
  0002e	c3		 ret	 0
??1?$CSimpleArray@GV?$CSimpleArrayEqualHelper@G@ATL@@@ATL@@QEAA@XZ ENDP ; ATL::CSimpleArray<unsigned short,ATL::CSimpleArrayEqualHelper<unsigned short> >::~CSimpleArray<unsigned short,ATL::CSimpleArrayEqualHelper<unsigned short> >
_TEXT	ENDS
; Function compile flags: /Odtp /RTCsu
; File C:\Program Files (x86)\Microsoft Visual Studio\2019\Community\VC\Tools\MSVC\14.23.28105\atlmfc\include\atlsimpcoll.h
;	COMDAT ??0?$CSimpleArray@GV?$CSimpleArrayEqualHelper@G@ATL@@@ATL@@QEAA@XZ
_TEXT	SEGMENT
this$ = 16
??0?$CSimpleArray@GV?$CSimpleArrayEqualHelper@G@ATL@@@ATL@@QEAA@XZ PROC ; ATL::CSimpleArray<unsigned short,ATL::CSimpleArrayEqualHelper<unsigned short> >::CSimpleArray<unsigned short,ATL::CSimpleArrayEqualHelper<unsigned short> >, COMDAT

; 120  : 	{

$LN3:
  00000	48 89 4c 24 08	 mov	 QWORD PTR [rsp+8], rcx
  00005	57		 push	 rdi

; 119  : 		m_aT(NULL), m_nSize(0), m_nAllocSize(0)

  00006	48 8b 44 24 10	 mov	 rax, QWORD PTR this$[rsp]
  0000b	48 c7 00 00 00
	00 00		 mov	 QWORD PTR [rax], 0
  00012	48 8b 44 24 10	 mov	 rax, QWORD PTR this$[rsp]
  00017	c7 40 08 00 00
	00 00		 mov	 DWORD PTR [rax+8], 0
  0001e	48 8b 44 24 10	 mov	 rax, QWORD PTR this$[rsp]
  00023	c7 40 0c 00 00
	00 00		 mov	 DWORD PTR [rax+12], 0

; 121  : 	}

  0002a	48 8b 44 24 10	 mov	 rax, QWORD PTR this$[rsp]
  0002f	5f		 pop	 rdi
  00030	c3		 ret	 0
??0?$CSimpleArray@GV?$CSimpleArrayEqualHelper@G@ATL@@@ATL@@QEAA@XZ ENDP ; ATL::CSimpleArray<unsigned short,ATL::CSimpleArrayEqualHelper<unsigned short> >::CSimpleArray<unsigned short,ATL::CSimpleArrayEqualHelper<unsigned short> >
_TEXT	ENDS
; Function compile flags: /Odtp /RTCsu
;	COMDAT ??1_ATL_COM_MODULE70@ATL@@QEAA@XZ
_TEXT	SEGMENT
this$ = 48
??1_ATL_COM_MODULE70@ATL@@QEAA@XZ PROC			; ATL::_ATL_COM_MODULE70::~_ATL_COM_MODULE70, COMDAT
$LN4:
  00000	48 89 4c 24 08	 mov	 QWORD PTR [rsp+8], rcx
  00005	57		 push	 rdi
  00006	48 83 ec 20	 sub	 rsp, 32			; 00000020H
  0000a	48 8b fc	 mov	 rdi, rsp
  0000d	b9 08 00 00 00	 mov	 ecx, 8
  00012	b8 cc cc cc cc	 mov	 eax, -858993460		; ccccccccH
  00017	f3 ab		 rep stosd
  00019	48 8b 4c 24 30	 mov	 rcx, QWORD PTR [rsp+48]
  0001e	48 8b 44 24 30	 mov	 rax, QWORD PTR this$[rsp]
  00023	48 83 c0 20	 add	 rax, 32			; 00000020H
  00027	48 8b c8	 mov	 rcx, rax
  0002a	e8 00 00 00 00	 call	 ??1CComCriticalSection@ATL@@QEAA@XZ ; ATL::CComCriticalSection::~CComCriticalSection
  0002f	90		 npad	 1
  00030	48 83 c4 20	 add	 rsp, 32			; 00000020H
  00034	5f		 pop	 rdi
  00035	c3		 ret	 0
??1_ATL_COM_MODULE70@ATL@@QEAA@XZ ENDP			; ATL::_ATL_COM_MODULE70::~_ATL_COM_MODULE70
_TEXT	ENDS
;	COMDAT text$x
text$x	SEGMENT
this$ = 48
?dtor$0@?0???1_ATL_COM_MODULE70@ATL@@QEAA@XZ@4HA PROC	; `ATL::_ATL_COM_MODULE70::~_ATL_COM_MODULE70'::`1'::dtor$0
  00000	48 89 4c 24 08	 mov	 QWORD PTR [rsp+8], rcx
  00005	48 89 54 24 10	 mov	 QWORD PTR [rsp+16], rdx
  0000a	55		 push	 rbp
  0000b	57		 push	 rdi
  0000c	48 83 ec 28	 sub	 rsp, 40			; 00000028H
  00010	48 8b ea	 mov	 rbp, rdx
  00013	48 8b 4d 30	 mov	 rcx, QWORD PTR this$[rbp]
  00017	48 83 c1 20	 add	 rcx, 32			; 00000020H
  0001b	e8 00 00 00 00	 call	 ??1CComCriticalSection@ATL@@QEAA@XZ ; ATL::CComCriticalSection::~CComCriticalSection
  00020	48 83 c4 28	 add	 rsp, 40			; 00000028H
  00024	5f		 pop	 rdi
  00025	5d		 pop	 rbp
  00026	c3		 ret	 0
?dtor$0@?0???1_ATL_COM_MODULE70@ATL@@QEAA@XZ@4HA ENDP	; `ATL::_ATL_COM_MODULE70::~_ATL_COM_MODULE70'::`1'::dtor$0
text$x	ENDS
; Function compile flags: /Odtp /RTCsu
;	COMDAT text$x
text$x	SEGMENT
this$ = 48
?dtor$0@?0???1_ATL_COM_MODULE70@ATL@@QEAA@XZ@4HA PROC	; `ATL::_ATL_COM_MODULE70::~_ATL_COM_MODULE70'::`1'::dtor$0
  00000	48 89 4c 24 08	 mov	 QWORD PTR [rsp+8], rcx
  00005	48 89 54 24 10	 mov	 QWORD PTR [rsp+16], rdx
  0000a	55		 push	 rbp
  0000b	57		 push	 rdi
  0000c	48 83 ec 28	 sub	 rsp, 40			; 00000028H
  00010	48 8b ea	 mov	 rbp, rdx
  00013	48 8b 4d 30	 mov	 rcx, QWORD PTR this$[rbp]
  00017	48 83 c1 20	 add	 rcx, 32			; 00000020H
  0001b	e8 00 00 00 00	 call	 ??1CComCriticalSection@ATL@@QEAA@XZ ; ATL::CComCriticalSection::~CComCriticalSection
  00020	48 83 c4 28	 add	 rsp, 40			; 00000028H
  00024	5f		 pop	 rdi
  00025	5d		 pop	 rbp
  00026	c3		 ret	 0
?dtor$0@?0???1_ATL_COM_MODULE70@ATL@@QEAA@XZ@4HA ENDP	; `ATL::_ATL_COM_MODULE70::~_ATL_COM_MODULE70'::`1'::dtor$0
text$x	ENDS
; Function compile flags: /Odtp /RTCsu
;	COMDAT ??0_ATL_COM_MODULE70@ATL@@QEAA@XZ
_TEXT	SEGMENT
this$ = 48
??0_ATL_COM_MODULE70@ATL@@QEAA@XZ PROC			; ATL::_ATL_COM_MODULE70::_ATL_COM_MODULE70, COMDAT
$LN4:
  00000	48 89 4c 24 08	 mov	 QWORD PTR [rsp+8], rcx
  00005	57		 push	 rdi
  00006	48 83 ec 20	 sub	 rsp, 32			; 00000020H
  0000a	48 8b fc	 mov	 rdi, rsp
  0000d	b9 08 00 00 00	 mov	 ecx, 8
  00012	b8 cc cc cc cc	 mov	 eax, -858993460		; ccccccccH
  00017	f3 ab		 rep stosd
  00019	48 8b 4c 24 30	 mov	 rcx, QWORD PTR [rsp+48]
  0001e	48 8b 44 24 30	 mov	 rax, QWORD PTR this$[rsp]
  00023	48 83 c0 20	 add	 rax, 32			; 00000020H
  00027	48 8b c8	 mov	 rcx, rax
  0002a	e8 00 00 00 00	 call	 ??0CComCriticalSection@ATL@@QEAA@XZ ; ATL::CComCriticalSection::CComCriticalSection
  0002f	90		 npad	 1
  00030	48 8b 44 24 30	 mov	 rax, QWORD PTR this$[rsp]
  00035	48 83 c4 20	 add	 rsp, 32			; 00000020H
  00039	5f		 pop	 rdi
  0003a	c3		 ret	 0
??0_ATL_COM_MODULE70@ATL@@QEAA@XZ ENDP			; ATL::_ATL_COM_MODULE70::_ATL_COM_MODULE70
_TEXT	ENDS
;	COMDAT text$x
text$x	SEGMENT
this$ = 48
?dtor$0@?0???0_ATL_COM_MODULE70@ATL@@QEAA@XZ@4HA PROC	; `ATL::_ATL_COM_MODULE70::_ATL_COM_MODULE70'::`1'::dtor$0
  00000	48 89 4c 24 08	 mov	 QWORD PTR [rsp+8], rcx
  00005	48 89 54 24 10	 mov	 QWORD PTR [rsp+16], rdx
  0000a	55		 push	 rbp
  0000b	57		 push	 rdi
  0000c	48 83 ec 28	 sub	 rsp, 40			; 00000028H
  00010	48 8b ea	 mov	 rbp, rdx
  00013	48 8b 4d 30	 mov	 rcx, QWORD PTR this$[rbp]
  00017	48 83 c1 20	 add	 rcx, 32			; 00000020H
  0001b	e8 00 00 00 00	 call	 ??1CComCriticalSection@ATL@@QEAA@XZ ; ATL::CComCriticalSection::~CComCriticalSection
  00020	48 83 c4 28	 add	 rsp, 40			; 00000028H
  00024	5f		 pop	 rdi
  00025	5d		 pop	 rbp
  00026	c3		 ret	 0
?dtor$0@?0???0_ATL_COM_MODULE70@ATL@@QEAA@XZ@4HA ENDP	; `ATL::_ATL_COM_MODULE70::_ATL_COM_MODULE70'::`1'::dtor$0
text$x	ENDS
; Function compile flags: /Odtp /RTCsu
;	COMDAT text$x
text$x	SEGMENT
this$ = 48
?dtor$0@?0???0_ATL_COM_MODULE70@ATL@@QEAA@XZ@4HA PROC	; `ATL::_ATL_COM_MODULE70::_ATL_COM_MODULE70'::`1'::dtor$0
  00000	48 89 4c 24 08	 mov	 QWORD PTR [rsp+8], rcx
  00005	48 89 54 24 10	 mov	 QWORD PTR [rsp+16], rdx
  0000a	55		 push	 rbp
  0000b	57		 push	 rdi
  0000c	48 83 ec 28	 sub	 rsp, 40			; 00000028H
  00010	48 8b ea	 mov	 rbp, rdx
  00013	48 8b 4d 30	 mov	 rcx, QWORD PTR this$[rbp]
  00017	48 83 c1 20	 add	 rcx, 32			; 00000020H
  0001b	e8 00 00 00 00	 call	 ??1CComCriticalSection@ATL@@QEAA@XZ ; ATL::CComCriticalSection::~CComCriticalSection
  00020	48 83 c4 28	 add	 rsp, 40			; 00000028H
  00024	5f		 pop	 rdi
  00025	5d		 pop	 rbp
  00026	c3		 ret	 0
?dtor$0@?0???0_ATL_COM_MODULE70@ATL@@QEAA@XZ@4HA ENDP	; `ATL::_ATL_COM_MODULE70::_ATL_COM_MODULE70'::`1'::dtor$0
text$x	ENDS
; Function compile flags: /Odtp /RTCsu
; File C:\Program Files (x86)\Microsoft Visual Studio\2019\Community\VC\Tools\MSVC\14.23.28105\atlmfc\include\atlcore.h
;	COMDAT ?GetModuleInstance@CAtlBaseModule@ATL@@QEAAPEAUHINSTANCE__@@XZ
_TEXT	SEGMENT
this$ = 16
?GetModuleInstance@CAtlBaseModule@ATL@@QEAAPEAUHINSTANCE__@@XZ PROC ; ATL::CAtlBaseModule::GetModuleInstance, COMDAT

; 289  : 	{

$LN3:
  00000	48 89 4c 24 08	 mov	 QWORD PTR [rsp+8], rcx
  00005	57		 push	 rdi

; 290  : 		return m_hInst;

  00006	48 8b 44 24 10	 mov	 rax, QWORD PTR this$[rsp]
  0000b	48 8b 40 08	 mov	 rax, QWORD PTR [rax+8]

; 291  : 	}

  0000f	5f		 pop	 rdi
  00010	c3		 ret	 0
?GetModuleInstance@CAtlBaseModule@ATL@@QEAAPEAUHINSTANCE__@@XZ ENDP ; ATL::CAtlBaseModule::GetModuleInstance
_TEXT	ENDS
; Function compile flags: /Odtp /RTCsu
; File C:\Program Files (x86)\Microsoft Visual Studio\2019\Community\VC\Tools\MSVC\14.23.28105\atlmfc\include\atlcore.h
;	COMDAT ?Term@CComCriticalSection@ATL@@QEAAJXZ
_TEXT	SEGMENT
this$ = 48
?Term@CComCriticalSection@ATL@@QEAAJXZ PROC		; ATL::CComCriticalSection::Term, COMDAT

; 154  : 	{

$LN3:
  00000	48 89 4c 24 08	 mov	 QWORD PTR [rsp+8], rcx
  00005	57		 push	 rdi
  00006	48 83 ec 20	 sub	 rsp, 32			; 00000020H
  0000a	48 8b fc	 mov	 rdi, rsp
  0000d	b9 08 00 00 00	 mov	 ecx, 8
  00012	b8 cc cc cc cc	 mov	 eax, -858993460		; ccccccccH
  00017	f3 ab		 rep stosd
  00019	48 8b 4c 24 30	 mov	 rcx, QWORD PTR [rsp+48]

; 155  : 		DeleteCriticalSection(&m_sec);

  0001e	48 8b 44 24 30	 mov	 rax, QWORD PTR this$[rsp]
  00023	48 8b c8	 mov	 rcx, rax
  00026	ff 15 00 00 00
	00		 call	 QWORD PTR __imp_DeleteCriticalSection

; 156  : 		return S_OK;

  0002c	33 c0		 xor	 eax, eax

; 157  : 	}

  0002e	48 83 c4 20	 add	 rsp, 32			; 00000020H
  00032	5f		 pop	 rdi
  00033	c3		 ret	 0
?Term@CComCriticalSection@ATL@@QEAAJXZ ENDP		; ATL::CComCriticalSection::Term
_TEXT	ENDS
; Function compile flags: /Odtp /RTCsu
; File C:\Program Files (x86)\Microsoft Visual Studio\2019\Community\VC\Tools\MSVC\14.23.28105\atlmfc\include\atlcore.h
;	COMDAT ?Init@CComCriticalSection@ATL@@QEAAJXZ
_TEXT	SEGMENT
hRes$ = 32
this$ = 64
?Init@CComCriticalSection@ATL@@QEAAJXZ PROC		; ATL::CComCriticalSection::Init, COMDAT

; 143  : 	{

$LN4:
  00000	48 89 4c 24 08	 mov	 QWORD PTR [rsp+8], rcx
  00005	57		 push	 rdi
  00006	48 83 ec 30	 sub	 rsp, 48			; 00000030H
  0000a	48 8b fc	 mov	 rdi, rsp
  0000d	b9 0c 00 00 00	 mov	 ecx, 12
  00012	b8 cc cc cc cc	 mov	 eax, -858993460		; ccccccccH
  00017	f3 ab		 rep stosd
  00019	48 8b 4c 24 40	 mov	 rcx, QWORD PTR [rsp+64]

; 144  : 		HRESULT hRes = S_OK;

  0001e	c7 44 24 20 00
	00 00 00	 mov	 DWORD PTR hRes$[rsp], 0

; 145  : 		if (!_AtlInitializeCriticalSectionEx(&m_sec, 0, 0))

  00026	48 8b 44 24 40	 mov	 rax, QWORD PTR this$[rsp]
  0002b	45 33 c0	 xor	 r8d, r8d
  0002e	33 d2		 xor	 edx, edx
  00030	48 8b c8	 mov	 rcx, rax
  00033	e8 00 00 00 00	 call	 ?_AtlInitializeCriticalSectionEx@ATL@@YAHPEAU_RTL_CRITICAL_SECTION@@KK@Z ; ATL::_AtlInitializeCriticalSectionEx
  00038	85 c0		 test	 eax, eax
  0003a	75 11		 jne	 SHORT $LN2@Init

; 146  : 		{
; 147  : 			hRes = HRESULT_FROM_WIN32(GetLastError());

  0003c	ff 15 00 00 00
	00		 call	 QWORD PTR __imp_GetLastError
  00042	8b c8		 mov	 ecx, eax
  00044	e8 00 00 00 00	 call	 HRESULT_FROM_WIN32
  00049	89 44 24 20	 mov	 DWORD PTR hRes$[rsp], eax
$LN2@Init:

; 148  : 		}
; 149  : 
; 150  : 		return hRes;

  0004d	8b 44 24 20	 mov	 eax, DWORD PTR hRes$[rsp]

; 151  : 	}

  00051	48 83 c4 30	 add	 rsp, 48			; 00000030H
  00055	5f		 pop	 rdi
  00056	c3		 ret	 0
?Init@CComCriticalSection@ATL@@QEAAJXZ ENDP		; ATL::CComCriticalSection::Init
_TEXT	ENDS
; Function compile flags: /Odtp /RTCsu
; File C:\Program Files (x86)\Microsoft Visual Studio\2019\Community\VC\Tools\MSVC\14.23.28105\atlmfc\include\atlcore.h
;	COMDAT ??1CComCriticalSection@ATL@@QEAA@XZ
_TEXT	SEGMENT
this$ = 16
??1CComCriticalSection@ATL@@QEAA@XZ PROC		; ATL::CComCriticalSection::~CComCriticalSection, COMDAT

; 129  : 	{

$LN3:
  00000	48 89 4c 24 08	 mov	 QWORD PTR [rsp+8], rcx
  00005	57		 push	 rdi

; 130  : 	}

  00006	5f		 pop	 rdi
  00007	c3		 ret	 0
??1CComCriticalSection@ATL@@QEAA@XZ ENDP		; ATL::CComCriticalSection::~CComCriticalSection
_TEXT	ENDS
; Function compile flags: /Odtp /RTCsu
; File C:\Program Files (x86)\Microsoft Visual Studio\2019\Community\VC\Tools\MSVC\14.23.28105\atlmfc\include\atlcore.h
;	COMDAT ??0CComCriticalSection@ATL@@QEAA@XZ
_TEXT	SEGMENT
this$ = 48
??0CComCriticalSection@ATL@@QEAA@XZ PROC		; ATL::CComCriticalSection::CComCriticalSection, COMDAT

; 123  : 	CComCriticalSection() throw()

$LN3:
  00000	48 89 4c 24 08	 mov	 QWORD PTR [rsp+8], rcx
  00005	57		 push	 rdi
  00006	48 83 ec 20	 sub	 rsp, 32			; 00000020H
  0000a	48 8b fc	 mov	 rdi, rsp
  0000d	b9 08 00 00 00	 mov	 ecx, 8
  00012	b8 cc cc cc cc	 mov	 eax, -858993460		; ccccccccH
  00017	f3 ab		 rep stosd
  00019	48 8b 4c 24 30	 mov	 rcx, QWORD PTR [rsp+48]

; 124  : 	{
; 125  : 		memset(&m_sec, 0, sizeof(CRITICAL_SECTION));

  0001e	48 8b 44 24 30	 mov	 rax, QWORD PTR this$[rsp]
  00023	41 b8 28 00 00
	00		 mov	 r8d, 40			; 00000028H
  00029	33 d2		 xor	 edx, edx
  0002b	48 8b c8	 mov	 rcx, rax
  0002e	e8 00 00 00 00	 call	 memset

; 126  : 	}

  00033	48 8b 44 24 30	 mov	 rax, QWORD PTR this$[rsp]
  00038	48 83 c4 20	 add	 rsp, 32			; 00000020H
  0003c	5f		 pop	 rdi
  0003d	c3		 ret	 0
??0CComCriticalSection@ATL@@QEAA@XZ ENDP		; ATL::CComCriticalSection::CComCriticalSection
_TEXT	ENDS
; Function compile flags: /Odtp /RTCsu
; File C:\Program Files (x86)\Microsoft Visual Studio\2019\Community\VC\Tools\MSVC\14.23.28105\atlmfc\include\atlwinverapi.h
;	COMDAT ?_AtlInitializeCriticalSectionEx@ATL@@YAHPEAU_RTL_CRITICAL_SECTION@@KK@Z
_TEXT	SEGMENT
lpCriticalSection$ = 48
dwSpinCount$ = 56
Flags$ = 64
?_AtlInitializeCriticalSectionEx@ATL@@YAHPEAU_RTL_CRITICAL_SECTION@@KK@Z PROC ; ATL::_AtlInitializeCriticalSectionEx, COMDAT

; 727  : {

$LN3:
  00000	44 89 44 24 18	 mov	 DWORD PTR [rsp+24], r8d
  00005	89 54 24 10	 mov	 DWORD PTR [rsp+16], edx
  00009	48 89 4c 24 08	 mov	 QWORD PTR [rsp+8], rcx
  0000e	57		 push	 rdi
  0000f	48 83 ec 20	 sub	 rsp, 32			; 00000020H
  00013	48 8b fc	 mov	 rdi, rsp
  00016	b9 08 00 00 00	 mov	 ecx, 8
  0001b	b8 cc cc cc cc	 mov	 eax, -858993460		; ccccccccH
  00020	f3 ab		 rep stosd
  00022	48 8b 4c 24 30	 mov	 rcx, QWORD PTR [rsp+48]

; 728  : #if (NTDDI_VERSION >= NTDDI_VISTA) && !defined(_USING_V110_SDK71_) && !defined(_ATL_XP_TARGETING)
; 729  : 	// InitializeCriticalSectionEx is available in Vista or later, desktop or store apps
; 730  : 	return ::InitializeCriticalSectionEx(lpCriticalSection, dwSpinCount, Flags);

  00027	44 8b 44 24 40	 mov	 r8d, DWORD PTR Flags$[rsp]
  0002c	8b 54 24 38	 mov	 edx, DWORD PTR dwSpinCount$[rsp]
  00030	48 8b 4c 24 30	 mov	 rcx, QWORD PTR lpCriticalSection$[rsp]
  00035	ff 15 00 00 00
	00		 call	 QWORD PTR __imp_InitializeCriticalSectionEx

; 731  : #else
; 732  : 	UNREFERENCED_PARAMETER(Flags);
; 733  : 
; 734  : 	// ...otherwise fall back to using InitializeCriticalSectionAndSpinCount.
; 735  : 	return ::InitializeCriticalSectionAndSpinCount(lpCriticalSection, dwSpinCount);
; 736  : #endif
; 737  : }

  0003b	48 83 c4 20	 add	 rsp, 32			; 00000020H
  0003f	5f		 pop	 rdi
  00040	c3		 ret	 0
?_AtlInitializeCriticalSectionEx@ATL@@YAHPEAU_RTL_CRITICAL_SECTION@@KK@Z ENDP ; ATL::_AtlInitializeCriticalSectionEx
_TEXT	ENDS
; Function compile flags: /Odtp /RTCsu
; File C:\Program Files (x86)\Microsoft Visual Studio\2019\Community\VC\Tools\MSVC\14.23.28105\atlmfc\include\atlexcept.h
;	COMDAT ?_AtlRaiseException@ATL@@YAXKK@Z
_TEXT	SEGMENT
dwExceptionCode$ = 48
dwExceptionFlags$ = 56
?_AtlRaiseException@ATL@@YAXKK@Z PROC			; ATL::_AtlRaiseException, COMDAT

; 30   : {

$LN3:
  00000	89 54 24 10	 mov	 DWORD PTR [rsp+16], edx
  00004	89 4c 24 08	 mov	 DWORD PTR [rsp+8], ecx
  00008	57		 push	 rdi
  00009	48 83 ec 20	 sub	 rsp, 32			; 00000020H
  0000d	48 8b fc	 mov	 rdi, rsp
  00010	b9 08 00 00 00	 mov	 ecx, 8
  00015	b8 cc cc cc cc	 mov	 eax, -858993460		; ccccccccH
  0001a	f3 ab		 rep stosd
  0001c	8b 4c 24 30	 mov	 ecx, DWORD PTR [rsp+48]

; 31   : 	RaiseException( dwExceptionCode, dwExceptionFlags, 0, NULL );

  00020	45 33 c9	 xor	 r9d, r9d
  00023	45 33 c0	 xor	 r8d, r8d
  00026	8b 54 24 38	 mov	 edx, DWORD PTR dwExceptionFlags$[rsp]
  0002a	8b 4c 24 30	 mov	 ecx, DWORD PTR dwExceptionCode$[rsp]
  0002e	ff 15 00 00 00
	00		 call	 QWORD PTR __imp_RaiseException

; 32   : }

  00034	48 83 c4 20	 add	 rsp, 32			; 00000020H
  00038	5f		 pop	 rdi
  00039	c3		 ret	 0
?_AtlRaiseException@ATL@@YAXKK@Z ENDP			; ATL::_AtlRaiseException
_TEXT	ENDS
; Function compile flags: /Odtp /RTCsu
; File C:\Program Files (x86)\Microsoft Visual Studio\2019\Community\VC\Tools\MSVC\14.23.28105\atlmfc\include\atltrace.h
;	COMDAT ??RCTraceFileAndLineInfo@ATL@@QEBAXHIPEBDZZ
_TEXT	SEGMENT
ple$ = 52
ptr$ = 88
this$ = 128
dwCategory$ = 136
nLevel$ = 144
pszFmt$ = 152
??RCTraceFileAndLineInfo@ATL@@QEBAXHIPEBDZZ PROC	; ATL::CTraceFileAndLineInfo::operator(), COMDAT

; 421  : 	{

$LN4:
  00000	4c 89 4c 24 20	 mov	 QWORD PTR [rsp+32], r9
  00005	44 89 44 24 18	 mov	 DWORD PTR [rsp+24], r8d
  0000a	89 54 24 10	 mov	 DWORD PTR [rsp+16], edx
  0000e	48 89 4c 24 08	 mov	 QWORD PTR [rsp+8], rcx
  00013	57		 push	 rdi
  00014	48 83 ec 70	 sub	 rsp, 112		; 00000070H
  00018	48 8b fc	 mov	 rdi, rsp
  0001b	b9 1c 00 00 00	 mov	 ecx, 28
  00020	b8 cc cc cc cc	 mov	 eax, -858993460		; ccccccccH
  00025	f3 ab		 rep stosd
  00027	48 8b 8c 24 80
	00 00 00	 mov	 rcx, QWORD PTR [rsp+128]

; 422  : 		CPreserveLastError ple;

  0002f	48 8d 4c 24 34	 lea	 rcx, QWORD PTR ple$[rsp]
  00034	e8 00 00 00 00	 call	 ??0CPreserveLastError@ATL@@QEAA@XZ ; ATL::CPreserveLastError::CPreserveLastError
  00039	90		 npad	 1

; 423  : 		va_list ptr; va_start(ptr, pszFmt);

  0003a	48 8d 84 24 a0
	00 00 00	 lea	 rax, QWORD PTR pszFmt$[rsp+8]
  00042	48 89 44 24 58	 mov	 QWORD PTR ptr$[rsp], rax

; 424  : 		ATL::CTrace::TraceV(m_pszFileName, m_nLineNo, dwCategory, nLevel, pszFmt, ptr);

  00047	48 8b 44 24 58	 mov	 rax, QWORD PTR ptr$[rsp]
  0004c	48 89 44 24 28	 mov	 QWORD PTR [rsp+40], rax
  00051	48 8b 84 24 98
	00 00 00	 mov	 rax, QWORD PTR pszFmt$[rsp]
  00059	48 89 44 24 20	 mov	 QWORD PTR [rsp+32], rax
  0005e	44 8b 8c 24 90
	00 00 00	 mov	 r9d, DWORD PTR nLevel$[rsp]
  00066	44 8b 84 24 88
	00 00 00	 mov	 r8d, DWORD PTR dwCategory$[rsp]
  0006e	48 8b 84 24 80
	00 00 00	 mov	 rax, QWORD PTR this$[rsp]
  00076	8b 50 08	 mov	 edx, DWORD PTR [rax+8]
  00079	48 8b 84 24 80
	00 00 00	 mov	 rax, QWORD PTR this$[rsp]
  00081	48 8b 08	 mov	 rcx, QWORD PTR [rax]
  00084	e8 00 00 00 00	 call	 ?TraceV@CTrace@ATL@@SAXPEBDHII0PEAD@Z ; ATL::CTrace::TraceV

; 425  : 		va_end(ptr);

  00089	48 c7 44 24 58
	00 00 00 00	 mov	 QWORD PTR ptr$[rsp], 0

; 426  : 	}

  00092	48 8d 4c 24 34	 lea	 rcx, QWORD PTR ple$[rsp]
  00097	e8 00 00 00 00	 call	 ??1CPreserveLastError@ATL@@QEAA@XZ ; ATL::CPreserveLastError::~CPreserveLastError
  0009c	48 8b cc	 mov	 rcx, rsp
  0009f	48 8d 15 00 00
	00 00		 lea	 rdx, OFFSET FLAT:??RCTraceFileAndLineInfo@ATL@@QEBAXHIPEBDZZ$rtcFrameData
  000a6	e8 00 00 00 00	 call	 _RTC_CheckStackVars
  000ab	48 83 c4 70	 add	 rsp, 112		; 00000070H
  000af	5f		 pop	 rdi
  000b0	c3		 ret	 0
??RCTraceFileAndLineInfo@ATL@@QEBAXHIPEBDZZ ENDP	; ATL::CTraceFileAndLineInfo::operator()
_TEXT	ENDS
;	COMDAT text$x
text$x	SEGMENT
ple$ = 52
ptr$ = 88
this$ = 128
dwCategory$ = 136
nLevel$ = 144
pszFmt$ = 152
?dtor$0@?0???RCTraceFileAndLineInfo@ATL@@QEBAXHIPEBDZZ@4HA PROC ; `ATL::CTraceFileAndLineInfo::operator()'::`1'::dtor$0
  00000	48 89 4c 24 08	 mov	 QWORD PTR [rsp+8], rcx
  00005	48 89 54 24 10	 mov	 QWORD PTR [rsp+16], rdx
  0000a	55		 push	 rbp
  0000b	57		 push	 rdi
  0000c	48 83 ec 28	 sub	 rsp, 40			; 00000028H
  00010	48 8b ea	 mov	 rbp, rdx
  00013	48 8d 4d 34	 lea	 rcx, QWORD PTR ple$[rbp]
  00017	e8 00 00 00 00	 call	 ??1CPreserveLastError@ATL@@QEAA@XZ ; ATL::CPreserveLastError::~CPreserveLastError
  0001c	48 83 c4 28	 add	 rsp, 40			; 00000028H
  00020	5f		 pop	 rdi
  00021	5d		 pop	 rbp
  00022	c3		 ret	 0
?dtor$0@?0???RCTraceFileAndLineInfo@ATL@@QEBAXHIPEBDZZ@4HA ENDP ; `ATL::CTraceFileAndLineInfo::operator()'::`1'::dtor$0
text$x	ENDS
; Function compile flags: /Odtp /RTCsu
;	COMDAT text$x
text$x	SEGMENT
ple$ = 52
ptr$ = 88
this$ = 128
dwCategory$ = 136
nLevel$ = 144
pszFmt$ = 152
?dtor$0@?0???RCTraceFileAndLineInfo@ATL@@QEBAXHIPEBDZZ@4HA PROC ; `ATL::CTraceFileAndLineInfo::operator()'::`1'::dtor$0
  00000	48 89 4c 24 08	 mov	 QWORD PTR [rsp+8], rcx
  00005	48 89 54 24 10	 mov	 QWORD PTR [rsp+16], rdx
  0000a	55		 push	 rbp
  0000b	57		 push	 rdi
  0000c	48 83 ec 28	 sub	 rsp, 40			; 00000028H
  00010	48 8b ea	 mov	 rbp, rdx
  00013	48 8d 4d 34	 lea	 rcx, QWORD PTR ple$[rbp]
  00017	e8 00 00 00 00	 call	 ??1CPreserveLastError@ATL@@QEAA@XZ ; ATL::CPreserveLastError::~CPreserveLastError
  0001c	48 83 c4 28	 add	 rsp, 40			; 00000028H
  00020	5f		 pop	 rdi
  00021	5d		 pop	 rbp
  00022	c3		 ret	 0
?dtor$0@?0???RCTraceFileAndLineInfo@ATL@@QEBAXHIPEBDZZ@4HA ENDP ; `ATL::CTraceFileAndLineInfo::operator()'::`1'::dtor$0
text$x	ENDS
; Function compile flags: /Odtp /RTCsu
; File C:\Program Files (x86)\Microsoft Visual Studio\2019\Community\VC\Tools\MSVC\14.23.28105\atlmfc\include\atltrace.h
;	COMDAT ??0CTraceFileAndLineInfo@ATL@@QEAA@PEBDH@Z
_TEXT	SEGMENT
this$ = 16
pszFileName$ = 24
nLineNo$ = 32
??0CTraceFileAndLineInfo@ATL@@QEAA@PEBDH@Z PROC		; ATL::CTraceFileAndLineInfo::CTraceFileAndLineInfo, COMDAT

; 411  : 	{

$LN3:
  00000	44 89 44 24 18	 mov	 DWORD PTR [rsp+24], r8d
  00005	48 89 54 24 10	 mov	 QWORD PTR [rsp+16], rdx
  0000a	48 89 4c 24 08	 mov	 QWORD PTR [rsp+8], rcx
  0000f	57		 push	 rdi

; 410  : 		: m_pszFileName(pszFileName), m_nLineNo(nLineNo)

  00010	48 8b 44 24 10	 mov	 rax, QWORD PTR this$[rsp]
  00015	48 8b 4c 24 18	 mov	 rcx, QWORD PTR pszFileName$[rsp]
  0001a	48 89 08	 mov	 QWORD PTR [rax], rcx
  0001d	48 8b 44 24 10	 mov	 rax, QWORD PTR this$[rsp]
  00022	8b 4c 24 20	 mov	 ecx, DWORD PTR nLineNo$[rsp]
  00026	89 48 08	 mov	 DWORD PTR [rax+8], ecx

; 412  : 	}

  00029	48 8b 44 24 10	 mov	 rax, QWORD PTR this$[rsp]
  0002e	5f		 pop	 rdi
  0002f	c3		 ret	 0
??0CTraceFileAndLineInfo@ATL@@QEAA@PEBDH@Z ENDP		; ATL::CTraceFileAndLineInfo::CTraceFileAndLineInfo
_TEXT	ENDS
; Function compile flags: /Odtp /RTCsu
; File C:\Program Files (x86)\Microsoft Visual Studio\2019\Community\VC\Tools\MSVC\14.23.28105\atlmfc\include\atltrace.h
;	COMDAT ??1CPreserveLastError@ATL@@QEAA@XZ
_TEXT	SEGMENT
this$ = 48
??1CPreserveLastError@ATL@@QEAA@XZ PROC			; ATL::CPreserveLastError::~CPreserveLastError, COMDAT

; 396  : 	{

$LN3:
  00000	48 89 4c 24 08	 mov	 QWORD PTR [rsp+8], rcx
  00005	57		 push	 rdi
  00006	48 83 ec 20	 sub	 rsp, 32			; 00000020H
  0000a	48 8b fc	 mov	 rdi, rsp
  0000d	b9 08 00 00 00	 mov	 ecx, 8
  00012	b8 cc cc cc cc	 mov	 eax, -858993460		; ccccccccH
  00017	f3 ab		 rep stosd
  00019	48 8b 4c 24 30	 mov	 rcx, QWORD PTR [rsp+48]

; 397  : 		SetLastError(m_dwLastError);

  0001e	48 8b 44 24 30	 mov	 rax, QWORD PTR this$[rsp]
  00023	8b 08		 mov	 ecx, DWORD PTR [rax]
  00025	ff 15 00 00 00
	00		 call	 QWORD PTR __imp_SetLastError
  0002b	90		 npad	 1

; 398  : 	}

  0002c	48 83 c4 20	 add	 rsp, 32			; 00000020H
  00030	5f		 pop	 rdi
  00031	c3		 ret	 0
??1CPreserveLastError@ATL@@QEAA@XZ ENDP			; ATL::CPreserveLastError::~CPreserveLastError
_TEXT	ENDS
; Function compile flags: /Odtp /RTCsu
; File C:\Program Files (x86)\Microsoft Visual Studio\2019\Community\VC\Tools\MSVC\14.23.28105\atlmfc\include\atltrace.h
;	COMDAT ??0CPreserveLastError@ATL@@QEAA@XZ
_TEXT	SEGMENT
this$ = 48
??0CPreserveLastError@ATL@@QEAA@XZ PROC			; ATL::CPreserveLastError::CPreserveLastError, COMDAT

; 390  : 	CPreserveLastError()

$LN3:
  00000	48 89 4c 24 08	 mov	 QWORD PTR [rsp+8], rcx
  00005	57		 push	 rdi
  00006	48 83 ec 20	 sub	 rsp, 32			; 00000020H
  0000a	48 8b fc	 mov	 rdi, rsp
  0000d	b9 08 00 00 00	 mov	 ecx, 8
  00012	b8 cc cc cc cc	 mov	 eax, -858993460		; ccccccccH
  00017	f3 ab		 rep stosd
  00019	48 8b 4c 24 30	 mov	 rcx, QWORD PTR [rsp+48]

; 391  : 	{
; 392  : 		m_dwLastError = GetLastError();

  0001e	ff 15 00 00 00
	00		 call	 QWORD PTR __imp_GetLastError
  00024	48 8b 4c 24 30	 mov	 rcx, QWORD PTR this$[rsp]
  00029	89 01		 mov	 DWORD PTR [rcx], eax

; 393  : 	}

  0002b	48 8b 44 24 30	 mov	 rax, QWORD PTR this$[rsp]
  00030	48 83 c4 20	 add	 rsp, 32			; 00000020H
  00034	5f		 pop	 rdi
  00035	c3		 ret	 0
??0CPreserveLastError@ATL@@QEAA@XZ ENDP			; ATL::CPreserveLastError::CPreserveLastError
_TEXT	ENDS
; Function compile flags: /Odtp /RTCsu
;	COMDAT ??1?$CHeapPtr@DVCCRTAllocator@ATL@@@ATL@@QEAA@XZ
_TEXT	SEGMENT
this$ = 48
??1?$CHeapPtr@DVCCRTAllocator@ATL@@@ATL@@QEAA@XZ PROC	; ATL::CHeapPtr<char,ATL::CCRTAllocator>::~CHeapPtr<char,ATL::CCRTAllocator>, COMDAT
$LN4:
  00000	48 89 4c 24 08	 mov	 QWORD PTR [rsp+8], rcx
  00005	57		 push	 rdi
  00006	48 83 ec 20	 sub	 rsp, 32			; 00000020H
  0000a	48 8b fc	 mov	 rdi, rsp
  0000d	b9 08 00 00 00	 mov	 ecx, 8
  00012	b8 cc cc cc cc	 mov	 eax, -858993460		; ccccccccH
  00017	f3 ab		 rep stosd
  00019	48 8b 4c 24 30	 mov	 rcx, QWORD PTR [rsp+48]
  0001e	48 8b 4c 24 30	 mov	 rcx, QWORD PTR this$[rsp]
  00023	e8 00 00 00 00	 call	 ??1?$CHeapPtrBase@DVCCRTAllocator@ATL@@@ATL@@QEAA@XZ ; ATL::CHeapPtrBase<char,ATL::CCRTAllocator>::~CHeapPtrBase<char,ATL::CCRTAllocator>
  00028	90		 npad	 1
  00029	48 83 c4 20	 add	 rsp, 32			; 00000020H
  0002d	5f		 pop	 rdi
  0002e	c3		 ret	 0
??1?$CHeapPtr@DVCCRTAllocator@ATL@@@ATL@@QEAA@XZ ENDP	; ATL::CHeapPtr<char,ATL::CCRTAllocator>::~CHeapPtr<char,ATL::CCRTAllocator>
_TEXT	ENDS
;	COMDAT text$x
text$x	SEGMENT
this$ = 48
?dtor$0@?0???1?$CHeapPtr@DVCCRTAllocator@ATL@@@ATL@@QEAA@XZ@4HA PROC ; `ATL::CHeapPtr<char,ATL::CCRTAllocator>::~CHeapPtr<char,ATL::CCRTAllocator>'::`1'::dtor$0
  00000	48 89 4c 24 08	 mov	 QWORD PTR [rsp+8], rcx
  00005	48 89 54 24 10	 mov	 QWORD PTR [rsp+16], rdx
  0000a	55		 push	 rbp
  0000b	57		 push	 rdi
  0000c	48 83 ec 28	 sub	 rsp, 40			; 00000028H
  00010	48 8b ea	 mov	 rbp, rdx
  00013	48 8b 4d 30	 mov	 rcx, QWORD PTR this$[rbp]
  00017	e8 00 00 00 00	 call	 ??1?$CHeapPtrBase@DVCCRTAllocator@ATL@@@ATL@@QEAA@XZ ; ATL::CHeapPtrBase<char,ATL::CCRTAllocator>::~CHeapPtrBase<char,ATL::CCRTAllocator>
  0001c	48 83 c4 28	 add	 rsp, 40			; 00000028H
  00020	5f		 pop	 rdi
  00021	5d		 pop	 rbp
  00022	c3		 ret	 0
?dtor$0@?0???1?$CHeapPtr@DVCCRTAllocator@ATL@@@ATL@@QEAA@XZ@4HA ENDP ; `ATL::CHeapPtr<char,ATL::CCRTAllocator>::~CHeapPtr<char,ATL::CCRTAllocator>'::`1'::dtor$0
text$x	ENDS
; Function compile flags: /Odtp /RTCsu
;	COMDAT text$x
text$x	SEGMENT
this$ = 48
?dtor$0@?0???1?$CHeapPtr@DVCCRTAllocator@ATL@@@ATL@@QEAA@XZ@4HA PROC ; `ATL::CHeapPtr<char,ATL::CCRTAllocator>::~CHeapPtr<char,ATL::CCRTAllocator>'::`1'::dtor$0
  00000	48 89 4c 24 08	 mov	 QWORD PTR [rsp+8], rcx
  00005	48 89 54 24 10	 mov	 QWORD PTR [rsp+16], rdx
  0000a	55		 push	 rbp
  0000b	57		 push	 rdi
  0000c	48 83 ec 28	 sub	 rsp, 40			; 00000028H
  00010	48 8b ea	 mov	 rbp, rdx
  00013	48 8b 4d 30	 mov	 rcx, QWORD PTR this$[rbp]
  00017	e8 00 00 00 00	 call	 ??1?$CHeapPtrBase@DVCCRTAllocator@ATL@@@ATL@@QEAA@XZ ; ATL::CHeapPtrBase<char,ATL::CCRTAllocator>::~CHeapPtrBase<char,ATL::CCRTAllocator>
  0001c	48 83 c4 28	 add	 rsp, 40			; 00000028H
  00020	5f		 pop	 rdi
  00021	5d		 pop	 rbp
  00022	c3		 ret	 0
?dtor$0@?0???1?$CHeapPtr@DVCCRTAllocator@ATL@@@ATL@@QEAA@XZ@4HA ENDP ; `ATL::CHeapPtr<char,ATL::CCRTAllocator>::~CHeapPtr<char,ATL::CCRTAllocator>'::`1'::dtor$0
text$x	ENDS
; Function compile flags: /Odtp /RTCsu
; File C:\Program Files (x86)\Microsoft Visual Studio\2019\Community\VC\Tools\MSVC\14.23.28105\atlmfc\include\atlalloc.h
;	COMDAT ?Allocate@?$CHeapPtr@DVCCRTAllocator@ATL@@@ATL@@QEAA_N_K@Z
_TEXT	SEGMENT
nBytes$ = 40
this$ = 80
nElements$ = 88
?Allocate@?$CHeapPtr@DVCCRTAllocator@ATL@@@ATL@@QEAA_N_K@Z PROC ; ATL::CHeapPtr<char,ATL::CCRTAllocator>::Allocate, COMDAT

; 455  : 	{

$LN4:
  00000	48 89 54 24 10	 mov	 QWORD PTR [rsp+16], rdx
  00005	48 89 4c 24 08	 mov	 QWORD PTR [rsp+8], rcx
  0000a	57		 push	 rdi
  0000b	48 83 ec 40	 sub	 rsp, 64			; 00000040H
  0000f	48 8b fc	 mov	 rdi, rsp
  00012	b9 10 00 00 00	 mov	 ecx, 16
  00017	b8 cc cc cc cc	 mov	 eax, -858993460		; ccccccccH
  0001c	f3 ab		 rep stosd
  0001e	48 8b 4c 24 50	 mov	 rcx, QWORD PTR [rsp+80]

; 456  : 		size_t nBytes=0;

  00023	48 c7 44 24 28
	00 00 00 00	 mov	 QWORD PTR nBytes$[rsp], 0

; 457  : 		if(FAILED(::ATL::AtlMultiply(&nBytes, nElements, sizeof(T))))

  0002c	41 b8 01 00 00
	00		 mov	 r8d, 1
  00032	48 8b 54 24 58	 mov	 rdx, QWORD PTR nElements$[rsp]
  00037	48 8d 4c 24 28	 lea	 rcx, QWORD PTR nBytes$[rsp]
  0003c	e8 00 00 00 00	 call	 ??$AtlMultiply@_K@ATL@@YAJPEA_K_K1@Z ; ATL::AtlMultiply<unsigned __int64>
  00041	85 c0		 test	 eax, eax
  00043	7d 04		 jge	 SHORT $LN2@Allocate

; 458  : 		{
; 459  : 			return false;

  00045	32 c0		 xor	 al, al
  00047	eb 0f		 jmp	 SHORT $LN1@Allocate
$LN2@Allocate:

; 460  : 		}
; 461  : 		return this->AllocateBytes(nBytes);

  00049	48 8b 54 24 28	 mov	 rdx, QWORD PTR nBytes$[rsp]
  0004e	48 8b 4c 24 50	 mov	 rcx, QWORD PTR this$[rsp]
  00053	e8 00 00 00 00	 call	 ?AllocateBytes@?$CHeapPtrBase@DVCCRTAllocator@ATL@@@ATL@@QEAA_N_K@Z ; ATL::CHeapPtrBase<char,ATL::CCRTAllocator>::AllocateBytes
$LN1@Allocate:

; 462  : 	}

  00058	48 8b f8	 mov	 rdi, rax
  0005b	48 8b cc	 mov	 rcx, rsp
  0005e	48 8d 15 00 00
	00 00		 lea	 rdx, OFFSET FLAT:?Allocate@?$CHeapPtr@DVCCRTAllocator@ATL@@@ATL@@QEAA_N_K@Z$rtcFrameData
  00065	e8 00 00 00 00	 call	 _RTC_CheckStackVars
  0006a	48 8b c7	 mov	 rax, rdi
  0006d	48 83 c4 40	 add	 rsp, 64			; 00000040H
  00071	5f		 pop	 rdi
  00072	c3		 ret	 0
?Allocate@?$CHeapPtr@DVCCRTAllocator@ATL@@@ATL@@QEAA_N_K@Z ENDP ; ATL::CHeapPtr<char,ATL::CCRTAllocator>::Allocate
_TEXT	ENDS
; Function compile flags: /Odtp /RTCsu
; File C:\Program Files (x86)\Microsoft Visual Studio\2019\Community\VC\Tools\MSVC\14.23.28105\atlmfc\include\atlalloc.h
;	COMDAT ??0?$CHeapPtr@DVCCRTAllocator@ATL@@@ATL@@QEAA@XZ
_TEXT	SEGMENT
this$ = 48
??0?$CHeapPtr@DVCCRTAllocator@ATL@@@ATL@@QEAA@XZ PROC	; ATL::CHeapPtr<char,ATL::CCRTAllocator>::CHeapPtr<char,ATL::CCRTAllocator>, COMDAT

; 434  : 	CHeapPtr() throw()

$LN4:
  00000	48 89 4c 24 08	 mov	 QWORD PTR [rsp+8], rcx
  00005	57		 push	 rdi
  00006	48 83 ec 20	 sub	 rsp, 32			; 00000020H
  0000a	48 8b fc	 mov	 rdi, rsp
  0000d	b9 08 00 00 00	 mov	 ecx, 8
  00012	b8 cc cc cc cc	 mov	 eax, -858993460		; ccccccccH
  00017	f3 ab		 rep stosd
  00019	48 8b 4c 24 30	 mov	 rcx, QWORD PTR [rsp+48]

; 435  : 	{

  0001e	48 8b 4c 24 30	 mov	 rcx, QWORD PTR this$[rsp]
  00023	e8 00 00 00 00	 call	 ??0?$CHeapPtrBase@DVCCRTAllocator@ATL@@@ATL@@IEAA@XZ ; ATL::CHeapPtrBase<char,ATL::CCRTAllocator>::CHeapPtrBase<char,ATL::CCRTAllocator>
  00028	90		 npad	 1

; 436  : 	}

  00029	48 8b 44 24 30	 mov	 rax, QWORD PTR this$[rsp]
  0002e	48 83 c4 20	 add	 rsp, 32			; 00000020H
  00032	5f		 pop	 rdi
  00033	c3		 ret	 0
??0?$CHeapPtr@DVCCRTAllocator@ATL@@@ATL@@QEAA@XZ ENDP	; ATL::CHeapPtr<char,ATL::CCRTAllocator>::CHeapPtr<char,ATL::CCRTAllocator>
_TEXT	ENDS
;	COMDAT text$x
text$x	SEGMENT
this$ = 48
?dtor$0@?0???0?$CHeapPtr@DVCCRTAllocator@ATL@@@ATL@@QEAA@XZ@4HA PROC ; `ATL::CHeapPtr<char,ATL::CCRTAllocator>::CHeapPtr<char,ATL::CCRTAllocator>'::`1'::dtor$0
  00000	48 89 4c 24 08	 mov	 QWORD PTR [rsp+8], rcx
  00005	48 89 54 24 10	 mov	 QWORD PTR [rsp+16], rdx
  0000a	55		 push	 rbp
  0000b	57		 push	 rdi
  0000c	48 83 ec 28	 sub	 rsp, 40			; 00000028H
  00010	48 8b ea	 mov	 rbp, rdx
  00013	48 8b 4d 30	 mov	 rcx, QWORD PTR this$[rbp]
  00017	e8 00 00 00 00	 call	 ??1?$CHeapPtrBase@DVCCRTAllocator@ATL@@@ATL@@QEAA@XZ ; ATL::CHeapPtrBase<char,ATL::CCRTAllocator>::~CHeapPtrBase<char,ATL::CCRTAllocator>
  0001c	48 83 c4 28	 add	 rsp, 40			; 00000028H
  00020	5f		 pop	 rdi
  00021	5d		 pop	 rbp
  00022	c3		 ret	 0
?dtor$0@?0???0?$CHeapPtr@DVCCRTAllocator@ATL@@@ATL@@QEAA@XZ@4HA ENDP ; `ATL::CHeapPtr<char,ATL::CCRTAllocator>::CHeapPtr<char,ATL::CCRTAllocator>'::`1'::dtor$0
text$x	ENDS
; Function compile flags: /Odtp /RTCsu
;	COMDAT text$x
text$x	SEGMENT
this$ = 48
?dtor$0@?0???0?$CHeapPtr@DVCCRTAllocator@ATL@@@ATL@@QEAA@XZ@4HA PROC ; `ATL::CHeapPtr<char,ATL::CCRTAllocator>::CHeapPtr<char,ATL::CCRTAllocator>'::`1'::dtor$0
  00000	48 89 4c 24 08	 mov	 QWORD PTR [rsp+8], rcx
  00005	48 89 54 24 10	 mov	 QWORD PTR [rsp+16], rdx
  0000a	55		 push	 rbp
  0000b	57		 push	 rdi
  0000c	48 83 ec 28	 sub	 rsp, 40			; 00000028H
  00010	48 8b ea	 mov	 rbp, rdx
  00013	48 8b 4d 30	 mov	 rcx, QWORD PTR this$[rbp]
  00017	e8 00 00 00 00	 call	 ??1?$CHeapPtrBase@DVCCRTAllocator@ATL@@@ATL@@QEAA@XZ ; ATL::CHeapPtrBase<char,ATL::CCRTAllocator>::~CHeapPtrBase<char,ATL::CCRTAllocator>
  0001c	48 83 c4 28	 add	 rsp, 40			; 00000028H
  00020	5f		 pop	 rdi
  00021	5d		 pop	 rbp
  00022	c3		 ret	 0
?dtor$0@?0???0?$CHeapPtr@DVCCRTAllocator@ATL@@@ATL@@QEAA@XZ@4HA ENDP ; `ATL::CHeapPtr<char,ATL::CCRTAllocator>::CHeapPtr<char,ATL::CCRTAllocator>'::`1'::dtor$0
text$x	ENDS
; Function compile flags: /Odtp /RTCsu
; File C:\Program Files (x86)\Microsoft Visual Studio\2019\Community\VC\Tools\MSVC\14.23.28105\atlmfc\include\atlalloc.h
;	COMDAT ?Free@?$CHeapPtrBase@DVCCRTAllocator@ATL@@@ATL@@QEAAXXZ
_TEXT	SEGMENT
this$ = 48
?Free@?$CHeapPtrBase@DVCCRTAllocator@ATL@@@ATL@@QEAAXXZ PROC ; ATL::CHeapPtrBase<char,ATL::CCRTAllocator>::Free, COMDAT

; 407  : 	{

$LN3:
  00000	48 89 4c 24 08	 mov	 QWORD PTR [rsp+8], rcx
  00005	57		 push	 rdi
  00006	48 83 ec 20	 sub	 rsp, 32			; 00000020H
  0000a	48 8b fc	 mov	 rdi, rsp
  0000d	b9 08 00 00 00	 mov	 ecx, 8
  00012	b8 cc cc cc cc	 mov	 eax, -858993460		; ccccccccH
  00017	f3 ab		 rep stosd
  00019	48 8b 4c 24 30	 mov	 rcx, QWORD PTR [rsp+48]

; 408  : 		Allocator::Free(m_pData);

  0001e	48 8b 44 24 30	 mov	 rax, QWORD PTR this$[rsp]
  00023	48 8b 08	 mov	 rcx, QWORD PTR [rax]
  00026	e8 00 00 00 00	 call	 ?Free@CCRTAllocator@ATL@@SAXPEAX@Z ; ATL::CCRTAllocator::Free

; 409  : 		m_pData = NULL;

  0002b	48 8b 44 24 30	 mov	 rax, QWORD PTR this$[rsp]
  00030	48 c7 00 00 00
	00 00		 mov	 QWORD PTR [rax], 0

; 410  : 	}

  00037	48 83 c4 20	 add	 rsp, 32			; 00000020H
  0003b	5f		 pop	 rdi
  0003c	c3		 ret	 0
?Free@?$CHeapPtrBase@DVCCRTAllocator@ATL@@@ATL@@QEAAXXZ ENDP ; ATL::CHeapPtrBase<char,ATL::CCRTAllocator>::Free
_TEXT	ENDS
; Function compile flags: /Odtp /RTCsu
; File C:\Program Files (x86)\Microsoft Visual Studio\2019\Community\VC\Tools\MSVC\14.23.28105\atlmfc\include\atlalloc.h
;	COMDAT ?AllocateBytes@?$CHeapPtrBase@DVCCRTAllocator@ATL@@@ATL@@QEAA_N_K@Z
_TEXT	SEGMENT
this$ = 64
nBytes$ = 72
?AllocateBytes@?$CHeapPtrBase@DVCCRTAllocator@ATL@@@ATL@@QEAA_N_K@Z PROC ; ATL::CHeapPtrBase<char,ATL::CCRTAllocator>::AllocateBytes, COMDAT

; 381  : 	{

$LN5:
  00000	48 89 54 24 10	 mov	 QWORD PTR [rsp+16], rdx
  00005	48 89 4c 24 08	 mov	 QWORD PTR [rsp+8], rcx
  0000a	57		 push	 rdi
  0000b	48 83 ec 30	 sub	 rsp, 48			; 00000030H
  0000f	48 8b fc	 mov	 rdi, rsp
  00012	b9 0c 00 00 00	 mov	 ecx, 12
  00017	b8 cc cc cc cc	 mov	 eax, -858993460		; ccccccccH
  0001c	f3 ab		 rep stosd
  0001e	48 8b 4c 24 40	 mov	 rcx, QWORD PTR [rsp+64]

; 382  : 		ATLASSERT(m_pData == NULL);

  00023	48 8b 44 24 40	 mov	 rax, QWORD PTR this$[rsp]
  00028	48 83 38 00	 cmp	 QWORD PTR [rax], 0
  0002c	74 3b		 je	 SHORT $LN4@AllocateBy
  0002e	48 8d 05 00 00
	00 00		 lea	 rax, OFFSET FLAT:??_C@_1BK@NHECDDNK@?$AAm?$AA_?$AAp?$AAD?$AAa?$AAt?$AAa?$AA?5?$AA?$DN?$AA?$DN?$AA?5?$AA0@
  00035	48 89 44 24 28	 mov	 QWORD PTR [rsp+40], rax
  0003a	48 8d 05 00 00
	00 00		 lea	 rax, OFFSET FLAT:??_C@_17CNPHIMPH@?$AA?$CF?$AAl?$AAs@
  00041	48 89 44 24 20	 mov	 QWORD PTR [rsp+32], rax
  00046	45 33 c9	 xor	 r9d, r9d
  00049	41 b8 7e 01 00
	00		 mov	 r8d, 382		; 0000017eH
  0004f	48 8d 15 00 00
	00 00		 lea	 rdx, OFFSET FLAT:??_C@_1OE@BPCMJDLP@?$AAC?$AA?3?$AA?2?$AAP?$AAr?$AAo?$AAg?$AAr?$AAa?$AAm?$AA?5?$AAF?$AAi?$AAl?$AAe@
  00056	b9 02 00 00 00	 mov	 ecx, 2
  0005b	ff 15 00 00 00
	00		 call	 QWORD PTR __imp__CrtDbgReportW
  00061	83 f8 01	 cmp	 eax, 1
  00064	75 03		 jne	 SHORT $LN4@AllocateBy
  00066	cc		 int	 3
  00067	33 c0		 xor	 eax, eax
$LN4@AllocateBy:

; 383  : 		m_pData = static_cast<T*>(Allocator::Allocate(nBytes));

  00069	48 8b 4c 24 48	 mov	 rcx, QWORD PTR nBytes$[rsp]
  0006e	e8 00 00 00 00	 call	 ?Allocate@CCRTAllocator@ATL@@SAPEAX_K@Z ; ATL::CCRTAllocator::Allocate
  00073	48 8b 4c 24 40	 mov	 rcx, QWORD PTR this$[rsp]
  00078	48 89 01	 mov	 QWORD PTR [rcx], rax

; 384  : 		if (m_pData == NULL)

  0007b	48 8b 44 24 40	 mov	 rax, QWORD PTR this$[rsp]
  00080	48 83 38 00	 cmp	 QWORD PTR [rax], 0
  00084	75 04		 jne	 SHORT $LN2@AllocateBy

; 385  : 			return false;

  00086	32 c0		 xor	 al, al
  00088	eb 02		 jmp	 SHORT $LN1@AllocateBy
$LN2@AllocateBy:

; 386  : 
; 387  : 		return true;

  0008a	b0 01		 mov	 al, 1
$LN1@AllocateBy:

; 388  : 	}

  0008c	48 83 c4 30	 add	 rsp, 48			; 00000030H
  00090	5f		 pop	 rdi
  00091	c3		 ret	 0
?AllocateBytes@?$CHeapPtrBase@DVCCRTAllocator@ATL@@@ATL@@QEAA_N_K@Z ENDP ; ATL::CHeapPtrBase<char,ATL::CCRTAllocator>::AllocateBytes
_TEXT	ENDS
; Function compile flags: /Odtp /RTCsu
; File C:\Program Files (x86)\Microsoft Visual Studio\2019\Community\VC\Tools\MSVC\14.23.28105\atlmfc\include\atlalloc.h
;	COMDAT ??B?$CHeapPtrBase@DVCCRTAllocator@ATL@@@ATL@@QEBAPEADXZ
_TEXT	SEGMENT
this$ = 16
??B?$CHeapPtrBase@DVCCRTAllocator@ATL@@@ATL@@QEBAPEADXZ PROC ; ATL::CHeapPtrBase<char,ATL::CCRTAllocator>::operator char *, COMDAT

; 363  : 	{

$LN3:
  00000	48 89 4c 24 08	 mov	 QWORD PTR [rsp+8], rcx
  00005	57		 push	 rdi

; 364  : 		return m_pData;

  00006	48 8b 44 24 10	 mov	 rax, QWORD PTR this$[rsp]
  0000b	48 8b 00	 mov	 rax, QWORD PTR [rax]

; 365  : 	}

  0000e	5f		 pop	 rdi
  0000f	c3		 ret	 0
??B?$CHeapPtrBase@DVCCRTAllocator@ATL@@@ATL@@QEBAPEADXZ ENDP ; ATL::CHeapPtrBase<char,ATL::CCRTAllocator>::operator char *
_TEXT	ENDS
; Function compile flags: /Odtp /RTCsu
; File C:\Program Files (x86)\Microsoft Visual Studio\2019\Community\VC\Tools\MSVC\14.23.28105\atlmfc\include\atlalloc.h
;	COMDAT ??1?$CHeapPtrBase@DVCCRTAllocator@ATL@@@ATL@@QEAA@XZ
_TEXT	SEGMENT
this$ = 48
??1?$CHeapPtrBase@DVCCRTAllocator@ATL@@@ATL@@QEAA@XZ PROC ; ATL::CHeapPtrBase<char,ATL::CCRTAllocator>::~CHeapPtrBase<char,ATL::CCRTAllocator>, COMDAT

; 349  : 	{

$LN3:
  00000	48 89 4c 24 08	 mov	 QWORD PTR [rsp+8], rcx
  00005	57		 push	 rdi
  00006	48 83 ec 20	 sub	 rsp, 32			; 00000020H
  0000a	48 8b fc	 mov	 rdi, rsp
  0000d	b9 08 00 00 00	 mov	 ecx, 8
  00012	b8 cc cc cc cc	 mov	 eax, -858993460		; ccccccccH
  00017	f3 ab		 rep stosd
  00019	48 8b 4c 24 30	 mov	 rcx, QWORD PTR [rsp+48]

; 350  : 		Free();

  0001e	48 8b 4c 24 30	 mov	 rcx, QWORD PTR this$[rsp]
  00023	e8 00 00 00 00	 call	 ?Free@?$CHeapPtrBase@DVCCRTAllocator@ATL@@@ATL@@QEAAXXZ ; ATL::CHeapPtrBase<char,ATL::CCRTAllocator>::Free

; 351  : 	}

  00028	48 83 c4 20	 add	 rsp, 32			; 00000020H
  0002c	5f		 pop	 rdi
  0002d	c3		 ret	 0
??1?$CHeapPtrBase@DVCCRTAllocator@ATL@@@ATL@@QEAA@XZ ENDP ; ATL::CHeapPtrBase<char,ATL::CCRTAllocator>::~CHeapPtrBase<char,ATL::CCRTAllocator>
_TEXT	ENDS
; Function compile flags: /Odtp /RTCsu
; File C:\Program Files (x86)\Microsoft Visual Studio\2019\Community\VC\Tools\MSVC\14.23.28105\atlmfc\include\atlalloc.h
;	COMDAT ??0?$CHeapPtrBase@DVCCRTAllocator@ATL@@@ATL@@IEAA@XZ
_TEXT	SEGMENT
this$ = 16
??0?$CHeapPtrBase@DVCCRTAllocator@ATL@@@ATL@@IEAA@XZ PROC ; ATL::CHeapPtrBase<char,ATL::CCRTAllocator>::CHeapPtrBase<char,ATL::CCRTAllocator>, COMDAT

; 336  : 	{

$LN3:
  00000	48 89 4c 24 08	 mov	 QWORD PTR [rsp+8], rcx
  00005	57		 push	 rdi

; 335  : 		m_pData(NULL)

  00006	48 8b 44 24 10	 mov	 rax, QWORD PTR this$[rsp]
  0000b	48 c7 00 00 00
	00 00		 mov	 QWORD PTR [rax], 0

; 337  : 	}

  00012	48 8b 44 24 10	 mov	 rax, QWORD PTR this$[rsp]
  00017	5f		 pop	 rdi
  00018	c3		 ret	 0
??0?$CHeapPtrBase@DVCCRTAllocator@ATL@@@ATL@@IEAA@XZ ENDP ; ATL::CHeapPtrBase<char,ATL::CCRTAllocator>::CHeapPtrBase<char,ATL::CCRTAllocator>
_TEXT	ENDS
; Function compile flags: /Odtp /RTCsu
;	COMDAT ??1?$CHeapPtr@_WVCCRTAllocator@ATL@@@ATL@@QEAA@XZ
_TEXT	SEGMENT
this$ = 48
??1?$CHeapPtr@_WVCCRTAllocator@ATL@@@ATL@@QEAA@XZ PROC	; ATL::CHeapPtr<wchar_t,ATL::CCRTAllocator>::~CHeapPtr<wchar_t,ATL::CCRTAllocator>, COMDAT
$LN4:
  00000	48 89 4c 24 08	 mov	 QWORD PTR [rsp+8], rcx
  00005	57		 push	 rdi
  00006	48 83 ec 20	 sub	 rsp, 32			; 00000020H
  0000a	48 8b fc	 mov	 rdi, rsp
  0000d	b9 08 00 00 00	 mov	 ecx, 8
  00012	b8 cc cc cc cc	 mov	 eax, -858993460		; ccccccccH
  00017	f3 ab		 rep stosd
  00019	48 8b 4c 24 30	 mov	 rcx, QWORD PTR [rsp+48]
  0001e	48 8b 4c 24 30	 mov	 rcx, QWORD PTR this$[rsp]
  00023	e8 00 00 00 00	 call	 ??1?$CHeapPtrBase@_WVCCRTAllocator@ATL@@@ATL@@QEAA@XZ ; ATL::CHeapPtrBase<wchar_t,ATL::CCRTAllocator>::~CHeapPtrBase<wchar_t,ATL::CCRTAllocator>
  00028	90		 npad	 1
  00029	48 83 c4 20	 add	 rsp, 32			; 00000020H
  0002d	5f		 pop	 rdi
  0002e	c3		 ret	 0
??1?$CHeapPtr@_WVCCRTAllocator@ATL@@@ATL@@QEAA@XZ ENDP	; ATL::CHeapPtr<wchar_t,ATL::CCRTAllocator>::~CHeapPtr<wchar_t,ATL::CCRTAllocator>
_TEXT	ENDS
;	COMDAT text$x
text$x	SEGMENT
this$ = 48
?dtor$0@?0???1?$CHeapPtr@_WVCCRTAllocator@ATL@@@ATL@@QEAA@XZ@4HA PROC ; `ATL::CHeapPtr<wchar_t,ATL::CCRTAllocator>::~CHeapPtr<wchar_t,ATL::CCRTAllocator>'::`1'::dtor$0
  00000	48 89 4c 24 08	 mov	 QWORD PTR [rsp+8], rcx
  00005	48 89 54 24 10	 mov	 QWORD PTR [rsp+16], rdx
  0000a	55		 push	 rbp
  0000b	57		 push	 rdi
  0000c	48 83 ec 28	 sub	 rsp, 40			; 00000028H
  00010	48 8b ea	 mov	 rbp, rdx
  00013	48 8b 4d 30	 mov	 rcx, QWORD PTR this$[rbp]
  00017	e8 00 00 00 00	 call	 ??1?$CHeapPtrBase@_WVCCRTAllocator@ATL@@@ATL@@QEAA@XZ ; ATL::CHeapPtrBase<wchar_t,ATL::CCRTAllocator>::~CHeapPtrBase<wchar_t,ATL::CCRTAllocator>
  0001c	48 83 c4 28	 add	 rsp, 40			; 00000028H
  00020	5f		 pop	 rdi
  00021	5d		 pop	 rbp
  00022	c3		 ret	 0
?dtor$0@?0???1?$CHeapPtr@_WVCCRTAllocator@ATL@@@ATL@@QEAA@XZ@4HA ENDP ; `ATL::CHeapPtr<wchar_t,ATL::CCRTAllocator>::~CHeapPtr<wchar_t,ATL::CCRTAllocator>'::`1'::dtor$0
text$x	ENDS
; Function compile flags: /Odtp /RTCsu
;	COMDAT text$x
text$x	SEGMENT
this$ = 48
?dtor$0@?0???1?$CHeapPtr@_WVCCRTAllocator@ATL@@@ATL@@QEAA@XZ@4HA PROC ; `ATL::CHeapPtr<wchar_t,ATL::CCRTAllocator>::~CHeapPtr<wchar_t,ATL::CCRTAllocator>'::`1'::dtor$0
  00000	48 89 4c 24 08	 mov	 QWORD PTR [rsp+8], rcx
  00005	48 89 54 24 10	 mov	 QWORD PTR [rsp+16], rdx
  0000a	55		 push	 rbp
  0000b	57		 push	 rdi
  0000c	48 83 ec 28	 sub	 rsp, 40			; 00000028H
  00010	48 8b ea	 mov	 rbp, rdx
  00013	48 8b 4d 30	 mov	 rcx, QWORD PTR this$[rbp]
  00017	e8 00 00 00 00	 call	 ??1?$CHeapPtrBase@_WVCCRTAllocator@ATL@@@ATL@@QEAA@XZ ; ATL::CHeapPtrBase<wchar_t,ATL::CCRTAllocator>::~CHeapPtrBase<wchar_t,ATL::CCRTAllocator>
  0001c	48 83 c4 28	 add	 rsp, 40			; 00000028H
  00020	5f		 pop	 rdi
  00021	5d		 pop	 rbp
  00022	c3		 ret	 0
?dtor$0@?0???1?$CHeapPtr@_WVCCRTAllocator@ATL@@@ATL@@QEAA@XZ@4HA ENDP ; `ATL::CHeapPtr<wchar_t,ATL::CCRTAllocator>::~CHeapPtr<wchar_t,ATL::CCRTAllocator>'::`1'::dtor$0
text$x	ENDS
; Function compile flags: /Odtp /RTCsu
; File C:\Program Files (x86)\Microsoft Visual Studio\2019\Community\VC\Tools\MSVC\14.23.28105\atlmfc\include\atlalloc.h
;	COMDAT ?Allocate@?$CHeapPtr@_WVCCRTAllocator@ATL@@@ATL@@QEAA_N_K@Z
_TEXT	SEGMENT
nBytes$ = 40
this$ = 80
nElements$ = 88
?Allocate@?$CHeapPtr@_WVCCRTAllocator@ATL@@@ATL@@QEAA_N_K@Z PROC ; ATL::CHeapPtr<wchar_t,ATL::CCRTAllocator>::Allocate, COMDAT

; 455  : 	{

$LN4:
  00000	48 89 54 24 10	 mov	 QWORD PTR [rsp+16], rdx
  00005	48 89 4c 24 08	 mov	 QWORD PTR [rsp+8], rcx
  0000a	57		 push	 rdi
  0000b	48 83 ec 40	 sub	 rsp, 64			; 00000040H
  0000f	48 8b fc	 mov	 rdi, rsp
  00012	b9 10 00 00 00	 mov	 ecx, 16
  00017	b8 cc cc cc cc	 mov	 eax, -858993460		; ccccccccH
  0001c	f3 ab		 rep stosd
  0001e	48 8b 4c 24 50	 mov	 rcx, QWORD PTR [rsp+80]

; 456  : 		size_t nBytes=0;

  00023	48 c7 44 24 28
	00 00 00 00	 mov	 QWORD PTR nBytes$[rsp], 0

; 457  : 		if(FAILED(::ATL::AtlMultiply(&nBytes, nElements, sizeof(T))))

  0002c	41 b8 02 00 00
	00		 mov	 r8d, 2
  00032	48 8b 54 24 58	 mov	 rdx, QWORD PTR nElements$[rsp]
  00037	48 8d 4c 24 28	 lea	 rcx, QWORD PTR nBytes$[rsp]
  0003c	e8 00 00 00 00	 call	 ??$AtlMultiply@_K@ATL@@YAJPEA_K_K1@Z ; ATL::AtlMultiply<unsigned __int64>
  00041	85 c0		 test	 eax, eax
  00043	7d 04		 jge	 SHORT $LN2@Allocate

; 458  : 		{
; 459  : 			return false;

  00045	32 c0		 xor	 al, al
  00047	eb 0f		 jmp	 SHORT $LN1@Allocate
$LN2@Allocate:

; 460  : 		}
; 461  : 		return this->AllocateBytes(nBytes);

  00049	48 8b 54 24 28	 mov	 rdx, QWORD PTR nBytes$[rsp]
  0004e	48 8b 4c 24 50	 mov	 rcx, QWORD PTR this$[rsp]
  00053	e8 00 00 00 00	 call	 ?AllocateBytes@?$CHeapPtrBase@_WVCCRTAllocator@ATL@@@ATL@@QEAA_N_K@Z ; ATL::CHeapPtrBase<wchar_t,ATL::CCRTAllocator>::AllocateBytes
$LN1@Allocate:

; 462  : 	}

  00058	48 8b f8	 mov	 rdi, rax
  0005b	48 8b cc	 mov	 rcx, rsp
  0005e	48 8d 15 00 00
	00 00		 lea	 rdx, OFFSET FLAT:?Allocate@?$CHeapPtr@_WVCCRTAllocator@ATL@@@ATL@@QEAA_N_K@Z$rtcFrameData
  00065	e8 00 00 00 00	 call	 _RTC_CheckStackVars
  0006a	48 8b c7	 mov	 rax, rdi
  0006d	48 83 c4 40	 add	 rsp, 64			; 00000040H
  00071	5f		 pop	 rdi
  00072	c3		 ret	 0
?Allocate@?$CHeapPtr@_WVCCRTAllocator@ATL@@@ATL@@QEAA_N_K@Z ENDP ; ATL::CHeapPtr<wchar_t,ATL::CCRTAllocator>::Allocate
_TEXT	ENDS
; Function compile flags: /Odtp /RTCsu
; File C:\Program Files (x86)\Microsoft Visual Studio\2019\Community\VC\Tools\MSVC\14.23.28105\atlmfc\include\atlalloc.h
;	COMDAT ??0?$CHeapPtr@_WVCCRTAllocator@ATL@@@ATL@@QEAA@XZ
_TEXT	SEGMENT
this$ = 48
??0?$CHeapPtr@_WVCCRTAllocator@ATL@@@ATL@@QEAA@XZ PROC	; ATL::CHeapPtr<wchar_t,ATL::CCRTAllocator>::CHeapPtr<wchar_t,ATL::CCRTAllocator>, COMDAT

; 434  : 	CHeapPtr() throw()

$LN4:
  00000	48 89 4c 24 08	 mov	 QWORD PTR [rsp+8], rcx
  00005	57		 push	 rdi
  00006	48 83 ec 20	 sub	 rsp, 32			; 00000020H
  0000a	48 8b fc	 mov	 rdi, rsp
  0000d	b9 08 00 00 00	 mov	 ecx, 8
  00012	b8 cc cc cc cc	 mov	 eax, -858993460		; ccccccccH
  00017	f3 ab		 rep stosd
  00019	48 8b 4c 24 30	 mov	 rcx, QWORD PTR [rsp+48]

; 435  : 	{

  0001e	48 8b 4c 24 30	 mov	 rcx, QWORD PTR this$[rsp]
  00023	e8 00 00 00 00	 call	 ??0?$CHeapPtrBase@_WVCCRTAllocator@ATL@@@ATL@@IEAA@XZ ; ATL::CHeapPtrBase<wchar_t,ATL::CCRTAllocator>::CHeapPtrBase<wchar_t,ATL::CCRTAllocator>
  00028	90		 npad	 1

; 436  : 	}

  00029	48 8b 44 24 30	 mov	 rax, QWORD PTR this$[rsp]
  0002e	48 83 c4 20	 add	 rsp, 32			; 00000020H
  00032	5f		 pop	 rdi
  00033	c3		 ret	 0
??0?$CHeapPtr@_WVCCRTAllocator@ATL@@@ATL@@QEAA@XZ ENDP	; ATL::CHeapPtr<wchar_t,ATL::CCRTAllocator>::CHeapPtr<wchar_t,ATL::CCRTAllocator>
_TEXT	ENDS
;	COMDAT text$x
text$x	SEGMENT
this$ = 48
?dtor$0@?0???0?$CHeapPtr@_WVCCRTAllocator@ATL@@@ATL@@QEAA@XZ@4HA PROC ; `ATL::CHeapPtr<wchar_t,ATL::CCRTAllocator>::CHeapPtr<wchar_t,ATL::CCRTAllocator>'::`1'::dtor$0
  00000	48 89 4c 24 08	 mov	 QWORD PTR [rsp+8], rcx
  00005	48 89 54 24 10	 mov	 QWORD PTR [rsp+16], rdx
  0000a	55		 push	 rbp
  0000b	57		 push	 rdi
  0000c	48 83 ec 28	 sub	 rsp, 40			; 00000028H
  00010	48 8b ea	 mov	 rbp, rdx
  00013	48 8b 4d 30	 mov	 rcx, QWORD PTR this$[rbp]
  00017	e8 00 00 00 00	 call	 ??1?$CHeapPtrBase@_WVCCRTAllocator@ATL@@@ATL@@QEAA@XZ ; ATL::CHeapPtrBase<wchar_t,ATL::CCRTAllocator>::~CHeapPtrBase<wchar_t,ATL::CCRTAllocator>
  0001c	48 83 c4 28	 add	 rsp, 40			; 00000028H
  00020	5f		 pop	 rdi
  00021	5d		 pop	 rbp
  00022	c3		 ret	 0
?dtor$0@?0???0?$CHeapPtr@_WVCCRTAllocator@ATL@@@ATL@@QEAA@XZ@4HA ENDP ; `ATL::CHeapPtr<wchar_t,ATL::CCRTAllocator>::CHeapPtr<wchar_t,ATL::CCRTAllocator>'::`1'::dtor$0
text$x	ENDS
; Function compile flags: /Odtp /RTCsu
;	COMDAT text$x
text$x	SEGMENT
this$ = 48
?dtor$0@?0???0?$CHeapPtr@_WVCCRTAllocator@ATL@@@ATL@@QEAA@XZ@4HA PROC ; `ATL::CHeapPtr<wchar_t,ATL::CCRTAllocator>::CHeapPtr<wchar_t,ATL::CCRTAllocator>'::`1'::dtor$0
  00000	48 89 4c 24 08	 mov	 QWORD PTR [rsp+8], rcx
  00005	48 89 54 24 10	 mov	 QWORD PTR [rsp+16], rdx
  0000a	55		 push	 rbp
  0000b	57		 push	 rdi
  0000c	48 83 ec 28	 sub	 rsp, 40			; 00000028H
  00010	48 8b ea	 mov	 rbp, rdx
  00013	48 8b 4d 30	 mov	 rcx, QWORD PTR this$[rbp]
  00017	e8 00 00 00 00	 call	 ??1?$CHeapPtrBase@_WVCCRTAllocator@ATL@@@ATL@@QEAA@XZ ; ATL::CHeapPtrBase<wchar_t,ATL::CCRTAllocator>::~CHeapPtrBase<wchar_t,ATL::CCRTAllocator>
  0001c	48 83 c4 28	 add	 rsp, 40			; 00000028H
  00020	5f		 pop	 rdi
  00021	5d		 pop	 rbp
  00022	c3		 ret	 0
?dtor$0@?0???0?$CHeapPtr@_WVCCRTAllocator@ATL@@@ATL@@QEAA@XZ@4HA ENDP ; `ATL::CHeapPtr<wchar_t,ATL::CCRTAllocator>::CHeapPtr<wchar_t,ATL::CCRTAllocator>'::`1'::dtor$0
text$x	ENDS
; Function compile flags: /Odtp /RTCsu
; File C:\Program Files (x86)\Microsoft Visual Studio\2019\Community\VC\Tools\MSVC\14.23.28105\atlmfc\include\atlalloc.h
;	COMDAT ?Free@?$CHeapPtrBase@_WVCCRTAllocator@ATL@@@ATL@@QEAAXXZ
_TEXT	SEGMENT
this$ = 48
?Free@?$CHeapPtrBase@_WVCCRTAllocator@ATL@@@ATL@@QEAAXXZ PROC ; ATL::CHeapPtrBase<wchar_t,ATL::CCRTAllocator>::Free, COMDAT

; 407  : 	{

$LN3:
  00000	48 89 4c 24 08	 mov	 QWORD PTR [rsp+8], rcx
  00005	57		 push	 rdi
  00006	48 83 ec 20	 sub	 rsp, 32			; 00000020H
  0000a	48 8b fc	 mov	 rdi, rsp
  0000d	b9 08 00 00 00	 mov	 ecx, 8
  00012	b8 cc cc cc cc	 mov	 eax, -858993460		; ccccccccH
  00017	f3 ab		 rep stosd
  00019	48 8b 4c 24 30	 mov	 rcx, QWORD PTR [rsp+48]

; 408  : 		Allocator::Free(m_pData);

  0001e	48 8b 44 24 30	 mov	 rax, QWORD PTR this$[rsp]
  00023	48 8b 08	 mov	 rcx, QWORD PTR [rax]
  00026	e8 00 00 00 00	 call	 ?Free@CCRTAllocator@ATL@@SAXPEAX@Z ; ATL::CCRTAllocator::Free

; 409  : 		m_pData = NULL;

  0002b	48 8b 44 24 30	 mov	 rax, QWORD PTR this$[rsp]
  00030	48 c7 00 00 00
	00 00		 mov	 QWORD PTR [rax], 0

; 410  : 	}

  00037	48 83 c4 20	 add	 rsp, 32			; 00000020H
  0003b	5f		 pop	 rdi
  0003c	c3		 ret	 0
?Free@?$CHeapPtrBase@_WVCCRTAllocator@ATL@@@ATL@@QEAAXXZ ENDP ; ATL::CHeapPtrBase<wchar_t,ATL::CCRTAllocator>::Free
_TEXT	ENDS
; Function compile flags: /Odtp /RTCsu
; File C:\Program Files (x86)\Microsoft Visual Studio\2019\Community\VC\Tools\MSVC\14.23.28105\atlmfc\include\atlalloc.h
;	COMDAT ?AllocateBytes@?$CHeapPtrBase@_WVCCRTAllocator@ATL@@@ATL@@QEAA_N_K@Z
_TEXT	SEGMENT
this$ = 64
nBytes$ = 72
?AllocateBytes@?$CHeapPtrBase@_WVCCRTAllocator@ATL@@@ATL@@QEAA_N_K@Z PROC ; ATL::CHeapPtrBase<wchar_t,ATL::CCRTAllocator>::AllocateBytes, COMDAT

; 381  : 	{

$LN5:
  00000	48 89 54 24 10	 mov	 QWORD PTR [rsp+16], rdx
  00005	48 89 4c 24 08	 mov	 QWORD PTR [rsp+8], rcx
  0000a	57		 push	 rdi
  0000b	48 83 ec 30	 sub	 rsp, 48			; 00000030H
  0000f	48 8b fc	 mov	 rdi, rsp
  00012	b9 0c 00 00 00	 mov	 ecx, 12
  00017	b8 cc cc cc cc	 mov	 eax, -858993460		; ccccccccH
  0001c	f3 ab		 rep stosd
  0001e	48 8b 4c 24 40	 mov	 rcx, QWORD PTR [rsp+64]

; 382  : 		ATLASSERT(m_pData == NULL);

  00023	48 8b 44 24 40	 mov	 rax, QWORD PTR this$[rsp]
  00028	48 83 38 00	 cmp	 QWORD PTR [rax], 0
  0002c	74 3b		 je	 SHORT $LN4@AllocateBy
  0002e	48 8d 05 00 00
	00 00		 lea	 rax, OFFSET FLAT:??_C@_1BK@NHECDDNK@?$AAm?$AA_?$AAp?$AAD?$AAa?$AAt?$AAa?$AA?5?$AA?$DN?$AA?$DN?$AA?5?$AA0@
  00035	48 89 44 24 28	 mov	 QWORD PTR [rsp+40], rax
  0003a	48 8d 05 00 00
	00 00		 lea	 rax, OFFSET FLAT:??_C@_17CNPHIMPH@?$AA?$CF?$AAl?$AAs@
  00041	48 89 44 24 20	 mov	 QWORD PTR [rsp+32], rax
  00046	45 33 c9	 xor	 r9d, r9d
  00049	41 b8 7e 01 00
	00		 mov	 r8d, 382		; 0000017eH
  0004f	48 8d 15 00 00
	00 00		 lea	 rdx, OFFSET FLAT:??_C@_1OE@BPCMJDLP@?$AAC?$AA?3?$AA?2?$AAP?$AAr?$AAo?$AAg?$AAr?$AAa?$AAm?$AA?5?$AAF?$AAi?$AAl?$AAe@
  00056	b9 02 00 00 00	 mov	 ecx, 2
  0005b	ff 15 00 00 00
	00		 call	 QWORD PTR __imp__CrtDbgReportW
  00061	83 f8 01	 cmp	 eax, 1
  00064	75 03		 jne	 SHORT $LN4@AllocateBy
  00066	cc		 int	 3
  00067	33 c0		 xor	 eax, eax
$LN4@AllocateBy:

; 383  : 		m_pData = static_cast<T*>(Allocator::Allocate(nBytes));

  00069	48 8b 4c 24 48	 mov	 rcx, QWORD PTR nBytes$[rsp]
  0006e	e8 00 00 00 00	 call	 ?Allocate@CCRTAllocator@ATL@@SAPEAX_K@Z ; ATL::CCRTAllocator::Allocate
  00073	48 8b 4c 24 40	 mov	 rcx, QWORD PTR this$[rsp]
  00078	48 89 01	 mov	 QWORD PTR [rcx], rax

; 384  : 		if (m_pData == NULL)

  0007b	48 8b 44 24 40	 mov	 rax, QWORD PTR this$[rsp]
  00080	48 83 38 00	 cmp	 QWORD PTR [rax], 0
  00084	75 04		 jne	 SHORT $LN2@AllocateBy

; 385  : 			return false;

  00086	32 c0		 xor	 al, al
  00088	eb 02		 jmp	 SHORT $LN1@AllocateBy
$LN2@AllocateBy:

; 386  : 
; 387  : 		return true;

  0008a	b0 01		 mov	 al, 1
$LN1@AllocateBy:

; 388  : 	}

  0008c	48 83 c4 30	 add	 rsp, 48			; 00000030H
  00090	5f		 pop	 rdi
  00091	c3		 ret	 0
?AllocateBytes@?$CHeapPtrBase@_WVCCRTAllocator@ATL@@@ATL@@QEAA_N_K@Z ENDP ; ATL::CHeapPtrBase<wchar_t,ATL::CCRTAllocator>::AllocateBytes
_TEXT	ENDS
; Function compile flags: /Odtp /RTCsu
; File C:\Program Files (x86)\Microsoft Visual Studio\2019\Community\VC\Tools\MSVC\14.23.28105\atlmfc\include\atlalloc.h
;	COMDAT ??B?$CHeapPtrBase@_WVCCRTAllocator@ATL@@@ATL@@QEBAPEA_WXZ
_TEXT	SEGMENT
this$ = 16
??B?$CHeapPtrBase@_WVCCRTAllocator@ATL@@@ATL@@QEBAPEA_WXZ PROC ; ATL::CHeapPtrBase<wchar_t,ATL::CCRTAllocator>::operator wchar_t *, COMDAT

; 363  : 	{

$LN3:
  00000	48 89 4c 24 08	 mov	 QWORD PTR [rsp+8], rcx
  00005	57		 push	 rdi

; 364  : 		return m_pData;

  00006	48 8b 44 24 10	 mov	 rax, QWORD PTR this$[rsp]
  0000b	48 8b 00	 mov	 rax, QWORD PTR [rax]

; 365  : 	}

  0000e	5f		 pop	 rdi
  0000f	c3		 ret	 0
??B?$CHeapPtrBase@_WVCCRTAllocator@ATL@@@ATL@@QEBAPEA_WXZ ENDP ; ATL::CHeapPtrBase<wchar_t,ATL::CCRTAllocator>::operator wchar_t *
_TEXT	ENDS
; Function compile flags: /Odtp /RTCsu
; File C:\Program Files (x86)\Microsoft Visual Studio\2019\Community\VC\Tools\MSVC\14.23.28105\atlmfc\include\atlalloc.h
;	COMDAT ??1?$CHeapPtrBase@_WVCCRTAllocator@ATL@@@ATL@@QEAA@XZ
_TEXT	SEGMENT
this$ = 48
??1?$CHeapPtrBase@_WVCCRTAllocator@ATL@@@ATL@@QEAA@XZ PROC ; ATL::CHeapPtrBase<wchar_t,ATL::CCRTAllocator>::~CHeapPtrBase<wchar_t,ATL::CCRTAllocator>, COMDAT

; 349  : 	{

$LN3:
  00000	48 89 4c 24 08	 mov	 QWORD PTR [rsp+8], rcx
  00005	57		 push	 rdi
  00006	48 83 ec 20	 sub	 rsp, 32			; 00000020H
  0000a	48 8b fc	 mov	 rdi, rsp
  0000d	b9 08 00 00 00	 mov	 ecx, 8
  00012	b8 cc cc cc cc	 mov	 eax, -858993460		; ccccccccH
  00017	f3 ab		 rep stosd
  00019	48 8b 4c 24 30	 mov	 rcx, QWORD PTR [rsp+48]

; 350  : 		Free();

  0001e	48 8b 4c 24 30	 mov	 rcx, QWORD PTR this$[rsp]
  00023	e8 00 00 00 00	 call	 ?Free@?$CHeapPtrBase@_WVCCRTAllocator@ATL@@@ATL@@QEAAXXZ ; ATL::CHeapPtrBase<wchar_t,ATL::CCRTAllocator>::Free

; 351  : 	}

  00028	48 83 c4 20	 add	 rsp, 32			; 00000020H
  0002c	5f		 pop	 rdi
  0002d	c3		 ret	 0
??1?$CHeapPtrBase@_WVCCRTAllocator@ATL@@@ATL@@QEAA@XZ ENDP ; ATL::CHeapPtrBase<wchar_t,ATL::CCRTAllocator>::~CHeapPtrBase<wchar_t,ATL::CCRTAllocator>
_TEXT	ENDS
; Function compile flags: /Odtp /RTCsu
; File C:\Program Files (x86)\Microsoft Visual Studio\2019\Community\VC\Tools\MSVC\14.23.28105\atlmfc\include\atlalloc.h
;	COMDAT ??0?$CHeapPtrBase@_WVCCRTAllocator@ATL@@@ATL@@IEAA@XZ
_TEXT	SEGMENT
this$ = 16
??0?$CHeapPtrBase@_WVCCRTAllocator@ATL@@@ATL@@IEAA@XZ PROC ; ATL::CHeapPtrBase<wchar_t,ATL::CCRTAllocator>::CHeapPtrBase<wchar_t,ATL::CCRTAllocator>, COMDAT

; 336  : 	{

$LN3:
  00000	48 89 4c 24 08	 mov	 QWORD PTR [rsp+8], rcx
  00005	57		 push	 rdi

; 335  : 		m_pData(NULL)

  00006	48 8b 44 24 10	 mov	 rax, QWORD PTR this$[rsp]
  0000b	48 c7 00 00 00
	00 00		 mov	 QWORD PTR [rax], 0

; 337  : 	}

  00012	48 8b 44 24 10	 mov	 rax, QWORD PTR this$[rsp]
  00017	5f		 pop	 rdi
  00018	c3		 ret	 0
??0?$CHeapPtrBase@_WVCCRTAllocator@ATL@@@ATL@@IEAA@XZ ENDP ; ATL::CHeapPtrBase<wchar_t,ATL::CCRTAllocator>::CHeapPtrBase<wchar_t,ATL::CCRTAllocator>
_TEXT	ENDS
; Function compile flags: /Odtp /RTCsu
; File C:\Program Files (x86)\Microsoft Visual Studio\2019\Community\VC\Tools\MSVC\14.23.28105\atlmfc\include\atltrace.h
;	COMDAT ?RegisterCategory@CTrace@ATL@@SAXPEBDI@Z
_TEXT	SEGMENT
buffer$ = 64
__$ArrayPad$ = 336
pszCategory$ = 368
nCategory$ = 376
?RegisterCategory@CTrace@ATL@@SAXPEBDI@Z PROC		; ATL::CTrace::RegisterCategory, COMDAT

; 329  : 	{

$LN6:
  00000	89 54 24 10	 mov	 DWORD PTR [rsp+16], edx
  00004	48 89 4c 24 08	 mov	 QWORD PTR [rsp+8], rcx
  00009	57		 push	 rdi
  0000a	48 81 ec 60 01
	00 00		 sub	 rsp, 352		; 00000160H
  00011	48 8b fc	 mov	 rdi, rsp
  00014	b9 58 00 00 00	 mov	 ecx, 88			; 00000058H
  00019	b8 cc cc cc cc	 mov	 eax, -858993460		; ccccccccH
  0001e	f3 ab		 rep stosd
  00020	48 8b 8c 24 70
	01 00 00	 mov	 rcx, QWORD PTR [rsp+368]
  00028	48 8b 05 00 00
	00 00		 mov	 rax, QWORD PTR __security_cookie
  0002f	48 33 c4	 xor	 rax, rsp
  00032	48 89 84 24 50
	01 00 00	 mov	 QWORD PTR __$ArrayPad$[rsp], rax

; 330  : 		if (pszCategory == nullptr)

  0003a	48 83 bc 24 70
	01 00 00 00	 cmp	 QWORD PTR pszCategory$[rsp], 0
  00043	75 05		 jne	 SHORT $LN2@RegisterCa

; 331  : 		{
; 332  : 			return;

  00045	e9 d6 00 00 00	 jmp	 $LN1@RegisterCa
$LN2@RegisterCa:

; 333  : 		}
; 334  : 
; 335  : 		if (m_nLastCategory >= MaxCategoryArray) 

  0004a	83 3d 00 00 00
	00 20		 cmp	 DWORD PTR ?m_nLastCategory@CTrace@ATL@@1IA, 32 ; ATL::CTrace::m_nLastCategory, 00000020H
  00051	72 46		 jb	 SHORT $LN3@RegisterCa

; 336  : 		{
; 337  : 			ATLASSERT(false && "Too many categories defined");

  00053	33 c0		 xor	 eax, eax
  00055	85 c0		 test	 eax, eax
  00057	75 3b		 jne	 SHORT $LN5@RegisterCa
  00059	48 8d 05 00 00
	00 00		 lea	 rax, OFFSET FLAT:??_C@_1EO@EBPPKGOM@?$AAf?$AAa?$AAl?$AAs?$AAe?$AA?5?$AA?$CG?$AA?$CG?$AA?5?$AA?$CC?$AAT?$AAo?$AAo?$AA?5?$AAm@
  00060	48 89 44 24 28	 mov	 QWORD PTR [rsp+40], rax
  00065	48 8d 05 00 00
	00 00		 lea	 rax, OFFSET FLAT:??_C@_17CNPHIMPH@?$AA?$CF?$AAl?$AAs@
  0006c	48 89 44 24 20	 mov	 QWORD PTR [rsp+32], rax
  00071	45 33 c9	 xor	 r9d, r9d
  00074	41 b8 51 01 00
	00		 mov	 r8d, 337		; 00000151H
  0007a	48 8d 15 00 00
	00 00		 lea	 rdx, OFFSET FLAT:??_C@_1OE@GMIHPBDM@?$AAC?$AA?3?$AA?2?$AAP?$AAr?$AAo?$AAg?$AAr?$AAa?$AAm?$AA?5?$AAF?$AAi?$AAl?$AAe@
  00081	b9 02 00 00 00	 mov	 ecx, 2
  00086	ff 15 00 00 00
	00		 call	 QWORD PTR __imp__CrtDbgReportW
  0008c	83 f8 01	 cmp	 eax, 1
  0008f	75 03		 jne	 SHORT $LN5@RegisterCa
  00091	cc		 int	 3
  00092	33 c0		 xor	 eax, eax
$LN5@RegisterCa:

; 338  : 			return;

  00094	e9 87 00 00 00	 jmp	 $LN1@RegisterCa
$LN3@RegisterCa:

; 339  : 		}
; 340  : 
; 341  : 		m_nMap[m_nLastCategory].nCategory = nCategory;

  00099	8b 05 00 00 00
	00		 mov	 eax, DWORD PTR ?m_nLastCategory@CTrace@ATL@@1IA ; ATL::CTrace::m_nLastCategory
  0009f	48 69 c0 04 01
	00 00		 imul	 rax, rax, 260		; 00000104H
  000a6	48 8d 0d 00 00
	00 00		 lea	 rcx, OFFSET FLAT:?m_nMap@CTrace@ATL@@1PAUCategoryMap@12@A ; ATL::CTrace::m_nMap
  000ad	8b 94 24 78 01
	00 00		 mov	 edx, DWORD PTR nCategory$[rsp]
  000b4	89 14 01	 mov	 DWORD PTR [rcx+rax], edx

; 342  : #ifdef _UNICODE
; 343  : 		wcscpy_s(m_nMap[m_nLastCategory].categryName, MaxLengthOfCategoryName - 1, pszCategory);
; 344  : #else
; 345  : 		wchar_t buffer[MaxLengthOfCategoryName] = { 0 };	

  000b7	48 8d 44 24 40	 lea	 rax, QWORD PTR buffer$[rsp]
  000bc	48 8b f8	 mov	 rdi, rax
  000bf	33 c0		 xor	 eax, eax
  000c1	b9 00 01 00 00	 mov	 ecx, 256		; 00000100H
  000c6	f3 aa		 rep stosb

; 346  : #if _MSC_VER < 1900
; 347  : 		swprintf_s(buffer, MaxLengthOfCategoryName - 1, L"%S", pszCategory);
; 348  : #else
; 349  : 		swprintf_s(buffer, MaxLengthOfCategoryName - 1, L"%hs", pszCategory);

  000c8	4c 8b 8c 24 70
	01 00 00	 mov	 r9, QWORD PTR pszCategory$[rsp]
  000d0	4c 8d 05 00 00
	00 00		 lea	 r8, OFFSET FLAT:??_C@_17LGGGMOOB@?$AA?$CF?$AAh?$AAs@
  000d7	ba 7f 00 00 00	 mov	 edx, 127		; 0000007fH
  000dc	48 8d 4c 24 40	 lea	 rcx, QWORD PTR buffer$[rsp]
  000e1	e8 00 00 00 00	 call	 swprintf_s

; 350  : #endif
; 351  : 		wcscpy_s(m_nMap[m_nLastCategory].categryName, MaxLengthOfCategoryName - 1, buffer);

  000e6	8b 05 00 00 00
	00		 mov	 eax, DWORD PTR ?m_nLastCategory@CTrace@ATL@@1IA ; ATL::CTrace::m_nLastCategory
  000ec	48 69 c0 04 01
	00 00		 imul	 rax, rax, 260		; 00000104H
  000f3	48 8d 0d 00 00
	00 00		 lea	 rcx, OFFSET FLAT:?m_nMap@CTrace@ATL@@1PAUCategoryMap@12@A ; ATL::CTrace::m_nMap
  000fa	48 8d 44 01 04	 lea	 rax, QWORD PTR [rcx+rax+4]
  000ff	4c 8d 44 24 40	 lea	 r8, QWORD PTR buffer$[rsp]
  00104	ba 7f 00 00 00	 mov	 edx, 127		; 0000007fH
  00109	48 8b c8	 mov	 rcx, rax
  0010c	ff 15 00 00 00
	00		 call	 QWORD PTR __imp_wcscpy_s

; 352  : #endif
; 353  : 	
; 354  : 		m_nLastCategory++;

  00112	8b 05 00 00 00
	00		 mov	 eax, DWORD PTR ?m_nLastCategory@CTrace@ATL@@1IA ; ATL::CTrace::m_nLastCategory
  00118	ff c0		 inc	 eax
  0011a	89 05 00 00 00
	00		 mov	 DWORD PTR ?m_nLastCategory@CTrace@ATL@@1IA, eax ; ATL::CTrace::m_nLastCategory
$LN1@RegisterCa:

; 355  : 	}

  00120	48 8b cc	 mov	 rcx, rsp
  00123	48 8d 15 00 00
	00 00		 lea	 rdx, OFFSET FLAT:?RegisterCategory@CTrace@ATL@@SAXPEBDI@Z$rtcFrameData
  0012a	e8 00 00 00 00	 call	 _RTC_CheckStackVars
  0012f	48 8b 8c 24 50
	01 00 00	 mov	 rcx, QWORD PTR __$ArrayPad$[rsp]
  00137	48 33 cc	 xor	 rcx, rsp
  0013a	e8 00 00 00 00	 call	 __security_check_cookie
  0013f	48 81 c4 60 01
	00 00		 add	 rsp, 352		; 00000160H
  00146	5f		 pop	 rdi
  00147	c3		 ret	 0
?RegisterCategory@CTrace@ATL@@SAXPEBDI@Z ENDP		; ATL::CTrace::RegisterCategory
_TEXT	ENDS
; Function compile flags: /Odtp /RTCsu
; File C:\Program Files (x86)\Microsoft Visual Studio\2019\Community\VC\Tools\MSVC\14.23.28105\atlmfc\include\atltrace.h
;	COMDAT ?TraceV@CTrace@ATL@@SAXPEBDHII0PEAD@Z
_TEXT	SEGMENT
cchNeeded$ = 48
szBuf$ = 72
wszBuf$ = 104
tv89 = 120
tv92 = 128
tv153 = 136
tv160 = 144
pszFileName$ = 176
nLine$ = 184
dwCategory$ = 192
nLevel$ = 200
pszFmt$ = 208
args$ = 216
?TraceV@CTrace@ATL@@SAXPEBDHII0PEAD@Z PROC		; ATL::CTrace::TraceV, COMDAT

; 238  : 	{

$LN10:
  00000	44 89 4c 24 20	 mov	 DWORD PTR [rsp+32], r9d
  00005	44 89 44 24 18	 mov	 DWORD PTR [rsp+24], r8d
  0000a	89 54 24 10	 mov	 DWORD PTR [rsp+16], edx
  0000e	48 89 4c 24 08	 mov	 QWORD PTR [rsp+8], rcx
  00013	57		 push	 rdi
  00014	48 81 ec a0 00
	00 00		 sub	 rsp, 160		; 000000a0H
  0001b	48 8b fc	 mov	 rdi, rsp
  0001e	b9 28 00 00 00	 mov	 ecx, 40			; 00000028H
  00023	b8 cc cc cc cc	 mov	 eax, -858993460		; ccccccccH
  00028	f3 ab		 rep stosd
  0002a	48 8b 8c 24 b0
	00 00 00	 mov	 rcx, QWORD PTR [rsp+176]

; 239  : 		int cchNeeded = _vscprintf(pszFmt, args);

  00032	48 8b 94 24 d8
	00 00 00	 mov	 rdx, QWORD PTR args$[rsp]
  0003a	48 8b 8c 24 d0
	00 00 00	 mov	 rcx, QWORD PTR pszFmt$[rsp]
  00042	e8 00 00 00 00	 call	 _vscprintf
  00047	89 44 24 30	 mov	 DWORD PTR cchNeeded$[rsp], eax

; 240  : 		if (cchNeeded < 0)

  0004b	83 7c 24 30 00	 cmp	 DWORD PTR cchNeeded$[rsp], 0
  00050	7d 05		 jge	 SHORT $LN2@TraceV

; 241  : 		{
; 242  : 			return;

  00052	e9 c8 01 00 00	 jmp	 $LN1@TraceV
$LN2@TraceV:

; 243  : 		}
; 244  : 
; 245  : 		CHeapPtr<char> szBuf;

  00057	48 8d 4c 24 48	 lea	 rcx, QWORD PTR szBuf$[rsp]
  0005c	e8 00 00 00 00	 call	 ??0?$CHeapPtr@DVCCRTAllocator@ATL@@@ATL@@QEAA@XZ ; ATL::CHeapPtr<char,ATL::CCRTAllocator>::CHeapPtr<char,ATL::CCRTAllocator>
  00061	90		 npad	 1

; 246  : 		if (!szBuf.Allocate(cchNeeded + 1))

  00062	8b 44 24 30	 mov	 eax, DWORD PTR cchNeeded$[rsp]
  00066	ff c0		 inc	 eax
  00068	48 98		 cdqe
  0006a	48 8b d0	 mov	 rdx, rax
  0006d	48 8d 4c 24 48	 lea	 rcx, QWORD PTR szBuf$[rsp]
  00072	e8 00 00 00 00	 call	 ?Allocate@?$CHeapPtr@DVCCRTAllocator@ATL@@@ATL@@QEAA_N_K@Z ; ATL::CHeapPtr<char,ATL::CCRTAllocator>::Allocate
  00077	0f b6 c0	 movzx	 eax, al
  0007a	85 c0		 test	 eax, eax
  0007c	75 0f		 jne	 SHORT $LN3@TraceV

; 247  : 		{
; 248  : 			return;

  0007e	48 8d 4c 24 48	 lea	 rcx, QWORD PTR szBuf$[rsp]
  00083	e8 00 00 00 00	 call	 ??1?$CHeapPtr@DVCCRTAllocator@ATL@@@ATL@@QEAA@XZ
  00088	e9 92 01 00 00	 jmp	 $LN1@TraceV
$LN3@TraceV:

; 249  : 		}
; 250  : 
; 251  : 		szBuf[0] = '\0';

  0008d	48 8d 4c 24 48	 lea	 rcx, QWORD PTR szBuf$[rsp]
