; Listing generated by Microsoft (R) Optimizing Compiler Version 19.23.28106.4 

include listing.inc

INCLUDELIB MSVCRTD
INCLUDELIB OLDNAMES

CONST	SEGMENT
$SG122919 DB	'invalid argument', 00H
	ORG $+3
$SG122920 DB	'%s', 00H
	ORG $+1
$SG122924 DB	'"', 00H, 'i', 00H, 'n', 00H, 'v', 00H, 'a', 00H, 'l', 00H
	DB	'i', 00H, 'd', 00H, ' ', 00H, 'a', 00H, 'r', 00H, 'g', 00H, 'u'
	DB	00H, 'm', 00H, 'e', 00H, 'n', 00H, 't', 00H, '"', 00H, 00H, 00H
	ORG $+2
$SG122921 DB	'C:\Program Files (x86)\Microsoft Visual Studio\2019\Comm'
	DB	'unity\VC\Tools\MSVC\14.23.28105\include\xmemory', 00H
$SG110665 DB	'Invalid', 00H
$SG122922 DB	'C', 00H, ':', 00H, '\', 00H, 'P', 00H, 'r', 00H, 'o', 00H
	DB	'g', 00H, 'r', 00H, 'a', 00H, 'm', 00H, ' ', 00H, 'F', 00H, 'i'
	DB	00H, 'l', 00H, 'e', 00H, 's', 00H, ' ', 00H, '(', 00H, 'x', 00H
	DB	'8', 00H, '6', 00H, ')', 00H, '\', 00H, 'M', 00H, 'i', 00H, 'c'
	DB	00H, 'r', 00H, 'o', 00H, 's', 00H, 'o', 00H, 'f', 00H, 't', 00H
	DB	' ', 00H, 'V', 00H, 'i', 00H, 's', 00H, 'u', 00H, 'a', 00H, 'l'
	DB	00H, ' ', 00H, 'S', 00H, 't', 00H, 'u', 00H, 'd', 00H, 'i', 00H
	DB	'o', 00H, '\', 00H, '2', 00H, '0', 00H, '1', 00H, '9', 00H, '\'
	DB	00H, 'C', 00H, 'o', 00H, 'm', 00H, 'm', 00H, 'u', 00H, 'n', 00H
	DB	'i', 00H, 't', 00H, 'y', 00H, '\', 00H, 'V', 00H, 'C', 00H, '\'
	DB	00H, 'T', 00H, 'o', 00H, 'o', 00H, 'l', 00H, 's', 00H, '\', 00H
	DB	'M', 00H, 'S', 00H, 'V', 00H, 'C', 00H, '\', 00H, '1', 00H, '4'
	DB	00H, '.', 00H, '2', 00H, '3', 00H, '.', 00H, '2', 00H, '8', 00H
	DB	'1', 00H, '0', 00H, '5', 00H, '\', 00H, 'i', 00H, 'n', 00H, 'c'
	DB	00H, 'l', 00H, 'u', 00H, 'd', 00H, 'e', 00H, '\', 00H, 'x', 00H
	DB	'm', 00H, 'e', 00H, 'm', 00H, 'o', 00H, 'r', 00H, 'y', 00H, 00H
	DB	00H
$SG122923 DB	's', 00H, 't', 00H, 'd', 00H, ':', 00H, ':', 00H, '_', 00H
	DB	'A', 00H, 'l', 00H, 'l', 00H, 'o', 00H, 'c', 00H, 'a', 00H, 't'
	DB	00H, 'e', 00H, '_', 00H, 'm', 00H, 'a', 00H, 'n', 00H, 'u', 00H
	DB	'a', 00H, 'l', 00H, 'l', 00H, 'y', 00H, '_', 00H, 'v', 00H, 'e'
	DB	00H, 'c', 00H, 't', 00H, 'o', 00H, 'r', 00H, '_', 00H, 'a', 00H
	DB	'l', 00H, 'i', 00H, 'g', 00H, 'n', 00H, 'e', 00H, 'd', 00H, 00H
	DB	00H
	ORG $+2
$SG122965 DB	'C:\Program Files (x86)\Microsoft Visual Studio\2019\Comm'
	DB	'unity\VC\Tools\MSVC\14.23.28105\include\xlocale', 00H
$SG110666 DB	'nv12', 00H
	ORG $+3
$SG110667 DB	'yv12', 00H
	ORG $+3
$SG110668 DB	'yuy2', 00H
	ORG $+3
$SG110669 DB	'yuv422', 00H
	ORG $+1
$SG110670 DB	'nv16', 00H
	ORG $+3
$SG110671 DB	'yuv444', 00H
	ORG $+1
$SG110672 DB	'yv12(9bit)', 00H
	ORG $+1
$SG110697 DB	'rgb', 00H
$SG110673 DB	'yv12(10bit)', 00H
$SG110699 DB	'gbr', 00H
$SG110674 DB	'yv12(12bit)', 00H
$SG110702 DB	'y8', 00H
	ORG $+1
$SG110675 DB	'yv12(14bit)', 00H
$SG111645 DB	'VP8', 00H
$SG110676 DB	'yv12(16bit)', 00H
$SG110677 DB	'p010', 00H
	ORG $+3
$SG110691 DB	'rgb24r', 00H
	ORG $+1
$SG111647 DB	'VP9', 00H
$SG110678 DB	'yuv422(9bit)', 00H
	ORG $+3
$SG110679 DB	'yuv422(10bit)', 00H
	ORG $+2
$SG110680 DB	'yuv422(12bit)', 00H
	ORG $+2
$SG110681 DB	'yuv422(14bit)', 00H
	ORG $+2
$SG110682 DB	'yuv422(16bit)', 00H
	ORG $+2
$SG110683 DB	'p210', 00H
	ORG $+3
$SG110684 DB	'yuv444(9bit)', 00H
	ORG $+3
$SG110685 DB	'yuv444(10bit)', 00H
	ORG $+2
$SG110686 DB	'yuv444(12bit)', 00H
	ORG $+2
$SG110687 DB	'yuv444(14bit)', 00H
	ORG $+2
$SG110688 DB	'yuv444(16bit)', 00H
	ORG $+2
$SG110689 DB	'yuva444', 00H
$SG110690 DB	'yuva444(16bit)', 00H
	ORG $+1
$SG110692 DB	'rgb32r', 00H
	ORG $+1
$SG110693 DB	'rgb24', 00H
	ORG $+2
$SG110694 DB	'rgb32', 00H
	ORG $+2
$SG110695 DB	'bgr24', 00H
	ORG $+2
$SG110696 DB	'bgr32', 00H
	ORG $+2
$SG110698 DB	'rgba', 00H
	ORG $+3
$SG110700 DB	'gbra', 00H
	ORG $+3
$SG110701 DB	'yc48', 00H
	ORG $+3
$SG110703 DB	'yc16', 00H
	ORG $+3
$SG111633 DB	'H.264/AVC', 00H
	ORG $+2
$SG112258 DB	'fcc', 00H
$SG111635 DB	'H.265/HEVC', 00H
	ORG $+1
$SG111637 DB	'MPEG2', 00H
	ORG $+2
$SG111639 DB	'MPEG1', 00H
	ORG $+2
$SG111641 DB	'VC-1', 00H
	ORG $+3
$SG111643 DB	'MPEG4', 00H
	ORG $+2
$SG112259 DB	'GBR', 00H
$SG111649 DB	'unknown', 00H
$SG111756 DB	'unknown', 00H
?list_colormatrix@@3QBUCX_DESC@@B DQ FLAT:$SG112251	; list_colormatrix
	DD	02H
	ORG $+4
	DQ	FLAT:$SG112252
	DD	07fffffffH
	ORG $+4
	DQ	FLAT:$SG112253
	DD	01H
	ORG $+4
	DQ	FLAT:$SG112254
	DD	06H
	ORG $+4
	DQ	FLAT:$SG112255
	DD	05H
	ORG $+4
	DQ	FLAT:$SG112256
	DD	07H
	ORG $+4
	DQ	FLAT:$SG112257
	DD	08H
	ORG $+4
	DQ	FLAT:$SG112258
	DD	04H
	ORG $+4
	DQ	FLAT:$SG112259
	DD	00H
	ORG $+4
	DQ	FLAT:$SG112260
	DD	09H
	ORG $+4
	DQ	FLAT:$SG112261
	DD	0aH
	ORG $+4
	DQ	FLAT:$SG112262
	DD	0cH
	ORG $+4
	DQ	FLAT:$SG112263
	DD	0dH
	ORG $+4
	DQ	FLAT:$SG112264
	DD	0eH
	ORG $+4
	DQ	FLAT:$SG112265
	DD	0fH
	ORG $+4
	DQ	0000000000000000H
	DD	00H
	ORG $+4
$SG112251 DB	'undef', 00H
	ORG $+2
$SG112252 DB	'auto', 00H
	ORG $+3
$SG112253 DB	'bt709', 00H
	ORG $+2
$SG112254 DB	'smpte170m', 00H
	ORG $+2
$SG112410 DB	'bt470m', 00H
	ORG $+1
$SG112572 DB	'pal', 00H
$SG112255 DB	'bt470bg', 00H
$SG112256 DB	'smpte240m', 00H
	ORG $+2
$SG112257 DB	'YCgCo', 00H
	ORG $+2
$SG112413 DB	'linear', 00H
	ORG $+1
$SG112574 DB	'mac', 00H
$SG112260 DB	'bt2020nc', 00H
	ORG $+3
$SG112264 DB	'ictco', 00H
	ORG $+2
$SG112414 DB	'log100', 00H
	ORG $+1
$SG112576 DB	'0', 00H
	ORG $+2
$SG112261 DB	'bt2020c', 00H
$SG112262 DB	'derived-ncl', 00H
$SG112577 DB	'1', 00H
	ORG $+2
$SG112263 DB	'derived-cl', 00H
	ORG $+1
$SG112578 DB	'2', 00H
	ORG $+2
$SG112265 DB	'2100-lms', 00H
	ORG $+7
?list_transfer@@3QBUCX_DESC@@B DQ FLAT:$SG112406	; list_transfer
	DD	02H
	ORG $+4
	DQ	FLAT:$SG112407
	DD	07fffffffH
	ORG $+4
	DQ	FLAT:$SG112408
	DD	01H
	ORG $+4
	DQ	FLAT:$SG112409
	DD	06H
	ORG $+4
	DQ	FLAT:$SG112410
	DD	04H
	ORG $+4
	DQ	FLAT:$SG112411
	DD	05H
	ORG $+4
	DQ	FLAT:$SG112412
	DD	07H
	ORG $+4
	DQ	FLAT:$SG112413
	DD	08H
	ORG $+4
	DQ	FLAT:$SG112414
	DD	09H
	ORG $+4
	DQ	FLAT:$SG112415
	DD	0aH
	ORG $+4
	DQ	FLAT:$SG112416
	DD	0bH
	ORG $+4
	DQ	FLAT:$SG112417
	DD	0cH
	ORG $+4
	DQ	FLAT:$SG112418
	DD	0dH
	ORG $+4
	DQ	FLAT:$SG112419
	DD	0eH
	ORG $+4
	DQ	FLAT:$SG112420
	DD	0fH
	ORG $+4
	DQ	FLAT:$SG112421
	DD	010H
	ORG $+4
	DQ	FLAT:$SG112422
	DD	011H
	ORG $+4
	DQ	FLAT:$SG112423
	DD	012H
	ORG $+4
	DQ	0000000000000000H
	DD	00H
	ORG $+4
$SG112406 DB	'undef', 00H
	ORG $+2
$SG112407 DB	'auto', 00H
	ORG $+3
$SG112408 DB	'bt709', 00H
	ORG $+2
$SG112409 DB	'smpte170m', 00H
	ORG $+2
$SG112415 DB	'log316', 00H
	ORG $+1
$SG112579 DB	'3', 00H
	ORG $+2
$SG112411 DB	'bt470bg', 00H
$SG112412 DB	'smpte240m', 00H
	ORG $+2
$SG112559 DB	'bt470m', 00H
	ORG $+1
$SG112580 DB	'4', 00H
	ORG $+2
$SG112416 DB	'iec61966-2-4', 00H
	ORG $+3
$SG112417 DB	'bt1361e', 00H
$SG112418 DB	'iec61966-2-1', 00H
	ORG $+3
$SG112419 DB	'bt2020-10', 00H
	ORG $+2
$SG112563 DB	'bt2020', 00H
	ORG $+1
$SG112581 DB	'5', 00H
	ORG $+2
$SG112420 DB	'bt2020-12', 00H
	ORG $+2
$SG112585 DB	'tv', 00H
	ORG $+1
$SG112421 DB	'smpte2084', 00H
	ORG $+2
$SG112586 DB	'pc', 00H
	ORG $+1
$SG112422 DB	'smpte428', 00H
	ORG $+3
$SG112555 DB	'undef', 00H
	ORG $+2
$SG113675 DB	'cfr', 00H
$SG112423 DB	'arib-srd-b67', 00H
	ORG $+3
$SG112556 DB	'auto', 00H
	ORG $+3
?list_colorprim@@3QBUCX_DESC@@B DQ FLAT:$SG112555	; list_colorprim
	DD	02H
	ORG $+4
	DQ	FLAT:$SG112556
	DD	07fffffffH
	ORG $+4
	DQ	FLAT:$SG112557
	DD	01H
	ORG $+4
	DQ	FLAT:$SG112558
	DD	06H
	ORG $+4
	DQ	FLAT:$SG112559
	DD	04H
	ORG $+4
	DQ	FLAT:$SG112560
	DD	05H
	ORG $+4
	DQ	FLAT:$SG112561
	DD	07H
	ORG $+4
	DQ	FLAT:$SG112562
	DD	08H
	ORG $+4
	DQ	FLAT:$SG112563
	DD	09H
	ORG $+4
	DQ	FLAT:$SG112564
	DD	0aH
	ORG $+4
	DQ	FLAT:$SG112565
	DD	0bH
	ORG $+4
	DQ	FLAT:$SG112566
	DD	0cH
	ORG $+4
	DQ	FLAT:$SG112567
	DD	0dH
	ORG $+4
	DQ	0000000000000000H
	DD	00H
	ORG $+4
$SG112557 DB	'bt709', 00H
	ORG $+2
$SG112558 DB	'smpte170m', 00H
	ORG $+2
$SG113676 DB	'vfr', 00H
$SG112560 DB	'bt470bg', 00H
$SG112561 DB	'smpte240m', 00H
	ORG $+2
$SG112562 DB	'film', 00H
	ORG $+3
$SG112564 DB	'st428', 00H
	ORG $+2
$SG113679 DB	'swr', 00H
$SG112565 DB	'st431-2', 00H
$SG112566 DB	'st432-1', 00H
$SG112567 DB	'ebu3213-e', 00H
	ORG $+6
?list_videoformat@@3QBUCX_DESC@@B DQ FLAT:$SG112569	; list_videoformat
	DD	05H
	ORG $+4
	DQ	FLAT:$SG112570
	DD	02H
	ORG $+4
	DQ	FLAT:$SG112571
	DD	00H
	ORG $+4
	DQ	FLAT:$SG112572
	DD	01H
	ORG $+4
	DQ	FLAT:$SG112573
	DD	03H
	ORG $+4
	DQ	FLAT:$SG112574
	DD	04H
	ORG $+4
	DQ	0000000000000000H
	DD	00H
	ORG $+4
$SG112569 DB	'undef', 00H
	ORG $+2
$SG112570 DB	'ntsc', 00H
	ORG $+3
$SG112571 DB	'component', 00H
	ORG $+2
$SG112573 DB	'secam', 00H
	ORG $+2
$SG113984 DB	'wb', 00H
	ORG $+1
$SG112583 DB	'limited', 00H
$SG112584 DB	'full', 00H
	ORG $+3
$SG113668 DB	'trace', 00H
	ORG $+2
$SG113669 DB	'debug', 00H
	ORG $+2
$SG113670 DB	'more', 00H
	ORG $+3
$SG113671 DB	'info', 00H
	ORG $+3
$SG113672 DB	'warn', 00H
	ORG $+3
$SG113673 DB	'error', 00H
	ORG $+2
$SG113677 DB	'forcecfr', 00H
	ORG $+3
$SG113680 DB	'soxr', 00H
	ORG $+3
$SG114535 DB	' ', 00H
CONST	ENDS
PUBLIC	?__empty_global_delete@@YAXPEAX@Z		; __empty_global_delete
PUBLIC	?__empty_global_delete@@YAXPEAX_K@Z		; __empty_global_delete
PUBLIC	??2@YAPEAX_KPEAX@Z				; operator new
PUBLIC	?max@?$numeric_limits@_J@std@@SA_JXZ		; std::numeric_limits<__int64>::max
PUBLIC	??0exception@std@@QEAA@QEBDH@Z			; std::exception::exception
PUBLIC	??0exception@std@@QEAA@AEBV01@@Z		; std::exception::exception
PUBLIC	??1exception@std@@UEAA@XZ			; std::exception::~exception
PUBLIC	?what@exception@std@@UEBAPEBDXZ			; std::exception::what
PUBLIC	??_Gexception@std@@UEAAPEAXI@Z			; std::exception::`scalar deleting destructor'
PUBLIC	??0bad_alloc@std@@AEAA@QEBD@Z			; std::bad_alloc::bad_alloc
PUBLIC	??1bad_alloc@std@@UEAA@XZ			; std::bad_alloc::~bad_alloc
PUBLIC	??0bad_alloc@std@@QEAA@AEBV01@@Z		; std::bad_alloc::bad_alloc
PUBLIC	??_Gbad_alloc@std@@UEAAPEAXI@Z			; std::bad_alloc::`scalar deleting destructor'
PUBLIC	??0bad_array_new_length@std@@QEAA@XZ		; std::bad_array_new_length::bad_array_new_length
PUBLIC	??1bad_array_new_length@std@@UEAA@XZ		; std::bad_array_new_length::~bad_array_new_length
PUBLIC	??0bad_array_new_length@std@@QEAA@AEBV01@@Z	; std::bad_array_new_length::bad_array_new_length
PUBLIC	??_Gbad_array_new_length@std@@UEAAPEAXI@Z	; std::bad_array_new_length::`scalar deleting destructor'
PUBLIC	?_Throw_bad_array_new_length@std@@YAXXZ		; std::_Throw_bad_array_new_length
PUBLIC	?_Allocate@_Default_allocate_traits@std@@SAPEAX_K@Z ; std::_Default_allocate_traits::_Allocate
PUBLIC	?_Adjust_manually_vector_aligned@std@@YAXAEAPEAXAEA_K@Z ; std::_Adjust_manually_vector_aligned
PUBLIC	??$_Convert_size@_K@std@@YA_K_K@Z		; std::_Convert_size<unsigned __int64>
PUBLIC	??0_Container_proxy@std@@QEAA@PEAU_Container_base12@1@@Z ; std::_Container_proxy::_Container_proxy
PUBLIC	??0_Container_base12@std@@QEAA@XZ		; std::_Container_base12::_Container_base12
PUBLIC	?_Orphan_all@_Container_base12@std@@QEAAXXZ	; std::_Container_base12::_Orphan_all
PUBLIC	?_Swap_proxy_and_iterators@_Container_base12@std@@QEAAXAEAU12@@Z ; std::_Container_base12::_Swap_proxy_and_iterators
PUBLIC	?_Release@_Basic_container_proxy_ptr12@std@@QEAAXXZ ; std::_Basic_container_proxy_ptr12::_Release
PUBLIC	??0RGYPipeProcess@@QEAA@XZ			; RGYPipeProcess::RGYPipeProcess
PUBLIC	??1RGYPipeProcess@@UEAA@XZ			; RGYPipeProcess::~RGYPipeProcess
PUBLIC	??_GRGYPipeProcess@@UEAAPEAXI@Z			; RGYPipeProcess::`scalar deleting destructor'
PUBLIC	??0RGYPipeProcessWin@@QEAA@XZ			; RGYPipeProcessWin::RGYPipeProcessWin
PUBLIC	??1RGYPipeProcessWin@@UEAA@XZ			; RGYPipeProcessWin::~RGYPipeProcessWin
PUBLIC	?init@RGYPipeProcessWin@@UEAAXXZ		; RGYPipeProcessWin::init
PUBLIC	?run@RGYPipeProcessWin@@UEAAHAEBV?$vector@PEBDV?$allocator@PEBD@std@@@std@@PEBDPEAUProcessPipe@@I_N3@Z ; RGYPipeProcessWin::run
PUBLIC	?close@RGYPipeProcessWin@@UEAAXXZ		; RGYPipeProcessWin::close
PUBLIC	?processAlive@RGYPipeProcessWin@@UEAA_NXZ	; RGYPipeProcessWin::processAlive
PUBLIC	?getProcessInfo@RGYPipeProcessWin@@QEAAAEBU_PROCESS_INFORMATION@@XZ ; RGYPipeProcessWin::getProcessInfo
PUBLIC	?startPipes@RGYPipeProcessWin@@MEAAHPEAUProcessPipe@@@Z ; RGYPipeProcessWin::startPipes
PUBLIC	??_GRGYPipeProcessWin@@UEAAPEAXI@Z		; RGYPipeProcessWin::`scalar deleting destructor'
PUBLIC	?length@?$_Narrow_char_traits@DH@std@@SA_KQEBD@Z ; std::_Narrow_char_traits<char,int>::length
PUBLIC	?copy@?$_Narrow_char_traits@DH@std@@SAPEADQEADQEBD_K@Z ; std::_Narrow_char_traits<char,int>::copy
PUBLIC	?move@?$_Narrow_char_traits@DH@std@@SAPEADQEADQEBD_K@Z ; std::_Narrow_char_traits<char,int>::move
PUBLIC	?assign@?$_Narrow_char_traits@DH@std@@SAXAEADAEBD@Z ; std::_Narrow_char_traits<char,int>::assign
PUBLIC	??0?$allocator@D@std@@QEAA@XZ			; std::allocator<char>::allocator<char>
PUBLIC	?deallocate@?$allocator@D@std@@QEAAXQEAD_K@Z	; std::allocator<char>::deallocate
PUBLIC	?allocate@?$allocator@D@std@@QEAAPEAD_K@Z	; std::allocator<char>::allocate
PUBLIC	?max_size@?$_Default_allocator_traits@V?$allocator@D@std@@@std@@SA_KAEBV?$allocator@D@2@@Z ; std::_Default_allocator_traits<std::allocator<char> >::max_size
PUBLIC	??0?$_String_val@U?$_Simple_types@D@std@@@std@@QEAA@XZ ; std::_String_val<std::_Simple_types<char> >::_String_val<std::_Simple_types<char> >
PUBLIC	?_Myptr@?$_String_val@U?$_Simple_types@D@std@@@std@@QEAAPEADXZ ; std::_String_val<std::_Simple_types<char> >::_Myptr
PUBLIC	?_Myptr@?$_String_val@U?$_Simple_types@D@std@@@std@@QEBAPEBDXZ ; std::_String_val<std::_Simple_types<char> >::_Myptr
PUBLIC	?_Large_string_engaged@?$_String_val@U?$_Simple_types@D@std@@@std@@QEBA_NXZ ; std::_String_val<std::_Simple_types<char> >::_Large_string_engaged
PUBLIC	??0_Bxty@?$_String_val@U?$_Simple_types@D@std@@@std@@QEAA@XZ ; std::_String_val<std::_Simple_types<char> >::_Bxty::_Bxty
PUBLIC	??1_Bxty@?$_String_val@U?$_Simple_types@D@std@@@std@@QEAA@XZ ; std::_String_val<std::_Simple_types<char> >::_Bxty::~_Bxty
PUBLIC	??1?$_String_val@U?$_Simple_types@D@std@@@std@@QEAA@XZ ; std::_String_val<std::_Simple_types<char> >::~_String_val<std::_Simple_types<char> >
PUBLIC	??0?$basic_string@DU?$char_traits@D@std@@V?$allocator@D@2@@std@@QEAA@XZ ; std::basic_string<char,std::char_traits<char>,std::allocator<char> >::basic_string<char,std::char_traits<char>,std::allocator<char> >
PUBLIC	??0?$basic_string@DU?$char_traits@D@std@@V?$allocator@D@2@@std@@QEAA@QEBD@Z ; std::basic_string<char,std::char_traits<char>,std::allocator<char> >::basic_string<char,std::char_traits<char>,std::allocator<char> >
PUBLIC	??0?$basic_string@DU?$char_traits@D@std@@V?$allocator@D@2@@std@@QEAA@$$QEAV01@@Z ; std::basic_string<char,std::char_traits<char>,std::allocator<char> >::basic_string<char,std::char_traits<char>,std::allocator<char> >
PUBLIC	?_Memcpy_val_from@?$basic_string@DU?$char_traits@D@std@@V?$allocator@D@2@@std@@AEAAXAEBV12@@Z ; std::basic_string<char,std::char_traits<char>,std::allocator<char> >::_Memcpy_val_from
PUBLIC	?_Take_contents@?$basic_string@DU?$char_traits@D@std@@V?$allocator@D@2@@std@@AEAAXAEAV12@U?$integral_constant@_N$00@2@@Z ; std::basic_string<char,std::char_traits<char>,std::allocator<char> >::_Take_contents
PUBLIC	??1?$basic_string@DU?$char_traits@D@std@@V?$allocator@D@2@@std@@QEAA@XZ ; std::basic_string<char,std::char_traits<char>,std::allocator<char> >::~basic_string<char,std::char_traits<char>,std::allocator<char> >
PUBLIC	??Y?$basic_string@DU?$char_traits@D@std@@V?$allocator@D@2@@std@@QEAAAEAV01@AEBV01@@Z ; std::basic_string<char,std::char_traits<char>,std::allocator<char> >::operator+=
PUBLIC	?append@?$basic_string@DU?$char_traits@D@std@@V?$allocator@D@2@@std@@QEAAAEAV12@AEBV12@@Z ; std::basic_string<char,std::char_traits<char>,std::allocator<char> >::append
PUBLIC	?append@?$basic_string@DU?$char_traits@D@std@@V?$allocator@D@2@@std@@QEAAAEAV12@QEBD_K@Z ; std::basic_string<char,std::char_traits<char>,std::allocator<char> >::append
PUBLIC	?append@?$basic_string@DU?$char_traits@D@std@@V?$allocator@D@2@@std@@QEAAAEAV12@QEBD@Z ; std::basic_string<char,std::char_traits<char>,std::allocator<char> >::append
PUBLIC	?assign@?$basic_string@DU?$char_traits@D@std@@V?$allocator@D@2@@std@@QEAAAEAV12@QEBD_K@Z ; std::basic_string<char,std::char_traits<char>,std::allocator<char> >::assign
PUBLIC	?assign@?$basic_string@DU?$char_traits@D@std@@V?$allocator@D@2@@std@@QEAAAEAV12@QEBD@Z ; std::basic_string<char,std::char_traits<char>,std::allocator<char> >::assign
PUBLIC	?c_str@?$basic_string@DU?$char_traits@D@std@@V?$allocator@D@2@@std@@QEBAPEBDXZ ; std::basic_string<char,std::char_traits<char>,std::allocator<char> >::c_str
PUBLIC	?max_size@?$basic_string@DU?$char_traits@D@std@@V?$allocator@D@2@@std@@QEBA_KXZ ; std::basic_string<char,std::char_traits<char>,std::allocator<char> >::max_size
PUBLIC	?_Calculate_growth@?$basic_string@DU?$char_traits@D@std@@V?$allocator@D@2@@std@@CA_K_K00@Z ; std::basic_string<char,std::char_traits<char>,std::allocator<char> >::_Calculate_growth
PUBLIC	?_Calculate_growth@?$basic_string@DU?$char_traits@D@std@@V?$allocator@D@2@@std@@AEBA_K_K@Z ; std::basic_string<char,std::char_traits<char>,std::allocator<char> >::_Calculate_growth
PUBLIC	?_Tidy_init@?$basic_string@DU?$char_traits@D@std@@V?$allocator@D@2@@std@@AEAAXXZ ; std::basic_string<char,std::char_traits<char>,std::allocator<char> >::_Tidy_init
PUBLIC	?_Tidy_deallocate@?$basic_string@DU?$char_traits@D@std@@V?$allocator@D@2@@std@@AEAAXXZ ; std::basic_string<char,std::char_traits<char>,std::allocator<char> >::_Tidy_deallocate
PUBLIC	?_Xlen@?$basic_string@DU?$char_traits@D@std@@V?$allocator@D@2@@std@@CAXXZ ; std::basic_string<char,std::char_traits<char>,std::allocator<char> >::_Xlen
PUBLIC	?_Swap_proxy_and_iterators@?$basic_string@DU?$char_traits@D@std@@V?$allocator@D@2@@std@@AEAAXAEAV12@@Z ; std::basic_string<char,std::char_traits<char>,std::allocator<char> >::_Swap_proxy_and_iterators
PUBLIC	?_Getal@?$basic_string@DU?$char_traits@D@std@@V?$allocator@D@2@@std@@AEAAAEAV?$allocator@D@2@XZ ; std::basic_string<char,std::char_traits<char>,std::allocator<char> >::_Getal
PUBLIC	?_Getal@?$basic_string@DU?$char_traits@D@std@@V?$allocator@D@2@@std@@AEBAAEBV?$allocator@D@2@XZ ; std::basic_string<char,std::char_traits<char>,std::allocator<char> >::_Getal
PUBLIC	?_Get_first@?$_Compressed_pair@V?$allocator@D@std@@V?$_String_val@U?$_Simple_types@D@std@@@2@$00@std@@QEAAAEAV?$allocator@D@2@XZ ; std::_Compressed_pair<std::allocator<char>,std::_String_val<std::_Simple_types<char> >,1>::_Get_first
PUBLIC	?_Get_first@?$_Compressed_pair@V?$allocator@D@std@@V?$_String_val@U?$_Simple_types@D@std@@@2@$00@std@@QEBAAEBV?$allocator@D@2@XZ ; std::_Compressed_pair<std::allocator<char>,std::_String_val<std::_Simple_types<char> >,1>::_Get_first
PUBLIC	??1?$_Compressed_pair@V?$allocator@D@std@@V?$_String_val@U?$_Simple_types@D@std@@@2@$00@std@@QEAA@XZ ; std::_Compressed_pair<std::allocator<char>,std::_String_val<std::_Simple_types<char> >,1>::~_Compressed_pair<std::allocator<char>,std::_String_val<std::_Simple_types<char> >,1>
PUBLIC	??$make_array@W4CspMatrix@@W41@W41@W41@W41@W41@W41@W41@W41@W41@W41@W41@W41@W41@W41@@@YA?AV?$array@W4CspMatrix@@$0O@@std@@$$QEAW4CspMatrix@@0000000000000@Z ; make_array<enum CspMatrix,enum CspMatrix,enum CspMatrix,enum CspMatrix,enum CspMatrix,enum CspMatrix,enum CspMatrix,enum CspMatrix,enum CspMatrix,enum CspMatrix,enum CspMatrix,enum CspMatrix,enum CspMatrix,enum CspMatrix,enum CspMatrix>
PUBLIC	??$make_array@W4CspTransfer@@W41@W41@W41@W41@W41@W41@W41@W41@W41@W41@W41@W41@W41@W41@W41@@@YA?AV?$array@W4CspTransfer@@$0P@@std@@$$QEAW4CspTransfer@@00000000000000@Z ; make_array<enum CspTransfer,enum CspTransfer,enum CspTransfer,enum CspTransfer,enum CspTransfer,enum CspTransfer,enum CspTransfer,enum CspTransfer,enum CspTransfer,enum CspTransfer,enum CspTransfer,enum CspTransfer,enum CspTransfer,enum CspTransfer,enum CspTransfer,enum CspTransfer>
PUBLIC	??$make_array@W4CspColorprim@@W41@W41@W41@W41@W41@W41@W41@W41@W41@W41@W41@W41@@@YA?AV?$array@W4CspColorprim@@$0M@@std@@$$QEAW4CspColorprim@@00000000000@Z ; make_array<enum CspColorprim,enum CspColorprim,enum CspColorprim,enum CspColorprim,enum CspColorprim,enum CspColorprim,enum CspColorprim,enum CspColorprim,enum CspColorprim,enum CspColorprim,enum CspColorprim,enum CspColorprim,enum CspColorprim>
PUBLIC	??$?HDU?$char_traits@D@std@@V?$allocator@D@1@@std@@YA?AV?$basic_string@DU?$char_traits@D@std@@V?$allocator@D@2@@0@$$QEAV10@QEBD@Z ; std::operator+<char,std::char_traits<char>,std::allocator<char> >
PUBLIC	?_Unchecked_begin@?$vector@PEBDV?$allocator@PEBD@std@@@std@@QEBAPEBQEBDXZ ; std::vector<char const *,std::allocator<char const *> >::_Unchecked_begin
PUBLIC	?_Unchecked_end@?$vector@PEBDV?$allocator@PEBD@std@@@std@@QEBAPEBQEBDXZ ; std::vector<char const *,std::allocator<char const *> >::_Unchecked_end
PUBLIC	??$move@AEAV?$basic_string@DU?$char_traits@D@std@@V?$allocator@D@2@@std@@@std@@YA$$QEAV?$basic_string@DU?$char_traits@D@std@@V?$allocator@D@2@@0@AEAV10@@Z ; std::move<std::basic_string<char,std::char_traits<char>,std::allocator<char> > &>
PUBLIC	??$_Min_value@_K@std@@YAAEB_KAEB_K0@Z		; std::_Min_value<unsigned __int64>
PUBLIC	?allocate@?$allocator@U_Container_proxy@std@@@std@@QEAAPEAU_Container_proxy@2@_K@Z ; std::allocator<std::_Container_proxy>::allocate
PUBLIC	??$_Delete_plain_internal@V?$allocator@U_Container_proxy@std@@@std@@@std@@YAXAEAV?$allocator@U_Container_proxy@std@@@0@QEAU_Container_proxy@0@@Z ; std::_Delete_plain_internal<std::allocator<std::_Container_proxy> >
PUBLIC	??0?$_Container_proxy_ptr12@V?$allocator@U_Container_proxy@std@@@std@@@std@@QEAA@AEAV?$allocator@U_Container_proxy@std@@@1@AEAU_Container_base12@1@@Z ; std::_Container_proxy_ptr12<std::allocator<std::_Container_proxy> >::_Container_proxy_ptr12<std::allocator<std::_Container_proxy> >
PUBLIC	??1?$_Container_proxy_ptr12@V?$allocator@U_Container_proxy@std@@@std@@@std@@QEAA@XZ ; std::_Container_proxy_ptr12<std::allocator<std::_Container_proxy> >::~_Container_proxy_ptr12<std::allocator<std::_Container_proxy> >
PUBLIC	??$_Alloc_proxy@V?$allocator@U_Container_proxy@std@@@std@@@_Container_base12@std@@QEAAX$$QEAV?$allocator@U_Container_proxy@std@@@1@@Z ; std::_Container_base12::_Alloc_proxy<std::allocator<std::_Container_proxy> >
PUBLIC	??$_Unfancy@D@std@@YAPEADPEAD@Z			; std::_Unfancy<char>
PUBLIC	??$addressof@V?$_String_val@U?$_Simple_types@D@std@@@std@@@std@@YAPEAV?$_String_val@U?$_Simple_types@D@std@@@0@AEAV10@@Z ; std::addressof<std::_String_val<std::_Simple_types<char> > >
PUBLIC	??$?0D@?$allocator@U_Container_proxy@std@@@std@@QEAA@AEBV?$allocator@D@1@@Z ; std::allocator<std::_Container_proxy>::allocator<std::_Container_proxy><char>
PUBLIC	??$move@AEAV?$allocator@D@std@@@std@@YA$$QEAV?$allocator@D@0@AEAV10@@Z ; std::move<std::allocator<char> &>
PUBLIC	??$?0V?$allocator@D@std@@$$V@?$_Compressed_pair@V?$allocator@D@std@@V?$_String_val@U?$_Simple_types@D@std@@@2@$00@std@@QEAA@U_One_then_variadic_args_t@1@$$QEAV?$allocator@D@1@@Z ; std::_Compressed_pair<std::allocator<char>,std::_String_val<std::_Simple_types<char> >,1>::_Compressed_pair<std::allocator<char>,std::_String_val<std::_Simple_types<char> >,1><std::allocator<char> >
PUBLIC	??$?0$$V@?$_Compressed_pair@V?$allocator@D@std@@V?$_String_val@U?$_Simple_types@D@std@@@2@$00@std@@QEAA@U_Zero_then_variadic_args_t@1@@Z ; std::_Compressed_pair<std::allocator<char>,std::_String_val<std::_Simple_types<char> >,1>::_Compressed_pair<std::allocator<char>,std::_String_val<std::_Simple_types<char> >,1><>
PUBLIC	??$_Unfancy@U_Container_proxy@std@@@std@@YAPEAU_Container_proxy@0@PEAU10@@Z ; std::_Unfancy<std::_Container_proxy>
PUBLIC	??$addressof@U_Container_base12@std@@@std@@YAPEAU_Container_base12@0@AEAU10@@Z ; std::addressof<std::_Container_base12>
PUBLIC	??$_Construct_in_place@U_Container_proxy@std@@PEAU_Container_base12@2@@std@@YAXAEAU_Container_proxy@0@$$QEAPEAU_Container_base12@0@@Z ; std::_Construct_in_place<std::_Container_proxy,std::_Container_base12 *>
PUBLIC	??$_Destroy_in_place@PEAD@std@@YAXAEAPEAD@Z	; std::_Destroy_in_place<char *>
PUBLIC	??$_Max_value@_K@std@@YAAEB_KAEB_K0@Z		; std::_Max_value<unsigned __int64>
PUBLIC	??$addressof@$$CBV?$_String_val@U?$_Simple_types@D@std@@@std@@@std@@YAPEBV?$_String_val@U?$_Simple_types@D@std@@@0@AEBV10@@Z ; std::addressof<std::_String_val<std::_Simple_types<char> > const >
PUBLIC	??R<lambda_66f57f934f28d61049862f64df852ff0>@@QEBAXQEAD_KQEBD@Z ; <lambda_66f57f934f28d61049862f64df852ff0>::operator()
PUBLIC	??$_Reallocate_for@V<lambda_66f57f934f28d61049862f64df852ff0>@@PEBD@?$basic_string@DU?$char_traits@D@std@@V?$allocator@D@2@@std@@AEAAAEAV01@_KV<lambda_66f57f934f28d61049862f64df852ff0>@@PEBD@Z ; std::basic_string<char,std::char_traits<char>,std::allocator<char> >::_Reallocate_for<<lambda_66f57f934f28d61049862f64df852ff0>,char const *>
PUBLIC	??R<lambda_65e615be2a453ca0576c979606f46740>@@QEBAXQEADQEBD_K12@Z ; <lambda_65e615be2a453ca0576c979606f46740>::operator()
PUBLIC	??$_Reallocate_grow_by@V<lambda_65e615be2a453ca0576c979606f46740>@@PEBD_K@?$basic_string@DU?$char_traits@D@std@@V?$allocator@D@2@@std@@AEAAAEAV01@_KV<lambda_65e615be2a453ca0576c979606f46740>@@PEBD_K@Z ; std::basic_string<char,std::char_traits<char>,std::allocator<char> >::_Reallocate_grow_by<<lambda_65e615be2a453ca0576c979606f46740>,char const *,unsigned __int64>
PUBLIC	??$_Construct_in_place@PEADAEBQEAD@std@@YAXAEAPEADAEBQEAD@Z ; std::_Construct_in_place<char *,char * const &>
PUBLIC	??$_Get_size_of_n@$00@std@@YA_K_K@Z		; std::_Get_size_of_n<1>
PUBLIC	??$_Allocate@$0BA@U_Default_allocate_traits@std@@$0A@@std@@YAPEAX_K@Z ; std::_Allocate<16,std::_Default_allocate_traits,0>
PUBLIC	??$_Deallocate@$0BA@$0A@@std@@YAXPEAX_K@Z	; std::_Deallocate<16,0>
PUBLIC	??$_Get_size_of_n@$0BA@@std@@YA_K_K@Z		; std::_Get_size_of_n<16>
PUBLIC	??$_Deallocate_plain@V?$allocator@U_Container_proxy@std@@@std@@@std@@YAXAEAV?$allocator@U_Container_proxy@std@@@0@QEAU_Container_proxy@0@@Z ; std::_Deallocate_plain<std::allocator<std::_Container_proxy> >
PUBLIC	??$forward@V?$allocator@D@std@@@std@@YA$$QEAV?$allocator@D@0@AEAV10@@Z ; std::forward<std::allocator<char> >
PUBLIC	??$addressof@U_Container_proxy@std@@@std@@YAPEAU_Container_proxy@0@AEAU10@@Z ; std::addressof<std::_Container_proxy>
PUBLIC	??$forward@PEAU_Container_base12@std@@@std@@YA$$QEAPEAU_Container_base12@0@AEAPEAU10@@Z ; std::forward<std::_Container_base12 *>
PUBLIC	??$addressof@PEAD@std@@YAPEAPEADAEAPEAD@Z	; std::addressof<char *>
PUBLIC	??$forward@AEBQEAD@std@@YAAEBQEADAEBQEAD@Z	; std::forward<char * const &>
PUBLIC	??$_Allocate_manually_vector_aligned@U_Default_allocate_traits@std@@@std@@YAPEAX_K@Z ; std::_Allocate_manually_vector_aligned<std::_Default_allocate_traits>
PUBLIC	?deallocate@?$_Default_allocator_traits@V?$allocator@U_Container_proxy@std@@@std@@@std@@SAXAEAV?$allocator@U_Container_proxy@std@@@2@QEAU_Container_proxy@2@_K@Z ; std::_Default_allocator_traits<std::allocator<std::_Container_proxy> >::deallocate
PUBLIC	??_7exception@std@@6B@				; std::exception::`vftable'
PUBLIC	??_C@_0BC@EOODALEL@Unknown?5exception@		; `string'
PUBLIC	??_7bad_alloc@std@@6B@				; std::bad_alloc::`vftable'
PUBLIC	??_7bad_array_new_length@std@@6B@		; std::bad_array_new_length::`vftable'
PUBLIC	??_C@_0BF@KINCDENJ@bad?5array?5new?5length@	; `string'
PUBLIC	_TI3?AVbad_array_new_length@std@@
PUBLIC	_CTA3?AVbad_array_new_length@std@@
PUBLIC	??_R0?AVbad_array_new_length@std@@@8		; std::bad_array_new_length `RTTI Type Descriptor'
PUBLIC	_CT??_R0?AVbad_array_new_length@std@@@8??0bad_array_new_length@std@@QEAA@AEBV01@@Z24
PUBLIC	??_R0?AVbad_alloc@std@@@8			; std::bad_alloc `RTTI Type Descriptor'
PUBLIC	_CT??_R0?AVbad_alloc@std@@@8??0bad_alloc@std@@QEAA@AEBV01@@Z24
PUBLIC	??_R0?AVexception@std@@@8			; std::exception `RTTI Type Descriptor'
PUBLIC	_CT??_R0?AVexception@std@@@8??0exception@std@@QEAA@AEBV01@@Z24
PUBLIC	??_C@_0BB@FCMFBGOM@invalid?5argument@		; `string'
PUBLIC	??_C@_02DKCKIIND@?$CFs@				; `string'
PUBLIC	??_C@_0GI@FJIKDGOA@C?3?2Program?5Files?5?$CIx86?$CJ?2Microsof@ ; `string'
PUBLIC	??_C@_1NA@CDBIFGMM@?$AAC?$AA?3?$AA?2?$AAP?$AAr?$AAo?$AAg?$AAr?$AAa?$AAm?$AA?5?$AAF?$AAi?$AAl?$AAe@ ; `string'
PUBLIC	??_C@_1EK@NIFDJFDG@?$AAs?$AAt?$AAd?$AA?3?$AA?3?$AA_?$AAA?$AAd?$AAj?$AAu?$AAs?$AAt?$AA_?$AAm?$AAa@ ; `string'
PUBLIC	??_C@_1CG@JNLFBNGN@?$AA?$CC?$AAi?$AAn?$AAv?$AAa?$AAl?$AAi?$AAd?$AA?5?$AAa?$AAr?$AAg?$AAu?$AAm?$AAe@ ; `string'
PUBLIC	??_7RGYPipeProcess@@6B@				; RGYPipeProcess::`vftable'
PUBLIC	??_7RGYPipeProcessWin@@6B@			; RGYPipeProcessWin::`vftable'
PUBLIC	??_C@_0BA@JFNIOLAK@string?5too?5long@		; `string'
PUBLIC	??_R4exception@std@@6B@				; std::exception::`RTTI Complete Object Locator'
PUBLIC	??_R3exception@std@@8				; std::exception::`RTTI Class Hierarchy Descriptor'
PUBLIC	??_R2exception@std@@8				; std::exception::`RTTI Base Class Array'
PUBLIC	??_R1A@?0A@EA@exception@std@@8			; std::exception::`RTTI Base Class Descriptor at (0,-1,0,64)'
PUBLIC	??_R4bad_alloc@std@@6B@				; std::bad_alloc::`RTTI Complete Object Locator'
PUBLIC	??_R3bad_alloc@std@@8				; std::bad_alloc::`RTTI Class Hierarchy Descriptor'
PUBLIC	??_R2bad_alloc@std@@8				; std::bad_alloc::`RTTI Base Class Array'
PUBLIC	??_R1A@?0A@EA@bad_alloc@std@@8			; std::bad_alloc::`RTTI Base Class Descriptor at (0,-1,0,64)'
PUBLIC	??_R4bad_array_new_length@std@@6B@		; std::bad_array_new_length::`RTTI Complete Object Locator'
PUBLIC	??_R3bad_array_new_length@std@@8		; std::bad_array_new_length::`RTTI Class Hierarchy Descriptor'
PUBLIC	??_R2bad_array_new_length@std@@8		; std::bad_array_new_length::`RTTI Base Class Array'
PUBLIC	??_R1A@?0A@EA@bad_array_new_length@std@@8	; std::bad_array_new_length::`RTTI Base Class Descriptor at (0,-1,0,64)'
PUBLIC	??_R4RGYPipeProcess@@6B@			; RGYPipeProcess::`RTTI Complete Object Locator'
PUBLIC	??_R0?AVRGYPipeProcess@@@8			; RGYPipeProcess `RTTI Type Descriptor'
PUBLIC	??_R3RGYPipeProcess@@8				; RGYPipeProcess::`RTTI Class Hierarchy Descriptor'
PUBLIC	??_R2RGYPipeProcess@@8				; RGYPipeProcess::`RTTI Base Class Array'
PUBLIC	??_R1A@?0A@EA@RGYPipeProcess@@8			; RGYPipeProcess::`RTTI Base Class Descriptor at (0,-1,0,64)'
PUBLIC	??_R4RGYPipeProcessWin@@6B@			; RGYPipeProcessWin::`RTTI Complete Object Locator'
PUBLIC	??_R0?AVRGYPipeProcessWin@@@8			; RGYPipeProcessWin `RTTI Type Descriptor'
PUBLIC	??_R3RGYPipeProcessWin@@8			; RGYPipeProcessWin::`RTTI Class Hierarchy Descriptor'
PUBLIC	??_R2RGYPipeProcessWin@@8			; RGYPipeProcessWin::`RTTI Base Class Array'
PUBLIC	??_R1A@?0A@EA@RGYPipeProcessWin@@8		; RGYPipeProcessWin::`RTTI Base Class Descriptor at (0,-1,0,64)'
EXTRN	_purecall:PROC
EXTRN	??2@YAPEAX_K@Z:PROC				; operator new
EXTRN	??3@YAXPEAX_K@Z:PROC				; operator delete
EXTRN	__imp__invalid_parameter:PROC
EXTRN	memcpy:PROC
EXTRN	memmove:PROC
EXTRN	memset:PROC
EXTRN	strlen:PROC
EXTRN	__imp_CloseHandle:PROC
EXTRN	__imp_SetHandleInformation:PROC
EXTRN	__imp_CreatePipe:PROC
EXTRN	__imp_WaitForSingleObject:PROC
EXTRN	__imp_CreateProcessA:PROC
EXTRN	__imp__open_osfhandle:PROC
EXTRN	__imp__CrtDbgReport:PROC
EXTRN	__imp_??0_Lockit@std@@QEAA@H@Z:PROC
EXTRN	__imp_??1_Lockit@std@@QEAA@XZ:PROC
EXTRN	__imp__fdopen:PROC
EXTRN	__std_exception_copy:PROC
EXTRN	__std_exception_destroy:PROC
EXTRN	??_Eexception@std@@UEAAPEAXI@Z:PROC		; std::exception::`vector deleting destructor'
EXTRN	??_Ebad_alloc@std@@UEAAPEAXI@Z:PROC		; std::bad_alloc::`vector deleting destructor'
EXTRN	??_Ebad_array_new_length@std@@UEAAPEAXI@Z:PROC	; std::bad_array_new_length::`vector deleting destructor'
EXTRN	?_Xlength_error@std@@YAXPEBD@Z:PROC		; std::_Xlength_error
EXTRN	??_ERGYPipeProcess@@UEAAPEAXI@Z:PROC		; RGYPipeProcess::`vector deleting destructor'
EXTRN	??_ERGYPipeProcessWin@@UEAAPEAXI@Z:PROC		; RGYPipeProcessWin::`vector deleting destructor'
EXTRN	_CxxThrowException:PROC
EXTRN	_RTC_CheckStackVars:PROC
EXTRN	_RTC_InitBase:PROC
EXTRN	_RTC_Shutdown:PROC
EXTRN	__CxxFrameHandler4:PROC
EXTRN	__GSHandlerCheck:PROC
EXTRN	__GSHandlerCheck_EH4:PROC
EXTRN	__security_check_cookie:PROC
EXTRN	??_7type_info@@6B@:BYTE				; type_info::`vftable'
EXTRN	__security_cookie:QWORD
_BSS	SEGMENT
?CspMatrixList@@3V?$array@W4CspMatrix@@$0O@@std@@B DB 038H DUP (?) ; CspMatrixList
?CspTransferList@@3V?$array@W4CspTransfer@@$0P@@std@@B DB 03cH DUP (?) ; CspTransferList
?CspColorprimList@@3V?$array@W4CspColorprim@@$0M@@std@@B DB 030H DUP (?) ; CspColorprimList
_BSS	ENDS
;	COMDAT pdata
pdata	SEGMENT
$pdata$?__empty_global_delete@@YAXPEAX@Z DD imagerel $LN3
	DD	imagerel $LN3+8
	DD	imagerel $unwind$?__empty_global_delete@@YAXPEAX@Z
pdata	ENDS
;	COMDAT pdata
pdata	SEGMENT
$pdata$?__empty_global_delete@@YAXPEAX_K@Z DD imagerel $LN3
	DD	imagerel $LN3+13
	DD	imagerel $unwind$?__empty_global_delete@@YAXPEAX_K@Z
pdata	ENDS
;	COMDAT pdata
pdata	SEGMENT
$pdata$??2@YAPEAX_KPEAX@Z DD imagerel $LN3
	DD	imagerel $LN3+18
	DD	imagerel $unwind$??2@YAPEAX_KPEAX@Z
pdata	ENDS
;	COMDAT pdata
pdata	SEGMENT
$pdata$?max@?$numeric_limits@_J@std@@SA_JXZ DD imagerel $LN3
	DD	imagerel $LN3+14
	DD	imagerel $unwind$?max@?$numeric_limits@_J@std@@SA_JXZ
pdata	ENDS
;	COMDAT pdata
pdata	SEGMENT
$pdata$??0exception@std@@QEAA@QEBDH@Z DD imagerel $LN3
	DD	imagerel $LN3+73
	DD	imagerel $unwind$??0exception@std@@QEAA@QEBDH@Z
pdata	ENDS
;	COMDAT pdata
pdata	SEGMENT
$pdata$??0exception@std@@QEAA@AEBV01@@Z DD imagerel $LN3
	DD	imagerel $LN3+109
	DD	imagerel $unwind$??0exception@std@@QEAA@AEBV01@@Z
pdata	ENDS
;	COMDAT pdata
pdata	SEGMENT
$pdata$??1exception@std@@UEAA@XZ DD imagerel $LN3
	DD	imagerel $LN3+69
	DD	imagerel $unwind$??1exception@std@@UEAA@XZ
pdata	ENDS
;	COMDAT pdata
pdata	SEGMENT
$pdata$?what@exception@std@@UEBAPEBDXZ DD imagerel $LN5
	DD	imagerel $LN5+78
	DD	imagerel $unwind$?what@exception@std@@UEBAPEBDXZ
pdata	ENDS
;	COMDAT pdata
pdata	SEGMENT
$pdata$??_Gexception@std@@UEAAPEAXI@Z DD imagerel $LN4
	DD	imagerel $LN4+81
	DD	imagerel $unwind$??_Gexception@std@@UEAAPEAXI@Z
pdata	ENDS
;	COMDAT pdata
pdata	SEGMENT
$pdata$??0bad_alloc@std@@AEAA@QEBD@Z DD imagerel $LN4
	DD	imagerel $LN4+83
	DD	imagerel $unwind$??0bad_alloc@std@@AEAA@QEBD@Z
pdata	ENDS
;	COMDAT pdata
pdata	SEGMENT
$pdata$?dtor$0@?0???0bad_alloc@std@@AEAA@QEBD@Z@4HA DD imagerel ?dtor$0@?0???0bad_alloc@std@@AEAA@QEBD@Z@4HA
	DD	imagerel ?dtor$0@?0???0bad_alloc@std@@AEAA@QEBD@Z@4HA+35
	DD	imagerel $unwind$?dtor$0@?0???0bad_alloc@std@@AEAA@QEBD@Z@4HA
pdata	ENDS
;	COMDAT pdata
pdata	SEGMENT
$pdata$??1bad_alloc@std@@UEAA@XZ DD imagerel $LN4
	DD	imagerel $LN4+47
	DD	imagerel $unwind$??1bad_alloc@std@@UEAA@XZ
pdata	ENDS
;	COMDAT pdata
pdata	SEGMENT
$pdata$?dtor$0@?0???1bad_alloc@std@@UEAA@XZ@4HA DD imagerel ?dtor$0@?0???1bad_alloc@std@@UEAA@XZ@4HA
	DD	imagerel ?dtor$0@?0???1bad_alloc@std@@UEAA@XZ@4HA+35
	DD	imagerel $unwind$?dtor$0@?0???1bad_alloc@std@@UEAA@XZ@4HA
pdata	ENDS
;	COMDAT pdata
pdata	SEGMENT
$pdata$??0bad_alloc@std@@QEAA@AEBV01@@Z DD imagerel $LN4
	DD	imagerel $LN4+77
	DD	imagerel $unwind$??0bad_alloc@std@@QEAA@AEBV01@@Z
pdata	ENDS
;	COMDAT pdata
pdata	SEGMENT
$pdata$?dtor$0@?0???0bad_alloc@std@@QEAA@AEBV01@@Z@4HA DD imagerel ?dtor$0@?0???0bad_alloc@std@@QEAA@AEBV01@@Z@4HA
	DD	imagerel ?dtor$0@?0???0bad_alloc@std@@QEAA@AEBV01@@Z@4HA+35
	DD	imagerel $unwind$?dtor$0@?0???0bad_alloc@std@@QEAA@AEBV01@@Z@4HA
pdata	ENDS
;	COMDAT pdata
pdata	SEGMENT
$pdata$??_Gbad_alloc@std@@UEAAPEAXI@Z DD imagerel $LN4
	DD	imagerel $LN4+81
	DD	imagerel $unwind$??_Gbad_alloc@std@@UEAAPEAXI@Z
pdata	ENDS
;	COMDAT pdata
pdata	SEGMENT
$pdata$??0bad_array_new_length@std@@QEAA@XZ DD imagerel $LN4
	DD	imagerel $LN4+74
	DD	imagerel $unwind$??0bad_array_new_length@std@@QEAA@XZ
pdata	ENDS
;	COMDAT pdata
pdata	SEGMENT
$pdata$?dtor$0@?0???0bad_array_new_length@std@@QEAA@XZ@4HA DD imagerel ?dtor$0@?0???0bad_array_new_length@std@@QEAA@XZ@4HA
	DD	imagerel ?dtor$0@?0???0bad_array_new_length@std@@QEAA@XZ@4HA+35
	DD	imagerel $unwind$?dtor$0@?0???0bad_array_new_length@std@@QEAA@XZ@4HA
pdata	ENDS
;	COMDAT pdata
pdata	SEGMENT
$pdata$??1bad_array_new_length@std@@UEAA@XZ DD imagerel $LN4
	DD	imagerel $LN4+47
	DD	imagerel $unwind$??1bad_array_new_length@std@@UEAA@XZ
pdata	ENDS
;	COMDAT pdata
pdata	SEGMENT
$pdata$?dtor$0@?0???1bad_array_new_length@std@@UEAA@XZ@4HA DD imagerel ?dtor$0@?0???1bad_array_new_length@std@@UEAA@XZ@4HA
	DD	imagerel ?dtor$0@?0???1bad_array_new_length@std@@UEAA@XZ@4HA+35
	DD	imagerel $unwind$?dtor$0@?0???1bad_array_new_length@std@@UEAA@XZ@4HA
pdata	ENDS
;	COMDAT pdata
pdata	SEGMENT
$pdata$??0bad_array_new_length@std@@QEAA@AEBV01@@Z DD imagerel $LN4
	DD	imagerel $LN4+77
	DD	imagerel $unwind$??0bad_array_new_length@std@@QEAA@AEBV01@@Z
pdata	ENDS
;	COMDAT pdata
pdata	SEGMENT
$pdata$?dtor$0@?0???0bad_array_new_length@std@@QEAA@AEBV01@@Z@4HA DD imagerel ?dtor$0@?0???0bad_array_new_length@std@@QEAA@AEBV01@@Z@4HA
	DD	imagerel ?dtor$0@?0???0bad_array_new_length@std@@QEAA@AEBV01@@Z@4HA+35
	DD	imagerel $unwind$?dtor$0@?0???0bad_array_new_length@std@@QEAA@AEBV01@@Z@4HA
pdata	ENDS
;	COMDAT pdata
pdata	SEGMENT
$pdata$??_Gbad_array_new_length@std@@UEAAPEAXI@Z DD imagerel $LN4
	DD	imagerel $LN4+81
	DD	imagerel $unwind$??_Gbad_array_new_length@std@@UEAAPEAXI@Z
pdata	ENDS
;	COMDAT pdata
pdata	SEGMENT
$pdata$?_Throw_bad_array_new_length@std@@YAXXZ DD imagerel $LN3
	DD	imagerel $LN3+54
	DD	imagerel $unwind$?_Throw_bad_array_new_length@std@@YAXXZ
pdata	ENDS
;	COMDAT pdata
pdata	SEGMENT
$pdata$?_Allocate@_Default_allocate_traits@std@@SAPEAX_K@Z DD imagerel $LN3
	DD	imagerel $LN3+46
	DD	imagerel $unwind$?_Allocate@_Default_allocate_traits@std@@SAPEAX_K@Z
pdata	ENDS
;	COMDAT pdata
pdata	SEGMENT
$pdata$?_Adjust_manually_vector_aligned@std@@YAXAEAPEAXAEA_K@Z DD imagerel $LN21
	DD	imagerel $LN21+424
	DD	imagerel $unwind$?_Adjust_manually_vector_aligned@std@@YAXAEAPEAXAEA_K@Z
pdata	ENDS
;	COMDAT pdata
pdata	SEGMENT
$pdata$??$_Convert_size@_K@std@@YA_K_K@Z DD imagerel $LN3
	DD	imagerel $LN3+13
	DD	imagerel $unwind$??$_Convert_size@_K@std@@YA_K_K@Z
pdata	ENDS
;	COMDAT pdata
pdata	SEGMENT
$pdata$??0_Container_proxy@std@@QEAA@PEAU_Container_base12@1@@Z DD imagerel $LN3
	DD	imagerel $LN3+44
	DD	imagerel $unwind$??0_Container_proxy@std@@QEAA@PEAU_Container_base12@1@@Z
pdata	ENDS
;	COMDAT pdata
pdata	SEGMENT
$pdata$??0_Container_base12@std@@QEAA@XZ DD imagerel $LN3
	DD	imagerel $LN3+25
	DD	imagerel $unwind$??0_Container_base12@std@@QEAA@XZ
pdata	ENDS
;	COMDAT pdata
pdata	SEGMENT
$pdata$?_Orphan_all@_Container_base12@std@@QEAAXXZ DD imagerel $LN8
	DD	imagerel $LN8+175
	DD	imagerel $unwind$?_Orphan_all@_Container_base12@std@@QEAAXXZ
pdata	ENDS
;	COMDAT pdata
pdata	SEGMENT
$pdata$?dtor$0@?0??_Orphan_all@_Container_base12@std@@QEAAXXZ@4HA DD imagerel ?dtor$0@?0??_Orphan_all@_Container_base12@std@@QEAAXXZ@4HA
	DD	imagerel ?dtor$0@?0??_Orphan_all@_Container_base12@std@@QEAAXXZ@4HA+36
	DD	imagerel $unwind$?dtor$0@?0??_Orphan_all@_Container_base12@std@@QEAAXXZ@4HA
pdata	ENDS
;	COMDAT pdata
pdata	SEGMENT
$pdata$?_Swap_proxy_and_iterators@_Container_base12@std@@QEAAXAEAU12@@Z DD imagerel $LN6
	DD	imagerel $LN6+182
	DD	imagerel $unwind$?_Swap_proxy_and_iterators@_Container_base12@std@@QEAAXAEAU12@@Z
pdata	ENDS
;	COMDAT pdata
pdata	SEGMENT
$pdata$?dtor$0@?0??_Swap_proxy_and_iterators@_Container_base12@std@@QEAAXAEAU12@@Z@4HA DD imagerel ?dtor$0@?0??_Swap_proxy_and_iterators@_Container_base12@std@@QEAAXAEAU12@@Z@4HA
	DD	imagerel ?dtor$0@?0??_Swap_proxy_and_iterators@_Container_base12@std@@QEAAXAEAU12@@Z@4HA+36
	DD	imagerel $unwind$?dtor$0@?0??_Swap_proxy_and_iterators@_Container_base12@std@@QEAAXAEAU12@@Z@4HA
pdata	ENDS
;	COMDAT pdata
pdata	SEGMENT
$pdata$?_Release@_Basic_container_proxy_ptr12@std@@QEAAXXZ DD imagerel $LN3
	DD	imagerel $LN3+20
	DD	imagerel $unwind$?_Release@_Basic_container_proxy_ptr12@std@@QEAAXXZ
pdata	ENDS
;	COMDAT pdata
pdata	SEGMENT
$pdata$??0RGYPipeProcess@@QEAA@XZ DD imagerel $LN3
	DD	imagerel $LN3+41
	DD	imagerel $unwind$??0RGYPipeProcess@@QEAA@XZ
pdata	ENDS
;	COMDAT pdata
pdata	SEGMENT
$pdata$??1RGYPipeProcess@@UEAA@XZ DD imagerel $LN3
	DD	imagerel $LN3+23
	DD	imagerel $unwind$??1RGYPipeProcess@@UEAA@XZ
pdata	ENDS
;	COMDAT pdata
pdata	SEGMENT
$pdata$??_GRGYPipeProcess@@UEAAPEAXI@Z DD imagerel $LN4
	DD	imagerel $LN4+81
	DD	imagerel $unwind$??_GRGYPipeProcess@@UEAAPEAXI@Z
pdata	ENDS
pdata	SEGMENT
$pdata$??0RGYPipeProcessWin@@QEAA@XZ DD imagerel $LN4
	DD	imagerel $LN4+93
	DD	imagerel $unwind$??0RGYPipeProcessWin@@QEAA@XZ
pdata	ENDS
pdata	SEGMENT
$pdata$?dtor$0@?0???0RGYPipeProcessWin@@QEAA@XZ@4HA DD imagerel ?dtor$0@?0???0RGYPipeProcessWin@@QEAA@XZ@4HA
	DD	imagerel ?dtor$0@?0???0RGYPipeProcessWin@@QEAA@XZ@4HA+35
	DD	imagerel $unwind$?dtor$0@?0???0RGYPipeProcessWin@@QEAA@XZ@4HA
pdata	ENDS
pdata	SEGMENT
$pdata$??1RGYPipeProcessWin@@UEAA@XZ DD imagerel $LN4
	DD	imagerel $LN4+62
	DD	imagerel $unwind$??1RGYPipeProcessWin@@UEAA@XZ
pdata	ENDS
pdata	SEGMENT
$pdata$?dtor$0@?0???1RGYPipeProcessWin@@UEAA@XZ@4HA DD imagerel ?dtor$0@?0???1RGYPipeProcessWin@@UEAA@XZ@4HA
	DD	imagerel ?dtor$0@?0???1RGYPipeProcessWin@@UEAA@XZ@4HA+35
	DD	imagerel $unwind$?dtor$0@?0???1RGYPipeProcessWin@@UEAA@XZ@4HA
pdata	ENDS
pdata	SEGMENT
$pdata$?init@RGYPipeProcessWin@@UEAAXXZ DD imagerel $LN3
	DD	imagerel $LN3+52
	DD	imagerel $unwind$?init@RGYPipeProcessWin@@UEAAXXZ
$pdata$?run@RGYPipeProcessWin@@UEAAHAEBV?$vector@PEBDV?$allocator@PEBD@std@@@std@@PEBDPEAUProcessPipe@@I_N3@Z DD imagerel $LN26
	DD	imagerel $LN26+1217
	DD	imagerel $unwind$?run@RGYPipeProcessWin@@UEAAHAEBV?$vector@PEBDV?$allocator@PEBD@std@@@std@@PEBDPEAUProcessPipe@@I_N3@Z
pdata	ENDS
pdata	SEGMENT
$pdata$?dtor$0@?0??run@RGYPipeProcessWin@@UEAAHAEBV?$vector@PEBDV?$allocator@PEBD@std@@@std@@PEBDPEAUProcessPipe@@I_N3@Z@4HA DD imagerel ?dtor$0@?0??run@RGYPipeProcessWin@@UEAAHAEBV?$vector@PEBDV?$allocator@PEBD@std@@@std@@PEBDPEAUProcessPipe@@I_N3@Z@4HA
	DD	imagerel ?dtor$0@?0??run@RGYPipeProcessWin@@UEAAHAEBV?$vector@PEBDV?$allocator@PEBD@std@@@std@@PEBDPEAUProcessPipe@@I_N3@Z@4HA+38
	DD	imagerel $unwind$?dtor$0@?0??run@RGYPipeProcessWin@@UEAAHAEBV?$vector@PEBDV?$allocator@PEBD@std@@@std@@PEBDPEAUProcessPipe@@I_N3@Z@4HA
$pdata$?dtor$1@?0??run@RGYPipeProcessWin@@UEAAHAEBV?$vector@PEBDV?$allocator@PEBD@std@@@std@@PEBDPEAUProcessPipe@@I_N3@Z@4HA DD imagerel ?dtor$1@?0??run@RGYPipeProcessWin@@UEAAHAEBV?$vector@PEBDV?$allocator@PEBD@std@@@std@@PEBDPEAUProcessPipe@@I_N3@Z@4HA
	DD	imagerel ?dtor$1@?0??run@RGYPipeProcessWin@@UEAAHAEBV?$vector@PEBDV?$allocator@PEBD@std@@@std@@PEBDPEAUProcessPipe@@I_N3@Z@4HA+38
	DD	imagerel $unwind$?dtor$1@?0??run@RGYPipeProcessWin@@UEAAHAEBV?$vector@PEBDV?$allocator@PEBD@std@@@std@@PEBDPEAUProcessPipe@@I_N3@Z@4HA
$pdata$?dtor$2@?0??run@RGYPipeProcessWin@@UEAAHAEBV?$vector@PEBDV?$allocator@PEBD@std@@@std@@PEBDPEAUProcessPipe@@I_N3@Z@4HA DD imagerel ?dtor$2@?0??run@RGYPipeProcessWin@@UEAAHAEBV?$vector@PEBDV?$allocator@PEBD@std@@@std@@PEBDPEAUProcessPipe@@I_N3@Z@4HA
	DD	imagerel ?dtor$2@?0??run@RGYPipeProcessWin@@UEAAHAEBV?$vector@PEBDV?$allocator@PEBD@std@@@std@@PEBDPEAUProcessPipe@@I_N3@Z@4HA+38
	DD	imagerel $unwind$?dtor$2@?0??run@RGYPipeProcessWin@@UEAAHAEBV?$vector@PEBDV?$allocator@PEBD@std@@@std@@PEBDPEAUProcessPipe@@I_N3@Z@4HA
pdata	ENDS
pdata	SEGMENT
$pdata$?close@RGYPipeProcessWin@@UEAAXXZ DD imagerel $LN5
	DD	imagerel $LN5+115
	DD	imagerel $unwind$?close@RGYPipeProcessWin@@UEAAXXZ
$pdata$?processAlive@RGYPipeProcessWin@@UEAA_NXZ DD imagerel $LN5
	DD	imagerel $LN5+80
	DD	imagerel $unwind$?processAlive@RGYPipeProcessWin@@UEAA_NXZ
$pdata$?getProcessInfo@RGYPipeProcessWin@@QEAAAEBU_PROCESS_INFORMATION@@XZ DD imagerel $LN3
	DD	imagerel $LN3+17
	DD	imagerel $unwind$?getProcessInfo@RGYPipeProcessWin@@QEAAAEBU_PROCESS_INFORMATION@@XZ
$pdata$?startPipes@RGYPipeProcessWin@@MEAAHPEAUProcessPipe@@@Z DD imagerel $LN13
	DD	imagerel $LN13+434
	DD	imagerel $unwind$?startPipes@RGYPipeProcessWin@@MEAAHPEAUProcessPipe@@@Z
pdata	ENDS
;	COMDAT pdata
pdata	SEGMENT
$pdata$??_GRGYPipeProcessWin@@UEAAPEAXI@Z DD imagerel $LN4
	DD	imagerel $LN4+81
	DD	imagerel $unwind$??_GRGYPipeProcessWin@@UEAAPEAXI@Z
pdata	ENDS
;	COMDAT pdata
pdata	SEGMENT
$pdata$?length@?$_Narrow_char_traits@DH@std@@SA_KQEBD@Z DD imagerel $LN3
	DD	imagerel $LN3+47
	DD	imagerel $unwind$?length@?$_Narrow_char_traits@DH@std@@SA_KQEBD@Z
pdata	ENDS
;	COMDAT pdata
pdata	SEGMENT
$pdata$?copy@?$_Narrow_char_traits@DH@std@@SAPEADQEADQEBD_K@Z DD imagerel $LN3
	DD	imagerel $LN3+67
	DD	imagerel $unwind$?copy@?$_Narrow_char_traits@DH@std@@SAPEADQEADQEBD_K@Z
pdata	ENDS
;	COMDAT pdata
pdata	SEGMENT
$pdata$?move@?$_Narrow_char_traits@DH@std@@SAPEADQEADQEBD_K@Z DD imagerel $LN3
	DD	imagerel $LN3+67
	DD	imagerel $unwind$?move@?$_Narrow_char_traits@DH@std@@SAPEADQEADQEBD_K@Z
pdata	ENDS
;	COMDAT pdata
pdata	SEGMENT
$pdata$?assign@?$_Narrow_char_traits@DH@std@@SAXAEADAEBD@Z DD imagerel $LN3
	DD	imagerel $LN3+28
	DD	imagerel $unwind$?assign@?$_Narrow_char_traits@DH@std@@SAXAEADAEBD@Z
pdata	ENDS
;	COMDAT pdata
pdata	SEGMENT
$pdata$??0?$allocator@D@std@@QEAA@XZ DD imagerel $LN3
	DD	imagerel $LN3+13
	DD	imagerel $unwind$??0?$allocator@D@std@@QEAA@XZ
pdata	ENDS
;	COMDAT pdata
pdata	SEGMENT
$pdata$?deallocate@?$allocator@D@std@@QEAAXQEAD_K@Z DD imagerel $LN3
	DD	imagerel $LN3+61
	DD	imagerel $unwind$?deallocate@?$allocator@D@std@@QEAAXQEAD_K@Z
pdata	ENDS
;	COMDAT pdata
pdata	SEGMENT
$pdata$?allocate@?$allocator@D@std@@QEAAPEAD_K@Z DD imagerel $LN3
	DD	imagerel $LN3+59
	DD	imagerel $unwind$?allocate@?$allocator@D@std@@QEAAPEAD_K@Z
pdata	ENDS
;	COMDAT pdata
pdata	SEGMENT
$pdata$?max_size@?$_Default_allocator_traits@V?$allocator@D@std@@@std@@SA_KAEBV?$allocator@D@2@@Z DD imagerel $LN3
	DD	imagerel $LN3+15
	DD	imagerel $unwind$?max_size@?$_Default_allocator_traits@V?$allocator@D@std@@@std@@SA_KAEBV?$allocator@D@2@@Z
pdata	ENDS
;	COMDAT pdata
pdata	SEGMENT
$pdata$??0?$_String_val@U?$_Simple_types@D@std@@@std@@QEAA@XZ DD imagerel $LN4
	DD	imagerel $LN4+95
	DD	imagerel $unwind$??0?$_String_val@U?$_Simple_types@D@std@@@std@@QEAA@XZ
pdata	ENDS
;	COMDAT pdata
pdata	SEGMENT
$pdata$?dtor$0@?0???0?$_String_val@U?$_Simple_types@D@std@@@std@@QEAA@XZ@4HA DD imagerel ?dtor$0@?0???0?$_String_val@U?$_Simple_types@D@std@@@std@@QEAA@XZ@4HA
	DD	imagerel ?dtor$0@?0???0?$_String_val@U?$_Simple_types@D@std@@@std@@QEAA@XZ@4HA+39
	DD	imagerel $unwind$?dtor$0@?0???0?$_String_val@U?$_Simple_types@D@std@@@std@@QEAA@XZ@4HA
pdata	ENDS
;	COMDAT pdata
pdata	SEGMENT
$pdata$?_Myptr@?$_String_val@U?$_Simple_types@D@std@@@std@@QEAAPEADXZ DD imagerel $LN4
	DD	imagerel $LN4+91
	DD	imagerel $unwind$?_Myptr@?$_String_val@U?$_Simple_types@D@std@@@std@@QEAAPEADXZ
pdata	ENDS
;	COMDAT pdata
pdata	SEGMENT
$pdata$?_Myptr@?$_String_val@U?$_Simple_types@D@std@@@std@@QEBAPEBDXZ DD imagerel $LN4
	DD	imagerel $LN4+91
	DD	imagerel $unwind$?_Myptr@?$_String_val@U?$_Simple_types@D@std@@@std@@QEBAPEBDXZ
pdata	ENDS
;	COMDAT pdata
pdata	SEGMENT
$pdata$?_Large_string_engaged@?$_String_val@U?$_Simple_types@D@std@@@std@@QEBA_NXZ DD imagerel $LN5
	DD	imagerel $LN5+68
	DD	imagerel $unwind$?_Large_string_engaged@?$_String_val@U?$_Simple_types@D@std@@@std@@QEBA_NXZ
pdata	ENDS
;	COMDAT pdata
pdata	SEGMENT
$pdata$??0_Bxty@?$_String_val@U?$_Simple_types@D@std@@@std@@QEAA@XZ DD imagerel $LN3
	DD	imagerel $LN3+13
	DD	imagerel $unwind$??0_Bxty@?$_String_val@U?$_Simple_types@D@std@@@std@@QEAA@XZ
pdata	ENDS
;	COMDAT pdata
pdata	SEGMENT
$pdata$??1_Bxty@?$_String_val@U?$_Simple_types@D@std@@@std@@QEAA@XZ DD imagerel $LN3
	DD	imagerel $LN3+8
	DD	imagerel $unwind$??1_Bxty@?$_String_val@U?$_Simple_types@D@std@@@std@@QEAA@XZ
pdata	ENDS
;	COMDAT pdata
pdata	SEGMENT
$pdata$??1?$_String_val@U?$_Simple_types@D@std@@@std@@QEAA@XZ DD imagerel $LN4
	DD	imagerel $LN4+54
	DD	imagerel $unwind$??1?$_String_val@U?$_Simple_types@D@std@@@std@@QEAA@XZ
pdata	ENDS
;	COMDAT pdata
pdata	SEGMENT
$pdata$?dtor$0@?0???1?$_String_val@U?$_Simple_types@D@std@@@std@@QEAA@XZ@4HA DD imagerel ?dtor$0@?0???1?$_String_val@U?$_Simple_types@D@std@@@std@@QEAA@XZ@4HA
	DD	imagerel ?dtor$0@?0???1?$_String_val@U?$_Simple_types@D@std@@@std@@QEAA@XZ@4HA+39
	DD	imagerel $unwind$?dtor$0@?0???1?$_String_val@U?$_Simple_types@D@std@@@std@@QEAA@XZ@4HA
pdata	ENDS
;	COMDAT pdata
pdata	SEGMENT
$pdata$??0?$basic_string@DU?$char_traits@D@std@@V?$allocator@D@2@@std@@QEAA@XZ DD imagerel $LN4
	DD	imagerel $LN4+110
	DD	imagerel $unwind$??0?$basic_string@DU?$char_traits@D@std@@V?$allocator@D@2@@std@@QEAA@XZ
pdata	ENDS
;	COMDAT pdata
pdata	SEGMENT
$pdata$?dtor$0@?0???0?$basic_string@DU?$char_traits@D@std@@V?$allocator@D@2@@std@@QEAA@XZ@4HA DD imagerel ?dtor$0@?0???0?$basic_string@DU?$char_traits@D@std@@V?$allocator@D@2@@std@@QEAA@XZ@4HA
	DD	imagerel ?dtor$0@?0???0?$basic_string@DU?$char_traits@D@std@@V?$allocator@D@2@@std@@QEAA@XZ@4HA+35
	DD	imagerel $unwind$?dtor$0@?0???0?$basic_string@DU?$char_traits@D@std@@V?$allocator@D@2@@std@@QEAA@XZ@4HA
pdata	ENDS
;	COMDAT pdata
pdata	SEGMENT
$pdata$??0?$basic_string@DU?$char_traits@D@std@@V?$allocator@D@2@@std@@QEAA@QEBD@Z DD imagerel $LN5
	DD	imagerel $LN5+220
	DD	imagerel $unwind$??0?$basic_string@DU?$char_traits@D@std@@V?$allocator@D@2@@std@@QEAA@QEBD@Z
pdata	ENDS
;	COMDAT pdata
pdata	SEGMENT
$pdata$?dtor$0@?0???0?$basic_string@DU?$char_traits@D@std@@V?$allocator@D@2@@std@@QEAA@QEBD@Z@4HA DD imagerel ?dtor$0@?0???0?$basic_string@DU?$char_traits@D@std@@V?$allocator@D@2@@std@@QEAA@QEBD@Z@4HA
	DD	imagerel ?dtor$0@?0???0?$basic_string@DU?$char_traits@D@std@@V?$allocator@D@2@@std@@QEAA@QEBD@Z@4HA+38
	DD	imagerel $unwind$?dtor$0@?0???0?$basic_string@DU?$char_traits@D@std@@V?$allocator@D@2@@std@@QEAA@QEBD@Z@4HA
pdata	ENDS
;	COMDAT pdata
pdata	SEGMENT
$pdata$?dtor$1@?0???0?$basic_string@DU?$char_traits@D@std@@V?$allocator@D@2@@std@@QEAA@QEBD@Z@4HA DD imagerel ?dtor$1@?0???0?$basic_string@DU?$char_traits@D@std@@V?$allocator@D@2@@std@@QEAA@QEBD@Z@4HA
	DD	imagerel ?dtor$1@?0???0?$basic_string@DU?$char_traits@D@std@@V?$allocator@D@2@@std@@QEAA@QEBD@Z@4HA+35
	DD	imagerel $unwind$?dtor$1@?0???0?$basic_string@DU?$char_traits@D@std@@V?$allocator@D@2@@std@@QEAA@QEBD@Z@4HA
pdata	ENDS
;	COMDAT pdata
pdata	SEGMENT
$pdata$??0?$basic_string@DU?$char_traits@D@std@@V?$allocator@D@2@@std@@QEAA@$$QEAV01@@Z DD imagerel $LN4
	DD	imagerel $LN4+163
	DD	imagerel $unwind$??0?$basic_string@DU?$char_traits@D@std@@V?$allocator@D@2@@std@@QEAA@$$QEAV01@@Z
pdata	ENDS
;	COMDAT pdata
pdata	SEGMENT
$pdata$?dtor$0@?0???0?$basic_string@DU?$char_traits@D@std@@V?$allocator@D@2@@std@@QEAA@$$QEAV01@@Z@4HA DD imagerel ?dtor$0@?0???0?$basic_string@DU?$char_traits@D@std@@V?$allocator@D@2@@std@@QEAA@$$QEAV01@@Z@4HA
	DD	imagerel ?dtor$0@?0???0?$basic_string@DU?$char_traits@D@std@@V?$allocator@D@2@@std@@QEAA@$$QEAV01@@Z@4HA+35
	DD	imagerel $unwind$?dtor$0@?0???0?$basic_string@DU?$char_traits@D@std@@V?$allocator@D@2@@std@@QEAA@$$QEAV01@@Z@4HA
pdata	ENDS
;	COMDAT pdata
pdata	SEGMENT
$pdata$?_Memcpy_val_from@?$basic_string@DU?$char_traits@D@std@@V?$allocator@D@2@@std@@AEAAXAEBV12@@Z DD imagerel $LN3
	DD	imagerel $LN3+109
	DD	imagerel $unwind$?_Memcpy_val_from@?$basic_string@DU?$char_traits@D@std@@V?$allocator@D@2@@std@@AEAAXAEBV12@@Z
pdata	ENDS
;	COMDAT pdata
pdata	SEGMENT
$pdata$?_Take_contents@?$basic_string@DU?$char_traits@D@std@@V?$allocator@D@2@@std@@AEAAXAEAV12@U?$integral_constant@_N$00@2@@Z DD imagerel $LN5
	DD	imagerel $LN5+126
	DD	imagerel $unwind$?_Take_contents@?$basic_string@DU?$char_traits@D@std@@V?$allocator@D@2@@std@@AEAAXAEAV12@U?$integral_constant@_N$00@2@@Z
pdata	ENDS
;	COMDAT pdata
pdata	SEGMENT
$pdata$??1?$basic_string@DU?$char_traits@D@std@@V?$allocator@D@2@@std@@QEAA@XZ DD imagerel $LN4
	DD	imagerel $LN4+153
	DD	imagerel $unwind$??1?$basic_string@DU?$char_traits@D@std@@V?$allocator@D@2@@std@@QEAA@XZ
pdata	ENDS
;	COMDAT pdata
pdata	SEGMENT
$pdata$?dtor$0@?0???1?$basic_string@DU?$char_traits@D@std@@V?$allocator@D@2@@std@@QEAA@XZ@4HA DD imagerel ?dtor$0@?0???1?$basic_string@DU?$char_traits@D@std@@V?$allocator@D@2@@std@@QEAA@XZ@4HA
	DD	imagerel ?dtor$0@?0???1?$basic_string@DU?$char_traits@D@std@@V?$allocator@D@2@@std@@QEAA@XZ@4HA+35
	DD	imagerel $unwind$?dtor$0@?0???1?$basic_string@DU?$char_traits@D@std@@V?$allocator@D@2@@std@@QEAA@XZ@4HA
pdata	ENDS
;	COMDAT pdata
pdata	SEGMENT
$pdata$??Y?$basic_string@DU?$char_traits@D@std@@V?$allocator@D@2@@std@@QEAAAEAV01@AEBV01@@Z DD imagerel $LN3
	DD	imagerel $LN3+56
	DD	imagerel $unwind$??Y?$basic_string@DU?$char_traits@D@std@@V?$allocator@D@2@@std@@QEAAAEAV01@AEBV01@@Z
pdata	ENDS
;	COMDAT pdata
pdata	SEGMENT
$pdata$?append@?$basic_string@DU?$char_traits@D@std@@V?$allocator@D@2@@std@@QEAAAEAV12@AEBV12@@Z DD imagerel $LN3
	DD	imagerel $LN3+76
	DD	imagerel $unwind$?append@?$basic_string@DU?$char_traits@D@std@@V?$allocator@D@2@@std@@QEAAAEAV12@AEBV12@@Z
pdata	ENDS
;	COMDAT pdata
pdata	SEGMENT
$pdata$?append@?$basic_string@DU?$char_traits@D@std@@V?$allocator@D@2@@std@@QEAAAEAV12@QEBD_K@Z DD imagerel $LN4
	DD	imagerel $LN4+270
	DD	imagerel $unwind$?append@?$basic_string@DU?$char_traits@D@std@@V?$allocator@D@2@@std@@QEAAAEAV12@QEBD_K@Z
pdata	ENDS
;	COMDAT pdata
pdata	SEGMENT
$pdata$?append@?$basic_string@DU?$char_traits@D@std@@V?$allocator@D@2@@std@@QEAAAEAV12@QEBD@Z DD imagerel $LN3
	DD	imagerel $LN3+77
	DD	imagerel $unwind$?append@?$basic_string@DU?$char_traits@D@std@@V?$allocator@D@2@@std@@QEAAAEAV12@QEBD@Z
pdata	ENDS
;	COMDAT pdata
pdata	SEGMENT
$pdata$?assign@?$basic_string@DU?$char_traits@D@std@@V?$allocator@D@2@@std@@QEAAAEAV12@QEBD_K@Z DD imagerel $LN4
	DD	imagerel $LN4+198
	DD	imagerel $unwind$?assign@?$basic_string@DU?$char_traits@D@std@@V?$allocator@D@2@@std@@QEAAAEAV12@QEBD_K@Z
pdata	ENDS
;	COMDAT pdata
pdata	SEGMENT
$pdata$?assign@?$basic_string@DU?$char_traits@D@std@@V?$allocator@D@2@@std@@QEAAAEAV12@QEBD@Z DD imagerel $LN3
	DD	imagerel $LN3+77
	DD	imagerel $unwind$?assign@?$basic_string@DU?$char_traits@D@std@@V?$allocator@D@2@@std@@QEAAAEAV12@QEBD@Z
pdata	ENDS
;	COMDAT pdata
pdata	SEGMENT
$pdata$?c_str@?$basic_string@DU?$char_traits@D@std@@V?$allocator@D@2@@std@@QEBAPEBDXZ DD imagerel $LN3
	DD	imagerel $LN3+50
	DD	imagerel $unwind$?c_str@?$basic_string@DU?$char_traits@D@std@@V?$allocator@D@2@@std@@QEBAPEBDXZ
pdata	ENDS
;	COMDAT pdata
pdata	SEGMENT
$pdata$?max_size@?$basic_string@DU?$char_traits@D@std@@V?$allocator@D@2@@std@@QEBA_KXZ DD imagerel $LN3
	DD	imagerel $LN3+153
	DD	imagerel $unwind$?max_size@?$basic_string@DU?$char_traits@D@std@@V?$allocator@D@2@@std@@QEBA_KXZ
pdata	ENDS
;	COMDAT pdata
pdata	SEGMENT
$pdata$?_Calculate_growth@?$basic_string@DU?$char_traits@D@std@@V?$allocator@D@2@@std@@CA_K_K00@Z DD imagerel $LN5
	DD	imagerel $LN5+189
	DD	imagerel $unwind$?_Calculate_growth@?$basic_string@DU?$char_traits@D@std@@V?$allocator@D@2@@std@@CA_K_K00@Z
pdata	ENDS
;	COMDAT pdata
pdata	SEGMENT
$pdata$?_Calculate_growth@?$basic_string@DU?$char_traits@D@std@@V?$allocator@D@2@@std@@AEBA_K_K@Z DD imagerel $LN3
	DD	imagerel $LN3+73
	DD	imagerel $unwind$?_Calculate_growth@?$basic_string@DU?$char_traits@D@std@@V?$allocator@D@2@@std@@AEBA_K_K@Z
pdata	ENDS
;	COMDAT pdata
pdata	SEGMENT
$pdata$?_Tidy_init@?$basic_string@DU?$char_traits@D@std@@V?$allocator@D@2@@std@@AEAAXXZ DD imagerel $LN3
	DD	imagerel $LN3+99
	DD	imagerel $unwind$?_Tidy_init@?$basic_string@DU?$char_traits@D@std@@V?$allocator@D@2@@std@@AEAAXXZ
pdata	ENDS
;	COMDAT pdata
pdata	SEGMENT
$pdata$?_Tidy_deallocate@?$basic_string@DU?$char_traits@D@std@@V?$allocator@D@2@@std@@AEAAXXZ DD imagerel $LN4
	DD	imagerel $LN4+214
	DD	imagerel $unwind$?_Tidy_deallocate@?$basic_string@DU?$char_traits@D@std@@V?$allocator@D@2@@std@@AEAAXXZ
pdata	ENDS
;	COMDAT pdata
pdata	SEGMENT
$pdata$?_Xlen@?$basic_string@DU?$char_traits@D@std@@V?$allocator@D@2@@std@@CAXXZ DD imagerel $LN3
	DD	imagerel $LN3+39
	DD	imagerel $unwind$?_Xlen@?$basic_string@DU?$char_traits@D@std@@V?$allocator@D@2@@std@@CAXXZ
pdata	ENDS
;	COMDAT pdata
pdata	SEGMENT
$pdata$?_Swap_proxy_and_iterators@?$basic_string@DU?$char_traits@D@std@@V?$allocator@D@2@@std@@AEAAXAEAV12@@Z DD imagerel $LN3
	DD	imagerel $LN3+59
	DD	imagerel $unwind$?_Swap_proxy_and_iterators@?$basic_string@DU?$char_traits@D@std@@V?$allocator@D@2@@std@@AEAAXAEAV12@@Z
pdata	ENDS
;	COMDAT pdata
pdata	SEGMENT
$pdata$?_Getal@?$basic_string@DU?$char_traits@D@std@@V?$allocator@D@2@@std@@AEAAAEAV?$allocator@D@2@XZ DD imagerel $LN3
	DD	imagerel $LN3+49
	DD	imagerel $unwind$?_Getal@?$basic_string@DU?$char_traits@D@std@@V?$allocator@D@2@@std@@AEAAAEAV?$allocator@D@2@XZ
pdata	ENDS
;	COMDAT pdata
pdata	SEGMENT
$pdata$?_Getal@?$basic_string@DU?$char_traits@D@std@@V?$allocator@D@2@@std@@AEBAAEBV?$allocator@D@2@XZ DD imagerel $LN3
	DD	imagerel $LN3+49
	DD	imagerel $unwind$?_Getal@?$basic_string@DU?$char_traits@D@std@@V?$allocator@D@2@@std@@AEBAAEBV?$allocator@D@2@XZ
pdata	ENDS
;	COMDAT pdata
pdata	SEGMENT
$pdata$?_Get_first@?$_Compressed_pair@V?$allocator@D@std@@V?$_String_val@U?$_Simple_types@D@std@@@2@$00@std@@QEAAAEAV?$allocator@D@2@XZ DD imagerel $LN3
	DD	imagerel $LN3+13
	DD	imagerel $unwind$?_Get_first@?$_Compressed_pair@V?$allocator@D@std@@V?$_String_val@U?$_Simple_types@D@std@@@2@$00@std@@QEAAAEAV?$allocator@D@2@XZ
pdata	ENDS
;	COMDAT pdata
pdata	SEGMENT
$pdata$?_Get_first@?$_Compressed_pair@V?$allocator@D@std@@V?$_String_val@U?$_Simple_types@D@std@@@2@$00@std@@QEBAAEBV?$allocator@D@2@XZ DD imagerel $LN3
	DD	imagerel $LN3+13
	DD	imagerel $unwind$?_Get_first@?$_Compressed_pair@V?$allocator@D@std@@V?$_String_val@U?$_Simple_types@D@std@@@2@$00@std@@QEBAAEBV?$allocator@D@2@XZ
pdata	ENDS
;	COMDAT pdata
pdata	SEGMENT
$pdata$??1?$_Compressed_pair@V?$allocator@D@std@@V?$_String_val@U?$_Simple_types@D@std@@@2@$00@std@@QEAA@XZ DD imagerel $LN4
	DD	imagerel $LN4+50
	DD	imagerel $unwind$??1?$_Compressed_pair@V?$allocator@D@std@@V?$_String_val@U?$_Simple_types@D@std@@@2@$00@std@@QEAA@XZ
pdata	ENDS
;	COMDAT pdata
pdata	SEGMENT
$pdata$?dtor$0@?0???1?$_Compressed_pair@V?$allocator@D@std@@V?$_String_val@U?$_Simple_types@D@std@@@2@$00@std@@QEAA@XZ@4HA DD imagerel ?dtor$0@?0???1?$_Compressed_pair@V?$allocator@D@std@@V?$_String_val@U?$_Simple_types@D@std@@@2@$00@std@@QEAA@XZ@4HA
	DD	imagerel ?dtor$0@?0???1?$_Compressed_pair@V?$allocator@D@std@@V?$_String_val@U?$_Simple_types@D@std@@@2@$00@std@@QEAA@XZ@4HA+35
	DD	imagerel $unwind$?dtor$0@?0???1?$_Compressed_pair@V?$allocator@D@std@@V?$_String_val@U?$_Simple_types@D@std@@@2@$00@std@@QEAA@XZ@4HA
pdata	ENDS
;	COMDAT pdata
pdata	SEGMENT
$pdata$??$make_array@W4CspMatrix@@W41@W41@W41@W41@W41@W41@W41@W41@W41@W41@W41@W41@W41@W41@@@YA?AV?$array@W4CspMatrix@@$0O@@std@@$$QEAW4CspMatrix@@0000000000000@Z DD imagerel $LN3
	DD	imagerel $LN3+297
	DD	imagerel $unwind$??$make_array@W4CspMatrix@@W41@W41@W41@W41@W41@W41@W41@W41@W41@W41@W41@W41@W41@W41@@@YA?AV?$array@W4CspMatrix@@$0O@@std@@$$QEAW4CspMatrix@@0000000000000@Z
pdata	ENDS
;	COMDAT pdata
pdata	SEGMENT
$pdata$??__ECspMatrixList@@YAXXZ DD imagerel ??__ECspMatrixList@@YAXXZ
	DD	imagerel ??__ECspMatrixList@@YAXXZ+452
	DD	imagerel $unwind$??__ECspMatrixList@@YAXXZ
pdata	ENDS
;	COMDAT pdata
pdata	SEGMENT
$pdata$??$make_array@W4CspTransfer@@W41@W41@W41@W41@W41@W41@W41@W41@W41@W41@W41@W41@W41@W41@W41@@@YA?AV?$array@W4CspTransfer@@$0P@@std@@$$QEAW4CspTransfer@@00000000000000@Z DD imagerel $LN3
	DD	imagerel $LN3+311
	DD	imagerel $unwind$??$make_array@W4CspTransfer@@W41@W41@W41@W41@W41@W41@W41@W41@W41@W41@W41@W41@W41@W41@W41@@@YA?AV?$array@W4CspTransfer@@$0P@@std@@$$QEAW4CspTransfer@@00000000000000@Z
pdata	ENDS
;	COMDAT pdata
pdata	SEGMENT
$pdata$??__ECspTransferList@@YAXXZ DD imagerel ??__ECspTransferList@@YAXXZ
	DD	imagerel ??__ECspTransferList@@YAXXZ+476
	DD	imagerel $unwind$??__ECspTransferList@@YAXXZ
pdata	ENDS
;	COMDAT pdata
pdata	SEGMENT
$pdata$??$make_array@W4CspColorprim@@W41@W41@W41@W41@W41@W41@W41@W41@W41@W41@W41@W41@@@YA?AV?$array@W4CspColorprim@@$0M@@std@@$$QEAW4CspColorprim@@00000000000@Z DD imagerel $LN3
	DD	imagerel $LN3+263
	DD	imagerel $unwind$??$make_array@W4CspColorprim@@W41@W41@W41@W41@W41@W41@W41@W41@W41@W41@W41@W41@@@YA?AV?$array@W4CspColorprim@@$0M@@std@@$$QEAW4CspColorprim@@00000000000@Z
pdata	ENDS
;	COMDAT pdata
pdata	SEGMENT
$pdata$??__ECspColorprimList@@YAXXZ DD imagerel ??__ECspColorprimList@@YAXXZ
	DD	imagerel ??__ECspColorprimList@@YAXXZ+398
	DD	imagerel $unwind$??__ECspColorprimList@@YAXXZ
pdata	ENDS
;	COMDAT pdata
pdata	SEGMENT
$pdata$??$?HDU?$char_traits@D@std@@V?$allocator@D@1@@std@@YA?AV?$basic_string@DU?$char_traits@D@std@@V?$allocator@D@2@@0@$$QEAV10@QEBD@Z DD imagerel $LN5
	DD	imagerel $LN5+108
	DD	imagerel $unwind$??$?HDU?$char_traits@D@std@@V?$allocator@D@1@@std@@YA?AV?$basic_string@DU?$char_traits@D@std@@V?$allocator@D@2@@0@$$QEAV10@QEBD@Z
pdata	ENDS
;	COMDAT pdata
pdata	SEGMENT
$pdata$?dtor$0@?0???$?HDU?$char_traits@D@std@@V?$allocator@D@1@@std@@YA?AV?$basic_string@DU?$char_traits@D@std@@V?$allocator@D@2@@0@$$QEAV10@QEBD@Z@4HA DD imagerel ?dtor$0@?0???$?HDU?$char_traits@D@std@@V?$allocator@D@1@@std@@YA?AV?$basic_string@DU?$char_traits@D@std@@V?$allocator@D@2@@0@$$QEAV10@QEBD@Z@4HA
	DD	imagerel ?dtor$0@?0???$?HDU?$char_traits@D@std@@V?$allocator@D@1@@std@@YA?AV?$basic_string@DU?$char_traits@D@std@@V?$allocator@D@2@@0@$$QEAV10@QEBD@Z@4HA+49
	DD	imagerel $unwind$?dtor$0@?0???$?HDU?$char_traits@D@std@@V?$allocator@D@1@@std@@YA?AV?$basic_string@DU?$char_traits@D@std@@V?$allocator@D@2@@0@$$QEAV10@QEBD@Z@4HA
pdata	ENDS
;	COMDAT pdata
pdata	SEGMENT
$pdata$?_Unchecked_begin@?$vector@PEBDV?$allocator@PEBD@std@@@std@@QEBAPEBQEBDXZ DD imagerel $LN3
	DD	imagerel $LN3+17
	DD	imagerel $unwind$?_Unchecked_begin@?$vector@PEBDV?$allocator@PEBD@std@@@std@@QEBAPEBQEBDXZ
pdata	ENDS
;	COMDAT pdata
pdata	SEGMENT
$pdata$?_Unchecked_end@?$vector@PEBDV?$allocator@PEBD@std@@@std@@QEBAPEBQEBDXZ DD imagerel $LN3
	DD	imagerel $LN3+17
	DD	imagerel $unwind$?_Unchecked_end@?$vector@PEBDV?$allocator@PEBD@std@@@std@@QEBAPEBQEBDXZ
pdata	ENDS
;	COMDAT pdata
pdata	SEGMENT
$pdata$??$move@AEAV?$basic_string@DU?$char_traits@D@std@@V?$allocator@D@2@@std@@@std@@YA$$QEAV?$basic_string@DU?$char_traits@D@std@@V?$allocator@D@2@@0@AEAV10@@Z DD imagerel $LN3
	DD	imagerel $LN3+13
	DD	imagerel $unwind$??$move@AEAV?$basic_string@DU?$char_traits@D@std@@V?$allocator@D@2@@std@@@std@@YA$$QEAV?$basic_string@DU?$char_traits@D@std@@V?$allocator@D@2@@0@AEAV10@@Z
pdata	ENDS
;	COMDAT pdata
pdata	SEGMENT
$pdata$??$_Min_value@_K@std@@YAAEB_KAEB_K0@Z DD imagerel $LN5
	DD	imagerel $LN5+94
	DD	imagerel $unwind$??$_Min_value@_K@std@@YAAEB_KAEB_K0@Z
pdata	ENDS
;	COMDAT pdata
pdata	SEGMENT
$pdata$?allocate@?$allocator@U_Container_proxy@std@@@std@@QEAAPEAU_Container_proxy@2@_K@Z DD imagerel $LN3
	DD	imagerel $LN3+59
	DD	imagerel $unwind$?allocate@?$allocator@U_Container_proxy@std@@@std@@QEAAPEAU_Container_proxy@2@_K@Z
pdata	ENDS
;	COMDAT pdata
pdata	SEGMENT
$pdata$??$_Delete_plain_internal@V?$allocator@U_Container_proxy@std@@@std@@@std@@YAXAEAV?$allocator@U_Container_proxy@std@@@0@QEAU_Container_proxy@0@@Z DD imagerel $LN3
	DD	imagerel $LN3+56
	DD	imagerel $unwind$??$_Delete_plain_internal@V?$allocator@U_Container_proxy@std@@@std@@@std@@YAXAEAV?$allocator@U_Container_proxy@std@@@0@QEAU_Container_proxy@0@@Z
pdata	ENDS
;	COMDAT pdata
pdata	SEGMENT
$pdata$??0?$_Container_proxy_ptr12@V?$allocator@U_Container_proxy@std@@@std@@@std@@QEAA@AEAV?$allocator@U_Container_proxy@std@@@1@AEAU_Container_base12@1@@Z DD imagerel $LN3
	DD	imagerel $LN3+145
	DD	imagerel $unwind$??0?$_Container_proxy_ptr12@V?$allocator@U_Container_proxy@std@@@std@@@std@@QEAA@AEAV?$allocator@U_Container_proxy@std@@@1@AEAU_Container_base12@1@@Z
pdata	ENDS
;	COMDAT pdata
pdata	SEGMENT
$pdata$??1?$_Container_proxy_ptr12@V?$allocator@U_Container_proxy@std@@@std@@@std@@QEAA@XZ DD imagerel $LN4
	DD	imagerel $LN4+69
	DD	imagerel $unwind$??1?$_Container_proxy_ptr12@V?$allocator@U_Container_proxy@std@@@std@@@std@@QEAA@XZ
pdata	ENDS
;	COMDAT pdata
pdata	SEGMENT
$pdata$??$_Alloc_proxy@V?$allocator@U_Container_proxy@std@@@std@@@_Container_base12@std@@QEAAX$$QEAV?$allocator@U_Container_proxy@std@@@1@@Z DD imagerel $LN3
	DD	imagerel $LN3+120
	DD	imagerel $unwind$??$_Alloc_proxy@V?$allocator@U_Container_proxy@std@@@std@@@_Container_base12@std@@QEAAX$$QEAV?$allocator@U_Container_proxy@std@@@1@@Z
pdata	ENDS
;	COMDAT pdata
pdata	SEGMENT
$pdata$??$_Unfancy@D@std@@YAPEADPEAD@Z DD imagerel $LN3
	DD	imagerel $LN3+13
	DD	imagerel $unwind$??$_Unfancy@D@std@@YAPEADPEAD@Z
pdata	ENDS
;	COMDAT pdata
pdata	SEGMENT
$pdata$??$addressof@V?$_String_val@U?$_Simple_types@D@std@@@std@@@std@@YAPEAV?$_String_val@U?$_Simple_types@D@std@@@0@AEAV10@@Z DD imagerel $LN3
	DD	imagerel $LN3+13
	DD	imagerel $unwind$??$addressof@V?$_String_val@U?$_Simple_types@D@std@@@std@@@std@@YAPEAV?$_String_val@U?$_Simple_types@D@std@@@0@AEAV10@@Z
pdata	ENDS
;	COMDAT pdata
pdata	SEGMENT
$pdata$??$?0D@?$allocator@U_Container_proxy@std@@@std@@QEAA@AEBV?$allocator@D@1@@Z DD imagerel $LN3
	DD	imagerel $LN3+18
	DD	imagerel $unwind$??$?0D@?$allocator@U_Container_proxy@std@@@std@@QEAA@AEBV?$allocator@D@1@@Z
pdata	ENDS
;	COMDAT pdata
pdata	SEGMENT
$pdata$??$move@AEAV?$allocator@D@std@@@std@@YA$$QEAV?$allocator@D@0@AEAV10@@Z DD imagerel $LN3
	DD	imagerel $LN3+13
	DD	imagerel $unwind$??$move@AEAV?$allocator@D@std@@@std@@YA$$QEAV?$allocator@D@0@AEAV10@@Z
pdata	ENDS
;	COMDAT pdata
pdata	SEGMENT
$pdata$??$?0V?$allocator@D@std@@$$V@?$_Compressed_pair@V?$allocator@D@std@@V?$_String_val@U?$_Simple_types@D@std@@@2@$00@std@@QEAA@U_One_then_variadic_args_t@1@$$QEAV?$allocator@D@1@@Z DD imagerel $LN4
	DD	imagerel $LN4+74
	DD	imagerel $unwind$??$?0V?$allocator@D@std@@$$V@?$_Compressed_pair@V?$allocator@D@std@@V?$_String_val@U?$_Simple_types@D@std@@@2@$00@std@@QEAA@U_One_then_variadic_args_t@1@$$QEAV?$allocator@D@1@@Z
pdata	ENDS
;	COMDAT pdata
pdata	SEGMENT
$pdata$?dtor$0@?0???$?0V?$allocator@D@std@@$$V@?$_Compressed_pair@V?$allocator@D@std@@V?$_String_val@U?$_Simple_types@D@std@@@2@$00@std@@QEAA@U_One_then_variadic_args_t@1@$$QEAV?$allocator@D@1@@Z@4HA DD imagerel ?dtor$0@?0???$?0V?$allocator@D@std@@$$V@?$_Compressed_pair@V?$allocator@D@std@@V?$_String_val@U?$_Simple_types@D@std@@@2@$00@std@@QEAA@U_One_then_variadic_args_t@1@$$QEAV?$allocator@D@1@@Z@4HA
	DD	imagerel ?dtor$0@?0???$?0V?$allocator@D@std@@$$V@?$_Compressed_pair@V?$allocator@D@std@@V?$_String_val@U?$_Simple_types@D@std@@@2@$00@std@@QEAA@U_One_then_variadic_args_t@1@$$QEAV?$allocator@D@1@@Z@4HA+35
	DD	imagerel $unwind$?dtor$0@?0???$?0V?$allocator@D@std@@$$V@?$_Compressed_pair@V?$allocator@D@std@@V?$_String_val@U?$_Simple_types@D@std@@@2@$00@std@@QEAA@U_One_then_variadic_args_t@1@$$QEAV?$allocator@D@1@@Z@4HA
pdata	ENDS
;	COMDAT pdata
pdata	SEGMENT
$pdata$??$?0$$V@?$_Compressed_pair@V?$allocator@D@std@@V?$_String_val@U?$_Simple_types@D@std@@@2@$00@std@@QEAA@U_Zero_then_variadic_args_t@1@@Z DD imagerel $LN4
	DD	imagerel $LN4+69
	DD	imagerel $unwind$??$?0$$V@?$_Compressed_pair@V?$allocator@D@std@@V?$_String_val@U?$_Simple_types@D@std@@@2@$00@std@@QEAA@U_Zero_then_variadic_args_t@1@@Z
pdata	ENDS
;	COMDAT pdata
pdata	SEGMENT
$pdata$?dtor$0@?0???$?0$$V@?$_Compressed_pair@V?$allocator@D@std@@V?$_String_val@U?$_Simple_types@D@std@@@2@$00@std@@QEAA@U_Zero_then_variadic_args_t@1@@Z@4HA DD imagerel ?dtor$0@?0???$?0$$V@?$_Compressed_pair@V?$allocator@D@std@@V?$_String_val@U?$_Simple_types@D@std@@@2@$00@std@@QEAA@U_Zero_then_variadic_args_t@1@@Z@4HA
	DD	imagerel ?dtor$0@?0???$?0$$V@?$_Compressed_pair@V?$allocator@D@std@@V?$_String_val@U?$_Simple_types@D@std@@@2@$00@std@@QEAA@U_Zero_then_variadic_args_t@1@@Z@4HA+35
	DD	imagerel $unwind$?dtor$0@?0???$?0$$V@?$_Compressed_pair@V?$allocator@D@std@@V?$_String_val@U?$_Simple_types@D@std@@@2@$00@std@@QEAA@U_Zero_then_variadic_args_t@1@@Z@4HA
pdata	ENDS
;	COMDAT pdata
pdata	SEGMENT
$pdata$??$_Unfancy@U_Container_proxy@std@@@std@@YAPEAU_Container_proxy@0@PEAU10@@Z DD imagerel $LN3
	DD	imagerel $LN3+13
	DD	imagerel $unwind$??$_Unfancy@U_Container_proxy@std@@@std@@YAPEAU_Container_proxy@0@PEAU10@@Z
pdata	ENDS
;	COMDAT pdata
pdata	SEGMENT
$pdata$??$addressof@U_Container_base12@std@@@std@@YAPEAU_Container_base12@0@AEAU10@@Z DD imagerel $LN3
	DD	imagerel $LN3+13
	DD	imagerel $unwind$??$addressof@U_Container_base12@std@@@std@@YAPEAU_Container_base12@0@AEAU10@@Z
pdata	ENDS
;	COMDAT pdata
pdata	SEGMENT
$pdata$??$_Construct_in_place@U_Container_proxy@std@@PEAU_Container_base12@2@@std@@YAXAEAU_Container_proxy@0@$$QEAPEAU_Container_base12@0@@Z DD imagerel $LN3
	DD	imagerel $LN3+92
	DD	imagerel $unwind$??$_Construct_in_place@U_Container_proxy@std@@PEAU_Container_base12@2@@std@@YAXAEAU_Container_proxy@0@$$QEAPEAU_Container_base12@0@@Z
pdata	ENDS
;	COMDAT pdata
pdata	SEGMENT
$pdata$??$_Destroy_in_place@PEAD@std@@YAXAEAPEAD@Z DD imagerel $LN3
	DD	imagerel $LN3+8
	DD	imagerel $unwind$??$_Destroy_in_place@PEAD@std@@YAXAEAPEAD@Z
pdata	ENDS
;	COMDAT pdata
pdata	SEGMENT
$pdata$??$_Max_value@_K@std@@YAAEB_KAEB_K0@Z DD imagerel $LN5
	DD	imagerel $LN5+94
	DD	imagerel $unwind$??$_Max_value@_K@std@@YAAEB_KAEB_K0@Z
pdata	ENDS
;	COMDAT pdata
pdata	SEGMENT
$pdata$??$addressof@$$CBV?$_String_val@U?$_Simple_types@D@std@@@std@@@std@@YAPEBV?$_String_val@U?$_Simple_types@D@std@@@0@AEBV10@@Z DD imagerel $LN3
	DD	imagerel $LN3+13
	DD	imagerel $unwind$??$addressof@$$CBV?$_String_val@U?$_Simple_types@D@std@@@std@@@std@@YAPEBV?$_String_val@U?$_Simple_types@D@std@@@0@AEBV10@@Z
pdata	ENDS
;	COMDAT pdata
pdata	SEGMENT
$pdata$??R<lambda_66f57f934f28d61049862f64df852ff0>@@QEBAXQEAD_KQEBD@Z DD imagerel $LN3
	DD	imagerel $LN3+105
	DD	imagerel $unwind$??R<lambda_66f57f934f28d61049862f64df852ff0>@@QEBAXQEAD_KQEBD@Z
pdata	ENDS
;	COMDAT pdata
pdata	SEGMENT
$pdata$??$_Reallocate_for@V<lambda_66f57f934f28d61049862f64df852ff0>@@PEBD@?$basic_string@DU?$char_traits@D@std@@V?$allocator@D@2@@std@@AEAAAEAV01@_KV<lambda_66f57f934f28d61049862f64df852ff0>@@PEBD@Z DD imagerel $LN6
	DD	imagerel $LN6+330
	DD	imagerel $unwind$??$_Reallocate_for@V<lambda_66f57f934f28d61049862f64df852ff0>@@PEBD@?$basic_string@DU?$char_traits@D@std@@V?$allocator@D@2@@std@@AEAAAEAV01@_KV<lambda_66f57f934f28d61049862f64df852ff0>@@PEBD@Z
pdata	ENDS
;	COMDAT pdata
pdata	SEGMENT
$pdata$??R<lambda_65e615be2a453ca0576c979606f46740>@@QEBAXQEADQEBD_K12@Z DD imagerel $LN3
	DD	imagerel $LN3+150
	DD	imagerel $unwind$??R<lambda_65e615be2a453ca0576c979606f46740>@@QEBAXQEADQEBD_K12@Z
pdata	ENDS
;	COMDAT pdata
pdata	SEGMENT
$pdata$??$_Reallocate_grow_by@V<lambda_65e615be2a453ca0576c979606f46740>@@PEBD_K@?$basic_string@DU?$char_traits@D@std@@V?$allocator@D@2@@std@@AEAAAEAV01@_KV<lambda_65e615be2a453ca0576c979606f46740>@@PEBD_K@Z DD imagerel $LN6
	DD	imagerel $LN6+525
	DD	imagerel $unwind$??$_Reallocate_grow_by@V<lambda_65e615be2a453ca0576c979606f46740>@@PEBD_K@?$basic_string@DU?$char_traits@D@std@@V?$allocator@D@2@@std@@AEAAAEAV01@_KV<lambda_65e615be2a453ca0576c979606f46740>@@PEBD_K@Z
pdata	ENDS
;	COMDAT pdata
pdata	SEGMENT
$pdata$??$_Construct_in_place@PEADAEBQEAD@std@@YAXAEAPEADAEBQEAD@Z DD imagerel $LN3
	DD	imagerel $LN3+90
	DD	imagerel $unwind$??$_Construct_in_place@PEADAEBQEAD@std@@YAXAEAPEADAEBQEAD@Z
pdata	ENDS
;	COMDAT pdata
pdata	SEGMENT
$pdata$??$_Get_size_of_n@$00@std@@YA_K_K@Z DD imagerel $LN3
	DD	imagerel $LN3+45
	DD	imagerel $unwind$??$_Get_size_of_n@$00@std@@YA_K_K@Z
pdata	ENDS
;	COMDAT pdata
pdata	SEGMENT
$pdata$??$_Allocate@$0BA@U_Default_allocate_traits@std@@$0A@@std@@YAPEAX_K@Z DD imagerel $LN5
	DD	imagerel $LN5+81
	DD	imagerel $unwind$??$_Allocate@$0BA@U_Default_allocate_traits@std@@$0A@@std@@YAPEAX_K@Z
pdata	ENDS
;	COMDAT pdata
pdata	SEGMENT
$pdata$??$_Deallocate@$0BA@$0A@@std@@YAXPEAX_K@Z DD imagerel $LN4
	DD	imagerel $LN4+84
	DD	imagerel $unwind$??$_Deallocate@$0BA@$0A@@std@@YAXPEAX_K@Z
pdata	ENDS
;	COMDAT pdata
pdata	SEGMENT
$pdata$??$_Get_size_of_n@$0BA@@std@@YA_K_K@Z DD imagerel $LN4
	DD	imagerel $LN4+84
	DD	imagerel $unwind$??$_Get_size_of_n@$0BA@@std@@YA_K_K@Z
pdata	ENDS
;	COMDAT pdata
pdata	SEGMENT
$pdata$??$_Deallocate_plain@V?$allocator@U_Container_proxy@std@@@std@@@std@@YAXAEAV?$allocator@U_Container_proxy@std@@@0@QEAU_Container_proxy@0@@Z DD imagerel $LN3
	DD	imagerel $LN3+63
	DD	imagerel $unwind$??$_Deallocate_plain@V?$allocator@U_Container_proxy@std@@@std@@@std@@YAXAEAV?$allocator@U_Container_proxy@std@@@0@QEAU_Container_proxy@0@@Z
pdata	ENDS
;	COMDAT pdata
pdata	SEGMENT
$pdata$??$forward@V?$allocator@D@std@@@std@@YA$$QEAV?$allocator@D@0@AEAV10@@Z DD imagerel $LN3
	DD	imagerel $LN3+13
	DD	imagerel $unwind$??$forward@V?$allocator@D@std@@@std@@YA$$QEAV?$allocator@D@0@AEAV10@@Z
pdata	ENDS
;	COMDAT pdata
pdata	SEGMENT
$pdata$??$addressof@U_Container_proxy@std@@@std@@YAPEAU_Container_proxy@0@AEAU10@@Z DD imagerel $LN3
	DD	imagerel $LN3+13
	DD	imagerel $unwind$??$addressof@U_Container_proxy@std@@@std@@YAPEAU_Container_proxy@0@AEAU10@@Z
pdata	ENDS
;	COMDAT pdata
pdata	SEGMENT
$pdata$??$forward@PEAU_Container_base12@std@@@std@@YA$$QEAPEAU_Container_base12@0@AEAPEAU10@@Z DD imagerel $LN3
	DD	imagerel $LN3+13
	DD	imagerel $unwind$??$forward@PEAU_Container_base12@std@@@std@@YA$$QEAPEAU_Container_base12@0@AEAPEAU10@@Z
pdata	ENDS
;	COMDAT pdata
pdata	SEGMENT
$pdata$??$addressof@PEAD@std@@YAPEAPEADAEAPEAD@Z DD imagerel $LN3
	DD	imagerel $LN3+13
	DD	imagerel $unwind$??$addressof@PEAD@std@@YAPEAPEADAEAPEAD@Z
pdata	ENDS
;	COMDAT pdata
pdata	SEGMENT
$pdata$??$forward@AEBQEAD@std@@YAAEBQEADAEBQEAD@Z DD imagerel $LN3
	DD	imagerel $LN3+13
	DD	imagerel $unwind$??$forward@AEBQEAD@std@@YAAEBQEADAEBQEAD@Z
pdata	ENDS
;	COMDAT pdata
pdata	SEGMENT
$pdata$??$_Allocate_manually_vector_aligned@U_Default_allocate_traits@std@@@std@@YAPEAX_K@Z DD imagerel $LN13
	DD	imagerel $LN13+279
	DD	imagerel $unwind$??$_Allocate_manually_vector_aligned@U_Default_allocate_traits@std@@@std@@YAPEAX_K@Z
pdata	ENDS
;	COMDAT pdata
pdata	SEGMENT
$pdata$?deallocate@?$_Default_allocator_traits@V?$allocator@U_Container_proxy@std@@@std@@@std@@SAXAEAV?$allocator@U_Container_proxy@std@@@2@QEAU_Container_proxy@2@_K@Z DD imagerel $LN3
	DD	imagerel $LN3+65
	DD	imagerel $unwind$?deallocate@?$_Default_allocator_traits@V?$allocator@U_Container_proxy@std@@@std@@@std@@SAXAEAV?$allocator@U_Container_proxy@std@@@2@QEAU_Container_proxy@2@_K@Z
pdata	ENDS
CRT$XCU	SEGMENT
?CspMatrixList$initializer$@@3P6AXXZEA DQ FLAT:??__ECspMatrixList@@YAXXZ ; CspMatrixList$initializer$
CRT$XCU	ENDS
;	COMDAT rtc$TMZ
rtc$TMZ	SEGMENT
_RTC_Shutdown.rtc$TMZ DQ FLAT:_RTC_Shutdown
rtc$TMZ	ENDS
;	COMDAT rtc$IMZ
rtc$IMZ	SEGMENT
_RTC_InitBase.rtc$IMZ DQ FLAT:_RTC_InitBase
rtc$IMZ	ENDS
;	COMDAT ??_R1A@?0A@EA@RGYPipeProcessWin@@8
rdata$r	SEGMENT
??_R1A@?0A@EA@RGYPipeProcessWin@@8 DD imagerel ??_R0?AVRGYPipeProcessWin@@@8 ; RGYPipeProcessWin::`RTTI Base Class Descriptor at (0,-1,0,64)'
	DD	01H
	DD	00H
	DD	0ffffffffH
	DD	00H
	DD	040H
	DD	imagerel ??_R3RGYPipeProcessWin@@8
rdata$r	ENDS
;	COMDAT ??_R2RGYPipeProcessWin@@8
rdata$r	SEGMENT
??_R2RGYPipeProcessWin@@8 DD imagerel ??_R1A@?0A@EA@RGYPipeProcessWin@@8 ; RGYPipeProcessWin::`RTTI Base Class Array'
	DD	imagerel ??_R1A@?0A@EA@RGYPipeProcess@@8
	ORG $+3
rdata$r	ENDS
;	COMDAT ??_R3RGYPipeProcessWin@@8
rdata$r	SEGMENT
??_R3RGYPipeProcessWin@@8 DD 00H			; RGYPipeProcessWin::`RTTI Class Hierarchy Descriptor'
	DD	00H
	DD	02H
	DD	imagerel ??_R2RGYPipeProcessWin@@8
rdata$r	ENDS
;	COMDAT ??_R0?AVRGYPipeProcessWin@@@8
data$r	SEGMENT
??_R0?AVRGYPipeProcessWin@@@8 DQ FLAT:??_7type_info@@6B@ ; RGYPipeProcessWin `RTTI Type Descriptor'
	DQ	0000000000000000H
	DB	'.?AVRGYPipeProcessWin@@', 00H
data$r	ENDS
;	COMDAT ??_R4RGYPipeProcessWin@@6B@
rdata$r	SEGMENT
??_R4RGYPipeProcessWin@@6B@ DD 01H			; RGYPipeProcessWin::`RTTI Complete Object Locator'
	DD	00H
	DD	00H
	DD	imagerel ??_R0?AVRGYPipeProcessWin@@@8
	DD	imagerel ??_R3RGYPipeProcessWin@@8
	DD	imagerel ??_R4RGYPipeProcessWin@@6B@
rdata$r	ENDS
;	COMDAT ??_R1A@?0A@EA@RGYPipeProcess@@8
rdata$r	SEGMENT
??_R1A@?0A@EA@RGYPipeProcess@@8 DD imagerel ??_R0?AVRGYPipeProcess@@@8 ; RGYPipeProcess::`RTTI Base Class Descriptor at (0,-1,0,64)'
	DD	00H
	DD	00H
	DD	0ffffffffH
	DD	00H
	DD	040H
	DD	imagerel ??_R3RGYPipeProcess@@8
rdata$r	ENDS
;	COMDAT ??_R2RGYPipeProcess@@8
rdata$r	SEGMENT
??_R2RGYPipeProcess@@8 DD imagerel ??_R1A@?0A@EA@RGYPipeProcess@@8 ; RGYPipeProcess::`RTTI Base Class Array'
	ORG $+3
rdata$r	ENDS
;	COMDAT ??_R3RGYPipeProcess@@8
rdata$r	SEGMENT
??_R3RGYPipeProcess@@8 DD 00H				; RGYPipeProcess::`RTTI Class Hierarchy Descriptor'
	DD	00H
	DD	01H
	DD	imagerel ??_R2RGYPipeProcess@@8
rdata$r	ENDS
;	COMDAT ??_R0?AVRGYPipeProcess@@@8
data$r	SEGMENT
??_R0?AVRGYPipeProcess@@@8 DQ FLAT:??_7type_info@@6B@	; RGYPipeProcess `RTTI Type Descriptor'
	DQ	0000000000000000H
	DB	'.?AVRGYPipeProcess@@', 00H
data$r	ENDS
;	COMDAT ??_R4RGYPipeProcess@@6B@
rdata$r	SEGMENT
??_R4RGYPipeProcess@@6B@ DD 01H				; RGYPipeProcess::`RTTI Complete Object Locator'
	DD	00H
	DD	00H
	DD	imagerel ??_R0?AVRGYPipeProcess@@@8
	DD	imagerel ??_R3RGYPipeProcess@@8
	DD	imagerel ??_R4RGYPipeProcess@@6B@
rdata$r	ENDS
;	COMDAT ??_R1A@?0A@EA@bad_array_new_length@std@@8
rdata$r	SEGMENT
??_R1A@?0A@EA@bad_array_new_length@std@@8 DD imagerel ??_R0?AVbad_array_new_length@std@@@8 ; std::bad_array_new_length::`RTTI Base Class Descriptor at (0,-1,0,64)'
	DD	02H
	DD	00H
	DD	0ffffffffH
	DD	00H
	DD	040H
	DD	imagerel ??_R3bad_array_new_length@std@@8
rdata$r	ENDS
;	COMDAT ??_R2bad_array_new_length@std@@8
rdata$r	SEGMENT
??_R2bad_array_new_length@std@@8 DD imagerel ??_R1A@?0A@EA@bad_array_new_length@std@@8 ; std::bad_array_new_length::`RTTI Base Class Array'
	DD	imagerel ??_R1A@?0A@EA@bad_alloc@std@@8
	DD	imagerel ??_R1A@?0A@EA@exception@std@@8
	ORG $+3
rdata$r	ENDS
;	COMDAT ??_R3bad_array_new_length@std@@8
rdata$r	SEGMENT
??_R3bad_array_new_length@std@@8 DD 00H			; std::bad_array_new_length::`RTTI Class Hierarchy Descriptor'
	DD	00H
	DD	03H
	DD	imagerel ??_R2bad_array_new_length@std@@8
rdata$r	ENDS
;	COMDAT ??_R4bad_array_new_length@std@@6B@
rdata$r	SEGMENT
??_R4bad_array_new_length@std@@6B@ DD 01H		; std::bad_array_new_length::`RTTI Complete Object Locator'
	DD	00H
	DD	00H
	DD	imagerel ??_R0?AVbad_array_new_length@std@@@8
	DD	imagerel ??_R3bad_array_new_length@std@@8
	DD	imagerel ??_R4bad_array_new_length@std@@6B@
rdata$r	ENDS
;	COMDAT ??_R1A@?0A@EA@bad_alloc@std@@8
rdata$r	SEGMENT
??_R1A@?0A@EA@bad_alloc@std@@8 DD imagerel ??_R0?AVbad_alloc@std@@@8 ; std::bad_alloc::`RTTI Base Class Descriptor at (0,-1,0,64)'
	DD	01H
	DD	00H
	DD	0ffffffffH
	DD	00H
	DD	040H
	DD	imagerel ??_R3bad_alloc@std@@8
rdata$r	ENDS
;	COMDAT ??_R2bad_alloc@std@@8
rdata$r	SEGMENT
??_R2bad_alloc@std@@8 DD imagerel ??_R1A@?0A@EA@bad_alloc@std@@8 ; std::bad_alloc::`RTTI Base Class Array'
	DD	imagerel ??_R1A@?0A@EA@exception@std@@8
	ORG $+3
rdata$r	ENDS
;	COMDAT ??_R3bad_alloc@std@@8
rdata$r	SEGMENT
??_R3bad_alloc@std@@8 DD 00H				; std::bad_alloc::`RTTI Class Hierarchy Descriptor'
	DD	00H
	DD	02H
	DD	imagerel ??_R2bad_alloc@std@@8
rdata$r	ENDS
;	COMDAT ??_R4bad_alloc@std@@6B@
rdata$r	SEGMENT
??_R4bad_alloc@std@@6B@ DD 01H				; std::bad_alloc::`RTTI Complete Object Locator'
	DD	00H
	DD	00H
	DD	imagerel ??_R0?AVbad_alloc@std@@@8
	DD	imagerel ??_R3bad_alloc@std@@8
	DD	imagerel ??_R4bad_alloc@std@@6B@
rdata$r	ENDS
;	COMDAT ??_R1A@?0A@EA@exception@std@@8
rdata$r	SEGMENT
??_R1A@?0A@EA@exception@std@@8 DD imagerel ??_R0?AVexception@std@@@8 ; std::exception::`RTTI Base Class Descriptor at (0,-1,0,64)'
	DD	00H
	DD	00H
	DD	0ffffffffH
	DD	00H
	DD	040H
	DD	imagerel ??_R3exception@std@@8
rdata$r	ENDS
;	COMDAT ??_R2exception@std@@8
rdata$r	SEGMENT
??_R2exception@std@@8 DD imagerel ??_R1A@?0A@EA@exception@std@@8 ; std::exception::`RTTI Base Class Array'
	ORG $+3
rdata$r	ENDS
;	COMDAT ??_R3exception@std@@8
rdata$r	SEGMENT
??_R3exception@std@@8 DD 00H				; std::exception::`RTTI Class Hierarchy Descriptor'
	DD	00H
	DD	01H
	DD	imagerel ??_R2exception@std@@8
rdata$r	ENDS
;	COMDAT ??_R4exception@std@@6B@
rdata$r	SEGMENT
??_R4exception@std@@6B@ DD 01H				; std::exception::`RTTI Complete Object Locator'
	DD	00H
	DD	00H
	DD	imagerel ??_R0?AVexception@std@@@8
	DD	imagerel ??_R3exception@std@@8
	DD	imagerel ??_R4exception@std@@6B@
rdata$r	ENDS
;	COMDAT ??_C@_0BA@JFNIOLAK@string?5too?5long@
CONST	SEGMENT
??_C@_0BA@JFNIOLAK@string?5too?5long@ DB 'string too long', 00H ; `string'
CONST	ENDS
;	COMDAT ??_7RGYPipeProcessWin@@6B@
CONST	SEGMENT
??_7RGYPipeProcessWin@@6B@ DQ FLAT:??_R4RGYPipeProcessWin@@6B@ ; RGYPipeProcessWin::`vftable'
	DQ	FLAT:??_ERGYPipeProcessWin@@UEAAPEAXI@Z
	DQ	FLAT:?init@RGYPipeProcessWin@@UEAAXXZ
	DQ	FLAT:?run@RGYPipeProcessWin@@UEAAHAEBV?$vector@PEBDV?$allocator@PEBD@std@@@std@@PEBDPEAUProcessPipe@@I_N3@Z
	DQ	FLAT:?close@RGYPipeProcessWin@@UEAAXXZ
	DQ	FLAT:?processAlive@RGYPipeProcessWin@@UEAA_NXZ
	DQ	FLAT:?startPipes@RGYPipeProcessWin@@MEAAHPEAUProcessPipe@@@Z
CONST	ENDS
;	COMDAT ??_7RGYPipeProcess@@6B@
CONST	SEGMENT
??_7RGYPipeProcess@@6B@ DQ FLAT:??_R4RGYPipeProcess@@6B@ ; RGYPipeProcess::`vftable'
	DQ	FLAT:??_ERGYPipeProcess@@UEAAPEAXI@Z
	DQ	FLAT:_purecall
	DQ	FLAT:_purecall
	DQ	FLAT:_purecall
	DQ	FLAT:_purecall
	DQ	FLAT:_purecall
CONST	ENDS
;	COMDAT ??_C@_1CG@JNLFBNGN@?$AA?$CC?$AAi?$AAn?$AAv?$AAa?$AAl?$AAi?$AAd?$AA?5?$AAa?$AAr?$AAg?$AAu?$AAm?$AAe@
CONST	SEGMENT
??_C@_1CG@JNLFBNGN@?$AA?$CC?$AAi?$AAn?$AAv?$AAa?$AAl?$AAi?$AAd?$AA?5?$AAa?$AAr?$AAg?$AAu?$AAm?$AAe@ DB '"'
	DB	00H, 'i', 00H, 'n', 00H, 'v', 00H, 'a', 00H, 'l', 00H, 'i', 00H
	DB	'd', 00H, ' ', 00H, 'a', 00H, 'r', 00H, 'g', 00H, 'u', 00H, 'm'
	DB	00H, 'e', 00H, 'n', 00H, 't', 00H, '"', 00H, 00H, 00H ; `string'
CONST	ENDS
;	COMDAT ??_C@_1EK@NIFDJFDG@?$AAs?$AAt?$AAd?$AA?3?$AA?3?$AA_?$AAA?$AAd?$AAj?$AAu?$AAs?$AAt?$AA_?$AAm?$AAa@
CONST	SEGMENT
??_C@_1EK@NIFDJFDG@?$AAs?$AAt?$AAd?$AA?3?$AA?3?$AA_?$AAA?$AAd?$AAj?$AAu?$AAs?$AAt?$AA_?$AAm?$AAa@ DB 's'
	DB	00H, 't', 00H, 'd', 00H, ':', 00H, ':', 00H, '_', 00H, 'A', 00H
	DB	'd', 00H, 'j', 00H, 'u', 00H, 's', 00H, 't', 00H, '_', 00H, 'm'
	DB	00H, 'a', 00H, 'n', 00H, 'u', 00H, 'a', 00H, 'l', 00H, 'l', 00H
	DB	'y', 00H, '_', 00H, 'v', 00H, 'e', 00H, 'c', 00H, 't', 00H, 'o'
	DB	00H, 'r', 00H, '_', 00H, 'a', 00H, 'l', 00H, 'i', 00H, 'g', 00H
	DB	'n', 00H, 'e', 00H, 'd', 00H, 00H, 00H	; `string'
CONST	ENDS
;	COMDAT ??_C@_1NA@CDBIFGMM@?$AAC?$AA?3?$AA?2?$AAP?$AAr?$AAo?$AAg?$AAr?$AAa?$AAm?$AA?5?$AAF?$AAi?$AAl?$AAe@
CONST	SEGMENT
??_C@_1NA@CDBIFGMM@?$AAC?$AA?3?$AA?2?$AAP?$AAr?$AAo?$AAg?$AAr?$AAa?$AAm?$AA?5?$AAF?$AAi?$AAl?$AAe@ DB 'C'
	DB	00H, ':', 00H, '\', 00H, 'P', 00H, 'r', 00H, 'o', 00H, 'g', 00H
	DB	'r', 00H, 'a', 00H, 'm', 00H, ' ', 00H, 'F', 00H, 'i', 00H, 'l'
	DB	00H, 'e', 00H, 's', 00H, ' ', 00H, '(', 00H, 'x', 00H, '8', 00H
	DB	'6', 00H, ')', 00H, '\', 00H, 'M', 00H, 'i', 00H, 'c', 00H, 'r'
	DB	00H, 'o', 00H, 's', 00H, 'o', 00H, 'f', 00H, 't', 00H, ' ', 00H
	DB	'V', 00H, 'i', 00H, 's', 00H, 'u', 00H, 'a', 00H, 'l', 00H, ' '
	DB	00H, 'S', 00H, 't', 00H, 'u', 00H, 'd', 00H, 'i', 00H, 'o', 00H
	DB	'\', 00H, '2', 00H, '0', 00H, '1', 00H, '9', 00H, '\', 00H, 'C'
	DB	00H, 'o', 00H, 'm', 00H, 'm', 00H, 'u', 00H, 'n', 00H, 'i', 00H
	DB	't', 00H, 'y', 00H, '\', 00H, 'V', 00H, 'C', 00H, '\', 00H, 'T'
	DB	00H, 'o', 00H, 'o', 00H, 'l', 00H, 's', 00H, '\', 00H, 'M', 00H
	DB	'S', 00H, 'V', 00H, 'C', 00H, '\', 00H, '1', 00H, '4', 00H, '.'
	DB	00H, '2', 00H, '3', 00H, '.', 00H, '2', 00H, '8', 00H, '1', 00H
	DB	'0', 00H, '5', 00H, '\', 00H, 'i', 00H, 'n', 00H, 'c', 00H, 'l'
	DB	00H, 'u', 00H, 'd', 00H, 'e', 00H, '\', 00H, 'x', 00H, 'm', 00H
	DB	'e', 00H, 'm', 00H, 'o', 00H, 'r', 00H, 'y', 00H, 00H, 00H ; `string'
CONST	ENDS
;	COMDAT ??_C@_0GI@FJIKDGOA@C?3?2Program?5Files?5?$CIx86?$CJ?2Microsof@
CONST	SEGMENT
??_C@_0GI@FJIKDGOA@C?3?2Program?5Files?5?$CIx86?$CJ?2Microsof@ DB 'C:\Pro'
	DB	'gram Files (x86)\Microsoft Visual Studio\2019\Community\VC\To'
	DB	'ols\MSVC\14.23.28105\include\xmemory', 00H	; `string'
CONST	ENDS
;	COMDAT ??_C@_02DKCKIIND@?$CFs@
CONST	SEGMENT
??_C@_02DKCKIIND@?$CFs@ DB '%s', 00H			; `string'
CONST	ENDS
;	COMDAT ??_C@_0BB@FCMFBGOM@invalid?5argument@
CONST	SEGMENT
??_C@_0BB@FCMFBGOM@invalid?5argument@ DB 'invalid argument', 00H ; `string'
CONST	ENDS
;	COMDAT _CT??_R0?AVexception@std@@@8??0exception@std@@QEAA@AEBV01@@Z24
xdata$x	SEGMENT
_CT??_R0?AVexception@std@@@8??0exception@std@@QEAA@AEBV01@@Z24 DD 00H
	DD	imagerel ??_R0?AVexception@std@@@8
	DD	00H
	DD	0ffffffffH
	ORG $+4
	DD	018H
	DD	imagerel ??0exception@std@@QEAA@AEBV01@@Z
xdata$x	ENDS
;	COMDAT ??_R0?AVexception@std@@@8
data$r	SEGMENT
??_R0?AVexception@std@@@8 DQ FLAT:??_7type_info@@6B@	; std::exception `RTTI Type Descriptor'
	DQ	0000000000000000H
	DB	'.?AVexception@std@@', 00H
data$r	ENDS
;	COMDAT _CT??_R0?AVbad_alloc@std@@@8??0bad_alloc@std@@QEAA@AEBV01@@Z24
xdata$x	SEGMENT
_CT??_R0?AVbad_alloc@std@@@8??0bad_alloc@std@@QEAA@AEBV01@@Z24 DD 010H
	DD	imagerel ??_R0?AVbad_alloc@std@@@8
	DD	00H
	DD	0ffffffffH
	ORG $+4
	DD	018H
	DD	imagerel ??0bad_alloc@std@@QEAA@AEBV01@@Z
xdata$x	ENDS
;	COMDAT ??_R0?AVbad_alloc@std@@@8
data$r	SEGMENT
??_R0?AVbad_alloc@std@@@8 DQ FLAT:??_7type_info@@6B@	; std::bad_alloc `RTTI Type Descriptor'
	DQ	0000000000000000H
	DB	'.?AVbad_alloc@std@@', 00H
data$r	ENDS
;	COMDAT _CT??_R0?AVbad_array_new_length@std@@@8??0bad_array_new_length@std@@QEAA@AEBV01@@Z24
xdata$x	SEGMENT
_CT??_R0?AVbad_array_new_length@std@@@8??0bad_array_new_length@std@@QEAA@AEBV01@@Z24 DD 00H
	DD	imagerel ??_R0?AVbad_array_new_length@std@@@8
	DD	00H
	DD	0ffffffffH
	ORG $+4
	DD	018H
	DD	imagerel ??0bad_array_new_length@std@@QEAA@AEBV01@@Z
xdata$x	ENDS
;	COMDAT ??_R0?AVbad_array_new_length@std@@@8
data$r	SEGMENT
??_R0?AVbad_array_new_length@std@@@8 DQ FLAT:??_7type_info@@6B@ ; std::bad_array_new_length `RTTI Type Descriptor'
	DQ	0000000000000000H
	DB	'.?AVbad_array_new_length@std@@', 00H
data$r	ENDS
;	COMDAT _CTA3?AVbad_array_new_length@std@@
xdata$x	SEGMENT
_CTA3?AVbad_array_new_length@std@@ DD 03H
	DD	imagerel _CT??_R0?AVbad_array_new_length@std@@@8??0bad_array_new_length@std@@QEAA@AEBV01@@Z24
	DD	imagerel _CT??_R0?AVbad_alloc@std@@@8??0bad_alloc@std@@QEAA@AEBV01@@Z24
	DD	imagerel _CT??_R0?AVexception@std@@@8??0exception@std@@QEAA@AEBV01@@Z24
xdata$x	ENDS
;	COMDAT _TI3?AVbad_array_new_length@std@@
xdata$x	SEGMENT
_TI3?AVbad_array_new_length@std@@ DD 00H
	DD	imagerel ??1bad_array_new_length@std@@UEAA@XZ
	DD	00H
	DD	imagerel _CTA3?AVbad_array_new_length@std@@
xdata$x	ENDS
;	COMDAT ??_C@_0BF@KINCDENJ@bad?5array?5new?5length@
CONST	SEGMENT
??_C@_0BF@KINCDENJ@bad?5array?5new?5length@ DB 'bad array new length', 00H ; `string'
CONST	ENDS
;	COMDAT ??_7bad_array_new_length@std@@6B@
CONST	SEGMENT
??_7bad_array_new_length@std@@6B@ DQ FLAT:??_R4bad_array_new_length@std@@6B@ ; std::bad_array_new_length::`vftable'
	DQ	FLAT:??_Ebad_array_new_length@std@@UEAAPEAXI@Z
	DQ	FLAT:?what@exception@std@@UEBAPEBDXZ
CONST	ENDS
;	COMDAT ??_7bad_alloc@std@@6B@
CONST	SEGMENT
??_7bad_alloc@std@@6B@ DQ FLAT:??_R4bad_alloc@std@@6B@	; std::bad_alloc::`vftable'
	DQ	FLAT:??_Ebad_alloc@std@@UEAAPEAXI@Z
	DQ	FLAT:?what@exception@std@@UEBAPEBDXZ
CONST	ENDS
;	COMDAT ??_C@_0BC@EOODALEL@Unknown?5exception@
CONST	SEGMENT
??_C@_0BC@EOODALEL@Unknown?5exception@ DB 'Unknown exception', 00H ; `string'
CONST	ENDS
;	COMDAT ??_7exception@std@@6B@
CONST	SEGMENT
??_7exception@std@@6B@ DQ FLAT:??_R4exception@std@@6B@	; std::exception::`vftable'
	DQ	FLAT:??_Eexception@std@@UEAAPEAXI@Z
	DQ	FLAT:?what@exception@std@@UEBAPEBDXZ
CONST	ENDS
;	COMDAT xdata
xdata	SEGMENT
$unwind$?deallocate@?$_Default_allocator_traits@V?$allocator@U_Container_proxy@std@@@std@@@std@@SAXAEAV?$allocator@U_Container_proxy@std@@@2@QEAU_Container_proxy@2@_K@Z DD 022801H
	DD	070103214H
xdata	ENDS
;	COMDAT xdata
xdata	SEGMENT
$unwind$??$_Allocate_manually_vector_aligned@U_Default_allocate_traits@std@@@std@@YAPEAX_K@Z DD 021e01H
	DD	07006920aH
xdata	ENDS
;	COMDAT xdata
xdata	SEGMENT
$unwind$??$forward@AEBQEAD@std@@YAAEBQEADAEBQEAD@Z DD 010601H
	DD	07006H
xdata	ENDS
;	COMDAT xdata
xdata	SEGMENT
$unwind$??$addressof@PEAD@std@@YAPEAPEADAEAPEAD@Z DD 010601H
	DD	07006H
xdata	ENDS
;	COMDAT xdata
xdata	SEGMENT
$unwind$??$forward@PEAU_Container_base12@std@@@std@@YA$$QEAPEAU_Container_base12@0@AEAPEAU10@@Z DD 010601H
	DD	07006H
xdata	ENDS
;	COMDAT xdata
xdata	SEGMENT
$unwind$??$addressof@U_Container_proxy@std@@@std@@YAPEAU_Container_proxy@0@AEAU10@@Z DD 010601H
	DD	07006H
xdata	ENDS
;	COMDAT xdata
xdata	SEGMENT
$unwind$??$forward@V?$allocator@D@std@@@std@@YA$$QEAV?$allocator@D@0@AEAV10@@Z DD 010601H
	DD	07006H
xdata	ENDS
;	COMDAT xdata
xdata	SEGMENT
$ip2state$??$_Deallocate_plain@V?$allocator@U_Container_proxy@std@@@std@@@std@@YAXAEAV?$allocator@U_Container_proxy@std@@@0@QEAU_Container_proxy@0@@Z DB 02H
	DB	00H
	DB	00H
xdata	ENDS
;	COMDAT xdata
xdata	SEGMENT
$cppxdata$??$_Deallocate_plain@V?$allocator@U_Container_proxy@std@@@std@@@std@@YAXAEAV?$allocator@U_Container_proxy@std@@@0@QEAU_Container_proxy@0@@Z DB 040H
	DD	imagerel $ip2state$??$_Deallocate_plain@V?$allocator@U_Container_proxy@std@@@std@@@std@@YAXAEAV?$allocator@U_Container_proxy@std@@@0@QEAU_Container_proxy@0@@Z
xdata	ENDS
;	COMDAT xdata
xdata	SEGMENT
$unwind$??$_Deallocate_plain@V?$allocator@U_Container_proxy@std@@@std@@@std@@YAXAEAV?$allocator@U_Container_proxy@std@@@0@QEAU_Container_proxy@0@@Z DD 022319H
	DD	0700b320fH
	DD	imagerel __CxxFrameHandler4
	DD	imagerel $cppxdata$??$_Deallocate_plain@V?$allocator@U_Container_proxy@std@@@std@@@std@@YAXAEAV?$allocator@U_Container_proxy@std@@@0@QEAU_Container_proxy@0@@Z
xdata	ENDS
;	COMDAT xdata
xdata	SEGMENT
$unwind$??$_Get_size_of_n@$0BA@@std@@YA_K_K@Z DD 021e01H
	DD	07006520aH
xdata	ENDS
;	COMDAT xdata
xdata	SEGMENT
$ip2state$??$_Deallocate@$0BA@$0A@@std@@YAXPEAX_K@Z DB 02H
	DB	00H
	DB	00H
xdata	ENDS
;	COMDAT xdata
xdata	SEGMENT
$cppxdata$??$_Deallocate@$0BA@$0A@@std@@YAXPEAX_K@Z DB 040H
	DD	imagerel $ip2state$??$_Deallocate@$0BA@$0A@@std@@YAXPEAX_K@Z
xdata	ENDS
;	COMDAT xdata
xdata	SEGMENT
$unwind$??$_Deallocate@$0BA@$0A@@std@@YAXPEAX_K@Z DD 022319H
	DD	0700b320fH
	DD	imagerel __CxxFrameHandler4
	DD	imagerel $cppxdata$??$_Deallocate@$0BA@$0A@@std@@YAXPEAX_K@Z
xdata	ENDS
;	COMDAT xdata
xdata	SEGMENT
$unwind$??$_Allocate@$0BA@U_Default_allocate_traits@std@@$0A@@std@@YAPEAX_K@Z DD 021e01H
	DD	07006320aH
xdata	ENDS
;	COMDAT xdata
xdata	SEGMENT
$unwind$??$_Get_size_of_n@$00@std@@YA_K_K@Z DD 021e01H
	DD	07006120aH
xdata	ENDS
;	COMDAT xdata
xdata	SEGMENT
$unwind$??$_Construct_in_place@PEADAEBQEAD@std@@YAXAEAPEADAEBQEAD@Z DD 022301H
	DD	0700b520fH
xdata	ENDS
;	COMDAT xdata
xdata	SEGMENT
$unwind$??$_Reallocate_grow_by@V<lambda_65e615be2a453ca0576c979606f46740>@@PEBD_K@?$basic_string@DU?$char_traits@D@std@@V?$allocator@D@2@@std@@AEAAAEAV01@_KV<lambda_65e615be2a453ca0576c979606f46740>@@PEBD_K@Z DD 033301H
	DD	012011cH
	DD	07015H
xdata	ENDS
;	COMDAT CONST
CONST	SEGMENT
??$_Reallocate_grow_by@V<lambda_65e615be2a453ca0576c979606f46740>@@PEBD_K@?$basic_string@DU?$char_traits@D@std@@V?$allocator@D@2@@std@@AEAAAEAV01@_KV<lambda_65e615be2a453ca0576c979606f46740>@@PEBD_K@Z$rtcName$0 DB 05fH ; std::basic_string<char,std::char_traits<char>,std::allocator<char> >::_Reallocate_grow_by<<lambda_65e615be2a453ca0576c979606f46740>,char const *,unsigned __int64>
	DB	04eH
	DB	065H
	DB	077H
	DB	05fH
	DB	070H
	DB	074H
	DB	072H
	DB	00H
	ORG $+7
??$_Reallocate_grow_by@V<lambda_65e615be2a453ca0576c979606f46740>@@PEBD_K@?$basic_string@DU?$char_traits@D@std@@V?$allocator@D@2@@std@@AEAAAEAV01@_KV<lambda_65e615be2a453ca0576c979606f46740>@@PEBD_K@Z$rtcVarDesc DD 068H ; std::basic_string<char,std::char_traits<char>,std::allocator<char> >::_Reallocate_grow_by<<lambda_65e615be2a453ca0576c979606f46740>,char const *,unsigned __int64>
	DD	08H
	DQ	FLAT:??$_Reallocate_grow_by@V<lambda_65e615be2a453ca0576c979606f46740>@@PEBD_K@?$basic_string@DU?$char_traits@D@std@@V?$allocator@D@2@@std@@AEAAAEAV01@_KV<lambda_65e615be2a453ca0576c979606f46740>@@PEBD_K@Z$rtcName$0
	ORG $+48
??$_Reallocate_grow_by@V<lambda_65e615be2a453ca0576c979606f46740>@@PEBD_K@?$basic_string@DU?$char_traits@D@std@@V?$allocator@D@2@@std@@AEAAAEAV01@_KV<lambda_65e615be2a453ca0576c979606f46740>@@PEBD_K@Z$rtcFrameData DD 01H ; std::basic_string<char,std::char_traits<char>,std::allocator<char> >::_Reallocate_grow_by<<lambda_65e615be2a453ca0576c979606f46740>,char const *,unsigned __int64>
	DD	00H
	DQ	FLAT:??$_Reallocate_grow_by@V<lambda_65e615be2a453ca0576c979606f46740>@@PEBD_K@?$basic_string@DU?$char_traits@D@std@@V?$allocator@D@2@@std@@AEAAAEAV01@_KV<lambda_65e615be2a453ca0576c979606f46740>@@PEBD_K@Z$rtcVarDesc
CONST	ENDS
;	COMDAT xdata
xdata	SEGMENT
$unwind$??R<lambda_65e615be2a453ca0576c979606f46740>@@QEBAXQEADQEBD_K12@Z DD 022d01H
	DD	070155219H
xdata	ENDS
;	COMDAT xdata
xdata	SEGMENT
$unwind$??$_Reallocate_for@V<lambda_66f57f934f28d61049862f64df852ff0>@@PEBD@?$basic_string@DU?$char_traits@D@std@@V?$allocator@D@2@@std@@AEAAAEAV01@_KV<lambda_66f57f934f28d61049862f64df852ff0>@@PEBD@Z DD 022d01H
	DD	07015b219H
xdata	ENDS
;	COMDAT CONST
CONST	SEGMENT
??$_Reallocate_for@V<lambda_66f57f934f28d61049862f64df852ff0>@@PEBD@?$basic_string@DU?$char_traits@D@std@@V?$allocator@D@2@@std@@AEAAAEAV01@_KV<lambda_66f57f934f28d61049862f64df852ff0>@@PEBD@Z$rtcName$0 DB 05fH ; std::basic_string<char,std::char_traits<char>,std::allocator<char> >::_Reallocate_for<<lambda_66f57f934f28d61049862f64df852ff0>,char const *>
	DB	04eH
	DB	065H
	DB	077H
	DB	05fH
	DB	070H
	DB	074H
	DB	072H
	DB	00H
	ORG $+7
??$_Reallocate_for@V<lambda_66f57f934f28d61049862f64df852ff0>@@PEBD@?$basic_string@DU?$char_traits@D@std@@V?$allocator@D@2@@std@@AEAAAEAV01@_KV<lambda_66f57f934f28d61049862f64df852ff0>@@PEBD@Z$rtcVarDesc DD 048H ; std::basic_string<char,std::char_traits<char>,std::allocator<char> >::_Reallocate_for<<lambda_66f57f934f28d61049862f64df852ff0>,char const *>
	DD	08H
	DQ	FLAT:??$_Reallocate_for@V<lambda_66f57f934f28d61049862f64df852ff0>@@PEBD@?$basic_string@DU?$char_traits@D@std@@V?$allocator@D@2@@std@@AEAAAEAV01@_KV<lambda_66f57f934f28d61049862f64df852ff0>@@PEBD@Z$rtcName$0
	ORG $+48
??$_Reallocate_for@V<lambda_66f57f934f28d61049862f64df852ff0>@@PEBD@?$basic_string@DU?$char_traits@D@std@@V?$allocator@D@2@@std@@AEAAAEAV01@_KV<lambda_66f57f934f28d61049862f64df852ff0>@@PEBD@Z$rtcFrameData DD 01H ; std::basic_string<char,std::char_traits<char>,std::allocator<char> >::_Reallocate_for<<lambda_66f57f934f28d61049862f64df852ff0>,char const *>
	DD	00H
	DQ	FLAT:??$_Reallocate_for@V<lambda_66f57f934f28d61049862f64df852ff0>@@PEBD@?$basic_string@DU?$char_traits@D@std@@V?$allocator@D@2@@std@@AEAAAEAV01@_KV<lambda_66f57f934f28d61049862f64df852ff0>@@PEBD@Z$rtcVarDesc
CONST	ENDS
;	COMDAT xdata
xdata	SEGMENT
$unwind$??R<lambda_66f57f934f28d61049862f64df852ff0>@@QEBAXQEAD_KQEBD@Z DD 022d01H
	DD	070155219H
xdata	ENDS
;	COMDAT xdata
xdata	SEGMENT
$unwind$??$addressof@$$CBV?$_String_val@U?$_Simple_types@D@std@@@std@@@std@@YAPEBV?$_String_val@U?$_Simple_types@D@std@@@0@AEBV10@@Z DD 010601H
	DD	07006H
xdata	ENDS
;	COMDAT xdata
xdata	SEGMENT
$unwind$??$_Max_value@_K@std@@YAAEB_KAEB_K0@Z DD 022301H
	DD	0700b120fH
xdata	ENDS
;	COMDAT xdata
xdata	SEGMENT
$unwind$??$_Destroy_in_place@PEAD@std@@YAXAEAPEAD@Z DD 010601H
	DD	07006H
xdata	ENDS
;	COMDAT xdata
xdata	SEGMENT
$unwind$??$_Construct_in_place@U_Container_proxy@std@@PEAU_Container_base12@2@@std@@YAXAEAU_Container_proxy@0@$$QEAPEAU_Container_base12@0@@Z DD 022301H
	DD	0700b520fH
xdata	ENDS
;	COMDAT xdata
xdata	SEGMENT
$unwind$??$addressof@U_Container_base12@std@@@std@@YAPEAU_Container_base12@0@AEAU10@@Z DD 010601H
	DD	07006H
xdata	ENDS
;	COMDAT xdata
xdata	SEGMENT
$unwind$??$_Unfancy@U_Container_proxy@std@@@std@@YAPEAU_Container_proxy@0@PEAU10@@Z DD 010601H
	DD	07006H
xdata	ENDS
;	COMDAT xdata
xdata	SEGMENT
$unwind$?dtor$0@?0???$?0$$V@?$_Compressed_pair@V?$allocator@D@std@@V?$_String_val@U?$_Simple_types@D@std@@@2@$00@std@@QEAA@U_Zero_then_variadic_args_t@1@@Z@4HA DD 031001H
	DD	0700c4210H
	DD	0500bH
xdata	ENDS
;	COMDAT xdata
xdata	SEGMENT
$ip2state$??$?0$$V@?$_Compressed_pair@V?$allocator@D@std@@V?$_String_val@U?$_Simple_types@D@std@@@2@$00@std@@QEAA@U_Zero_then_variadic_args_t@1@@Z DB 02H
	DB	00H
	DB	00H
xdata	ENDS
;	COMDAT xdata
xdata	SEGMENT
$stateUnwindMap$??$?0$$V@?$_Compressed_pair@V?$allocator@D@std@@V?$_String_val@U?$_Simple_types@D@std@@@2@$00@std@@QEAA@U_Zero_then_variadic_args_t@1@@Z DB 02H
	DB	0eH
	DD	imagerel ?dtor$0@?0???$?0$$V@?$_Compressed_pair@V?$allocator@D@std@@V?$_String_val@U?$_Simple_types@D@std@@@2@$00@std@@QEAA@U_Zero_then_variadic_args_t@1@@Z@4HA
xdata	ENDS
;	COMDAT xdata
xdata	SEGMENT
$cppxdata$??$?0$$V@?$_Compressed_pair@V?$allocator@D@std@@V?$_String_val@U?$_Simple_types@D@std@@@2@$00@std@@QEAA@U_Zero_then_variadic_args_t@1@@Z DB 08H
	DD	imagerel $stateUnwindMap$??$?0$$V@?$_Compressed_pair@V?$allocator@D@std@@V?$_String_val@U?$_Simple_types@D@std@@@2@$00@std@@QEAA@U_Zero_then_variadic_args_t@1@@Z
	DD	imagerel $ip2state$??$?0$$V@?$_Compressed_pair@V?$allocator@D@std@@V?$_String_val@U?$_Simple_types@D@std@@@2@$00@std@@QEAA@U_Zero_then_variadic_args_t@1@@Z
xdata	ENDS
;	COMDAT xdata
xdata	SEGMENT
$unwind$??$?0$$V@?$_Compressed_pair@V?$allocator@D@std@@V?$_String_val@U?$_Simple_types@D@std@@@2@$00@std@@QEAA@U_Zero_then_variadic_args_t@1@@Z DD 022211H
	DD	0700a320eH
	DD	imagerel __CxxFrameHandler4
	DD	imagerel $cppxdata$??$?0$$V@?$_Compressed_pair@V?$allocator@D@std@@V?$_String_val@U?$_Simple_types@D@std@@@2@$00@std@@QEAA@U_Zero_then_variadic_args_t@1@@Z
xdata	ENDS
;	COMDAT xdata
xdata	SEGMENT
$unwind$?dtor$0@?0???$?0V?$allocator@D@std@@$$V@?$_Compressed_pair@V?$allocator@D@std@@V?$_String_val@U?$_Simple_types@D@std@@@2@$00@std@@QEAA@U_One_then_variadic_args_t@1@$$QEAV?$allocator@D@1@@Z@4HA DD 031001H
	DD	0700c4210H
	DD	0500bH
xdata	ENDS
;	COMDAT xdata
xdata	SEGMENT
$ip2state$??$?0V?$allocator@D@std@@$$V@?$_Compressed_pair@V?$allocator@D@std@@V?$_String_val@U?$_Simple_types@D@std@@@2@$00@std@@QEAA@U_One_then_variadic_args_t@1@$$QEAV?$allocator@D@1@@Z DB 02H
	DB	00H
	DB	00H
xdata	ENDS
;	COMDAT xdata
xdata	SEGMENT
$stateUnwindMap$??$?0V?$allocator@D@std@@$$V@?$_Compressed_pair@V?$allocator@D@std@@V?$_String_val@U?$_Simple_types@D@std@@@2@$00@std@@QEAA@U_One_then_variadic_args_t@1@$$QEAV?$allocator@D@1@@Z DB 02H
	DB	0eH
	DD	imagerel ?dtor$0@?0???$?0V?$allocator@D@std@@$$V@?$_Compressed_pair@V?$allocator@D@std@@V?$_String_val@U?$_Simple_types@D@std@@@2@$00@std@@QEAA@U_One_then_variadic_args_t@1@$$QEAV?$allocator@D@1@@Z@4HA
xdata	ENDS
;	COMDAT xdata
xdata	SEGMENT
$cppxdata$??$?0V?$allocator@D@std@@$$V@?$_Compressed_pair@V?$allocator@D@std@@V?$_String_val@U?$_Simple_types@D@std@@@2@$00@std@@QEAA@U_One_then_variadic_args_t@1@$$QEAV?$allocator@D@1@@Z DB 08H
	DD	imagerel $stateUnwindMap$??$?0V?$allocator@D@std@@$$V@?$_Compressed_pair@V?$allocator@D@std@@V?$_String_val@U?$_Simple_types@D@std@@@2@$00@std@@QEAA@U_One_then_variadic_args_t@1@$$QEAV?$allocator@D@1@@Z
	DD	imagerel $ip2state$??$?0V?$allocator@D@std@@$$V@?$_Compressed_pair@V?$allocator@D@std@@V?$_String_val@U?$_Simple_types@D@std@@@2@$00@std@@QEAA@U_One_then_variadic_args_t@1@$$QEAV?$allocator@D@1@@Z
xdata	ENDS
;	COMDAT xdata
xdata	SEGMENT
$unwind$??$?0V?$allocator@D@std@@$$V@?$_Compressed_pair@V?$allocator@D@std@@V?$_String_val@U?$_Simple_types@D@std@@@2@$00@std@@QEAA@U_One_then_variadic_args_t@1@$$QEAV?$allocator@D@1@@Z DD 022711H
	DD	0700f3213H
	DD	imagerel __CxxFrameHandler4
	DD	imagerel $cppxdata$??$?0V?$allocator@D@std@@$$V@?$_Compressed_pair@V?$allocator@D@std@@V?$_String_val@U?$_Simple_types@D@std@@@2@$00@std@@QEAA@U_One_then_variadic_args_t@1@$$QEAV?$allocator@D@1@@Z
xdata	ENDS
;	COMDAT xdata
xdata	SEGMENT
$unwind$??$move@AEAV?$allocator@D@std@@@std@@YA$$QEAV?$allocator@D@0@AEAV10@@Z DD 010601H
	DD	07006H
xdata	ENDS
;	COMDAT xdata
xdata	SEGMENT
$unwind$??$?0D@?$allocator@U_Container_proxy@std@@@std@@QEAA@AEBV?$allocator@D@1@@Z DD 010b01H
	DD	0700bH
xdata	ENDS
;	COMDAT xdata
xdata	SEGMENT
$unwind$??$addressof@V?$_String_val@U?$_Simple_types@D@std@@@std@@@std@@YAPEAV?$_String_val@U?$_Simple_types@D@std@@@0@AEAV10@@Z DD 010601H
	DD	07006H
xdata	ENDS
;	COMDAT xdata
xdata	SEGMENT
$unwind$??$_Unfancy@D@std@@YAPEADPEAD@Z DD 010601H
	DD	07006H
xdata	ENDS
;	COMDAT xdata
xdata	SEGMENT
$unwind$??$_Alloc_proxy@V?$allocator@U_Container_proxy@std@@@std@@@_Container_base12@std@@QEAAX$$QEAV?$allocator@U_Container_proxy@std@@@1@@Z DD 022301H
	DD	0700b520fH
xdata	ENDS
;	COMDAT xdata
xdata	SEGMENT
$unwind$??1?$_Container_proxy_ptr12@V?$allocator@U_Container_proxy@std@@@std@@@std@@QEAA@XZ DD 021e01H
	DD	07006320aH
xdata	ENDS
;	COMDAT xdata
xdata	SEGMENT
$unwind$??0?$_Container_proxy_ptr12@V?$allocator@U_Container_proxy@std@@@std@@@std@@QEAA@AEAV?$allocator@U_Container_proxy@std@@@1@AEAU_Container_base12@1@@Z DD 022801H
	DD	070105214H
xdata	ENDS
;	COMDAT xdata
xdata	SEGMENT
$unwind$??$_Delete_plain_internal@V?$allocator@U_Container_proxy@std@@@std@@@std@@YAXAEAV?$allocator@U_Container_proxy@std@@@0@QEAU_Container_proxy@0@@Z DD 022301H
	DD	0700b320fH
xdata	ENDS
;	COMDAT xdata
xdata	SEGMENT
$unwind$?allocate@?$allocator@U_Container_proxy@std@@@std@@QEAAPEAU_Container_proxy@2@_K@Z DD 022301H
	DD	0700b320fH
xdata	ENDS
;	COMDAT xdata
xdata	SEGMENT
$unwind$??$_Min_value@_K@std@@YAAEB_KAEB_K0@Z DD 022301H
	DD	0700b120fH
xdata	ENDS
;	COMDAT xdata
xdata	SEGMENT
$unwind$??$move@AEAV?$basic_string@DU?$char_traits@D@std@@V?$allocator@D@2@@std@@@std@@YA$$QEAV?$basic_string@DU?$char_traits@D@std@@V?$allocator@D@2@@0@AEAV10@@Z DD 010601H
	DD	07006H
xdata	ENDS
;	COMDAT xdata
xdata	SEGMENT
$unwind$?_Unchecked_end@?$vector@PEBDV?$allocator@PEBD@std@@@std@@QEBAPEBQEBDXZ DD 010601H
	DD	07006H
xdata	ENDS
;	COMDAT xdata
xdata	SEGMENT
$unwind$?_Unchecked_begin@?$vector@PEBDV?$allocator@PEBD@std@@@std@@QEBAPEBQEBDXZ DD 010601H
	DD	07006H
xdata	ENDS
;	COMDAT xdata
xdata	SEGMENT
$unwind$?dtor$0@?0???$?HDU?$char_traits@D@std@@V?$allocator@D@1@@std@@YA?AV?$basic_string@DU?$char_traits@D@std@@V?$allocator@D@2@@0@$$QEAV10@QEBD@Z@4HA DD 031001H
	DD	0700c4210H
	DD	0500bH
xdata	ENDS
;	COMDAT xdata
xdata	SEGMENT
$ip2state$??$?HDU?$char_traits@D@std@@V?$allocator@D@1@@std@@YA?AV?$basic_string@DU?$char_traits@D@std@@V?$allocator@D@2@@0@$$QEAV10@QEBD@Z DB 04H
	DB	00H
	DB	00H
	DB	0aaH
	DB	02H
xdata	ENDS
;	COMDAT xdata
xdata	SEGMENT
$stateUnwindMap$??$?HDU?$char_traits@D@std@@V?$allocator@D@1@@std@@YA?AV?$basic_string@DU?$char_traits@D@std@@V?$allocator@D@2@@0@$$QEAV10@QEBD@Z DB 02H
	DB	0eH
	DD	imagerel ?dtor$0@?0???$?HDU?$char_traits@D@std@@V?$allocator@D@1@@std@@YA?AV?$basic_string@DU?$char_traits@D@std@@V?$allocator@D@2@@0@$$QEAV10@QEBD@Z@4HA
xdata	ENDS
;	COMDAT xdata
xdata	SEGMENT
$cppxdata$??$?HDU?$char_traits@D@std@@V?$allocator@D@1@@std@@YA?AV?$basic_string@DU?$char_traits@D@std@@V?$allocator@D@2@@0@$$QEAV10@QEBD@Z DB 08H
	DD	imagerel $stateUnwindMap$??$?HDU?$char_traits@D@std@@V?$allocator@D@1@@std@@YA?AV?$basic_string@DU?$char_traits@D@std@@V?$allocator@D@2@@0@$$QEAV10@QEBD@Z
	DD	imagerel $ip2state$??$?HDU?$char_traits@D@std@@V?$allocator@D@1@@std@@YA?AV?$basic_string@DU?$char_traits@D@std@@V?$allocator@D@2@@0@$$QEAV10@QEBD@Z
xdata	ENDS
;	COMDAT xdata
xdata	SEGMENT
$unwind$??$?HDU?$char_traits@D@std@@V?$allocator@D@1@@std@@YA?AV?$basic_string@DU?$char_traits@D@std@@V?$allocator@D@2@@0@$$QEAV10@QEBD@Z DD 022811H
	DD	070105214H
	DD	imagerel __CxxFrameHandler4
	DD	imagerel $cppxdata$??$?HDU?$char_traits@D@std@@V?$allocator@D@1@@std@@YA?AV?$basic_string@DU?$char_traits@D@std@@V?$allocator@D@2@@0@$$QEAV10@QEBD@Z
xdata	ENDS
;	COMDAT xdata
xdata	SEGMENT
$unwind$??__ECspColorprimList@@YAXXZ DD 042b19H
	DD	023010aH
	DD	060027003H
	DD	imagerel __GSHandlerCheck
	DD	0108H
xdata	ENDS
;	COMDAT xdata
xdata	SEGMENT
$unwind$??$make_array@W4CspColorprim@@W41@W41@W41@W41@W41@W41@W41@W41@W41@W41@W41@W41@@@YA?AV?$array@W4CspColorprim@@$0M@@std@@$$QEAW4CspColorprim@@00000000000@Z DD 033d19H
	DD	07016821aH
	DD	06015H
	DD	imagerel __GSHandlerCheck
	DD	038H
xdata	ENDS
;	COMDAT xdata
xdata	SEGMENT
$unwind$??__ECspTransferList@@YAXXZ DD 042b19H
	DD	02b010aH
	DD	060027003H
	DD	imagerel __GSHandlerCheck
	DD	0148H
xdata	ENDS
;	COMDAT xdata
xdata	SEGMENT
$unwind$??$make_array@W4CspTransfer@@W41@W41@W41@W41@W41@W41@W41@W41@W41@W41@W41@W41@W41@W41@W41@@@YA?AV?$array@W4CspTransfer@@$0P@@std@@$$QEAW4CspTransfer@@00000000000000@Z DD 033d19H
	DD	07016a21aH
	DD	06015H
	DD	imagerel __GSHandlerCheck
	DD	048H
xdata	ENDS
;	COMDAT xdata
xdata	SEGMENT
$unwind$??__ECspMatrixList@@YAXXZ DD 042b19H
	DD	029010aH
	DD	060027003H
	DD	imagerel __GSHandlerCheck
	DD	0130H
xdata	ENDS
;	COMDAT xdata
xdata	SEGMENT
$unwind$??$make_array@W4CspMatrix@@W41@W41@W41@W41@W41@W41@W41@W41@W41@W41@W41@W41@W41@W41@@@YA?AV?$array@W4CspMatrix@@$0O@@std@@$$QEAW4CspMatrix@@0000000000000@Z DD 033d19H
	DD	07016a21aH
	DD	06015H
	DD	imagerel __GSHandlerCheck
	DD	040H
xdata	ENDS
;	COMDAT xdata
xdata	SEGMENT
$unwind$?dtor$0@?0???1?$_Compressed_pair@V?$allocator@D@std@@V?$_String_val@U?$_Simple_types@D@std@@@2@$00@std@@QEAA@XZ@4HA DD 031001H
	DD	0700c4210H
	DD	0500bH
xdata	ENDS
;	COMDAT xdata
xdata	SEGMENT
$ip2state$??1?$_Compressed_pair@V?$allocator@D@std@@V?$_String_val@U?$_Simple_types@D@std@@@2@$00@std@@QEAA@XZ DB 02H
	DB	00H
	DB	00H
xdata	ENDS
;	COMDAT xdata
xdata	SEGMENT
$stateUnwindMap$??1?$_Compressed_pair@V?$allocator@D@std@@V?$_String_val@U?$_Simple_types@D@std@@@2@$00@std@@QEAA@XZ DB 02H
	DB	0eH
	DD	imagerel ?dtor$0@?0???1?$_Compressed_pair@V?$allocator@D@std@@V?$_String_val@U?$_Simple_types@D@std@@@2@$00@std@@QEAA@XZ@4HA
xdata	ENDS
;	COMDAT xdata
xdata	SEGMENT
$cppxdata$??1?$_Compressed_pair@V?$allocator@D@std@@V?$_String_val@U?$_Simple_types@D@std@@@2@$00@std@@QEAA@XZ DB 048H
	DD	imagerel $stateUnwindMap$??1?$_Compressed_pair@V?$allocator@D@std@@V?$_String_val@U?$_Simple_types@D@std@@@2@$00@std@@QEAA@XZ
	DD	imagerel $ip2state$??1?$_Compressed_pair@V?$allocator@D@std@@V?$_String_val@U?$_Simple_types@D@std@@@2@$00@std@@QEAA@XZ
xdata	ENDS
;	COMDAT xdata
xdata	SEGMENT
$unwind$??1?$_Compressed_pair@V?$allocator@D@std@@V?$_String_val@U?$_Simple_types@D@std@@@2@$00@std@@QEAA@XZ DD 021e11H
	DD	07006320aH
	DD	imagerel __CxxFrameHandler4
	DD	imagerel $cppxdata$??1?$_Compressed_pair@V?$allocator@D@std@@V?$_String_val@U?$_Simple_types@D@std@@@2@$00@std@@QEAA@XZ
xdata	ENDS
;	COMDAT xdata
xdata	SEGMENT
$unwind$?_Get_first@?$_Compressed_pair@V?$allocator@D@std@@V?$_String_val@U?$_Simple_types@D@std@@@2@$00@std@@QEBAAEBV?$allocator@D@2@XZ DD 010601H
	DD	07006H
xdata	ENDS
;	COMDAT xdata
xdata	SEGMENT
$unwind$?_Get_first@?$_Compressed_pair@V?$allocator@D@std@@V?$_String_val@U?$_Simple_types@D@std@@@2@$00@std@@QEAAAEAV?$allocator@D@2@XZ DD 010601H
	DD	07006H
xdata	ENDS
;	COMDAT xdata
xdata	SEGMENT
$unwind$?_Getal@?$basic_string@DU?$char_traits@D@std@@V?$allocator@D@2@@std@@AEBAAEBV?$allocator@D@2@XZ DD 021e01H
	DD	07006320aH
xdata	ENDS
;	COMDAT xdata
xdata	SEGMENT
$unwind$?_Getal@?$basic_string@DU?$char_traits@D@std@@V?$allocator@D@2@@std@@AEAAAEAV?$allocator@D@2@XZ DD 021e01H
	DD	07006320aH
xdata	ENDS
;	COMDAT xdata
xdata	SEGMENT
$unwind$?_Swap_proxy_and_iterators@?$basic_string@DU?$char_traits@D@std@@V?$allocator@D@2@@std@@AEAAXAEAV12@@Z DD 022301H
	DD	0700b320fH
xdata	ENDS
;	COMDAT xdata
xdata	SEGMENT
$unwind$?_Xlen@?$basic_string@DU?$char_traits@D@std@@V?$allocator@D@2@@std@@CAXXZ DD 021501H
	DD	070023206H
xdata	ENDS
;	COMDAT xdata
xdata	SEGMENT
$ip2state$?_Tidy_deallocate@?$basic_string@DU?$char_traits@D@std@@V?$allocator@D@2@@std@@AEAAXXZ DB 02H
	DB	00H
	DB	00H
xdata	ENDS
;	COMDAT xdata
xdata	SEGMENT
$cppxdata$?_Tidy_deallocate@?$basic_string@DU?$char_traits@D@std@@V?$allocator@D@2@@std@@AEAAXXZ DB 040H
	DD	imagerel $ip2state$?_Tidy_deallocate@?$basic_string@DU?$char_traits@D@std@@V?$allocator@D@2@@std@@AEAAXXZ
xdata	ENDS
;	COMDAT xdata
xdata	SEGMENT
$unwind$?_Tidy_deallocate@?$basic_string@DU?$char_traits@D@std@@V?$allocator@D@2@@std@@AEAAXXZ DD 021e19H
	DD	07006720aH
	DD	imagerel __CxxFrameHandler4
	DD	imagerel $cppxdata$?_Tidy_deallocate@?$basic_string@DU?$char_traits@D@std@@V?$allocator@D@2@@std@@AEAAXXZ
xdata	ENDS
;	COMDAT xdata
xdata	SEGMENT
$unwind$?_Tidy_init@?$basic_string@DU?$char_traits@D@std@@V?$allocator@D@2@@std@@AEAAXXZ DD 021e01H
	DD	07006520aH
xdata	ENDS
;	COMDAT xdata
xdata	SEGMENT
$unwind$?_Calculate_growth@?$basic_string@DU?$char_traits@D@std@@V?$allocator@D@2@@std@@AEBA_K_K@Z DD 022301H
	DD	0700b320fH
xdata	ENDS
;	COMDAT xdata
xdata	SEGMENT
$unwind$?_Calculate_growth@?$basic_string@DU?$char_traits@D@std@@V?$allocator@D@2@@std@@CA_K_K00@Z DD 022801H
	DD	070107214H
xdata	ENDS
;	COMDAT CONST
CONST	SEGMENT
?_Calculate_growth@?$basic_string@DU?$char_traits@D@std@@V?$allocator@D@2@@std@@CA_K_K00@Z$rtcName$0 DB 05fH ; std::basic_string<char,std::char_traits<char>,std::allocator<char> >::_Calculate_growth
	DB	04dH
	DB	061H
	DB	073H
	DB	06bH
	DB	065H
	DB	064H
	DB	00H
	ORG $+8
?_Calculate_growth@?$basic_string@DU?$char_traits@D@std@@V?$allocator@D@2@@std@@CA_K_K00@Z$rtcVarDesc DD 028H ; std::basic_string<char,std::char_traits<char>,std::allocator<char> >::_Calculate_growth
	DD	08H
	DQ	FLAT:?_Calculate_growth@?$basic_string@DU?$char_traits@D@std@@V?$allocator@D@2@@std@@CA_K_K00@Z$rtcName$0
	ORG $+48
?_Calculate_growth@?$basic_string@DU?$char_traits@D@std@@V?$allocator@D@2@@std@@CA_K_K00@Z$rtcFrameData DD 01H ; std::basic_string<char,std::char_traits<char>,std::allocator<char> >::_Calculate_growth
	DD	00H
	DQ	FLAT:?_Calculate_growth@?$basic_string@DU?$char_traits@D@std@@V?$allocator@D@2@@std@@CA_K_K00@Z$rtcVarDesc
CONST	ENDS
;	COMDAT xdata
xdata	SEGMENT
$unwind$?max_size@?$basic_string@DU?$char_traits@D@std@@V?$allocator@D@2@@std@@QEBA_KXZ DD 021e01H
	DD	07006b20aH
xdata	ENDS
;	COMDAT CONST
CONST	SEGMENT
?max_size@?$basic_string@DU?$char_traits@D@std@@V?$allocator@D@2@@std@@QEBA_KXZ$rtcName$0 DB 05fH ; std::basic_string<char,std::char_traits<char>,std::allocator<char> >::max_size
	DB	041H
	DB	06cH
	DB	06cH
	DB	06fH
	DB	063H
	DB	05fH
	DB	06dH
	DB	061H
	DB	078H
	DB	00H
	ORG $+5
?max_size@?$basic_string@DU?$char_traits@D@std@@V?$allocator@D@2@@std@@QEBA_KXZ$rtcVarDesc DD 028H ; std::basic_string<char,std::char_traits<char>,std::allocator<char> >::max_size
	DD	08H
	DQ	FLAT:?max_size@?$basic_string@DU?$char_traits@D@std@@V?$allocator@D@2@@std@@QEBA_KXZ$rtcName$0
	ORG $+48
?max_size@?$basic_string@DU?$char_traits@D@std@@V?$allocator@D@2@@std@@QEBA_KXZ$rtcFrameData DD 01H ; std::basic_string<char,std::char_traits<char>,std::allocator<char> >::max_size
	DD	00H
	DQ	FLAT:?max_size@?$basic_string@DU?$char_traits@D@std@@V?$allocator@D@2@@std@@QEBA_KXZ$rtcVarDesc
CONST	ENDS
;	COMDAT xdata
xdata	SEGMENT
$ip2state$?c_str@?$basic_string@DU?$char_traits@D@std@@V?$allocator@D@2@@std@@QEBAPEBDXZ DB 02H
	DB	00H
	DB	00H
xdata	ENDS
;	COMDAT xdata
xdata	SEGMENT
$cppxdata$?c_str@?$basic_string@DU?$char_traits@D@std@@V?$allocator@D@2@@std@@QEBAPEBDXZ DB 040H
	DD	imagerel $ip2state$?c_str@?$basic_string@DU?$char_traits@D@std@@V?$allocator@D@2@@std@@QEBAPEBDXZ
xdata	ENDS
;	COMDAT xdata
xdata	SEGMENT
$unwind$?c_str@?$basic_string@DU?$char_traits@D@std@@V?$allocator@D@2@@std@@QEBAPEBDXZ DD 021e19H
	DD	07006320aH
	DD	imagerel __CxxFrameHandler4
	DD	imagerel $cppxdata$?c_str@?$basic_string@DU?$char_traits@D@std@@V?$allocator@D@2@@std@@QEBAPEBDXZ
xdata	ENDS
;	COMDAT xdata
xdata	SEGMENT
$unwind$?assign@?$basic_string@DU?$char_traits@D@std@@V?$allocator@D@2@@std@@QEAAAEAV12@QEBD@Z DD 022301H
	DD	0700b320fH
xdata	ENDS
;	COMDAT xdata
xdata	SEGMENT
$unwind$?assign@?$basic_string@DU?$char_traits@D@std@@V?$allocator@D@2@@std@@QEAAAEAV12@QEBD_K@Z DD 022801H
	DD	070105214H
xdata	ENDS
;	COMDAT xdata
xdata	SEGMENT
$unwind$?append@?$basic_string@DU?$char_traits@D@std@@V?$allocator@D@2@@std@@QEAAAEAV12@QEBD@Z DD 022301H
	DD	0700b320fH
xdata	ENDS
;	COMDAT xdata
xdata	SEGMENT
$unwind$?append@?$basic_string@DU?$char_traits@D@std@@V?$allocator@D@2@@std@@QEAAAEAV12@QEBD_K@Z DD 022801H
	DD	070109214H
xdata	ENDS
;	COMDAT xdata
xdata	SEGMENT
$unwind$?append@?$basic_string@DU?$char_traits@D@std@@V?$allocator@D@2@@std@@QEAAAEAV12@AEBV12@@Z DD 022301H
	DD	0700b320fH
xdata	ENDS
;	COMDAT xdata
xdata	SEGMENT
$unwind$??Y?$basic_string@DU?$char_traits@D@std@@V?$allocator@D@2@@std@@QEAAAEAV01@AEBV01@@Z DD 022301H
	DD	0700b320fH
xdata	ENDS
;	COMDAT xdata
xdata	SEGMENT
$unwind$?dtor$0@?0???1?$basic_string@DU?$char_traits@D@std@@V?$allocator@D@2@@std@@QEAA@XZ@4HA DD 031001H
	DD	0700c4210H
	DD	0500bH
xdata	ENDS
;	COMDAT xdata
xdata	SEGMENT
$ip2state$??1?$basic_string@DU?$char_traits@D@std@@V?$allocator@D@2@@std@@QEAA@XZ DB 06H
	DB	00H
	DB	00H
	DB	'<'
	DB	02H
	DB	0aeH
	DB	00H
xdata	ENDS
;	COMDAT xdata
xdata	SEGMENT
$stateUnwindMap$??1?$basic_string@DU?$char_traits@D@std@@V?$allocator@D@2@@std@@QEAA@XZ DB 02H
	DB	0eH
	DD	imagerel ?dtor$0@?0???1?$basic_string@DU?$char_traits@D@std@@V?$allocator@D@2@@std@@QEAA@XZ@4HA
xdata	ENDS
;	COMDAT xdata
xdata	SEGMENT
$cppxdata$??1?$basic_string@DU?$char_traits@D@std@@V?$allocator@D@2@@std@@QEAA@XZ DB 048H
	DD	imagerel $stateUnwindMap$??1?$basic_string@DU?$char_traits@D@std@@V?$allocator@D@2@@std@@QEAA@XZ
	DD	imagerel $ip2state$??1?$basic_string@DU?$char_traits@D@std@@V?$allocator@D@2@@std@@QEAA@XZ
xdata	ENDS
;	COMDAT xdata
xdata	SEGMENT
$unwind$??1?$basic_string@DU?$char_traits@D@std@@V?$allocator@D@2@@std@@QEAA@XZ DD 021e11H
	DD	07006920aH
	DD	imagerel __CxxFrameHandler4
	DD	imagerel $cppxdata$??1?$basic_string@DU?$char_traits@D@std@@V?$allocator@D@2@@std@@QEAA@XZ
xdata	ENDS
;	COMDAT CONST
CONST	SEGMENT
??1?$basic_string@DU?$char_traits@D@std@@V?$allocator@D@2@@std@@QEAA@XZ$rtcName$0 DB 024H ; std::basic_string<char,std::char_traits<char>,std::allocator<char> >::~basic_string<char,std::char_traits<char>,std::allocator<char> >
	DB	053H
	DB	039H
	DB	00H
	ORG $+12
??1?$basic_string@DU?$char_traits@D@std@@V?$allocator@D@2@@std@@QEAA@XZ$rtcVarDesc DD 034H ; std::basic_string<char,std::char_traits<char>,std::allocator<char> >::~basic_string<char,std::char_traits<char>,std::allocator<char> >
	DD	01H
	DQ	FLAT:??1?$basic_string@DU?$char_traits@D@std@@V?$allocator@D@2@@std@@QEAA@XZ$rtcName$0
	ORG $+48
??1?$basic_string@DU?$char_traits@D@std@@V?$allocator@D@2@@std@@QEAA@XZ$rtcFrameData DD 01H ; std::basic_string<char,std::char_traits<char>,std::allocator<char> >::~basic_string<char,std::char_traits<char>,std::allocator<char> >
	DD	00H
	DQ	FLAT:??1?$basic_string@DU?$char_traits@D@std@@V?$allocator@D@2@@std@@QEAA@XZ$rtcVarDesc
CONST	ENDS
;	COMDAT xdata
xdata	SEGMENT
$ip2state$?_Take_contents@?$basic_string@DU?$char_traits@D@std@@V?$allocator@D@2@@std@@AEAAXAEAV12@U?$integral_constant@_N$00@2@@Z DB 02H
	DB	00H
	DB	00H
xdata	ENDS
;	COMDAT xdata
xdata	SEGMENT
$cppxdata$?_Take_contents@?$basic_string@DU?$char_traits@D@std@@V?$allocator@D@2@@std@@AEAAXAEAV12@U?$integral_constant@_N$00@2@@Z DB 040H
	DD	imagerel $ip2state$?_Take_contents@?$basic_string@DU?$char_traits@D@std@@V?$allocator@D@2@@std@@AEAAXAEAV12@U?$integral_constant@_N$00@2@@Z
xdata	ENDS
;	COMDAT xdata
xdata	SEGMENT
$unwind$?_Take_contents@?$basic_string@DU?$char_traits@D@std@@V?$allocator@D@2@@std@@AEAAXAEAV12@U?$integral_constant@_N$00@2@@Z DD 022819H
	DD	070103214H
	DD	imagerel __CxxFrameHandler4
	DD	imagerel $cppxdata$?_Take_contents@?$basic_string@DU?$char_traits@D@std@@V?$allocator@D@2@@std@@AEAAXAEAV12@U?$integral_constant@_N$00@2@@Z
xdata	ENDS
;	COMDAT xdata
xdata	SEGMENT
$ip2state$?_Memcpy_val_from@?$basic_string@DU?$char_traits@D@std@@V?$allocator@D@2@@std@@AEAAXAEBV12@@Z DB 02H
	DB	00H
	DB	00H
xdata	ENDS
;	COMDAT xdata
xdata	SEGMENT
$cppxdata$?_Memcpy_val_from@?$basic_string@DU?$char_traits@D@std@@V?$allocator@D@2@@std@@AEAAXAEBV12@@Z DB 040H
	DD	imagerel $ip2state$?_Memcpy_val_from@?$basic_string@DU?$char_traits@D@std@@V?$allocator@D@2@@std@@AEAAXAEBV12@@Z
xdata	ENDS
;	COMDAT xdata
xdata	SEGMENT
$unwind$?_Memcpy_val_from@?$basic_string@DU?$char_traits@D@std@@V?$allocator@D@2@@std@@AEAAXAEBV12@@Z DD 022319H
	DD	0700b520fH
	DD	imagerel __CxxFrameHandler4
	DD	imagerel $cppxdata$?_Memcpy_val_from@?$basic_string@DU?$char_traits@D@std@@V?$allocator@D@2@@std@@AEAAXAEBV12@@Z
xdata	ENDS
;	COMDAT xdata
xdata	SEGMENT
$unwind$?dtor$0@?0???0?$basic_string@DU?$char_traits@D@std@@V?$allocator@D@2@@std@@QEAA@$$QEAV01@@Z@4HA DD 031001H
	DD	0700c4210H
	DD	0500bH
xdata	ENDS
;	COMDAT xdata
xdata	SEGMENT
$ip2state$??0?$basic_string@DU?$char_traits@D@std@@V?$allocator@D@2@@std@@QEAA@$$QEAV01@@Z DB 06H
	DB	00H
	DB	00H
	DB	094H
	DB	02H
	DB	09cH
	DB	00H
xdata	ENDS
;	COMDAT xdata
xdata	SEGMENT
$stateUnwindMap$??0?$basic_string@DU?$char_traits@D@std@@V?$allocator@D@2@@std@@QEAA@$$QEAV01@@Z DB 02H
	DB	0eH
	DD	imagerel ?dtor$0@?0???0?$basic_string@DU?$char_traits@D@std@@V?$allocator@D@2@@std@@QEAA@$$QEAV01@@Z@4HA
xdata	ENDS
;	COMDAT xdata
xdata	SEGMENT
$cppxdata$??0?$basic_string@DU?$char_traits@D@std@@V?$allocator@D@2@@std@@QEAA@$$QEAV01@@Z DB 048H
	DD	imagerel $stateUnwindMap$??0?$basic_string@DU?$char_traits@D@std@@V?$allocator@D@2@@std@@QEAA@$$QEAV01@@Z
	DD	imagerel $ip2state$??0?$basic_string@DU?$char_traits@D@std@@V?$allocator@D@2@@std@@QEAA@$$QEAV01@@Z
xdata	ENDS
;	COMDAT xdata
xdata	SEGMENT
$unwind$??0?$basic_string@DU?$char_traits@D@std@@V?$allocator@D@2@@std@@QEAA@$$QEAV01@@Z DD 022319H
	DD	0700b520fH
	DD	imagerel __CxxFrameHandler4
	DD	imagerel $cppxdata$??0?$basic_string@DU?$char_traits@D@std@@V?$allocator@D@2@@std@@QEAA@$$QEAV01@@Z
xdata	ENDS
;	COMDAT xdata
xdata	SEGMENT
$unwind$?dtor$1@?0???0?$basic_string@DU?$char_traits@D@std@@V?$allocator@D@2@@std@@QEAA@QEBD@Z@4HA DD 031001H
	DD	0700c4210H
	DD	0500bH
xdata	ENDS
;	COMDAT xdata
xdata	SEGMENT
$unwind$?dtor$0@?0???0?$basic_string@DU?$char_traits@D@std@@V?$allocator@D@2@@std@@QEAA@QEBD@Z@4HA DD 031001H
	DD	0700c4210H
	DD	0500bH
xdata	ENDS
;	COMDAT xdata
xdata	SEGMENT
$ip2state$??0?$basic_string@DU?$char_traits@D@std@@V?$allocator@D@2@@std@@QEAA@QEBD@Z DB 0aH
	DB	00H
	DB	00H
	DB	'~'
	DB	02H
	DB	'~'
	DB	04H
	DB	'Z'
	DB	02H
	DB	016H
	DB	00H
xdata	ENDS
;	COMDAT xdata
xdata	SEGMENT
$stateUnwindMap$??0?$basic_string@DU?$char_traits@D@std@@V?$allocator@D@2@@std@@QEAA@QEBD@Z DB 04H
	DB	0eH
	DD	imagerel ?dtor$0@?0???0?$basic_string@DU?$char_traits@D@std@@V?$allocator@D@2@@std@@QEAA@QEBD@Z@4HA
	DB	02eH
	DD	imagerel ?dtor$1@?0???0?$basic_string@DU?$char_traits@D@std@@V?$allocator@D@2@@std@@QEAA@QEBD@Z@4HA
xdata	ENDS
;	COMDAT xdata
xdata	SEGMENT
$cppxdata$??0?$basic_string@DU?$char_traits@D@std@@V?$allocator@D@2@@std@@QEAA@QEBD@Z DB 08H
	DD	imagerel $stateUnwindMap$??0?$basic_string@DU?$char_traits@D@std@@V?$allocator@D@2@@std@@QEAA@QEBD@Z
	DD	imagerel $ip2state$??0?$basic_string@DU?$char_traits@D@std@@V?$allocator@D@2@@std@@QEAA@QEBD@Z
xdata	ENDS
;	COMDAT xdata
xdata	SEGMENT
$unwind$??0?$basic_string@DU?$char_traits@D@std@@V?$allocator@D@2@@std@@QEAA@QEBD@Z DD 022911H
	DD	0700bf212H
	DD	imagerel __CxxFrameHandler4
	DD	imagerel $cppxdata$??0?$basic_string@DU?$char_traits@D@std@@V?$allocator@D@2@@std@@QEAA@QEBD@Z
xdata	ENDS
;	COMDAT CONST
CONST	SEGMENT
??0?$basic_string@DU?$char_traits@D@std@@V?$allocator@D@2@@std@@QEAA@QEBD@Z$rtcName$0 DB 024H ; std::basic_string<char,std::char_traits<char>,std::allocator<char> >::basic_string<char,std::char_traits<char>,std::allocator<char> >
	DB	053H
	DB	031H
	DB	031H
	DB	00H
	ORG $+3
??0?$basic_string@DU?$char_traits@D@std@@V?$allocator@D@2@@std@@QEAA@QEBD@Z$rtcName$1 DB 05fH ; std::basic_string<char,std::char_traits<char>,std::allocator<char> >::basic_string<char,std::char_traits<char>,std::allocator<char> >
	DB	050H
	DB	072H
	DB	06fH
	DB	078H
	DB	079H
	DB	00H
	ORG $+1
??0?$basic_string@DU?$char_traits@D@std@@V?$allocator@D@2@@std@@QEAA@QEBD@Z$rtcVarDesc DD 058H ; std::basic_string<char,std::char_traits<char>,std::allocator<char> >::basic_string<char,std::char_traits<char>,std::allocator<char> >
	DD	010H
	DQ	FLAT:??0?$basic_string@DU?$char_traits@D@std@@V?$allocator@D@2@@std@@QEAA@QEBD@Z$rtcName$1
	DD	034H
	DD	01H
	DQ	FLAT:??0?$basic_string@DU?$char_traits@D@std@@V?$allocator@D@2@@std@@QEAA@QEBD@Z$rtcName$0
	ORG $+96
??0?$basic_string@DU?$char_traits@D@std@@V?$allocator@D@2@@std@@QEAA@QEBD@Z$rtcFrameData DD 02H ; std::basic_string<char,std::char_traits<char>,std::allocator<char> >::basic_string<char,std::char_traits<char>,std::allocator<char> >
	DD	00H
	DQ	FLAT:??0?$basic_string@DU?$char_traits@D@std@@V?$allocator@D@2@@std@@QEAA@QEBD@Z$rtcVarDesc
CONST	ENDS
;	COMDAT xdata
xdata	SEGMENT
$unwind$?dtor$0@?0???0?$basic_string@DU?$char_traits@D@std@@V?$allocator@D@2@@std@@QEAA@XZ@4HA DD 031001H
	DD	0700c4210H
	DD	0500bH
xdata	ENDS
;	COMDAT xdata
xdata	SEGMENT
$ip2state$??0?$basic_string@DU?$char_traits@D@std@@V?$allocator@D@2@@std@@QEAA@XZ DB 06H
	DB	00H
	DB	00H
	DB	'b'
	DB	02H
	DB	'd'
	DB	00H
xdata	ENDS
;	COMDAT xdata
xdata	SEGMENT
$stateUnwindMap$??0?$basic_string@DU?$char_traits@D@std@@V?$allocator@D@2@@std@@QEAA@XZ DB 02H
	DB	0eH
	DD	imagerel ?dtor$0@?0???0?$basic_string@DU?$char_traits@D@std@@V?$allocator@D@2@@std@@QEAA@XZ@4HA
xdata	ENDS
;	COMDAT xdata
xdata	SEGMENT
$cppxdata$??0?$basic_string@DU?$char_traits@D@std@@V?$allocator@D@2@@std@@QEAA@XZ DB 048H
	DD	imagerel $stateUnwindMap$??0?$basic_string@DU?$char_traits@D@std@@V?$allocator@D@2@@std@@QEAA@XZ
	DD	imagerel $ip2state$??0?$basic_string@DU?$char_traits@D@std@@V?$allocator@D@2@@std@@QEAA@XZ
xdata	ENDS
;	COMDAT xdata
xdata	SEGMENT
$unwind$??0?$basic_string@DU?$char_traits@D@std@@V?$allocator@D@2@@std@@QEAA@XZ DD 021e19H
	DD	07006520aH
	DD	imagerel __CxxFrameHandler4
	DD	imagerel $cppxdata$??0?$basic_string@DU?$char_traits@D@std@@V?$allocator@D@2@@std@@QEAA@XZ
xdata	ENDS
;	COMDAT xdata
xdata	SEGMENT
$unwind$?dtor$0@?0???1?$_String_val@U?$_Simple_types@D@std@@@std@@QEAA@XZ@4HA DD 031001H
	DD	0700c4210H
	DD	0500bH
xdata	ENDS
;	COMDAT xdata
xdata	SEGMENT
$ip2state$??1?$_String_val@U?$_Simple_types@D@std@@@std@@QEAA@XZ DB 02H
	DB	00H
	DB	00H
xdata	ENDS
;	COMDAT xdata
xdata	SEGMENT
$stateUnwindMap$??1?$_String_val@U?$_Simple_types@D@std@@@std@@QEAA@XZ DB 02H
	DB	0eH
	DD	imagerel ?dtor$0@?0???1?$_String_val@U?$_Simple_types@D@std@@@std@@QEAA@XZ@4HA
xdata	ENDS
;	COMDAT xdata
xdata	SEGMENT
$cppxdata$??1?$_String_val@U?$_Simple_types@D@std@@@std@@QEAA@XZ DB 048H
	DD	imagerel $stateUnwindMap$??1?$_String_val@U?$_Simple_types@D@std@@@std@@QEAA@XZ
	DD	imagerel $ip2state$??1?$_String_val@U?$_Simple_types@D@std@@@std@@QEAA@XZ
xdata	ENDS
;	COMDAT xdata
xdata	SEGMENT
$unwind$??1?$_String_val@U?$_Simple_types@D@std@@@std@@QEAA@XZ DD 021e11H
	DD	07006320aH
	DD	imagerel __CxxFrameHandler4
	DD	imagerel $cppxdata$??1?$_String_val@U?$_Simple_types@D@std@@@std@@QEAA@XZ
xdata	ENDS
;	COMDAT xdata
xdata	SEGMENT
$unwind$??1_Bxty@?$_String_val@U?$_Simple_types@D@std@@@std@@QEAA@XZ DD 010601H
	DD	07006H
xdata	ENDS
;	COMDAT xdata
xdata	SEGMENT
$unwind$??0_Bxty@?$_String_val@U?$_Simple_types@D@std@@@std@@QEAA@XZ DD 010601H
	DD	07006H
xdata	ENDS
;	COMDAT xdata
xdata	SEGMENT
$unwind$?_Large_string_engaged@?$_String_val@U?$_Simple_types@D@std@@@std@@QEBA_NXZ DD 021e01H
	DD	07006120aH
xdata	ENDS
;	COMDAT xdata
xdata	SEGMENT
$unwind$?_Myptr@?$_String_val@U?$_Simple_types@D@std@@@std@@QEBAPEBDXZ DD 021e01H
	DD	07006520aH
xdata	ENDS
;	COMDAT xdata
xdata	SEGMENT
$unwind$?_Myptr@?$_String_val@U?$_Simple_types@D@std@@@std@@QEAAPEADXZ DD 021e01H
	DD	07006520aH
xdata	ENDS
;	COMDAT xdata
xdata	SEGMENT
$unwind$?dtor$0@?0???0?$_String_val@U?$_Simple_types@D@std@@@std@@QEAA@XZ@4HA DD 031001H
	DD	0700c4210H
	DD	0500bH
xdata	ENDS
;	COMDAT xdata
xdata	SEGMENT
$ip2state$??0?$_String_val@U?$_Simple_types@D@std@@@std@@QEAA@XZ DB 06H
	DB	00H
	DB	00H
	DB	't'
	DB	02H
	DB	'4'
	DB	00H
xdata	ENDS
;	COMDAT xdata
xdata	SEGMENT
$stateUnwindMap$??0?$_String_val@U?$_Simple_types@D@std@@@std@@QEAA@XZ DB 02H
	DB	0eH
	DD	imagerel ?dtor$0@?0???0?$_String_val@U?$_Simple_types@D@std@@@std@@QEAA@XZ@4HA
xdata	ENDS
;	COMDAT xdata
xdata	SEGMENT
$cppxdata$??0?$_String_val@U?$_Simple_types@D@std@@@std@@QEAA@XZ DB 08H
	DD	imagerel $stateUnwindMap$??0?$_String_val@U?$_Simple_types@D@std@@@std@@QEAA@XZ
	DD	imagerel $ip2state$??0?$_String_val@U?$_Simple_types@D@std@@@std@@QEAA@XZ
xdata	ENDS
;	COMDAT xdata
xdata	SEGMENT
$unwind$??0?$_String_val@U?$_Simple_types@D@std@@@std@@QEAA@XZ DD 021e11H
	DD	07006320aH
	DD	imagerel __CxxFrameHandler4
	DD	imagerel $cppxdata$??0?$_String_val@U?$_Simple_types@D@std@@@std@@QEAA@XZ
xdata	ENDS
;	COMDAT xdata
xdata	SEGMENT
$unwind$?max_size@?$_Default_allocator_traits@V?$allocator@D@std@@@std@@SA_KAEBV?$allocator@D@2@@Z DD 010601H
	DD	07006H
xdata	ENDS
;	COMDAT xdata
xdata	SEGMENT
$unwind$?allocate@?$allocator@D@std@@QEAAPEAD_K@Z DD 022301H
	DD	0700b320fH
xdata	ENDS
;	COMDAT xdata
xdata	SEGMENT
$unwind$?deallocate@?$allocator@D@std@@QEAAXQEAD_K@Z DD 022801H
	DD	070103214H
xdata	ENDS
;	COMDAT xdata
xdata	SEGMENT
$unwind$??0?$allocator@D@std@@QEAA@XZ DD 010601H
	DD	07006H
xdata	ENDS
;	COMDAT xdata
xdata	SEGMENT
$unwind$?assign@?$_Narrow_char_traits@DH@std@@SAXAEADAEBD@Z DD 010b01H
	DD	0700bH
xdata	ENDS
;	COMDAT xdata
xdata	SEGMENT
$ip2state$?move@?$_Narrow_char_traits@DH@std@@SAPEADQEADQEBD_K@Z DB 02H
	DB	00H
	DB	00H
xdata	ENDS
;	COMDAT xdata
xdata	SEGMENT
$cppxdata$?move@?$_Narrow_char_traits@DH@std@@SAPEADQEADQEBD_K@Z DB 040H
	DD	imagerel $ip2state$?move@?$_Narrow_char_traits@DH@std@@SAPEADQEADQEBD_K@Z
xdata	ENDS
;	COMDAT xdata
xdata	SEGMENT
$unwind$?move@?$_Narrow_char_traits@DH@std@@SAPEADQEADQEBD_K@Z DD 022819H
	DD	070103214H
	DD	imagerel __CxxFrameHandler4
	DD	imagerel $cppxdata$?move@?$_Narrow_char_traits@DH@std@@SAPEADQEADQEBD_K@Z
xdata	ENDS
;	COMDAT xdata
xdata	SEGMENT
$ip2state$?copy@?$_Narrow_char_traits@DH@std@@SAPEADQEADQEBD_K@Z DB 02H
	DB	00H
	DB	00H
xdata	ENDS
;	COMDAT xdata
xdata	SEGMENT
$cppxdata$?copy@?$_Narrow_char_traits@DH@std@@SAPEADQEADQEBD_K@Z DB 040H
	DD	imagerel $ip2state$?copy@?$_Narrow_char_traits@DH@std@@SAPEADQEADQEBD_K@Z
xdata	ENDS
;	COMDAT xdata
xdata	SEGMENT
$unwind$?copy@?$_Narrow_char_traits@DH@std@@SAPEADQEADQEBD_K@Z DD 022819H
	DD	070103214H
	DD	imagerel __CxxFrameHandler4
	DD	imagerel $cppxdata$?copy@?$_Narrow_char_traits@DH@std@@SAPEADQEADQEBD_K@Z
xdata	ENDS
;	COMDAT xdata
xdata	SEGMENT
$ip2state$?length@?$_Narrow_char_traits@DH@std@@SA_KQEBD@Z DB 02H
	DB	00H
	DB	00H
xdata	ENDS
;	COMDAT xdata
xdata	SEGMENT
$cppxdata$?length@?$_Narrow_char_traits@DH@std@@SA_KQEBD@Z DB 040H
	DD	imagerel $ip2state$?length@?$_Narrow_char_traits@DH@std@@SA_KQEBD@Z
xdata	ENDS
;	COMDAT xdata
xdata	SEGMENT
$unwind$?length@?$_Narrow_char_traits@DH@std@@SA_KQEBD@Z DD 021e19H
	DD	07006320aH
	DD	imagerel __CxxFrameHandler4
	DD	imagerel $cppxdata$?length@?$_Narrow_char_traits@DH@std@@SA_KQEBD@Z
xdata	ENDS
;	COMDAT xdata
xdata	SEGMENT
$unwind$??_GRGYPipeProcessWin@@UEAAPEAXI@Z DD 022201H
	DD	0700a320eH
xdata	ENDS
CONST	SEGMENT
	ORG $+2
?run@RGYPipeProcessWin@@UEAAHAEBV?$vector@PEBDV?$allocator@PEBD@std@@@std@@PEBDPEAUProcessPipe@@I_N3@Z$rtcName$0 DB 073H ; RGYPipeProcessWin::run
	DB	069H
	DB	00H
	ORG $+1
?startPipes@RGYPipeProcessWin@@MEAAHPEAUProcessPipe@@@Z$rtcName$0 DB 073H ; RGYPipeProcessWin::startPipes
	DB	061H
	DB	00H
	ORG $+1
?run@RGYPipeProcessWin@@UEAAHAEBV?$vector@PEBDV?$allocator@PEBD@std@@@std@@PEBDPEAUProcessPipe@@I_N3@Z$rtcName$1 DB 063H ; RGYPipeProcessWin::run
	DB	06dH
	DB	064H
	DB	05fH
	DB	06cH
	DB	069H
	DB	06eH
	DB	065H
	DB	00H
	ORG $+7
?run@RGYPipeProcessWin@@UEAAHAEBV?$vector@PEBDV?$allocator@PEBD@std@@@std@@PEBDPEAUProcessPipe@@I_N3@Z$rtcFrameData DD 02H ; RGYPipeProcessWin::run
	DD	00H
	DQ	FLAT:?run@RGYPipeProcessWin@@UEAAHAEBV?$vector@PEBDV?$allocator@PEBD@std@@@std@@PEBDPEAUProcessPipe@@I_N3@Z$rtcVarDesc
	ORG $+8
?run@RGYPipeProcessWin@@UEAAHAEBV?$vector@PEBDV?$allocator@PEBD@std@@@std@@PEBDPEAUProcessPipe@@I_N3@Z$rtcVarDesc DD 0f8H ; RGYPipeProcessWin::run
	DD	028H
	DQ	FLAT:?run@RGYPipeProcessWin@@UEAAHAEBV?$vector@PEBDV?$allocator@PEBD@std@@@std@@PEBDPEAUProcessPipe@@I_N3@Z$rtcName$1
	DD	070H
	DD	068H
	DQ	FLAT:?run@RGYPipeProcessWin@@UEAAHAEBV?$vector@PEBDV?$allocator@PEBD@std@@@std@@PEBDPEAUProcessPipe@@I_N3@Z$rtcName$0
	ORG $+96
?startPipes@RGYPipeProcessWin@@MEAAHPEAUProcessPipe@@@Z$rtcVarDesc DD 028H ; RGYPipeProcessWin::startPipes
	DD	018H
	DQ	FLAT:?startPipes@RGYPipeProcessWin@@MEAAHPEAUProcessPipe@@@Z$rtcName$0
	ORG $+48
?startPipes@RGYPipeProcessWin@@MEAAHPEAUProcessPipe@@@Z$rtcFrameData DD 01H ; RGYPipeProcessWin::startPipes
	DD	00H
	DQ	FLAT:?startPipes@RGYPipeProcessWin@@MEAAHPEAUProcessPipe@@@Z$rtcVarDesc
CONST	ENDS
xdata	SEGMENT
$unwind$??0RGYPipeProcessWin@@QEAA@XZ DD 021e11H
	DD	07006320aH
	DD	imagerel __CxxFrameHandler4
	DD	imagerel $cppxdata$??0RGYPipeProcessWin@@QEAA@XZ
$cppxdata$??0RGYPipeProcessWin@@QEAA@XZ DB 08H
	DD	imagerel $stateUnwindMap$??0RGYPipeProcessWin@@QEAA@XZ
	DD	imagerel $ip2state$??0RGYPipeProcessWin@@QEAA@XZ
$stateUnwindMap$??0RGYPipeProcessWin@@QEAA@XZ DB 02H
	DB	0eH
	DD	imagerel ?dtor$0@?0???0RGYPipeProcessWin@@QEAA@XZ@4HA
$ip2state$??0RGYPipeProcessWin@@QEAA@XZ DB 06H
	DB	00H
	DB	00H
	DB	'R'
	DB	02H
	DB	'R'
	DB	00H
$cppxdata$??1RGYPipeProcessWin@@UEAA@XZ DB 048H
	DD	imagerel $stateUnwindMap$??1RGYPipeProcessWin@@UEAA@XZ
	DD	imagerel $ip2state$??1RGYPipeProcessWin@@UEAA@XZ
$cppxdata$?run@RGYPipeProcessWin@@UEAAHAEBV?$vector@PEBDV?$allocator@PEBD@std@@@std@@PEBDPEAUProcessPipe@@I_N3@Z DB 08H
	DD	imagerel $stateUnwindMap$?run@RGYPipeProcessWin@@UEAAHAEBV?$vector@PEBDV?$allocator@PEBD@std@@@std@@PEBDPEAUProcessPipe@@I_N3@Z
	DD	imagerel $ip2state$?run@RGYPipeProcessWin@@UEAAHAEBV?$vector@PEBDV?$allocator@PEBD@std@@@std@@PEBDPEAUProcessPipe@@I_N3@Z
$unwind$?dtor$0@?0???0RGYPipeProcessWin@@QEAA@XZ@4HA DD 031001H
	DD	0700c4210H
	DD	0500bH
$unwind$??1RGYPipeProcessWin@@UEAA@XZ DD 021e11H
	DD	07006320aH
	DD	imagerel __CxxFrameHandler4
	DD	imagerel $cppxdata$??1RGYPipeProcessWin@@UEAA@XZ
$stateUnwindMap$??1RGYPipeProcessWin@@UEAA@XZ DB 02H
	DB	0eH
	DD	imagerel ?dtor$0@?0???1RGYPipeProcessWin@@UEAA@XZ@4HA
$ip2state$??1RGYPipeProcessWin@@UEAA@XZ DB 02H
	DB	00H
	DB	00H
$ip2state$?run@RGYPipeProcessWin@@UEAAHAEBV?$vector@PEBDV?$allocator@PEBD@std@@@std@@PEBDPEAUProcessPipe@@I_N3@Z DB 0eH
	DB	00H
	DB	00H
	DB	0d5H, 06H
	DB	02H
	DB	0d5H, 02H
	DB	04H
	DB	'h'
	DB	06H
	DB	','
	DB	04H
	DB	01cH
	DB	02H
	DB	0fdH, 06H
	DB	00H
	ORG $+1
$unwind$?dtor$0@?0???1RGYPipeProcessWin@@UEAA@XZ@4HA DD 031001H
	DD	0700c4210H
	DD	0500bH
$unwind$?init@RGYPipeProcessWin@@UEAAXXZ DD 021e01H
	DD	07006320aH
$unwind$?run@RGYPipeProcessWin@@UEAAHAEBV?$vector@PEBDV?$allocator@PEBD@std@@@std@@PEBDPEAUProcessPipe@@I_N3@Z DD 034519H
	DD	03e011cH
	DD	07015H
	DD	imagerel __GSHandlerCheck_EH4
	DD	imagerel $cppxdata$?run@RGYPipeProcessWin@@UEAAHAEBV?$vector@PEBDV?$allocator@PEBD@std@@@std@@PEBDPEAUProcessPipe@@I_N3@Z
	DD	01eaH
$stateUnwindMap$?run@RGYPipeProcessWin@@UEAAHAEBV?$vector@PEBDV?$allocator@PEBD@std@@@std@@PEBDPEAUProcessPipe@@I_N3@Z DB 06H
	DB	0eH
	DD	imagerel ?dtor$0@?0??run@RGYPipeProcessWin@@UEAAHAEBV?$vector@PEBDV?$allocator@PEBD@std@@@std@@PEBDPEAUProcessPipe@@I_N3@Z@4HA
	DB	02eH
	DD	imagerel ?dtor$1@?0??run@RGYPipeProcessWin@@UEAAHAEBV?$vector@PEBDV?$allocator@PEBD@std@@@std@@PEBDPEAUProcessPipe@@I_N3@Z@4HA
	DB	02eH
	DD	imagerel ?dtor$2@?0??run@RGYPipeProcessWin@@UEAAHAEBV?$vector@PEBDV?$allocator@PEBD@std@@@std@@PEBDPEAUProcessPipe@@I_N3@Z@4HA
$unwind$?dtor$0@?0??run@RGYPipeProcessWin@@UEAAHAEBV?$vector@PEBDV?$allocator@PEBD@std@@@std@@PEBDPEAUProcessPipe@@I_N3@Z@4HA DD 031001H
	DD	0700c4210H
	DD	0500bH
$unwind$?dtor$1@?0??run@RGYPipeProcessWin@@UEAAHAEBV?$vector@PEBDV?$allocator@PEBD@std@@@std@@PEBDPEAUProcessPipe@@I_N3@Z@4HA DD 031001H
	DD	0700c4210H
	DD	0500bH
$unwind$?dtor$2@?0??run@RGYPipeProcessWin@@UEAAHAEBV?$vector@PEBDV?$allocator@PEBD@std@@@std@@PEBDPEAUProcessPipe@@I_N3@Z@4HA DD 031001H
	DD	0700c4210H
	DD	0500bH
$unwind$?close@RGYPipeProcessWin@@UEAAXXZ DD 021e01H
	DD	07006320aH
$unwind$?processAlive@RGYPipeProcessWin@@UEAA_NXZ DD 021e01H
	DD	07006520aH
$unwind$?getProcessInfo@RGYPipeProcessWin@@QEAAAEBU_PROCESS_INFORMATION@@XZ DD 010601H
	DD	07006H
$unwind$?startPipes@RGYPipeProcessWin@@MEAAHPEAUProcessPipe@@@Z DD 022301H
	DD	0700b920fH
xdata	ENDS
;	COMDAT xdata
xdata	SEGMENT
$unwind$??_GRGYPipeProcess@@UEAAPEAXI@Z DD 022201H
	DD	0700a320eH
xdata	ENDS
;	COMDAT xdata
xdata	SEGMENT
$unwind$??1RGYPipeProcess@@UEAA@XZ DD 010601H
	DD	07006H
xdata	ENDS
;	COMDAT xdata
xdata	SEGMENT
$unwind$??0RGYPipeProcess@@QEAA@XZ DD 010601H
	DD	07006H
xdata	ENDS
;	COMDAT xdata
xdata	SEGMENT
$unwind$?_Release@_Basic_container_proxy_ptr12@std@@QEAAXXZ DD 010601H
	DD	07006H
xdata	ENDS
;	COMDAT xdata
xdata	SEGMENT
$unwind$?dtor$0@?0??_Swap_proxy_and_iterators@_Container_base12@std@@QEAAXAEAU12@@Z@4HA DD 031001H
	DD	0700c4210H
	DD	0500bH
xdata	ENDS
;	COMDAT xdata
xdata	SEGMENT
$ip2state$?_Swap_proxy_and_iterators@_Container_base12@std@@QEAAXAEAU12@@Z DB 06H
	DB	00H
	DB	00H
	DB	'h'
	DB	02H
	DB	0c0H
	DB	00H
xdata	ENDS
;	COMDAT xdata
xdata	SEGMENT
$stateUnwindMap$?_Swap_proxy_and_iterators@_Container_base12@std@@QEAAXAEAU12@@Z DB 02H
	DB	0eH
	DD	imagerel ?dtor$0@?0??_Swap_proxy_and_iterators@_Container_base12@std@@QEAAXAEAU12@@Z@4HA
xdata	ENDS
;	COMDAT xdata
xdata	SEGMENT
$cppxdata$?_Swap_proxy_and_iterators@_Container_base12@std@@QEAAXAEAU12@@Z DB 048H
	DD	imagerel $stateUnwindMap$?_Swap_proxy_and_iterators@_Container_base12@std@@QEAAXAEAU12@@Z
	DD	imagerel $ip2state$?_Swap_proxy_and_iterators@_Container_base12@std@@QEAAXAEAU12@@Z
xdata	ENDS
;	COMDAT xdata
xdata	SEGMENT
$unwind$?_Swap_proxy_and_iterators@_Container_base12@std@@QEAAXAEAU12@@Z DD 022319H
	DD	0700b720fH
	DD	imagerel __CxxFrameHandler4
	DD	imagerel $cppxdata$?_Swap_proxy_and_iterators@_Container_base12@std@@QEAAXAEAU12@@Z
xdata	ENDS
;	COMDAT CONST
CONST	SEGMENT
?_Swap_proxy_and_iterators@_Container_base12@std@@QEAAXAEAU12@@Z$rtcName$0 DB 05fH ; std::_Container_base12::_Swap_proxy_and_iterators
	DB	04cH
	DB	06fH
	DB	063H
	DB	06bH
	DB	00H
	ORG $+10
?_Swap_proxy_and_iterators@_Container_base12@std@@QEAAXAEAU12@@Z$rtcVarDesc DD 024H ; std::_Container_base12::_Swap_proxy_and_iterators
	DD	04H
	DQ	FLAT:?_Swap_proxy_and_iterators@_Container_base12@std@@QEAAXAEAU12@@Z$rtcName$0
	ORG $+48
?_Swap_proxy_and_iterators@_Container_base12@std@@QEAAXAEAU12@@Z$rtcFrameData DD 01H ; std::_Container_base12::_Swap_proxy_and_iterators
	DD	00H
	DQ	FLAT:?_Swap_proxy_and_iterators@_Container_base12@std@@QEAAXAEAU12@@Z$rtcVarDesc
CONST	ENDS
;	COMDAT xdata
xdata	SEGMENT
$unwind$?dtor$0@?0??_Orphan_all@_Container_base12@std@@QEAAXXZ@4HA DD 031001H
	DD	0700c4210H
	DD	0500bH
xdata	ENDS
;	COMDAT xdata
xdata	SEGMENT
$ip2state$?_Orphan_all@_Container_base12@std@@QEAAXXZ DB 06H
	DB	00H
	DB	00H
	DB	't'
	DB	02H
	DB	0a6H
	DB	00H
xdata	ENDS
;	COMDAT xdata
xdata	SEGMENT
$stateUnwindMap$?_Orphan_all@_Container_base12@std@@QEAAXXZ DB 02H
	DB	0eH
	DD	imagerel ?dtor$0@?0??_Orphan_all@_Container_base12@std@@QEAAXXZ@4HA
xdata	ENDS
;	COMDAT xdata
xdata	SEGMENT
$cppxdata$?_Orphan_all@_Container_base12@std@@QEAAXXZ DB 048H
	DD	imagerel $stateUnwindMap$?_Orphan_all@_Container_base12@std@@QEAAXXZ
	DD	imagerel $ip2state$?_Orphan_all@_Container_base12@std@@QEAAXXZ
xdata	ENDS
;	COMDAT xdata
xdata	SEGMENT
$unwind$?_Orphan_all@_Container_base12@std@@QEAAXXZ DD 021e19H
	DD	07006720aH
	DD	imagerel __CxxFrameHandler4
	DD	imagerel $cppxdata$?_Orphan_all@_Container_base12@std@@QEAAXXZ
xdata	ENDS
;	COMDAT CONST
CONST	SEGMENT
?_Orphan_all@_Container_base12@std@@QEAAXXZ$rtcName$0 DB 05fH ; std::_Container_base12::_Orphan_all
	DB	04cH
	DB	06fH
	DB	063H
	DB	06bH
	DB	00H
	ORG $+10
?_Orphan_all@_Container_base12@std@@QEAAXXZ$rtcVarDesc DD 024H ; std::_Container_base12::_Orphan_all
	DD	04H
	DQ	FLAT:?_Orphan_all@_Container_base12@std@@QEAAXXZ$rtcName$0
	ORG $+48
?_Orphan_all@_Container_base12@std@@QEAAXXZ$rtcFrameData DD 01H ; std::_Container_base12::_Orphan_all
	DD	00H
	DQ	FLAT:?_Orphan_all@_Container_base12@std@@QEAAXXZ$rtcVarDesc
CONST	ENDS
;	COMDAT xdata
xdata	SEGMENT
$unwind$??0_Container_base12@std@@QEAA@XZ DD 010601H
	DD	07006H
xdata	ENDS
;	COMDAT xdata
xdata	SEGMENT
$unwind$??0_Container_proxy@std@@QEAA@PEAU_Container_base12@1@@Z DD 010b01H
	DD	0700bH
xdata	ENDS
;	COMDAT xdata
xdata	SEGMENT
$unwind$??$_Convert_size@_K@std@@YA_K_K@Z DD 010601H
	DD	07006H
xdata	ENDS
;	COMDAT xdata
xdata	SEGMENT
$unwind$?_Adjust_manually_vector_aligned@std@@YAXAEAPEAXAEA_K@Z DD 022301H
	DD	0700b920fH
xdata	ENDS
;	COMDAT xdata
xdata	SEGMENT
$unwind$?_Allocate@_Default_allocate_traits@std@@SAPEAX_K@Z DD 021e01H
	DD	07006320aH
xdata	ENDS
;	COMDAT xdata
xdata	SEGMENT
$unwind$?_Throw_bad_array_new_length@std@@YAXXZ DD 021501H
	DD	070027206H
xdata	ENDS
;	COMDAT xdata
xdata	SEGMENT
$unwind$??_Gbad_array_new_length@std@@UEAAPEAXI@Z DD 022201H
	DD	0700a320eH
xdata	ENDS
;	COMDAT xdata
xdata	SEGMENT
$unwind$?dtor$0@?0???0bad_array_new_length@std@@QEAA@AEBV01@@Z@4HA DD 031001H
	DD	0700c4210H
	DD	0500bH
xdata	ENDS
;	COMDAT xdata
xdata	SEGMENT
$ip2state$??0bad_array_new_length@std@@QEAA@AEBV01@@Z DB 06H
	DB	00H
	DB	00H
	DB	'f'
	DB	02H
	DB	01eH
	DB	00H
xdata	ENDS
;	COMDAT xdata
xdata	SEGMENT
$stateUnwindMap$??0bad_array_new_length@std@@QEAA@AEBV01@@Z DB 02H
	DB	0eH
	DD	imagerel ?dtor$0@?0???0bad_array_new_length@std@@QEAA@AEBV01@@Z@4HA
xdata	ENDS
;	COMDAT xdata
xdata	SEGMENT
$cppxdata$??0bad_array_new_length@std@@QEAA@AEBV01@@Z DB 048H
	DD	imagerel $stateUnwindMap$??0bad_array_new_length@std@@QEAA@AEBV01@@Z
	DD	imagerel $ip2state$??0bad_array_new_length@std@@QEAA@AEBV01@@Z
xdata	ENDS
;	COMDAT xdata
xdata	SEGMENT
$unwind$??0bad_array_new_length@std@@QEAA@AEBV01@@Z DD 022311H
	DD	0700b320fH
	DD	imagerel __CxxFrameHandler4
	DD	imagerel $cppxdata$??0bad_array_new_length@std@@QEAA@AEBV01@@Z
xdata	ENDS
;	COMDAT xdata
xdata	SEGMENT
$unwind$?dtor$0@?0???1bad_array_new_length@std@@UEAA@XZ@4HA DD 031001H
	DD	0700c4210H
	DD	0500bH
xdata	ENDS
;	COMDAT xdata
xdata	SEGMENT
$ip2state$??1bad_array_new_length@std@@UEAA@XZ DB 02H
	DB	00H
	DB	00H
xdata	ENDS
;	COMDAT xdata
xdata	SEGMENT
$stateUnwindMap$??1bad_array_new_length@std@@UEAA@XZ DB 02H
	DB	0eH
	DD	imagerel ?dtor$0@?0???1bad_array_new_length@std@@UEAA@XZ@4HA
xdata	ENDS
;	COMDAT xdata
xdata	SEGMENT
$cppxdata$??1bad_array_new_length@std@@UEAA@XZ DB 048H
	DD	imagerel $stateUnwindMap$??1bad_array_new_length@std@@UEAA@XZ
	DD	imagerel $ip2state$??1bad_array_new_length@std@@UEAA@XZ
xdata	ENDS
;	COMDAT xdata
xdata	SEGMENT
$unwind$??1bad_array_new_length@std@@UEAA@XZ DD 021e11H
	DD	07006320aH
	DD	imagerel __CxxFrameHandler4
	DD	imagerel $cppxdata$??1bad_array_new_length@std@@UEAA@XZ
xdata	ENDS
;	COMDAT xdata
xdata	SEGMENT
$unwind$?dtor$0@?0???0bad_array_new_length@std@@QEAA@XZ@4HA DD 031001H
	DD	0700c4210H
	DD	0500bH
xdata	ENDS
;	COMDAT xdata
xdata	SEGMENT
$ip2state$??0bad_array_new_length@std@@QEAA@XZ DB 06H
	DB	00H
	DB	00H
	DB	'`'
	DB	02H
	DB	01eH
	DB	00H
xdata	ENDS
;	COMDAT xdata
xdata	SEGMENT
$stateUnwindMap$??0bad_array_new_length@std@@QEAA@XZ DB 02H
	DB	0eH
	DD	imagerel ?dtor$0@?0???0bad_array_new_length@std@@QEAA@XZ@4HA
xdata	ENDS
;	COMDAT xdata
xdata	SEGMENT
$cppxdata$??0bad_array_new_length@std@@QEAA@XZ DB 048H
	DD	imagerel $stateUnwindMap$??0bad_array_new_length@std@@QEAA@XZ
	DD	imagerel $ip2state$??0bad_array_new_length@std@@QEAA@XZ
xdata	ENDS
;	COMDAT xdata
xdata	SEGMENT
$unwind$??0bad_array_new_length@std@@QEAA@XZ DD 021e11H
	DD	07006320aH
	DD	imagerel __CxxFrameHandler4
	DD	imagerel $cppxdata$??0bad_array_new_length@std@@QEAA@XZ
xdata	ENDS
;	COMDAT xdata
xdata	SEGMENT
$unwind$??_Gbad_alloc@std@@UEAAPEAXI@Z DD 022201H
	DD	0700a320eH
xdata	ENDS
;	COMDAT xdata
xdata	SEGMENT
$unwind$?dtor$0@?0???0bad_alloc@std@@QEAA@AEBV01@@Z@4HA DD 031001H
	DD	0700c4210H
	DD	0500bH
xdata	ENDS
;	COMDAT xdata
xdata	SEGMENT
$ip2state$??0bad_alloc@std@@QEAA@AEBV01@@Z DB 06H
	DB	00H
	DB	00H
	DB	'f'
	DB	02H
	DB	01eH
	DB	00H
xdata	ENDS
;	COMDAT xdata
xdata	SEGMENT
$stateUnwindMap$??0bad_alloc@std@@QEAA@AEBV01@@Z DB 02H
	DB	0eH
	DD	imagerel ?dtor$0@?0???0bad_alloc@std@@QEAA@AEBV01@@Z@4HA
xdata	ENDS
;	COMDAT xdata
xdata	SEGMENT
$cppxdata$??0bad_alloc@std@@QEAA@AEBV01@@Z DB 048H
	DD	imagerel $stateUnwindMap$??0bad_alloc@std@@QEAA@AEBV01@@Z
	DD	imagerel $ip2state$??0bad_alloc@std@@QEAA@AEBV01@@Z
xdata	ENDS
;	COMDAT xdata
xdata	SEGMENT
$unwind$??0bad_alloc@std@@QEAA@AEBV01@@Z DD 022311H
	DD	0700b320fH
	DD	imagerel __CxxFrameHandler4
	DD	imagerel $cppxdata$??0bad_alloc@std@@QEAA@AEBV01@@Z
xdata	ENDS
;	COMDAT xdata
xdata	SEGMENT
$unwind$?dtor$0@?0???1bad_alloc@std@@UEAA@XZ@4HA DD 031001H
	DD	0700c4210H
	DD	0500bH
xdata	ENDS
;	COMDAT xdata
xdata	SEGMENT
$ip2state$??1bad_alloc@std@@UEAA@XZ DB 02H
	DB	00H
	DB	00H
xdata	ENDS
;	COMDAT xdata
xdata	SEGMENT
$stateUnwindMap$??1bad_alloc@std@@UEAA@XZ DB 02H
	DB	0eH
	DD	imagerel ?dtor$0@?0???1bad_alloc@std@@UEAA@XZ@4HA
xdata	ENDS
;	COMDAT xdata
xdata	SEGMENT
$cppxdata$??1bad_alloc@std@@UEAA@XZ DB 048H
	DD	imagerel $stateUnwindMap$??1bad_alloc@std@@UEAA@XZ
	DD	imagerel $ip2state$??1bad_alloc@std@@UEAA@XZ
xdata	ENDS
;	COMDAT xdata
xdata	SEGMENT
$unwind$??1bad_alloc@std@@UEAA@XZ DD 021e11H
	DD	07006320aH
	DD	imagerel __CxxFrameHandler4
	DD	imagerel $cppxdata$??1bad_alloc@std@@UEAA@XZ
xdata	ENDS
;	COMDAT xdata
xdata	SEGMENT
$unwind$?dtor$0@?0???0bad_alloc@std@@AEAA@QEBD@Z@4HA DD 031001H
	DD	0700c4210H
	DD	0500bH
xdata	ENDS
;	COMDAT xdata
xdata	SEGMENT
$ip2state$??0bad_alloc@std@@AEAA@QEBD@Z DB 06H
	DB	00H
	DB	00H
	DB	'r'
	DB	02H
	DB	01eH
	DB	00H
xdata	ENDS
;	COMDAT xdata
xdata	SEGMENT
$stateUnwindMap$??0bad_alloc@std@@AEAA@QEBD@Z DB 02H
	DB	0eH
	DD	imagerel ?dtor$0@?0???0bad_alloc@std@@AEAA@QEBD@Z@4HA
xdata	ENDS
;	COMDAT xdata
xdata	SEGMENT
$cppxdata$??0bad_alloc@std@@AEAA@QEBD@Z DB 048H
	DD	imagerel $stateUnwindMap$??0bad_alloc@std@@AEAA@QEBD@Z
	DD	imagerel $ip2state$??0bad_alloc@std@@AEAA@QEBD@Z
xdata	ENDS
;	COMDAT xdata
xdata	SEGMENT
$unwind$??0bad_alloc@std@@AEAA@QEBD@Z DD 022311H
	DD	0700b320fH
	DD	imagerel __CxxFrameHandler4
	DD	imagerel $cppxdata$??0bad_alloc@std@@AEAA@QEBD@Z
xdata	ENDS
;	COMDAT xdata
xdata	SEGMENT
$unwind$??_Gexception@std@@UEAAPEAXI@Z DD 022201H
	DD	0700a320eH
xdata	ENDS
;	COMDAT xdata
xdata	SEGMENT
$unwind$?what@exception@std@@UEBAPEBDXZ DD 021e01H
	DD	07006120aH
xdata	ENDS
;	COMDAT xdata
xdata	SEGMENT
$ip2state$??1exception@std@@UEAA@XZ DB 02H
	DB	00H
	DB	00H
xdata	ENDS
;	COMDAT xdata
xdata	SEGMENT
$cppxdata$??1exception@std@@UEAA@XZ DB 040H
	DD	imagerel $ip2state$??1exception@std@@UEAA@XZ
xdata	ENDS
;	COMDAT xdata
xdata	SEGMENT
$unwind$??1exception@std@@UEAA@XZ DD 021e19H
	DD	07006320aH
	DD	imagerel __CxxFrameHandler4
	DD	imagerel $cppxdata$??1exception@std@@UEAA@XZ
xdata	ENDS
;	COMDAT xdata
xdata	SEGMENT
$ip2state$??0exception@std@@QEAA@AEBV01@@Z DB 02H
	DB	00H
	DB	00H
xdata	ENDS
;	COMDAT xdata
xdata	SEGMENT
$cppxdata$??0exception@std@@QEAA@AEBV01@@Z DB 040H
	DD	imagerel $ip2state$??0exception@std@@QEAA@AEBV01@@Z
xdata	ENDS
;	COMDAT xdata
xdata	SEGMENT
$unwind$??0exception@std@@QEAA@AEBV01@@Z DD 022319H
	DD	0700b320fH
	DD	imagerel __CxxFrameHandler4
	DD	imagerel $cppxdata$??0exception@std@@QEAA@AEBV01@@Z
xdata	ENDS
;	COMDAT xdata
xdata	SEGMENT
$unwind$??0exception@std@@QEAA@QEBDH@Z DD 011001H
	DD	07010H
xdata	ENDS
;	COMDAT xdata
xdata	SEGMENT
$unwind$?max@?$numeric_limits@_J@std@@SA_JXZ DD 010201H
	DD	07002H
xdata	ENDS
;	COMDAT xdata
xdata	SEGMENT
$unwind$??2@YAPEAX_KPEAX@Z DD 010b01H
	DD	0700bH
xdata	ENDS
;	COMDAT xdata
xdata	SEGMENT
$unwind$?__empty_global_delete@@YAXPEAX_K@Z DD 010b01H
	DD	0700bH
xdata	ENDS
;	COMDAT xdata
xdata	SEGMENT
$unwind$?__empty_global_delete@@YAXPEAX@Z DD 010601H
	DD	07006H
xdata	ENDS
CRT$XCU	SEGMENT
?CspTransferList$initializer$@@3P6AXXZEA DQ FLAT:??__ECspTransferList@@YAXXZ ; CspTransferList$initializer$
CRT$XCU	ENDS
CRT$XCU	SEGMENT
?CspColorprimList$initializer$@@3P6AXXZEA DQ FLAT:??__ECspColorprimList@@YAXXZ ; CspColorprimList$initializer$
CRT$XCU	ENDS
; Function compile flags: /Odtp /RTCsu
; File C:\Program Files (x86)\Microsoft Visual Studio\2019\Community\VC\Tools\MSVC\14.23.28105\include\xmemory
;	COMDAT ?deallocate@?$_Default_allocator_traits@V?$allocator@U_Container_proxy@std@@@std@@@std@@SAXAEAV?$allocator@U_Container_proxy@std@@@2@QEAU_Container_proxy@2@_K@Z
_TEXT	SEGMENT
__formal$ = 48
_Ptr$ = 56
_Count$ = 64
?deallocate@?$_Default_allocator_traits@V?$allocator@U_Container_proxy@std@@@std@@@std@@SAXAEAV?$allocator@U_Container_proxy@std@@@2@QEAU_Container_proxy@2@_K@Z PROC ; std::_Default_allocator_traits<std::allocator<std::_Container_proxy> >::deallocate, COMDAT

; 751  :     static void deallocate(_Alloc&, const pointer _Ptr, const size_type _Count) {

$LN3:
  00000	4c 89 44 24 18	 mov	 QWORD PTR [rsp+24], r8
  00005	48 89 54 24 10	 mov	 QWORD PTR [rsp+16], rdx
  0000a	48 89 4c 24 08	 mov	 QWORD PTR [rsp+8], rcx
  0000f	57		 push	 rdi
  00010	48 83 ec 20	 sub	 rsp, 32			; 00000020H
  00014	48 8b fc	 mov	 rdi, rsp
  00017	b9 08 00 00 00	 mov	 ecx, 8
  0001c	b8 cc cc cc cc	 mov	 eax, -858993460		; ccccccccH
  00021	f3 ab		 rep stosd
  00023	48 8b 4c 24 30	 mov	 rcx, QWORD PTR [rsp+48]

; 752  :         // no overflow check on the following multiply; we assume _Allocate did that check
; 753  :         _Deallocate<_New_alignof<value_type>>(_Ptr, sizeof(value_type) * _Count);

  00028	48 6b 44 24 40
	10		 imul	 rax, QWORD PTR _Count$[rsp], 16
  0002e	48 8b d0	 mov	 rdx, rax
  00031	48 8b 4c 24 38	 mov	 rcx, QWORD PTR _Ptr$[rsp]
  00036	e8 00 00 00 00	 call	 ??$_Deallocate@$0BA@$0A@@std@@YAXPEAX_K@Z ; std::_Deallocate<16,0>

; 754  :     }

  0003b	48 83 c4 20	 add	 rsp, 32			; 00000020H
  0003f	5f		 pop	 rdi
  00040	c3		 ret	 0
?deallocate@?$_Default_allocator_traits@V?$allocator@U_Container_proxy@std@@@std@@@std@@SAXAEAV?$allocator@U_Container_proxy@std@@@2@QEAU_Container_proxy@2@_K@Z ENDP ; std::_Default_allocator_traits<std::allocator<std::_Container_proxy> >::deallocate
_TEXT	ENDS
; Function compile flags: /Odtp /RTCsu
; File C:\Program Files (x86)\Microsoft Visual Studio\2019\Community\VC\Tools\MSVC\14.23.28105\include\xmemory
;	COMDAT ??$_Allocate_manually_vector_aligned@U_Default_allocate_traits@std@@@std@@YAPEAX_K@Z
_TEXT	SEGMENT
_Block_size$ = 48
_Ptr_container$ = 56
_Ptr$ = 64
_Bytes$ = 96
??$_Allocate_manually_vector_aligned@U_Default_allocate_traits@std@@@std@@YAPEAX_K@Z PROC ; std::_Allocate_manually_vector_aligned<std::_Default_allocate_traits>, COMDAT

; 83   : _DECLSPEC_ALLOCATOR void* _Allocate_manually_vector_aligned(const size_t _Bytes) {

$LN13:
  00000	48 89 4c 24 08	 mov	 QWORD PTR [rsp+8], rcx
  00005	57		 push	 rdi
  00006	48 83 ec 50	 sub	 rsp, 80			; 00000050H
  0000a	48 8b fc	 mov	 rdi, rsp
  0000d	b9 14 00 00 00	 mov	 ecx, 20
  00012	b8 cc cc cc cc	 mov	 eax, -858993460		; ccccccccH
  00017	f3 ab		 rep stosd
  00019	48 8b 4c 24 60	 mov	 rcx, QWORD PTR [rsp+96]

; 84   :     // allocate _Bytes manually aligned to at least _Big_allocation_alignment
; 85   :     const size_t _Block_size = _Non_user_size + _Bytes;

  0001e	48 8b 44 24 60	 mov	 rax, QWORD PTR _Bytes$[rsp]
  00023	48 83 c0 2f	 add	 rax, 47			; 0000002fH
  00027	48 89 44 24 30	 mov	 QWORD PTR _Block_size$[rsp], rax

; 86   :     if (_Block_size <= _Bytes) {

  0002c	48 8b 44 24 60	 mov	 rax, QWORD PTR _Bytes$[rsp]
  00031	48 39 44 24 30	 cmp	 QWORD PTR _Block_size$[rsp], rax
  00036	77 05		 ja	 SHORT $LN8@Allocate_m

; 87   :         _Throw_bad_array_new_length(); // add overflow

  00038	e8 00 00 00 00	 call	 ?_Throw_bad_array_new_length@std@@YAXXZ ; std::_Throw_bad_array_new_length
$LN8@Allocate_m:

; 88   :     }
; 89   : 
; 90   :     const uintptr_t _Ptr_container = reinterpret_cast<uintptr_t>(_Traits::_Allocate(_Block_size));

  0003d	48 8b 4c 24 30	 mov	 rcx, QWORD PTR _Block_size$[rsp]
  00042	e8 00 00 00 00	 call	 ?_Allocate@_Default_allocate_traits@std@@SAPEAX_K@Z ; std::_Default_allocate_traits::_Allocate
  00047	48 89 44 24 38	 mov	 QWORD PTR _Ptr_container$[rsp], rax
$LN4@Allocate_m:

; 91   :     _STL_VERIFY(_Ptr_container != 0, "invalid argument"); // validate even in release since we're doing p[-1]

  0004c	48 83 7c 24 38
	00		 cmp	 QWORD PTR _Ptr_container$[rsp], 0
  00052	74 02		 je	 SHORT $LN9@Allocate_m
  00054	eb 6b		 jmp	 SHORT $LN10@Allocate_m
$LN9@Allocate_m:
$LN7@Allocate_m:
  00056	48 8d 05 00 00
	00 00		 lea	 rax, OFFSET FLAT:$SG122919
  0005d	48 89 44 24 28	 mov	 QWORD PTR [rsp+40], rax
  00062	48 8d 05 00 00
	00 00		 lea	 rax, OFFSET FLAT:$SG122920
  00069	48 89 44 24 20	 mov	 QWORD PTR [rsp+32], rax
  0006e	45 33 c9	 xor	 r9d, r9d
  00071	41 b8 5b 00 00
	00		 mov	 r8d, 91			; 0000005bH
  00077	48 8d 15 00 00
	00 00		 lea	 rdx, OFFSET FLAT:$SG122921
  0007e	b9 02 00 00 00	 mov	 ecx, 2
  00083	ff 15 00 00 00
	00		 call	 QWORD PTR __imp__CrtDbgReport
  00089	83 f8 01	 cmp	 eax, 1
  0008c	75 03		 jne	 SHORT $LN12@Allocate_m
  0008e	cc		 int	 3
  0008f	33 c0		 xor	 eax, eax
$LN12@Allocate_m:
  00091	48 c7 44 24 20
	00 00 00 00	 mov	 QWORD PTR [rsp+32], 0
  0009a	41 b9 5b 00 00
	00		 mov	 r9d, 91			; 0000005bH
  000a0	4c 8d 05 00 00
	00 00		 lea	 r8, OFFSET FLAT:$SG122922
  000a7	48 8d 15 00 00
	00 00		 lea	 rdx, OFFSET FLAT:$SG122923
  000ae	48 8d 0d 00 00
	00 00		 lea	 rcx, OFFSET FLAT:$SG122924
  000b5	ff 15 00 00 00
	00		 call	 QWORD PTR __imp__invalid_parameter
  000bb	33 c0		 xor	 eax, eax
  000bd	85 c0		 test	 eax, eax
  000bf	75 95		 jne	 SHORT $LN7@Allocate_m
$LN10@Allocate_m:
  000c1	33 c0		 xor	 eax, eax
  000c3	85 c0		 test	 eax, eax
  000c5	75 85		 jne	 SHORT $LN4@Allocate_m

; 92   :     void* const _Ptr = reinterpret_cast<void*>((_Ptr_container + _Non_user_size) & ~(_Big_allocation_alignment - 1));

  000c7	48 8b 44 24 38	 mov	 rax, QWORD PTR _Ptr_container$[rsp]
  000cc	48 83 c0 2f	 add	 rax, 47			; 0000002fH
  000d0	48 83 e0 e0	 and	 rax, -32		; ffffffffffffffe0H
  000d4	48 89 44 24 40	 mov	 QWORD PTR _Ptr$[rsp], rax

; 93   :     static_cast<uintptr_t*>(_Ptr)[-1] = _Ptr_container;

  000d9	b8 08 00 00 00	 mov	 eax, 8
  000de	48 6b c0 ff	 imul	 rax, rax, -1
  000e2	48 8b 4c 24 40	 mov	 rcx, QWORD PTR _Ptr$[rsp]
  000e7	48 8b 54 24 38	 mov	 rdx, QWORD PTR _Ptr_container$[rsp]
  000ec	48 89 14 01	 mov	 QWORD PTR [rcx+rax], rdx

; 94   : 
; 95   : #ifdef _DEBUG
; 96   :     static_cast<uintptr_t*>(_Ptr)[-2] = _Big_allocation_sentinel;

  000f0	b8 08 00 00 00	 mov	 eax, 8
  000f5	48 6b c0 fe	 imul	 rax, rax, -2
  000f9	48 8b 4c 24 40	 mov	 rcx, QWORD PTR _Ptr$[rsp]
  000fe	48 ba fa fa fa
	fa fa fa fa fa	 mov	 rdx, -361700864190383366 ; fafafafafafafafaH
  00108	48 89 14 01	 mov	 QWORD PTR [rcx+rax], rdx

; 97   : #endif // _DEBUG
; 98   :     return _Ptr;

  0010c	48 8b 44 24 40	 mov	 rax, QWORD PTR _Ptr$[rsp]
$LN11@Allocate_m:

; 99   : }

  00111	48 83 c4 50	 add	 rsp, 80			; 00000050H
  00115	5f		 pop	 rdi
  00116	c3		 ret	 0
??$_Allocate_manually_vector_aligned@U_Default_allocate_traits@std@@@std@@YAPEAX_K@Z ENDP ; std::_Allocate_manually_vector_aligned<std::_Default_allocate_traits>
_TEXT	ENDS
; Function compile flags: /Odtp /RTCsu
; File C:\Program Files (x86)\Microsoft Visual Studio\2019\Community\VC\Tools\MSVC\14.23.28105\include\type_traits
;	COMDAT ??$forward@AEBQEAD@std@@YAAEBQEADAEBQEAD@Z
_TEXT	SEGMENT
_Arg$ = 16
??$forward@AEBQEAD@std@@YAAEBQEADAEBQEAD@Z PROC		; std::forward<char * const &>, COMDAT

; 1420 :     remove_reference_t<_Ty>& _Arg) noexcept { // forward an lvalue as either an lvalue or an rvalue

$LN3:
  00000	48 89 4c 24 08	 mov	 QWORD PTR [rsp+8], rcx
  00005	57		 push	 rdi

; 1421 :     return static_cast<_Ty&&>(_Arg);

  00006	48 8b 44 24 10	 mov	 rax, QWORD PTR _Arg$[rsp]

; 1422 : }

  0000b	5f		 pop	 rdi
  0000c	c3		 ret	 0
??$forward@AEBQEAD@std@@YAAEBQEADAEBQEAD@Z ENDP		; std::forward<char * const &>
_TEXT	ENDS
; Function compile flags: /Odtp /RTCsu
; File C:\Program Files (x86)\Microsoft Visual Studio\2019\Community\VC\Tools\MSVC\14.23.28105\include\xstddef
;	COMDAT ??$addressof@PEAD@std@@YAPEAPEADAEAPEAD@Z
_TEXT	SEGMENT
_Val$ = 16
??$addressof@PEAD@std@@YAPEAPEADAEAPEAD@Z PROC		; std::addressof<char *>, COMDAT

; 279  : _NODISCARD constexpr _Ty* addressof(_Ty& _Val) noexcept { // return address of _Val

$LN3:
  00000	48 89 4c 24 08	 mov	 QWORD PTR [rsp+8], rcx
  00005	57		 push	 rdi

; 280  :     return __builtin_addressof(_Val);

  00006	48 8b 44 24 10	 mov	 rax, QWORD PTR _Val$[rsp]

; 281  : }

  0000b	5f		 pop	 rdi
  0000c	c3		 ret	 0
??$addressof@PEAD@std@@YAPEAPEADAEAPEAD@Z ENDP		; std::addressof<char *>
_TEXT	ENDS
; Function compile flags: /Odtp /RTCsu
; File C:\Program Files (x86)\Microsoft Visual Studio\2019\Community\VC\Tools\MSVC\14.23.28105\include\type_traits
;	COMDAT ??$forward@PEAU_Container_base12@std@@@std@@YA$$QEAPEAU_Container_base12@0@AEAPEAU10@@Z
_TEXT	SEGMENT
_Arg$ = 16
??$forward@PEAU_Container_base12@std@@@std@@YA$$QEAPEAU_Container_base12@0@AEAPEAU10@@Z PROC ; std::forward<std::_Container_base12 *>, COMDAT

; 1420 :     remove_reference_t<_Ty>& _Arg) noexcept { // forward an lvalue as either an lvalue or an rvalue

$LN3:
  00000	48 89 4c 24 08	 mov	 QWORD PTR [rsp+8], rcx
  00005	57		 push	 rdi

; 1421 :     return static_cast<_Ty&&>(_Arg);

  00006	48 8b 44 24 10	 mov	 rax, QWORD PTR _Arg$[rsp]

; 1422 : }

  0000b	5f		 pop	 rdi
  0000c	c3		 ret	 0
??$forward@PEAU_Container_base12@std@@@std@@YA$$QEAPEAU_Container_base12@0@AEAPEAU10@@Z ENDP ; std::forward<std::_Container_base12 *>
_TEXT	ENDS
; Function compile flags: /Odtp /RTCsu
; File C:\Program Files (x86)\Microsoft Visual Studio\2019\Community\VC\Tools\MSVC\14.23.28105\include\xstddef
;	COMDAT ??$addressof@U_Container_proxy@std@@@std@@YAPEAU_Container_proxy@0@AEAU10@@Z
_TEXT	SEGMENT
_Val$ = 16
??$addressof@U_Container_proxy@std@@@std@@YAPEAU_Container_proxy@0@AEAU10@@Z PROC ; std::addressof<std::_Container_proxy>, COMDAT

; 279  : _NODISCARD constexpr _Ty* addressof(_Ty& _Val) noexcept { // return address of _Val

$LN3:
  00000	48 89 4c 24 08	 mov	 QWORD PTR [rsp+8], rcx
  00005	57		 push	 rdi

; 280  :     return __builtin_addressof(_Val);

  00006	48 8b 44 24 10	 mov	 rax, QWORD PTR _Val$[rsp]

; 281  : }

  0000b	5f		 pop	 rdi
  0000c	c3		 ret	 0
??$addressof@U_Container_proxy@std@@@std@@YAPEAU_Container_proxy@0@AEAU10@@Z ENDP ; std::addressof<std::_Container_proxy>
_TEXT	ENDS
; Function compile flags: /Odtp /RTCsu
; File C:\Program Files (x86)\Microsoft Visual Studio\2019\Community\VC\Tools\MSVC\14.23.28105\include\type_traits
;	COMDAT ??$forward@V?$allocator@D@std@@@std@@YA$$QEAV?$allocator@D@0@AEAV10@@Z
_TEXT	SEGMENT
_Arg$ = 16
??$forward@V?$allocator@D@std@@@std@@YA$$QEAV?$allocator@D@0@AEAV10@@Z PROC ; std::forward<std::allocator<char> >, COMDAT

; 1420 :     remove_reference_t<_Ty>& _Arg) noexcept { // forward an lvalue as either an lvalue or an rvalue

$LN3:
  00000	48 89 4c 24 08	 mov	 QWORD PTR [rsp+8], rcx
  00005	57		 push	 rdi

; 1421 :     return static_cast<_Ty&&>(_Arg);

  00006	48 8b 44 24 10	 mov	 rax, QWORD PTR _Arg$[rsp]

; 1422 : }

  0000b	5f		 pop	 rdi
  0000c	c3		 ret	 0
??$forward@V?$allocator@D@std@@@std@@YA$$QEAV?$allocator@D@0@AEAV10@@Z ENDP ; std::forward<std::allocator<char> >
_TEXT	ENDS
; Function compile flags: /Odtp /RTCsu
; File C:\Program Files (x86)\Microsoft Visual Studio\2019\Community\VC\Tools\MSVC\14.23.28105\include\xmemory
;	COMDAT ??$_Deallocate_plain@V?$allocator@U_Container_proxy@std@@@std@@@std@@YAXAEAV?$allocator@U_Container_proxy@std@@@0@QEAU_Container_proxy@0@@Z
_TEXT	SEGMENT
_Al$ = 48
_Ptr$ = 56
??$_Deallocate_plain@V?$allocator@U_Container_proxy@std@@@std@@@std@@YAXAEAV?$allocator@U_Container_proxy@std@@@0@QEAU_Container_proxy@0@@Z PROC ; std::_Deallocate_plain<std::allocator<std::_Container_proxy> >, COMDAT

; 1081 : void _Deallocate_plain(_Alloc& _Al, typename _Alloc::value_type* const _Ptr) noexcept {

$LN3:
  00000	48 89 54 24 10	 mov	 QWORD PTR [rsp+16], rdx
  00005	48 89 4c 24 08	 mov	 QWORD PTR [rsp+8], rcx
  0000a	57		 push	 rdi
  0000b	48 83 ec 20	 sub	 rsp, 32			; 00000020H
  0000f	48 8b fc	 mov	 rdi, rsp
  00012	b9 08 00 00 00	 mov	 ecx, 8
  00017	b8 cc cc cc cc	 mov	 eax, -858993460		; ccccccccH
  0001c	f3 ab		 rep stosd
  0001e	48 8b 4c 24 30	 mov	 rcx, QWORD PTR [rsp+48]

; 1082 :     // deallocate a plain pointer using an allocator
; 1083 :     using _Alloc_traits = allocator_traits<_Alloc>;
; 1084 :     if constexpr (is_same_v<_Alloc_ptr_t<_Alloc>, typename _Alloc::value_type*>) {
; 1085 :         _Alloc_traits::deallocate(_Al, _Ptr, 1);

  00023	41 b8 01 00 00
	00		 mov	 r8d, 1
  00029	48 8b 54 24 38	 mov	 rdx, QWORD PTR _Ptr$[rsp]
  0002e	48 8b 4c 24 30	 mov	 rcx, QWORD PTR _Al$[rsp]
  00033	e8 00 00 00 00	 call	 ?deallocate@?$_Default_allocator_traits@V?$allocator@U_Container_proxy@std@@@std@@@std@@SAXAEAV?$allocator@U_Container_proxy@std@@@2@QEAU_Container_proxy@2@_K@Z ; std::_Default_allocator_traits<std::allocator<std::_Container_proxy> >::deallocate
  00038	90		 npad	 1

; 1086 :     } else {
; 1087 :         using _Ptr_traits = pointer_traits<_Alloc_ptr_t<_Alloc>>;
; 1088 :         _Alloc_traits::deallocate(_Al, _Ptr_traits::pointer_to(*_Ptr), 1);
; 1089 :     }
; 1090 : }

  00039	48 83 c4 20	 add	 rsp, 32			; 00000020H
  0003d	5f		 pop	 rdi
  0003e	c3		 ret	 0
??$_Deallocate_plain@V?$allocator@U_Container_proxy@std@@@std@@@std@@YAXAEAV?$allocator@U_Container_proxy@std@@@0@QEAU_Container_proxy@0@@Z ENDP ; std::_Deallocate_plain<std::allocator<std::_Container_proxy> >
_TEXT	ENDS
; Function compile flags: /Odtp /RTCsu
; File C:\Program Files (x86)\Microsoft Visual Studio\2019\Community\VC\Tools\MSVC\14.23.28105\include\xmemory
;	COMDAT ??$_Get_size_of_n@$0BA@@std@@YA_K_K@Z
_TEXT	SEGMENT
_Overflow_is_possible$ = 32
_Max_possible$1 = 40
_Count$ = 64
??$_Get_size_of_n@$0BA@@std@@YA_K_K@Z PROC		; std::_Get_size_of_n<16>, COMDAT

; 24   : _NODISCARD constexpr size_t _Get_size_of_n(const size_t _Count) {

$LN4:
  00000	48 89 4c 24 08	 mov	 QWORD PTR [rsp+8], rcx
  00005	57		 push	 rdi
  00006	48 83 ec 30	 sub	 rsp, 48			; 00000030H
  0000a	48 8b fc	 mov	 rdi, rsp
  0000d	b9 0c 00 00 00	 mov	 ecx, 12
  00012	b8 cc cc cc cc	 mov	 eax, -858993460		; ccccccccH
  00017	f3 ab		 rep stosd
  00019	48 8b 4c 24 40	 mov	 rcx, QWORD PTR [rsp+64]

; 25   :     constexpr bool _Overflow_is_possible = _Ty_size > 1;

  0001e	c6 44 24 20 01	 mov	 BYTE PTR _Overflow_is_possible$[rsp], 1

; 26   : 
; 27   :     if
; 28   :         _CONSTEXPR_IF(_Overflow_is_possible) {
; 29   :             constexpr size_t _Max_possible = static_cast<size_t>(-1) / _Ty_size;

  00023	48 b8 ff ff ff
	ff ff ff ff 0f	 mov	 rax, 1152921504606846975 ; 0fffffffffffffffH
  0002d	48 89 44 24 28	 mov	 QWORD PTR _Max_possible$1[rsp], rax

; 30   :             if (_Count > _Max_possible) {

  00032	48 b8 ff ff ff
	ff ff ff ff 0f	 mov	 rax, 1152921504606846975 ; 0fffffffffffffffH
  0003c	48 39 44 24 40	 cmp	 QWORD PTR _Count$[rsp], rax
  00041	76 05		 jbe	 SHORT $LN2@Get_size_o

; 31   :                 _Throw_bad_array_new_length(); // multiply overflow

  00043	e8 00 00 00 00	 call	 ?_Throw_bad_array_new_length@std@@YAXXZ ; std::_Throw_bad_array_new_length
$LN2@Get_size_o:

; 32   :             }
; 33   :         }
; 34   : 
; 35   :     return _Count * _Ty_size;

  00048	48 6b 44 24 40
	10		 imul	 rax, QWORD PTR _Count$[rsp], 16
$LN3@Get_size_o:

; 36   : }

  0004e	48 83 c4 30	 add	 rsp, 48			; 00000030H
  00052	5f		 pop	 rdi
  00053	c3		 ret	 0
??$_Get_size_of_n@$0BA@@std@@YA_K_K@Z ENDP		; std::_Get_size_of_n<16>
_TEXT	ENDS
; Function compile flags: /Odtp /RTCsu
; File C:\Program Files (x86)\Microsoft Visual Studio\2019\Community\VC\Tools\MSVC\14.23.28105\include\xmemory
;	COMDAT ??$_Deallocate@$0BA@$0A@@std@@YAXPEAX_K@Z
_TEXT	SEGMENT
_Ptr$ = 48
_Bytes$ = 56
??$_Deallocate@$0BA@$0A@@std@@YAXPEAX_K@Z PROC		; std::_Deallocate<16,0>, COMDAT

; 183  : void _Deallocate(void* _Ptr, size_t _Bytes) noexcept {

$LN4:
  00000	48 89 54 24 10	 mov	 QWORD PTR [rsp+16], rdx
  00005	48 89 4c 24 08	 mov	 QWORD PTR [rsp+8], rcx
  0000a	57		 push	 rdi
  0000b	48 83 ec 20	 sub	 rsp, 32			; 00000020H
  0000f	48 8b fc	 mov	 rdi, rsp
  00012	b9 08 00 00 00	 mov	 ecx, 8
  00017	b8 cc cc cc cc	 mov	 eax, -858993460		; ccccccccH
  0001c	f3 ab		 rep stosd
  0001e	48 8b 4c 24 30	 mov	 rcx, QWORD PTR [rsp+48]

; 184  :     // deallocate storage allocated by _Allocate when !_HAS_ALIGNED_NEW || _Align <= __STDCPP_DEFAULT_NEW_ALIGNMENT__
; 185  : #if defined(_M_IX86) || defined(_M_X64)
; 186  :     if (_Bytes >= _Big_allocation_threshold) { // boost the alignment of big allocations to help autovectorization

  00023	48 81 7c 24 38
	00 10 00 00	 cmp	 QWORD PTR _Bytes$[rsp], 4096 ; 00001000H
  0002c	72 10		 jb	 SHORT $LN2@Deallocate

; 187  :         _Adjust_manually_vector_aligned(_Ptr, _Bytes);

  0002e	48 8d 54 24 38	 lea	 rdx, QWORD PTR _Bytes$[rsp]
  00033	48 8d 4c 24 30	 lea	 rcx, QWORD PTR _Ptr$[rsp]
  00038	e8 00 00 00 00	 call	 ?_Adjust_manually_vector_aligned@std@@YAXAEAPEAXAEA_K@Z ; std::_Adjust_manually_vector_aligned
  0003d	90		 npad	 1
$LN2@Deallocate:

; 188  :     }
; 189  : #endif // defined(_M_IX86) || defined(_M_X64)
; 190  : 
; 191  :     ::operator delete(_Ptr, _Bytes);

  0003e	48 8b 54 24 38	 mov	 rdx, QWORD PTR _Bytes$[rsp]
  00043	48 8b 4c 24 30	 mov	 rcx, QWORD PTR _Ptr$[rsp]
  00048	e8 00 00 00 00	 call	 ??3@YAXPEAX_K@Z		; operator delete
  0004d	90		 npad	 1

; 192  : }

  0004e	48 83 c4 20	 add	 rsp, 32			; 00000020H
  00052	5f		 pop	 rdi
  00053	c3		 ret	 0
??$_Deallocate@$0BA@$0A@@std@@YAXPEAX_K@Z ENDP		; std::_Deallocate<16,0>
_TEXT	ENDS
; Function compile flags: /Odtp /RTCsu
; File C:\Program Files (x86)\Microsoft Visual Studio\2019\Community\VC\Tools\MSVC\14.23.28105\include\xmemory
;	COMDAT ??$_Allocate@$0BA@U_Default_allocate_traits@std@@$0A@@std@@YAPEAX_K@Z
_TEXT	SEGMENT
_Bytes$ = 48
??$_Allocate@$0BA@U_Default_allocate_traits@std@@$0A@@std@@YAPEAX_K@Z PROC ; std::_Allocate<16,std::_Default_allocate_traits,0>, COMDAT

; 167  : _DECLSPEC_ALLOCATOR void* _Allocate(const size_t _Bytes) {

$LN5:
  00000	48 89 4c 24 08	 mov	 QWORD PTR [rsp+8], rcx
  00005	57		 push	 rdi
  00006	48 83 ec 20	 sub	 rsp, 32			; 00000020H
  0000a	48 8b fc	 mov	 rdi, rsp
  0000d	b9 08 00 00 00	 mov	 ecx, 8
  00012	b8 cc cc cc cc	 mov	 eax, -858993460		; ccccccccH
  00017	f3 ab		 rep stosd
  00019	48 8b 4c 24 30	 mov	 rcx, QWORD PTR [rsp+48]

; 168  :     // allocate _Bytes when !_HAS_ALIGNED_NEW || _Align <= __STDCPP_DEFAULT_NEW_ALIGNMENT__
; 169  : #if defined(_M_IX86) || defined(_M_X64)
; 170  :     if (_Bytes >= _Big_allocation_threshold) { // boost the alignment of big allocations to help autovectorization

  0001e	48 81 7c 24 30
	00 10 00 00	 cmp	 QWORD PTR _Bytes$[rsp], 4096 ; 00001000H
  00027	72 0c		 jb	 SHORT $LN2@Allocate

; 171  :         return _Allocate_manually_vector_aligned<_Traits>(_Bytes);

  00029	48 8b 4c 24 30	 mov	 rcx, QWORD PTR _Bytes$[rsp]
  0002e	e8 00 00 00 00	 call	 ??$_Allocate_manually_vector_aligned@U_Default_allocate_traits@std@@@std@@YAPEAX_K@Z ; std::_Allocate_manually_vector_aligned<std::_Default_allocate_traits>
  00033	eb 16		 jmp	 SHORT $LN1@Allocate
$LN2@Allocate:

; 172  :     }
; 173  : #endif // defined(_M_IX86) || defined(_M_X64)
; 174  : 
; 175  :     if (_Bytes != 0) {

  00035	48 83 7c 24 30
	00		 cmp	 QWORD PTR _Bytes$[rsp], 0
  0003b	74 0c		 je	 SHORT $LN3@Allocate

; 176  :         return _Traits::_Allocate(_Bytes);

  0003d	48 8b 4c 24 30	 mov	 rcx, QWORD PTR _Bytes$[rsp]
  00042	e8 00 00 00 00	 call	 ?_Allocate@_Default_allocate_traits@std@@SAPEAX_K@Z ; std::_Default_allocate_traits::_Allocate
  00047	eb 02		 jmp	 SHORT $LN1@Allocate
$LN3@Allocate:

; 177  :     }
; 178  : 
; 179  :     return nullptr;

  00049	33 c0		 xor	 eax, eax
$LN1@Allocate:

; 180  : }

  0004b	48 83 c4 20	 add	 rsp, 32			; 00000020H
  0004f	5f		 pop	 rdi
  00050	c3		 ret	 0
??$_Allocate@$0BA@U_Default_allocate_traits@std@@$0A@@std@@YAPEAX_K@Z ENDP ; std::_Allocate<16,std::_Default_allocate_traits,0>
_TEXT	ENDS
; Function compile flags: /Odtp /RTCsu
; File C:\Program Files (x86)\Microsoft Visual Studio\2019\Community\VC\Tools\MSVC\14.23.28105\include\xmemory
;	COMDAT ??$_Get_size_of_n@$00@std@@YA_K_K@Z
_TEXT	SEGMENT
_Overflow_is_possible$ = 0
_Count$ = 32
??$_Get_size_of_n@$00@std@@YA_K_K@Z PROC		; std::_Get_size_of_n<1>, COMDAT

; 24   : _NODISCARD constexpr size_t _Get_size_of_n(const size_t _Count) {

$LN3:
  00000	48 89 4c 24 08	 mov	 QWORD PTR [rsp+8], rcx
  00005	57		 push	 rdi
  00006	48 83 ec 10	 sub	 rsp, 16
  0000a	48 8b fc	 mov	 rdi, rsp
  0000d	b9 04 00 00 00	 mov	 ecx, 4
  00012	b8 cc cc cc cc	 mov	 eax, -858993460		; ccccccccH
  00017	f3 ab		 rep stosd
  00019	48 8b 4c 24 20	 mov	 rcx, QWORD PTR [rsp+32]

; 25   :     constexpr bool _Overflow_is_possible = _Ty_size > 1;

  0001e	c6 04 24 00	 mov	 BYTE PTR _Overflow_is_possible$[rsp], 0

; 26   : 
; 27   :     if
; 28   :         _CONSTEXPR_IF(_Overflow_is_possible) {
; 29   :             constexpr size_t _Max_possible = static_cast<size_t>(-1) / _Ty_size;
; 30   :             if (_Count > _Max_possible) {
; 31   :                 _Throw_bad_array_new_length(); // multiply overflow
; 32   :             }
; 33   :         }
; 34   : 
; 35   :     return _Count * _Ty_size;

  00022	48 8b 44 24 20	 mov	 rax, QWORD PTR _Count$[rsp]

; 36   : }

  00027	48 83 c4 10	 add	 rsp, 16
  0002b	5f		 pop	 rdi
  0002c	c3		 ret	 0
??$_Get_size_of_n@$00@std@@YA_K_K@Z ENDP		; std::_Get_size_of_n<1>
_TEXT	ENDS
; Function compile flags: /Odtp /RTCsu
; File C:\Program Files (x86)\Microsoft Visual Studio\2019\Community\VC\Tools\MSVC\14.23.28105\include\xmemory
;	COMDAT ??$_Construct_in_place@PEADAEBQEAD@std@@YAXAEAPEADAEBQEAD@Z
_TEXT	SEGMENT
$T1 = 32
_Obj$ = 64
<_Args_0>$ = 72
??$_Construct_in_place@PEADAEBQEAD@std@@YAXAEAPEADAEBQEAD@Z PROC ; std::_Construct_in_place<char *,char * const &>, COMDAT

; 198  : void _Construct_in_place(_Ty& _Obj, _Types&&... _Args) _NOEXCEPT_COND(is_nothrow_constructible_v<_Ty, _Types...>) {

$LN3:
  00000	48 89 54 24 10	 mov	 QWORD PTR [rsp+16], rdx
  00005	48 89 4c 24 08	 mov	 QWORD PTR [rsp+8], rcx
  0000a	57		 push	 rdi
  0000b	48 83 ec 30	 sub	 rsp, 48			; 00000030H
  0000f	48 8b fc	 mov	 rdi, rsp
  00012	b9 0c 00 00 00	 mov	 ecx, 12
  00017	b8 cc cc cc cc	 mov	 eax, -858993460		; ccccccccH
  0001c	f3 ab		 rep stosd
  0001e	48 8b 4c 24 40	 mov	 rcx, QWORD PTR [rsp+64]

; 199  :     ::new (const_cast<void*>(static_cast<const volatile void*>(_STD addressof(_Obj))))

  00023	48 8b 4c 24 40	 mov	 rcx, QWORD PTR _Obj$[rsp]
  00028	e8 00 00 00 00	 call	 ??$addressof@PEAD@std@@YAPEAPEADAEAPEAD@Z ; std::addressof<char *>
  0002d	48 8b d0	 mov	 rdx, rax
  00030	b9 08 00 00 00	 mov	 ecx, 8
  00035	e8 00 00 00 00	 call	 ??2@YAPEAX_KPEAX@Z	; operator new
  0003a	48 89 44 24 20	 mov	 QWORD PTR $T1[rsp], rax
  0003f	48 8b 4c 24 48	 mov	 rcx, QWORD PTR <_Args_0>$[rsp]
  00044	e8 00 00 00 00	 call	 ??$forward@AEBQEAD@std@@YAAEBQEADAEBQEAD@Z ; std::forward<char * const &>
  00049	48 8b 4c 24 20	 mov	 rcx, QWORD PTR $T1[rsp]
  0004e	48 8b 00	 mov	 rax, QWORD PTR [rax]
  00051	48 89 01	 mov	 QWORD PTR [rcx], rax

; 200  :         _Ty(_STD forward<_Types>(_Args)...);
; 201  : }

  00054	48 83 c4 30	 add	 rsp, 48			; 00000030H
  00058	5f		 pop	 rdi
  00059	c3		 ret	 0
??$_Construct_in_place@PEADAEBQEAD@std@@YAXAEAPEADAEBQEAD@Z ENDP ; std::_Construct_in_place<char *,char * const &>
_TEXT	ENDS
; Function compile flags: /Odtp /RTCsu
; File C:\Program Files (x86)\Microsoft Visual Studio\2019\Community\VC\Tools\MSVC\14.23.28105\include\xstring
;	COMDAT ??$_Reallocate_grow_by@V<lambda_65e615be2a453ca0576c979606f46740>@@PEBD_K@?$basic_string@DU?$char_traits@D@std@@V?$allocator@D@2@@std@@AEAAAEAV01@_KV<lambda_65e615be2a453ca0576c979606f46740>@@PEBD_K@Z
_TEXT	SEGMENT
_My_data$ = 48
_Old_size$ = 56
_New_size$ = 64
_Old_capacity$ = 72
_New_capacity$ = 80
_Al$ = 88
_New_ptr$ = 104
_Raw_new$ = 120
_Old_ptr$4 = 128
this$ = 160
_Size_increase$ = 168
_Fn$ = 176
<_Args_0>$ = 184
<_Args_1>$ = 192
??$_Reallocate_grow_by@V<lambda_65e615be2a453ca0576c979606f46740>@@PEBD_K@?$basic_string@DU?$char_traits@D@std@@V?$allocator@D@2@@std@@AEAAAEAV01@_KV<lambda_65e615be2a453ca0576c979606f46740>@@PEBD_K@Z PROC ; std::basic_string<char,std::char_traits<char>,std::allocator<char> >::_Reallocate_grow_by<<lambda_65e615be2a453ca0576c979606f46740>,char const *,unsigned __int64>, COMDAT

; 4108 :     basic_string& _Reallocate_grow_by(const size_type _Size_increase, _Fty _Fn, _ArgTys... _Args) {

$LN6:
  00000	4c 89 4c 24 20	 mov	 QWORD PTR [rsp+32], r9
  00005	44 88 44 24 18	 mov	 BYTE PTR [rsp+24], r8b
  0000a	48 89 54 24 10	 mov	 QWORD PTR [rsp+16], rdx
  0000f	48 89 4c 24 08	 mov	 QWORD PTR [rsp+8], rcx
  00014	57		 push	 rdi
  00015	48 81 ec 90 00
	00 00		 sub	 rsp, 144		; 00000090H
  0001c	48 8b fc	 mov	 rdi, rsp
  0001f	b9 24 00 00 00	 mov	 ecx, 36			; 00000024H
  00024	b8 cc cc cc cc	 mov	 eax, -858993460		; ccccccccH
  00029	f3 ab		 rep stosd
  0002b	48 8b 8c 24 a0
	00 00 00	 mov	 rcx, QWORD PTR [rsp+160]

; 4109 :         // reallocate to increase size by _Size_increase elements, new buffer prepared by
; 4110 :         // _Fn(_New_ptr, _Old_ptr, _Old_size, _Args...)
; 4111 :         auto& _My_data            = _Mypair._Myval2;

  00033	48 8b 84 24 a0
	00 00 00	 mov	 rax, QWORD PTR this$[rsp]
  0003b	48 89 44 24 30	 mov	 QWORD PTR _My_data$[rsp], rax

; 4112 :         const size_type _Old_size = _My_data._Mysize;

  00040	48 8b 44 24 30	 mov	 rax, QWORD PTR _My_data$[rsp]
  00045	48 8b 40 18	 mov	 rax, QWORD PTR [rax+24]
  00049	48 89 44 24 38	 mov	 QWORD PTR _Old_size$[rsp], rax

; 4113 :         if (max_size() - _Old_size < _Size_increase) {

  0004e	48 8b 8c 24 a0
	00 00 00	 mov	 rcx, QWORD PTR this$[rsp]
  00056	e8 00 00 00 00	 call	 ?max_size@?$basic_string@DU?$char_traits@D@std@@V?$allocator@D@2@@std@@QEBA_KXZ ; std::basic_string<char,std::char_traits<char>,std::allocator<char> >::max_size
  0005b	48 2b 44 24 38	 sub	 rax, QWORD PTR _Old_size$[rsp]
  00060	48 3b 84 24 a8
	00 00 00	 cmp	 rax, QWORD PTR _Size_increase$[rsp]
  00068	73 05		 jae	 SHORT $LN2@Reallocate

; 4114 :             _Xlen(); // result too long

  0006a	e8 00 00 00 00	 call	 ?_Xlen@?$basic_string@DU?$char_traits@D@std@@V?$allocator@D@2@@std@@CAXXZ ; std::basic_string<char,std::char_traits<char>,std::allocator<char> >::_Xlen
$LN2@Reallocate:

; 4115 :         }
; 4116 : 
; 4117 :         const size_type _New_size     = _Old_size + _Size_increase;

  0006f	48 8b 84 24 a8
	00 00 00	 mov	 rax, QWORD PTR _Size_increase$[rsp]
  00077	48 8b 4c 24 38	 mov	 rcx, QWORD PTR _Old_size$[rsp]
  0007c	48 03 c8	 add	 rcx, rax
  0007f	48 8b c1	 mov	 rax, rcx
  00082	48 89 44 24 40	 mov	 QWORD PTR _New_size$[rsp], rax

; 4118 :         const size_type _Old_capacity = _My_data._Myres;

  00087	48 8b 44 24 30	 mov	 rax, QWORD PTR _My_data$[rsp]
  0008c	48 8b 40 20	 mov	 rax, QWORD PTR [rax+32]
  00090	48 89 44 24 48	 mov	 QWORD PTR _Old_capacity$[rsp], rax

; 4119 :         const size_type _New_capacity = _Calculate_growth(_New_size);

  00095	48 8b 54 24 40	 mov	 rdx, QWORD PTR _New_size$[rsp]
  0009a	48 8b 8c 24 a0
	00 00 00	 mov	 rcx, QWORD PTR this$[rsp]
  000a2	e8 00 00 00 00	 call	 ?_Calculate_growth@?$basic_string@DU?$char_traits@D@std@@V?$allocator@D@2@@std@@AEBA_K_K@Z ; std::basic_string<char,std::char_traits<char>,std::allocator<char> >::_Calculate_growth
  000a7	48 89 44 24 50	 mov	 QWORD PTR _New_capacity$[rsp], rax

; 4120 :         auto& _Al                     = _Getal();

  000ac	48 8b 8c 24 a0
	00 00 00	 mov	 rcx, QWORD PTR this$[rsp]
  000b4	e8 00 00 00 00	 call	 ?_Getal@?$basic_string@DU?$char_traits@D@std@@V?$allocator@D@2@@std@@AEAAAEAV?$allocator@D@2@XZ ; std::basic_string<char,std::char_traits<char>,std::allocator<char> >::_Getal
  000b9	48 89 44 24 58	 mov	 QWORD PTR _Al$[rsp], rax

; 4121 :         const pointer _New_ptr        = _Al.allocate(_New_capacity + 1); // throws

  000be	48 8b 44 24 50	 mov	 rax, QWORD PTR _New_capacity$[rsp]
  000c3	48 ff c0	 inc	 rax
  000c6	48 8b d0	 mov	 rdx, rax
  000c9	48 8b 4c 24 58	 mov	 rcx, QWORD PTR _Al$[rsp]
  000ce	e8 00 00 00 00	 call	 ?allocate@?$allocator@D@std@@QEAAPEAD_K@Z ; std::allocator<char>::allocate
  000d3	48 89 44 24 68	 mov	 QWORD PTR _New_ptr$[rsp], rax

; 4122 :         _My_data._Orphan_all();

  000d8	48 8b 4c 24 30	 mov	 rcx, QWORD PTR _My_data$[rsp]
  000dd	e8 00 00 00 00	 call	 ?_Orphan_all@_Container_base12@std@@QEAAXXZ ; std::_Container_base12::_Orphan_all

; 4123 :         _My_data._Mysize      = _New_size;

  000e2	48 8b 44 24 30	 mov	 rax, QWORD PTR _My_data$[rsp]
  000e7	48 8b 4c 24 40	 mov	 rcx, QWORD PTR _New_size$[rsp]
  000ec	48 89 48 18	 mov	 QWORD PTR [rax+24], rcx

; 4124 :         _My_data._Myres       = _New_capacity;

  000f0	48 8b 44 24 30	 mov	 rax, QWORD PTR _My_data$[rsp]
  000f5	48 8b 4c 24 50	 mov	 rcx, QWORD PTR _New_capacity$[rsp]
  000fa	48 89 48 20	 mov	 QWORD PTR [rax+32], rcx

; 4125 :         _Elem* const _Raw_new = _Unfancy(_New_ptr);

  000fe	48 8b 4c 24 68	 mov	 rcx, QWORD PTR _New_ptr$[rsp]
  00103	e8 00 00 00 00	 call	 ??$_Unfancy@D@std@@YAPEADPEAD@Z ; std::_Unfancy<char>
  00108	48 89 44 24 78	 mov	 QWORD PTR _Raw_new$[rsp], rax

; 4126 :         if (_BUF_SIZE <= _Old_capacity) {

  0010d	48 83 7c 24 48
	10		 cmp	 QWORD PTR _Old_capacity$[rsp], 16
  00113	72 7f		 jb	 SHORT $LN3@Reallocate

; 4127 :             const pointer _Old_ptr = _My_data._Bx._Ptr;

  00115	48 8b 44 24 30	 mov	 rax, QWORD PTR _My_data$[rsp]
  0011a	48 8b 40 08	 mov	 rax, QWORD PTR [rax+8]
  0011e	48 89 84 24 80
	00 00 00	 mov	 QWORD PTR _Old_ptr$4[rsp], rax

; 4128 :             _Fn(_Raw_new, _Unfancy(_Old_ptr), _Old_size, _Args...);

  00126	48 8b 8c 24 80
	00 00 00	 mov	 rcx, QWORD PTR _Old_ptr$4[rsp]
  0012e	e8 00 00 00 00	 call	 ??$_Unfancy@D@std@@YAPEADPEAD@Z ; std::_Unfancy<char>
  00133	48 8b 8c 24 c0
	00 00 00	 mov	 rcx, QWORD PTR <_Args_1>$[rsp]
  0013b	48 89 4c 24 28	 mov	 QWORD PTR [rsp+40], rcx
  00140	48 8b 8c 24 b8
	00 00 00	 mov	 rcx, QWORD PTR <_Args_0>$[rsp]
  00148	48 89 4c 24 20	 mov	 QWORD PTR [rsp+32], rcx
  0014d	4c 8b 4c 24 38	 mov	 r9, QWORD PTR _Old_size$[rsp]
  00152	4c 8b c0	 mov	 r8, rax
  00155	48 8b 54 24 78	 mov	 rdx, QWORD PTR _Raw_new$[rsp]
  0015a	48 8d 8c 24 b0
	00 00 00	 lea	 rcx, QWORD PTR _Fn$[rsp]
  00162	e8 00 00 00 00	 call	 ??R<lambda_65e615be2a453ca0576c979606f46740>@@QEBAXQEADQEBD_K12@Z ; <lambda_65e615be2a453ca0576c979606f46740>::operator()

; 4129 :             _Al.deallocate(_Old_ptr, _Old_capacity + 1);

  00167	48 8b 44 24 48	 mov	 rax, QWORD PTR _Old_capacity$[rsp]
  0016c	48 ff c0	 inc	 rax
  0016f	4c 8b c0	 mov	 r8, rax
  00172	48 8b 94 24 80
	00 00 00	 mov	 rdx, QWORD PTR _Old_ptr$4[rsp]
  0017a	48 8b 4c 24 58	 mov	 rcx, QWORD PTR _Al$[rsp]
  0017f	e8 00 00 00 00	 call	 ?deallocate@?$allocator@D@std@@QEAAXQEAD_K@Z ; std::allocator<char>::deallocate

; 4130 :             _My_data._Bx._Ptr = _New_ptr;

  00184	48 8b 44 24 30	 mov	 rax, QWORD PTR _My_data$[rsp]
  00189	48 8b 4c 24 68	 mov	 rcx, QWORD PTR _New_ptr$[rsp]
  0018e	48 89 48 08	 mov	 QWORD PTR [rax+8], rcx

; 4131 :         } else {

  00192	eb 53		 jmp	 SHORT $LN4@Reallocate
$LN3@Reallocate:

; 4132 :             _Fn(_Raw_new, _My_data._Bx._Buf, _Old_size, _Args...);

  00194	48 8b 44 24 30	 mov	 rax, QWORD PTR _My_data$[rsp]
  00199	48 83 c0 08	 add	 rax, 8
  0019d	48 8b 8c 24 c0
	00 00 00	 mov	 rcx, QWORD PTR <_Args_1>$[rsp]
  001a5	48 89 4c 24 28	 mov	 QWORD PTR [rsp+40], rcx
  001aa	48 8b 8c 24 b8
	00 00 00	 mov	 rcx, QWORD PTR <_Args_0>$[rsp]
  001b2	48 89 4c 24 20	 mov	 QWORD PTR [rsp+32], rcx
  001b7	4c 8b 4c 24 38	 mov	 r9, QWORD PTR _Old_size$[rsp]
  001bc	4c 8b c0	 mov	 r8, rax
  001bf	48 8b 54 24 78	 mov	 rdx, QWORD PTR _Raw_new$[rsp]
  001c4	48 8d 8c 24 b0
	00 00 00	 lea	 rcx, QWORD PTR _Fn$[rsp]
  001cc	e8 00 00 00 00	 call	 ??R<lambda_65e615be2a453ca0576c979606f46740>@@QEBAXQEADQEBD_K12@Z ; <lambda_65e615be2a453ca0576c979606f46740>::operator()

; 4133 :             _Construct_in_place(_My_data._Bx._Ptr, _New_ptr);

  001d1	48 8b 44 24 30	 mov	 rax, QWORD PTR _My_data$[rsp]
  001d6	48 83 c0 08	 add	 rax, 8
  001da	48 8d 54 24 68	 lea	 rdx, QWORD PTR _New_ptr$[rsp]
  001df	48 8b c8	 mov	 rcx, rax
  001e2	e8 00 00 00 00	 call	 ??$_Construct_in_place@PEADAEBQEAD@std@@YAXAEAPEADAEBQEAD@Z ; std::_Construct_in_place<char *,char * const &>
$LN4@Reallocate:

; 4134 :         }
; 4135 : 
; 4136 :         return *this;

  001e7	48 8b 84 24 a0
	00 00 00	 mov	 rax, QWORD PTR this$[rsp]
$LN5@Reallocate:

; 4137 :     }

  001ef	48 8b f8	 mov	 rdi, rax
  001f2	48 8b cc	 mov	 rcx, rsp
  001f5	48 8d 15 00 00
	00 00		 lea	 rdx, OFFSET FLAT:??$_Reallocate_grow_by@V<lambda_65e615be2a453ca0576c979606f46740>@@PEBD_K@?$basic_string@DU?$char_traits@D@std@@V?$allocator@D@2@@std@@AEAAAEAV01@_KV<lambda_65e615be2a453ca0576c979606f46740>@@PEBD_K@Z$rtcFrameData
  001fc	e8 00 00 00 00	 call	 _RTC_CheckStackVars
  00201	48 8b c7	 mov	 rax, rdi
  00204	48 81 c4 90 00
	00 00		 add	 rsp, 144		; 00000090H
  0020b	5f		 pop	 rdi
  0020c	c3		 ret	 0
??$_Reallocate_grow_by@V<lambda_65e615be2a453ca0576c979606f46740>@@PEBD_K@?$basic_string@DU?$char_traits@D@std@@V?$allocator@D@2@@std@@AEAAAEAV01@_KV<lambda_65e615be2a453ca0576c979606f46740>@@PEBD_K@Z ENDP ; std::basic_string<char,std::char_traits<char>,std::allocator<char> >::_Reallocate_grow_by<<lambda_65e615be2a453ca0576c979606f46740>,char const *,unsigned __int64>
_TEXT	ENDS
; Function compile flags: /Odtp /RTCsu
; File C:\Program Files (x86)\Microsoft Visual Studio\2019\Community\VC\Tools\MSVC\14.23.28105\include\xstring
;	COMDAT ??R<lambda_65e615be2a453ca0576c979606f46740>@@QEBAXQEADQEBD_K12@Z
_TEXT	SEGMENT
$T1 = 32
this$ = 64
_New_ptr$ = 72
_Old_ptr$ = 80
_Old_size$ = 88
_Ptr$ = 96
_Count$ = 104
??R<lambda_65e615be2a453ca0576c979606f46740>@@QEBAXQEADQEBD_K12@Z PROC ; <lambda_65e615be2a453ca0576c979606f46740>::operator(), COMDAT

; 2748 :                 const size_type _Count) {

$LN3:
  00000	4c 89 4c 24 20	 mov	 QWORD PTR [rsp+32], r9
  00005	4c 89 44 24 18	 mov	 QWORD PTR [rsp+24], r8
  0000a	48 89 54 24 10	 mov	 QWORD PTR [rsp+16], rdx
  0000f	48 89 4c 24 08	 mov	 QWORD PTR [rsp+8], rcx
  00014	57		 push	 rdi
  00015	48 83 ec 30	 sub	 rsp, 48			; 00000030H
  00019	48 8b fc	 mov	 rdi, rsp
  0001c	b9 0c 00 00 00	 mov	 ecx, 12
  00021	b8 cc cc cc cc	 mov	 eax, -858993460		; ccccccccH
  00026	f3 ab		 rep stosd
  00028	48 8b 4c 24 40	 mov	 rcx, QWORD PTR [rsp+64]

; 2749 :                 _Traits::copy(_New_ptr, _Old_ptr, _Old_size);

  0002d	4c 8b 44 24 58	 mov	 r8, QWORD PTR _Old_size$[rsp]
  00032	48 8b 54 24 50	 mov	 rdx, QWORD PTR _Old_ptr$[rsp]
  00037	48 8b 4c 24 48	 mov	 rcx, QWORD PTR _New_ptr$[rsp]
  0003c	e8 00 00 00 00	 call	 ?copy@?$_Narrow_char_traits@DH@std@@SAPEADQEADQEBD_K@Z ; std::_Narrow_char_traits<char,int>::copy

; 2750 :                 _Traits::copy(_New_ptr + _Old_size, _Ptr, _Count);

  00041	48 8b 44 24 58	 mov	 rax, QWORD PTR _Old_size$[rsp]
  00046	48 8b 4c 24 48	 mov	 rcx, QWORD PTR _New_ptr$[rsp]
  0004b	48 03 c8	 add	 rcx, rax
  0004e	48 8b c1	 mov	 rax, rcx
  00051	4c 8b 44 24 68	 mov	 r8, QWORD PTR _Count$[rsp]
  00056	48 8b 54 24 60	 mov	 rdx, QWORD PTR _Ptr$[rsp]
  0005b	48 8b c8	 mov	 rcx, rax
  0005e	e8 00 00 00 00	 call	 ?copy@?$_Narrow_char_traits@DH@std@@SAPEADQEADQEBD_K@Z ; std::_Narrow_char_traits<char,int>::copy

; 2751 :                 _Traits::assign(_New_ptr[_Old_size + _Count], _Elem());

  00063	c6 44 24 20 00	 mov	 BYTE PTR $T1[rsp], 0
  00068	48 8b 44 24 68	 mov	 rax, QWORD PTR _Count$[rsp]
  0006d	48 8b 4c 24 58	 mov	 rcx, QWORD PTR _Old_size$[rsp]
  00072	48 03 c8	 add	 rcx, rax
  00075	48 8b c1	 mov	 rax, rcx
  00078	48 8b 4c 24 48	 mov	 rcx, QWORD PTR _New_ptr$[rsp]
  0007d	48 03 c8	 add	 rcx, rax
  00080	48 8b c1	 mov	 rax, rcx
  00083	48 8d 54 24 20	 lea	 rdx, QWORD PTR $T1[rsp]
  00088	48 8b c8	 mov	 rcx, rax
  0008b	e8 00 00 00 00	 call	 ?assign@?$_Narrow_char_traits@DH@std@@SAXAEADAEBD@Z ; std::_Narrow_char_traits<char,int>::assign

; 2752 :             },

  00090	48 83 c4 30	 add	 rsp, 48			; 00000030H
  00094	5f		 pop	 rdi
  00095	c3		 ret	 0
??R<lambda_65e615be2a453ca0576c979606f46740>@@QEBAXQEADQEBD_K12@Z ENDP ; <lambda_65e615be2a453ca0576c979606f46740>::operator()
_TEXT	ENDS
; Function compile flags: /Odtp /RTCsu
; File C:\Program Files (x86)\Microsoft Visual Studio\2019\Community\VC\Tools\MSVC\14.23.28105\include\xstring
;	COMDAT ??$_Reallocate_for@V<lambda_66f57f934f28d61049862f64df852ff0>@@PEBD@?$basic_string@DU?$char_traits@D@std@@V?$allocator@D@2@@std@@AEAAAEAV01@_KV<lambda_66f57f934f28d61049862f64df852ff0>@@PEBD@Z
_TEXT	SEGMENT
_Old_capacity$ = 32
_New_capacity$ = 40
_Al$ = 48
_New_ptr$ = 72
this$ = 112
_New_size$ = 120
_Fn$ = 128
<_Args_0>$ = 136
??$_Reallocate_for@V<lambda_66f57f934f28d61049862f64df852ff0>@@PEBD@?$basic_string@DU?$char_traits@D@std@@V?$allocator@D@2@@std@@AEAAAEAV01@_KV<lambda_66f57f934f28d61049862f64df852ff0>@@PEBD@Z PROC ; std::basic_string<char,std::char_traits<char>,std::allocator<char> >::_Reallocate_for<<lambda_66f57f934f28d61049862f64df852ff0>,char const *>, COMDAT

; 4082 :     basic_string& _Reallocate_for(const size_type _New_size, _Fty _Fn, _ArgTys... _Args) {

$LN6:
  00000	4c 89 4c 24 20	 mov	 QWORD PTR [rsp+32], r9
  00005	44 88 44 24 18	 mov	 BYTE PTR [rsp+24], r8b
  0000a	48 89 54 24 10	 mov	 QWORD PTR [rsp+16], rdx
  0000f	48 89 4c 24 08	 mov	 QWORD PTR [rsp+8], rcx
  00014	57		 push	 rdi
  00015	48 83 ec 60	 sub	 rsp, 96			; 00000060H
  00019	48 8b fc	 mov	 rdi, rsp
  0001c	b9 18 00 00 00	 mov	 ecx, 24
  00021	b8 cc cc cc cc	 mov	 eax, -858993460		; ccccccccH
  00026	f3 ab		 rep stosd
  00028	48 8b 4c 24 70	 mov	 rcx, QWORD PTR [rsp+112]

; 4083 :         // reallocate to store exactly _New_size elements, new buffer prepared by
; 4084 :         // _Fn(_New_ptr, _New_size, _Args...)
; 4085 :         if (_New_size > max_size()) {

  0002d	48 8b 4c 24 70	 mov	 rcx, QWORD PTR this$[rsp]
  00032	e8 00 00 00 00	 call	 ?max_size@?$basic_string@DU?$char_traits@D@std@@V?$allocator@D@2@@std@@QEBA_KXZ ; std::basic_string<char,std::char_traits<char>,std::allocator<char> >::max_size
  00037	48 39 44 24 78	 cmp	 QWORD PTR _New_size$[rsp], rax
  0003c	76 05		 jbe	 SHORT $LN2@Reallocate

; 4086 :             _Xlen(); // result too long

  0003e	e8 00 00 00 00	 call	 ?_Xlen@?$basic_string@DU?$char_traits@D@std@@V?$allocator@D@2@@std@@CAXXZ ; std::basic_string<char,std::char_traits<char>,std::allocator<char> >::_Xlen
$LN2@Reallocate:

; 4087 :         }
; 4088 : 
; 4089 :         const size_type _Old_capacity = _Mypair._Myval2._Myres;

  00043	48 8b 44 24 70	 mov	 rax, QWORD PTR this$[rsp]
  00048	48 8b 40 20	 mov	 rax, QWORD PTR [rax+32]
  0004c	48 89 44 24 20	 mov	 QWORD PTR _Old_capacity$[rsp], rax

; 4090 :         const size_type _New_capacity = _Calculate_growth(_New_size);

  00051	48 8b 54 24 78	 mov	 rdx, QWORD PTR _New_size$[rsp]
  00056	48 8b 4c 24 70	 mov	 rcx, QWORD PTR this$[rsp]
  0005b	e8 00 00 00 00	 call	 ?_Calculate_growth@?$basic_string@DU?$char_traits@D@std@@V?$allocator@D@2@@std@@AEBA_K_K@Z ; std::basic_string<char,std::char_traits<char>,std::allocator<char> >::_Calculate_growth
  00060	48 89 44 24 28	 mov	 QWORD PTR _New_capacity$[rsp], rax

; 4091 :         auto& _Al                     = _Getal();

  00065	48 8b 4c 24 70	 mov	 rcx, QWORD PTR this$[rsp]
  0006a	e8 00 00 00 00	 call	 ?_Getal@?$basic_string@DU?$char_traits@D@std@@V?$allocator@D@2@@std@@AEAAAEAV?$allocator@D@2@XZ ; std::basic_string<char,std::char_traits<char>,std::allocator<char> >::_Getal
  0006f	48 89 44 24 30	 mov	 QWORD PTR _Al$[rsp], rax

; 4092 :         const pointer _New_ptr        = _Al.allocate(_New_capacity + 1); // throws

  00074	48 8b 44 24 28	 mov	 rax, QWORD PTR _New_capacity$[rsp]
  00079	48 ff c0	 inc	 rax
  0007c	48 8b d0	 mov	 rdx, rax
  0007f	48 8b 4c 24 30	 mov	 rcx, QWORD PTR _Al$[rsp]
  00084	e8 00 00 00 00	 call	 ?allocate@?$allocator@D@std@@QEAAPEAD_K@Z ; std::allocator<char>::allocate
  00089	48 89 44 24 48	 mov	 QWORD PTR _New_ptr$[rsp], rax

; 4093 :         _Mypair._Myval2._Orphan_all();

  0008e	48 8b 44 24 70	 mov	 rax, QWORD PTR this$[rsp]
  00093	48 8b c8	 mov	 rcx, rax
  00096	e8 00 00 00 00	 call	 ?_Orphan_all@_Container_base12@std@@QEAAXXZ ; std::_Container_base12::_Orphan_all

; 4094 :         _Mypair._Myval2._Mysize = _New_size;

  0009b	48 8b 44 24 70	 mov	 rax, QWORD PTR this$[rsp]
  000a0	48 8b 4c 24 78	 mov	 rcx, QWORD PTR _New_size$[rsp]
  000a5	48 89 48 18	 mov	 QWORD PTR [rax+24], rcx

; 4095 :         _Mypair._Myval2._Myres  = _New_capacity;

  000a9	48 8b 44 24 70	 mov	 rax, QWORD PTR this$[rsp]
  000ae	48 8b 4c 24 28	 mov	 rcx, QWORD PTR _New_capacity$[rsp]
  000b3	48 89 48 20	 mov	 QWORD PTR [rax+32], rcx

; 4096 :         _Fn(_Unfancy(_New_ptr), _New_size, _Args...);

  000b7	48 8b 4c 24 48	 mov	 rcx, QWORD PTR _New_ptr$[rsp]
  000bc	e8 00 00 00 00	 call	 ??$_Unfancy@D@std@@YAPEADPEAD@Z ; std::_Unfancy<char>
  000c1	4c 8b 8c 24 88
	00 00 00	 mov	 r9, QWORD PTR <_Args_0>$[rsp]
  000c9	4c 8b 44 24 78	 mov	 r8, QWORD PTR _New_size$[rsp]
  000ce	48 8b d0	 mov	 rdx, rax
  000d1	48 8d 8c 24 80
	00 00 00	 lea	 rcx, QWORD PTR _Fn$[rsp]
  000d9	e8 00 00 00 00	 call	 ??R<lambda_66f57f934f28d61049862f64df852ff0>@@QEBAXQEAD_KQEBD@Z ; <lambda_66f57f934f28d61049862f64df852ff0>::operator()

; 4097 :         if (_BUF_SIZE <= _Old_capacity) {

  000de	48 83 7c 24 20
	10		 cmp	 QWORD PTR _Old_capacity$[rsp], 16
  000e4	72 2e		 jb	 SHORT $LN3@Reallocate

; 4098 :             _Al.deallocate(_Mypair._Myval2._Bx._Ptr, _Old_capacity + 1);

  000e6	48 8b 44 24 20	 mov	 rax, QWORD PTR _Old_capacity$[rsp]
  000eb	48 ff c0	 inc	 rax
  000ee	4c 8b c0	 mov	 r8, rax
  000f1	48 8b 44 24 70	 mov	 rax, QWORD PTR this$[rsp]
  000f6	48 8b 50 08	 mov	 rdx, QWORD PTR [rax+8]
  000fa	48 8b 4c 24 30	 mov	 rcx, QWORD PTR _Al$[rsp]
  000ff	e8 00 00 00 00	 call	 ?deallocate@?$allocator@D@std@@QEAAXQEAD_K@Z ; std::allocator<char>::deallocate

; 4099 :             _Mypair._Myval2._Bx._Ptr = _New_ptr;

  00104	48 8b 44 24 70	 mov	 rax, QWORD PTR this$[rsp]
  00109	48 8b 4c 24 48	 mov	 rcx, QWORD PTR _New_ptr$[rsp]
  0010e	48 89 48 08	 mov	 QWORD PTR [rax+8], rcx

; 4100 :         } else {

  00112	eb 16		 jmp	 SHORT $LN4@Reallocate
$LN3@Reallocate:

; 4101 :             _Construct_in_place(_Mypair._Myval2._Bx._Ptr, _New_ptr);

  00114	48 8b 44 24 70	 mov	 rax, QWORD PTR this$[rsp]
  00119	48 83 c0 08	 add	 rax, 8
  0011d	48 8d 54 24 48	 lea	 rdx, QWORD PTR _New_ptr$[rsp]
  00122	48 8b c8	 mov	 rcx, rax
  00125	e8 00 00 00 00	 call	 ??$_Construct_in_place@PEADAEBQEAD@std@@YAXAEAPEADAEBQEAD@Z ; std::_Construct_in_place<char *,char * const &>
$LN4@Reallocate:

; 4102 :         }
; 4103 : 
; 4104 :         return *this;

  0012a	48 8b 44 24 70	 mov	 rax, QWORD PTR this$[rsp]
$LN5@Reallocate:

; 4105 :     }

  0012f	48 8b f8	 mov	 rdi, rax
  00132	48 8b cc	 mov	 rcx, rsp
  00135	48 8d 15 00 00
	00 00		 lea	 rdx, OFFSET FLAT:??$_Reallocate_for@V<lambda_66f57f934f28d61049862f64df852ff0>@@PEBD@?$basic_string@DU?$char_traits@D@std@@V?$allocator@D@2@@std@@AEAAAEAV01@_KV<lambda_66f57f934f28d61049862f64df852ff0>@@PEBD@Z$rtcFrameData
  0013c	e8 00 00 00 00	 call	 _RTC_CheckStackVars
  00141	48 8b c7	 mov	 rax, rdi
  00144	48 83 c4 60	 add	 rsp, 96			; 00000060H
  00148	5f		 pop	 rdi
  00149	c3		 ret	 0
??$_Reallocate_for@V<lambda_66f57f934f28d61049862f64df852ff0>@@PEBD@?$basic_string@DU?$char_traits@D@std@@V?$allocator@D@2@@std@@AEAAAEAV01@_KV<lambda_66f57f934f28d61049862f64df852ff0>@@PEBD@Z ENDP ; std::basic_string<char,std::char_traits<char>,std::allocator<char> >::_Reallocate_for<<lambda_66f57f934f28d61049862f64df852ff0>,char const *>
_TEXT	ENDS
; Function compile flags: /Odtp /RTCsu
; File C:\Program Files (x86)\Microsoft Visual Studio\2019\Community\VC\Tools\MSVC\14.23.28105\include\xstring
;	COMDAT ??R<lambda_66f57f934f28d61049862f64df852ff0>@@QEBAXQEAD_KQEBD@Z
_TEXT	SEGMENT
$T1 = 32
this$ = 64
_New_ptr$ = 72
_Count$ = 80
_Ptr$ = 88
??R<lambda_66f57f934f28d61049862f64df852ff0>@@QEBAXQEAD_KQEBD@Z PROC ; <lambda_66f57f934f28d61049862f64df852ff0>::operator(), COMDAT

; 2853 :             [](_Elem* const _New_ptr, const size_type _Count, const _Elem* const _Ptr) {

$LN3:
  00000	4c 89 4c 24 20	 mov	 QWORD PTR [rsp+32], r9
  00005	4c 89 44 24 18	 mov	 QWORD PTR [rsp+24], r8
  0000a	48 89 54 24 10	 mov	 QWORD PTR [rsp+16], rdx
  0000f	48 89 4c 24 08	 mov	 QWORD PTR [rsp+8], rcx
  00014	57		 push	 rdi
  00015	48 83 ec 30	 sub	 rsp, 48			; 00000030H
  00019	48 8b fc	 mov	 rdi, rsp
  0001c	b9 0c 00 00 00	 mov	 ecx, 12
  00021	b8 cc cc cc cc	 mov	 eax, -858993460		; ccccccccH
  00026	f3 ab		 rep stosd
  00028	48 8b 4c 24 40	 mov	 rcx, QWORD PTR [rsp+64]

; 2854 :                 _Traits::copy(_New_ptr, _Ptr, _Count);

  0002d	4c 8b 44 24 50	 mov	 r8, QWORD PTR _Count$[rsp]
  00032	48 8b 54 24 58	 mov	 rdx, QWORD PTR _Ptr$[rsp]
  00037	48 8b 4c 24 48	 mov	 rcx, QWORD PTR _New_ptr$[rsp]
  0003c	e8 00 00 00 00	 call	 ?copy@?$_Narrow_char_traits@DH@std@@SAPEADQEADQEBD_K@Z ; std::_Narrow_char_traits<char,int>::copy

; 2855 :                 _Traits::assign(_New_ptr[_Count], _Elem());

  00041	c6 44 24 20 00	 mov	 BYTE PTR $T1[rsp], 0
  00046	48 8b 44 24 50	 mov	 rax, QWORD PTR _Count$[rsp]
  0004b	48 8b 4c 24 48	 mov	 rcx, QWORD PTR _New_ptr$[rsp]
  00050	48 03 c8	 add	 rcx, rax
  00053	48 8b c1	 mov	 rax, rcx
  00056	48 8d 54 24 20	 lea	 rdx, QWORD PTR $T1[rsp]
  0005b	48 8b c8	 mov	 rcx, rax
  0005e	e8 00 00 00 00	 call	 ?assign@?$_Narrow_char_traits@DH@std@@SAXAEADAEBD@Z ; std::_Narrow_char_traits<char,int>::assign

; 2856 :             },

  00063	48 83 c4 30	 add	 rsp, 48			; 00000030H
  00067	5f		 pop	 rdi
  00068	c3		 ret	 0
??R<lambda_66f57f934f28d61049862f64df852ff0>@@QEBAXQEAD_KQEBD@Z ENDP ; <lambda_66f57f934f28d61049862f64df852ff0>::operator()
_TEXT	ENDS
; Function compile flags: /Odtp /RTCsu
; File C:\Program Files (x86)\Microsoft Visual Studio\2019\Community\VC\Tools\MSVC\14.23.28105\include\xstddef
;	COMDAT ??$addressof@$$CBV?$_String_val@U?$_Simple_types@D@std@@@std@@@std@@YAPEBV?$_String_val@U?$_Simple_types@D@std@@@0@AEBV10@@Z
_TEXT	SEGMENT
_Val$ = 16
??$addressof@$$CBV?$_String_val@U?$_Simple_types@D@std@@@std@@@std@@YAPEBV?$_String_val@U?$_Simple_types@D@std@@@0@AEBV10@@Z PROC ; std::addressof<std::_String_val<std::_Simple_types<char> > const >, COMDAT

; 279  : _NODISCARD constexpr _Ty* addressof(_Ty& _Val) noexcept { // return address of _Val

$LN3:
  00000	48 89 4c 24 08	 mov	 QWORD PTR [rsp+8], rcx
  00005	57		 push	 rdi

; 280  :     return __builtin_addressof(_Val);

  00006	48 8b 44 24 10	 mov	 rax, QWORD PTR _Val$[rsp]

; 281  : }

  0000b	5f		 pop	 rdi
  0000c	c3		 ret	 0
??$addressof@$$CBV?$_String_val@U?$_Simple_types@D@std@@@std@@@std@@YAPEBV?$_String_val@U?$_Simple_types@D@std@@@0@AEBV10@@Z ENDP ; std::addressof<std::_String_val<std::_Simple_types<char> > const >
_TEXT	ENDS
; Function compile flags: /Odtp /RTCsu
; File C:\Program Files (x86)\Microsoft Visual Studio\2019\Community\VC\Tools\MSVC\14.23.28105\include\utility
;	COMDAT ??$_Max_value@_K@std@@YAAEB_KAEB_K0@Z
_TEXT	SEGMENT
$T1 = 0
tv65 = 8
_Left$ = 32
_Right$ = 40
??$_Max_value@_K@std@@YAAEB_KAEB_K0@Z PROC		; std::_Max_value<unsigned __int64>, COMDAT

; 32   :     _NOEXCEPT_COND(noexcept(_Left < _Right)) { // return larger of _Left and _Right

$LN5:
  00000	48 89 54 24 10	 mov	 QWORD PTR [rsp+16], rdx
  00005	48 89 4c 24 08	 mov	 QWORD PTR [rsp+8], rcx
  0000a	57		 push	 rdi
  0000b	48 83 ec 10	 sub	 rsp, 16
  0000f	48 8b fc	 mov	 rdi, rsp
  00012	b9 04 00 00 00	 mov	 ecx, 4
  00017	b8 cc cc cc cc	 mov	 eax, -858993460		; ccccccccH
  0001c	f3 ab		 rep stosd
  0001e	48 8b 4c 24 20	 mov	 rcx, QWORD PTR [rsp+32]

; 33   :     return _Left < _Right ? _Right : _Left;

  00023	48 8b 44 24 20	 mov	 rax, QWORD PTR _Left$[rsp]
  00028	48 8b 4c 24 28	 mov	 rcx, QWORD PTR _Right$[rsp]
  0002d	48 8b 09	 mov	 rcx, QWORD PTR [rcx]
  00030	48 39 08	 cmp	 QWORD PTR [rax], rcx
  00033	73 0c		 jae	 SHORT $LN3@Max_value
  00035	48 8b 44 24 28	 mov	 rax, QWORD PTR _Right$[rsp]
  0003a	48 89 44 24 08	 mov	 QWORD PTR tv65[rsp], rax
  0003f	eb 0a		 jmp	 SHORT $LN4@Max_value
$LN3@Max_value:
  00041	48 8b 44 24 20	 mov	 rax, QWORD PTR _Left$[rsp]
  00046	48 89 44 24 08	 mov	 QWORD PTR tv65[rsp], rax
$LN4@Max_value:
  0004b	48 8b 44 24 08	 mov	 rax, QWORD PTR tv65[rsp]
  00050	48 89 04 24	 mov	 QWORD PTR $T1[rsp], rax
  00054	48 8b 04 24	 mov	 rax, QWORD PTR $T1[rsp]

; 34   : }

  00058	48 83 c4 10	 add	 rsp, 16
  0005c	5f		 pop	 rdi
  0005d	c3		 ret	 0
??$_Max_value@_K@std@@YAAEB_KAEB_K0@Z ENDP		; std::_Max_value<unsigned __int64>
_TEXT	ENDS
; Function compile flags: /Odtp /RTCsu
; File C:\Program Files (x86)\Microsoft Visual Studio\2019\Community\VC\Tools\MSVC\14.23.28105\include\xmemory
;	COMDAT ??$_Destroy_in_place@PEAD@std@@YAXAEAPEAD@Z
_TEXT	SEGMENT
_Obj$ = 16
??$_Destroy_in_place@PEAD@std@@YAXAEAPEAD@Z PROC	; std::_Destroy_in_place<char *>, COMDAT

; 321  : void _Destroy_in_place(_Ty& _Obj) noexcept {

$LN3:
  00000	48 89 4c 24 08	 mov	 QWORD PTR [rsp+8], rcx
  00005	57		 push	 rdi

; 322  :     _Obj.~_Ty();
; 323  : }

  00006	5f		 pop	 rdi
  00007	c3		 ret	 0
??$_Destroy_in_place@PEAD@std@@YAXAEAPEAD@Z ENDP	; std::_Destroy_in_place<char *>
_TEXT	ENDS
; Function compile flags: /Odtp /RTCsu
; File C:\Program Files (x86)\Microsoft Visual Studio\2019\Community\VC\Tools\MSVC\14.23.28105\include\xmemory
;	COMDAT ??$_Construct_in_place@U_Container_proxy@std@@PEAU_Container_base12@2@@std@@YAXAEAU_Container_proxy@0@$$QEAPEAU_Container_base12@0@@Z
_TEXT	SEGMENT
$T1 = 32
_Obj$ = 64
<_Args_0>$ = 72
??$_Construct_in_place@U_Container_proxy@std@@PEAU_Container_base12@2@@std@@YAXAEAU_Container_proxy@0@$$QEAPEAU_Container_base12@0@@Z PROC ; std::_Construct_in_place<std::_Container_proxy,std::_Container_base12 *>, COMDAT

; 198  : void _Construct_in_place(_Ty& _Obj, _Types&&... _Args) _NOEXCEPT_COND(is_nothrow_constructible_v<_Ty, _Types...>) {

$LN3:
  00000	48 89 54 24 10	 mov	 QWORD PTR [rsp+16], rdx
  00005	48 89 4c 24 08	 mov	 QWORD PTR [rsp+8], rcx
  0000a	57		 push	 rdi
  0000b	48 83 ec 30	 sub	 rsp, 48			; 00000030H
  0000f	48 8b fc	 mov	 rdi, rsp
  00012	b9 0c 00 00 00	 mov	 ecx, 12
  00017	b8 cc cc cc cc	 mov	 eax, -858993460		; ccccccccH
  0001c	f3 ab		 rep stosd
  0001e	48 8b 4c 24 40	 mov	 rcx, QWORD PTR [rsp+64]

; 199  :     ::new (const_cast<void*>(static_cast<const volatile void*>(_STD addressof(_Obj))))

  00023	48 8b 4c 24 40	 mov	 rcx, QWORD PTR _Obj$[rsp]
  00028	e8 00 00 00 00	 call	 ??$addressof@U_Container_proxy@std@@@std@@YAPEAU_Container_proxy@0@AEAU10@@Z ; std::addressof<std::_Container_proxy>
  0002d	48 8b d0	 mov	 rdx, rax
  00030	b9 10 00 00 00	 mov	 ecx, 16
  00035	e8 00 00 00 00	 call	 ??2@YAPEAX_KPEAX@Z	; operator new
  0003a	48 89 44 24 20	 mov	 QWORD PTR $T1[rsp], rax
  0003f	48 8b 4c 24 48	 mov	 rcx, QWORD PTR <_Args_0>$[rsp]
  00044	e8 00 00 00 00	 call	 ??$forward@PEAU_Container_base12@std@@@std@@YA$$QEAPEAU_Container_base12@0@AEAPEAU10@@Z ; std::forward<std::_Container_base12 *>
  00049	48 8b 10	 mov	 rdx, QWORD PTR [rax]
  0004c	48 8b 4c 24 20	 mov	 rcx, QWORD PTR $T1[rsp]
  00051	e8 00 00 00 00	 call	 ??0_Container_proxy@std@@QEAA@PEAU_Container_base12@1@@Z ; std::_Container_proxy::_Container_proxy

; 200  :         _Ty(_STD forward<_Types>(_Args)...);
; 201  : }

  00056	48 83 c4 30	 add	 rsp, 48			; 00000030H
  0005a	5f		 pop	 rdi
  0005b	c3		 ret	 0
??$_Construct_in_place@U_Container_proxy@std@@PEAU_Container_base12@2@@std@@YAXAEAU_Container_proxy@0@$$QEAPEAU_Container_base12@0@@Z ENDP ; std::_Construct_in_place<std::_Container_proxy,std::_Container_base12 *>
_TEXT	ENDS
; Function compile flags: /Odtp /RTCsu
; File C:\Program Files (x86)\Microsoft Visual Studio\2019\Community\VC\Tools\MSVC\14.23.28105\include\xstddef
;	COMDAT ??$addressof@U_Container_base12@std@@@std@@YAPEAU_Container_base12@0@AEAU10@@Z
_TEXT	SEGMENT
_Val$ = 16
??$addressof@U_Container_base12@std@@@std@@YAPEAU_Container_base12@0@AEAU10@@Z PROC ; std::addressof<std::_Container_base12>, COMDAT

; 279  : _NODISCARD constexpr _Ty* addressof(_Ty& _Val) noexcept { // return address of _Val

$LN3:
  00000	48 89 4c 24 08	 mov	 QWORD PTR [rsp+8], rcx
  00005	57		 push	 rdi

; 280  :     return __builtin_addressof(_Val);

  00006	48 8b 44 24 10	 mov	 rax, QWORD PTR _Val$[rsp]

; 281  : }

  0000b	5f		 pop	 rdi
  0000c	c3		 ret	 0
??$addressof@U_Container_base12@std@@@std@@YAPEAU_Container_base12@0@AEAU10@@Z ENDP ; std::addressof<std::_Container_base12>
_TEXT	ENDS
; Function compile flags: /Odtp /RTCsu
; File C:\Program Files (x86)\Microsoft Visual Studio\2019\Community\VC\Tools\MSVC\14.23.28105\include\xstddef
;	COMDAT ??$_Unfancy@U_Container_proxy@std@@@std@@YAPEAU_Container_proxy@0@PEAU10@@Z
_TEXT	SEGMENT
_Ptr$ = 16
??$_Unfancy@U_Container_proxy@std@@@std@@YAPEAU_Container_proxy@0@PEAU10@@Z PROC ; std::_Unfancy<std::_Container_proxy>, COMDAT

; 293  : _Ty* _Unfancy(_Ty* _Ptr) { // do nothing for plain pointers

$LN3:
  00000	48 89 4c 24 08	 mov	 QWORD PTR [rsp+8], rcx
  00005	57		 push	 rdi

; 294  :     return _Ptr;

  00006	48 8b 44 24 10	 mov	 rax, QWORD PTR _Ptr$[rsp]

; 295  : }

  0000b	5f		 pop	 rdi
  0000c	c3		 ret	 0
??$_Unfancy@U_Container_proxy@std@@@std@@YAPEAU_Container_proxy@0@PEAU10@@Z ENDP ; std::_Unfancy<std::_Container_proxy>
_TEXT	ENDS
; Function compile flags: /Odtp /RTCsu
; File C:\Program Files (x86)\Microsoft Visual Studio\2019\Community\VC\Tools\MSVC\14.23.28105\include\xmemory
;	COMDAT ??$?0$$V@?$_Compressed_pair@V?$allocator@D@std@@V?$_String_val@U?$_Simple_types@D@std@@@2@$00@std@@QEAA@U_Zero_then_variadic_args_t@1@@Z
_TEXT	SEGMENT
this$ = 48
__formal$ = 56
??$?0$$V@?$_Compressed_pair@V?$allocator@D@std@@V?$_String_val@U?$_Simple_types@D@std@@@2@$00@std@@QEAA@U_Zero_then_variadic_args_t@1@@Z PROC ; std::_Compressed_pair<std::allocator<char>,std::_String_val<std::_Simple_types<char> >,1>::_Compressed_pair<std::allocator<char>,std::_String_val<std::_Simple_types<char> >,1><>, COMDAT

; 1414 :         : _Ty1(), _Myval2(_STD forward<_Other2>(_Val2)...) {}

$LN4:
  00000	88 54 24 10	 mov	 BYTE PTR [rsp+16], dl
  00004	48 89 4c 24 08	 mov	 QWORD PTR [rsp+8], rcx
  00009	57		 push	 rdi
  0000a	48 83 ec 20	 sub	 rsp, 32			; 00000020H
  0000e	48 8b fc	 mov	 rdi, rsp
  00011	b9 08 00 00 00	 mov	 ecx, 8
  00016	b8 cc cc cc cc	 mov	 eax, -858993460		; ccccccccH
  0001b	f3 ab		 rep stosd
  0001d	48 8b 4c 24 30	 mov	 rcx, QWORD PTR [rsp+48]
  00022	48 8b 4c 24 30	 mov	 rcx, QWORD PTR this$[rsp]
  00027	e8 00 00 00 00	 call	 ??0?$allocator@D@std@@QEAA@XZ ; std::allocator<char>::allocator<char>
  0002c	48 8b 44 24 30	 mov	 rax, QWORD PTR this$[rsp]
  00031	48 8b c8	 mov	 rcx, rax
  00034	e8 00 00 00 00	 call	 ??0?$_String_val@U?$_Simple_types@D@std@@@std@@QEAA@XZ ; std::_String_val<std::_Simple_types<char> >::_String_val<std::_Simple_types<char> >
  00039	90		 npad	 1
  0003a	48 8b 44 24 30	 mov	 rax, QWORD PTR this$[rsp]
  0003f	48 83 c4 20	 add	 rsp, 32			; 00000020H
  00043	5f		 pop	 rdi
  00044	c3		 ret	 0
??$?0$$V@?$_Compressed_pair@V?$allocator@D@std@@V?$_String_val@U?$_Simple_types@D@std@@@2@$00@std@@QEAA@U_Zero_then_variadic_args_t@1@@Z ENDP ; std::_Compressed_pair<std::allocator<char>,std::_String_val<std::_Simple_types<char> >,1>::_Compressed_pair<std::allocator<char>,std::_String_val<std::_Simple_types<char> >,1><>
_TEXT	ENDS
;	COMDAT text$x
text$x	SEGMENT
this$ = 48
__formal$ = 56
?dtor$0@?0???$?0$$V@?$_Compressed_pair@V?$allocator@D@std@@V?$_String_val@U?$_Simple_types@D@std@@@2@$00@std@@QEAA@U_Zero_then_variadic_args_t@1@@Z@4HA PROC ; `std::_Compressed_pair<std::allocator<char>,std::_String_val<std::_Simple_types<char> >,1>::_Compressed_pair<std::allocator<char>,std::_String_val<std::_Simple_types<char> >,1><>'::`1'::dtor$0
  00000	48 89 4c 24 08	 mov	 QWORD PTR [rsp+8], rcx
  00005	48 89 54 24 10	 mov	 QWORD PTR [rsp+16], rdx
  0000a	55		 push	 rbp
  0000b	57		 push	 rdi
  0000c	48 83 ec 28	 sub	 rsp, 40			; 00000028H
  00010	48 8b ea	 mov	 rbp, rdx
  00013	48 8b 4d 30	 mov	 rcx, QWORD PTR this$[rbp]
  00017	e8 00 00 00 00	 call	 ??1?$_String_val@U?$_Simple_types@D@std@@@std@@QEAA@XZ
  0001c	48 83 c4 28	 add	 rsp, 40			; 00000028H
  00020	5f		 pop	 rdi
  00021	5d		 pop	 rbp
  00022	c3		 ret	 0
?dtor$0@?0???$?0$$V@?$_Compressed_pair@V?$allocator@D@std@@V?$_String_val@U?$_Simple_types@D@std@@@2@$00@std@@QEAA@U_Zero_then_variadic_args_t@1@@Z@4HA ENDP ; `std::_Compressed_pair<std::allocator<char>,std::_String_val<std::_Simple_types<char> >,1>::_Compressed_pair<std::allocator<char>,std::_String_val<std::_Simple_types<char> >,1><>'::`1'::dtor$0
text$x	ENDS
; Function compile flags: /Odtp /RTCsu
;	COMDAT text$x
text$x	SEGMENT
this$ = 48
__formal$ = 56
?dtor$0@?0???$?0$$V@?$_Compressed_pair@V?$allocator@D@std@@V?$_String_val@U?$_Simple_types@D@std@@@2@$00@std@@QEAA@U_Zero_then_variadic_args_t@1@@Z@4HA PROC ; `std::_Compressed_pair<std::allocator<char>,std::_String_val<std::_Simple_types<char> >,1>::_Compressed_pair<std::allocator<char>,std::_String_val<std::_Simple_types<char> >,1><>'::`1'::dtor$0
  00000	48 89 4c 24 08	 mov	 QWORD PTR [rsp+8], rcx
  00005	48 89 54 24 10	 mov	 QWORD PTR [rsp+16], rdx
  0000a	55		 push	 rbp
  0000b	57		 push	 rdi
  0000c	48 83 ec 28	 sub	 rsp, 40			; 00000028H
  00010	48 8b ea	 mov	 rbp, rdx
  00013	48 8b 4d 30	 mov	 rcx, QWORD PTR this$[rbp]
  00017	e8 00 00 00 00	 call	 ??1?$_String_val@U?$_Simple_types@D@std@@@std@@QEAA@XZ
  0001c	48 83 c4 28	 add	 rsp, 40			; 00000028H
  00020	5f		 pop	 rdi
  00021	5d		 pop	 rbp
  00022	c3		 ret	 0
?dtor$0@?0???$?0$$V@?$_Compressed_pair@V?$allocator@D@std@@V?$_String_val@U?$_Simple_types@D@std@@@2@$00@std@@QEAA@U_Zero_then_variadic_args_t@1@@Z@4HA ENDP ; `std::_Compressed_pair<std::allocator<char>,std::_String_val<std::_Simple_types<char> >,1>::_Compressed_pair<std::allocator<char>,std::_String_val<std::_Simple_types<char> >,1><>'::`1'::dtor$0
text$x	ENDS
; Function compile flags: /Odtp /RTCsu
; File C:\Program Files (x86)\Microsoft Visual Studio\2019\Community\VC\Tools\MSVC\14.23.28105\include\xmemory
;	COMDAT ??$?0V?$allocator@D@std@@$$V@?$_Compressed_pair@V?$allocator@D@std@@V?$_String_val@U?$_Simple_types@D@std@@@2@$00@std@@QEAA@U_One_then_variadic_args_t@1@$$QEAV?$allocator@D@1@@Z
_TEXT	SEGMENT
this$ = 48
__formal$ = 56
_Val1$ = 64
??$?0V?$allocator@D@std@@$$V@?$_Compressed_pair@V?$allocator@D@std@@V?$_String_val@U?$_Simple_types@D@std@@@2@$00@std@@QEAA@U_One_then_variadic_args_t@1@$$QEAV?$allocator@D@1@@Z PROC ; std::_Compressed_pair<std::allocator<char>,std::_String_val<std::_Simple_types<char> >,1>::_Compressed_pair<std::allocator<char>,std::_String_val<std::_Simple_types<char> >,1><std::allocator<char> >, COMDAT

; 1418 :         : _Ty1(_STD forward<_Other1>(_Val1)), _Myval2(_STD forward<_Other2>(_Val2)...) {}

$LN4:
  00000	4c 89 44 24 18	 mov	 QWORD PTR [rsp+24], r8
  00005	88 54 24 10	 mov	 BYTE PTR [rsp+16], dl
  00009	48 89 4c 24 08	 mov	 QWORD PTR [rsp+8], rcx
  0000e	57		 push	 rdi
  0000f	48 83 ec 20	 sub	 rsp, 32			; 00000020H
  00013	48 8b fc	 mov	 rdi, rsp
  00016	b9 08 00 00 00	 mov	 ecx, 8
  0001b	b8 cc cc cc cc	 mov	 eax, -858993460		; ccccccccH
  00020	f3 ab		 rep stosd
  00022	48 8b 4c 24 30	 mov	 rcx, QWORD PTR [rsp+48]
  00027	48 8b 4c 24 40	 mov	 rcx, QWORD PTR _Val1$[rsp]
  0002c	e8 00 00 00 00	 call	 ??$forward@V?$allocator@D@std@@@std@@YA$$QEAV?$allocator@D@0@AEAV10@@Z ; std::forward<std::allocator<char> >
  00031	48 8b 44 24 30	 mov	 rax, QWORD PTR this$[rsp]
  00036	48 8b c8	 mov	 rcx, rax
  00039	e8 00 00 00 00	 call	 ??0?$_String_val@U?$_Simple_types@D@std@@@std@@QEAA@XZ ; std::_String_val<std::_Simple_types<char> >::_String_val<std::_Simple_types<char> >
  0003e	90		 npad	 1
  0003f	48 8b 44 24 30	 mov	 rax, QWORD PTR this$[rsp]
  00044	48 83 c4 20	 add	 rsp, 32			; 00000020H
  00048	5f		 pop	 rdi
  00049	c3		 ret	 0
??$?0V?$allocator@D@std@@$$V@?$_Compressed_pair@V?$allocator@D@std@@V?$_String_val@U?$_Simple_types@D@std@@@2@$00@std@@QEAA@U_One_then_variadic_args_t@1@$$QEAV?$allocator@D@1@@Z ENDP ; std::_Compressed_pair<std::allocator<char>,std::_String_val<std::_Simple_types<char> >,1>::_Compressed_pair<std::allocator<char>,std::_String_val<std::_Simple_types<char> >,1><std::allocator<char> >
_TEXT	ENDS
;	COMDAT text$x
text$x	SEGMENT
this$ = 48
__formal$ = 56
_Val1$ = 64
?dtor$0@?0???$?0V?$allocator@D@std@@$$V@?$_Compressed_pair@V?$allocator@D@std@@V?$_String_val@U?$_Simple_types@D@std@@@2@$00@std@@QEAA@U_One_then_variadic_args_t@1@$$QEAV?$allocator@D@1@@Z@4HA PROC ; `std::_Compressed_pair<std::allocator<char>,std::_String_val<std::_Simple_types<char> >,1>::_Compressed_pair<std::allocator<char>,std::_String_val<std::_Simple_types<char> >,1><std::allocator<char> >'::`1'::dtor$0
  00000	48 89 4c 24 08	 mov	 QWORD PTR [rsp+8], rcx
  00005	48 89 54 24 10	 mov	 QWORD PTR [rsp+16], rdx
  0000a	55		 push	 rbp
  0000b	57		 push	 rdi
  0000c	48 83 ec 28	 sub	 rsp, 40			; 00000028H
  00010	48 8b ea	 mov	 rbp, rdx
  00013	48 8b 4d 30	 mov	 rcx, QWORD PTR this$[rbp]
  00017	e8 00 00 00 00	 call	 ??1?$_String_val@U?$_Simple_types@D@std@@@std@@QEAA@XZ
  0001c	48 83 c4 28	 add	 rsp, 40			; 00000028H
  00020	5f		 pop	 rdi
  00021	5d		 pop	 rbp
  00022	c3		 ret	 0
?dtor$0@?0???$?0V?$allocator@D@std@@$$V@?$_Compressed_pair@V?$allocator@D@std@@V?$_String_val@U?$_Simple_types@D@std@@@2@$00@std@@QEAA@U_One_then_variadic_args_t@1@$$QEAV?$allocator@D@1@@Z@4HA ENDP ; `std::_Compressed_pair<std::allocator<char>,std::_String_val<std::_Simple_types<char> >,1>::_Compressed_pair<std::allocator<char>,std::_String_val<std::_Simple_types<char> >,1><std::allocator<char> >'::`1'::dtor$0
text$x	ENDS
; Function compile flags: /Odtp /RTCsu
;	COMDAT text$x
text$x	SEGMENT
this$ = 48
__formal$ = 56
_Val1$ = 64
?dtor$0@?0???$?0V?$allocator@D@std@@$$V@?$_Compressed_pair@V?$allocator@D@std@@V?$_String_val@U?$_Simple_types@D@std@@@2@$00@std@@QEAA@U_One_then_variadic_args_t@1@$$QEAV?$allocator@D@1@@Z@4HA PROC ; `std::_Compressed_pair<std::allocator<char>,std::_String_val<std::_Simple_types<char> >,1>::_Compressed_pair<std::allocator<char>,std::_String_val<std::_Simple_types<char> >,1><std::allocator<char> >'::`1'::dtor$0
  00000	48 89 4c 24 08	 mov	 QWORD PTR [rsp+8], rcx
  00005	48 89 54 24 10	 mov	 QWORD PTR [rsp+16], rdx
  0000a	55		 push	 rbp
  0000b	57		 push	 rdi
  0000c	48 83 ec 28	 sub	 rsp, 40			; 00000028H
  00010	48 8b ea	 mov	 rbp, rdx
  00013	48 8b 4d 30	 mov	 rcx, QWORD PTR this$[rbp]
  00017	e8 00 00 00 00	 call	 ??1?$_String_val@U?$_Simple_types@D@std@@@std@@QEAA@XZ
  0001c	48 83 c4 28	 add	 rsp, 40			; 00000028H
  00020	5f		 pop	 rdi
  00021	5d		 pop	 rbp
  00022	c3		 ret	 0
?dtor$0@?0???$?0V?$allocator@D@std@@$$V@?$_Compressed_pair@V?$allocator@D@std@@V?$_String_val@U?$_Simple_types@D@std@@@2@$00@std@@QEAA@U_One_then_variadic_args_t@1@$$QEAV?$allocator@D@1@@Z@4HA ENDP ; `std::_Compressed_pair<std::allocator<char>,std::_String_val<std::_Simple_types<char> >,1>::_Compressed_pair<std::allocator<char>,std::_String_val<std::_Simple_types<char> >,1><std::allocator<char> >'::`1'::dtor$0
text$x	ENDS
; Function compile flags: /Odtp /RTCsu
; File C:\Program Files (x86)\Microsoft Visual Studio\2019\Community\VC\Tools\MSVC\14.23.28105\include\type_traits
;	COMDAT ??$move@AEAV?$allocator@D@std@@@std@@YA$$QEAV?$allocator@D@0@AEAV10@@Z
_TEXT	SEGMENT
_Arg$ = 16
??$move@AEAV?$allocator@D@std@@@std@@YA$$QEAV?$allocator@D@0@AEAV10@@Z PROC ; std::move<std::allocator<char> &>, COMDAT

; 1432 : _NODISCARD constexpr remove_reference_t<_Ty>&& move(_Ty&& _Arg) noexcept { // forward _Arg as movable

$LN3:
  00000	48 89 4c 24 08	 mov	 QWORD PTR [rsp+8], rcx
  00005	57		 push	 rdi

; 1433 :     return static_cast<remove_reference_t<_Ty>&&>(_Arg);

  00006	48 8b 44 24 10	 mov	 rax, QWORD PTR _Arg$[rsp]

; 1434 : }

  0000b	5f		 pop	 rdi
  0000c	c3		 ret	 0
??$move@AEAV?$allocator@D@std@@@std@@YA$$QEAV?$allocator@D@0@AEAV10@@Z ENDP ; std::move<std::allocator<char> &>
_TEXT	ENDS
; Function compile flags: /Odtp /RTCsu
; File C:\Program Files (x86)\Microsoft Visual Studio\2019\Community\VC\Tools\MSVC\14.23.28105\include\xmemory
;	COMDAT ??$?0D@?$allocator@U_Container_proxy@std@@@std@@QEAA@AEBV?$allocator@D@1@@Z
_TEXT	SEGMENT
this$ = 16
__formal$ = 24
??$?0D@?$allocator@U_Container_proxy@std@@@std@@QEAA@AEBV?$allocator@D@1@@Z PROC ; std::allocator<std::_Container_proxy>::allocator<std::_Container_proxy><char>, COMDAT

; 863  :     constexpr allocator(const allocator<_Other>&) noexcept {}

$LN3:
  00000	48 89 54 24 10	 mov	 QWORD PTR [rsp+16], rdx
  00005	48 89 4c 24 08	 mov	 QWORD PTR [rsp+8], rcx
  0000a	57		 push	 rdi
  0000b	48 8b 44 24 10	 mov	 rax, QWORD PTR this$[rsp]
  00010	5f		 pop	 rdi
  00011	c3		 ret	 0
??$?0D@?$allocator@U_Container_proxy@std@@@std@@QEAA@AEBV?$allocator@D@1@@Z ENDP ; std::allocator<std::_Container_proxy>::allocator<std::_Container_proxy><char>
_TEXT	ENDS
; Function compile flags: /Odtp /RTCsu
; File C:\Program Files (x86)\Microsoft Visual Studio\2019\Community\VC\Tools\MSVC\14.23.28105\include\xstddef
;	COMDAT ??$addressof@V?$_String_val@U?$_Simple_types@D@std@@@std@@@std@@YAPEAV?$_String_val@U?$_Simple_types@D@std@@@0@AEAV10@@Z
_TEXT	SEGMENT
_Val$ = 16
??$addressof@V?$_String_val@U?$_Simple_types@D@std@@@std@@@std@@YAPEAV?$_String_val@U?$_Simple_types@D@std@@@0@AEAV10@@Z PROC ; std::addressof<std::_String_val<std::_Simple_types<char> > >, COMDAT

; 279  : _NODISCARD constexpr _Ty* addressof(_Ty& _Val) noexcept { // return address of _Val

$LN3:
  00000	48 89 4c 24 08	 mov	 QWORD PTR [rsp+8], rcx
  00005	57		 push	 rdi

; 280  :     return __builtin_addressof(_Val);

  00006	48 8b 44 24 10	 mov	 rax, QWORD PTR _Val$[rsp]

; 281  : }

  0000b	5f		 pop	 rdi
  0000c	c3		 ret	 0
??$addressof@V?$_String_val@U?$_Simple_types@D@std@@@std@@@std@@YAPEAV?$_String_val@U?$_Simple_types@D@std@@@0@AEAV10@@Z ENDP ; std::addressof<std::_String_val<std::_Simple_types<char> > >
_TEXT	ENDS
; Function compile flags: /Odtp /RTCsu
; File C:\Program Files (x86)\Microsoft Visual Studio\2019\Community\VC\Tools\MSVC\14.23.28105\include\xstddef
;	COMDAT ??$_Unfancy@D@std@@YAPEADPEAD@Z
_TEXT	SEGMENT
_Ptr$ = 16
??$_Unfancy@D@std@@YAPEADPEAD@Z PROC			; std::_Unfancy<char>, COMDAT

; 293  : _Ty* _Unfancy(_Ty* _Ptr) { // do nothing for plain pointers

$LN3:
  00000	48 89 4c 24 08	 mov	 QWORD PTR [rsp+8], rcx
  00005	57		 push	 rdi

; 294  :     return _Ptr;

  00006	48 8b 44 24 10	 mov	 rax, QWORD PTR _Ptr$[rsp]

; 295  : }

  0000b	5f		 pop	 rdi
  0000c	c3		 ret	 0
??$_Unfancy@D@std@@YAPEADPEAD@Z ENDP			; std::_Unfancy<char>
_TEXT	ENDS
; Function compile flags: /Odtp /RTCsu
; File C:\Program Files (x86)\Microsoft Visual Studio\2019\Community\VC\Tools\MSVC\14.23.28105\include\xmemory
;	COMDAT ??$_Alloc_proxy@V?$allocator@U_Container_proxy@std@@@std@@@_Container_base12@std@@QEAAX$$QEAV?$allocator@U_Container_proxy@std@@@1@@Z
_TEXT	SEGMENT
_New_proxy$ = 32
$T1 = 40
this$ = 64
_Al$ = 72
??$_Alloc_proxy@V?$allocator@U_Container_proxy@std@@@std@@@_Container_base12@std@@QEAAX$$QEAV?$allocator@U_Container_proxy@std@@@1@@Z PROC ; std::_Container_base12::_Alloc_proxy<std::allocator<std::_Container_proxy> >, COMDAT

; 1184 :     void _Alloc_proxy(_Alloc&& _Al) {

$LN3:
  00000	48 89 54 24 10	 mov	 QWORD PTR [rsp+16], rdx
  00005	48 89 4c 24 08	 mov	 QWORD PTR [rsp+8], rcx
  0000a	57		 push	 rdi
  0000b	48 83 ec 30	 sub	 rsp, 48			; 00000030H
  0000f	48 8b fc	 mov	 rdi, rsp
  00012	b9 0c 00 00 00	 mov	 ecx, 12
  00017	b8 cc cc cc cc	 mov	 eax, -858993460		; ccccccccH
  0001c	f3 ab		 rep stosd
  0001e	48 8b 4c 24 40	 mov	 rcx, QWORD PTR [rsp+64]

; 1185 :         _Container_proxy* const _New_proxy = _Unfancy(_Al.allocate(1));

  00023	ba 01 00 00 00	 mov	 edx, 1
  00028	48 8b 4c 24 48	 mov	 rcx, QWORD PTR _Al$[rsp]
  0002d	e8 00 00 00 00	 call	 ?allocate@?$allocator@U_Container_proxy@std@@@std@@QEAAPEAU_Container_proxy@2@_K@Z ; std::allocator<std::_Container_proxy>::allocate
  00032	48 8b c8	 mov	 rcx, rax
  00035	e8 00 00 00 00	 call	 ??$_Unfancy@U_Container_proxy@std@@@std@@YAPEAU_Container_proxy@0@PEAU10@@Z ; std::_Unfancy<std::_Container_proxy>
  0003a	48 89 44 24 20	 mov	 QWORD PTR _New_proxy$[rsp], rax

; 1186 :         _Construct_in_place(*_New_proxy, this);

  0003f	48 8b 44 24 40	 mov	 rax, QWORD PTR this$[rsp]
  00044	48 89 44 24 28	 mov	 QWORD PTR $T1[rsp], rax
  00049	48 8d 54 24 28	 lea	 rdx, QWORD PTR $T1[rsp]
  0004e	48 8b 4c 24 20	 mov	 rcx, QWORD PTR _New_proxy$[rsp]
  00053	e8 00 00 00 00	 call	 ??$_Construct_in_place@U_Container_proxy@std@@PEAU_Container_base12@2@@std@@YAXAEAU_Container_proxy@0@$$QEAPEAU_Container_base12@0@@Z ; std::_Construct_in_place<std::_Container_proxy,std::_Container_base12 *>

; 1187 :         _Myproxy            = _New_proxy;

  00058	48 8b 44 24 40	 mov	 rax, QWORD PTR this$[rsp]
  0005d	48 8b 4c 24 20	 mov	 rcx, QWORD PTR _New_proxy$[rsp]
  00062	48 89 08	 mov	 QWORD PTR [rax], rcx

; 1188 :         _New_proxy->_Mycont = this;

  00065	48 8b 44 24 20	 mov	 rax, QWORD PTR _New_proxy$[rsp]
  0006a	48 8b 4c 24 40	 mov	 rcx, QWORD PTR this$[rsp]
  0006f	48 89 08	 mov	 QWORD PTR [rax], rcx

; 1189 :     }

  00072	48 83 c4 30	 add	 rsp, 48			; 00000030H
  00076	5f		 pop	 rdi
  00077	c3		 ret	 0
??$_Alloc_proxy@V?$allocator@U_Container_proxy@std@@@std@@@_Container_base12@std@@QEAAX$$QEAV?$allocator@U_Container_proxy@std@@@1@@Z ENDP ; std::_Container_base12::_Alloc_proxy<std::allocator<std::_Container_proxy> >
_TEXT	ENDS
; Function compile flags: /Odtp /RTCsu
; File C:\Program Files (x86)\Microsoft Visual Studio\2019\Community\VC\Tools\MSVC\14.23.28105\include\xmemory
;	COMDAT ??1?$_Container_proxy_ptr12@V?$allocator@U_Container_proxy@std@@@std@@@std@@QEAA@XZ
_TEXT	SEGMENT
this$ = 48
??1?$_Container_proxy_ptr12@V?$allocator@U_Container_proxy@std@@@std@@@std@@QEAA@XZ PROC ; std::_Container_proxy_ptr12<std::allocator<std::_Container_proxy> >::~_Container_proxy_ptr12<std::allocator<std::_Container_proxy> >, COMDAT

; 1382 :     ~_Container_proxy_ptr12() {

$LN4:
  00000	48 89 4c 24 08	 mov	 QWORD PTR [rsp+8], rcx
  00005	57		 push	 rdi
  00006	48 83 ec 20	 sub	 rsp, 32			; 00000020H
  0000a	48 8b fc	 mov	 rdi, rsp
  0000d	b9 08 00 00 00	 mov	 ecx, 8
  00012	b8 cc cc cc cc	 mov	 eax, -858993460		; ccccccccH
  00017	f3 ab		 rep stosd
  00019	48 8b 4c 24 30	 mov	 rcx, QWORD PTR [rsp+48]

; 1383 :         if (_Ptr) {

  0001e	48 8b 44 24 30	 mov	 rax, QWORD PTR this$[rsp]
  00023	48 83 38 00	 cmp	 QWORD PTR [rax], 0
  00027	74 16		 je	 SHORT $LN2@Container_

; 1384 :             _Delete_plain_internal(_Al, _Ptr);

  00029	48 8b 44 24 30	 mov	 rax, QWORD PTR this$[rsp]
  0002e	48 8b 10	 mov	 rdx, QWORD PTR [rax]
  00031	48 8b 44 24 30	 mov	 rax, QWORD PTR this$[rsp]
  00036	48 8b 48 08	 mov	 rcx, QWORD PTR [rax+8]
  0003a	e8 00 00 00 00	 call	 ??$_Delete_plain_internal@V?$allocator@U_Container_proxy@std@@@std@@@std@@YAXAEAV?$allocator@U_Container_proxy@std@@@0@QEAU_Container_proxy@0@@Z ; std::_Delete_plain_internal<std::allocator<std::_Container_proxy> >
$LN2@Container_:

; 1385 :         }
; 1386 :     }

  0003f	48 83 c4 20	 add	 rsp, 32			; 00000020H
  00043	5f		 pop	 rdi
  00044	c3		 ret	 0
??1?$_Container_proxy_ptr12@V?$allocator@U_Container_proxy@std@@@std@@@std@@QEAA@XZ ENDP ; std::_Container_proxy_ptr12<std::allocator<std::_Container_proxy> >::~_Container_proxy_ptr12<std::allocator<std::_Container_proxy> >
_TEXT	ENDS
; Function compile flags: /Odtp /RTCsu
; File C:\Program Files (x86)\Microsoft Visual Studio\2019\Community\VC\Tools\MSVC\14.23.28105\include\xmemory
;	COMDAT ??0?$_Container_proxy_ptr12@V?$allocator@U_Container_proxy@std@@@std@@@std@@QEAA@AEAV?$allocator@U_Container_proxy@std@@@1@AEAU_Container_base12@1@@Z
_TEXT	SEGMENT
$T1 = 32
this$ = 64
_Al_$ = 72
_Mycont$ = 80
??0?$_Container_proxy_ptr12@V?$allocator@U_Container_proxy@std@@@std@@@std@@QEAA@AEAV?$allocator@U_Container_proxy@std@@@1@AEAU_Container_base12@1@@Z PROC ; std::_Container_proxy_ptr12<std::allocator<std::_Container_proxy> >::_Container_proxy_ptr12<std::allocator<std::_Container_proxy> >, COMDAT

; 1368 :     _Container_proxy_ptr12(_Alloc& _Al_, _Container_base12& _Mycont)

$LN3:
  00000	4c 89 44 24 18	 mov	 QWORD PTR [rsp+24], r8
  00005	48 89 54 24 10	 mov	 QWORD PTR [rsp+16], rdx
  0000a	48 89 4c 24 08	 mov	 QWORD PTR [rsp+8], rcx
  0000f	57		 push	 rdi
  00010	48 83 ec 30	 sub	 rsp, 48			; 00000030H
  00014	48 8b fc	 mov	 rdi, rsp
  00017	b9 0c 00 00 00	 mov	 ecx, 12
  0001c	b8 cc cc cc cc	 mov	 eax, -858993460		; ccccccccH
  00021	f3 ab		 rep stosd
  00023	48 8b 4c 24 40	 mov	 rcx, QWORD PTR [rsp+64]

; 1369 :         : _Al(_Al_) { // create a new _Container_proxy pointing at _Mycont

  00028	48 8b 44 24 40	 mov	 rax, QWORD PTR this$[rsp]
  0002d	48 8b 4c 24 48	 mov	 rcx, QWORD PTR _Al_$[rsp]
  00032	48 89 48 08	 mov	 QWORD PTR [rax+8], rcx

; 1370 :         _Ptr = _Unfancy(_Al_.allocate(1));

  00036	ba 01 00 00 00	 mov	 edx, 1
  0003b	48 8b 4c 24 48	 mov	 rcx, QWORD PTR _Al_$[rsp]
  00040	e8 00 00 00 00	 call	 ?allocate@?$allocator@U_Container_proxy@std@@@std@@QEAAPEAU_Container_proxy@2@_K@Z ; std::allocator<std::_Container_proxy>::allocate
  00045	48 8b c8	 mov	 rcx, rax
  00048	e8 00 00 00 00	 call	 ??$_Unfancy@U_Container_proxy@std@@@std@@YAPEAU_Container_proxy@0@PEAU10@@Z ; std::_Unfancy<std::_Container_proxy>
  0004d	48 8b 4c 24 40	 mov	 rcx, QWORD PTR this$[rsp]
  00052	48 89 01	 mov	 QWORD PTR [rcx], rax

; 1371 :         _Construct_in_place(*_Ptr, _STD addressof(_Mycont));

  00055	48 8b 4c 24 50	 mov	 rcx, QWORD PTR _Mycont$[rsp]
  0005a	e8 00 00 00 00	 call	 ??$addressof@U_Container_base12@std@@@std@@YAPEAU_Container_base12@0@AEAU10@@Z ; std::addressof<std::_Container_base12>
  0005f	48 89 44 24 20	 mov	 QWORD PTR $T1[rsp], rax
  00064	48 8d 54 24 20	 lea	 rdx, QWORD PTR $T1[rsp]
  00069	48 8b 44 24 40	 mov	 rax, QWORD PTR this$[rsp]
  0006e	48 8b 08	 mov	 rcx, QWORD PTR [rax]
  00071	e8 00 00 00 00	 call	 ??$_Construct_in_place@U_Container_proxy@std@@PEAU_Container_base12@2@@std@@YAXAEAU_Container_proxy@0@$$QEAPEAU_Container_base12@0@@Z ; std::_Construct_in_place<std::_Container_proxy,std::_Container_base12 *>

; 1372 :         _Mycont._Myproxy = _Ptr;

  00076	48 8b 44 24 50	 mov	 rax, QWORD PTR _Mycont$[rsp]
  0007b	48 8b 4c 24 40	 mov	 rcx, QWORD PTR this$[rsp]
  00080	48 8b 09	 mov	 rcx, QWORD PTR [rcx]
  00083	48 89 08	 mov	 QWORD PTR [rax], rcx

; 1373 :     }

  00086	48 8b 44 24 40	 mov	 rax, QWORD PTR this$[rsp]
  0008b	48 83 c4 30	 add	 rsp, 48			; 00000030H
  0008f	5f		 pop	 rdi
  00090	c3		 ret	 0
??0?$_Container_proxy_ptr12@V?$allocator@U_Container_proxy@std@@@std@@@std@@QEAA@AEAV?$allocator@U_Container_proxy@std@@@1@AEAU_Container_base12@1@@Z ENDP ; std::_Container_proxy_ptr12<std::allocator<std::_Container_proxy> >::_Container_proxy_ptr12<std::allocator<std::_Container_proxy> >
_TEXT	ENDS
; Function compile flags: /Odtp /RTCsu
; File C:\Program Files (x86)\Microsoft Visual Studio\2019\Community\VC\Tools\MSVC\14.23.28105\include\xmemory
;	COMDAT ??$_Delete_plain_internal@V?$allocator@U_Container_proxy@std@@@std@@@std@@YAXAEAV?$allocator@U_Container_proxy@std@@@0@QEAU_Container_proxy@0@@Z
_TEXT	SEGMENT
_Al$ = 48
_Ptr$ = 56
??$_Delete_plain_internal@V?$allocator@U_Container_proxy@std@@@std@@@std@@YAXAEAV?$allocator@U_Container_proxy@std@@@0@QEAU_Container_proxy@0@@Z PROC ; std::_Delete_plain_internal<std::allocator<std::_Container_proxy> >, COMDAT

; 1109 : void _Delete_plain_internal(_Alloc& _Al, typename _Alloc::value_type* const _Ptr) noexcept {

$LN3:
  00000	48 89 54 24 10	 mov	 QWORD PTR [rsp+16], rdx
  00005	48 89 4c 24 08	 mov	 QWORD PTR [rsp+8], rcx
  0000a	57		 push	 rdi
  0000b	48 83 ec 20	 sub	 rsp, 32			; 00000020H
  0000f	48 8b fc	 mov	 rdi, rsp
  00012	b9 08 00 00 00	 mov	 ecx, 8
  00017	b8 cc cc cc cc	 mov	 eax, -858993460		; ccccccccH
  0001c	f3 ab		 rep stosd
  0001e	48 8b 4c 24 30	 mov	 rcx, QWORD PTR [rsp+48]

; 1110 :     // destroy *_Ptr in place, then deallocate _Ptr using _Al; used for internal container types the user didn't name
; 1111 :     using _Ty = typename _Alloc::value_type;
; 1112 :     _Ptr->~_Ty();
; 1113 :     _Deallocate_plain(_Al, _Ptr);

  00023	48 8b 54 24 38	 mov	 rdx, QWORD PTR _Ptr$[rsp]
  00028	48 8b 4c 24 30	 mov	 rcx, QWORD PTR _Al$[rsp]
  0002d	e8 00 00 00 00	 call	 ??$_Deallocate_plain@V?$allocator@U_Container_proxy@std@@@std@@@std@@YAXAEAV?$allocator@U_Container_proxy@std@@@0@QEAU_Container_proxy@0@@Z ; std::_Deallocate_plain<std::allocator<std::_Container_proxy> >

; 1114 : }

  00032	48 83 c4 20	 add	 rsp, 32			; 00000020H
  00036	5f		 pop	 rdi
  00037	c3		 ret	 0
??$_Delete_plain_internal@V?$allocator@U_Container_proxy@std@@@std@@@std@@YAXAEAV?$allocator@U_Container_proxy@std@@@0@QEAU_Container_proxy@0@@Z ENDP ; std::_Delete_plain_internal<std::allocator<std::_Container_proxy> >
_TEXT	ENDS
; Function compile flags: /Odtp /RTCsu
; File C:\Program Files (x86)\Microsoft Visual Studio\2019\Community\VC\Tools\MSVC\14.23.28105\include\xmemory
;	COMDAT ?allocate@?$allocator@U_Container_proxy@std@@@std@@QEAAPEAU_Container_proxy@2@_K@Z
_TEXT	SEGMENT
this$ = 48
_Count$ = 56
?allocate@?$allocator@U_Container_proxy@std@@@std@@QEAAPEAU_Container_proxy@2@_K@Z PROC ; std::allocator<std::_Container_proxy>::allocate, COMDAT

; 870  :     _NODISCARD _DECLSPEC_ALLOCATOR _Ty* allocate(_CRT_GUARDOVERFLOW const size_t _Count) {

$LN3:
  00000	48 89 54 24 10	 mov	 QWORD PTR [rsp+16], rdx
  00005	48 89 4c 24 08	 mov	 QWORD PTR [rsp+8], rcx
  0000a	57		 push	 rdi
  0000b	48 83 ec 20	 sub	 rsp, 32			; 00000020H
  0000f	48 8b fc	 mov	 rdi, rsp
  00012	b9 08 00 00 00	 mov	 ecx, 8
  00017	b8 cc cc cc cc	 mov	 eax, -858993460		; ccccccccH
  0001c	f3 ab		 rep stosd
  0001e	48 8b 4c 24 30	 mov	 rcx, QWORD PTR [rsp+48]

; 871  :         return static_cast<_Ty*>(_Allocate<_New_alignof<_Ty>>(_Get_size_of_n<sizeof(_Ty)>(_Count)));

  00023	48 8b 4c 24 38	 mov	 rcx, QWORD PTR _Count$[rsp]
  00028	e8 00 00 00 00	 call	 ??$_Get_size_of_n@$0BA@@std@@YA_K_K@Z ; std::_Get_size_of_n<16>
  0002d	48 8b c8	 mov	 rcx, rax
  00030	e8 00 00 00 00	 call	 ??$_Allocate@$0BA@U_Default_allocate_traits@std@@$0A@@std@@YAPEAX_K@Z ; std::_Allocate<16,std::_Default_allocate_traits,0>

; 872  :     }

  00035	48 83 c4 20	 add	 rsp, 32			; 00000020H
  00039	5f		 pop	 rdi
  0003a	c3		 ret	 0
?allocate@?$allocator@U_Container_proxy@std@@@std@@QEAAPEAU_Container_proxy@2@_K@Z ENDP ; std::allocator<std::_Container_proxy>::allocate
_TEXT	ENDS
; Function compile flags: /Odtp /RTCsu
; File C:\Program Files (x86)\Microsoft Visual Studio\2019\Community\VC\Tools\MSVC\14.23.28105\include\utility
;	COMDAT ??$_Min_value@_K@std@@YAAEB_KAEB_K0@Z
_TEXT	SEGMENT
$T1 = 0
tv65 = 8
_Left$ = 32
_Right$ = 40
??$_Min_value@_K@std@@YAAEB_KAEB_K0@Z PROC		; std::_Min_value<unsigned __int64>, COMDAT

; 25   :     _NOEXCEPT_COND(noexcept(_Right < _Left)) { // return smaller of _Left and _Right

$LN5:
  00000	48 89 54 24 10	 mov	 QWORD PTR [rsp+16], rdx
  00005	48 89 4c 24 08	 mov	 QWORD PTR [rsp+8], rcx
  0000a	57		 push	 rdi
  0000b	48 83 ec 10	 sub	 rsp, 16
  0000f	48 8b fc	 mov	 rdi, rsp
  00012	b9 04 00 00 00	 mov	 ecx, 4
  00017	b8 cc cc cc cc	 mov	 eax, -858993460		; ccccccccH
  0001c	f3 ab		 rep stosd
  0001e	48 8b 4c 24 20	 mov	 rcx, QWORD PTR [rsp+32]

; 26   :     return _Right < _Left ? _Right : _Left;

  00023	48 8b 44 24 28	 mov	 rax, QWORD PTR _Right$[rsp]
  00028	48 8b 4c 24 20	 mov	 rcx, QWORD PTR _Left$[rsp]
  0002d	48 8b 09	 mov	 rcx, QWORD PTR [rcx]
  00030	48 39 08	 cmp	 QWORD PTR [rax], rcx
  00033	73 0c		 jae	 SHORT $LN3@Min_value
  00035	48 8b 44 24 28	 mov	 rax, QWORD PTR _Right$[rsp]
  0003a	48 89 44 24 08	 mov	 QWORD PTR tv65[rsp], rax
  0003f	eb 0a		 jmp	 SHORT $LN4@Min_value
$LN3@Min_value:
  00041	48 8b 44 24 20	 mov	 rax, QWORD PTR _Left$[rsp]
  00046	48 89 44 24 08	 mov	 QWORD PTR tv65[rsp], rax
$LN4@Min_value:
  0004b	48 8b 44 24 08	 mov	 rax, QWORD PTR tv65[rsp]
  00050	48 89 04 24	 mov	 QWORD PTR $T1[rsp], rax
  00054	48 8b 04 24	 mov	 rax, QWORD PTR $T1[rsp]

; 27   : }

  00058	48 83 c4 10	 add	 rsp, 16
  0005c	5f		 pop	 rdi
  0005d	c3		 ret	 0
??$_Min_value@_K@std@@YAAEB_KAEB_K0@Z ENDP		; std::_Min_value<unsigned __int64>
_TEXT	ENDS
; Function compile flags: /Odtp /RTCsu
; File C:\Program Files (x86)\Microsoft Visual Studio\2019\Community\VC\Tools\MSVC\14.23.28105\include\type_traits
;	COMDAT ??$move@AEAV?$basic_string@DU?$char_traits@D@std@@V?$allocator@D@2@@std@@@std@@YA$$QEAV?$basic_string@DU?$char_traits@D@std@@V?$allocator@D@2@@0@AEAV10@@Z
_TEXT	SEGMENT
_Arg$ = 16
??$move@AEAV?$basic_string@DU?$char_traits@D@std@@V?$allocator@D@2@@std@@@std@@YA$$QEAV?$basic_string@DU?$char_traits@D@std@@V?$allocator@D@2@@0@AEAV10@@Z PROC ; std::move<std::basic_string<char,std::char_traits<char>,std::allocator<char> > &>, COMDAT

; 1432 : _NODISCARD constexpr remove_reference_t<_Ty>&& move(_Ty&& _Arg) noexcept { // forward _Arg as movable

$LN3:
  00000	48 89 4c 24 08	 mov	 QWORD PTR [rsp+8], rcx
  00005	57		 push	 rdi

; 1433 :     return static_cast<remove_reference_t<_Ty>&&>(_Arg);

  00006	48 8b 44 24 10	 mov	 rax, QWORD PTR _Arg$[rsp]

; 1434 : }

  0000b	5f		 pop	 rdi
  0000c	c3		 ret	 0
??$move@AEAV?$basic_string@DU?$char_traits@D@std@@V?$allocator@D@2@@std@@@std@@YA$$QEAV?$basic_string@DU?$char_traits@D@std@@V?$allocator@D@2@@0@AEAV10@@Z ENDP ; std::move<std::basic_string<char,std::char_traits<char>,std::allocator<char> > &>
_TEXT	ENDS
; Function compile flags: /Odtp /RTCsu
; File C:\Program Files (x86)\Microsoft Visual Studio\2019\Community\VC\Tools\MSVC\14.23.28105\include\vector
;	COMDAT ?_Unchecked_end@?$vector@PEBDV?$allocator@PEBD@std@@@std@@QEBAPEBQEBDXZ
_TEXT	SEGMENT
this$ = 16
?_Unchecked_end@?$vector@PEBDV?$allocator@PEBD@std@@@std@@QEBAPEBQEBDXZ PROC ; std::vector<char const *,std::allocator<char const *> >::_Unchecked_end, COMDAT

; 1427 :     const_pointer _Unchecked_end() const noexcept { // return pointer for end of nonmutable sequence

$LN3:
  00000	48 89 4c 24 08	 mov	 QWORD PTR [rsp+8], rcx
  00005	57		 push	 rdi

; 1428 :         return _Mypair._Myval2._Mylast;

  00006	48 8b 44 24 10	 mov	 rax, QWORD PTR this$[rsp]
  0000b	48 8b 40 10	 mov	 rax, QWORD PTR [rax+16]

; 1429 :     }

  0000f	5f		 pop	 rdi
  00010	c3		 ret	 0
?_Unchecked_end@?$vector@PEBDV?$allocator@PEBD@std@@@std@@QEBAPEBQEBDXZ ENDP ; std::vector<char const *,std::allocator<char const *> >::_Unchecked_end
_TEXT	ENDS
; Function compile flags: /Odtp /RTCsu
; File C:\Program Files (x86)\Microsoft Visual Studio\2019\Community\VC\Tools\MSVC\14.23.28105\include\vector
;	COMDAT ?_Unchecked_begin@?$vector@PEBDV?$allocator@PEBD@std@@@std@@QEBAPEBQEBDXZ
_TEXT	SEGMENT
this$ = 16
?_Unchecked_begin@?$vector@PEBDV?$allocator@PEBD@std@@@std@@QEBAPEBQEBDXZ PROC ; std::vector<char const *,std::allocator<char const *> >::_Unchecked_begin, COMDAT

; 1419 :     const_pointer _Unchecked_begin() const noexcept { // return pointer for beginning of nonmutable sequence

$LN3:
  00000	48 89 4c 24 08	 mov	 QWORD PTR [rsp+8], rcx
  00005	57		 push	 rdi

; 1420 :         return _Mypair._Myval2._Myfirst;

  00006	48 8b 44 24 10	 mov	 rax, QWORD PTR this$[rsp]
  0000b	48 8b 40 08	 mov	 rax, QWORD PTR [rax+8]

; 1421 :     }

  0000f	5f		 pop	 rdi
  00010	c3		 ret	 0
?_Unchecked_begin@?$vector@PEBDV?$allocator@PEBD@std@@@std@@QEBAPEBQEBDXZ ENDP ; std::vector<char const *,std::allocator<char const *> >::_Unchecked_begin
_TEXT	ENDS
; Function compile flags: /Odtp /RTCsu
; File C:\Program Files (x86)\Microsoft Visual Studio\2019\Community\VC\Tools\MSVC\14.23.28105\include\xstring
;	COMDAT ??$?HDU?$char_traits@D@std@@V?$allocator@D@1@@std@@YA?AV?$basic_string@DU?$char_traits@D@std@@V?$allocator@D@2@@0@$$QEAV10@QEBD@Z
_TEXT	SEGMENT
$T1 = 32
__$ReturnUdt$ = 64
_Left$ = 72
_Right$ = 80
??$?HDU?$char_traits@D@std@@V?$allocator@D@1@@std@@YA?AV?$basic_string@DU?$char_traits@D@std@@V?$allocator@D@2@@0@$$QEAV10@QEBD@Z PROC ; std::operator+<char,std::char_traits<char>,std::allocator<char> >, COMDAT

; 4321 :     _In_z_ const _Elem* const _Right) { // return string + NTCTS

$LN5:
  00000	4c 89 44 24 18	 mov	 QWORD PTR [rsp+24], r8
  00005	48 89 54 24 10	 mov	 QWORD PTR [rsp+16], rdx
  0000a	48 89 4c 24 08	 mov	 QWORD PTR [rsp+8], rcx
  0000f	57		 push	 rdi
  00010	48 83 ec 30	 sub	 rsp, 48			; 00000030H
  00014	48 8b fc	 mov	 rdi, rsp
  00017	b9 0c 00 00 00	 mov	 ecx, 12
  0001c	b8 cc cc cc cc	 mov	 eax, -858993460		; ccccccccH
  00021	f3 ab		 rep stosd
  00023	48 8b 4c 24 40	 mov	 rcx, QWORD PTR [rsp+64]
  00028	c7 44 24 20 00
	00 00 00	 mov	 DWORD PTR $T1[rsp], 0

; 4322 :     return _STD move(_Left.append(_Right));

  00030	48 8b 54 24 50	 mov	 rdx, QWORD PTR _Right$[rsp]
  00035	48 8b 4c 24 48	 mov	 rcx, QWORD PTR _Left$[rsp]
  0003a	e8 00 00 00 00	 call	 ?append@?$basic_string@DU?$char_traits@D@std@@V?$allocator@D@2@@std@@QEAAAEAV12@QEBD@Z ; std::basic_string<char,std::char_traits<char>,std::allocator<char> >::append
  0003f	48 8b c8	 mov	 rcx, rax
  00042	e8 00 00 00 00	 call	 ??$move@AEAV?$basic_string@DU?$char_traits@D@std@@V?$allocator@D@2@@std@@@std@@YA$$QEAV?$basic_string@DU?$char_traits@D@std@@V?$allocator@D@2@@0@AEAV10@@Z ; std::move<std::basic_string<char,std::char_traits<char>,std::allocator<char> > &>
  00047	48 8b d0	 mov	 rdx, rax
  0004a	48 8b 4c 24 40	 mov	 rcx, QWORD PTR __$ReturnUdt$[rsp]
  0004f	e8 00 00 00 00	 call	 ??0?$basic_string@DU?$char_traits@D@std@@V?$allocator@D@2@@std@@QEAA@$$QEAV01@@Z ; std::basic_string<char,std::char_traits<char>,std::allocator<char> >::basic_string<char,std::char_traits<char>,std::allocator<char> >
  00054	90		 npad	 1
  00055	8b 44 24 20	 mov	 eax, DWORD PTR $T1[rsp]
  00059	83 c8 01	 or	 eax, 1
  0005c	89 44 24 20	 mov	 DWORD PTR $T1[rsp], eax
  00060	48 8b 44 24 40	 mov	 rax, QWORD PTR __$ReturnUdt$[rsp]

; 4323 : }

  00065	48 83 c4 30	 add	 rsp, 48			; 00000030H
  00069	5f		 pop	 rdi
  0006a	c3		 ret	 0
  0006b	cc		 int	 3
??$?HDU?$char_traits@D@std@@V?$allocator@D@1@@std@@YA?AV?$basic_string@DU?$char_traits@D@std@@V?$allocator@D@2@@0@$$QEAV10@QEBD@Z ENDP ; std::operator+<char,std::char_traits<char>,std::allocator<char> >
_TEXT	ENDS
;	COMDAT text$x
text$x	SEGMENT
$T1 = 32
__$ReturnUdt$ = 64
_Left$ = 72
_Right$ = 80
?dtor$0@?0???$?HDU?$char_traits@D@std@@V?$allocator@D@1@@std@@YA?AV?$basic_string@DU?$char_traits@D@std@@V?$allocator@D@2@@0@$$QEAV10@QEBD@Z@4HA PROC ; `std::operator+<char,std::char_traits<char>,std::allocator<char> >'::`1'::dtor$0
  00000	48 89 4c 24 08	 mov	 QWORD PTR [rsp+8], rcx
  00005	48 89 54 24 10	 mov	 QWORD PTR [rsp+16], rdx
  0000a	55		 push	 rbp
  0000b	57		 push	 rdi
  0000c	48 83 ec 28	 sub	 rsp, 40			; 00000028H
  00010	48 8b ea	 mov	 rbp, rdx
  00013	8b 45 20	 mov	 eax, DWORD PTR $T1[rbp]
  00016	83 e0 01	 and	 eax, 1
  00019	85 c0		 test	 eax, eax
  0001b	74 0d		 je	 SHORT $LN4@dtor$0
  0001d	83 65 20 fe	 and	 DWORD PTR $T1[rbp], -2
  00021	48 8b 4d 40	 mov	 rcx, QWORD PTR __$ReturnUdt$[rbp]
  00025	e8 00 00 00 00	 call	 ??1?$basic_string@DU?$char_traits@D@std@@V?$allocator@D@2@@std@@QEAA@XZ ; std::basic_string<char,std::char_traits<char>,std::allocator<char> >::~basic_string<char,std::char_traits<char>,std::allocator<char> >
$LN4@dtor$0:
  0002a	48 83 c4 28	 add	 rsp, 40			; 00000028H
  0002e	5f		 pop	 rdi
  0002f	5d		 pop	 rbp
  00030	c3		 ret	 0
?dtor$0@?0???$?HDU?$char_traits@D@std@@V?$allocator@D@1@@std@@YA?AV?$basic_string@DU?$char_traits@D@std@@V?$allocator@D@2@@0@$$QEAV10@QEBD@Z@4HA ENDP ; `std::operator+<char,std::char_traits<char>,std::allocator<char> >'::`1'::dtor$0
text$x	ENDS
; Function compile flags: /Odtp /RTCsu
;	COMDAT text$x
text$x	SEGMENT
$T1 = 32
__$ReturnUdt$ = 64
_Left$ = 72
_Right$ = 80
?dtor$0@?0???$?HDU?$char_traits@D@std@@V?$allocator@D@1@@std@@YA?AV?$basic_string@DU?$char_traits@D@std@@V?$allocator@D@2@@0@$$QEAV10@QEBD@Z@4HA PROC ; `std::operator+<char,std::char_traits<char>,std::allocator<char> >'::`1'::dtor$0
  00000	48 89 4c 24 08	 mov	 QWORD PTR [rsp+8], rcx
  00005	48 89 54 24 10	 mov	 QWORD PTR [rsp+16], rdx
  0000a	55		 push	 rbp
  0000b	57		 push	 rdi
  0000c	48 83 ec 28	 sub	 rsp, 40			; 00000028H
  00010	48 8b ea	 mov	 rbp, rdx
  00013	8b 45 20	 mov	 eax, DWORD PTR $T1[rbp]
  00016	83 e0 01	 and	 eax, 1
  00019	85 c0		 test	 eax, eax
  0001b	74 0d		 je	 SHORT $LN4@dtor$0
  0001d	83 65 20 fe	 and	 DWORD PTR $T1[rbp], -2
  00021	48 8b 4d 40	 mov	 rcx, QWORD PTR __$ReturnUdt$[rbp]
  00025	e8 00 00 00 00	 call	 ??1?$basic_string@DU?$char_traits@D@std@@V?$allocator@D@2@@std@@QEAA@XZ ; std::basic_string<char,std::char_traits<char>,std::allocator<char> >::~basic_string<char,std::char_traits<char>,std::allocator<char> >
$LN4@dtor$0:
  0002a	48 83 c4 28	 add	 rsp, 40			; 00000028H
  0002e	5f		 pop	 rdi
  0002f	5d		 pop	 rbp
  00030	c3		 ret	 0
?dtor$0@?0???$?HDU?$char_traits@D@std@@V?$allocator@D@1@@std@@YA?AV?$basic_string@DU?$char_traits@D@std@@V?$allocator@D@2@@0@$$QEAV10@QEBD@Z@4HA ENDP ; `std::operator+<char,std::char_traits<char>,std::allocator<char> >'::`1'::dtor$0
text$x	ENDS
; Function compile flags: /Odtp /RTCsu
; File D:\work\intel\intel_codec\QSVPipeline\rgy_util.h
;	COMDAT ??__ECspColorprimList@@YAXXZ
text$di	SEGMENT
$T1 = 112
$T2 = 168
$T3 = 172
$T4 = 176
$T5 = 180
$T6 = 184
$T7 = 188
$T8 = 192
$T9 = 196
$T10 = 200
$T11 = 204
$T12 = 208
$T13 = 212
$T14 = 216
__$ArrayPad$ = 264
??__ECspColorprimList@@YAXXZ PROC			; `dynamic initializer for 'CspColorprimList'', COMDAT

; 1187 : );

  00000	40 56		 push	 rsi
  00002	57		 push	 rdi
  00003	48 81 ec 18 01
	00 00		 sub	 rsp, 280		; 00000118H
  0000a	48 8b fc	 mov	 rdi, rsp
  0000d	b9 46 00 00 00	 mov	 ecx, 70			; 00000046H
  00012	b8 cc cc cc cc	 mov	 eax, -858993460		; ccccccccH
  00017	f3 ab		 rep stosd
  00019	48 8b 05 00 00
	00 00		 mov	 rax, QWORD PTR __security_cookie
  00020	48 33 c4	 xor	 rax, rsp
  00023	48 89 84 24 08
	01 00 00	 mov	 QWORD PTR __$ArrayPad$[rsp], rax

; 1174 : static const auto CspColorprimList = make_array<CspColorprim>(

  0002b	c7 84 24 a8 00
	00 00 0d 00 00
	00		 mov	 DWORD PTR $T2[rsp], 13
  00036	c7 84 24 ac 00
	00 00 0c 00 00
	00		 mov	 DWORD PTR $T3[rsp], 12
  00041	c7 84 24 b0 00
	00 00 0b 00 00
	00		 mov	 DWORD PTR $T4[rsp], 11
  0004c	c7 84 24 b4 00
	00 00 0a 00 00
	00		 mov	 DWORD PTR $T5[rsp], 10
  00057	c7 84 24 b8 00
	00 00 09 00 00
	00		 mov	 DWORD PTR $T6[rsp], 9
  00062	c7 84 24 bc 00
	00 00 08 00 00
	00		 mov	 DWORD PTR $T7[rsp], 8
  0006d	c7 84 24 c0 00
	00 00 07 00 00
	00		 mov	 DWORD PTR $T8[rsp], 7
  00078	c7 84 24 c4 00
	00 00 06 00 00
	00		 mov	 DWORD PTR $T9[rsp], 6
  00083	c7 84 24 c8 00
	00 00 05 00 00
	00		 mov	 DWORD PTR $T10[rsp], 5
  0008e	c7 84 24 cc 00
	00 00 04 00 00
	00		 mov	 DWORD PTR $T11[rsp], 4
  00099	c7 84 24 d0 00
	00 00 02 00 00
	00		 mov	 DWORD PTR $T12[rsp], 2
  000a4	c7 84 24 d4 00
	00 00 01 00 00
	00		 mov	 DWORD PTR $T13[rsp], 1
  000af	48 8d 84 24 a8
	00 00 00	 lea	 rax, QWORD PTR $T2[rsp]
  000b7	48 89 44 24 60	 mov	 QWORD PTR [rsp+96], rax
  000bc	48 8d 84 24 ac
	00 00 00	 lea	 rax, QWORD PTR $T3[rsp]
  000c4	48 89 44 24 58	 mov	 QWORD PTR [rsp+88], rax
  000c9	48 8d 84 24 b0
	00 00 00	 lea	 rax, QWORD PTR $T4[rsp]
  000d1	48 89 44 24 50	 mov	 QWORD PTR [rsp+80], rax
  000d6	48 8d 84 24 b4
	00 00 00	 lea	 rax, QWORD PTR $T5[rsp]
  000de	48 89 44 24 48	 mov	 QWORD PTR [rsp+72], rax
  000e3	48 8d 84 24 b8
	00 00 00	 lea	 rax, QWORD PTR $T6[rsp]
  000eb	48 89 44 24 40	 mov	 QWORD PTR [rsp+64], rax
  000f0	48 8d 84 24 bc
	00 00 00	 lea	 rax, QWORD PTR $T7[rsp]
  000f8	48 89 44 24 38	 mov	 QWORD PTR [rsp+56], rax
  000fd	48 8d 84 24 c0
	00 00 00	 lea	 rax, QWORD PTR $T8[rsp]
  00105	48 89 44 24 30	 mov	 QWORD PTR [rsp+48], rax
  0010a	48 8d 84 24 c4
	00 00 00	 lea	 rax, QWORD PTR $T9[rsp]
  00112	48 89 44 24 28	 mov	 QWORD PTR [rsp+40], rax
  00117	48 8d 84 24 c8
	00 00 00	 lea	 rax, QWORD PTR $T10[rsp]
  0011f	48 89 44 24 20	 mov	 QWORD PTR [rsp+32], rax
  00124	4c 8d 8c 24 cc
	00 00 00	 lea	 r9, QWORD PTR $T11[rsp]
  0012c	4c 8d 84 24 d0
	00 00 00	 lea	 r8, QWORD PTR $T12[rsp]
  00134	48 8d 94 24 d4
	00 00 00	 lea	 rdx, QWORD PTR $T13[rsp]
  0013c	48 8d 8c 24 d8
	00 00 00	 lea	 rcx, QWORD PTR $T14[rsp]
  00144	e8 00 00 00 00	 call	 ??$make_array@W4CspColorprim@@W41@W41@W41@W41@W41@W41@W41@W41@W41@W41@W41@W41@@@YA?AV?$array@W4CspColorprim@@$0M@@std@@$$QEAW4CspColorprim@@00000000000@Z ; make_array<enum CspColorprim,enum CspColorprim,enum CspColorprim,enum CspColorprim,enum CspColorprim,enum CspColorprim,enum CspColorprim,enum CspColorprim,enum CspColorprim,enum CspColorprim,enum CspColorprim,enum CspColorprim,enum CspColorprim>
  00149	48 8d 4c 24 70	 lea	 rcx, QWORD PTR $T1[rsp]
  0014e	48 8b f9	 mov	 rdi, rcx
  00151	48 8b f0	 mov	 rsi, rax
  00154	b9 30 00 00 00	 mov	 ecx, 48			; 00000030H
  00159	f3 a4		 rep movsb
  0015b	48 8d 05 00 00
	00 00		 lea	 rax, OFFSET FLAT:?CspColorprimList@@3V?$array@W4CspColorprim@@$0M@@std@@B
  00162	48 8d 4c 24 70	 lea	 rcx, QWORD PTR $T1[rsp]
  00167	48 8b f8	 mov	 rdi, rax
  0016a	48 8b f1	 mov	 rsi, rcx
  0016d	b9 30 00 00 00	 mov	 ecx, 48			; 00000030H
  00172	f3 a4		 rep movsb
  00174	48 8b 8c 24 08
	01 00 00	 mov	 rcx, QWORD PTR __$ArrayPad$[rsp]
  0017c	48 33 cc	 xor	 rcx, rsp
  0017f	e8 00 00 00 00	 call	 __security_check_cookie
  00184	48 81 c4 18 01
	00 00		 add	 rsp, 280		; 00000118H
  0018b	5f		 pop	 rdi
  0018c	5e		 pop	 rsi
  0018d	c3		 ret	 0
??__ECspColorprimList@@YAXXZ ENDP			; `dynamic initializer for 'CspColorprimList''
text$di	ENDS
; Function compile flags: /Odtp /RTCsu
; File D:\work\intel\intel_codec\QSVPipeline\rgy_util.h
;	COMDAT ??$make_array@W4CspColorprim@@W41@W41@W41@W41@W41@W41@W41@W41@W41@W41@W41@W41@@@YA?AV?$array@W4CspColorprim@@$0M@@std@@$$QEAW4CspColorprim@@00000000000@Z
_TEXT	SEGMENT
$T1 = 0
__$ArrayPad$ = 56
$T2 = 96
<args_0>$ = 104
<args_1>$ = 112
<args_2>$ = 120
<args_3>$ = 128
<args_4>$ = 136
<args_5>$ = 144
<args_6>$ = 152
<args_7>$ = 160
<args_8>$ = 168
<args_9>$ = 176
<args_10>$ = 184
<args_11>$ = 192
??$make_array@W4CspColorprim@@W41@W41@W41@W41@W41@W41@W41@W41@W41@W41@W41@W41@@@YA?AV?$array@W4CspColorprim@@$0M@@std@@$$QEAW4CspColorprim@@00000000000@Z PROC ; make_array<enum CspColorprim,enum CspColorprim,enum CspColorprim,enum CspColorprim,enum CspColorprim,enum CspColorprim,enum CspColorprim,enum CspColorprim,enum CspColorprim,enum CspColorprim,enum CspColorprim,enum CspColorprim,enum CspColorprim>, COMDAT

; 129  : constexpr std::array<T, sizeof...(Args)> make_array(Args&&... args) {

$LN3:
  00000	4c 89 4c 24 20	 mov	 QWORD PTR [rsp+32], r9
  00005	4c 89 44 24 18	 mov	 QWORD PTR [rsp+24], r8
  0000a	48 89 54 24 10	 mov	 QWORD PTR [rsp+16], rdx
  0000f	48 89 4c 24 08	 mov	 QWORD PTR [rsp+8], rcx
  00014	56		 push	 rsi
  00015	57		 push	 rdi
  00016	48 83 ec 48	 sub	 rsp, 72			; 00000048H
  0001a	48 8b fc	 mov	 rdi, rsp
  0001d	b9 12 00 00 00	 mov	 ecx, 18
  00022	b8 cc cc cc cc	 mov	 eax, -858993460		; ccccccccH
  00027	f3 ab		 rep stosd
  00029	48 8b 4c 24 60	 mov	 rcx, QWORD PTR [rsp+96]
  0002e	48 8b 05 00 00
	00 00		 mov	 rax, QWORD PTR __security_cookie
  00035	48 33 c4	 xor	 rax, rsp
  00038	48 89 44 24 38	 mov	 QWORD PTR __$ArrayPad$[rsp], rax

; 130  :     return std::array<T, sizeof...(Args)>{ static_cast<Args&&>(args)... };

  0003d	48 8b 44 24 68	 mov	 rax, QWORD PTR <args_0>$[rsp]
  00042	8b 00		 mov	 eax, DWORD PTR [rax]
  00044	89 04 24	 mov	 DWORD PTR $T1[rsp], eax
  00047	48 8b 44 24 70	 mov	 rax, QWORD PTR <args_1>$[rsp]
  0004c	8b 00		 mov	 eax, DWORD PTR [rax]
  0004e	89 44 24 04	 mov	 DWORD PTR $T1[rsp+4], eax
  00052	48 8b 44 24 78	 mov	 rax, QWORD PTR <args_2>$[rsp]
  00057	8b 00		 mov	 eax, DWORD PTR [rax]
  00059	89 44 24 08	 mov	 DWORD PTR $T1[rsp+8], eax
  0005d	48 8b 84 24 80
	00 00 00	 mov	 rax, QWORD PTR <args_3>$[rsp]
  00065	8b 00		 mov	 eax, DWORD PTR [rax]
  00067	89 44 24 0c	 mov	 DWORD PTR $T1[rsp+12], eax
  0006b	48 8b 84 24 88
	00 00 00	 mov	 rax, QWORD PTR <args_4>$[rsp]
  00073	8b 00		 mov	 eax, DWORD PTR [rax]
  00075	89 44 24 10	 mov	 DWORD PTR $T1[rsp+16], eax
  00079	48 8b 84 24 90
	00 00 00	 mov	 rax, QWORD PTR <args_5>$[rsp]
  00081	8b 00		 mov	 eax, DWORD PTR [rax]
  00083	89 44 24 14	 mov	 DWORD PTR $T1[rsp+20], eax
  00087	48 8b 84 24 98
	00 00 00	 mov	 rax, QWORD PTR <args_6>$[rsp]
  0008f	8b 00		 mov	 eax, DWORD PTR [rax]
  00091	89 44 24 18	 mov	 DWORD PTR $T1[rsp+24], eax
  00095	48 8b 84 24 a0
	00 00 00	 mov	 rax, QWORD PTR <args_7>$[rsp]
  0009d	8b 00		 mov	 eax, DWORD PTR [rax]
  0009f	89 44 24 1c	 mov	 DWORD PTR $T1[rsp+28], eax
  000a3	48 8b 84 24 a8
	00 00 00	 mov	 rax, QWORD PTR <args_8>$[rsp]
  000ab	8b 00		 mov	 eax, DWORD PTR [rax]
  000ad	89 44 24 20	 mov	 DWORD PTR $T1[rsp+32], eax
  000b1	48 8b 84 24 b0
	00 00 00	 mov	 rax, QWORD PTR <args_9>$[rsp]
  000b9	8b 00		 mov	 eax, DWORD PTR [rax]
  000bb	89 44 24 24	 mov	 DWORD PTR $T1[rsp+36], eax
  000bf	48 8b 84 24 b8
	00 00 00	 mov	 rax, QWORD PTR <args_10>$[rsp]
  000c7	8b 00		 mov	 eax, DWORD PTR [rax]
  000c9	89 44 24 28	 mov	 DWORD PTR $T1[rsp+40], eax
  000cd	48 8b 84 24 c0
	00 00 00	 mov	 rax, QWORD PTR <args_11>$[rsp]
  000d5	8b 00		 mov	 eax, DWORD PTR [rax]
  000d7	89 44 24 2c	 mov	 DWORD PTR $T1[rsp+44], eax
  000db	48 8d 04 24	 lea	 rax, QWORD PTR $T1[rsp]
  000df	48 8b 7c 24 60	 mov	 rdi, QWORD PTR $T2[rsp]
  000e4	48 8b f0	 mov	 rsi, rax
  000e7	b9 30 00 00 00	 mov	 ecx, 48			; 00000030H
  000ec	f3 a4		 rep movsb
  000ee	48 8b 44 24 60	 mov	 rax, QWORD PTR $T2[rsp]

; 131  : }

  000f3	48 8b 4c 24 38	 mov	 rcx, QWORD PTR __$ArrayPad$[rsp]
  000f8	48 33 cc	 xor	 rcx, rsp
  000fb	e8 00 00 00 00	 call	 __security_check_cookie
  00100	48 83 c4 48	 add	 rsp, 72			; 00000048H
  00104	5f		 pop	 rdi
  00105	5e		 pop	 rsi
  00106	c3		 ret	 0
??$make_array@W4CspColorprim@@W41@W41@W41@W41@W41@W41@W41@W41@W41@W41@W41@W41@@@YA?AV?$array@W4CspColorprim@@$0M@@std@@$$QEAW4CspColorprim@@00000000000@Z ENDP ; make_array<enum CspColorprim,enum CspColorprim,enum CspColorprim,enum CspColorprim,enum CspColorprim,enum CspColorprim,enum CspColorprim,enum CspColorprim,enum CspColorprim,enum CspColorprim,enum CspColorprim,enum CspColorprim,enum CspColorprim>
_TEXT	ENDS
; Function compile flags: /Odtp /RTCsu
; File D:\work\intel\intel_codec\QSVPipeline\rgy_util.h
;	COMDAT ??__ECspTransferList@@YAXXZ
text$di	SEGMENT
$T1 = 128
$T2 = 200
$T3 = 204
$T4 = 208
$T5 = 212
$T6 = 216
$T7 = 220
$T8 = 224
$T9 = 228
$T10 = 232
$T11 = 236
$T12 = 240
$T13 = 244
$T14 = 248
$T15 = 252
$T16 = 256
$T17 = 264
__$ArrayPad$ = 328
??__ECspTransferList@@YAXXZ PROC			; `dynamic initializer for 'CspTransferList'', COMDAT

; 1135 : );

  00000	40 56		 push	 rsi
  00002	57		 push	 rdi
  00003	48 81 ec 58 01
	00 00		 sub	 rsp, 344		; 00000158H
  0000a	48 8b fc	 mov	 rdi, rsp
  0000d	b9 56 00 00 00	 mov	 ecx, 86			; 00000056H
  00012	b8 cc cc cc cc	 mov	 eax, -858993460		; ccccccccH
  00017	f3 ab		 rep stosd
  00019	48 8b 05 00 00
	00 00		 mov	 rax, QWORD PTR __security_cookie
  00020	48 33 c4	 xor	 rax, rsp
  00023	48 89 84 24 48
	01 00 00	 mov	 QWORD PTR __$ArrayPad$[rsp], rax

; 1119 : static const auto CspTransferList = make_array<CspTransfer>(

  0002b	c7 84 24 c8 00
	00 00 12 00 00
	00		 mov	 DWORD PTR $T2[rsp], 18
  00036	c7 84 24 cc 00
	00 00 10 00 00
	00		 mov	 DWORD PTR $T3[rsp], 16
  00041	c7 84 24 d0 00
	00 00 0f 00 00
	00		 mov	 DWORD PTR $T4[rsp], 15
  0004c	c7 84 24 d4 00
	00 00 0e 00 00
	00		 mov	 DWORD PTR $T5[rsp], 14
  00057	c7 84 24 d8 00
	00 00 0d 00 00
	00		 mov	 DWORD PTR $T6[rsp], 13
  00062	c7 84 24 dc 00
	00 00 0b 00 00
	00		 mov	 DWORD PTR $T7[rsp], 11
  0006d	c7 84 24 e0 00
	00 00 0a 00 00
	00		 mov	 DWORD PTR $T8[rsp], 10
  00078	c7 84 24 e4 00
	00 00 09 00 00
	00		 mov	 DWORD PTR $T9[rsp], 9
  00083	c7 84 24 e8 00
	00 00 08 00 00
	00		 mov	 DWORD PTR $T10[rsp], 8
  0008e	c7 84 24 ec 00
	00 00 07 00 00
	00		 mov	 DWORD PTR $T11[rsp], 7
  00099	c7 84 24 f0 00
	00 00 06 00 00
	00		 mov	 DWORD PTR $T12[rsp], 6
  000a4	c7 84 24 f4 00
	00 00 05 00 00
	00		 mov	 DWORD PTR $T13[rsp], 5
  000af	c7 84 24 f8 00
	00 00 04 00 00
	00		 mov	 DWORD PTR $T14[rsp], 4
  000ba	c7 84 24 fc 00
	00 00 02 00 00
	00		 mov	 DWORD PTR $T15[rsp], 2
  000c5	c7 84 24 00 01
	00 00 01 00 00
	00		 mov	 DWORD PTR $T16[rsp], 1
  000d0	48 8d 84 24 c8
	00 00 00	 lea	 rax, QWORD PTR $T2[rsp]
  000d8	48 89 44 24 78	 mov	 QWORD PTR [rsp+120], rax
  000dd	48 8d 84 24 cc
	00 00 00	 lea	 rax, QWORD PTR $T3[rsp]
  000e5	48 89 44 24 70	 mov	 QWORD PTR [rsp+112], rax
  000ea	48 8d 84 24 d0
	00 00 00	 lea	 rax, QWORD PTR $T4[rsp]
  000f2	48 89 44 24 68	 mov	 QWORD PTR [rsp+104], rax
  000f7	48 8d 84 24 d4
	00 00 00	 lea	 rax, QWORD PTR $T5[rsp]
  000ff	48 89 44 24 60	 mov	 QWORD PTR [rsp+96], rax
  00104	48 8d 84 24 d8
	00 00 00	 lea	 rax, QWORD PTR $T6[rsp]
  0010c	48 89 44 24 58	 mov	 QWORD PTR [rsp+88], rax
  00111	48 8d 84 24 dc
	00 00 00	 lea	 rax, QWORD PTR $T7[rsp]
  00119	48 89 44 24 50	 mov	 QWORD PTR [rsp+80], rax
  0011e	48 8d 84 24 e0
	00 00 00	 lea	 rax, QWORD PTR $T8[rsp]
  00126	48 89 44 24 48	 mov	 QWORD PTR [rsp+72], rax
  0012b	48 8d 84 24 e4
	00 00 00	 lea	 rax, QWORD PTR $T9[rsp]
  00133	48 89 44 24 40	 mov	 QWORD PTR [rsp+64], rax
  00138	48 8d 84 24 e8
	00 00 00	 lea	 rax, QWORD PTR $T10[rsp]
  00140	48 89 44 24 38	 mov	 QWORD PTR [rsp+56], rax
  00145	48 8d 84 24 ec
	00 00 00	 lea	 rax, QWORD PTR $T11[rsp]
  0014d	48 89 44 24 30	 mov	 QWORD PTR [rsp+48], rax
  00152	48 8d 84 24 f0
	00 00 00	 lea	 rax, QWORD PTR $T12[rsp]
  0015a	48 89 44 24 28	 mov	 QWORD PTR [rsp+40], rax
  0015f	48 8d 84 24 f4
	00 00 00	 lea	 rax, QWORD PTR $T13[rsp]
  00167	48 89 44 24 20	 mov	 QWORD PTR [rsp+32], rax
  0016c	4c 8d 8c 24 f8
	00 00 00	 lea	 r9, QWORD PTR $T14[rsp]
  00174	4c 8d 84 24 fc
	00 00 00	 lea	 r8, QWORD PTR $T15[rsp]
  0017c	48 8d 94 24 00
	01 00 00	 lea	 rdx, QWORD PTR $T16[rsp]
  00184	48 8d 8c 24 08
	01 00 00	 lea	 rcx, QWORD PTR $T17[rsp]
  0018c	e8 00 00 00 00	 call	 ??$make_array@W4CspTransfer@@W41@W41@W41@W41@W41@W41@W41@W41@W41@W41@W41@W41@W41@W41@W41@@@YA?AV?$array@W4CspTransfer@@$0P@@std@@$$QEAW4CspTransfer@@00000000000000@Z ; make_array<enum CspTransfer,enum CspTransfer,enum CspTransfer,enum CspTransfer,enum CspTransfer,enum CspTransfer,enum CspTransfer,enum CspTransfer,enum CspTransfer,enum CspTransfer,enum CspTransfer,enum CspTransfer,enum CspTransfer,enum CspTransfer,enum CspTransfer,enum CspTransfer>
  00191	48 8d 8c 24 80
	00 00 00	 lea	 rcx, QWORD PTR $T1[rsp]
  00199	48 8b f9	 mov	 rdi, rcx
  0019c	48 8b f0	 mov	 rsi, rax
  0019f	b9 3c 00 00 00	 mov	 ecx, 60			; 0000003cH
  001a4	f3 a4		 rep movsb
  001a6	48 8d 05 00 00
	00 00		 lea	 rax, OFFSET FLAT:?CspTransferList@@3V?$array@W4CspTransfer@@$0P@@std@@B
  001ad	48 8d 8c 24 80
	00 00 00	 lea	 rcx, QWORD PTR $T1[rsp]
  001b5	48 8b f8	 mov	 rdi, rax
  001b8	48 8b f1	 mov	 rsi, rcx
  001bb	b9 3c 00 00 00	 mov	 ecx, 60			; 0000003cH
  001c0	f3 a4		 rep movsb
  001c2	48 8b 8c 24 48
	01 00 00	 mov	 rcx, QWORD PTR __$ArrayPad$[rsp]
  001ca	48 33 cc	 xor	 rcx, rsp
  001cd	e8 00 00 00 00	 call	 __security_check_cookie
  001d2	48 81 c4 58 01
	00 00		 add	 rsp, 344		; 00000158H
  001d9	5f		 pop	 rdi
  001da	5e		 pop	 rsi
  001db	c3		 ret	 0
??__ECspTransferList@@YAXXZ ENDP			; `dynamic initializer for 'CspTransferList''
text$di	ENDS
; Function compile flags: /Odtp /RTCsu
; File D:\work\intel\intel_codec\QSVPipeline\rgy_util.h
;	COMDAT ??$make_array@W4CspTransfer@@W41@W41@W41@W41@W41@W41@W41@W41@W41@W41@W41@W41@W41@W41@W41@@@YA?AV?$array@W4CspTransfer@@$0P@@std@@$$QEAW4CspTransfer@@00000000000000@Z
_TEXT	SEGMENT
$T1 = 0
__$ArrayPad$ = 72
$T2 = 112
<args_0>$ = 120
<args_1>$ = 128
<args_2>$ = 136
<args_3>$ = 144
<args_4>$ = 152
<args_5>$ = 160
<args_6>$ = 168
<args_7>$ = 176
<args_8>$ = 184
<args_9>$ = 192
<args_10>$ = 200
<args_11>$ = 208
<args_12>$ = 216
<args_13>$ = 224
<args_14>$ = 232
??$make_array@W4CspTransfer@@W41@W41@W41@W41@W41@W41@W41@W41@W41@W41@W41@W41@W41@W41@W41@@@YA?AV?$array@W4CspTransfer@@$0P@@std@@$$QEAW4CspTransfer@@00000000000000@Z PROC ; make_array<enum CspTransfer,enum CspTransfer,enum CspTransfer,enum CspTransfer,enum CspTransfer,enum CspTransfer,enum CspTransfer,enum CspTransfer,enum CspTransfer,enum CspTransfer,enum CspTransfer,enum CspTransfer,enum CspTransfer,enum CspTransfer,enum CspTransfer,enum CspTransfer>, COMDAT

; 129  : constexpr std::array<T, sizeof...(Args)> make_array(Args&&... args) {

$LN3:
  00000	4c 89 4c 24 20	 mov	 QWORD PTR [rsp+32], r9
  00005	4c 89 44 24 18	 mov	 QWORD PTR [rsp+24], r8
  0000a	48 89 54 24 10	 mov	 QWORD PTR [rsp+16], rdx
  0000f	48 89 4c 24 08	 mov	 QWORD PTR [rsp+8], rcx
  00014	56		 push	 rsi
  00015	57		 push	 rdi
  00016	48 83 ec 58	 sub	 rsp, 88			; 00000058H
  0001a	48 8b fc	 mov	 rdi, rsp
  0001d	b9 16 00 00 00	 mov	 ecx, 22
  00022	b8 cc cc cc cc	 mov	 eax, -858993460		; ccccccccH
  00027	f3 ab		 rep stosd
  00029	48 8b 4c 24 70	 mov	 rcx, QWORD PTR [rsp+112]
  0002e	48 8b 05 00 00
	00 00		 mov	 rax, QWORD PTR __security_cookie
  00035	48 33 c4	 xor	 rax, rsp
  00038	48 89 44 24 48	 mov	 QWORD PTR __$ArrayPad$[rsp], rax

; 130  :     return std::array<T, sizeof...(Args)>{ static_cast<Args&&>(args)... };

  0003d	48 8b 44 24 78	 mov	 rax, QWORD PTR <args_0>$[rsp]
  00042	8b 00		 mov	 eax, DWORD PTR [rax]
  00044	89 04 24	 mov	 DWORD PTR $T1[rsp], eax
  00047	48 8b 84 24 80
	00 00 00	 mov	 rax, QWORD PTR <args_1>$[rsp]
  0004f	8b 00		 mov	 eax, DWORD PTR [rax]
  00051	89 44 24 04	 mov	 DWORD PTR $T1[rsp+4], eax
  00055	48 8b 84 24 88
	00 00 00	 mov	 rax, QWORD PTR <args_2>$[rsp]
  0005d	8b 00		 mov	 eax, DWORD PTR [rax]
  0005f	89 44 24 08	 mov	 DWORD PTR $T1[rsp+8], eax
  00063	48 8b 84 24 90
	00 00 00	 mov	 rax, QWORD PTR <args_3>$[rsp]
  0006b	8b 00		 mov	 eax, DWORD PTR [rax]
  0006d	89 44 24 0c	 mov	 DWORD PTR $T1[rsp+12], eax
  00071	48 8b 84 24 98
	00 00 00	 mov	 rax, QWORD PTR <args_4>$[rsp]
  00079	8b 00		 mov	 eax, DWORD PTR [rax]
  0007b	89 44 24 10	 mov	 DWORD PTR $T1[rsp+16], eax
  0007f	48 8b 84 24 a0
	00 00 00	 mov	 rax, QWORD PTR <args_5>$[rsp]
  00087	8b 00		 mov	 eax, DWORD PTR [rax]
  00089	89 44 24 14	 mov	 DWORD PTR $T1[rsp+20], eax
  0008d	48 8b 84 24 a8
	00 00 00	 mov	 rax, QWORD PTR <args_6>$[rsp]
  00095	8b 00		 mov	 eax, DWORD PTR [rax]
  00097	89 44 24 18	 mov	 DWORD PTR $T1[rsp+24], eax
  0009b	48 8b 84 24 b0
	00 00 00	 mov	 rax, QWORD PTR <args_7>$[rsp]
  000a3	8b 00		 mov	 eax, DWORD PTR [rax]
  000a5	89 44 24 1c	 mov	 DWORD PTR $T1[rsp+28], eax
  000a9	48 8b 84 24 b8
	00 00 00	 mov	 rax, QWORD PTR <args_8>$[rsp]
  000b1	8b 00		 mov	 eax, DWORD PTR [rax]
  000b3	89 44 24 20	 mov	 DWORD PTR $T1[rsp+32], eax
  000b7	48 8b 84 24 c0
	00 00 00	 mov	 rax, QWORD PTR <args_9>$[rsp]
  000bf	8b 00		 mov	 eax, DWORD PTR [rax]
  000c1	89 44 24 24	 mov	 DWORD PTR $T1[rsp+36], eax
  000c5	48 8b 84 24 c8
	00 00 00	 mov	 rax, QWORD PTR <args_10>$[rsp]
  000cd	8b 00		 mov	 eax, DWORD PTR [rax]
  000cf	89 44 24 28	 mov	 DWORD PTR $T1[rsp+40], eax
  000d3	48 8b 84 24 d0
	00 00 00	 mov	 rax, QWORD PTR <args_11>$[rsp]
  000db	8b 00		 mov	 eax, DWORD PTR [rax]
  000dd	89 44 24 2c	 mov	 DWORD PTR $T1[rsp+44], eax
  000e1	48 8b 84 24 d8
	00 00 00	 mov	 rax, QWORD PTR <args_12>$[rsp]
  000e9	8b 00		 mov	 eax, DWORD PTR [rax]
  000eb	89 44 24 30	 mov	 DWORD PTR $T1[rsp+48], eax
  000ef	48 8b 84 24 e0
	00 00 00	 mov	 rax, QWORD PTR <args_13>$[rsp]
  000f7	8b 00		 mov	 eax, DWORD PTR [rax]
  000f9	89 44 24 34	 mov	 DWORD PTR $T1[rsp+52], eax
  000fd	48 8b 84 24 e8
	00 00 00	 mov	 rax, QWORD PTR <args_14>$[rsp]
  00105	8b 00		 mov	 eax, DWORD PTR [rax]
  00107	89 44 24 38	 mov	 DWORD PTR $T1[rsp+56], eax
  0010b	48 8d 04 24	 lea	 rax, QWORD PTR $T1[rsp]
  0010f	48 8b 7c 24 70	 mov	 rdi, QWORD PTR $T2[rsp]
  00114	48 8b f0	 mov	 rsi, rax
  00117	b9 3c 00 00 00	 mov	 ecx, 60			; 0000003cH
  0011c	f3 a4		 rep movsb
  0011e	48 8b 44 24 70	 mov	 rax, QWORD PTR $T2[rsp]

; 131  : }

  00123	48 8b 4c 24 48	 mov	 rcx, QWORD PTR __$ArrayPad$[rsp]
  00128	48 33 cc	 xor	 rcx, rsp
  0012b	e8 00 00 00 00	 call	 __security_check_cookie
  00130	48 83 c4 58	 add	 rsp, 88			; 00000058H
  00134	5f		 pop	 rdi
  00135	5e		 pop	 rsi
  00136	c3		 ret	 0
??$make_array@W4CspTransfer@@W41@W41@W41@W41@W41@W41@W41@W41@W41@W41@W41@W41@W41@W41@W41@@@YA?AV?$array@W4CspTransfer@@$0P@@std@@$$QEAW4CspTransfer@@00000000000000@Z ENDP ; make_array<enum CspTransfer,enum CspTransfer,enum CspTransfer,enum CspTransfer,enum CspTransfer,enum CspTransfer,enum CspTransfer,enum CspTransfer,enum CspTransfer,enum CspTransfer,enum CspTransfer,enum CspTransfer,enum CspTransfer,enum CspTransfer,enum CspTransfer,enum CspTransfer>
_TEXT	ENDS
; Function compile flags: /Odtp /RTCsu
; File D:\work\intel\intel_codec\QSVPipeline\rgy_util.h
;	COMDAT ??__ECspMatrixList@@YAXXZ
text$di	SEGMENT
$T1 = 128
$T2 = 192
$T3 = 196
$T4 = 200
$T5 = 204
$T6 = 208
$T7 = 212
$T8 = 216
$T9 = 220
$T10 = 224
$T11 = 228
$T12 = 232
$T13 = 236
$T14 = 240
$T15 = 244
$T16 = 248
__$ArrayPad$ = 304
??__ECspMatrixList@@YAXXZ PROC				; `dynamic initializer for 'CspMatrixList'', COMDAT

; 1080 : );

  00000	40 56		 push	 rsi
  00002	57		 push	 rdi
  00003	48 81 ec 48 01
	00 00		 sub	 rsp, 328		; 00000148H
  0000a	48 8b fc	 mov	 rdi, rsp
  0000d	b9 52 00 00 00	 mov	 ecx, 82			; 00000052H
  00012	b8 cc cc cc cc	 mov	 eax, -858993460		; ccccccccH
  00017	f3 ab		 rep stosd
  00019	48 8b 05 00 00
	00 00		 mov	 rax, QWORD PTR __security_cookie
  00020	48 33 c4	 xor	 rax, rsp
  00023	48 89 84 24 30
	01 00 00	 mov	 QWORD PTR __$ArrayPad$[rsp], rax

; 1065 : static const auto CspMatrixList = make_array<CspMatrix>(

  0002b	c7 84 24 c0 00
	00 00 0f 00 00
	00		 mov	 DWORD PTR $T2[rsp], 15
  00036	c7 84 24 c4 00
	00 00 0e 00 00
	00		 mov	 DWORD PTR $T3[rsp], 14
  00041	c7 84 24 c8 00
	00 00 0d 00 00
	00		 mov	 DWORD PTR $T4[rsp], 13
  0004c	c7 84 24 cc 00
	00 00 0c 00 00
	00		 mov	 DWORD PTR $T5[rsp], 12
  00057	c7 84 24 d0 00
	00 00 0a 00 00
	00		 mov	 DWORD PTR $T6[rsp], 10
  00062	c7 84 24 d4 00
	00 00 09 00 00
	00		 mov	 DWORD PTR $T7[rsp], 9
  0006d	c7 84 24 d8 00
	00 00 08 00 00
	00		 mov	 DWORD PTR $T8[rsp], 8
  00078	c7 84 24 dc 00
	00 00 07 00 00
	00		 mov	 DWORD PTR $T9[rsp], 7
  00083	c7 84 24 e0 00
	00 00 06 00 00
	00		 mov	 DWORD PTR $T10[rsp], 6
  0008e	c7 84 24 e4 00
	00 00 05 00 00
	00		 mov	 DWORD PTR $T11[rsp], 5
  00099	c7 84 24 e8 00
	00 00 04 00 00
	00		 mov	 DWORD PTR $T12[rsp], 4
  000a4	c7 84 24 ec 00
	00 00 02 00 00
	00		 mov	 DWORD PTR $T13[rsp], 2
  000af	c7 84 24 f0 00
	00 00 01 00 00
	00		 mov	 DWORD PTR $T14[rsp], 1
  000ba	c7 84 24 f4 00
	00 00 00 00 00
	00		 mov	 DWORD PTR $T15[rsp], 0
  000c5	48 8d 84 24 c0
	00 00 00	 lea	 rax, QWORD PTR $T2[rsp]
  000cd	48 89 44 24 70	 mov	 QWORD PTR [rsp+112], rax
  000d2	48 8d 84 24 c4
	00 00 00	 lea	 rax, QWORD PTR $T3[rsp]
  000da	48 89 44 24 68	 mov	 QWORD PTR [rsp+104], rax
  000df	48 8d 84 24 c8
	00 00 00	 lea	 rax, QWORD PTR $T4[rsp]
  000e7	48 89 44 24 60	 mov	 QWORD PTR [rsp+96], rax
  000ec	48 8d 84 24 cc
	00 00 00	 lea	 rax, QWORD PTR $T5[rsp]
  000f4	48 89 44 24 58	 mov	 QWORD PTR [rsp+88], rax
  000f9	48 8d 84 24 d0
	00 00 00	 lea	 rax, QWORD PTR $T6[rsp]
  00101	48 89 44 24 50	 mov	 QWORD PTR [rsp+80], rax
  00106	48 8d 84 24 d4
	00 00 00	 lea	 rax, QWORD PTR $T7[rsp]
  0010e	48 89 44 24 48	 mov	 QWORD PTR [rsp+72], rax
  00113	48 8d 84 24 d8
	00 00 00	 lea	 rax, QWORD PTR $T8[rsp]
  0011b	48 89 44 24 40	 mov	 QWORD PTR [rsp+64], rax
  00120	48 8d 84 24 dc
	00 00 00	 lea	 rax, QWORD PTR $T9[rsp]
  00128	48 89 44 24 38	 mov	 QWORD PTR [rsp+56], rax
  0012d	48 8d 84 24 e0
	00 00 00	 lea	 rax, QWORD PTR $T10[rsp]
  00135	48 89 44 24 30	 mov	 QWORD PTR [rsp+48], rax
  0013a	48 8d 84 24 e4
	00 00 00	 lea	 rax, QWORD PTR $T11[rsp]
  00142	48 89 44 24 28	 mov	 QWORD PTR [rsp+40], rax
  00147	48 8d 84 24 e8
	00 00 00	 lea	 rax, QWORD PTR $T12[rsp]
  0014f	48 89 44 24 20	 mov	 QWORD PTR [rsp+32], rax
  00154	4c 8d 8c 24 ec
	00 00 00	 lea	 r9, QWORD PTR $T13[rsp]
  0015c	4c 8d 84 24 f0
	00 00 00	 lea	 r8, QWORD PTR $T14[rsp]
  00164	48 8d 94 24 f4
	00 00 00	 lea	 rdx, QWORD PTR $T15[rsp]
  0016c	48 8d 8c 24 f8
	00 00 00	 lea	 rcx, QWORD PTR $T16[rsp]
  00174	e8 00 00 00 00	 call	 ??$make_array@W4CspMatrix@@W41@W41@W41@W41@W41@W41@W41@W41@W41@W41@W41@W41@W41@W41@@@YA?AV?$array@W4CspMatrix@@$0O@@std@@$$QEAW4CspMatrix@@0000000000000@Z ; make_array<enum CspMatrix,enum CspMatrix,enum CspMatrix,enum CspMatrix,enum CspMatrix,enum CspMatrix,enum CspMatrix,enum CspMatrix,enum CspMatrix,enum CspMatrix,enum CspMatrix,enum CspMatrix,enum CspMatrix,enum CspMatrix,enum CspMatrix>
  00179	48 8d 8c 24 80
	00 00 00	 lea	 rcx, QWORD PTR $T1[rsp]
  00181	48 8b f9	 mov	 rdi, rcx
  00184	48 8b f0	 mov	 rsi, rax
  00187	b9 38 00 00 00	 mov	 ecx, 56			; 00000038H
  0018c	f3 a4		 rep movsb
  0018e	48 8d 05 00 00
	00 00		 lea	 rax, OFFSET FLAT:?CspMatrixList@@3V?$array@W4CspMatrix@@$0O@@std@@B
  00195	48 8d 8c 24 80
	00 00 00	 lea	 rcx, QWORD PTR $T1[rsp]
  0019d	48 8b f8	 mov	 rdi, rax
  001a0	48 8b f1	 mov	 rsi, rcx
  001a3	b9 38 00 00 00	 mov	 ecx, 56			; 00000038H
  001a8	f3 a4		 rep movsb
  001aa	48 8b 8c 24 30
	01 00 00	 mov	 rcx, QWORD PTR __$ArrayPad$[rsp]
  001b2	48 33 cc	 xor	 rcx, rsp
  001b5	e8 00 00 00 00	 call	 __security_check_cookie
  001ba	48 81 c4 48 01
	00 00		 add	 rsp, 328		; 00000148H
  001c1	5f		 pop	 rdi
  001c2	5e		 pop	 rsi
  001c3	c3		 ret	 0
??__ECspMatrixList@@YAXXZ ENDP				; `dynamic initializer for 'CspMatrixList''
text$di	ENDS
; Function compile flags: /Odtp /RTCsu
; File D:\work\intel\intel_codec\QSVPipeline\rgy_util.h
;	COMDAT ??$make_array@W4CspMatrix@@W41@W41@W41@W41@W41@W41@W41@W41@W41@W41@W41@W41@W41@W41@@@YA?AV?$array@W4CspMatrix@@$0O@@std@@$$QEAW4CspMatrix@@0000000000000@Z
_TEXT	SEGMENT
$T1 = 0
__$ArrayPad$ = 64
$T2 = 112
<args_0>$ = 120
<args_1>$ = 128
<args_2>$ = 136
<args_3>$ = 144
<args_4>$ = 152
<args_5>$ = 160
<args_6>$ = 168
<args_7>$ = 176
<args_8>$ = 184
<args_9>$ = 192
<args_10>$ = 200
<args_11>$ = 208
<args_12>$ = 216
<args_13>$ = 224
??$make_array@W4CspMatrix@@W41@W41@W41@W41@W41@W41@W41@W41@W41@W41@W41@W41@W41@W41@@@YA?AV?$array@W4CspMatrix@@$0O@@std@@$$QEAW4CspMatrix@@0000000000000@Z PROC ; make_array<enum CspMatrix,enum CspMatrix,enum CspMatrix,enum CspMatrix,enum CspMatrix,enum CspMatrix,enum CspMatrix,enum CspMatrix,enum CspMatrix,enum CspMatrix,enum CspMatrix,enum CspMatrix,enum CspMatrix,enum CspMatrix,enum CspMatrix>, COMDAT

; 129  : constexpr std::array<T, sizeof...(Args)> make_array(Args&&... args) {

$LN3:
  00000	4c 89 4c 24 20	 mov	 QWORD PTR [rsp+32], r9
  00005	4c 89 44 24 18	 mov	 QWORD PTR [rsp+24], r8
  0000a	48 89 54 24 10	 mov	 QWORD PTR [rsp+16], rdx
  0000f	48 89 4c 24 08	 mov	 QWORD PTR [rsp+8], rcx
  00014	56		 push	 rsi
  00015	57		 push	 rdi
  00016	48 83 ec 58	 sub	 rsp, 88			; 00000058H
  0001a	48 8b fc	 mov	 rdi, rsp
  0001d	b9 16 00 00 00	 mov	 ecx, 22
  00022	b8 cc cc cc cc	 mov	 eax, -858993460		; ccccccccH
  00027	f3 ab		 rep stosd
  00029	48 8b 4c 24 70	 mov	 rcx, QWORD PTR [rsp+112]
  0002e	48 8b 05 00 00
	00 00		 mov	 rax, QWORD PTR __security_cookie
  00035	48 33 c4	 xor	 rax, rsp
  00038	48 89 44 24 40	 mov	 QWORD PTR __$ArrayPad$[rsp], rax

; 130  :     return std::array<T, sizeof...(Args)>{ static_cast<Args&&>(args)... };

  0003d	48 8b 44 24 78	 mov	 rax, QWORD PTR <args_0>$[rsp]
  00042	8b 00		 mov	 eax, DWORD PTR [rax]
  00044	89 04 24	 mov	 DWORD PTR $T1[rsp], eax
  00047	48 8b 84 24 80
	00 00 00	 mov	 rax, QWORD PTR <args_1>$[rsp]
  0004f	8b 00		 mov	 eax, DWORD PTR [rax]
  00051	89 44 24 04	 mov	 DWORD PTR $T1[rsp+4], eax
  00055	48 8b 84 24 88
	00 00 00	 mov	 rax, QWORD PTR <args_2>$[rsp]
  0005d	8b 00		 mov	 eax, DWORD PTR [rax]
  0005f	89 44 24 08	 mov	 DWORD PTR $T1[rsp+8], eax
  00063	48 8b 84 24 90
	00 00 00	 mov	 rax, QWORD PTR <args_3>$[rsp]
  0006b	8b 00		 mov	 eax, DWORD PTR [rax]
  0006d	89 44 24 0c	 mov	 DWORD PTR $T1[rsp+12], eax
  00071	48 8b 84 24 98
	00 00 00	 mov	 rax, QWORD PTR <args_4>$[rsp]
  00079	8b 00		 mov	 eax, DWORD PTR [rax]
  0007b	89 44 24 10	 mov	 DWORD PTR $T1[rsp+16], eax
  0007f	48 8b 84 24 a0
	00 00 00	 mov	 rax, QWORD PTR <args_5>$[rsp]
  00087	8b 00		 mov	 eax, DWORD PTR [rax]
  00089	89 44 24 14	 mov	 DWORD PTR $T1[rsp+20], eax
  0008d	48 8b 84 24 a8
	00 00 00	 mov	 rax, QWORD PTR <args_6>$[rsp]
  00095	8b 00		 mov	 eax, DWORD PTR [rax]
  00097	89 44 24 18	 mov	 DWORD PTR $T1[rsp+24], eax
  0009b	48 8b 84 24 b0
	00 00 00	 mov	 rax, QWORD PTR <args_7>$[rsp]
  000a3	8b 00		 mov	 eax, DWORD PTR [rax]
  000a5	89 44 24 1c	 mov	 DWORD PTR $T1[rsp+28], eax
  000a9	48 8b 84 24 b8
	00 00 00	 mov	 rax, QWORD PTR <args_8>$[rsp]
  000b1	8b 00		 mov	 eax, DWORD PTR [rax]
  000b3	89 44 24 20	 mov	 DWORD PTR $T1[rsp+32], eax
  000b7	48 8b 84 24 c0
	00 00 00	 mov	 rax, QWORD PTR <args_9>$[rsp]
  000bf	8b 00		 mov	 eax, DWORD PTR [rax]
  000c1	89 44 24 24	 mov	 DWORD PTR $T1[rsp+36], eax
  000c5	48 8b 84 24 c8
	00 00 00	 mov	 rax, QWORD PTR <args_10>$[rsp]
  000cd	8b 00		 mov	 eax, DWORD PTR [rax]
  000cf	89 44 24 28	 mov	 DWORD PTR $T1[rsp+40], eax
  000d3	48 8b 84 24 d0
	00 00 00	 mov	 rax, QWORD PTR <args_11>$[rsp]
  000db	8b 00		 mov	 eax, DWORD PTR [rax]
  000dd	89 44 24 2c	 mov	 DWORD PTR $T1[rsp+44], eax
  000e1	48 8b 84 24 d8
	00 00 00	 mov	 rax, QWORD PTR <args_12>$[rsp]
  000e9	8b 00		 mov	 eax, DWORD PTR [rax]
  000eb	89 44 24 30	 mov	 DWORD PTR $T1[rsp+48], eax
  000ef	48 8b 84 24 e0
	00 00 00	 mov	 rax, QWORD PTR <args_13>$[rsp]
  000f7	8b 00		 mov	 eax, DWORD PTR [rax]
  000f9	89 44 24 34	 mov	 DWORD PTR $T1[rsp+52], eax
  000fd	48 8d 04 24	 lea	 rax, QWORD PTR $T1[rsp]
  00101	48 8b 7c 24 70	 mov	 rdi, QWORD PTR $T2[rsp]
  00106	48 8b f0	 mov	 rsi, rax
  00109	b9 38 00 00 00	 mov	 ecx, 56			; 00000038H
  0010e	f3 a4		 rep movsb
  00110	48 8b 44 24 70	 mov	 rax, QWORD PTR $T2[rsp]

; 131  : }

  00115	48 8b 4c 24 40	 mov	 rcx, QWORD PTR __$ArrayPad$[rsp]
  0011a	48 33 cc	 xor	 rcx, rsp
  0011d	e8 00 00 00 00	 call	 __security_check_cookie
  00122	48 83 c4 58	 add	 rsp, 88			; 00000058H
  00126	5f		 pop	 rdi
  00127	5e		 pop	 rsi
  00128	c3		 ret	 0
??$make_array@W4CspMatrix@@W41@W41@W41@W41@W41@W41@W41@W41@W41@W41@W41@W41@W41@W41@@@YA?AV?$array@W4CspMatrix@@$0O@@std@@$$QEAW4CspMatrix@@0000000000000@Z ENDP ; make_array<enum CspMatrix,enum CspMatrix,enum CspMatrix,enum CspMatrix,enum CspMatrix,enum CspMatrix,enum CspMatrix,enum CspMatrix,enum CspMatrix,enum CspMatrix,enum CspMatrix,enum CspMatrix,enum CspMatrix,enum CspMatrix,enum CspMatrix>
_TEXT	ENDS
; Function compile flags: /Odtp /RTCsu
;	COMDAT ??1?$_Compressed_pair@V?$allocator@D@std@@V?$_String_val@U?$_Simple_types@D@std@@@2@$00@std@@QEAA@XZ
_TEXT	SEGMENT
this$ = 48
??1?$_Compressed_pair@V?$allocator@D@std@@V?$_String_val@U?$_Simple_types@D@std@@@2@$00@std@@QEAA@XZ PROC ; std::_Compressed_pair<std::allocator<char>,std::_String_val<std::_Simple_types<char> >,1>::~_Compressed_pair<std::allocator<char>,std::_String_val<std::_Simple_types<char> >,1>, COMDAT
$LN4:
  00000	48 89 4c 24 08	 mov	 QWORD PTR [rsp+8], rcx
  00005	57		 push	 rdi
  00006	48 83 ec 20	 sub	 rsp, 32			; 00000020H
  0000a	48 8b fc	 mov	 rdi, rsp
  0000d	b9 08 00 00 00	 mov	 ecx, 8
  00012	b8 cc cc cc cc	 mov	 eax, -858993460		; ccccccccH
  00017	f3 ab		 rep stosd
  00019	48 8b 4c 24 30	 mov	 rcx, QWORD PTR [rsp+48]
  0001e	48 8b 44 24 30	 mov	 rax, QWORD PTR this$[rsp]
  00023	48 8b c8	 mov	 rcx, rax
  00026	e8 00 00 00 00	 call	 ??1?$_String_val@U?$_Simple_types@D@std@@@std@@QEAA@XZ
  0002b	90		 npad	 1
  0002c	48 83 c4 20	 add	 rsp, 32			; 00000020H
  00030	5f		 pop	 rdi
  00031	c3		 ret	 0
??1?$_Compressed_pair@V?$allocator@D@std@@V?$_String_val@U?$_Simple_types@D@std@@@2@$00@std@@QEAA@XZ ENDP ; std::_Compressed_pair<std::allocator<char>,std::_String_val<std::_Simple_types<char> >,1>::~_Compressed_pair<std::allocator<char>,std::_String_val<std::_Simple_types<char> >,1>
_TEXT	ENDS
;	COMDAT text$x
text$x	SEGMENT
this$ = 48
?dtor$0@?0???1?$_Compressed_pair@V?$allocator@D@std@@V?$_String_val@U?$_Simple_types@D@std@@@2@$00@std@@QEAA@XZ@4HA PROC ; `std::_Compressed_pair<std::allocator<char>,std::_String_val<std::_Simple_types<char> >,1>::~_Compressed_pair<std::allocator<char>,std::_String_val<std::_Simple_types<char> >,1>'::`1'::dtor$0
  00000	48 89 4c 24 08	 mov	 QWORD PTR [rsp+8], rcx
  00005	48 89 54 24 10	 mov	 QWORD PTR [rsp+16], rdx
  0000a	55		 push	 rbp
  0000b	57		 push	 rdi
  0000c	48 83 ec 28	 sub	 rsp, 40			; 00000028H
  00010	48 8b ea	 mov	 rbp, rdx
  00013	48 8b 4d 30	 mov	 rcx, QWORD PTR this$[rbp]
  00017	e8 00 00 00 00	 call	 ??1?$_String_val@U?$_Simple_types@D@std@@@std@@QEAA@XZ
  0001c	48 83 c4 28	 add	 rsp, 40			; 00000028H
  00020	5f		 pop	 rdi
  00021	5d		 pop	 rbp
  00022	c3		 ret	 0
?dtor$0@?0???1?$_Compressed_pair@V?$allocator@D@std@@V?$_String_val@U?$_Simple_types@D@std@@@2@$00@std@@QEAA@XZ@4HA ENDP ; `std::_Compressed_pair<std::allocator<char>,std::_String_val<std::_Simple_types<char> >,1>::~_Compressed_pair<std::allocator<char>,std::_String_val<std::_Simple_types<char> >,1>'::`1'::dtor$0
text$x	ENDS
; Function compile flags: /Odtp /RTCsu
;	COMDAT text$x
text$x	SEGMENT
this$ = 48
?dtor$0@?0???1?$_Compressed_pair@V?$allocator@D@std@@V?$_String_val@U?$_Simple_types@D@std@@@2@$00@std@@QEAA@XZ@4HA PROC ; `std::_Compressed_pair<std::allocator<char>,std::_String_val<std::_Simple_types<char> >,1>::~_Compressed_pair<std::allocator<char>,std::_String_val<std::_Simple_types<char> >,1>'::`1'::dtor$0
  00000	48 89 4c 24 08	 mov	 QWORD PTR [rsp+8], rcx
  00005	48 89 54 24 10	 mov	 QWORD PTR [rsp+16], rdx
  0000a	55		 push	 rbp
  0000b	57		 push	 rdi
  0000c	48 83 ec 28	 sub	 rsp, 40			; 00000028H
  00010	48 8b ea	 mov	 rbp, rdx
  00013	48 8b 4d 30	 mov	 rcx, QWORD PTR this$[rbp]
  00017	e8 00 00 00 00	 call	 ??1?$_String_val@U?$_Simple_types@D@std@@@std@@QEAA@XZ
  0001c	48 83 c4 28	 add	 rsp, 40			; 00000028H
  00020	5f		 pop	 rdi
  00021	5d		 pop	 rbp
  00022	c3		 ret	 0
?dtor$0@?0???1?$_Compressed_pair@V?$allocator@D@std@@V?$_String_val@U?$_Simple_types@D@std@@@2@$00@std@@QEAA@XZ@4HA ENDP ; `std::_Compressed_pair<std::allocator<char>,std::_String_val<std::_Simple_types<char> >,1>::~_Compressed_pair<std::allocator<char>,std::_String_val<std::_Simple_types<char> >,1>'::`1'::dtor$0
text$x	ENDS
; Function compile flags: /Odtp /RTCsu
; File C:\Program Files (x86)\Microsoft Visual Studio\2019\Community\VC\Tools\MSVC\14.23.28105\include\xmemory
;	COMDAT ?_Get_first@?$_Compressed_pair@V?$allocator@D@std@@V?$_String_val@U?$_Simple_types@D@std@@@2@$00@std@@QEBAAEBV?$allocator@D@2@XZ
_TEXT	SEGMENT
this$ = 16
?_Get_first@?$_Compressed_pair@V?$allocator@D@std@@V?$_String_val@U?$_Simple_types@D@std@@@2@$00@std@@QEBAAEBV?$allocator@D@2@XZ PROC ; std::_Compressed_pair<std::allocator<char>,std::_String_val<std::_Simple_types<char> >,1>::_Get_first, COMDAT

; 1424 :     const _Ty1& _Get_first() const noexcept {

$LN3:
  00000	48 89 4c 24 08	 mov	 QWORD PTR [rsp+8], rcx
  00005	57		 push	 rdi

; 1425 :         return *this;

  00006	48 8b 44 24 10	 mov	 rax, QWORD PTR this$[rsp]

; 1426 :     }

  0000b	5f		 pop	 rdi
  0000c	c3		 ret	 0
?_Get_first@?$_Compressed_pair@V?$allocator@D@std@@V?$_String_val@U?$_Simple_types@D@std@@@2@$00@std@@QEBAAEBV?$allocator@D@2@XZ ENDP ; std::_Compressed_pair<std::allocator<char>,std::_String_val<std::_Simple_types<char> >,1>::_Get_first
_TEXT	ENDS
; Function compile flags: /Odtp /RTCsu
; File C:\Program Files (x86)\Microsoft Visual Studio\2019\Community\VC\Tools\MSVC\14.23.28105\include\xmemory
;	COMDAT ?_Get_first@?$_Compressed_pair@V?$allocator@D@std@@V?$_String_val@U?$_Simple_types@D@std@@@2@$00@std@@QEAAAEAV?$allocator@D@2@XZ
_TEXT	SEGMENT
this$ = 16
?_Get_first@?$_Compressed_pair@V?$allocator@D@std@@V?$_String_val@U?$_Simple_types@D@std@@@2@$00@std@@QEAAAEAV?$allocator@D@2@XZ PROC ; std::_Compressed_pair<std::allocator<char>,std::_String_val<std::_Simple_types<char> >,1>::_Get_first, COMDAT

; 1420 :     _Ty1& _Get_first() noexcept {

$LN3:
  00000	48 89 4c 24 08	 mov	 QWORD PTR [rsp+8], rcx
  00005	57		 push	 rdi

; 1421 :         return *this;

  00006	48 8b 44 24 10	 mov	 rax, QWORD PTR this$[rsp]

; 1422 :     }

  0000b	5f		 pop	 rdi
  0000c	c3		 ret	 0
?_Get_first@?$_Compressed_pair@V?$allocator@D@std@@V?$_String_val@U?$_Simple_types@D@std@@@2@$00@std@@QEAAAEAV?$allocator@D@2@XZ ENDP ; std::_Compressed_pair<std::allocator<char>,std::_String_val<std::_Simple_types<char> >,1>::_Get_first
_TEXT	ENDS
; Function compile flags: /Odtp /RTCsu
; File C:\Program Files (x86)\Microsoft Visual Studio\2019\Community\VC\Tools\MSVC\14.23.28105\include\xstring
;	COMDAT ?_Getal@?$basic_string@DU?$char_traits@D@std@@V?$allocator@D@2@@std@@AEBAAEBV?$allocator@D@2@XZ
_TEXT	SEGMENT
this$ = 48
?_Getal@?$basic_string@DU?$char_traits@D@std@@V?$allocator@D@2@@std@@AEBAAEBV?$allocator@D@2@XZ PROC ; std::basic_string<char,std::char_traits<char>,std::allocator<char> >::_Getal, COMDAT

; 4198 :     const _Alty& _Getal() const noexcept { // return const reference to allocator

$LN3:
  00000	48 89 4c 24 08	 mov	 QWORD PTR [rsp+8], rcx
  00005	57		 push	 rdi
  00006	48 83 ec 20	 sub	 rsp, 32			; 00000020H
  0000a	48 8b fc	 mov	 rdi, rsp
  0000d	b9 08 00 00 00	 mov	 ecx, 8
  00012	b8 cc cc cc cc	 mov	 eax, -858993460		; ccccccccH
  00017	f3 ab		 rep stosd
  00019	48 8b 4c 24 30	 mov	 rcx, QWORD PTR [rsp+48]

; 4199 :         return _Mypair._Get_first();

  0001e	48 8b 44 24 30	 mov	 rax, QWORD PTR this$[rsp]
  00023	48 8b c8	 mov	 rcx, rax
  00026	e8 00 00 00 00	 call	 ?_Get_first@?$_Compressed_pair@V?$allocator@D@std@@V?$_String_val@U?$_Simple_types@D@std@@@2@$00@std@@QEBAAEBV?$allocator@D@2@XZ ; std::_Compressed_pair<std::allocator<char>,std::_String_val<std::_Simple_types<char> >,1>::_Get_first

; 4200 :     }

  0002b	48 83 c4 20	 add	 rsp, 32			; 00000020H
  0002f	5f		 pop	 rdi
  00030	c3		 ret	 0
?_Getal@?$basic_string@DU?$char_traits@D@std@@V?$allocator@D@2@@std@@AEBAAEBV?$allocator@D@2@XZ ENDP ; std::basic_string<char,std::char_traits<char>,std::allocator<char> >::_Getal
_TEXT	ENDS
; Function compile flags: /Odtp /RTCsu
; File C:\Program Files (x86)\Microsoft Visual Studio\2019\Community\VC\Tools\MSVC\14.23.28105\include\xstring
;	COMDAT ?_Getal@?$basic_string@DU?$char_traits@D@std@@V?$allocator@D@2@@std@@AEAAAEAV?$allocator@D@2@XZ
_TEXT	SEGMENT
this$ = 48
?_Getal@?$basic_string@DU?$char_traits@D@std@@V?$allocator@D@2@@std@@AEAAAEAV?$allocator@D@2@XZ PROC ; std::basic_string<char,std::char_traits<char>,std::allocator<char> >::_Getal, COMDAT

; 4194 :     _Alty& _Getal() noexcept { // return reference to allocator

$LN3:
  00000	48 89 4c 24 08	 mov	 QWORD PTR [rsp+8], rcx
  00005	57		 push	 rdi
  00006	48 83 ec 20	 sub	 rsp, 32			; 00000020H
  0000a	48 8b fc	 mov	 rdi, rsp
  0000d	b9 08 00 00 00	 mov	 ecx, 8
  00012	b8 cc cc cc cc	 mov	 eax, -858993460		; ccccccccH
  00017	f3 ab		 rep stosd
  00019	48 8b 4c 24 30	 mov	 rcx, QWORD PTR [rsp+48]

; 4195 :         return _Mypair._Get_first();

  0001e	48 8b 44 24 30	 mov	 rax, QWORD PTR this$[rsp]
  00023	48 8b c8	 mov	 rcx, rax
  00026	e8 00 00 00 00	 call	 ?_Get_first@?$_Compressed_pair@V?$allocator@D@std@@V?$_String_val@U?$_Simple_types@D@std@@@2@$00@std@@QEAAAEAV?$allocator@D@2@XZ ; std::_Compressed_pair<std::allocator<char>,std::_String_val<std::_Simple_types<char> >,1>::_Get_first

; 4196 :     }

  0002b	48 83 c4 20	 add	 rsp, 32			; 00000020H
  0002f	5f		 pop	 rdi
  00030	c3		 ret	 0
?_Getal@?$basic_string@DU?$char_traits@D@std@@V?$allocator@D@2@@std@@AEAAAEAV?$allocator@D@2@XZ ENDP ; std::basic_string<char,std::char_traits<char>,std::allocator<char> >::_Getal
_TEXT	ENDS
; Function compile flags: /Odtp /RTCsu
; File C:\Program Files (x86)\Microsoft Visual Studio\2019\Community\VC\Tools\MSVC\14.23.28105\include\xstring
;	COMDAT ?_Swap_proxy_and_iterators@?$basic_string@DU?$char_traits@D@std@@V?$allocator@D@2@@std@@AEAAXAEAV12@@Z
_TEXT	SEGMENT
this$ = 48
_Right$ = 56
?_Swap_proxy_and_iterators@?$basic_string@DU?$char_traits@D@std@@V?$allocator@D@2@@std@@AEAAXAEAV12@@Z PROC ; std::basic_string<char,std::char_traits<char>,std::allocator<char> >::_Swap_proxy_and_iterators, COMDAT

; 4190 :     void _Swap_proxy_and_iterators(basic_string& _Right) { // swap all iterators

$LN3:
  00000	48 89 54 24 10	 mov	 QWORD PTR [rsp+16], rdx
  00005	48 89 4c 24 08	 mov	 QWORD PTR [rsp+8], rcx
  0000a	57		 push	 rdi
  0000b	48 83 ec 20	 sub	 rsp, 32			; 00000020H
  0000f	48 8b fc	 mov	 rdi, rsp
  00012	b9 08 00 00 00	 mov	 ecx, 8
  00017	b8 cc cc cc cc	 mov	 eax, -858993460		; ccccccccH
  0001c	f3 ab		 rep stosd
  0001e	48 8b 4c 24 30	 mov	 rcx, QWORD PTR [rsp+48]

; 4191 :         _Mypair._Myval2._Swap_proxy_and_iterators(_Right._Mypair._Myval2);

  00023	48 8b 44 24 38	 mov	 rax, QWORD PTR _Right$[rsp]
  00028	48 8b 4c 24 30	 mov	 rcx, QWORD PTR this$[rsp]
  0002d	48 8b d0	 mov	 rdx, rax
  00030	e8 00 00 00 00	 call	 ?_Swap_proxy_and_iterators@_Container_base12@std@@QEAAXAEAU12@@Z ; std::_Container_base12::_Swap_proxy_and_iterators

; 4192 :     }

  00035	48 83 c4 20	 add	 rsp, 32			; 00000020H
  00039	5f		 pop	 rdi
  0003a	c3		 ret	 0
?_Swap_proxy_and_iterators@?$basic_string@DU?$char_traits@D@std@@V?$allocator@D@2@@std@@AEAAXAEAV12@@Z ENDP ; std::basic_string<char,std::char_traits<char>,std::allocator<char> >::_Swap_proxy_and_iterators
_TEXT	ENDS
; Function compile flags: /Odtp /RTCsu
; File C:\Program Files (x86)\Microsoft Visual Studio\2019\Community\VC\Tools\MSVC\14.23.28105\include\xstring
;	COMDAT ?_Xlen@?$basic_string@DU?$char_traits@D@std@@V?$allocator@D@2@@std@@CAXXZ
_TEXT	SEGMENT
?_Xlen@?$basic_string@DU?$char_traits@D@std@@V?$allocator@D@2@@std@@CAXXZ PROC ; std::basic_string<char,std::char_traits<char>,std::allocator<char> >::_Xlen, COMDAT

; 4180 :     [[noreturn]] static void _Xlen() { // report a length_error

$LN3:
  00000	40 57		 push	 rdi
  00002	48 83 ec 20	 sub	 rsp, 32			; 00000020H
  00006	48 8b fc	 mov	 rdi, rsp
  00009	b9 08 00 00 00	 mov	 ecx, 8
  0000e	b8 cc cc cc cc	 mov	 eax, -858993460		; ccccccccH
  00013	f3 ab		 rep stosd

; 4181 :         _Xlength_error("string too long");

  00015	48 8d 0d 00 00
	00 00		 lea	 rcx, OFFSET FLAT:??_C@_0BA@JFNIOLAK@string?5too?5long@
  0001c	e8 00 00 00 00	 call	 ?_Xlength_error@std@@YAXPEBD@Z ; std::_Xlength_error
$LN2@Xlen:

; 4182 :     }

  00021	48 83 c4 20	 add	 rsp, 32			; 00000020H
  00025	5f		 pop	 rdi
  00026	c3		 ret	 0
?_Xlen@?$basic_string@DU?$char_traits@D@std@@V?$allocator@D@2@@std@@CAXXZ ENDP ; std::basic_string<char,std::char_traits<char>,std::allocator<char> >::_Xlen
_TEXT	ENDS
; Function compile flags: /Odtp /RTCsu
; File C:\Program Files (x86)\Microsoft Visual Studio\2019\Community\VC\Tools\MSVC\14.23.28105\include\xstring
;	COMDAT ?_Tidy_deallocate@?$basic_string@DU?$char_traits@D@std@@V?$allocator@D@2@@std@@AEAAXXZ
_TEXT	SEGMENT
_Ptr$1 = 32
_Al$2 = 40
$T3 = 48
this$ = 80
?_Tidy_deallocate@?$basic_string@DU?$char_traits@D@std@@V?$allocator@D@2@@std@@AEAAXXZ PROC ; std::basic_string<char,std::char_traits<char>,std::allocator<char> >::_Tidy_deallocate, COMDAT

; 4164 :     void _Tidy_deallocate() noexcept { // initialize buffer, deallocating any storage

$LN4:
  00000	48 89 4c 24 08	 mov	 QWORD PTR [rsp+8], rcx
  00005	57		 push	 rdi
  00006	48 83 ec 40	 sub	 rsp, 64			; 00000040H
  0000a	48 8b fc	 mov	 rdi, rsp
  0000d	b9 10 00 00 00	 mov	 ecx, 16
  00012	b8 cc cc cc cc	 mov	 eax, -858993460		; ccccccccH
  00017	f3 ab		 rep stosd
  00019	48 8b 4c 24 50	 mov	 rcx, QWORD PTR [rsp+80]

; 4165 :         _Mypair._Myval2._Orphan_all();

  0001e	48 8b 44 24 50	 mov	 rax, QWORD PTR this$[rsp]
  00023	48 8b c8	 mov	 rcx, rax
  00026	e8 00 00 00 00	 call	 ?_Orphan_all@_Container_base12@std@@QEAAXXZ ; std::_Container_base12::_Orphan_all
  0002b	90		 npad	 1

; 4166 :         if (_Mypair._Myval2._Large_string_engaged()) {

  0002c	48 8b 44 24 50	 mov	 rax, QWORD PTR this$[rsp]
  00031	48 8b c8	 mov	 rcx, rax
  00034	e8 00 00 00 00	 call	 ?_Large_string_engaged@?$_String_val@U?$_Simple_types@D@std@@@std@@QEBA_NXZ ; std::_String_val<std::_Simple_types<char> >::_Large_string_engaged
  00039	90		 npad	 1
  0003a	0f b6 c0	 movzx	 eax, al
  0003d	85 c0		 test	 eax, eax
  0003f	74 4f		 je	 SHORT $LN2@Tidy_deall

; 4167 :             const pointer _Ptr = _Mypair._Myval2._Bx._Ptr;

  00041	48 8b 44 24 50	 mov	 rax, QWORD PTR this$[rsp]
  00046	48 8b 40 08	 mov	 rax, QWORD PTR [rax+8]
  0004a	48 89 44 24 20	 mov	 QWORD PTR _Ptr$1[rsp], rax

; 4168 :             auto& _Al          = _Getal();

  0004f	48 8b 4c 24 50	 mov	 rcx, QWORD PTR this$[rsp]
  00054	e8 00 00 00 00	 call	 ?_Getal@?$basic_string@DU?$char_traits@D@std@@V?$allocator@D@2@@std@@AEAAAEAV?$allocator@D@2@XZ ; std::basic_string<char,std::char_traits<char>,std::allocator<char> >::_Getal
  00059	90		 npad	 1
  0005a	48 89 44 24 28	 mov	 QWORD PTR _Al$2[rsp], rax

; 4169 :             _Destroy_in_place(_Mypair._Myval2._Bx._Ptr);

  0005f	48 8b 44 24 50	 mov	 rax, QWORD PTR this$[rsp]
  00064	48 83 c0 08	 add	 rax, 8
  00068	48 8b c8	 mov	 rcx, rax
  0006b	e8 00 00 00 00	 call	 ??$_Destroy_in_place@PEAD@std@@YAXAEAPEAD@Z ; std::_Destroy_in_place<char *>
  00070	90		 npad	 1

; 4170 :             _Al.deallocate(_Ptr, _Mypair._Myval2._Myres + 1);

  00071	48 8b 44 24 50	 mov	 rax, QWORD PTR this$[rsp]
  00076	48 8b 40 20	 mov	 rax, QWORD PTR [rax+32]
  0007a	48 ff c0	 inc	 rax
  0007d	4c 8b c0	 mov	 r8, rax
  00080	48 8b 54 24 20	 mov	 rdx, QWORD PTR _Ptr$1[rsp]
  00085	48 8b 4c 24 28	 mov	 rcx, QWORD PTR _Al$2[rsp]
  0008a	e8 00 00 00 00	 call	 ?deallocate@?$allocator@D@std@@QEAAXQEAD_K@Z ; std::allocator<char>::deallocate
  0008f	90		 npad	 1
$LN2@Tidy_deall:

; 4171 :         }
; 4172 : 
; 4173 :         _Mypair._Myval2._Mysize = 0;

  00090	48 8b 44 24 50	 mov	 rax, QWORD PTR this$[rsp]
  00095	48 c7 40 18 00
	00 00 00	 mov	 QWORD PTR [rax+24], 0

; 4174 :         _Mypair._Myval2._Myres  = _BUF_SIZE - 1;

  0009d	48 8b 44 24 50	 mov	 rax, QWORD PTR this$[rsp]
  000a2	48 c7 40 20 0f
	00 00 00	 mov	 QWORD PTR [rax+32], 15

; 4175 :         // the _Traits::assign is last so the codegen doesn't think the char
; 4176 :         // write can alias this
; 4177 :         _Traits::assign(_Mypair._Myval2._Bx._Buf[0], _Elem());

  000aa	c6 44 24 30 00	 mov	 BYTE PTR $T3[rsp], 0
  000af	b8 01 00 00 00	 mov	 eax, 1
  000b4	48 6b c0 00	 imul	 rax, rax, 0
  000b8	48 8b 4c 24 50	 mov	 rcx, QWORD PTR this$[rsp]
  000bd	48 8d 44 01 08	 lea	 rax, QWORD PTR [rcx+rax+8]
  000c2	48 8d 54 24 30	 lea	 rdx, QWORD PTR $T3[rsp]
  000c7	48 8b c8	 mov	 rcx, rax
  000ca	e8 00 00 00 00	 call	 ?assign@?$_Narrow_char_traits@DH@std@@SAXAEADAEBD@Z ; std::_Narrow_char_traits<char,int>::assign
  000cf	90		 npad	 1

; 4178 :     }

  000d0	48 83 c4 40	 add	 rsp, 64			; 00000040H
  000d4	5f		 pop	 rdi
  000d5	c3		 ret	 0
?_Tidy_deallocate@?$basic_string@DU?$char_traits@D@std@@V?$allocator@D@2@@std@@AEAAXXZ ENDP ; std::basic_string<char,std::char_traits<char>,std::allocator<char> >::_Tidy_deallocate
_TEXT	ENDS
; Function compile flags: /Odtp /RTCsu
; File C:\Program Files (x86)\Microsoft Visual Studio\2019\Community\VC\Tools\MSVC\14.23.28105\include\xstring
;	COMDAT ?_Tidy_init@?$basic_string@DU?$char_traits@D@std@@V?$allocator@D@2@@std@@AEAAXXZ
_TEXT	SEGMENT
$T1 = 32
this$ = 64
?_Tidy_init@?$basic_string@DU?$char_traits@D@std@@V?$allocator@D@2@@std@@AEAAXXZ PROC ; std::basic_string<char,std::char_traits<char>,std::allocator<char> >::_Tidy_init, COMDAT

; 4156 :     void _Tidy_init() noexcept { // initialize basic_string data members

$LN3:
  00000	48 89 4c 24 08	 mov	 QWORD PTR [rsp+8], rcx
  00005	57		 push	 rdi
  00006	48 83 ec 30	 sub	 rsp, 48			; 00000030H
  0000a	48 8b fc	 mov	 rdi, rsp
  0000d	b9 0c 00 00 00	 mov	 ecx, 12
  00012	b8 cc cc cc cc	 mov	 eax, -858993460		; ccccccccH
  00017	f3 ab		 rep stosd
  00019	48 8b 4c 24 40	 mov	 rcx, QWORD PTR [rsp+64]

; 4157 :         _Mypair._Myval2._Mysize = 0;

  0001e	48 8b 44 24 40	 mov	 rax, QWORD PTR this$[rsp]
  00023	48 c7 40 18 00
	00 00 00	 mov	 QWORD PTR [rax+24], 0

; 4158 :         _Mypair._Myval2._Myres  = _BUF_SIZE - 1;

  0002b	48 8b 44 24 40	 mov	 rax, QWORD PTR this$[rsp]
  00030	48 c7 40 20 0f
	00 00 00	 mov	 QWORD PTR [rax+32], 15

; 4159 :         // the _Traits::assign is last so the codegen doesn't think the char
; 4160 :         // write can alias this
; 4161 :         _Traits::assign(_Mypair._Myval2._Bx._Buf[0], _Elem());

  00038	c6 44 24 20 00	 mov	 BYTE PTR $T1[rsp], 0
  0003d	b8 01 00 00 00	 mov	 eax, 1
  00042	48 6b c0 00	 imul	 rax, rax, 0
  00046	48 8b 4c 24 40	 mov	 rcx, QWORD PTR this$[rsp]
  0004b	48 8d 44 01 08	 lea	 rax, QWORD PTR [rcx+rax+8]
  00050	48 8d 54 24 20	 lea	 rdx, QWORD PTR $T1[rsp]
  00055	48 8b c8	 mov	 rcx, rax
  00058	e8 00 00 00 00	 call	 ?assign@?$_Narrow_char_traits@DH@std@@SAXAEADAEBD@Z ; std::_Narrow_char_traits<char,int>::assign

; 4162 :     }

  0005d	48 83 c4 30	 add	 rsp, 48			; 00000030H
  00061	5f		 pop	 rdi
  00062	c3		 ret	 0
?_Tidy_init@?$basic_string@DU?$char_traits@D@std@@V?$allocator@D@2@@std@@AEAAXXZ ENDP ; std::basic_string<char,std::char_traits<char>,std::allocator<char> >::_Tidy_init
_TEXT	ENDS
; Function compile flags: /Odtp /RTCsu
; File C:\Program Files (x86)\Microsoft Visual Studio\2019\Community\VC\Tools\MSVC\14.23.28105\include\xstring
;	COMDAT ?_Calculate_growth@?$basic_string@DU?$char_traits@D@std@@V?$allocator@D@2@@std@@AEBA_K_K@Z
_TEXT	SEGMENT
this$ = 48
_Requested$ = 56
?_Calculate_growth@?$basic_string@DU?$char_traits@D@std@@V?$allocator@D@2@@std@@AEBA_K_K@Z PROC ; std::basic_string<char,std::char_traits<char>,std::allocator<char> >::_Calculate_growth, COMDAT

; 4077 :     _NODISCARD size_type _Calculate_growth(const size_type _Requested) const noexcept {

$LN3:
  00000	48 89 54 24 10	 mov	 QWORD PTR [rsp+16], rdx
  00005	48 89 4c 24 08	 mov	 QWORD PTR [rsp+8], rcx
  0000a	57		 push	 rdi
  0000b	48 83 ec 20	 sub	 rsp, 32			; 00000020H
  0000f	48 8b fc	 mov	 rdi, rsp
  00012	b9 08 00 00 00	 mov	 ecx, 8
  00017	b8 cc cc cc cc	 mov	 eax, -858993460		; ccccccccH
  0001c	f3 ab		 rep stosd
  0001e	48 8b 4c 24 30	 mov	 rcx, QWORD PTR [rsp+48]

; 4078 :         return _Calculate_growth(_Requested, _Mypair._Myval2._Myres, max_size());

  00023	48 8b 4c 24 30	 mov	 rcx, QWORD PTR this$[rsp]
  00028	e8 00 00 00 00	 call	 ?max_size@?$basic_string@DU?$char_traits@D@std@@V?$allocator@D@2@@std@@QEBA_KXZ ; std::basic_string<char,std::char_traits<char>,std::allocator<char> >::max_size
  0002d	4c 8b c0	 mov	 r8, rax
  00030	48 8b 44 24 30	 mov	 rax, QWORD PTR this$[rsp]
  00035	48 8b 50 20	 mov	 rdx, QWORD PTR [rax+32]
  00039	48 8b 4c 24 38	 mov	 rcx, QWORD PTR _Requested$[rsp]
  0003e	e8 00 00 00 00	 call	 ?_Calculate_growth@?$basic_string@DU?$char_traits@D@std@@V?$allocator@D@2@@std@@CA_K_K00@Z ; std::basic_string<char,std::char_traits<char>,std::allocator<char> >::_Calculate_growth

; 4079 :     }

  00043	48 83 c4 20	 add	 rsp, 32			; 00000020H
  00047	5f		 pop	 rdi
  00048	c3		 ret	 0
?_Calculate_growth@?$basic_string@DU?$char_traits@D@std@@V?$allocator@D@2@@std@@AEBA_K_K@Z ENDP ; std::basic_string<char,std::char_traits<char>,std::allocator<char> >::_Calculate_growth
_TEXT	ENDS
; Function compile flags: /Odtp /RTCsu
; File C:\Program Files (x86)\Microsoft Visual Studio\2019\Community\VC\Tools\MSVC\14.23.28105\include\xstring
;	COMDAT ?_Calculate_growth@?$basic_string@DU?$char_traits@D@std@@V?$allocator@D@2@@std@@CA_K_K00@Z
_TEXT	SEGMENT
_Masked$ = 40
$T4 = 56
_Requested$ = 80
_Old$ = 88
_Max$ = 96
?_Calculate_growth@?$basic_string@DU?$char_traits@D@std@@V?$allocator@D@2@@std@@CA_K_K00@Z PROC ; std::basic_string<char,std::char_traits<char>,std::allocator<char> >::_Calculate_growth, COMDAT

; 4064 :         const size_type _Requested, const size_type _Old, const size_type _Max) noexcept {

$LN5:
  00000	4c 89 44 24 18	 mov	 QWORD PTR [rsp+24], r8
  00005	48 89 54 24 10	 mov	 QWORD PTR [rsp+16], rdx
  0000a	48 89 4c 24 08	 mov	 QWORD PTR [rsp+8], rcx
  0000f	57		 push	 rdi
  00010	48 83 ec 40	 sub	 rsp, 64			; 00000040H
  00014	48 8b fc	 mov	 rdi, rsp
  00017	b9 10 00 00 00	 mov	 ecx, 16
  0001c	b8 cc cc cc cc	 mov	 eax, -858993460		; ccccccccH
  00021	f3 ab		 rep stosd
  00023	48 8b 4c 24 50	 mov	 rcx, QWORD PTR [rsp+80]

; 4065 :         const size_type _Masked = _Requested | _ALLOC_MASK;

  00028	48 8b 44 24 50	 mov	 rax, QWORD PTR _Requested$[rsp]
  0002d	48 83 c8 0f	 or	 rax, 15
  00031	48 89 44 24 28	 mov	 QWORD PTR _Masked$[rsp], rax

; 4066 :         if (_Masked > _Max) { // the mask overflows, settle for max_size()

  00036	48 8b 44 24 60	 mov	 rax, QWORD PTR _Max$[rsp]
  0003b	48 39 44 24 28	 cmp	 QWORD PTR _Masked$[rsp], rax
  00040	76 07		 jbe	 SHORT $LN2@Calculate_

; 4067 :             return _Max;

  00042	48 8b 44 24 60	 mov	 rax, QWORD PTR _Max$[rsp]
  00047	eb 59		 jmp	 SHORT $LN1@Calculate_
$LN2@Calculate_:

; 4068 :         }
; 4069 : 
; 4070 :         if (_Old > _Max - _Old / 2) { // similarly, geometric overflows

  00049	33 d2		 xor	 edx, edx
  0004b	48 8b 44 24 58	 mov	 rax, QWORD PTR _Old$[rsp]
  00050	b9 02 00 00 00	 mov	 ecx, 2
  00055	48 f7 f1	 div	 rcx
  00058	48 8b 4c 24 60	 mov	 rcx, QWORD PTR _Max$[rsp]
  0005d	48 2b c8	 sub	 rcx, rax
  00060	48 8b c1	 mov	 rax, rcx
  00063	48 39 44 24 58	 cmp	 QWORD PTR _Old$[rsp], rax
  00068	76 07		 jbe	 SHORT $LN3@Calculate_

; 4071 :             return _Max;

  0006a	48 8b 44 24 60	 mov	 rax, QWORD PTR _Max$[rsp]
  0006f	eb 31		 jmp	 SHORT $LN1@Calculate_
$LN3@Calculate_:

; 4072 :         }
; 4073 : 
; 4074 :         return _Max_value(_Masked, _Old + _Old / 2);

  00071	33 d2		 xor	 edx, edx
  00073	48 8b 44 24 58	 mov	 rax, QWORD PTR _Old$[rsp]
  00078	b9 02 00 00 00	 mov	 ecx, 2
  0007d	48 f7 f1	 div	 rcx
  00080	48 8b 4c 24 58	 mov	 rcx, QWORD PTR _Old$[rsp]
  00085	48 03 c8	 add	 rcx, rax
  00088	48 8b c1	 mov	 rax, rcx
  0008b	48 89 44 24 38	 mov	 QWORD PTR $T4[rsp], rax
  00090	48 8d 54 24 38	 lea	 rdx, QWORD PTR $T4[rsp]
  00095	48 8d 4c 24 28	 lea	 rcx, QWORD PTR _Masked$[rsp]
  0009a	e8 00 00 00 00	 call	 ??$_Max_value@_K@std@@YAAEB_KAEB_K0@Z ; std::_Max_value<unsigned __int64>
  0009f	48 8b 00	 mov	 rax, QWORD PTR [rax]
$LN1@Calculate_:

; 4075 :     }

  000a2	48 8b f8	 mov	 rdi, rax
  000a5	48 8b cc	 mov	 rcx, rsp
  000a8	48 8d 15 00 00
	00 00		 lea	 rdx, OFFSET FLAT:?_Calculate_growth@?$basic_string@DU?$char_traits@D@std@@V?$allocator@D@2@@std@@CA_K_K00@Z$rtcFrameData
  000af	e8 00 00 00 00	 call	 _RTC_CheckStackVars
  000b4	48 8b c7	 mov	 rax, rdi
  000b7	48 83 c4 40	 add	 rsp, 64			; 00000040H
  000bb	5f		 pop	 rdi
  000bc	c3		 ret	 0
?_Calculate_growth@?$basic_string@DU?$char_traits@D@std@@V?$allocator@D@2@@std@@CA_K_K00@Z ENDP ; std::basic_string<char,std::char_traits<char>,std::allocator<char> >::_Calculate_growth
_TEXT	ENDS
; Function compile flags: /Odtp /RTCsu
; File C:\Program Files (x86)\Microsoft Visual Studio\2019\Community\VC\Tools\MSVC\14.23.28105\include\xstring
;	COMDAT ?max_size@?$basic_string@DU?$char_traits@D@std@@V?$allocator@D@2@@std@@QEBA_KXZ
_TEXT	SEGMENT
_Alloc_max$ = 40
_Storage_max$ = 56
$T4 = 64
$T5 = 72
$T6 = 80
this$ = 112
?max_size@?$basic_string@DU?$char_traits@D@std@@V?$allocator@D@2@@std@@QEBA_KXZ PROC ; std::basic_string<char,std::char_traits<char>,std::allocator<char> >::max_size, COMDAT

; 3570 :     _NODISCARD size_type max_size() const noexcept { // return maximum possible length of sequence

$LN3:
  00000	48 89 4c 24 08	 mov	 QWORD PTR [rsp+8], rcx
  00005	57		 push	 rdi
  00006	48 83 ec 60	 sub	 rsp, 96			; 00000060H
  0000a	48 8b fc	 mov	 rdi, rsp
  0000d	b9 18 00 00 00	 mov	 ecx, 24
  00012	b8 cc cc cc cc	 mov	 eax, -858993460		; ccccccccH
  00017	f3 ab		 rep stosd
  00019	48 8b 4c 24 70	 mov	 rcx, QWORD PTR [rsp+112]

; 3571 :         const size_type _Alloc_max   = _Alty_traits::max_size(_Getal());

  0001e	48 8b 4c 24 70	 mov	 rcx, QWORD PTR this$[rsp]
  00023	e8 00 00 00 00	 call	 ?_Getal@?$basic_string@DU?$char_traits@D@std@@V?$allocator@D@2@@std@@AEBAAEBV?$allocator@D@2@XZ ; std::basic_string<char,std::char_traits<char>,std::allocator<char> >::_Getal
  00028	48 8b c8	 mov	 rcx, rax
  0002b	e8 00 00 00 00	 call	 ?max_size@?$_Default_allocator_traits@V?$allocator@D@std@@@std@@SA_KAEBV?$allocator@D@2@@Z ; std::_Default_allocator_traits<std::allocator<char> >::max_size
  00030	48 89 44 24 28	 mov	 QWORD PTR _Alloc_max$[rsp], rax

; 3572 :         const size_type _Storage_max = // can always store small string

  00035	48 c7 44 24 40
	10 00 00 00	 mov	 QWORD PTR $T4[rsp], 16
  0003e	48 8d 54 24 40	 lea	 rdx, QWORD PTR $T4[rsp]
  00043	48 8d 4c 24 28	 lea	 rcx, QWORD PTR _Alloc_max$[rsp]
  00048	e8 00 00 00 00	 call	 ??$_Max_value@_K@std@@YAAEB_KAEB_K0@Z ; std::_Max_value<unsigned __int64>
  0004d	48 8b 00	 mov	 rax, QWORD PTR [rax]
  00050	48 89 44 24 38	 mov	 QWORD PTR _Storage_max$[rsp], rax

; 3573 :             _Max_value(_Alloc_max, static_cast<size_type>(_BUF_SIZE));
; 3574 :         return _Min_value(static_cast<size_type>((numeric_limits<difference_type>::max)()),

  00055	48 8b 44 24 38	 mov	 rax, QWORD PTR _Storage_max$[rsp]
  0005a	48 ff c8	 dec	 rax
  0005d	48 89 44 24 48	 mov	 QWORD PTR $T5[rsp], rax
  00062	e8 00 00 00 00	 call	 ?max@?$numeric_limits@_J@std@@SA_JXZ ; std::numeric_limits<__int64>::max
  00067	48 89 44 24 50	 mov	 QWORD PTR $T6[rsp], rax
  0006c	48 8d 54 24 48	 lea	 rdx, QWORD PTR $T5[rsp]
  00071	48 8d 4c 24 50	 lea	 rcx, QWORD PTR $T6[rsp]
  00076	e8 00 00 00 00	 call	 ??$_Min_value@_K@std@@YAAEB_KAEB_K0@Z ; std::_Min_value<unsigned __int64>
  0007b	48 8b 00	 mov	 rax, QWORD PTR [rax]

; 3575 :             _Storage_max - 1 // -1 is for null terminator and/or npos
; 3576 :         );
; 3577 :     }

  0007e	48 8b f8	 mov	 rdi, rax
  00081	48 8b cc	 mov	 rcx, rsp
  00084	48 8d 15 00 00
	00 00		 lea	 rdx, OFFSET FLAT:?max_size@?$basic_string@DU?$char_traits@D@std@@V?$allocator@D@2@@std@@QEBA_KXZ$rtcFrameData
  0008b	e8 00 00 00 00	 call	 _RTC_CheckStackVars
  00090	48 8b c7	 mov	 rax, rdi
  00093	48 83 c4 60	 add	 rsp, 96			; 00000060H
  00097	5f		 pop	 rdi
  00098	c3		 ret	 0
?max_size@?$basic_string@DU?$char_traits@D@std@@V?$allocator@D@2@@std@@QEBA_KXZ ENDP ; std::basic_string<char,std::char_traits<char>,std::allocator<char> >::max_size
_TEXT	ENDS
; Function compile flags: /Odtp /RTCsu
; File C:\Program Files (x86)\Microsoft Visual Studio\2019\Community\VC\Tools\MSVC\14.23.28105\include\xstring
;	COMDAT ?c_str@?$basic_string@DU?$char_traits@D@std@@V?$allocator@D@2@@std@@QEBAPEBDXZ
_TEXT	SEGMENT
this$ = 48
?c_str@?$basic_string@DU?$char_traits@D@std@@V?$allocator@D@2@@std@@QEBAPEBDXZ PROC ; std::basic_string<char,std::char_traits<char>,std::allocator<char> >::c_str, COMDAT

; 3548 :     _NODISCARD _Ret_z_ const _Elem* c_str() const noexcept { // return pointer to null-terminated immutable array

$LN3:
  00000	48 89 4c 24 08	 mov	 QWORD PTR [rsp+8], rcx
  00005	57		 push	 rdi
  00006	48 83 ec 20	 sub	 rsp, 32			; 00000020H
  0000a	48 8b fc	 mov	 rdi, rsp
  0000d	b9 08 00 00 00	 mov	 ecx, 8
  00012	b8 cc cc cc cc	 mov	 eax, -858993460		; ccccccccH
  00017	f3 ab		 rep stosd
  00019	48 8b 4c 24 30	 mov	 rcx, QWORD PTR [rsp+48]

; 3549 :         return _Mypair._Myval2._Myptr();

  0001e	48 8b 44 24 30	 mov	 rax, QWORD PTR this$[rsp]
  00023	48 8b c8	 mov	 rcx, rax
  00026	e8 00 00 00 00	 call	 ?_Myptr@?$_String_val@U?$_Simple_types@D@std@@@std@@QEBAPEBDXZ ; std::_String_val<std::_Simple_types<char> >::_Myptr
  0002b	90		 npad	 1

; 3550 :     }

  0002c	48 83 c4 20	 add	 rsp, 32			; 00000020H
  00030	5f		 pop	 rdi
  00031	c3		 ret	 0
?c_str@?$basic_string@DU?$char_traits@D@std@@V?$allocator@D@2@@std@@QEBAPEBDXZ ENDP ; std::basic_string<char,std::char_traits<char>,std::allocator<char> >::c_str
_TEXT	ENDS
; Function compile flags: /Odtp /RTCsu
; File C:\Program Files (x86)\Microsoft Visual Studio\2019\Community\VC\Tools\MSVC\14.23.28105\include\xstring
;	COMDAT ?assign@?$basic_string@DU?$char_traits@D@std@@V?$allocator@D@2@@std@@QEAAAEAV12@QEBD@Z
_TEXT	SEGMENT
this$ = 48
_Ptr$ = 56
?assign@?$basic_string@DU?$char_traits@D@std@@V?$allocator@D@2@@std@@QEAAAEAV12@QEBD@Z PROC ; std::basic_string<char,std::char_traits<char>,std::allocator<char> >::assign, COMDAT

; 2860 :     basic_string& assign(_In_z_ const _Elem* const _Ptr) { // assign [_Ptr, <null>)

$LN3:
  00000	48 89 54 24 10	 mov	 QWORD PTR [rsp+16], rdx
  00005	48 89 4c 24 08	 mov	 QWORD PTR [rsp+8], rcx
  0000a	57		 push	 rdi
  0000b	48 83 ec 20	 sub	 rsp, 32			; 00000020H
  0000f	48 8b fc	 mov	 rdi, rsp
  00012	b9 08 00 00 00	 mov	 ecx, 8
  00017	b8 cc cc cc cc	 mov	 eax, -858993460		; ccccccccH
  0001c	f3 ab		 rep stosd
  0001e	48 8b 4c 24 30	 mov	 rcx, QWORD PTR [rsp+48]

; 2861 :         return assign(_Ptr, _Convert_size<size_type>(_Traits::length(_Ptr)));

  00023	48 8b 4c 24 38	 mov	 rcx, QWORD PTR _Ptr$[rsp]
  00028	e8 00 00 00 00	 call	 ?length@?$_Narrow_char_traits@DH@std@@SA_KQEBD@Z ; std::_Narrow_char_traits<char,int>::length
  0002d	48 8b c8	 mov	 rcx, rax
  00030	e8 00 00 00 00	 call	 ??$_Convert_size@_K@std@@YA_K_K@Z ; std::_Convert_size<unsigned __int64>
  00035	4c 8b c0	 mov	 r8, rax
  00038	48 8b 54 24 38	 mov	 rdx, QWORD PTR _Ptr$[rsp]
  0003d	48 8b 4c 24 30	 mov	 rcx, QWORD PTR this$[rsp]
  00042	e8 00 00 00 00	 call	 ?assign@?$basic_string@DU?$char_traits@D@std@@V?$allocator@D@2@@std@@QEAAAEAV12@QEBD_K@Z ; std::basic_string<char,std::char_traits<char>,std::allocator<char> >::assign

; 2862 :     }

  00047	48 83 c4 20	 add	 rsp, 32			; 00000020H
  0004b	5f		 pop	 rdi
  0004c	c3		 ret	 0
?assign@?$basic_string@DU?$char_traits@D@std@@V?$allocator@D@2@@std@@QEAAAEAV12@QEBD@Z ENDP ; std::basic_string<char,std::char_traits<char>,std::allocator<char> >::assign
_TEXT	ENDS
; Function compile flags: /Odtp /RTCsu
; File C:\Program Files (x86)\Microsoft Visual Studio\2019\Community\VC\Tools\MSVC\14.23.28105\include\xstring
;	COMDAT ?assign@?$basic_string@DU?$char_traits@D@std@@V?$allocator@D@2@@std@@QEAAAEAV12@QEBD_K@Z
_TEXT	SEGMENT
_Old_ptr$1 = 32
$T2 = 40
$T3 = 41
this$ = 64
_Ptr$ = 72
_Count$ = 80
?assign@?$basic_string@DU?$char_traits@D@std@@V?$allocator@D@2@@std@@QEAAAEAV12@QEBD_K@Z PROC ; std::basic_string<char,std::char_traits<char>,std::allocator<char> >::assign, COMDAT

; 2841 :     basic_string& assign(_In_reads_(_Count) const _Elem* const _Ptr, _CRT_GUARDOVERFLOW const size_type _Count) {

$LN4:
  00000	4c 89 44 24 18	 mov	 QWORD PTR [rsp+24], r8
  00005	48 89 54 24 10	 mov	 QWORD PTR [rsp+16], rdx
  0000a	48 89 4c 24 08	 mov	 QWORD PTR [rsp+8], rcx
  0000f	57		 push	 rdi
  00010	48 83 ec 30	 sub	 rsp, 48			; 00000030H
  00014	48 8b fc	 mov	 rdi, rsp
  00017	b9 0c 00 00 00	 mov	 ecx, 12
  0001c	b8 cc cc cc cc	 mov	 eax, -858993460		; ccccccccH
  00021	f3 ab		 rep stosd
  00023	48 8b 4c 24 40	 mov	 rcx, QWORD PTR [rsp+64]

; 2842 :         // assign [_Ptr, _Ptr + _Count)
; 2843 :         if (_Count <= _Mypair._Myval2._Myres) {

  00028	48 8b 44 24 40	 mov	 rax, QWORD PTR this$[rsp]
  0002d	48 8b 40 20	 mov	 rax, QWORD PTR [rax+32]
  00031	48 39 44 24 50	 cmp	 QWORD PTR _Count$[rsp], rax
  00036	77 5d		 ja	 SHORT $LN2@assign

; 2844 :             _Elem* const _Old_ptr   = _Mypair._Myval2._Myptr();

  00038	48 8b 44 24 40	 mov	 rax, QWORD PTR this$[rsp]
  0003d	48 8b c8	 mov	 rcx, rax
  00040	e8 00 00 00 00	 call	 ?_Myptr@?$_String_val@U?$_Simple_types@D@std@@@std@@QEAAPEADXZ ; std::_String_val<std::_Simple_types<char> >::_Myptr
  00045	48 89 44 24 20	 mov	 QWORD PTR _Old_ptr$1[rsp], rax

; 2845 :             _Mypair._Myval2._Mysize = _Count;

  0004a	48 8b 44 24 40	 mov	 rax, QWORD PTR this$[rsp]
  0004f	48 8b 4c 24 50	 mov	 rcx, QWORD PTR _Count$[rsp]
  00054	48 89 48 18	 mov	 QWORD PTR [rax+24], rcx

; 2846 :             _Traits::move(_Old_ptr, _Ptr, _Count);

  00058	4c 8b 44 24 50	 mov	 r8, QWORD PTR _Count$[rsp]
  0005d	48 8b 54 24 48	 mov	 rdx, QWORD PTR _Ptr$[rsp]
  00062	48 8b 4c 24 20	 mov	 rcx, QWORD PTR _Old_ptr$1[rsp]
  00067	e8 00 00 00 00	 call	 ?move@?$_Narrow_char_traits@DH@std@@SAPEADQEADQEBD_K@Z ; std::_Narrow_char_traits<char,int>::move

; 2847 :             _Traits::assign(_Old_ptr[_Count], _Elem());

  0006c	c6 44 24 28 00	 mov	 BYTE PTR $T2[rsp], 0
  00071	48 8b 44 24 50	 mov	 rax, QWORD PTR _Count$[rsp]
  00076	48 8b 4c 24 20	 mov	 rcx, QWORD PTR _Old_ptr$1[rsp]
  0007b	48 03 c8	 add	 rcx, rax
  0007e	48 8b c1	 mov	 rax, rcx
  00081	48 8d 54 24 28	 lea	 rdx, QWORD PTR $T2[rsp]
  00086	48 8b c8	 mov	 rcx, rax
  00089	e8 00 00 00 00	 call	 ?assign@?$_Narrow_char_traits@DH@std@@SAXAEADAEBD@Z ; std::_Narrow_char_traits<char,int>::assign

; 2848 :             return *this;

  0008e	48 8b 44 24 40	 mov	 rax, QWORD PTR this$[rsp]
  00093	eb 2b		 jmp	 SHORT $LN1@assign
$LN2@assign:

; 2849 :         }
; 2850 : 
; 2851 :         return _Reallocate_for(

  00095	48 8d 44 24 29	 lea	 rax, QWORD PTR $T3[rsp]
  0009a	48 8b f8	 mov	 rdi, rax
  0009d	33 c0		 xor	 eax, eax
  0009f	b9 01 00 00 00	 mov	 ecx, 1
  000a4	f3 aa		 rep stosb
  000a6	4c 8b 4c 24 48	 mov	 r9, QWORD PTR _Ptr$[rsp]
  000ab	44 0f b6 44 24
	29		 movzx	 r8d, BYTE PTR $T3[rsp]
  000b1	48 8b 54 24 50	 mov	 rdx, QWORD PTR _Count$[rsp]
  000b6	48 8b 4c 24 40	 mov	 rcx, QWORD PTR this$[rsp]
  000bb	e8 00 00 00 00	 call	 ??$_Reallocate_for@V<lambda_66f57f934f28d61049862f64df852ff0>@@PEBD@?$basic_string@DU?$char_traits@D@std@@V?$allocator@D@2@@std@@AEAAAEAV01@_KV<lambda_66f57f934f28d61049862f64df852ff0>@@PEBD@Z ; std::basic_string<char,std::char_traits<char>,std::allocator<char> >::_Reallocate_for<<lambda_66f57f934f28d61049862f64df852ff0>,char const *>
$LN1@assign:

; 2852 :             _Count,
; 2853 :             [](_Elem* const _New_ptr, const size_type _Count, const _Elem* const _Ptr) {
; 2854 :                 _Traits::copy(_New_ptr, _Ptr, _Count);
; 2855 :                 _Traits::assign(_New_ptr[_Count], _Elem());
; 2856 :             },
; 2857 :             _Ptr);
; 2858 :     }

  000c0	48 83 c4 30	 add	 rsp, 48			; 00000030H
  000c4	5f		 pop	 rdi
  000c5	c3		 ret	 0
?assign@?$basic_string@DU?$char_traits@D@std@@V?$allocator@D@2@@std@@QEAAAEAV12@QEBD_K@Z ENDP ; std::basic_string<char,std::char_traits<char>,std::allocator<char> >::assign
_TEXT	ENDS
; Function compile flags: /Odtp /RTCsu
; File C:\Program Files (x86)\Microsoft Visual Studio\2019\Community\VC\Tools\MSVC\14.23.28105\include\xstring
;	COMDAT ?append@?$basic_string@DU?$char_traits@D@std@@V?$allocator@D@2@@std@@QEAAAEAV12@QEBD@Z
_TEXT	SEGMENT
this$ = 48
_Ptr$ = 56
?append@?$basic_string@DU?$char_traits@D@std@@V?$allocator@D@2@@std@@QEAAAEAV12@QEBD@Z PROC ; std::basic_string<char,std::char_traits<char>,std::allocator<char> >::append, COMDAT

; 2756 :     basic_string& append(_In_z_ const _Elem* const _Ptr) { // append [_Ptr, <null>)

$LN3:
  00000	48 89 54 24 10	 mov	 QWORD PTR [rsp+16], rdx
  00005	48 89 4c 24 08	 mov	 QWORD PTR [rsp+8], rcx
  0000a	57		 push	 rdi
  0000b	48 83 ec 20	 sub	 rsp, 32			; 00000020H
  0000f	48 8b fc	 mov	 rdi, rsp
  00012	b9 08 00 00 00	 mov	 ecx, 8
  00017	b8 cc cc cc cc	 mov	 eax, -858993460		; ccccccccH
  0001c	f3 ab		 rep stosd
  0001e	48 8b 4c 24 30	 mov	 rcx, QWORD PTR [rsp+48]

; 2757 :         return append(_Ptr, _Convert_size<size_type>(_Traits::length(_Ptr)));

  00023	48 8b 4c 24 38	 mov	 rcx, QWORD PTR _Ptr$[rsp]
  00028	e8 00 00 00 00	 call	 ?length@?$_Narrow_char_traits@DH@std@@SA_KQEBD@Z ; std::_Narrow_char_traits<char,int>::length
  0002d	48 8b c8	 mov	 rcx, rax
  00030	e8 00 00 00 00	 call	 ??$_Convert_size@_K@std@@YA_K_K@Z ; std::_Convert_size<unsigned __int64>
  00035	4c 8b c0	 mov	 r8, rax
  00038	48 8b 54 24 38	 mov	 rdx, QWORD PTR _Ptr$[rsp]
  0003d	48 8b 4c 24 30	 mov	 rcx, QWORD PTR this$[rsp]
  00042	e8 00 00 00 00	 call	 ?append@?$basic_string@DU?$char_traits@D@std@@V?$allocator@D@2@@std@@QEAAAEAV12@QEBD_K@Z ; std::basic_string<char,std::char_traits<char>,std::allocator<char> >::append

; 2758 :     }

  00047	48 83 c4 20	 add	 rsp, 32			; 00000020H
  0004b	5f		 pop	 rdi
  0004c	c3		 ret	 0
?append@?$basic_string@DU?$char_traits@D@std@@V?$allocator@D@2@@std@@QEAAAEAV12@QEBD@Z ENDP ; std::basic_string<char,std::char_traits<char>,std::allocator<char> >::append
_TEXT	ENDS
; Function compile flags: /Odtp /RTCsu
; File C:\Program Files (x86)\Microsoft Visual Studio\2019\Community\VC\Tools\MSVC\14.23.28105\include\xstring
;	COMDAT ?append@?$basic_string@DU?$char_traits@D@std@@V?$allocator@D@2@@std@@QEAAAEAV12@QEBD_K@Z
_TEXT	SEGMENT
_Old_size$ = 48
_Old_ptr$1 = 56
$T2 = 64
$T3 = 65
this$ = 96
_Ptr$ = 104
_Count$ = 112
?append@?$basic_string@DU?$char_traits@D@std@@V?$allocator@D@2@@std@@QEAAAEAV12@QEBD_K@Z PROC ; std::basic_string<char,std::char_traits<char>,std::allocator<char> >::append, COMDAT

; 2734 :     basic_string& append(_In_reads_(_Count) const _Elem* const _Ptr, _CRT_GUARDOVERFLOW const size_type _Count) {

$LN4:
  00000	4c 89 44 24 18	 mov	 QWORD PTR [rsp+24], r8
  00005	48 89 54 24 10	 mov	 QWORD PTR [rsp+16], rdx
  0000a	48 89 4c 24 08	 mov	 QWORD PTR [rsp+8], rcx
  0000f	57		 push	 rdi
  00010	48 83 ec 50	 sub	 rsp, 80			; 00000050H
  00014	48 8b fc	 mov	 rdi, rsp
  00017	b9 14 00 00 00	 mov	 ecx, 20
  0001c	b8 cc cc cc cc	 mov	 eax, -858993460		; ccccccccH
  00021	f3 ab		 rep stosd
  00023	48 8b 4c 24 60	 mov	 rcx, QWORD PTR [rsp+96]

; 2735 :         // append [_Ptr, _Ptr + _Count)
; 2736 :         const size_type _Old_size = _Mypair._Myval2._Mysize;

  00028	48 8b 44 24 60	 mov	 rax, QWORD PTR this$[rsp]
  0002d	48 8b 40 18	 mov	 rax, QWORD PTR [rax+24]
  00031	48 89 44 24 30	 mov	 QWORD PTR _Old_size$[rsp], rax

; 2737 :         if (_Count <= _Mypair._Myval2._Myres - _Old_size) {

  00036	48 8b 44 24 60	 mov	 rax, QWORD PTR this$[rsp]
  0003b	48 8b 4c 24 30	 mov	 rcx, QWORD PTR _Old_size$[rsp]
  00040	48 8b 40 20	 mov	 rax, QWORD PTR [rax+32]
  00044	48 2b c1	 sub	 rax, rcx
  00047	48 39 44 24 70	 cmp	 QWORD PTR _Count$[rsp], rax
  0004c	0f 87 81 00 00
	00		 ja	 $LN2@append

; 2738 :             _Mypair._Myval2._Mysize = _Old_size + _Count;

  00052	48 8b 44 24 70	 mov	 rax, QWORD PTR _Count$[rsp]
  00057	48 8b 4c 24 30	 mov	 rcx, QWORD PTR _Old_size$[rsp]
  0005c	48 03 c8	 add	 rcx, rax
  0005f	48 8b c1	 mov	 rax, rcx
  00062	48 8b 4c 24 60	 mov	 rcx, QWORD PTR this$[rsp]
  00067	48 89 41 18	 mov	 QWORD PTR [rcx+24], rax

; 2739 :             _Elem* const _Old_ptr   = _Mypair._Myval2._Myptr();

  0006b	48 8b 44 24 60	 mov	 rax, QWORD PTR this$[rsp]
  00070	48 8b c8	 mov	 rcx, rax
  00073	e8 00 00 00 00	 call	 ?_Myptr@?$_String_val@U?$_Simple_types@D@std@@@std@@QEAAPEADXZ ; std::_String_val<std::_Simple_types<char> >::_Myptr
  00078	48 89 44 24 38	 mov	 QWORD PTR _Old_ptr$1[rsp], rax

; 2740 :             _Traits::move(_Old_ptr + _Old_size, _Ptr, _Count);

  0007d	48 8b 44 24 30	 mov	 rax, QWORD PTR _Old_size$[rsp]
  00082	48 8b 4c 24 38	 mov	 rcx, QWORD PTR _Old_ptr$1[rsp]
  00087	48 03 c8	 add	 rcx, rax
  0008a	48 8b c1	 mov	 rax, rcx
  0008d	4c 8b 44 24 70	 mov	 r8, QWORD PTR _Count$[rsp]
  00092	48 8b 54 24 68	 mov	 rdx, QWORD PTR _Ptr$[rsp]
  00097	48 8b c8	 mov	 rcx, rax
  0009a	e8 00 00 00 00	 call	 ?move@?$_Narrow_char_traits@DH@std@@SAPEADQEADQEBD_K@Z ; std::_Narrow_char_traits<char,int>::move

; 2741 :             _Traits::assign(_Old_ptr[_Old_size + _Count], _Elem());

  0009f	c6 44 24 40 00	 mov	 BYTE PTR $T2[rsp], 0
  000a4	48 8b 44 24 70	 mov	 rax, QWORD PTR _Count$[rsp]
  000a9	48 8b 4c 24 30	 mov	 rcx, QWORD PTR _Old_size$[rsp]
  000ae	48 03 c8	 add	 rcx, rax
  000b1	48 8b c1	 mov	 rax, rcx
  000b4	48 8b 4c 24 38	 mov	 rcx, QWORD PTR _Old_ptr$1[rsp]
  000b9	48 03 c8	 add	 rcx, rax
  000bc	48 8b c1	 mov	 rax, rcx
  000bf	48 8d 54 24 40	 lea	 rdx, QWORD PTR $T2[rsp]
  000c4	48 8b c8	 mov	 rcx, rax
  000c7	e8 00 00 00 00	 call	 ?assign@?$_Narrow_char_traits@DH@std@@SAXAEADAEBD@Z ; std::_Narrow_char_traits<char,int>::assign

; 2742 :             return *this;

  000cc	48 8b 44 24 60	 mov	 rax, QWORD PTR this$[rsp]
  000d1	eb 35		 jmp	 SHORT $LN1@append
$LN2@append:

; 2743 :         }
; 2744 : 
; 2745 :         return _Reallocate_grow_by(

  000d3	48 8d 44 24 41	 lea	 rax, QWORD PTR $T3[rsp]
  000d8	48 8b f8	 mov	 rdi, rax
  000db	33 c0		 xor	 eax, eax
  000dd	b9 01 00 00 00	 mov	 ecx, 1
  000e2	f3 aa		 rep stosb
  000e4	48 8b 44 24 70	 mov	 rax, QWORD PTR _Count$[rsp]
  000e9	48 89 44 24 20	 mov	 QWORD PTR [rsp+32], rax
  000ee	4c 8b 4c 24 68	 mov	 r9, QWORD PTR _Ptr$[rsp]
  000f3	44 0f b6 44 24
	41		 movzx	 r8d, BYTE PTR $T3[rsp]
  000f9	48 8b 54 24 70	 mov	 rdx, QWORD PTR _Count$[rsp]
  000fe	48 8b 4c 24 60	 mov	 rcx, QWORD PTR this$[rsp]
  00103	e8 00 00 00 00	 call	 ??$_Reallocate_grow_by@V<lambda_65e615be2a453ca0576c979606f46740>@@PEBD_K@?$basic_string@DU?$char_traits@D@std@@V?$allocator@D@2@@std@@AEAAAEAV01@_KV<lambda_65e615be2a453ca0576c979606f46740>@@PEBD_K@Z ; std::basic_string<char,std::char_traits<char>,std::allocator<char> >::_Reallocate_grow_by<<lambda_65e615be2a453ca0576c979606f46740>,char const *,unsigned __int64>
$LN1@append:

; 2746 :             _Count,
; 2747 :             [](_Elem* const _New_ptr, const _Elem* const _Old_ptr, const size_type _Old_size, const _Elem* const _Ptr,
; 2748 :                 const size_type _Count) {
; 2749 :                 _Traits::copy(_New_ptr, _Old_ptr, _Old_size);
; 2750 :                 _Traits::copy(_New_ptr + _Old_size, _Ptr, _Count);
; 2751 :                 _Traits::assign(_New_ptr[_Old_size + _Count], _Elem());
; 2752 :             },
; 2753 :             _Ptr, _Count);
; 2754 :     }

  00108	48 83 c4 50	 add	 rsp, 80			; 00000050H
  0010c	5f		 pop	 rdi
  0010d	c3		 ret	 0
?append@?$basic_string@DU?$char_traits@D@std@@V?$allocator@D@2@@std@@QEAAAEAV12@QEBD_K@Z ENDP ; std::basic_string<char,std::char_traits<char>,std::allocator<char> >::append
_TEXT	ENDS
; Function compile flags: /Odtp /RTCsu
; File C:\Program Files (x86)\Microsoft Visual Studio\2019\Community\VC\Tools\MSVC\14.23.28105\include\xstring
;	COMDAT ?append@?$basic_string@DU?$char_traits@D@std@@V?$allocator@D@2@@std@@QEAAAEAV12@AEBV12@@Z
_TEXT	SEGMENT
this$ = 48
_Right$ = 56
?append@?$basic_string@DU?$char_traits@D@std@@V?$allocator@D@2@@std@@QEAAAEAV12@AEBV12@@Z PROC ; std::basic_string<char,std::char_traits<char>,std::allocator<char> >::append, COMDAT

; 2708 :     basic_string& append(const basic_string& _Right) { // append _Right

$LN3:
  00000	48 89 54 24 10	 mov	 QWORD PTR [rsp+16], rdx
  00005	48 89 4c 24 08	 mov	 QWORD PTR [rsp+8], rcx
  0000a	57		 push	 rdi
  0000b	48 83 ec 20	 sub	 rsp, 32			; 00000020H
  0000f	48 8b fc	 mov	 rdi, rsp
  00012	b9 08 00 00 00	 mov	 ecx, 8
  00017	b8 cc cc cc cc	 mov	 eax, -858993460		; ccccccccH
  0001c	f3 ab		 rep stosd
  0001e	48 8b 4c 24 30	 mov	 rcx, QWORD PTR [rsp+48]

; 2709 :         return append(_Right._Mypair._Myval2._Myptr(), _Right._Mypair._Myval2._Mysize);

  00023	48 8b 44 24 38	 mov	 rax, QWORD PTR _Right$[rsp]
  00028	48 8b c8	 mov	 rcx, rax
  0002b	e8 00 00 00 00	 call	 ?_Myptr@?$_String_val@U?$_Simple_types@D@std@@@std@@QEBAPEBDXZ ; std::_String_val<std::_Simple_types<char> >::_Myptr
  00030	48 8b 4c 24 38	 mov	 rcx, QWORD PTR _Right$[rsp]
  00035	4c 8b 41 18	 mov	 r8, QWORD PTR [rcx+24]
  00039	48 8b d0	 mov	 rdx, rax
  0003c	48 8b 4c 24 30	 mov	 rcx, QWORD PTR this$[rsp]
  00041	e8 00 00 00 00	 call	 ?append@?$basic_string@DU?$char_traits@D@std@@V?$allocator@D@2@@std@@QEAAAEAV12@QEBD_K@Z ; std::basic_string<char,std::char_traits<char>,std::allocator<char> >::append

; 2710 :     }

  00046	48 83 c4 20	 add	 rsp, 32			; 00000020H
  0004a	5f		 pop	 rdi
  0004b	c3		 ret	 0
?append@?$basic_string@DU?$char_traits@D@std@@V?$allocator@D@2@@std@@QEAAAEAV12@AEBV12@@Z ENDP ; std::basic_string<char,std::char_traits<char>,std::allocator<char> >::append
_TEXT	ENDS
; Function compile flags: /Odtp /RTCsu
; File C:\Program Files (x86)\Microsoft Visual Studio\2019\Community\VC\Tools\MSVC\14.23.28105\include\xstring
;	COMDAT ??Y?$basic_string@DU?$char_traits@D@std@@V?$allocator@D@2@@std@@QEAAAEAV01@AEBV01@@Z
_TEXT	SEGMENT
this$ = 48
_Right$ = 56
??Y?$basic_string@DU?$char_traits@D@std@@V?$allocator@D@2@@std@@QEAAAEAV01@AEBV01@@Z PROC ; std::basic_string<char,std::char_traits<char>,std::allocator<char> >::operator+=, COMDAT

; 2688 :     basic_string& operator+=(const basic_string& _Right) { // append _Right

$LN3:
  00000	48 89 54 24 10	 mov	 QWORD PTR [rsp+16], rdx
  00005	48 89 4c 24 08	 mov	 QWORD PTR [rsp+8], rcx
  0000a	57		 push	 rdi
  0000b	48 83 ec 20	 sub	 rsp, 32			; 00000020H
  0000f	48 8b fc	 mov	 rdi, rsp
  00012	b9 08 00 00 00	 mov	 ecx, 8
  00017	b8 cc cc cc cc	 mov	 eax, -858993460		; ccccccccH
  0001c	f3 ab		 rep stosd
  0001e	48 8b 4c 24 30	 mov	 rcx, QWORD PTR [rsp+48]

; 2689 :         return append(_Right);

  00023	48 8b 54 24 38	 mov	 rdx, QWORD PTR _Right$[rsp]
  00028	48 8b 4c 24 30	 mov	 rcx, QWORD PTR this$[rsp]
  0002d	e8 00 00 00 00	 call	 ?append@?$basic_string@DU?$char_traits@D@std@@V?$allocator@D@2@@std@@QEAAAEAV12@AEBV12@@Z ; std::basic_string<char,std::char_traits<char>,std::allocator<char> >::append

; 2690 :     }

  00032	48 83 c4 20	 add	 rsp, 32			; 00000020H
  00036	5f		 pop	 rdi
  00037	c3		 ret	 0
??Y?$basic_string@DU?$char_traits@D@std@@V?$allocator@D@2@@std@@QEAAAEAV01@AEBV01@@Z ENDP ; std::basic_string<char,std::char_traits<char>,std::allocator<char> >::operator+=
_TEXT	ENDS
; Function compile flags: /Odtp /RTCsu
; File C:\Program Files (x86)\Microsoft Visual Studio\2019\Community\VC\Tools\MSVC\14.23.28105\include\xstring
;	COMDAT ??1?$basic_string@DU?$char_traits@D@std@@V?$allocator@D@2@@std@@QEAA@XZ
_TEXT	SEGMENT
_Alproxy$ = 32
$S9$ = 52
_To_delete$ = 72
this$ = 96
??1?$basic_string@DU?$char_traits@D@std@@V?$allocator@D@2@@std@@QEAA@XZ PROC ; std::basic_string<char,std::char_traits<char>,std::allocator<char> >::~basic_string<char,std::char_traits<char>,std::allocator<char> >, COMDAT

; 2597 :     ~basic_string() noexcept { // destroy the string

$LN4:
  00000	48 89 4c 24 08	 mov	 QWORD PTR [rsp+8], rcx
  00005	57		 push	 rdi
  00006	48 83 ec 50	 sub	 rsp, 80			; 00000050H
  0000a	48 8b fc	 mov	 rdi, rsp
  0000d	b9 14 00 00 00	 mov	 ecx, 20
  00012	b8 cc cc cc cc	 mov	 eax, -858993460		; ccccccccH
  00017	f3 ab		 rep stosd
  00019	48 8b 4c 24 60	 mov	 rcx, QWORD PTR [rsp+96]

; 2598 :         _Tidy_deallocate();

  0001e	48 8b 4c 24 60	 mov	 rcx, QWORD PTR this$[rsp]
  00023	e8 00 00 00 00	 call	 ?_Tidy_deallocate@?$basic_string@DU?$char_traits@D@std@@V?$allocator@D@2@@std@@AEAAXXZ ; std::basic_string<char,std::char_traits<char>,std::allocator<char> >::_Tidy_deallocate
  00028	90		 npad	 1

; 2599 : #if _ITERATOR_DEBUG_LEVEL != 0
; 2600 :         auto&& _Alproxy          = _GET_PROXY_ALLOCATOR(_Alty, _Getal());

  00029	48 8b 4c 24 60	 mov	 rcx, QWORD PTR this$[rsp]
  0002e	e8 00 00 00 00	 call	 ?_Getal@?$basic_string@DU?$char_traits@D@std@@V?$allocator@D@2@@std@@AEAAAEAV?$allocator@D@2@XZ ; std::basic_string<char,std::char_traits<char>,std::allocator<char> >::_Getal
  00033	90		 npad	 1
  00034	48 8b d0	 mov	 rdx, rax
  00037	48 8d 4c 24 34	 lea	 rcx, QWORD PTR $S9$[rsp]
  0003c	e8 00 00 00 00	 call	 ??$?0D@?$allocator@U_Container_proxy@std@@@std@@QEAA@AEBV?$allocator@D@1@@Z ; std::allocator<std::_Container_proxy>::allocator<std::_Container_proxy><char>
  00041	90		 npad	 1
  00042	48 8d 44 24 34	 lea	 rax, QWORD PTR $S9$[rsp]
  00047	48 89 44 24 20	 mov	 QWORD PTR _Alproxy$[rsp], rax

; 2601 :         const auto _To_delete    = _Mypair._Myval2._Myproxy;

  0004c	48 8b 44 24 60	 mov	 rax, QWORD PTR this$[rsp]
  00051	48 8b 00	 mov	 rax, QWORD PTR [rax]
  00054	48 89 44 24 48	 mov	 QWORD PTR _To_delete$[rsp], rax

; 2602 :         _Mypair._Myval2._Myproxy = nullptr;

  00059	48 8b 44 24 60	 mov	 rax, QWORD PTR this$[rsp]
  0005e	48 c7 00 00 00
	00 00		 mov	 QWORD PTR [rax], 0

; 2603 :         _Delete_plain_internal(_Alproxy, _To_delete);

  00065	48 8b 54 24 48	 mov	 rdx, QWORD PTR _To_delete$[rsp]
  0006a	48 8b 4c 24 20	 mov	 rcx, QWORD PTR _Alproxy$[rsp]
  0006f	e8 00 00 00 00	 call	 ??$_Delete_plain_internal@V?$allocator@U_Container_proxy@std@@@std@@@std@@YAXAEAV?$allocator@U_Container_proxy@std@@@0@QEAU_Container_proxy@0@@Z ; std::_Delete_plain_internal<std::allocator<std::_Container_proxy> >
  00074	90		 npad	 1

; 2604 : #endif // _ITERATOR_DEBUG_LEVEL != 0
; 2605 :     }

  00075	48 8b 44 24 60	 mov	 rax, QWORD PTR this$[rsp]
  0007a	48 8b c8	 mov	 rcx, rax
  0007d	e8 00 00 00 00	 call	 ??1?$_Compressed_pair@V?$allocator@D@std@@V?$_String_val@U?$_Simple_types@D@std@@@2@$00@std@@QEAA@XZ
  00082	90		 npad	 1
  00083	48 8b cc	 mov	 rcx, rsp
  00086	48 8d 15 00 00
	00 00		 lea	 rdx, OFFSET FLAT:??1?$basic_string@DU?$char_traits@D@std@@V?$allocator@D@2@@std@@QEAA@XZ$rtcFrameData
  0008d	e8 00 00 00 00	 call	 _RTC_CheckStackVars
  00092	90		 npad	 1
  00093	48 83 c4 50	 add	 rsp, 80			; 00000050H
  00097	5f		 pop	 rdi
  00098	c3		 ret	 0
??1?$basic_string@DU?$char_traits@D@std@@V?$allocator@D@2@@std@@QEAA@XZ ENDP ; std::basic_string<char,std::char_traits<char>,std::allocator<char> >::~basic_string<char,std::char_traits<char>,std::allocator<char> >
_TEXT	ENDS
;	COMDAT text$x
text$x	SEGMENT
_Alproxy$ = 32
$S9$ = 52
_To_delete$ = 72
this$ = 96
?dtor$0@?0???1?$basic_string@DU?$char_traits@D@std@@V?$allocator@D@2@@std@@QEAA@XZ@4HA PROC ; `std::basic_string<char,std::char_traits<char>,std::allocator<char> >::~basic_string<char,std::char_traits<char>,std::allocator<char> >'::`1'::dtor$0
  00000	48 89 4c 24 08	 mov	 QWORD PTR [rsp+8], rcx
  00005	48 89 54 24 10	 mov	 QWORD PTR [rsp+16], rdx
  0000a	55		 push	 rbp
  0000b	57		 push	 rdi
  0000c	48 83 ec 28	 sub	 rsp, 40			; 00000028H
  00010	48 8b ea	 mov	 rbp, rdx
  00013	48 8b 4d 60	 mov	 rcx, QWORD PTR this$[rbp]
  00017	e8 00 00 00 00	 call	 ??1?$_Compressed_pair@V?$allocator@D@std@@V?$_String_val@U?$_Simple_types@D@std@@@2@$00@std@@QEAA@XZ
  0001c	48 83 c4 28	 add	 rsp, 40			; 00000028H
  00020	5f		 pop	 rdi
  00021	5d		 pop	 rbp
  00022	c3		 ret	 0
?dtor$0@?0???1?$basic_string@DU?$char_traits@D@std@@V?$allocator@D@2@@std@@QEAA@XZ@4HA ENDP ; `std::basic_string<char,std::char_traits<char>,std::allocator<char> >::~basic_string<char,std::char_traits<char>,std::allocator<char> >'::`1'::dtor$0
text$x	ENDS
; Function compile flags: /Odtp /RTCsu
;	COMDAT text$x
text$x	SEGMENT
_Alproxy$ = 32
$S9$ = 52
_To_delete$ = 72
this$ = 96
?dtor$0@?0???1?$basic_string@DU?$char_traits@D@std@@V?$allocator@D@2@@std@@QEAA@XZ@4HA PROC ; `std::basic_string<char,std::char_traits<char>,std::allocator<char> >::~basic_string<char,std::char_traits<char>,std::allocator<char> >'::`1'::dtor$0
  00000	48 89 4c 24 08	 mov	 QWORD PTR [rsp+8], rcx
  00005	48 89 54 24 10	 mov	 QWORD PTR [rsp+16], rdx
  0000a	55		 push	 rbp
  0000b	57		 push	 rdi
  0000c	48 83 ec 28	 sub	 rsp, 40			; 00000028H
  00010	48 8b ea	 mov	 rbp, rdx
  00013	48 8b 4d 60	 mov	 rcx, QWORD PTR this$[rbp]
  00017	e8 00 00 00 00	 call	 ??1?$_Compressed_pair@V?$allocator@D@std@@V?$_String_val@U?$_Simple_types@D@std@@@2@$00@std@@QEAA@XZ
  0001c	48 83 c4 28	 add	 rsp, 40			; 00000028H
  00020	5f		 pop	 rdi
  00021	5d		 pop	 rbp
  00022	c3		 ret	 0
?dtor$0@?0???1?$basic_string@DU?$char_traits@D@std@@V?$allocator@D@2@@std@@QEAA@XZ@4HA ENDP ; `std::basic_string<char,std::char_traits<char>,std::allocator<char> >::~basic_string<char,std::char_traits<char>,std::allocator<char> >'::`1'::dtor$0
text$x	ENDS
; Function compile flags: /Odtp /RTCsu
; File C:\Program Files (x86)\Microsoft Visual Studio\2019\Community\VC\Tools\MSVC\14.23.28105\include\xstring
;	COMDAT ?_Take_contents@?$basic_string@DU?$char_traits@D@std@@V?$allocator@D@2@@std@@AEAAXAEAV12@U?$integral_constant@_N$00@2@@Z
_TEXT	SEGMENT
this$ = 48
_Right$ = 56
__formal$ = 64
?_Take_contents@?$basic_string@DU?$char_traits@D@std@@V?$allocator@D@2@@std@@AEAAXAEAV12@U?$integral_constant@_N$00@2@@Z PROC ; std::basic_string<char,std::char_traits<char>,std::allocator<char> >::_Take_contents, COMDAT

; 2484 :     void _Take_contents(basic_string& _Right, true_type) noexcept {

$LN5:
  00000	44 88 44 24 18	 mov	 BYTE PTR [rsp+24], r8b
  00005	48 89 54 24 10	 mov	 QWORD PTR [rsp+16], rdx
  0000a	48 89 4c 24 08	 mov	 QWORD PTR [rsp+8], rcx
  0000f	57		 push	 rdi
  00010	48 83 ec 20	 sub	 rsp, 32			; 00000020H
  00014	48 8b fc	 mov	 rdi, rsp
  00017	b9 08 00 00 00	 mov	 ecx, 8
  0001c	b8 cc cc cc cc	 mov	 eax, -858993460		; ccccccccH
  00021	f3 ab		 rep stosd
  00023	48 8b 4c 24 30	 mov	 rcx, QWORD PTR [rsp+48]

; 2485 :         // assign by stealing _Right's buffer, memcpy optimization
; 2486 :         // pre: this != &_Right
; 2487 :         // pre: allocator propagation (POCMA) from _Right, if necessary, is complete
; 2488 :         // pre: *this owns no memory, iterators orphaned (note:
; 2489 :         // _Buf/_Ptr/_Mysize/_Myres may be garbage init)
; 2490 : #if _ITERATOR_DEBUG_LEVEL != 0
; 2491 :         if (_Right._Mypair._Myval2._Large_string_engaged()) {

  00028	48 8b 44 24 38	 mov	 rax, QWORD PTR _Right$[rsp]
  0002d	48 8b c8	 mov	 rcx, rax
  00030	e8 00 00 00 00	 call	 ?_Large_string_engaged@?$_String_val@U?$_Simple_types@D@std@@@std@@QEBA_NXZ ; std::_String_val<std::_Simple_types<char> >::_Large_string_engaged
  00035	90		 npad	 1
  00036	0f b6 c0	 movzx	 eax, al
  00039	85 c0		 test	 eax, eax
  0003b	74 12		 je	 SHORT $LN2@Take_conte

; 2492 :             // take ownership of _Right's iterators along with its buffer
; 2493 :             _Swap_proxy_and_iterators(_Right);

  0003d	48 8b 54 24 38	 mov	 rdx, QWORD PTR _Right$[rsp]
  00042	48 8b 4c 24 30	 mov	 rcx, QWORD PTR this$[rsp]
  00047	e8 00 00 00 00	 call	 ?_Swap_proxy_and_iterators@?$basic_string@DU?$char_traits@D@std@@V?$allocator@D@2@@std@@AEAAXAEAV12@@Z ; std::basic_string<char,std::char_traits<char>,std::allocator<char> >::_Swap_proxy_and_iterators
  0004c	90		 npad	 1

; 2494 :         } else {

  0004d	eb 0e		 jmp	 SHORT $LN3@Take_conte
$LN2@Take_conte:

; 2495 :             _Right._Mypair._Myval2._Orphan_all();

  0004f	48 8b 44 24 38	 mov	 rax, QWORD PTR _Right$[rsp]
  00054	48 8b c8	 mov	 rcx, rax
  00057	e8 00 00 00 00	 call	 ?_Orphan_all@_Container_base12@std@@QEAAXXZ ; std::_Container_base12::_Orphan_all
  0005c	90		 npad	 1
$LN3@Take_conte:

; 2496 :         }
; 2497 : #endif // _ITERATOR_DEBUG_LEVEL != 0
; 2498 : 
; 2499 :         _Memcpy_val_from(_Right);

  0005d	48 8b 54 24 38	 mov	 rdx, QWORD PTR _Right$[rsp]
  00062	48 8b 4c 24 30	 mov	 rcx, QWORD PTR this$[rsp]
  00067	e8 00 00 00 00	 call	 ?_Memcpy_val_from@?$basic_string@DU?$char_traits@D@std@@V?$allocator@D@2@@std@@AEAAXAEBV12@@Z ; std::basic_string<char,std::char_traits<char>,std::allocator<char> >::_Memcpy_val_from
  0006c	90		 npad	 1

; 2500 :         _Right._Tidy_init();

  0006d	48 8b 4c 24 38	 mov	 rcx, QWORD PTR _Right$[rsp]
  00072	e8 00 00 00 00	 call	 ?_Tidy_init@?$basic_string@DU?$char_traits@D@std@@V?$allocator@D@2@@std@@AEAAXXZ ; std::basic_string<char,std::char_traits<char>,std::allocator<char> >::_Tidy_init
  00077	90		 npad	 1

; 2501 :     }

  00078	48 83 c4 20	 add	 rsp, 32			; 00000020H
  0007c	5f		 pop	 rdi
  0007d	c3		 ret	 0
?_Take_contents@?$basic_string@DU?$char_traits@D@std@@V?$allocator@D@2@@std@@AEAAXAEAV12@U?$integral_constant@_N$00@2@@Z ENDP ; std::basic_string<char,std::char_traits<char>,std::allocator<char> >::_Take_contents
_TEXT	ENDS
; Function compile flags: /Odtp /RTCsu
; File C:\Program Files (x86)\Microsoft Visual Studio\2019\Community\VC\Tools\MSVC\14.23.28105\include\xstring
;	COMDAT ?_Memcpy_val_from@?$basic_string@DU?$char_traits@D@std@@V?$allocator@D@2@@std@@AEAAXAEBV12@@Z
_TEXT	SEGMENT
_My_data_mem$ = 32
_Right_data_mem$ = 40
this$ = 64
_Right$ = 72
?_Memcpy_val_from@?$basic_string@DU?$char_traits@D@std@@V?$allocator@D@2@@std@@AEAAXAEBV12@@Z PROC ; std::basic_string<char,std::char_traits<char>,std::allocator<char> >::_Memcpy_val_from, COMDAT

; 2475 :     void _Memcpy_val_from(const basic_string& _Right) noexcept {

$LN3:
  00000	48 89 54 24 10	 mov	 QWORD PTR [rsp+16], rdx
  00005	48 89 4c 24 08	 mov	 QWORD PTR [rsp+8], rcx
  0000a	57		 push	 rdi
  0000b	48 83 ec 30	 sub	 rsp, 48			; 00000030H
  0000f	48 8b fc	 mov	 rdi, rsp
  00012	b9 0c 00 00 00	 mov	 ecx, 12
  00017	b8 cc cc cc cc	 mov	 eax, -858993460		; ccccccccH
  0001c	f3 ab		 rep stosd
  0001e	48 8b 4c 24 40	 mov	 rcx, QWORD PTR [rsp+64]

; 2476 :         _STL_INTERNAL_CHECK(_Can_memcpy_val); // TRANSITION, if constexpr
; 2477 :         const auto _My_data_mem =

  00023	48 8b 44 24 40	 mov	 rax, QWORD PTR this$[rsp]
  00028	48 8b c8	 mov	 rcx, rax
  0002b	e8 00 00 00 00	 call	 ??$addressof@V?$_String_val@U?$_Simple_types@D@std@@@std@@@std@@YAPEAV?$_String_val@U?$_Simple_types@D@std@@@0@AEAV10@@Z ; std::addressof<std::_String_val<std::_Simple_types<char> > >
  00030	90		 npad	 1
  00031	48 83 c0 08	 add	 rax, 8
  00035	48 89 44 24 20	 mov	 QWORD PTR _My_data_mem$[rsp], rax

; 2478 :             reinterpret_cast<unsigned char*>(_STD addressof(_Mypair._Myval2)) + _Memcpy_val_offset;
; 2479 :         const auto _Right_data_mem =

  0003a	48 8b 44 24 48	 mov	 rax, QWORD PTR _Right$[rsp]
  0003f	48 8b c8	 mov	 rcx, rax
  00042	e8 00 00 00 00	 call	 ??$addressof@$$CBV?$_String_val@U?$_Simple_types@D@std@@@std@@@std@@YAPEBV?$_String_val@U?$_Simple_types@D@std@@@0@AEBV10@@Z ; std::addressof<std::_String_val<std::_Simple_types<char> > const >
  00047	90		 npad	 1
  00048	48 83 c0 08	 add	 rax, 8
  0004c	48 89 44 24 28	 mov	 QWORD PTR _Right_data_mem$[rsp], rax

; 2480 :             reinterpret_cast<const unsigned char*>(_STD addressof(_Right._Mypair._Myval2)) + _Memcpy_val_offset;
; 2481 :         _CSTD memcpy(_My_data_mem, _Right_data_mem, _Memcpy_val_size);

  00051	41 b8 20 00 00
	00		 mov	 r8d, 32			; 00000020H
  00057	48 8b 54 24 28	 mov	 rdx, QWORD PTR _Right_data_mem$[rsp]
  0005c	48 8b 4c 24 20	 mov	 rcx, QWORD PTR _My_data_mem$[rsp]
  00061	e8 00 00 00 00	 call	 memcpy
  00066	90		 npad	 1

; 2482 :     }

  00067	48 83 c4 30	 add	 rsp, 48			; 00000030H
  0006b	5f		 pop	 rdi
  0006c	c3		 ret	 0
?_Memcpy_val_from@?$basic_string@DU?$char_traits@D@std@@V?$allocator@D@2@@std@@AEAAXAEBV12@@Z ENDP ; std::basic_string<char,std::char_traits<char>,std::allocator<char> >::_Memcpy_val_from
_TEXT	ENDS
; Function compile flags: /Odtp /RTCsu
; File C:\Program Files (x86)\Microsoft Visual Studio\2019\Community\VC\Tools\MSVC\14.23.28105\include\xstring
;	COMDAT ??0?$basic_string@DU?$char_traits@D@std@@V?$allocator@D@2@@std@@QEAA@$$QEAV01@@Z
_TEXT	SEGMENT
$T1 = 32
$T2 = 33
$T3 = 34
this$ = 64
_Right$ = 72
??0?$basic_string@DU?$char_traits@D@std@@V?$allocator@D@2@@std@@QEAA@$$QEAV01@@Z PROC ; std::basic_string<char,std::char_traits<char>,std::allocator<char> >::basic_string<char,std::char_traits<char>,std::allocator<char> >, COMDAT

; 2383 :     basic_string(basic_string&& _Right) noexcept : _Mypair(_One_then_variadic_args_t(), _STD move(_Right._Getal())) {

$LN4:
  00000	48 89 54 24 10	 mov	 QWORD PTR [rsp+16], rdx
  00005	48 89 4c 24 08	 mov	 QWORD PTR [rsp+8], rcx
  0000a	57		 push	 rdi
  0000b	48 83 ec 30	 sub	 rsp, 48			; 00000030H
  0000f	48 8b fc	 mov	 rdi, rsp
  00012	b9 0c 00 00 00	 mov	 ecx, 12
  00017	b8 cc cc cc cc	 mov	 eax, -858993460		; ccccccccH
  0001c	f3 ab		 rep stosd
  0001e	48 8b 4c 24 40	 mov	 rcx, QWORD PTR [rsp+64]
  00023	48 8b 4c 24 48	 mov	 rcx, QWORD PTR _Right$[rsp]
  00028	e8 00 00 00 00	 call	 ?_Getal@?$basic_string@DU?$char_traits@D@std@@V?$allocator@D@2@@std@@AEAAAEAV?$allocator@D@2@XZ ; std::basic_string<char,std::char_traits<char>,std::allocator<char> >::_Getal
  0002d	90		 npad	 1
  0002e	48 8b c8	 mov	 rcx, rax
  00031	e8 00 00 00 00	 call	 ??$move@AEAV?$allocator@D@std@@@std@@YA$$QEAV?$allocator@D@0@AEAV10@@Z ; std::move<std::allocator<char> &>
  00036	90		 npad	 1
  00037	48 8b 4c 24 40	 mov	 rcx, QWORD PTR this$[rsp]
  0003c	4c 8b c0	 mov	 r8, rax
  0003f	0f b6 54 24 20	 movzx	 edx, BYTE PTR $T1[rsp]
  00044	e8 00 00 00 00	 call	 ??$?0V?$allocator@D@std@@$$V@?$_Compressed_pair@V?$allocator@D@std@@V?$_String_val@U?$_Simple_types@D@std@@@2@$00@std@@QEAA@U_One_then_variadic_args_t@1@$$QEAV?$allocator@D@1@@Z ; std::_Compressed_pair<std::allocator<char>,std::_String_val<std::_Simple_types<char> >,1>::_Compressed_pair<std::allocator<char>,std::_String_val<std::_Simple_types<char> >,1><std::allocator<char> >
  00049	90		 npad	 1

; 2384 :         // construct by moving _Right
; 2385 :         _Mypair._Myval2._Alloc_proxy(_GET_PROXY_ALLOCATOR(_Alty, _Getal()));

  0004a	48 8b 4c 24 40	 mov	 rcx, QWORD PTR this$[rsp]
  0004f	e8 00 00 00 00	 call	 ?_Getal@?$basic_string@DU?$char_traits@D@std@@V?$allocator@D@2@@std@@AEAAAEAV?$allocator@D@2@XZ ; std::basic_string<char,std::char_traits<char>,std::allocator<char> >::_Getal
  00054	90		 npad	 1
  00055	48 8b d0	 mov	 rdx, rax
  00058	48 8d 4c 24 21	 lea	 rcx, QWORD PTR $T2[rsp]
  0005d	e8 00 00 00 00	 call	 ??$?0D@?$allocator@U_Container_proxy@std@@@std@@QEAA@AEBV?$allocator@D@1@@Z ; std::allocator<std::_Container_proxy>::allocator<std::_Container_proxy><char>
  00062	90		 npad	 1
  00063	48 8b 4c 24 40	 mov	 rcx, QWORD PTR this$[rsp]
  00068	48 8b d0	 mov	 rdx, rax
  0006b	e8 00 00 00 00	 call	 ??$_Alloc_proxy@V?$allocator@U_Container_proxy@std@@@std@@@_Container_base12@std@@QEAAX$$QEAV?$allocator@U_Container_proxy@std@@@1@@Z ; std::_Container_base12::_Alloc_proxy<std::allocator<std::_Container_proxy> >
  00070	90		 npad	 1

; 2386 :         _Take_contents(_Right, bool_constant<_Can_memcpy_val>{});

  00071	48 8d 44 24 22	 lea	 rax, QWORD PTR $T3[rsp]
  00076	48 8b f8	 mov	 rdi, rax
  00079	33 c0		 xor	 eax, eax
  0007b	b9 01 00 00 00	 mov	 ecx, 1
  00080	f3 aa		 rep stosb
  00082	44 0f b6 44 24
	22		 movzx	 r8d, BYTE PTR $T3[rsp]
  00088	48 8b 54 24 48	 mov	 rdx, QWORD PTR _Right$[rsp]
  0008d	48 8b 4c 24 40	 mov	 rcx, QWORD PTR this$[rsp]
  00092	e8 00 00 00 00	 call	 ?_Take_contents@?$basic_string@DU?$char_traits@D@std@@V?$allocator@D@2@@std@@AEAAXAEAV12@U?$integral_constant@_N$00@2@@Z ; std::basic_string<char,std::char_traits<char>,std::allocator<char> >::_Take_contents
  00097	90		 npad	 1

; 2387 :     }

  00098	48 8b 44 24 40	 mov	 rax, QWORD PTR this$[rsp]
  0009d	48 83 c4 30	 add	 rsp, 48			; 00000030H
  000a1	5f		 pop	 rdi
  000a2	c3		 ret	 0
??0?$basic_string@DU?$char_traits@D@std@@V?$allocator@D@2@@std@@QEAA@$$QEAV01@@Z ENDP ; std::basic_string<char,std::char_traits<char>,std::allocator<char> >::basic_string<char,std::char_traits<char>,std::allocator<char> >
_TEXT	ENDS
;	COMDAT text$x
text$x	SEGMENT
$T1 = 32
$T2 = 33
$T3 = 34
this$ = 64
_Right$ = 72
?dtor$0@?0???0?$basic_string@DU?$char_traits@D@std@@V?$allocator@D@2@@std@@QEAA@$$QEAV01@@Z@4HA PROC ; `std::basic_string<char,std::char_traits<char>,std::allocator<char> >::basic_string<char,std::char_traits<char>,std::allocator<char> >'::`1'::dtor$0
  00000	48 89 4c 24 08	 mov	 QWORD PTR [rsp+8], rcx
  00005	48 89 54 24 10	 mov	 QWORD PTR [rsp+16], rdx
  0000a	55		 push	 rbp
  0000b	57		 push	 rdi
  0000c	48 83 ec 28	 sub	 rsp, 40			; 00000028H
  00010	48 8b ea	 mov	 rbp, rdx
  00013	48 8b 4d 40	 mov	 rcx, QWORD PTR this$[rbp]
  00017	e8 00 00 00 00	 call	 ??1?$_Compressed_pair@V?$allocator@D@std@@V?$_String_val@U?$_Simple_types@D@std@@@2@$00@std@@QEAA@XZ
  0001c	48 83 c4 28	 add	 rsp, 40			; 00000028H
  00020	5f		 pop	 rdi
  00021	5d		 pop	 rbp
  00022	c3		 ret	 0
?dtor$0@?0???0?$basic_string@DU?$char_traits@D@std@@V?$allocator@D@2@@std@@QEAA@$$QEAV01@@Z@4HA ENDP ; `std::basic_string<char,std::char_traits<char>,std::allocator<char> >::basic_string<char,std::char_traits<char>,std::allocator<char> >'::`1'::dtor$0
text$x	ENDS
; Function compile flags: /Odtp /RTCsu
;	COMDAT text$x
text$x	SEGMENT
$T1 = 32
$T2 = 33
$T3 = 34
this$ = 64
_Right$ = 72
?dtor$0@?0???0?$basic_string@DU?$char_traits@D@std@@V?$allocator@D@2@@std@@QEAA@$$QEAV01@@Z@4HA PROC ; `std::basic_string<char,std::char_traits<char>,std::allocator<char> >::basic_string<char,std::char_traits<char>,std::allocator<char> >'::`1'::dtor$0
  00000	48 89 4c 24 08	 mov	 QWORD PTR [rsp+8], rcx
  00005	48 89 54 24 10	 mov	 QWORD PTR [rsp+16], rdx
  0000a	55		 push	 rbp
  0000b	57		 push	 rdi
  0000c	48 83 ec 28	 sub	 rsp, 40			; 00000028H
  00010	48 8b ea	 mov	 rbp, rdx
  00013	48 8b 4d 40	 mov	 rcx, QWORD PTR this$[rbp]
  00017	e8 00 00 00 00	 call	 ??1?$_Compressed_pair@V?$allocator@D@std@@V?$_String_val@U?$_Simple_types@D@std@@@2@$00@std@@QEAA@XZ
  0001c	48 83 c4 28	 add	 rsp, 40			; 00000028H
  00020	5f		 pop	 rdi
  00021	5d		 pop	 rbp
  00022	c3		 ret	 0
?dtor$0@?0???0?$basic_string@DU?$char_traits@D@std@@V?$allocator@D@2@@std@@QEAA@$$QEAV01@@Z@4HA ENDP ; `std::basic_string<char,std::char_traits<char>,std::allocator<char> >::basic_string<char,std::char_traits<char>,std::allocator<char> >'::`1'::dtor$0
text$x	ENDS
; Function compile flags: /Odtp /RTCsu
; File C:\Program Files (x86)\Microsoft Visual Studio\2019\Community\VC\Tools\MSVC\14.23.28105\include\xstring
;	COMDAT ??0?$basic_string@DU?$char_traits@D@std@@V?$allocator@D@2@@std@@QEAA@QEBD@Z
_TEXT	SEGMENT
_Alproxy$ = 32
$S11$ = 52
_Proxy$ = 88
$T5 = 116
this$ = 144
_Ptr$ = 152
??0?$basic_string@DU?$char_traits@D@std@@V?$allocator@D@2@@std@@QEAA@QEBD@Z PROC ; std::basic_string<char,std::char_traits<char>,std::allocator<char> >::basic_string<char,std::char_traits<char>,std::allocator<char> >, COMDAT

; 2297 :     basic_string(_In_z_ const _Elem* const _Ptr) : _Mypair(_Zero_then_variadic_args_t()) {

$LN5:
  00000	48 89 54 24 10	 mov	 QWORD PTR [rsp+16], rdx
  00005	48 89 4c 24 08	 mov	 QWORD PTR [rsp+8], rcx
  0000a	57		 push	 rdi
  0000b	48 81 ec 80 00
	00 00		 sub	 rsp, 128		; 00000080H
  00012	48 8b fc	 mov	 rdi, rsp
  00015	b9 20 00 00 00	 mov	 ecx, 32			; 00000020H
  0001a	b8 cc cc cc cc	 mov	 eax, -858993460		; ccccccccH
  0001f	f3 ab		 rep stosd
  00021	48 8b 8c 24 90
	00 00 00	 mov	 rcx, QWORD PTR [rsp+144]
  00029	48 8b 84 24 90
	00 00 00	 mov	 rax, QWORD PTR this$[rsp]
  00031	0f b6 54 24 74	 movzx	 edx, BYTE PTR $T5[rsp]
  00036	48 8b c8	 mov	 rcx, rax
  00039	e8 00 00 00 00	 call	 ??$?0$$V@?$_Compressed_pair@V?$allocator@D@std@@V?$_String_val@U?$_Simple_types@D@std@@@2@$00@std@@QEAA@U_Zero_then_variadic_args_t@1@@Z ; std::_Compressed_pair<std::allocator<char>,std::_String_val<std::_Simple_types<char> >,1>::_Compressed_pair<std::allocator<char>,std::_String_val<std::_Simple_types<char> >,1><>
  0003e	90		 npad	 1

; 2298 :         // construct from [_Ptr, <null>)
; 2299 :         auto&& _Alproxy = _GET_PROXY_ALLOCATOR(_Alty, _Getal());

  0003f	48 8b 8c 24 90
	00 00 00	 mov	 rcx, QWORD PTR this$[rsp]
  00047	e8 00 00 00 00	 call	 ?_Getal@?$basic_string@DU?$char_traits@D@std@@V?$allocator@D@2@@std@@AEAAAEAV?$allocator@D@2@XZ ; std::basic_string<char,std::char_traits<char>,std::allocator<char> >::_Getal
  0004c	48 8b d0	 mov	 rdx, rax
  0004f	48 8d 4c 24 34	 lea	 rcx, QWORD PTR $S11$[rsp]
  00054	e8 00 00 00 00	 call	 ??$?0D@?$allocator@U_Container_proxy@std@@@std@@QEAA@AEBV?$allocator@D@1@@Z ; std::allocator<std::_Container_proxy>::allocator<std::_Container_proxy><char>
  00059	48 8d 44 24 34	 lea	 rax, QWORD PTR $S11$[rsp]
  0005e	48 89 44 24 20	 mov	 QWORD PTR _Alproxy$[rsp], rax

; 2300 :         _Container_proxy_ptr<_Alty> _Proxy(_Alproxy, _Mypair._Myval2);

  00063	48 8b 84 24 90
	00 00 00	 mov	 rax, QWORD PTR this$[rsp]
  0006b	4c 8b c0	 mov	 r8, rax
  0006e	48 8b 54 24 20	 mov	 rdx, QWORD PTR _Alproxy$[rsp]
  00073	48 8d 4c 24 58	 lea	 rcx, QWORD PTR _Proxy$[rsp]
  00078	e8 00 00 00 00	 call	 ??0?$_Container_proxy_ptr12@V?$allocator@U_Container_proxy@std@@@std@@@std@@QEAA@AEAV?$allocator@U_Container_proxy@std@@@1@AEAU_Container_base12@1@@Z ; std::_Container_proxy_ptr12<std::allocator<std::_Container_proxy> >::_Container_proxy_ptr12<std::allocator<std::_Container_proxy> >
  0007d	90		 npad	 1

; 2301 :         _Tidy_init();

  0007e	48 8b 8c 24 90
	00 00 00	 mov	 rcx, QWORD PTR this$[rsp]
  00086	e8 00 00 00 00	 call	 ?_Tidy_init@?$basic_string@DU?$char_traits@D@std@@V?$allocator@D@2@@std@@AEAAXXZ ; std::basic_string<char,std::char_traits<char>,std::allocator<char> >::_Tidy_init

; 2302 :         assign(_Ptr);

  0008b	48 8b 94 24 98
	00 00 00	 mov	 rdx, QWORD PTR _Ptr$[rsp]
  00093	48 8b 8c 24 90
	00 00 00	 mov	 rcx, QWORD PTR this$[rsp]
  0009b	e8 00 00 00 00	 call	 ?assign@?$basic_string@DU?$char_traits@D@std@@V?$allocator@D@2@@std@@QEAAAEAV12@QEBD@Z ; std::basic_string<char,std::char_traits<char>,std::allocator<char> >::assign

; 2303 :         _Proxy._Release();

  000a0	48 8d 4c 24 58	 lea	 rcx, QWORD PTR _Proxy$[rsp]
  000a5	e8 00 00 00 00	 call	 ?_Release@_Basic_container_proxy_ptr12@std@@QEAAXXZ ; std::_Basic_container_proxy_ptr12::_Release
  000aa	90		 npad	 1

; 2304 :     }

  000ab	48 8d 4c 24 58	 lea	 rcx, QWORD PTR _Proxy$[rsp]
  000b0	e8 00 00 00 00	 call	 ??1?$_Container_proxy_ptr12@V?$allocator@U_Container_proxy@std@@@std@@@std@@QEAA@XZ ; std::_Container_proxy_ptr12<std::allocator<std::_Container_proxy> >::~_Container_proxy_ptr12<std::allocator<std::_Container_proxy> >
  000b5	90		 npad	 1
  000b6	48 8b 84 24 90
	00 00 00	 mov	 rax, QWORD PTR this$[rsp]
  000be	48 8b f8	 mov	 rdi, rax
  000c1	48 8b cc	 mov	 rcx, rsp
  000c4	48 8d 15 00 00
	00 00		 lea	 rdx, OFFSET FLAT:??0?$basic_string@DU?$char_traits@D@std@@V?$allocator@D@2@@std@@QEAA@QEBD@Z$rtcFrameData
  000cb	e8 00 00 00 00	 call	 _RTC_CheckStackVars
  000d0	48 8b c7	 mov	 rax, rdi
  000d3	48 81 c4 80 00
	00 00		 add	 rsp, 128		; 00000080H
  000da	5f		 pop	 rdi
  000db	c3		 ret	 0
??0?$basic_string@DU?$char_traits@D@std@@V?$allocator@D@2@@std@@QEAA@QEBD@Z ENDP ; std::basic_string<char,std::char_traits<char>,std::allocator<char> >::basic_string<char,std::char_traits<char>,std::allocator<char> >
_TEXT	ENDS
;	COMDAT text$x
text$x	SEGMENT
_Alproxy$ = 32
$S11$ = 52
_Proxy$ = 88
$T5 = 116
this$ = 144
_Ptr$ = 152
?dtor$0@?0???0?$basic_string@DU?$char_traits@D@std@@V?$allocator@D@2@@std@@QEAA@QEBD@Z@4HA PROC ; `std::basic_string<char,std::char_traits<char>,std::allocator<char> >::basic_string<char,std::char_traits<char>,std::allocator<char> >'::`1'::dtor$0
  00000	48 89 4c 24 08	 mov	 QWORD PTR [rsp+8], rcx
  00005	48 89 54 24 10	 mov	 QWORD PTR [rsp+16], rdx
  0000a	55		 push	 rbp
  0000b	57		 push	 rdi
  0000c	48 83 ec 28	 sub	 rsp, 40			; 00000028H
  00010	48 8b ea	 mov	 rbp, rdx
  00013	48 8b 8d 90 00
	00 00		 mov	 rcx, QWORD PTR this$[rbp]
  0001a	e8 00 00 00 00	 call	 ??1?$_Compressed_pair@V?$allocator@D@std@@V?$_String_val@U?$_Simple_types@D@std@@@2@$00@std@@QEAA@XZ
  0001f	48 83 c4 28	 add	 rsp, 40			; 00000028H
  00023	5f		 pop	 rdi
  00024	5d		 pop	 rbp
  00025	c3		 ret	 0
?dtor$0@?0???0?$basic_string@DU?$char_traits@D@std@@V?$allocator@D@2@@std@@QEAA@QEBD@Z@4HA ENDP ; `std::basic_string<char,std::char_traits<char>,std::allocator<char> >::basic_string<char,std::char_traits<char>,std::allocator<char> >'::`1'::dtor$0
text$x	ENDS
;	COMDAT text$x
text$x	SEGMENT
_Alproxy$ = 32
$S11$ = 52
_Proxy$ = 88
$T5 = 116
this$ = 144
_Ptr$ = 152
?dtor$1@?0???0?$basic_string@DU?$char_traits@D@std@@V?$allocator@D@2@@std@@QEAA@QEBD@Z@4HA PROC ; `std::basic_string<char,std::char_traits<char>,std::allocator<char> >::basic_string<char,std::char_traits<char>,std::allocator<char> >'::`1'::dtor$1
  00000	48 89 4c 24 08	 mov	 QWORD PTR [rsp+8], rcx
  00005	48 89 54 24 10	 mov	 QWORD PTR [rsp+16], rdx
  0000a	55		 push	 rbp
  0000b	57		 push	 rdi
  0000c	48 83 ec 28	 sub	 rsp, 40			; 00000028H
  00010	48 8b ea	 mov	 rbp, rdx
  00013	48 8d 4d 58	 lea	 rcx, QWORD PTR _Proxy$[rbp]
  00017	e8 00 00 00 00	 call	 ??1?$_Container_proxy_ptr12@V?$allocator@U_Container_proxy@std@@@std@@@std@@QEAA@XZ ; std::_Container_proxy_ptr12<std::allocator<std::_Container_proxy> >::~_Container_proxy_ptr12<std::allocator<std::_Container_proxy> >
  0001c	48 83 c4 28	 add	 rsp, 40			; 00000028H
  00020	5f		 pop	 rdi
  00021	5d		 pop	 rbp
  00022	c3		 ret	 0
?dtor$1@?0???0?$basic_string@DU?$char_traits@D@std@@V?$allocator@D@2@@std@@QEAA@QEBD@Z@4HA ENDP ; `std::basic_string<char,std::char_traits<char>,std::allocator<char> >::basic_string<char,std::char_traits<char>,std::allocator<char> >'::`1'::dtor$1
text$x	ENDS
; Function compile flags: /Odtp /RTCsu
;	COMDAT text$x
text$x	SEGMENT
_Alproxy$ = 32
$S11$ = 52
_Proxy$ = 88
$T5 = 116
this$ = 144
_Ptr$ = 152
?dtor$0@?0???0?$basic_string@DU?$char_traits@D@std@@V?$allocator@D@2@@std@@QEAA@QEBD@Z@4HA PROC ; `std::basic_string<char,std::char_traits<char>,std::allocator<char> >::basic_string<char,std::char_traits<char>,std::allocator<char> >'::`1'::dtor$0
  00000	48 89 4c 24 08	 mov	 QWORD PTR [rsp+8], rcx
  00005	48 89 54 24 10	 mov	 QWORD PTR [rsp+16], rdx
  0000a	55		 push	 rbp
  0000b	57		 push	 rdi
  0000c	48 83 ec 28	 sub	 rsp, 40			; 00000028H
  00010	48 8b ea	 mov	 rbp, rdx
  00013	48 8b 8d 90 00
	00 00		 mov	 rcx, QWORD PTR this$[rbp]
  0001a	e8 00 00 00 00	 call	 ??1?$_Compressed_pair@V?$allocator@D@std@@V?$_String_val@U?$_Simple_types@D@std@@@2@$00@std@@QEAA@XZ
  0001f	48 83 c4 28	 add	 rsp, 40			; 00000028H
  00023	5f		 pop	 rdi
  00024	5d		 pop	 rbp
  00025	c3		 ret	 0
?dtor$0@?0???0?$basic_string@DU?$char_traits@D@std@@V?$allocator@D@2@@std@@QEAA@QEBD@Z@4HA ENDP ; `std::basic_string<char,std::char_traits<char>,std::allocator<char> >::basic_string<char,std::char_traits<char>,std::allocator<char> >'::`1'::dtor$0
text$x	ENDS
; Function compile flags: /Odtp /RTCsu
;	COMDAT text$x
text$x	SEGMENT
_Alproxy$ = 32
$S11$ = 52
_Proxy$ = 88
$T5 = 116
this$ = 144
_Ptr$ = 152
?dtor$1@?0???0?$basic_string@DU?$char_traits@D@std@@V?$allocator@D@2@@std@@QEAA@QEBD@Z@4HA PROC ; `std::basic_string<char,std::char_traits<char>,std::allocator<char> >::basic_string<char,std::char_traits<char>,std::allocator<char> >'::`1'::dtor$1
  00000	48 89 4c 24 08	 mov	 QWORD PTR [rsp+8], rcx
  00005	48 89 54 24 10	 mov	 QWORD PTR [rsp+16], rdx
  0000a	55		 push	 rbp
  0000b	57		 push	 rdi
  0000c	48 83 ec 28	 sub	 rsp, 40			; 00000028H
  00010	48 8b ea	 mov	 rbp, rdx
  00013	48 8d 4d 58	 lea	 rcx, QWORD PTR _Proxy$[rbp]
  00017	e8 00 00 00 00	 call	 ??1?$_Container_proxy_ptr12@V?$allocator@U_Container_proxy@std@@@std@@@std@@QEAA@XZ ; std::_Container_proxy_ptr12<std::allocator<std::_Container_proxy> >::~_Container_proxy_ptr12<std::allocator<std::_Container_proxy> >
  0001c	48 83 c4 28	 add	 rsp, 40			; 00000028H
  00020	5f		 pop	 rdi
  00021	5d		 pop	 rbp
  00022	c3		 ret	 0
?dtor$1@?0???0?$basic_string@DU?$char_traits@D@std@@V?$allocator@D@2@@std@@QEAA@QEBD@Z@4HA ENDP ; `std::basic_string<char,std::char_traits<char>,std::allocator<char> >::basic_string<char,std::char_traits<char>,std::allocator<char> >'::`1'::dtor$1
text$x	ENDS
; Function compile flags: /Odtp /RTCsu
; File C:\Program Files (x86)\Microsoft Visual Studio\2019\Community\VC\Tools\MSVC\14.23.28105\include\xstring
;	COMDAT ??0?$basic_string@DU?$char_traits@D@std@@V?$allocator@D@2@@std@@QEAA@XZ
_TEXT	SEGMENT
$T1 = 32
$T2 = 33
this$ = 64
??0?$basic_string@DU?$char_traits@D@std@@V?$allocator@D@2@@std@@QEAA@XZ PROC ; std::basic_string<char,std::char_traits<char>,std::allocator<char> >::basic_string<char,std::char_traits<char>,std::allocator<char> >, COMDAT

; 2247 :     basic_string() _NOEXCEPT_COND(is_nothrow_default_constructible_v<_Alty>) : _Mypair(_Zero_then_variadic_args_t()) {

$LN4:
  00000	48 89 4c 24 08	 mov	 QWORD PTR [rsp+8], rcx
  00005	57		 push	 rdi
  00006	48 83 ec 30	 sub	 rsp, 48			; 00000030H
  0000a	48 8b fc	 mov	 rdi, rsp
  0000d	b9 0c 00 00 00	 mov	 ecx, 12
  00012	b8 cc cc cc cc	 mov	 eax, -858993460		; ccccccccH
  00017	f3 ab		 rep stosd
  00019	48 8b 4c 24 40	 mov	 rcx, QWORD PTR [rsp+64]
  0001e	48 8b 44 24 40	 mov	 rax, QWORD PTR this$[rsp]
  00023	0f b6 54 24 20	 movzx	 edx, BYTE PTR $T1[rsp]
  00028	48 8b c8	 mov	 rcx, rax
  0002b	e8 00 00 00 00	 call	 ??$?0$$V@?$_Compressed_pair@V?$allocator@D@std@@V?$_String_val@U?$_Simple_types@D@std@@@2@$00@std@@QEAA@U_Zero_then_variadic_args_t@1@@Z ; std::_Compressed_pair<std::allocator<char>,std::_String_val<std::_Simple_types<char> >,1>::_Compressed_pair<std::allocator<char>,std::_String_val<std::_Simple_types<char> >,1><>
  00030	90		 npad	 1

; 2248 :         // construct empty string
; 2249 :         _Mypair._Myval2._Alloc_proxy(_GET_PROXY_ALLOCATOR(_Alty, _Getal()));

  00031	48 8b 4c 24 40	 mov	 rcx, QWORD PTR this$[rsp]
  00036	e8 00 00 00 00	 call	 ?_Getal@?$basic_string@DU?$char_traits@D@std@@V?$allocator@D@2@@std@@AEAAAEAV?$allocator@D@2@XZ ; std::basic_string<char,std::char_traits<char>,std::allocator<char> >::_Getal
  0003b	90		 npad	 1
  0003c	48 8b d0	 mov	 rdx, rax
  0003f	48 8d 4c 24 21	 lea	 rcx, QWORD PTR $T2[rsp]
  00044	e8 00 00 00 00	 call	 ??$?0D@?$allocator@U_Container_proxy@std@@@std@@QEAA@AEBV?$allocator@D@1@@Z ; std::allocator<std::_Container_proxy>::allocator<std::_Container_proxy><char>
  00049	90		 npad	 1
  0004a	48 8b 4c 24 40	 mov	 rcx, QWORD PTR this$[rsp]
  0004f	48 8b d0	 mov	 rdx, rax
  00052	e8 00 00 00 00	 call	 ??$_Alloc_proxy@V?$allocator@U_Container_proxy@std@@@std@@@_Container_base12@std@@QEAAX$$QEAV?$allocator@U_Container_proxy@std@@@1@@Z ; std::_Container_base12::_Alloc_proxy<std::allocator<std::_Container_proxy> >
  00057	90		 npad	 1

; 2250 :         _Tidy_init();

  00058	48 8b 4c 24 40	 mov	 rcx, QWORD PTR this$[rsp]
  0005d	e8 00 00 00 00	 call	 ?_Tidy_init@?$basic_string@DU?$char_traits@D@std@@V?$allocator@D@2@@std@@AEAAXXZ ; std::basic_string<char,std::char_traits<char>,std::allocator<char> >::_Tidy_init
  00062	90		 npad	 1

; 2251 :     }

  00063	48 8b 44 24 40	 mov	 rax, QWORD PTR this$[rsp]
  00068	48 83 c4 30	 add	 rsp, 48			; 00000030H
  0006c	5f		 pop	 rdi
  0006d	c3		 ret	 0
??0?$basic_string@DU?$char_traits@D@std@@V?$allocator@D@2@@std@@QEAA@XZ ENDP ; std::basic_string<char,std::char_traits<char>,std::allocator<char> >::basic_string<char,std::char_traits<char>,std::allocator<char> >
_TEXT	ENDS
;	COMDAT text$x
text$x	SEGMENT
$T1 = 32
$T2 = 33
this$ = 64
?dtor$0@?0???0?$basic_string@DU?$char_traits@D@std@@V?$allocator@D@2@@std@@QEAA@XZ@4HA PROC ; `std::basic_string<char,std::char_traits<char>,std::allocator<char> >::basic_string<char,std::char_traits<char>,std::allocator<char> >'::`1'::dtor$0
  00000	48 89 4c 24 08	 mov	 QWORD PTR [rsp+8], rcx
  00005	48 89 54 24 10	 mov	 QWORD PTR [rsp+16], rdx
  0000a	55		 push	 rbp
  0000b	57		 push	 rdi
  0000c	48 83 ec 28	 sub	 rsp, 40			; 00000028H
  00010	48 8b ea	 mov	 rbp, rdx
  00013	48 8b 4d 40	 mov	 rcx, QWORD PTR this$[rbp]
  00017	e8 00 00 00 00	 call	 ??1?$_Compressed_pair@V?$allocator@D@std@@V?$_String_val@U?$_Simple_types@D@std@@@2@$00@std@@QEAA@XZ
  0001c	48 83 c4 28	 add	 rsp, 40			; 00000028H
  00020	5f		 pop	 rdi
  00021	5d		 pop	 rbp
  00022	c3		 ret	 0
?dtor$0@?0???0?$basic_string@DU?$char_traits@D@std@@V?$allocator@D@2@@std@@QEAA@XZ@4HA ENDP ; `std::basic_string<char,std::char_traits<char>,std::allocator<char> >::basic_string<char,std::char_traits<char>,std::allocator<char> >'::`1'::dtor$0
text$x	ENDS
; Function compile flags: /Odtp /RTCsu
;	COMDAT text$x
text$x	SEGMENT
$T1 = 32
$T2 = 33
this$ = 64
?dtor$0@?0???0?$basic_string@DU?$char_traits@D@std@@V?$allocator@D@2@@std@@QEAA@XZ@4HA PROC ; `std::basic_string<char,std::char_traits<char>,std::allocator<char> >::basic_string<char,std::char_traits<char>,std::allocator<char> >'::`1'::dtor$0
  00000	48 89 4c 24 08	 mov	 QWORD PTR [rsp+8], rcx
  00005	48 89 54 24 10	 mov	 QWORD PTR [rsp+16], rdx
  0000a	55		 push	 rbp
  0000b	57		 push	 rdi
  0000c	48 83 ec 28	 sub	 rsp, 40			; 00000028H
  00010	48 8b ea	 mov	 rbp, rdx
  00013	48 8b 4d 40	 mov	 rcx, QWORD PTR this$[rbp]
  00017	e8 00 00 00 00	 call	 ??1?$_Compressed_pair@V?$allocator@D@std@@V?$_String_val@U?$_Simple_types@D@std@@@2@$00@std@@QEAA@XZ
  0001c	48 83 c4 28	 add	 rsp, 40			; 00000028H
  00020	5f		 pop	 rdi
  00021	5d		 pop	 rbp
  00022	c3		 ret	 0
?dtor$0@?0???0?$basic_string@DU?$char_traits@D@std@@V?$allocator@D@2@@std@@QEAA@XZ@4HA ENDP ; `std::basic_string<char,std::char_traits<char>,std::allocator<char> >::basic_string<char,std::char_traits<char>,std::allocator<char> >'::`1'::dtor$0
text$x	ENDS
; Function compile flags: /Odtp /RTCsu
;	COMDAT ??1?$_String_val@U?$_Simple_types@D@std@@@std@@QEAA@XZ
_TEXT	SEGMENT
this$ = 48
??1?$_String_val@U?$_Simple_types@D@std@@@std@@QEAA@XZ PROC ; std::_String_val<std::_Simple_types<char> >::~_String_val<std::_Simple_types<char> >, COMDAT
$LN4:
  00000	48 89 4c 24 08	 mov	 QWORD PTR [rsp+8], rcx
  00005	57		 push	 rdi
  00006	48 83 ec 20	 sub	 rsp, 32			; 00000020H
  0000a	48 8b fc	 mov	 rdi, rsp
  0000d	b9 08 00 00 00	 mov	 ecx, 8
  00012	b8 cc cc cc cc	 mov	 eax, -858993460		; ccccccccH
  00017	f3 ab		 rep stosd
  00019	48 8b 4c 24 30	 mov	 rcx, QWORD PTR [rsp+48]
  0001e	48 8b 44 24 30	 mov	 rax, QWORD PTR this$[rsp]
  00023	48 83 c0 08	 add	 rax, 8
  00027	48 8b c8	 mov	 rcx, rax
  0002a	e8 00 00 00 00	 call	 ??1_Bxty@?$_String_val@U?$_Simple_types@D@std@@@std@@QEAA@XZ ; std::_String_val<std::_Simple_types<char> >::_Bxty::~_Bxty
  0002f	90		 npad	 1
  00030	48 83 c4 20	 add	 rsp, 32			; 00000020H
  00034	5f		 pop	 rdi
  00035	c3		 ret	 0
??1?$_String_val@U?$_Simple_types@D@std@@@std@@QEAA@XZ ENDP ; std::_String_val<std::_Simple_types<char> >::~_String_val<std::_Simple_types<char> >
_TEXT	ENDS
;	COMDAT text$x
text$x	SEGMENT
this$ = 48
?dtor$0@?0???1?$_String_val@U?$_Simple_types@D@std@@@std@@QEAA@XZ@4HA PROC ; `std::_String_val<std::_Simple_types<char> >::~_String_val<std::_Simple_types<char> >'::`1'::dtor$0
  00000	48 89 4c 24 08	 mov	 QWORD PTR [rsp+8], rcx
  00005	48 89 54 24 10	 mov	 QWORD PTR [rsp+16], rdx
  0000a	55		 push	 rbp
  0000b	57		 push	 rdi
  0000c	48 83 ec 28	 sub	 rsp, 40			; 00000028H
  00010	48 8b ea	 mov	 rbp, rdx
  00013	48 8b 4d 30	 mov	 rcx, QWORD PTR this$[rbp]
  00017	48 83 c1 08	 add	 rcx, 8
  0001b	e8 00 00 00 00	 call	 ??1_Bxty@?$_String_val@U?$_Simple_types@D@std@@@std@@QEAA@XZ ; std::_String_val<std::_Simple_types<char> >::_Bxty::~_Bxty
  00020	48 83 c4 28	 add	 rsp, 40			; 00000028H
  00024	5f		 pop	 rdi
  00025	5d		 pop	 rbp
  00026	c3		 ret	 0
?dtor$0@?0???1?$_String_val@U?$_Simple_types@D@std@@@std@@QEAA@XZ@4HA ENDP ; `std::_String_val<std::_Simple_types<char> >::~_String_val<std::_Simple_types<char> >'::`1'::dtor$0
text$x	ENDS
; Function compile flags: /Odtp /RTCsu
;	COMDAT text$x
text$x	SEGMENT
this$ = 48
?dtor$0@?0???1?$_String_val@U?$_Simple_types@D@std@@@std@@QEAA@XZ@4HA PROC ; `std::_String_val<std::_Simple_types<char> >::~_String_val<std::_Simple_types<char> >'::`1'::dtor$0
  00000	48 89 4c 24 08	 mov	 QWORD PTR [rsp+8], rcx
  00005	48 89 54 24 10	 mov	 QWORD PTR [rsp+16], rdx
  0000a	55		 push	 rbp
  0000b	57		 push	 rdi
  0000c	48 83 ec 28	 sub	 rsp, 40			; 00000028H
  00010	48 8b ea	 mov	 rbp, rdx
  00013	48 8b 4d 30	 mov	 rcx, QWORD PTR this$[rbp]
  00017	48 83 c1 08	 add	 rcx, 8
  0001b	e8 00 00 00 00	 call	 ??1_Bxty@?$_String_val@U?$_Simple_types@D@std@@@std@@QEAA@XZ ; std::_String_val<std::_Simple_types<char> >::_Bxty::~_Bxty
  00020	48 83 c4 28	 add	 rsp, 40			; 00000028H
  00024	5f		 pop	 rdi
  00025	5d		 pop	 rbp
  00026	c3		 ret	 0
?dtor$0@?0???1?$_String_val@U?$_Simple_types@D@std@@@std@@QEAA@XZ@4HA ENDP ; `std::_String_val<std::_Simple_types<char> >::~_String_val<std::_Simple_types<char> >'::`1'::dtor$0
text$x	ENDS
; Function compile flags: /Odtp /RTCsu
; File C:\Program Files (x86)\Microsoft Visual Studio\2019\Community\VC\Tools\MSVC\14.23.28105\include\xstring
;	COMDAT ??1_Bxty@?$_String_val@U?$_Simple_types@D@std@@@std@@QEAA@XZ
_TEXT	SEGMENT
this$ = 16
??1_Bxty@?$_String_val@U?$_Simple_types@D@std@@@std@@QEAA@XZ PROC ; std::_String_val<std::_Simple_types<char> >::_Bxty::~_Bxty, COMDAT

; 2148 :         ~_Bxty() noexcept {} // user-provided, for fancy pointers

$LN3:
  00000	48 89 4c 24 08	 mov	 QWORD PTR [rsp+8], rcx
  00005	57		 push	 rdi
  00006	5f		 pop	 rdi
  00007	c3		 ret	 0
??1_Bxty@?$_String_val@U?$_Simple_types@D@std@@@std@@QEAA@XZ ENDP ; std::_String_val<std::_Simple_types<char> >::_Bxty::~_Bxty
_TEXT	ENDS
; Function compile flags: /Odtp /RTCsu
; File C:\Program Files (x86)\Microsoft Visual Studio\2019\Community\VC\Tools\MSVC\14.23.28105\include\xstring
;	COMDAT ??0_Bxty@?$_String_val@U?$_Simple_types@D@std@@@std@@QEAA@XZ
_TEXT	SEGMENT
this$ = 16
??0_Bxty@?$_String_val@U?$_Simple_types@D@std@@@std@@QEAA@XZ PROC ; std::_String_val<std::_Simple_types<char> >::_Bxty::_Bxty, COMDAT

; 2146 :         _Bxty() {} // user-provided, for fancy pointers

$LN3:
  00000	48 89 4c 24 08	 mov	 QWORD PTR [rsp+8], rcx
  00005	57		 push	 rdi
  00006	48 8b 44 24 10	 mov	 rax, QWORD PTR this$[rsp]
  0000b	5f		 pop	 rdi
  0000c	c3		 ret	 0
??0_Bxty@?$_String_val@U?$_Simple_types@D@std@@@std@@QEAA@XZ ENDP ; std::_String_val<std::_Simple_types<char> >::_Bxty::_Bxty
_TEXT	ENDS
; Function compile flags: /Odtp /RTCsu
; File C:\Program Files (x86)\Microsoft Visual Studio\2019\Community\VC\Tools\MSVC\14.23.28105\include\xstring
;	COMDAT ?_Large_string_engaged@?$_String_val@U?$_Simple_types@D@std@@@std@@QEBA_NXZ
_TEXT	SEGMENT
tv66 = 0
this$ = 32
?_Large_string_engaged@?$_String_val@U?$_Simple_types@D@std@@@std@@QEBA_NXZ PROC ; std::_String_val<std::_Simple_types<char> >::_Large_string_engaged, COMDAT

; 2120 :     bool _Large_string_engaged() const { // returns whether the large string mode (allocated memory) is engaged

$LN5:
  00000	48 89 4c 24 08	 mov	 QWORD PTR [rsp+8], rcx
  00005	57		 push	 rdi
  00006	48 83 ec 10	 sub	 rsp, 16
  0000a	48 8b fc	 mov	 rdi, rsp
  0000d	b9 04 00 00 00	 mov	 ecx, 4
  00012	b8 cc cc cc cc	 mov	 eax, -858993460		; ccccccccH
  00017	f3 ab		 rep stosd
  00019	48 8b 4c 24 20	 mov	 rcx, QWORD PTR [rsp+32]

; 2121 :         return _BUF_SIZE <= _Myres;

  0001e	48 8b 44 24 20	 mov	 rax, QWORD PTR this$[rsp]
  00023	48 83 78 20 10	 cmp	 QWORD PTR [rax+32], 16
  00028	72 09		 jb	 SHORT $LN3@Large_stri
  0002a	c7 04 24 01 00
	00 00		 mov	 DWORD PTR tv66[rsp], 1
  00031	eb 07		 jmp	 SHORT $LN4@Large_stri
$LN3@Large_stri:
  00033	c7 04 24 00 00
	00 00		 mov	 DWORD PTR tv66[rsp], 0
$LN4@Large_stri:
  0003a	0f b6 04 24	 movzx	 eax, BYTE PTR tv66[rsp]

; 2122 :     }

  0003e	48 83 c4 10	 add	 rsp, 16
  00042	5f		 pop	 rdi
  00043	c3		 ret	 0
?_Large_string_engaged@?$_String_val@U?$_Simple_types@D@std@@@std@@QEBA_NXZ ENDP ; std::_String_val<std::_Simple_types<char> >::_Large_string_engaged
_TEXT	ENDS
; Function compile flags: /Odtp /RTCsu
; File C:\Program Files (x86)\Microsoft Visual Studio\2019\Community\VC\Tools\MSVC\14.23.28105\include\xstring
;	COMDAT ?_Myptr@?$_String_val@U?$_Simple_types@D@std@@@std@@QEBAPEBDXZ
_TEXT	SEGMENT
_Result$ = 32
this$ = 64
?_Myptr@?$_String_val@U?$_Simple_types@D@std@@@std@@QEBAPEBDXZ PROC ; std::_String_val<std::_Simple_types<char> >::_Myptr, COMDAT

; 2111 :     const value_type* _Myptr() const { // determine current pointer to buffer for immutable string

$LN4:
  00000	48 89 4c 24 08	 mov	 QWORD PTR [rsp+8], rcx
  00005	57		 push	 rdi
  00006	48 83 ec 30	 sub	 rsp, 48			; 00000030H
  0000a	48 8b fc	 mov	 rdi, rsp
  0000d	b9 0c 00 00 00	 mov	 ecx, 12
  00012	b8 cc cc cc cc	 mov	 eax, -858993460		; ccccccccH
  00017	f3 ab		 rep stosd
  00019	48 8b 4c 24 40	 mov	 rcx, QWORD PTR [rsp+64]

; 2112 :         const value_type* _Result = _Bx._Buf;

  0001e	48 8b 44 24 40	 mov	 rax, QWORD PTR this$[rsp]
  00023	48 83 c0 08	 add	 rax, 8
  00027	48 89 44 24 20	 mov	 QWORD PTR _Result$[rsp], rax

; 2113 :         if (_Large_string_engaged()) {

  0002c	48 8b 4c 24 40	 mov	 rcx, QWORD PTR this$[rsp]
  00031	e8 00 00 00 00	 call	 ?_Large_string_engaged@?$_String_val@U?$_Simple_types@D@std@@@std@@QEBA_NXZ ; std::_String_val<std::_Simple_types<char> >::_Large_string_engaged
  00036	0f b6 c0	 movzx	 eax, al
  00039	85 c0		 test	 eax, eax
  0003b	74 13		 je	 SHORT $LN2@Myptr

; 2114 :             _Result = _Unfancy(_Bx._Ptr);

  0003d	48 8b 44 24 40	 mov	 rax, QWORD PTR this$[rsp]
  00042	48 8b 48 08	 mov	 rcx, QWORD PTR [rax+8]
  00046	e8 00 00 00 00	 call	 ??$_Unfancy@D@std@@YAPEADPEAD@Z ; std::_Unfancy<char>
  0004b	48 89 44 24 20	 mov	 QWORD PTR _Result$[rsp], rax
$LN2@Myptr:

; 2115 :         }
; 2116 : 
; 2117 :         return _Result;

  00050	48 8b 44 24 20	 mov	 rax, QWORD PTR _Result$[rsp]

; 2118 :     }

  00055	48 83 c4 30	 add	 rsp, 48			; 00000030H
  00059	5f		 pop	 rdi
  0005a	c3		 ret	 0
?_Myptr@?$_String_val@U?$_Simple_types@D@std@@@std@@QEBAPEBDXZ ENDP ; std::_String_val<std::_Simple_types<char> >::_Myptr
_TEXT	ENDS
; Function compile flags: /Odtp /RTCsu
; File C:\Program Files (x86)\Microsoft Visual Studio\2019\Community\VC\Tools\MSVC\14.23.28105\include\xstring
;	COMDAT ?_Myptr@?$_String_val@U?$_Simple_types@D@std@@@std@@QEAAPEADXZ
_TEXT	SEGMENT
_Result$ = 32
this$ = 64
?_Myptr@?$_String_val@U?$_Simple_types@D@std@@@std@@QEAAPEADXZ PROC ; std::_String_val<std::_Simple_types<char> >::_Myptr, COMDAT

; 2102 :     value_type* _Myptr() { // determine current pointer to buffer for mutable string

$LN4:
  00000	48 89 4c 24 08	 mov	 QWORD PTR [rsp+8], rcx
  00005	57		 push	 rdi
  00006	48 83 ec 30	 sub	 rsp, 48			; 00000030H
  0000a	48 8b fc	 mov	 rdi, rsp
  0000d	b9 0c 00 00 00	 mov	 ecx, 12
  00012	b8 cc cc cc cc	 mov	 eax, -858993460		; ccccccccH
  00017	f3 ab		 rep stosd
  00019	48 8b 4c 24 40	 mov	 rcx, QWORD PTR [rsp+64]

; 2103 :         value_type* _Result = _Bx._Buf;

  0001e	48 8b 44 24 40	 mov	 rax, QWORD PTR this$[rsp]
  00023	48 83 c0 08	 add	 rax, 8
  00027	48 89 44 24 20	 mov	 QWORD PTR _Result$[rsp], rax

; 2104 :         if (_Large_string_engaged()) {

  0002c	48 8b 4c 24 40	 mov	 rcx, QWORD PTR this$[rsp]
  00031	e8 00 00 00 00	 call	 ?_Large_string_engaged@?$_String_val@U?$_Simple_types@D@std@@@std@@QEBA_NXZ ; std::_String_val<std::_Simple_types<char> >::_Large_string_engaged
  00036	0f b6 c0	 movzx	 eax, al
  00039	85 c0		 test	 eax, eax
  0003b	74 13		 je	 SHORT $LN2@Myptr

; 2105 :             _Result = _Unfancy(_Bx._Ptr);

  0003d	48 8b 44 24 40	 mov	 rax, QWORD PTR this$[rsp]
  00042	48 8b 48 08	 mov	 rcx, QWORD PTR [rax+8]
  00046	e8 00 00 00 00	 call	 ??$_Unfancy@D@std@@YAPEADPEAD@Z ; std::_Unfancy<char>
  0004b	48 89 44 24 20	 mov	 QWORD PTR _Result$[rsp], rax
$LN2@Myptr:

; 2106 :         }
; 2107 : 
; 2108 :         return _Result;

  00050	48 8b 44 24 20	 mov	 rax, QWORD PTR _Result$[rsp]

; 2109 :     }

  00055	48 83 c4 30	 add	 rsp, 48			; 00000030H
  00059	5f		 pop	 rdi
  0005a	c3		 ret	 0
?_Myptr@?$_String_val@U?$_Simple_types@D@std@@@std@@QEAAPEADXZ ENDP ; std::_String_val<std::_Simple_types<char> >::_Myptr
_TEXT	ENDS
; Function compile flags: /Odtp /RTCsu
; File C:\Program Files (x86)\Microsoft Visual Studio\2019\Community\VC\Tools\MSVC\14.23.28105\include\xstring
;	COMDAT ??0?$_String_val@U?$_Simple_types@D@std@@@std@@QEAA@XZ
_TEXT	SEGMENT
this$ = 48
??0?$_String_val@U?$_Simple_types@D@std@@@std@@QEAA@XZ PROC ; std::_String_val<std::_Simple_types<char> >::_String_val<std::_Simple_types<char> >, COMDAT

; 2092 :     _String_val() : _Bx(), _Mysize(0), _Myres(0) {}

$LN4:
  00000	48 89 4c 24 08	 mov	 QWORD PTR [rsp+8], rcx
  00005	57		 push	 rdi
  00006	48 83 ec 20	 sub	 rsp, 32			; 00000020H
  0000a	48 8b fc	 mov	 rdi, rsp
  0000d	b9 08 00 00 00	 mov	 ecx, 8
  00012	b8 cc cc cc cc	 mov	 eax, -858993460		; ccccccccH
  00017	f3 ab		 rep stosd
  00019	48 8b 4c 24 30	 mov	 rcx, QWORD PTR [rsp+48]
  0001e	48 8b 4c 24 30	 mov	 rcx, QWORD PTR this$[rsp]
  00023	e8 00 00 00 00	 call	 ??0_Container_base12@std@@QEAA@XZ ; std::_Container_base12::_Container_base12
  00028	48 8b 44 24 30	 mov	 rax, QWORD PTR this$[rsp]
  0002d	48 83 c0 08	 add	 rax, 8
  00031	48 8b c8	 mov	 rcx, rax
  00034	e8 00 00 00 00	 call	 ??0_Bxty@?$_String_val@U?$_Simple_types@D@std@@@std@@QEAA@XZ ; std::_String_val<std::_Simple_types<char> >::_Bxty::_Bxty
  00039	90		 npad	 1
  0003a	48 8b 44 24 30	 mov	 rax, QWORD PTR this$[rsp]
  0003f	48 c7 40 18 00
	00 00 00	 mov	 QWORD PTR [rax+24], 0
  00047	48 8b 44 24 30	 mov	 rax, QWORD PTR this$[rsp]
  0004c	48 c7 40 20 00
	00 00 00	 mov	 QWORD PTR [rax+32], 0
  00054	48 8b 44 24 30	 mov	 rax, QWORD PTR this$[rsp]
  00059	48 83 c4 20	 add	 rsp, 32			; 00000020H
  0005d	5f		 pop	 rdi
  0005e	c3		 ret	 0
??0?$_String_val@U?$_Simple_types@D@std@@@std@@QEAA@XZ ENDP ; std::_String_val<std::_Simple_types<char> >::_String_val<std::_Simple_types<char> >
_TEXT	ENDS
;	COMDAT text$x
text$x	SEGMENT
this$ = 48
?dtor$0@?0???0?$_String_val@U?$_Simple_types@D@std@@@std@@QEAA@XZ@4HA PROC ; `std::_String_val<std::_Simple_types<char> >::_String_val<std::_Simple_types<char> >'::`1'::dtor$0
  00000	48 89 4c 24 08	 mov	 QWORD PTR [rsp+8], rcx
  00005	48 89 54 24 10	 mov	 QWORD PTR [rsp+16], rdx
  0000a	55		 push	 rbp
  0000b	57		 push	 rdi
  0000c	48 83 ec 28	 sub	 rsp, 40			; 00000028H
  00010	48 8b ea	 mov	 rbp, rdx
  00013	48 8b 4d 30	 mov	 rcx, QWORD PTR this$[rbp]
  00017	48 83 c1 08	 add	 rcx, 8
  0001b	e8 00 00 00 00	 call	 ??1_Bxty@?$_String_val@U?$_Simple_types@D@std@@@std@@QEAA@XZ ; std::_String_val<std::_Simple_types<char> >::_Bxty::~_Bxty
  00020	48 83 c4 28	 add	 rsp, 40			; 00000028H
  00024	5f		 pop	 rdi
  00025	5d		 pop	 rbp
  00026	c3		 ret	 0
?dtor$0@?0???0?$_String_val@U?$_Simple_types@D@std@@@std@@QEAA@XZ@4HA ENDP ; `std::_String_val<std::_Simple_types<char> >::_String_val<std::_Simple_types<char> >'::`1'::dtor$0
text$x	ENDS
; Function compile flags: /Odtp /RTCsu
;	COMDAT text$x
text$x	SEGMENT
this$ = 48
?dtor$0@?0???0?$_String_val@U?$_Simple_types@D@std@@@std@@QEAA@XZ@4HA PROC ; `std::_String_val<std::_Simple_types<char> >::_String_val<std::_Simple_types<char> >'::`1'::dtor$0
  00000	48 89 4c 24 08	 mov	 QWORD PTR [rsp+8], rcx
  00005	48 89 54 24 10	 mov	 QWORD PTR [rsp+16], rdx
  0000a	55		 push	 rbp
  0000b	57		 push	 rdi
  0000c	48 83 ec 28	 sub	 rsp, 40			; 00000028H
  00010	48 8b ea	 mov	 rbp, rdx
  00013	48 8b 4d 30	 mov	 rcx, QWORD PTR this$[rbp]
  00017	48 83 c1 08	 add	 rcx, 8
  0001b	e8 00 00 00 00	 call	 ??1_Bxty@?$_String_val@U?$_Simple_types@D@std@@@std@@QEAA@XZ ; std::_String_val<std::_Simple_types<char> >::_Bxty::~_Bxty
  00020	48 83 c4 28	 add	 rsp, 40			; 00000028H
  00024	5f		 pop	 rdi
  00025	5d		 pop	 rbp
  00026	c3		 ret	 0
?dtor$0@?0???0?$_String_val@U?$_Simple_types@D@std@@@std@@QEAA@XZ@4HA ENDP ; `std::_String_val<std::_Simple_types<char> >::_String_val<std::_Simple_types<char> >'::`1'::dtor$0
text$x	ENDS
; Function compile flags: /Odtp /RTCsu
; File C:\Program Files (x86)\Microsoft Visual Studio\2019\Community\VC\Tools\MSVC\14.23.28105\include\xmemory
;	COMDAT ?max_size@?$_Default_allocator_traits@V?$allocator@D@std@@@std@@SA_KAEBV?$allocator@D@2@@Z
_TEXT	SEGMENT
__formal$ = 16
?max_size@?$_Default_allocator_traits@V?$allocator@D@std@@@std@@SA_KAEBV?$allocator@D@2@@Z PROC ; std::_Default_allocator_traits<std::allocator<char> >::max_size, COMDAT

; 766  :     _NODISCARD static size_type max_size(const _Alloc&) noexcept {

$LN3:
  00000	48 89 4c 24 08	 mov	 QWORD PTR [rsp+8], rcx
  00005	57		 push	 rdi

; 767  :         return static_cast<size_t>(-1) / sizeof(value_type);

  00006	48 c7 c0 ff ff
	ff ff		 mov	 rax, -1

; 768  :     }

  0000d	5f		 pop	 rdi
  0000e	c3		 ret	 0
?max_size@?$_Default_allocator_traits@V?$allocator@D@std@@@std@@SA_KAEBV?$allocator@D@2@@Z ENDP ; std::_Default_allocator_traits<std::allocator<char> >::max_size
_TEXT	ENDS
; Function compile flags: /Odtp /RTCsu
; File C:\Program Files (x86)\Microsoft Visual Studio\2019\Community\VC\Tools\MSVC\14.23.28105\include\xmemory
;	COMDAT ?allocate@?$allocator@D@std@@QEAAPEAD_K@Z
_TEXT	SEGMENT
this$ = 48
_Count$ = 56
?allocate@?$allocator@D@std@@QEAAPEAD_K@Z PROC		; std::allocator<char>::allocate, COMDAT

; 870  :     _NODISCARD _DECLSPEC_ALLOCATOR _Ty* allocate(_CRT_GUARDOVERFLOW const size_t _Count) {

$LN3:
  00000	48 89 54 24 10	 mov	 QWORD PTR [rsp+16], rdx
  00005	48 89 4c 24 08	 mov	 QWORD PTR [rsp+8], rcx
  0000a	57		 push	 rdi
  0000b	48 83 ec 20	 sub	 rsp, 32			; 00000020H
  0000f	48 8b fc	 mov	 rdi, rsp
  00012	b9 08 00 00 00	 mov	 ecx, 8
  00017	b8 cc cc cc cc	 mov	 eax, -858993460		; ccccccccH
  0001c	f3 ab		 rep stosd
  0001e	48 8b 4c 24 30	 mov	 rcx, QWORD PTR [rsp+48]

; 871  :         return static_cast<_Ty*>(_Allocate<_New_alignof<_Ty>>(_Get_size_of_n<sizeof(_Ty)>(_Count)));

  00023	48 8b 4c 24 38	 mov	 rcx, QWORD PTR _Count$[rsp]
  00028	e8 00 00 00 00	 call	 ??$_Get_size_of_n@$00@std@@YA_K_K@Z ; std::_Get_size_of_n<1>
  0002d	48 8b c8	 mov	 rcx, rax
  00030	e8 00 00 00 00	 call	 ??$_Allocate@$0BA@U_Default_allocate_traits@std@@$0A@@std@@YAPEAX_K@Z ; std::_Allocate<16,std::_Default_allocate_traits,0>

; 872  :     }

  00035	48 83 c4 20	 add	 rsp, 32			; 00000020H
  00039	5f		 pop	 rdi
  0003a	c3		 ret	 0
?allocate@?$allocator@D@std@@QEAAPEAD_K@Z ENDP		; std::allocator<char>::allocate
_TEXT	ENDS
; Function compile flags: /Odtp /RTCsu
; File C:\Program Files (x86)\Microsoft Visual Studio\2019\Community\VC\Tools\MSVC\14.23.28105\include\xmemory
;	COMDAT ?deallocate@?$allocator@D@std@@QEAAXQEAD_K@Z
_TEXT	SEGMENT
this$ = 48
_Ptr$ = 56
_Count$ = 64
?deallocate@?$allocator@D@std@@QEAAXQEAD_K@Z PROC	; std::allocator<char>::deallocate, COMDAT

; 865  :     void deallocate(_Ty* const _Ptr, const size_t _Count) {

$LN3:
  00000	4c 89 44 24 18	 mov	 QWORD PTR [rsp+24], r8
  00005	48 89 54 24 10	 mov	 QWORD PTR [rsp+16], rdx
  0000a	48 89 4c 24 08	 mov	 QWORD PTR [rsp+8], rcx
  0000f	57		 push	 rdi
  00010	48 83 ec 20	 sub	 rsp, 32			; 00000020H
  00014	48 8b fc	 mov	 rdi, rsp
  00017	b9 08 00 00 00	 mov	 ecx, 8
  0001c	b8 cc cc cc cc	 mov	 eax, -858993460		; ccccccccH
  00021	f3 ab		 rep stosd
  00023	48 8b 4c 24 30	 mov	 rcx, QWORD PTR [rsp+48]

; 866  :         // no overflow check on the following multiply; we assume _Allocate did that check
; 867  :         _Deallocate<_New_alignof<_Ty>>(_Ptr, sizeof(_Ty) * _Count);

  00028	48 8b 54 24 40	 mov	 rdx, QWORD PTR _Count$[rsp]
  0002d	48 8b 4c 24 38	 mov	 rcx, QWORD PTR _Ptr$[rsp]
  00032	e8 00 00 00 00	 call	 ??$_Deallocate@$0BA@$0A@@std@@YAXPEAX_K@Z ; std::_Deallocate<16,0>

; 868  :     }

  00037	48 83 c4 20	 add	 rsp, 32			; 00000020H
  0003b	5f		 pop	 rdi
  0003c	c3		 ret	 0
?deallocate@?$allocator@D@std@@QEAAXQEAD_K@Z ENDP	; std::allocator<char>::deallocate
_TEXT	ENDS
; Function compile flags: /Odtp /RTCsu
; File C:\Program Files (x86)\Microsoft Visual Studio\2019\Community\VC\Tools\MSVC\14.23.28105\include\xmemory
;	COMDAT ??0?$allocator@D@std@@QEAA@XZ
_TEXT	SEGMENT
this$ = 16
??0?$allocator@D@std@@QEAA@XZ PROC			; std::allocator<char>::allocator<char>, COMDAT

; 859  :     constexpr allocator() noexcept {}

$LN3:
  00000	48 89 4c 24 08	 mov	 QWORD PTR [rsp+8], rcx
  00005	57		 push	 rdi
  00006	48 8b 44 24 10	 mov	 rax, QWORD PTR this$[rsp]
  0000b	5f		 pop	 rdi
  0000c	c3		 ret	 0
??0?$allocator@D@std@@QEAA@XZ ENDP			; std::allocator<char>::allocator<char>
_TEXT	ENDS
; Function compile flags: /Odtp /RTCsu
; File C:\Program Files (x86)\Microsoft Visual Studio\2019\Community\VC\Tools\MSVC\14.23.28105\include\xstring
;	COMDAT ?assign@?$_Narrow_char_traits@DH@std@@SAXAEADAEBD@Z
_TEXT	SEGMENT
_Left$ = 16
_Right$ = 24
?assign@?$_Narrow_char_traits@DH@std@@SAXAEADAEBD@Z PROC ; std::_Narrow_char_traits<char,int>::assign, COMDAT

; 377  :     static _CONSTEXPR17 void assign(_Elem& _Left, const _Elem& _Right) noexcept { // assign an element

$LN3:
  00000	48 89 54 24 10	 mov	 QWORD PTR [rsp+16], rdx
  00005	48 89 4c 24 08	 mov	 QWORD PTR [rsp+8], rcx
  0000a	57		 push	 rdi

; 378  :         _Left = _Right;

  0000b	48 8b 44 24 10	 mov	 rax, QWORD PTR _Left$[rsp]
  00010	48 8b 4c 24 18	 mov	 rcx, QWORD PTR _Right$[rsp]
  00015	0f b6 09	 movzx	 ecx, BYTE PTR [rcx]
  00018	88 08		 mov	 BYTE PTR [rax], cl

; 379  :     }

  0001a	5f		 pop	 rdi
  0001b	c3		 ret	 0
?assign@?$_Narrow_char_traits@DH@std@@SAXAEADAEBD@Z ENDP ; std::_Narrow_char_traits<char,int>::assign
_TEXT	ENDS
; Function compile flags: /Odtp /RTCsu
; File C:\Program Files (x86)\Microsoft Visual Studio\2019\Community\VC\Tools\MSVC\14.23.28105\include\xstring
;	COMDAT ?move@?$_Narrow_char_traits@DH@std@@SAPEADQEADQEBD_K@Z
_TEXT	SEGMENT
_First1$ = 48
_First2$ = 56
_Count$ = 64
?move@?$_Narrow_char_traits@DH@std@@SAPEADQEADQEBD_K@Z PROC ; std::_Narrow_char_traits<char,int>::move, COMDAT

; 366  :         const size_t _Count) noexcept { // strengthened

$LN3:
  00000	4c 89 44 24 18	 mov	 QWORD PTR [rsp+24], r8
  00005	48 89 54 24 10	 mov	 QWORD PTR [rsp+16], rdx
  0000a	48 89 4c 24 08	 mov	 QWORD PTR [rsp+8], rcx
  0000f	57		 push	 rdi
  00010	48 83 ec 20	 sub	 rsp, 32			; 00000020H
  00014	48 8b fc	 mov	 rdi, rsp
  00017	b9 08 00 00 00	 mov	 ecx, 8
  0001c	b8 cc cc cc cc	 mov	 eax, -858993460		; ccccccccH
  00021	f3 ab		 rep stosd
  00023	48 8b 4c 24 30	 mov	 rcx, QWORD PTR [rsp+48]

; 367  :         // copy [_First2, _First2 + _Count) to [_First1, ...)
; 368  :         return static_cast<_Elem*>(_CSTD memmove(_First1, _First2, _Count));

  00028	4c 8b 44 24 40	 mov	 r8, QWORD PTR _Count$[rsp]
  0002d	48 8b 54 24 38	 mov	 rdx, QWORD PTR _First2$[rsp]
  00032	48 8b 4c 24 30	 mov	 rcx, QWORD PTR _First1$[rsp]
  00037	e8 00 00 00 00	 call	 memmove
  0003c	90		 npad	 1

; 369  :     }

  0003d	48 83 c4 20	 add	 rsp, 32			; 00000020H
  00041	5f		 pop	 rdi
  00042	c3		 ret	 0
?move@?$_Narrow_char_traits@DH@std@@SAPEADQEADQEBD_K@Z ENDP ; std::_Narrow_char_traits<char,int>::move
_TEXT	ENDS
; Function compile flags: /Odtp /RTCsu
; File C:\Program Files (x86)\Microsoft Visual Studio\2019\Community\VC\Tools\MSVC\14.23.28105\include\xstring
;	COMDAT ?copy@?$_Narrow_char_traits@DH@std@@SAPEADQEADQEBD_K@Z
_TEXT	SEGMENT
_First1$ = 48
_First2$ = 56
_Count$ = 64
?copy@?$_Narrow_char_traits@DH@std@@SAPEADQEADQEBD_K@Z PROC ; std::_Narrow_char_traits<char,int>::copy, COMDAT

; 331  :         const size_t _Count) noexcept { // strengthened

$LN3:
  00000	4c 89 44 24 18	 mov	 QWORD PTR [rsp+24], r8
  00005	48 89 54 24 10	 mov	 QWORD PTR [rsp+16], rdx
  0000a	48 89 4c 24 08	 mov	 QWORD PTR [rsp+8], rcx
  0000f	57		 push	 rdi
  00010	48 83 ec 20	 sub	 rsp, 32			; 00000020H
  00014	48 8b fc	 mov	 rdi, rsp
  00017	b9 08 00 00 00	 mov	 ecx, 8
  0001c	b8 cc cc cc cc	 mov	 eax, -858993460		; ccccccccH
  00021	f3 ab		 rep stosd
  00023	48 8b 4c 24 30	 mov	 rcx, QWORD PTR [rsp+48]

; 332  :         // copy [_First2, _First2 + _Count) to [_First1, ...)
; 333  :         return static_cast<_Elem*>(_CSTD memcpy(_First1, _First2, _Count));

  00028	4c 8b 44 24 40	 mov	 r8, QWORD PTR _Count$[rsp]
  0002d	48 8b 54 24 38	 mov	 rdx, QWORD PTR _First2$[rsp]
  00032	48 8b 4c 24 30	 mov	 rcx, QWORD PTR _First1$[rsp]
  00037	e8 00 00 00 00	 call	 memcpy
  0003c	90		 npad	 1

; 334  :     }

  0003d	48 83 c4 20	 add	 rsp, 32			; 00000020H
  00041	5f		 pop	 rdi
  00042	c3		 ret	 0
?copy@?$_Narrow_char_traits@DH@std@@SAPEADQEADQEBD_K@Z ENDP ; std::_Narrow_char_traits<char,int>::copy
_TEXT	ENDS
; Function compile flags: /Odtp /RTCsu
; File C:\Program Files (x86)\Microsoft Visual Studio\2019\Community\VC\Tools\MSVC\14.23.28105\include\xstring
;	COMDAT ?length@?$_Narrow_char_traits@DH@std@@SA_KQEBD@Z
_TEXT	SEGMENT
_First$ = 48
?length@?$_Narrow_char_traits@DH@std@@SA_KQEBD@Z PROC	; std::_Narrow_char_traits<char,int>::length, COMDAT

; 310  :     _NODISCARD static _CONSTEXPR17 size_t length(_In_z_ const _Elem* const _First) noexcept { // strengthened

$LN3:
  00000	48 89 4c 24 08	 mov	 QWORD PTR [rsp+8], rcx
  00005	57		 push	 rdi
  00006	48 83 ec 20	 sub	 rsp, 32			; 00000020H
  0000a	48 8b fc	 mov	 rdi, rsp
  0000d	b9 08 00 00 00	 mov	 ecx, 8
  00012	b8 cc cc cc cc	 mov	 eax, -858993460		; ccccccccH
  00017	f3 ab		 rep stosd
  00019	48 8b 4c 24 30	 mov	 rcx, QWORD PTR [rsp+48]

; 311  :         // find length of null-terminated string
; 312  : #if _HAS_CXX17
; 313  : #if _HAS_CHAR8_T
; 314  :         if constexpr (is_same_v<_Elem, char8_t>) {
; 315  : #if _HAS_U8_INTRINSICS
; 316  :             return __builtin_u8strlen(_First);
; 317  : #else // ^^^ use u8 intrinsics / no u8 intrinsics vvv
; 318  :             return _Char_traits<_Elem, _Int_type>::length(_First);
; 319  : #endif // _HAS_U8_INTRINSICS
; 320  :         } else
; 321  : #endif // _HAS_CHAR8_T
; 322  :         {
; 323  :             return __builtin_strlen(_First);
; 324  :         }
; 325  : #else // _HAS_CXX17
; 326  :         return _CSTD strlen(reinterpret_cast<const char*>(_First));

  0001e	48 8b 4c 24 30	 mov	 rcx, QWORD PTR _First$[rsp]
  00023	e8 00 00 00 00	 call	 strlen
  00028	90		 npad	 1

; 327  : #endif // _HAS_CXX17
; 328  :     }

  00029	48 83 c4 20	 add	 rsp, 32			; 00000020H
  0002d	5f		 pop	 rdi
  0002e	c3		 ret	 0
?length@?$_Narrow_char_traits@DH@std@@SA_KQEBD@Z ENDP	; std::_Narrow_char_traits<char,int>::length
_TEXT	ENDS
; Function compile flags: /Odtp /RTCsu
;	COMDAT ??_GRGYPipeProcessWin@@UEAAPEAXI@Z
_TEXT	SEGMENT
this$ = 48
__flags$ = 56
??_GRGYPipeProcessWin@@UEAAPEAXI@Z PROC			; RGYPipeProcessWin::`scalar deleting destructor', COMDAT
$LN4:
  00000	89 54 24 10	 mov	 DWORD PTR [rsp+16], edx
  00004	48 89 4c 24 08	 mov	 QWORD PTR [rsp+8], rcx
  00009	57		 push	 rdi
  0000a	48 83 ec 20	 sub	 rsp, 32			; 00000020H
  0000e	48 8b fc	 mov	 rdi, rsp
  00011	b9 08 00 00 00	 mov	 ecx, 8
  00016	b8 cc cc cc cc	 mov	 eax, -858993460		; ccccccccH
  0001b	f3 ab		 rep stosd
  0001d	48 8b 4c 24 30	 mov	 rcx, QWORD PTR [rsp+48]
  00022	48 8b 4c 24 30	 mov	 rcx, QWORD PTR this$[rsp]
  00027	e8 00 00 00 00	 call	 ??1RGYPipeProcessWin@@UEAA@XZ ; RGYPipeProcessWin::~RGYPipeProcessWin
  0002c	8b 44 24 38	 mov	 eax, DWORD PTR __flags$[rsp]
  00030	83 e0 01	 and	 eax, 1
  00033	85 c0		 test	 eax, eax
  00035	74 0f		 je	 SHORT $LN2@scalar
  00037	ba 28 00 00 00	 mov	 edx, 40			; 00000028H
  0003c	48 8b 4c 24 30	 mov	 rcx, QWORD PTR this$[rsp]
  00041	e8 00 00 00 00	 call	 ??3@YAXPEAX_K@Z		; operator delete
$LN2@scalar:
  00046	48 8b 44 24 30	 mov	 rax, QWORD PTR this$[rsp]
  0004b	48 83 c4 20	 add	 rsp, 32			; 00000020H
  0004f	5f		 pop	 rdi
  00050	c3		 ret	 0
??_GRGYPipeProcessWin@@UEAAPEAXI@Z ENDP			; RGYPipeProcessWin::`scalar deleting destructor'
_TEXT	ENDS
; Function compile flags: /Odtp /RTCsu
; File D:\work\intel\intel_codec\QSVPipeline\rgy_pipe.cpp
_TEXT	SEGMENT
sa$ = 40
tv163 = 72
this$ = 96
pipes$ = 104
?startPipes@RGYPipeProcessWin@@MEAAHPEAUProcessPipe@@@Z PROC ; RGYPipeProcessWin::startPipes

; 51   : int RGYPipeProcessWin::startPipes(ProcessPipe *pipes) {

$LN13:
  00000	48 89 54 24 10	 mov	 QWORD PTR [rsp+16], rdx
  00005	48 89 4c 24 08	 mov	 QWORD PTR [rsp+8], rcx
  0000a	57		 push	 rdi
  0000b	48 83 ec 50	 sub	 rsp, 80			; 00000050H
  0000f	48 8b fc	 mov	 rdi, rsp
  00012	b9 14 00 00 00	 mov	 ecx, 20
  00017	b8 cc cc cc cc	 mov	 eax, -858993460		; ccccccccH
  0001c	f3 ab		 rep stosd
  0001e	48 8b 4c 24 60	 mov	 rcx, QWORD PTR [rsp+96]

; 52   :     SECURITY_ATTRIBUTES sa = { sizeof(SECURITY_ATTRIBUTES), NULL, TRUE };

  00023	c7 44 24 28 18
	00 00 00	 mov	 DWORD PTR sa$[rsp], 24
  0002b	48 c7 44 24 30
	00 00 00 00	 mov	 QWORD PTR sa$[rsp+8], 0
  00034	c7 44 24 38 01
	00 00 00	 mov	 DWORD PTR sa$[rsp+16], 1

; 53   :     if (pipes->stdOut.mode) {

  0003c	48 8b 44 24 68	 mov	 rax, QWORD PTR pipes$[rsp]
  00041	83 78 28 00	 cmp	 DWORD PTR [rax+40], 0
  00045	74 52		 je	 SHORT $LN2@startPipes

; 54   :         if (!CreatePipe(&pipes->stdOut.h_read, &pipes->stdOut.h_write, &sa, pipes->stdOut.bufferSize) ||

  00047	48 8b 44 24 68	 mov	 rax, QWORD PTR pipes$[rsp]
  0004c	48 83 c0 20	 add	 rax, 32			; 00000020H
  00050	48 8b 4c 24 68	 mov	 rcx, QWORD PTR pipes$[rsp]
  00055	48 83 c1 18	 add	 rcx, 24
  00059	48 8b 54 24 68	 mov	 rdx, QWORD PTR pipes$[rsp]
  0005e	44 8b 4a 2c	 mov	 r9d, DWORD PTR [rdx+44]
  00062	4c 8d 44 24 28	 lea	 r8, QWORD PTR sa$[rsp]
  00067	48 8b d0	 mov	 rdx, rax
  0006a	ff 15 00 00 00
	00		 call	 QWORD PTR __imp_CreatePipe
  00070	85 c0		 test	 eax, eax
  00072	74 1b		 je	 SHORT $LN4@startPipes
  00074	45 33 c0	 xor	 r8d, r8d
  00077	ba 01 00 00 00	 mov	 edx, 1
  0007c	48 8b 44 24 68	 mov	 rax, QWORD PTR pipes$[rsp]
  00081	48 8b 48 18	 mov	 rcx, QWORD PTR [rax+24]
  00085	ff 15 00 00 00
	00		 call	 QWORD PTR __imp_SetHandleInformation
  0008b	85 c0		 test	 eax, eax
  0008d	75 0a		 jne	 SHORT $LN3@startPipes
$LN4@startPipes:

; 55   :             !SetHandleInformation(pipes->stdOut.h_read, HANDLE_FLAG_INHERIT, 0))
; 56   :             return 1;

  0008f	b8 01 00 00 00	 mov	 eax, 1
  00094	e9 fe 00 00 00	 jmp	 $LN1@startPipes
$LN3@startPipes:
$LN2@startPipes:

; 57   :     }
; 58   :     if (pipes->stdErr.mode) {

  00099	48 8b 44 24 68	 mov	 rax, QWORD PTR pipes$[rsp]
  0009e	83 78 40 00	 cmp	 DWORD PTR [rax+64], 0
  000a2	74 52		 je	 SHORT $LN5@startPipes

; 59   :         if (!CreatePipe(&pipes->stdErr.h_read, &pipes->stdErr.h_write, &sa, pipes->stdErr.bufferSize) ||

  000a4	48 8b 44 24 68	 mov	 rax, QWORD PTR pipes$[rsp]
  000a9	48 83 c0 38	 add	 rax, 56			; 00000038H
  000ad	48 8b 4c 24 68	 mov	 rcx, QWORD PTR pipes$[rsp]
  000b2	48 83 c1 30	 add	 rcx, 48			; 00000030H
  000b6	48 8b 54 24 68	 mov	 rdx, QWORD PTR pipes$[rsp]
  000bb	44 8b 4a 44	 mov	 r9d, DWORD PTR [rdx+68]
  000bf	4c 8d 44 24 28	 lea	 r8, QWORD PTR sa$[rsp]
  000c4	48 8b d0	 mov	 rdx, rax
  000c7	ff 15 00 00 00
	00		 call	 QWORD PTR __imp_CreatePipe
  000cd	85 c0		 test	 eax, eax
  000cf	74 1b		 je	 SHORT $LN7@startPipes
  000d1	45 33 c0	 xor	 r8d, r8d
  000d4	ba 01 00 00 00	 mov	 edx, 1
  000d9	48 8b 44 24 68	 mov	 rax, QWORD PTR pipes$[rsp]
  000de	48 8b 48 30	 mov	 rcx, QWORD PTR [rax+48]
  000e2	ff 15 00 00 00
	00		 call	 QWORD PTR __imp_SetHandleInformation
  000e8	85 c0		 test	 eax, eax
  000ea	75 0a		 jne	 SHORT $LN6@startPipes
$LN7@startPipes:

; 60   :             !SetHandleInformation(pipes->stdErr.h_read, HANDLE_FLAG_INHERIT, 0))
; 61   :             return 1;

  000ec	b8 01 00 00 00	 mov	 eax, 1
  000f1	e9 a1 00 00 00	 jmp	 $LN1@startPipes
$LN6@startPipes:
$LN5@startPipes:

; 62   :     }
; 63   :     if (pipes->stdIn.mode) {

  000f6	48 8b 44 24 68	 mov	 rax, QWORD PTR pipes$[rsp]
  000fb	83 78 10 00	 cmp	 DWORD PTR [rax+16], 0
  000ff	0f 84 90 00 00
	00		 je	 $LN8@startPipes

; 64   :         if (!CreatePipe(&pipes->stdIn.h_read, &pipes->stdIn.h_write, &sa, pipes->stdIn.bufferSize) ||

  00105	48 8b 44 24 68	 mov	 rax, QWORD PTR pipes$[rsp]
  0010a	48 83 c0 08	 add	 rax, 8
  0010e	48 8b 4c 24 68	 mov	 rcx, QWORD PTR pipes$[rsp]
  00113	48 8b 54 24 68	 mov	 rdx, QWORD PTR pipes$[rsp]
  00118	44 8b 4a 14	 mov	 r9d, DWORD PTR [rdx+20]
  0011c	4c 8d 44 24 28	 lea	 r8, QWORD PTR sa$[rsp]
  00121	48 8b d0	 mov	 rdx, rax
  00124	ff 15 00 00 00
	00		 call	 QWORD PTR __imp_CreatePipe
  0012a	85 c0		 test	 eax, eax
  0012c	74 1b		 je	 SHORT $LN10@startPipes
  0012e	45 33 c0	 xor	 r8d, r8d
  00131	ba 01 00 00 00	 mov	 edx, 1
  00136	48 8b 44 24 68	 mov	 rax, QWORD PTR pipes$[rsp]
  0013b	48 8b 48 08	 mov	 rcx, QWORD PTR [rax+8]
  0013f	ff 15 00 00 00
	00		 call	 QWORD PTR __imp_SetHandleInformation
  00145	85 c0		 test	 eax, eax
  00147	75 07		 jne	 SHORT $LN9@startPipes
$LN10@startPipes:

; 65   :             !SetHandleInformation(pipes->stdIn.h_write, HANDLE_FLAG_INHERIT, 0))
; 66   :             return 1;

  00149	b8 01 00 00 00	 mov	 eax, 1
  0014e	eb 47		 jmp	 SHORT $LN1@startPipes
$LN9@startPipes:

; 67   :         if ((pipes->f_stdin = _fdopen(_open_osfhandle((intptr_t)pipes->stdIn.h_write, _O_BINARY), "wb")) == NULL) {

  00150	ba 00 80 00 00	 mov	 edx, 32768		; 00008000H
  00155	48 8b 44 24 68	 mov	 rax, QWORD PTR pipes$[rsp]
  0015a	48 8b 48 08	 mov	 rcx, QWORD PTR [rax+8]
  0015e	ff 15 00 00 00
	00		 call	 QWORD PTR __imp__open_osfhandle
  00164	48 8d 15 00 00
	00 00		 lea	 rdx, OFFSET FLAT:$SG113984
  0016b	8b c8		 mov	 ecx, eax
  0016d	ff 15 00 00 00
	00		 call	 QWORD PTR __imp__fdopen
  00173	48 89 44 24 48	 mov	 QWORD PTR tv163[rsp], rax
  00178	48 8b 44 24 68	 mov	 rax, QWORD PTR pipes$[rsp]
  0017d	48 8b 4c 24 48	 mov	 rcx, QWORD PTR tv163[rsp]
  00182	48 89 48 48	 mov	 QWORD PTR [rax+72], rcx
  00186	48 83 7c 24 48
	00		 cmp	 QWORD PTR tv163[rsp], 0
  0018c	75 07		 jne	 SHORT $LN11@startPipes

; 68   :             return 1;

  0018e	b8 01 00 00 00	 mov	 eax, 1
  00193	eb 02		 jmp	 SHORT $LN1@startPipes
$LN11@startPipes:
$LN8@startPipes:

; 69   :         }
; 70   :     }
; 71   :     return 0;

  00195	33 c0		 xor	 eax, eax
$LN1@startPipes:

; 72   : }

  00197	48 8b f8	 mov	 rdi, rax
  0019a	48 8b cc	 mov	 rcx, rsp
  0019d	48 8d 15 00 00
	00 00		 lea	 rdx, OFFSET FLAT:?startPipes@RGYPipeProcessWin@@MEAAHPEAUProcessPipe@@@Z$rtcFrameData
  001a4	e8 00 00 00 00	 call	 _RTC_CheckStackVars
  001a9	48 8b c7	 mov	 rax, rdi
  001ac	48 83 c4 50	 add	 rsp, 80			; 00000050H
  001b0	5f		 pop	 rdi
  001b1	c3		 ret	 0
?startPipes@RGYPipeProcessWin@@MEAAHPEAUProcessPipe@@@Z ENDP ; RGYPipeProcessWin::startPipes
_TEXT	ENDS
; Function compile flags: /Odtp /RTCsu
; File D:\work\intel\intel_codec\QSVPipeline\rgy_pipe.cpp
_TEXT	SEGMENT
this$ = 16
?getProcessInfo@RGYPipeProcessWin@@QEAAAEBU_PROCESS_INFORMATION@@XZ PROC ; RGYPipeProcessWin::getProcessInfo

; 134  : const PROCESS_INFORMATION& RGYPipeProcessWin::getProcessInfo() {

$LN3:
  00000	48 89 4c 24 08	 mov	 QWORD PTR [rsp+8], rcx
  00005	57		 push	 rdi

; 135  :     return m_pi;

  00006	48 8b 44 24 10	 mov	 rax, QWORD PTR this$[rsp]
  0000b	48 83 c0 10	 add	 rax, 16

; 136  : }

  0000f	5f		 pop	 rdi
  00010	c3		 ret	 0
?getProcessInfo@RGYPipeProcessWin@@QEAAAEBU_PROCESS_INFORMATION@@XZ ENDP ; RGYPipeProcessWin::getProcessInfo
_TEXT	ENDS
; Function compile flags: /Odtp /RTCsu
; File D:\work\intel\intel_codec\QSVPipeline\rgy_pipe.cpp
_TEXT	SEGMENT
tv73 = 32
this$ = 64
?processAlive@RGYPipeProcessWin@@UEAA_NXZ PROC		; RGYPipeProcessWin::processAlive

; 148  : bool RGYPipeProcessWin::processAlive() {

$LN5:
  00000	48 89 4c 24 08	 mov	 QWORD PTR [rsp+8], rcx
  00005	57		 push	 rdi
  00006	48 83 ec 30	 sub	 rsp, 48			; 00000030H
  0000a	48 8b fc	 mov	 rdi, rsp
  0000d	b9 0c 00 00 00	 mov	 ecx, 12
  00012	b8 cc cc cc cc	 mov	 eax, -858993460		; ccccccccH
  00017	f3 ab		 rep stosd
  00019	48 8b 4c 24 40	 mov	 rcx, QWORD PTR [rsp+64]

; 149  :     return WAIT_OBJECT_0 == WaitForSingleObject(m_phandle, 0);

  0001e	33 d2		 xor	 edx, edx
  00020	48 8b 44 24 40	 mov	 rax, QWORD PTR this$[rsp]
  00025	48 8b 48 08	 mov	 rcx, QWORD PTR [rax+8]
  00029	ff 15 00 00 00
	00		 call	 QWORD PTR __imp_WaitForSingleObject
  0002f	85 c0		 test	 eax, eax
  00031	75 0a		 jne	 SHORT $LN3@processAli
  00033	c7 44 24 20 01
	00 00 00	 mov	 DWORD PTR tv73[rsp], 1
  0003b	eb 08		 jmp	 SHORT $LN4@processAli
$LN3@processAli:
  0003d	c7 44 24 20 00
	00 00 00	 mov	 DWORD PTR tv73[rsp], 0
$LN4@processAli:
  00045	0f b6 44 24 20	 movzx	 eax, BYTE PTR tv73[rsp]

; 150  : }

  0004a	48 83 c4 30	 add	 rsp, 48			; 00000030H
  0004e	5f		 pop	 rdi
  0004f	c3		 ret	 0
?processAlive@RGYPipeProcessWin@@UEAA_NXZ ENDP		; RGYPipeProcessWin::processAlive
_TEXT	ENDS
; Function compile flags: /Odtp /RTCsu
; File D:\work\intel\intel_codec\QSVPipeline\rgy_pipe.cpp
_TEXT	SEGMENT
this$ = 48
?close@RGYPipeProcessWin@@UEAAXXZ PROC			; RGYPipeProcessWin::close

; 138  : void RGYPipeProcessWin::close() {

$LN5:
  00000	48 89 4c 24 08	 mov	 QWORD PTR [rsp+8], rcx
  00005	57		 push	 rdi
  00006	48 83 ec 20	 sub	 rsp, 32			; 00000020H
  0000a	48 8b fc	 mov	 rdi, rsp
  0000d	b9 08 00 00 00	 mov	 ecx, 8
  00012	b8 cc cc cc cc	 mov	 eax, -858993460		; ccccccccH
  00017	f3 ab		 rep stosd
  00019	48 8b 4c 24 30	 mov	 rcx, QWORD PTR [rsp+48]

; 139  :     if (m_pi.hProcess) {

  0001e	48 8b 44 24 30	 mov	 rax, QWORD PTR this$[rsp]
  00023	48 83 78 10 00	 cmp	 QWORD PTR [rax+16], 0
  00028	74 0f		 je	 SHORT $LN2@close

; 140  :         CloseHandle(m_pi.hProcess);

  0002a	48 8b 44 24 30	 mov	 rax, QWORD PTR this$[rsp]
  0002f	48 8b 48 10	 mov	 rcx, QWORD PTR [rax+16]
  00033	ff 15 00 00 00
	00		 call	 QWORD PTR __imp_CloseHandle
$LN2@close:

; 141  :     }
; 142  :     if (m_pi.hThread) {

  00039	48 8b 44 24 30	 mov	 rax, QWORD PTR this$[rsp]
  0003e	48 83 78 18 00	 cmp	 QWORD PTR [rax+24], 0
  00043	74 0f		 je	 SHORT $LN3@close

; 143  :         CloseHandle(m_pi.hThread);

  00045	48 8b 44 24 30	 mov	 rax, QWORD PTR this$[rsp]
  0004a	48 8b 48 18	 mov	 rcx, QWORD PTR [rax+24]
  0004e	ff 15 00 00 00
	00		 call	 QWORD PTR __imp_CloseHandle
$LN3@close:

; 144  :     }
; 145  :     memset(&m_pi, 0, sizeof(m_pi));

  00054	48 8b 44 24 30	 mov	 rax, QWORD PTR this$[rsp]
  00059	48 83 c0 10	 add	 rax, 16
  0005d	41 b8 18 00 00
	00		 mov	 r8d, 24
  00063	33 d2		 xor	 edx, edx
  00065	48 8b c8	 mov	 rcx, rax
  00068	e8 00 00 00 00	 call	 memset

; 146  : }

  0006d	48 83 c4 20	 add	 rsp, 32			; 00000020H
  00071	5f		 pop	 rdi
  00072	c3		 ret	 0
?close@RGYPipeProcessWin@@UEAAXXZ ENDP			; RGYPipeProcessWin::close
_TEXT	ENDS
; Function compile flags: /Odtp /RTCsu
; File D:\work\intel\intel_codec\QSVPipeline\rgy_pipe.cpp
_TEXT	SEGMENT
Inherit$ = 80
flag$ = 84
si$ = 112
cmd_line$ = 248
<range>$L0$5 = 296
<begin>$L0$6 = 304
<end>$L0$7 = 312
arg$8 = 320
$T9 = 328
$T10 = 368
ret$ = 408
$T11 = 424
tv94 = 432
tv143 = 440
tv229 = 448
tv233 = 456
tv231 = 464
tv166 = 472
tv180 = 480
__$ArrayPad$ = 488
this$ = 512
args$ = 520
exedir$ = 528
pipes$ = 536
priority$ = 544
hidden$ = 552
minimized$ = 560
?run@RGYPipeProcessWin@@UEAAHAEBV?$vector@PEBDV?$allocator@PEBD@std@@@std@@PEBDPEAUProcessPipe@@I_N3@Z PROC ; RGYPipeProcessWin::run

; 74   : int RGYPipeProcessWin::run(const std::vector<const TCHAR *>& args, const TCHAR *exedir, ProcessPipe *pipes, uint32_t priority, bool hidden, bool minimized) {

$LN26:
  00000	4c 89 4c 24 20	 mov	 QWORD PTR [rsp+32], r9
  00005	4c 89 44 24 18	 mov	 QWORD PTR [rsp+24], r8
  0000a	48 89 54 24 10	 mov	 QWORD PTR [rsp+16], rdx
  0000f	48 89 4c 24 08	 mov	 QWORD PTR [rsp+8], rcx
  00014	57		 push	 rdi
  00015	48 81 ec f0 01
	00 00		 sub	 rsp, 496		; 000001f0H
  0001c	48 8b fc	 mov	 rdi, rsp
  0001f	b9 7c 00 00 00	 mov	 ecx, 124		; 0000007cH
  00024	b8 cc cc cc cc	 mov	 eax, -858993460		; ccccccccH
  00029	f3 ab		 rep stosd
  0002b	48 8b 8c 24 00
	02 00 00	 mov	 rcx, QWORD PTR [rsp+512]
  00033	48 8b 05 00 00
	00 00		 mov	 rax, QWORD PTR __security_cookie
  0003a	48 33 c4	 xor	 rax, rsp
  0003d	48 89 84 24 e8
	01 00 00	 mov	 QWORD PTR __$ArrayPad$[rsp], rax

; 75   :     BOOL Inherit = FALSE;

  00045	c7 44 24 50 00
	00 00 00	 mov	 DWORD PTR Inherit$[rsp], 0

; 76   :     DWORD flag = priority;

  0004d	8b 84 24 20 02
	00 00		 mov	 eax, DWORD PTR priority$[rsp]
  00054	89 44 24 54	 mov	 DWORD PTR flag$[rsp], eax

; 77   :     STARTUPINFO si;
; 78   :     memset(&si, 0, sizeof(STARTUPINFO));

  00058	41 b8 68 00 00
	00		 mov	 r8d, 104		; 00000068H
  0005e	33 d2		 xor	 edx, edx
  00060	48 8d 4c 24 70	 lea	 rcx, QWORD PTR si$[rsp]
  00065	e8 00 00 00 00	 call	 memset

; 79   :     memset(&m_pi, 0, sizeof(PROCESS_INFORMATION));

  0006a	48 8b 84 24 00
	02 00 00	 mov	 rax, QWORD PTR this$[rsp]
  00072	48 83 c0 10	 add	 rax, 16
  00076	41 b8 18 00 00
	00		 mov	 r8d, 24
  0007c	33 d2		 xor	 edx, edx
  0007e	48 8b c8	 mov	 rcx, rax
  00081	e8 00 00 00 00	 call	 memset

; 80   :     si.cb = sizeof(STARTUPINFO);

  00086	c7 44 24 70 68
	00 00 00	 mov	 DWORD PTR si$[rsp], 104	; 00000068H

; 81   : 
; 82   :     startPipes(pipes);

  0008e	48 8b 84 24 00
	02 00 00	 mov	 rax, QWORD PTR this$[rsp]
  00096	48 8b 00	 mov	 rax, QWORD PTR [rax]
  00099	48 8b 94 24 18
	02 00 00	 mov	 rdx, QWORD PTR pipes$[rsp]
  000a1	48 8b 8c 24 00
	02 00 00	 mov	 rcx, QWORD PTR this$[rsp]
  000a9	ff 50 28	 call	 QWORD PTR [rax+40]

; 83   : 
; 84   :     if (pipes->stdOut.mode)

  000ac	48 8b 84 24 18
	02 00 00	 mov	 rax, QWORD PTR pipes$[rsp]
  000b4	83 78 28 00	 cmp	 DWORD PTR [rax+40], 0
  000b8	74 14		 je	 SHORT $LN5@run

; 85   :         si.hStdOutput = pipes->stdOut.h_write;

  000ba	48 8b 84 24 18
	02 00 00	 mov	 rax, QWORD PTR pipes$[rsp]
  000c2	48 8b 40 20	 mov	 rax, QWORD PTR [rax+32]
  000c6	48 89 84 24 c8
	00 00 00	 mov	 QWORD PTR si$[rsp+88], rax
$LN5@run:

; 86   :     if (pipes->stdErr.mode)

  000ce	48 8b 84 24 18
	02 00 00	 mov	 rax, QWORD PTR pipes$[rsp]
  000d6	83 78 40 00	 cmp	 DWORD PTR [rax+64], 0
  000da	74 48		 je	 SHORT $LN6@run

; 87   :         si.hStdError = (pipes->stdErr.mode == PIPE_MODE_MUXED) ? pipes->stdOut.h_write : pipes->stdErr.h_write;

  000dc	48 8b 84 24 18
	02 00 00	 mov	 rax, QWORD PTR pipes$[rsp]
  000e4	83 78 40 02	 cmp	 DWORD PTR [rax+64], 2
  000e8	75 16		 jne	 SHORT $LN19@run
  000ea	48 8b 84 24 18
	02 00 00	 mov	 rax, QWORD PTR pipes$[rsp]
  000f2	48 8b 40 20	 mov	 rax, QWORD PTR [rax+32]
  000f6	48 89 84 24 b0
	01 00 00	 mov	 QWORD PTR tv94[rsp], rax
  000fe	eb 14		 jmp	 SHORT $LN20@run
$LN19@run:
  00100	48 8b 84 24 18
	02 00 00	 mov	 rax, QWORD PTR pipes$[rsp]
  00108	48 8b 40 38	 mov	 rax, QWORD PTR [rax+56]
  0010c	48 89 84 24 b0
	01 00 00	 mov	 QWORD PTR tv94[rsp], rax
$LN20@run:
  00114	48 8b 84 24 b0
	01 00 00	 mov	 rax, QWORD PTR tv94[rsp]
  0011c	48 89 84 24 d0
	00 00 00	 mov	 QWORD PTR si$[rsp+96], rax
$LN6@run:

; 88   :     if (pipes->stdIn.mode)

  00124	48 8b 84 24 18
	02 00 00	 mov	 rax, QWORD PTR pipes$[rsp]
  0012c	83 78 10 00	 cmp	 DWORD PTR [rax+16], 0
  00130	74 13		 je	 SHORT $LN7@run

; 89   :         si.hStdInput = pipes->stdIn.h_read;

  00132	48 8b 84 24 18
	02 00 00	 mov	 rax, QWORD PTR pipes$[rsp]
  0013a	48 8b 00	 mov	 rax, QWORD PTR [rax]
  0013d	48 89 84 24 c0
	00 00 00	 mov	 QWORD PTR si$[rsp+80], rax
$LN7@run:

; 90   :     si.dwFlags |= STARTF_USESTDHANDLES;

  00145	8b 84 24 ac 00
	00 00		 mov	 eax, DWORD PTR si$[rsp+60]
  0014c	0f ba e8 08	 bts	 eax, 8
  00150	89 84 24 ac 00
	00 00		 mov	 DWORD PTR si$[rsp+60], eax

; 91   :     Inherit = TRUE;

  00157	c7 44 24 50 01
	00 00 00	 mov	 DWORD PTR Inherit$[rsp], 1

; 92   :     //flag |= DETACHED_PROCESS; //CREATE_NO_WINDOW
; 93   :     if (minimized) {

  0015f	0f b6 84 24 30
	02 00 00	 movzx	 eax, BYTE PTR minimized$[rsp]
  00167	85 c0		 test	 eax, eax
  00169	74 24		 je	 SHORT $LN8@run

; 94   :         si.dwFlags |= STARTF_USESHOWWINDOW;

  0016b	8b 84 24 ac 00
	00 00		 mov	 eax, DWORD PTR si$[rsp+60]
  00172	83 c8 01	 or	 eax, 1
  00175	89 84 24 ac 00
	00 00		 mov	 DWORD PTR si$[rsp+60], eax

; 95   :         si.wShowWindow |= SW_SHOWMINNOACTIVE;

  0017c	0f b7 84 24 b0
	00 00 00	 movzx	 eax, WORD PTR si$[rsp+64]
  00184	83 c8 07	 or	 eax, 7
  00187	66 89 84 24 b0
	00 00 00	 mov	 WORD PTR si$[rsp+64], ax
$LN8@run:

; 96   :     }
; 97   :     if (hidden)

  0018f	0f b6 84 24 28
	02 00 00	 movzx	 eax, BYTE PTR hidden$[rsp]
  00197	85 c0		 test	 eax, eax
  00199	74 0c		 je	 SHORT $LN9@run

; 98   :         flag |= CREATE_NO_WINDOW;

  0019b	8b 44 24 54	 mov	 eax, DWORD PTR flag$[rsp]
  0019f	0f ba e8 1b	 bts	 eax, 27
  001a3	89 44 24 54	 mov	 DWORD PTR flag$[rsp], eax
$LN9@run:

; 99   : 
; 100  :     tstring cmd_line;

  001a7	48 8d 8c 24 f8
	00 00 00	 lea	 rcx, QWORD PTR cmd_line$[rsp]
  001af	e8 00 00 00 00	 call	 ??0?$basic_string@DU?$char_traits@D@std@@V?$allocator@D@2@@std@@QEAA@XZ ; std::basic_string<char,std::char_traits<char>,std::allocator<char> >::basic_string<char,std::char_traits<char>,std::allocator<char> >
  001b4	90		 npad	 1

; 101  :     for (auto arg : args) {

  001b5	48 8b 84 24 08
	02 00 00	 mov	 rax, QWORD PTR args$[rsp]
  001bd	48 89 84 24 28
	01 00 00	 mov	 QWORD PTR <range>$L0$5[rsp], rax
  001c5	48 8b 8c 24 28
	01 00 00	 mov	 rcx, QWORD PTR <range>$L0$5[rsp]
  001cd	e8 00 00 00 00	 call	 ?_Unchecked_begin@?$vector@PEBDV?$allocator@PEBD@std@@@std@@QEBAPEBQEBDXZ ; std::vector<char const *,std::allocator<char const *> >::_Unchecked_begin
  001d2	48 89 84 24 30
	01 00 00	 mov	 QWORD PTR <begin>$L0$6[rsp], rax
  001da	48 8b 8c 24 28
	01 00 00	 mov	 rcx, QWORD PTR <range>$L0$5[rsp]
  001e2	e8 00 00 00 00	 call	 ?_Unchecked_end@?$vector@PEBDV?$allocator@PEBD@std@@@std@@QEBAPEBQEBDXZ ; std::vector<char const *,std::allocator<char const *> >::_Unchecked_end
  001e7	48 89 84 24 38
	01 00 00	 mov	 QWORD PTR <end>$L0$7[rsp], rax
  001ef	eb 14		 jmp	 SHORT $LN4@run
$LN2@run:
  001f1	48 8b 84 24 30
	01 00 00	 mov	 rax, QWORD PTR <begin>$L0$6[rsp]
  001f9	48 83 c0 08	 add	 rax, 8
  001fd	48 89 84 24 30
	01 00 00	 mov	 QWORD PTR <begin>$L0$6[rsp], rax
$LN4@run:
  00205	48 8b 84 24 38
	01 00 00	 mov	 rax, QWORD PTR <end>$L0$7[rsp]
  0020d	48 39 84 24 30
	01 00 00	 cmp	 QWORD PTR <begin>$L0$6[rsp], rax
  00215	0f 84 b9 00 00
	00		 je	 $LN3@run
  0021b	48 8b 84 24 30
	01 00 00	 mov	 rax, QWORD PTR <begin>$L0$6[rsp]
  00223	48 8b 00	 mov	 rax, QWORD PTR [rax]
  00226	48 89 84 24 40
	01 00 00	 mov	 QWORD PTR arg$8[rsp], rax

; 102  :         if (arg) {

  0022e	48 83 bc 24 40
	01 00 00 00	 cmp	 QWORD PTR arg$8[rsp], 0
  00237	0f 84 92 00 00
	00		 je	 $LN10@run

; 103  :             cmd_line += tstring(arg) + _T(" ");

  0023d	48 8b 94 24 40
	01 00 00	 mov	 rdx, QWORD PTR arg$8[rsp]
  00245	48 8d 8c 24 48
	01 00 00	 lea	 rcx, QWORD PTR $T9[rsp]
  0024d	e8 00 00 00 00	 call	 ??0?$basic_string@DU?$char_traits@D@std@@V?$allocator@D@2@@std@@QEAA@QEBD@Z ; std::basic_string<char,std::char_traits<char>,std::allocator<char> >::basic_string<char,std::char_traits<char>,std::allocator<char> >
  00252	48 89 84 24 b8
	01 00 00	 mov	 QWORD PTR tv143[rsp], rax
  0025a	48 8b 84 24 b8
	01 00 00	 mov	 rax, QWORD PTR tv143[rsp]
  00262	48 89 84 24 c0
	01 00 00	 mov	 QWORD PTR tv229[rsp], rax
  0026a	4c 8d 05 00 00
	00 00		 lea	 r8, OFFSET FLAT:$SG114535
  00271	48 8b 94 24 c0
	01 00 00	 mov	 rdx, QWORD PTR tv229[rsp]
  00279	48 8d 8c 24 70
	01 00 00	 lea	 rcx, QWORD PTR $T10[rsp]
  00281	e8 00 00 00 00	 call	 ??$?HDU?$char_traits@D@std@@V?$allocator@D@1@@std@@YA?AV?$basic_string@DU?$char_traits@D@std@@V?$allocator@D@2@@0@$$QEAV10@QEBD@Z ; std::operator+<char,std::char_traits<char>,std::allocator<char> >
  00286	48 89 84 24 c8
	01 00 00	 mov	 QWORD PTR tv233[rsp], rax
  0028e	48 8b 84 24 c8
	01 00 00	 mov	 rax, QWORD PTR tv233[rsp]
  00296	48 89 84 24 d0
	01 00 00	 mov	 QWORD PTR tv231[rsp], rax
  0029e	48 8b 94 24 d0
	01 00 00	 mov	 rdx, QWORD PTR tv231[rsp]
  002a6	48 8d 8c 24 f8
	00 00 00	 lea	 rcx, QWORD PTR cmd_line$[rsp]
  002ae	e8 00 00 00 00	 call	 ??Y?$basic_string@DU?$char_traits@D@std@@V?$allocator@D@2@@std@@QEAAAEAV01@AEBV01@@Z ; std::basic_string<char,std::char_traits<char>,std::allocator<char> >::operator+=
  002b3	90		 npad	 1
  002b4	48 8d 8c 24 70
	01 00 00	 lea	 rcx, QWORD PTR $T10[rsp]
  002bc	e8 00 00 00 00	 call	 ??1?$basic_string@DU?$char_traits@D@std@@V?$allocator@D@2@@std@@QEAA@XZ ; std::basic_string<char,std::char_traits<char>,std::allocator<char> >::~basic_string<char,std::char_traits<char>,std::allocator<char> >
  002c1	90		 npad	 1
  002c2	48 8d 8c 24 48
	01 00 00	 lea	 rcx, QWORD PTR $T9[rsp]
  002ca	e8 00 00 00 00	 call	 ??1?$basic_string@DU?$char_traits@D@std@@V?$allocator@D@2@@std@@QEAA@XZ ; std::basic_string<char,std::char_traits<char>,std::allocator<char> >::~basic_string<char,std::char_traits<char>,std::allocator<char> >
$LN10@run:

; 104  :         }
; 105  :     }

  002cf	e9 1d ff ff ff	 jmp	 $LN2@run
$LN3@run:

; 106  : 
; 107  :     int ret = (CreateProcess(NULL, (TCHAR *)cmd_line.c_str(), NULL, NULL, Inherit, flag, NULL, exedir, &si, &m_pi)) ? 0 : 1;

  002d4	48 8b 84 24 00
	02 00 00	 mov	 rax, QWORD PTR this$[rsp]
  002dc	48 83 c0 10	 add	 rax, 16
  002e0	48 89 84 24 d8
	01 00 00	 mov	 QWORD PTR tv166[rsp], rax
  002e8	48 8d 8c 24 f8
	00 00 00	 lea	 rcx, QWORD PTR cmd_line$[rsp]
  002f0	e8 00 00 00 00	 call	 ?c_str@?$basic_string@DU?$char_traits@D@std@@V?$allocator@D@2@@std@@QEBAPEBDXZ ; std::basic_string<char,std::char_traits<char>,std::allocator<char> >::c_str
  002f5	48 8b 8c 24 d8
	01 00 00	 mov	 rcx, QWORD PTR tv166[rsp]
  002fd	48 89 4c 24 48	 mov	 QWORD PTR [rsp+72], rcx
  00302	48 8d 4c 24 70	 lea	 rcx, QWORD PTR si$[rsp]
  00307	48 89 4c 24 40	 mov	 QWORD PTR [rsp+64], rcx
  0030c	48 8b 8c 24 10
	02 00 00	 mov	 rcx, QWORD PTR exedir$[rsp]
  00314	48 89 4c 24 38	 mov	 QWORD PTR [rsp+56], rcx
  00319	48 c7 44 24 30
	00 00 00 00	 mov	 QWORD PTR [rsp+48], 0
  00322	8b 4c 24 54	 mov	 ecx, DWORD PTR flag$[rsp]
  00326	89 4c 24 28	 mov	 DWORD PTR [rsp+40], ecx
  0032a	8b 4c 24 50	 mov	 ecx, DWORD PTR Inherit$[rsp]
  0032e	89 4c 24 20	 mov	 DWORD PTR [rsp+32], ecx
  00332	45 33 c9	 xor	 r9d, r9d
  00335	45 33 c0	 xor	 r8d, r8d
  00338	48 8b d0	 mov	 rdx, rax
  0033b	33 c9		 xor	 ecx, ecx
  0033d	ff 15 00 00 00
	00		 call	 QWORD PTR __imp_CreateProcessA
  00343	85 c0		 test	 eax, eax
  00345	74 0d		 je	 SHORT $LN21@run
  00347	c7 84 24 e0 01
	00 00 00 00 00
	00		 mov	 DWORD PTR tv180[rsp], 0
  00352	eb 0b		 jmp	 SHORT $LN22@run
$LN21@run:
  00354	c7 84 24 e0 01
	00 00 01 00 00
	00		 mov	 DWORD PTR tv180[rsp], 1
$LN22@run:
  0035f	8b 84 24 e0 01
	00 00		 mov	 eax, DWORD PTR tv180[rsp]
  00366	89 84 24 98 01
	00 00		 mov	 DWORD PTR ret$[rsp], eax

; 108  :     m_phandle = m_pi.hProcess;

  0036d	48 8b 84 24 00
	02 00 00	 mov	 rax, QWORD PTR this$[rsp]
  00375	48 8b 8c 24 00
	02 00 00	 mov	 rcx, QWORD PTR this$[rsp]
  0037d	48 8b 49 10	 mov	 rcx, QWORD PTR [rcx+16]
  00381	48 89 48 08	 mov	 QWORD PTR [rax+8], rcx

; 109  :     if (pipes->stdOut.mode) {

  00385	48 8b 84 24 18
	02 00 00	 mov	 rax, QWORD PTR pipes$[rsp]
  0038d	83 78 28 00	 cmp	 DWORD PTR [rax+40], 0
  00391	74 3d		 je	 SHORT $LN11@run

; 110  :         CloseHandle(pipes->stdOut.h_write);

  00393	48 8b 84 24 18
	02 00 00	 mov	 rax, QWORD PTR pipes$[rsp]
  0039b	48 8b 48 20	 mov	 rcx, QWORD PTR [rax+32]
  0039f	ff 15 00 00 00
	00		 call	 QWORD PTR __imp_CloseHandle

; 111  :         if (ret) {

  003a5	83 bc 24 98 01
	00 00 00	 cmp	 DWORD PTR ret$[rsp], 0
  003ad	74 21		 je	 SHORT $LN11@run

; 112  :             CloseHandle(pipes->stdOut.h_read);

  003af	48 8b 84 24 18
	02 00 00	 mov	 rax, QWORD PTR pipes$[rsp]
  003b7	48 8b 48 18	 mov	 rcx, QWORD PTR [rax+24]
  003bb	ff 15 00 00 00
	00		 call	 QWORD PTR __imp_CloseHandle

; 113  :             pipes->stdOut.mode = PIPE_MODE_DISABLE;

  003c1	48 8b 84 24 18
	02 00 00	 mov	 rax, QWORD PTR pipes$[rsp]
  003c9	c7 40 28 00 00
	00 00		 mov	 DWORD PTR [rax+40], 0
$LN11@run:

; 114  :         }
; 115  :     }
; 116  :     if (pipes->stdErr.mode) {

  003d0	48 8b 84 24 18
	02 00 00	 mov	 rax, QWORD PTR pipes$[rsp]
  003d8	83 78 40 00	 cmp	 DWORD PTR [rax+64], 0
  003dc	74 4b		 je	 SHORT $LN13@run

; 117  :         if (pipes->stdErr.mode)

  003de	48 8b 84 24 18
	02 00 00	 mov	 rax, QWORD PTR pipes$[rsp]
  003e6	83 78 40 00	 cmp	 DWORD PTR [rax+64], 0
  003ea	74 12		 je	 SHORT $LN14@run

; 118  :             CloseHandle(pipes->stdErr.h_write);

  003ec	48 8b 84 24 18
	02 00 00	 mov	 rax, QWORD PTR pipes$[rsp]
  003f4	48 8b 48 38	 mov	 rcx, QWORD PTR [rax+56]
  003f8	ff 15 00 00 00
	00		 call	 QWORD PTR __imp_CloseHandle
$LN14@run:

; 119  :         if (ret) {

  003fe	83 bc 24 98 01
	00 00 00	 cmp	 DWORD PTR ret$[rsp], 0
  00406	74 21		 je	 SHORT $LN13@run

; 120  :             CloseHandle(pipes->stdErr.h_read);

  00408	48 8b 84 24 18
	02 00 00	 mov	 rax, QWORD PTR pipes$[rsp]
  00410	48 8b 48 30	 mov	 rcx, QWORD PTR [rax+48]
  00414	ff 15 00 00 00
	00		 call	 QWORD PTR __imp_CloseHandle

; 121  :             pipes->stdErr.mode = PIPE_MODE_DISABLE;

  0041a	48 8b 84 24 18
	02 00 00	 mov	 rax, QWORD PTR pipes$[rsp]
  00422	c7 40 40 00 00
	00 00		 mov	 DWORD PTR [rax+64], 0
$LN13@run:

; 122  :         }
; 123  :     }
; 124  :     if (pipes->stdIn.mode) {

  00429	48 8b 84 24 18
	02 00 00	 mov	 rax, QWORD PTR pipes$[rsp]
  00431	83 78 10 00	 cmp	 DWORD PTR [rax+16], 0
  00435	74 3c		 je	 SHORT $LN16@run

; 125  :         CloseHandle(pipes->stdIn.h_read);

  00437	48 8b 84 24 18
	02 00 00	 mov	 rax, QWORD PTR pipes$[rsp]
  0043f	48 8b 08	 mov	 rcx, QWORD PTR [rax]
  00442	ff 15 00 00 00
	00		 call	 QWORD PTR __imp_CloseHandle

; 126  :         if (ret) {

  00448	83 bc 24 98 01
	00 00 00	 cmp	 DWORD PTR ret$[rsp], 0
  00450	74 21		 je	 SHORT $LN16@run

; 127  :             CloseHandle(pipes->stdIn.h_write);

  00452	48 8b 84 24 18
	02 00 00	 mov	 rax, QWORD PTR pipes$[rsp]
  0045a	48 8b 48 08	 mov	 rcx, QWORD PTR [rax+8]
  0045e	ff 15 00 00 00
	00		 call	 QWORD PTR __imp_CloseHandle

; 128  :             pipes->stdIn.mode = PIPE_MODE_DISABLE;

  00464	48 8b 84 24 18
	02 00 00	 mov	 rax, QWORD PTR pipes$[rsp]
  0046c	c7 40 10 00 00
	00 00		 mov	 DWORD PTR [rax+16], 0
$LN16@run:

; 129  :         }
; 130  :     }
; 131  :     return ret;

  00473	8b 84 24 98 01
	00 00		 mov	 eax, DWORD PTR ret$[rsp]
  0047a	89 84 24 a8 01
	00 00		 mov	 DWORD PTR $T11[rsp], eax
  00481	48 8d 8c 24 f8
	00 00 00	 lea	 rcx, QWORD PTR cmd_line$[rsp]
  00489	e8 00 00 00 00	 call	 ??1?$basic_string@DU?$char_traits@D@std@@V?$allocator@D@2@@std@@QEAA@XZ ; std::basic_string<char,std::char_traits<char>,std::allocator<char> >::~basic_string<char,std::char_traits<char>,std::allocator<char> >
  0048e	8b 84 24 a8 01
	00 00		 mov	 eax, DWORD PTR $T11[rsp]

; 132  : }

  00495	8b f8		 mov	 edi, eax
  00497	48 8b cc	 mov	 rcx, rsp
  0049a	48 8d 15 00 00
	00 00		 lea	 rdx, OFFSET FLAT:?run@RGYPipeProcessWin@@UEAAHAEBV?$vector@PEBDV?$allocator@PEBD@std@@@std@@PEBDPEAUProcessPipe@@I_N3@Z$rtcFrameData
  004a1	e8 00 00 00 00	 call	 _RTC_CheckStackVars
  004a6	8b c7		 mov	 eax, edi
  004a8	48 8b 8c 24 e8
	01 00 00	 mov	 rcx, QWORD PTR __$ArrayPad$[rsp]
  004b0	48 33 cc	 xor	 rcx, rsp
  004b3	e8 00 00 00 00	 call	 __security_check_cookie
  004b8	48 81 c4 f0 01
	00 00		 add	 rsp, 496		; 000001f0H
  004bf	5f		 pop	 rdi
  004c0	c3		 ret	 0
?run@RGYPipeProcessWin@@UEAAHAEBV?$vector@PEBDV?$allocator@PEBD@std@@@std@@PEBDPEAUProcessPipe@@I_N3@Z ENDP ; RGYPipeProcessWin::run
_TEXT	ENDS
text$x	SEGMENT
Inherit$ = 80
flag$ = 84
si$ = 112
cmd_line$ = 248
<range>$L0$5 = 296
<begin>$L0$6 = 304
<end>$L0$7 = 312
arg$8 = 320
$T9 = 328
$T10 = 368
ret$ = 408
$T11 = 424
tv94 = 432
tv143 = 440
tv229 = 448
tv233 = 456
tv231 = 464
tv166 = 472
tv180 = 480
__$ArrayPad$ = 488
this$ = 512
args$ = 520
exedir$ = 528
pipes$ = 536
priority$ = 544
hidden$ = 552
minimized$ = 560
?dtor$0@?0??run@RGYPipeProcessWin@@UEAAHAEBV?$vector@PEBDV?$allocator@PEBD@std@@@std@@PEBDPEAUProcessPipe@@I_N3@Z@4HA PROC ; `RGYPipeProcessWin::run'::`1'::dtor$0
  00000	48 89 4c 24 08	 mov	 QWORD PTR [rsp+8], rcx
  00005	48 89 54 24 10	 mov	 QWORD PTR [rsp+16], rdx
  0000a	55		 push	 rbp
  0000b	57		 push	 rdi
  0000c	48 83 ec 28	 sub	 rsp, 40			; 00000028H
  00010	48 8b ea	 mov	 rbp, rdx
  00013	48 8d 8d f8 00
	00 00		 lea	 rcx, QWORD PTR cmd_line$[rbp]
  0001a	e8 00 00 00 00	 call	 ??1?$basic_string@DU?$char_traits@D@std@@V?$allocator@D@2@@std@@QEAA@XZ ; std::basic_string<char,std::char_traits<char>,std::allocator<char> >::~basic_string<char,std::char_traits<char>,std::allocator<char> >
  0001f	48 83 c4 28	 add	 rsp, 40			; 00000028H
  00023	5f		 pop	 rdi
  00024	5d		 pop	 rbp
  00025	c3		 ret	 0
?dtor$0@?0??run@RGYPipeProcessWin@@UEAAHAEBV?$vector@PEBDV?$allocator@PEBD@std@@@std@@PEBDPEAUProcessPipe@@I_N3@Z@4HA ENDP ; `RGYPipeProcessWin::run'::`1'::dtor$0
Inherit$ = 80
flag$ = 84
si$ = 112
cmd_line$ = 248
<range>$L0$5 = 296
<begin>$L0$6 = 304
<end>$L0$7 = 312
arg$8 = 320
$T9 = 328
$T10 = 368
ret$ = 408
$T11 = 424
tv94 = 432
tv143 = 440
tv229 = 448
tv233 = 456
tv231 = 464
tv166 = 472
tv180 = 480
__$ArrayPad$ = 488
this$ = 512
args$ = 520
exedir$ = 528
pipes$ = 536
priority$ = 544
hidden$ = 552
minimized$ = 560
?dtor$1@?0??run@RGYPipeProcessWin@@UEAAHAEBV?$vector@PEBDV?$allocator@PEBD@std@@@std@@PEBDPEAUProcessPipe@@I_N3@Z@4HA PROC ; `RGYPipeProcessWin::run'::`1'::dtor$1
  00026	48 89 4c 24 08	 mov	 QWORD PTR [rsp+8], rcx
  0002b	48 89 54 24 10	 mov	 QWORD PTR [rsp+16], rdx
  00030	55		 push	 rbp
  00031	57		 push	 rdi
  00032	48 83 ec 28	 sub	 rsp, 40			; 00000028H
  00036	48 8b ea	 mov	 rbp, rdx
  00039	48 8d 8d 48 01
	00 00		 lea	 rcx, QWORD PTR $T9[rbp]
  00040	e8 00 00 00 00	 call	 ??1?$basic_string@DU?$char_traits@D@std@@V?$allocator@D@2@@std@@QEAA@XZ ; std::basic_string<char,std::char_traits<char>,std::allocator<char> >::~basic_string<char,std::char_traits<char>,std::allocator<char> >
  00045	48 83 c4 28	 add	 rsp, 40			; 00000028H
  00049	5f		 pop	 rdi
  0004a	5d		 pop	 rbp
  0004b	c3		 ret	 0
?dtor$1@?0??run@RGYPipeProcessWin@@UEAAHAEBV?$vector@PEBDV?$allocator@PEBD@std@@@std@@PEBDPEAUProcessPipe@@I_N3@Z@4HA ENDP ; `RGYPipeProcessWin::run'::`1'::dtor$1
Inherit$ = 80
flag$ = 84
si$ = 112
cmd_line$ = 248
<range>$L0$5 = 296
<begin>$L0$6 = 304
<end>$L0$7 = 312
arg$8 = 320
$T9 = 328
$T10 = 368
ret$ = 408
$T11 = 424
tv94 = 432
tv143 = 440
tv229 = 448
tv233 = 456
tv231 = 464
tv166 = 472
tv180 = 480
__$ArrayPad$ = 488
this$ = 512
args$ = 520
exedir$ = 528
pipes$ = 536
priority$ = 544
hidden$ = 552
minimized$ = 560
?dtor$2@?0??run@RGYPipeProcessWin@@UEAAHAEBV?$vector@PEBDV?$allocator@PEBD@std@@@std@@PEBDPEAUProcessPipe@@I_N3@Z@4HA PROC ; `RGYPipeProcessWin::run'::`1'::dtor$2
  0004c	48 89 4c 24 08	 mov	 QWORD PTR [rsp+8], rcx
  00051	48 89 54 24 10	 mov	 QWORD PTR [rsp+16], rdx
  00056	55		 push	 rbp
  00057	57		 push	 rdi
  00058	48 83 ec 28	 sub	 rsp, 40			; 00000028H
  0005c	48 8b ea	 mov	 rbp, rdx
  0005f	48 8d 8d 70 01
	00 00		 lea	 rcx, QWORD PTR $T10[rbp]
  00066	e8 00 00 00 00	 call	 ??1?$basic_string@DU?$char_traits@D@std@@V?$allocator@D@2@@std@@QEAA@XZ ; std::basic_string<char,std::char_traits<char>,std::allocator<char> >::~basic_string<char,std::char_traits<char>,std::allocator<char> >
  0006b	48 83 c4 28	 add	 rsp, 40			; 00000028H
  0006f	5f		 pop	 rdi
  00070	5d		 pop	 rbp
  00071	c3		 ret	 0
?dtor$2@?0??run@RGYPipeProcessWin@@UEAAHAEBV?$vector@PEBDV?$allocator@PEBD@std@@@std@@PEBDPEAUProcessPipe@@I_N3@Z@4HA ENDP ; `RGYPipeProcessWin::run'::`1'::dtor$2
text$x	ENDS
; Function compile flags: /Odtp /RTCsu
text$x	SEGMENT
Inherit$ = 80
flag$ = 84
si$ = 112
cmd_line$ = 248
<range>$L0$5 = 296
<begin>$L0$6 = 304
<end>$L0$7 = 312
arg$8 = 320
$T9 = 328
$T10 = 368
ret$ = 408
$T11 = 424
tv94 = 432
tv143 = 440
tv229 = 448
tv233 = 456
tv231 = 464
tv166 = 472
tv180 = 480
__$ArrayPad$ = 488
this$ = 512
args$ = 520
exedir$ = 528
pipes$ = 536
priority$ = 544
hidden$ = 552
minimized$ = 560
?dtor$0@?0??run@RGYPipeProcessWin@@UEAAHAEBV?$vector@PEBDV?$allocator@PEBD@std@@@std@@PEBDPEAUProcessPipe@@I_N3@Z@4HA PROC ; `RGYPipeProcessWin::run'::`1'::dtor$0
  00000	48 89 4c 24 08	 mov	 QWORD PTR [rsp+8], rcx
  00005	48 89 54 24 10	 mov	 QWORD PTR [rsp+16], rdx
  0000a	55		 push	 rbp
  0000b	57		 push	 rdi
  0000c	48 83 ec 28	 sub	 rsp, 40			; 00000028H
  00010	48 8b ea	 mov	 rbp, rdx
  00013	48 8d 8d f8 00
	00 00		 lea	 rcx, QWORD PTR cmd_line$[rbp]
  0001a	e8 00 00 00 00	 call	 ??1?$basic_string@DU?$char_traits@D@std@@V?$allocator@D@2@@std@@QEAA@XZ ; std::basic_string<char,std::char_traits<char>,std::allocator<char> >::~basic_string<char,std::char_traits<char>,std::allocator<char> >
  0001f	48 83 c4 28	 add	 rsp, 40			; 00000028H
  00023	5f		 pop	 rdi
  00024	5d		 pop	 rbp
  00025	c3		 ret	 0
?dtor$0@?0??run@RGYPipeProcessWin@@UEAAHAEBV?$vector@PEBDV?$allocator@PEBD@std@@@std@@PEBDPEAUProcessPipe@@I_N3@Z@4HA ENDP ; `RGYPipeProcessWin::run'::`1'::dtor$0
text$x	ENDS
; Function compile flags: /Odtp /RTCsu
text$x	SEGMENT
Inherit$ = 80
flag$ = 84
si$ = 112
cmd_line$ = 248
<range>$L0$5 = 296
<begin>$L0$6 = 304
<end>$L0$7 = 312
arg$8 = 320
$T9 = 328
$T10 = 368
ret$ = 408
$T11 = 424
tv94 = 432
tv143 = 440
tv229 = 448
tv233 = 456
tv231 = 464
tv166 = 472
tv180 = 480
__$ArrayPad$ = 488
this$ = 512
args$ = 520
exedir$ = 528
pipes$ = 536
priority$ = 544
hidden$ = 552
minimized$ = 560
?dtor$1@?0??run@RGYPipeProcessWin@@UEAAHAEBV?$vector@PEBDV?$allocator@PEBD@std@@@std@@PEBDPEAUProcessPipe@@I_N3@Z@4HA PROC ; `RGYPipeProcessWin::run'::`1'::dtor$1
  00026	48 89 4c 24 08	 mov	 QWORD PTR [rsp+8], rcx
  0002b	48 89 54 24 10	 mov	 QWORD PTR [rsp+16], rdx
  00030	55		 push	 rbp
  00031	57		 push	 rdi
  00032	48 83 ec 28	 sub	 rsp, 40			; 00000028H
  00036	48 8b ea	 mov	 rbp, rdx
  00039	48 8d 8d 48 01
	00 00		 lea	 rcx, QWORD PTR $T9[rbp]
  00040	e8 00 00 00 00	 call	 ??1?$basic_string@DU?$char_traits@D@std@@V?$allocator@D@2@@std@@QEAA@XZ ; std::basic_string<char,std::char_traits<char>,std::allocator<char> >::~basic_string<char,std::char_traits<char>,std::allocator<char> >
  00045	48 83 c4 28	 add	 rsp, 40			; 00000028H
  00049	5f		 pop	 rdi
  0004a	5d		 pop	 rbp
  0004b	c3		 ret	 0
?dtor$1@?0??run@RGYPipeProcessWin@@UEAAHAEBV?$vector@PEBDV?$allocator@PEBD@std@@@std@@PEBDPEAUProcessPipe@@I_N3@Z@4HA ENDP ; `RGYPipeProcessWin::run'::`1'::dtor$1
text$x	ENDS
; Function compile flags: /Odtp /RTCsu
text$x	SEGMENT
Inherit$ = 80
flag$ = 84
si$ = 112
cmd_line$ = 248
<range>$L0$5 = 296
<begin>$L0$6 = 304
<end>$L0$7 = 312
arg$8 = 320
$T9 = 328
$T10 = 368
ret$ = 408
$T11 = 424
tv94 = 432
tv143 = 440
tv229 = 448
tv233 = 456
tv231 = 464
tv166 = 472
tv180 = 480
__$ArrayPad$ = 488
this$ = 512
args$ = 520
exedir$ = 528
pipes$ = 536
priority$ = 544
hidden$ = 552
minimized$ = 560
?dtor$2@?0??run@RGYPipeProcessWin@@UEAAHAEBV?$vector@PEBDV?$allocator@PEBD@std@@@std@@PEBDPEAUProcessPipe@@I_N3@Z@4HA PROC ; `RGYPipeProcessWin::run'::`1'::dtor$2
  0004c	48 89 4c 24 08	 mov	 QWORD PTR [rsp+8], rcx
  00051	48 89 54 24 10	 mov	 QWORD PTR [rsp+16], rdx
  00056	55		 push	 rbp
  00057	57		 push	 rdi
  00058	48 83 ec 28	 sub	 rsp, 40			; 00000028H
  0005c	48 8b ea	 mov	 rbp, rdx
  0005f	48 8d 8d 70 01
	00 00		 lea	 rcx, QWORD PTR $T10[rbp]
  00066	e8 00 00 00 00	 call	 ??1?$basic_string@DU?$char_traits@D@std@@V?$allocator@D@2@@std@@QEAA@XZ ; std::basic_string<char,std::char_traits<char>,std::allocator<char> >::~basic_string<char,std::char_traits<char>,std::allocator<char> >
  0006b	48 83 c4 28	 add	 rsp, 40			; 00000028H
  0006f	5f		 pop	 rdi
  00070	5d		 pop	 rbp
  00071	c3		 ret	 0
?dtor$2@?0??run@RGYPipeProcessWin@@UEAAHAEBV?$vector@PEBDV?$allocator@PEBD@std@@@std@@PEBDPEAUProcessPipe@@I_N3@Z@4HA ENDP ; `RGYPipeProcessWin::run'::`1'::dtor$2
text$x	ENDS
; Function compile flags: /Odtp /RTCsu
; File D:\work\intel\intel_codec\QSVPipeline\rgy_pipe.cpp
_TEXT	SEGMENT
this$ = 48
?init@RGYPipeProcessWin@@UEAAXXZ PROC			; RGYPipeProcessWin::init

; 46   : void RGYPipeProcessWin::init() {

$LN3:
  00000	48 89 4c 24 08	 mov	 QWORD PTR [rsp+8], rcx
  00005	57		 push	 rdi
  00006	48 83 ec 20	 sub	 rsp, 32			; 00000020H
  0000a	48 8b fc	 mov	 rdi, rsp
  0000d	b9 08 00 00 00	 mov	 ecx, 8
  00012	b8 cc cc cc cc	 mov	 eax, -858993460		; ccccccccH
  00017	f3 ab		 rep stosd
  00019	48 8b 4c 24 30	 mov	 rcx, QWORD PTR [rsp+48]

; 47   :     close();

  0001e	48 8b 44 24 30	 mov	 rax, QWORD PTR this$[rsp]
  00023	48 8b 00	 mov	 rax, QWORD PTR [rax]
  00026	48 8b 4c 24 30	 mov	 rcx, QWORD PTR this$[rsp]
  0002b	ff 50 18	 call	 QWORD PTR [rax+24]

; 48   : }

  0002e	48 83 c4 20	 add	 rsp, 32			; 00000020H
  00032	5f		 pop	 rdi
  00033	c3		 ret	 0
?init@RGYPipeProcessWin@@UEAAXXZ ENDP			; RGYPipeProcessWin::init
_TEXT	ENDS
; Function compile flags: /Odtp /RTCsu
; File D:\work\intel\intel_codec\QSVPipeline\rgy_pipe.cpp
_TEXT	SEGMENT
this$ = 48
??1RGYPipeProcessWin@@UEAA@XZ PROC			; RGYPipeProcessWin::~RGYPipeProcessWin

; 42   : RGYPipeProcessWin::~RGYPipeProcessWin() {

$LN4:
  00000	48 89 4c 24 08	 mov	 QWORD PTR [rsp+8], rcx
  00005	57		 push	 rdi
  00006	48 83 ec 20	 sub	 rsp, 32			; 00000020H
  0000a	48 8b fc	 mov	 rdi, rsp
  0000d	b9 08 00 00 00	 mov	 ecx, 8
  00012	b8 cc cc cc cc	 mov	 eax, -858993460		; ccccccccH
  00017	f3 ab		 rep stosd
  00019	48 8b 4c 24 30	 mov	 rcx, QWORD PTR [rsp+48]
  0001e	48 8b 44 24 30	 mov	 rax, QWORD PTR this$[rsp]
  00023	48 8d 0d 00 00
	00 00		 lea	 rcx, OFFSET FLAT:??_7RGYPipeProcessWin@@6B@
  0002a	48 89 08	 mov	 QWORD PTR [rax], rcx

; 43   : 
; 44   : }

  0002d	48 8b 4c 24 30	 mov	 rcx, QWORD PTR this$[rsp]
  00032	e8 00 00 00 00	 call	 ??1RGYPipeProcess@@UEAA@XZ ; RGYPipeProcess::~RGYPipeProcess
  00037	90		 npad	 1
  00038	48 83 c4 20	 add	 rsp, 32			; 00000020H
  0003c	5f		 pop	 rdi
  0003d	c3		 ret	 0
??1RGYPipeProcessWin@@UEAA@XZ ENDP			; RGYPipeProcessWin::~RGYPipeProcessWin
_TEXT	ENDS
text$x	SEGMENT
this$ = 48
?dtor$0@?0???1RGYPipeProcessWin@@UEAA@XZ@4HA PROC	; `RGYPipeProcessWin::~RGYPipeProcessWin'::`1'::dtor$0
  00000	48 89 4c 24 08	 mov	 QWORD PTR [rsp+8], rcx
  00005	48 89 54 24 10	 mov	 QWORD PTR [rsp+16], rdx
  0000a	55		 push	 rbp
  0000b	57		 push	 rdi
  0000c	48 83 ec 28	 sub	 rsp, 40			; 00000028H
  00010	48 8b ea	 mov	 rbp, rdx
  00013	48 8b 4d 30	 mov	 rcx, QWORD PTR this$[rbp]
  00017	e8 00 00 00 00	 call	 ??1RGYPipeProcess@@UEAA@XZ ; RGYPipeProcess::~RGYPipeProcess
  0001c	48 83 c4 28	 add	 rsp, 40			; 00000028H
  00020	5f		 pop	 rdi
  00021	5d		 pop	 rbp
  00022	c3		 ret	 0
?dtor$0@?0???1RGYPipeProcessWin@@UEAA@XZ@4HA ENDP	; `RGYPipeProcessWin::~RGYPipeProcessWin'::`1'::dtor$0
text$x	ENDS
; Function compile flags: /Odtp /RTCsu
text$x	SEGMENT
this$ = 48
?dtor$0@?0???1RGYPipeProcessWin@@UEAA@XZ@4HA PROC	; `RGYPipeProcessWin::~RGYPipeProcessWin'::`1'::dtor$0
  00000	48 89 4c 24 08	 mov	 QWORD PTR [rsp+8], rcx
  00005	48 89 54 24 10	 mov	 QWORD PTR [rsp+16], rdx
  0000a	55		 push	 rbp
  0000b	57		 push	 rdi
  0000c	48 83 ec 28	 sub	 rsp, 40			; 00000028H
  00010	48 8b ea	 mov	 rbp, rdx
  00013	48 8b 4d 30	 mov	 rcx, QWORD PTR this$[rbp]
  00017	e8 00 00 00 00	 call	 ??1RGYPipeProcess@@UEAA@XZ ; RGYPipeProcess::~RGYPipeProcess
  0001c	48 83 c4 28	 add	 rsp, 40			; 00000028H
  00020	5f		 pop	 rdi
  00021	5d		 pop	 rbp
  00022	c3		 ret	 0
?dtor$0@?0???1RGYPipeProcessWin@@UEAA@XZ@4HA ENDP	; `RGYPipeProcessWin::~RGYPipeProcessWin'::`1'::dtor$0
text$x	ENDS
; Function compile flags: /Odtp /RTCsu
; File D:\work\intel\intel_codec\QSVPipeline\rgy_pipe.cpp
_TEXT	SEGMENT
this$ = 48
??0RGYPipeProcessWin@@QEAA@XZ PROC			; RGYPipeProcessWin::RGYPipeProcessWin

; 38   : RGYPipeProcessWin::RGYPipeProcessWin() {

$LN4:
  00000	48 89 4c 24 08	 mov	 QWORD PTR [rsp+8], rcx
  00005	57		 push	 rdi
  00006	48 83 ec 20	 sub	 rsp, 32			; 00000020H
  0000a	48 8b fc	 mov	 rdi, rsp
  0000d	b9 08 00 00 00	 mov	 ecx, 8
  00012	b8 cc cc cc cc	 mov	 eax, -858993460		; ccccccccH
  00017	f3 ab		 rep stosd
  00019	48 8b 4c 24 30	 mov	 rcx, QWORD PTR [rsp+48]
  0001e	48 8b 4c 24 30	 mov	 rcx, QWORD PTR this$[rsp]
  00023	e8 00 00 00 00	 call	 ??0RGYPipeProcess@@QEAA@XZ ; RGYPipeProcess::RGYPipeProcess
  00028	90		 npad	 1
  00029	48 8b 44 24 30	 mov	 rax, QWORD PTR this$[rsp]
  0002e	48 8d 0d 00 00
	00 00		 lea	 rcx, OFFSET FLAT:??_7RGYPipeProcessWin@@6B@
  00035	48 89 08	 mov	 QWORD PTR [rax], rcx

; 39   :     memset(&m_pi, 0, sizeof(m_pi));

  00038	48 8b 44 24 30	 mov	 rax, QWORD PTR this$[rsp]
  0003d	48 83 c0 10	 add	 rax, 16
  00041	41 b8 18 00 00
	00		 mov	 r8d, 24
  00047	33 d2		 xor	 edx, edx
  00049	48 8b c8	 mov	 rcx, rax
  0004c	e8 00 00 00 00	 call	 memset
  00051	90		 npad	 1

; 40   : }

  00052	48 8b 44 24 30	 mov	 rax, QWORD PTR this$[rsp]
  00057	48 83 c4 20	 add	 rsp, 32			; 00000020H
  0005b	5f		 pop	 rdi
  0005c	c3		 ret	 0
??0RGYPipeProcessWin@@QEAA@XZ ENDP			; RGYPipeProcessWin::RGYPipeProcessWin
_TEXT	ENDS
text$x	SEGMENT
this$ = 48
?dtor$0@?0???0RGYPipeProcessWin@@QEAA@XZ@4HA PROC	; `RGYPipeProcessWin::RGYPipeProcessWin'::`1'::dtor$0
  00000	48 89 4c 24 08	 mov	 QWORD PTR [rsp+8], rcx
  00005	48 89 54 24 10	 mov	 QWORD PTR [rsp+16], rdx
  0000a	55		 push	 rbp
  0000b	57		 push	 rdi
  0000c	48 83 ec 28	 sub	 rsp, 40			; 00000028H
  00010	48 8b ea	 mov	 rbp, rdx
  00013	48 8b 4d 30	 mov	 rcx, QWORD PTR this$[rbp]
  00017	e8 00 00 00 00	 call	 ??1RGYPipeProcess@@UEAA@XZ ; RGYPipeProcess::~RGYPipeProcess
  0001c	48 83 c4 28	 add	 rsp, 40			; 00000028H
  00020	5f		 pop	 rdi
  00021	5d		 pop	 rbp
  00022	c3		 ret	 0
?dtor$0@?0???0RGYPipeProcessWin@@QEAA@XZ@4HA ENDP	; `RGYPipeProcessWin::RGYPipeProcessWin'::`1'::dtor$0
text$x	ENDS
; Function compile flags: /Odtp /RTCsu
text$x	SEGMENT
this$ = 48
?dtor$0@?0???0RGYPipeProcessWin@@QEAA@XZ@4HA PROC	; `RGYPipeProcessWin::RGYPipeProcessWin'::`1'::dtor$0
  00000	48 89 4c 24 08	 mov	 QWORD PTR [rsp+8], rcx
  00005	48 89 54 24 10	 mov	 QWORD PTR [rsp+16], rdx
  0000a	55		 push	 rbp
  0000b	57		 push	 rdi
  0000c	48 83 ec 28	 sub	 rsp, 40			; 00000028H
  00010	48 8b ea	 mov	 rbp, rdx
  00013	48 8b 4d 30	 mov	 rcx, QWORD PTR this$[rbp]
  00017	e8 00 00 00 00	 call	 ??1RGYPipeProcess@@UEAA@XZ ; RGYPipeProcess::~RGYPipeProcess
  0001c	48 83 c4 28	 add	 rsp, 40			; 00000028H
  00020	5f		 pop	 rdi
  00021	5d		 pop	 rbp
  00022	c3		 ret	 0
?dtor$0@?0???0RGYPipeProcessWin@@QEAA@XZ@4HA ENDP	; `RGYPipeProcessWin::RGYPipeProcessWin'::`1'::dtor$0
text$x	ENDS
; Function compile flags: /Odtp /RTCsu
;	COMDAT ??_GRGYPipeProcess@@UEAAPEAXI@Z
_TEXT	SEGMENT
this$ = 48
__flags$ = 56
??_GRGYPipeProcess@@UEAAPEAXI@Z PROC			; RGYPipeProcess::`scalar deleting destructor', COMDAT
$LN4:
  00000	89 54 24 10	 mov	 DWORD PTR [rsp+16], edx
  00004	48 89 4c 24 08	 mov	 QWORD PTR [rsp+8], rcx
  00009	57		 push	 rdi
  0000a	48 83 ec 20	 sub	 rsp, 32			; 00000020H
  0000e	48 8b fc	 mov	 rdi, rsp
  00011	b9 08 00 00 00	 mov	 ecx, 8
  00016	b8 cc cc cc cc	 mov	 eax, -858993460		; ccccccccH
  0001b	f3 ab		 rep stosd
  0001d	48 8b 4c 24 30	 mov	 rcx, QWORD PTR [rsp+48]
  00022	48 8b 4c 24 30	 mov	 rcx, QWORD PTR this$[rsp]
  00027	e8 00 00 00 00	 call	 ??1RGYPipeProcess@@UEAA@XZ ; RGYPipeProcess::~RGYPipeProcess
  0002c	8b 44 24 38	 mov	 eax, DWORD PTR __flags$[rsp]
  00030	83 e0 01	 and	 eax, 1
  00033	85 c0		 test	 eax, eax
  00035	74 0f		 je	 SHORT $LN2@scalar
  00037	ba 10 00 00 00	 mov	 edx, 16
  0003c	48 8b 4c 24 30	 mov	 rcx, QWORD PTR this$[rsp]
  00041	e8 00 00 00 00	 call	 ??3@YAXPEAX_K@Z		; operator delete
$LN2@scalar:
  00046	48 8b 44 24 30	 mov	 rax, QWORD PTR this$[rsp]
  0004b	48 83 c4 20	 add	 rsp, 32			; 00000020H
  0004f	5f		 pop	 rdi
  00050	c3		 ret	 0
??_GRGYPipeProcess@@UEAAPEAXI@Z ENDP			; RGYPipeProcess::`scalar deleting destructor'
_TEXT	ENDS
; Function compile flags: /Odtp /RTCsu
; File D:\work\intel\intel_codec\QSVPipeline\rgy_pipe.h
;	COMDAT ??1RGYPipeProcess@@UEAA@XZ
_TEXT	SEGMENT
this$ = 16
??1RGYPipeProcess@@UEAA@XZ PROC				; RGYPipeProcess::~RGYPipeProcess, COMDAT

; 73   :     virtual ~RGYPipeProcess() { };

$LN3:
  00000	48 89 4c 24 08	 mov	 QWORD PTR [rsp+8], rcx
  00005	57		 push	 rdi
  00006	48 8b 44 24 10	 mov	 rax, QWORD PTR this$[rsp]
  0000b	48 8d 0d 00 00
	00 00		 lea	 rcx, OFFSET FLAT:??_7RGYPipeProcess@@6B@
  00012	48 89 08	 mov	 QWORD PTR [rax], rcx
  00015	5f		 pop	 rdi
  00016	c3		 ret	 0
??1RGYPipeProcess@@UEAA@XZ ENDP				; RGYPipeProcess::~RGYPipeProcess
_TEXT	ENDS
; Function compile flags: /Odtp /RTCsu
; File D:\work\intel\intel_codec\QSVPipeline\rgy_pipe.h
;	COMDAT ??0RGYPipeProcess@@QEAA@XZ
_TEXT	SEGMENT
this$ = 16
??0RGYPipeProcess@@QEAA@XZ PROC				; RGYPipeProcess::RGYPipeProcess, COMDAT

; 72   :     RGYPipeProcess() : m_phandle(0) { };

$LN3:
  00000	48 89 4c 24 08	 mov	 QWORD PTR [rsp+8], rcx
  00005	57		 push	 rdi
  00006	48 8b 44 24 10	 mov	 rax, QWORD PTR this$[rsp]
  0000b	48 8d 0d 00 00
	00 00		 lea	 rcx, OFFSET FLAT:??_7RGYPipeProcess@@6B@
  00012	48 89 08	 mov	 QWORD PTR [rax], rcx
  00015	48 8b 44 24 10	 mov	 rax, QWORD PTR this$[rsp]
  0001a	48 c7 40 08 00
	00 00 00	 mov	 QWORD PTR [rax+8], 0
  00022	48 8b 44 24 10	 mov	 rax, QWORD PTR this$[rsp]
  00027	5f		 pop	 rdi
  00028	c3		 ret	 0
??0RGYPipeProcess@@QEAA@XZ ENDP				; RGYPipeProcess::RGYPipeProcess
_TEXT	ENDS
; Function compile flags: /Odtp /RTCsu
; File C:\Program Files (x86)\Microsoft Visual Studio\2019\Community\VC\Tools\MSVC\14.23.28105\include\xmemory
;	COMDAT ?_Release@_Basic_container_proxy_ptr12@std@@QEAAXXZ
_TEXT	SEGMENT
this$ = 16
?_Release@_Basic_container_proxy_ptr12@std@@QEAAXXZ PROC ; std::_Basic_container_proxy_ptr12::_Release, COMDAT

; 1348 :     void _Release() noexcept { // disengage this _Basic_container_proxy_ptr12

$LN3:
  00000	48 89 4c 24 08	 mov	 QWORD PTR [rsp+8], rcx
  00005	57		 push	 rdi

; 1349 :         _Ptr = nullptr;

  00006	48 8b 44 24 10	 mov	 rax, QWORD PTR this$[rsp]
  0000b	48 c7 00 00 00
	00 00		 mov	 QWORD PTR [rax], 0

; 1350 :     }

  00012	5f		 pop	 rdi
  00013	c3		 ret	 0
?_Release@_Basic_container_proxy_ptr12@std@@QEAAXXZ ENDP ; std::_Basic_container_proxy_ptr12::_Release
_TEXT	ENDS
; Function compile flags: /Odtp /RTCsu
; File C:\Program Files (x86)\Microsoft Visual Studio\2019\Community\VC\Tools\MSVC\14.23.28105\include\xmemory
;	COMDAT ?_Swap_proxy_and_iterators@_Container_base12@std@@QEAAXAEAU12@@Z
_TEXT	SEGMENT
_Lock$ = 36
_Temp$ = 56
this$ = 80
_Right$ = 88
?_Swap_proxy_and_iterators@_Container_base12@std@@QEAAXAEAU12@@Z PROC ; std::_Container_base12::_Swap_proxy_and_iterators, COMDAT

; 1302 : inline void _Container_base12::_Swap_proxy_and_iterators(_Container_base12& _Right) noexcept {

$LN6:
  00000	48 89 54 24 10	 mov	 QWORD PTR [rsp+16], rdx
  00005	48 89 4c 24 08	 mov	 QWORD PTR [rsp+8], rcx
  0000a	57		 push	 rdi
  0000b	48 83 ec 40	 sub	 rsp, 64			; 00000040H
  0000f	48 8b fc	 mov	 rdi, rsp
  00012	b9 10 00 00 00	 mov	 ecx, 16
  00017	b8 cc cc cc cc	 mov	 eax, -858993460		; ccccccccH
  0001c	f3 ab		 rep stosd
  0001e	48 8b 4c 24 50	 mov	 rcx, QWORD PTR [rsp+80]

; 1303 : #if _ITERATOR_DEBUG_LEVEL == 2
; 1304 :     _Lockit _Lock(_LOCK_DEBUG);

  00023	ba 03 00 00 00	 mov	 edx, 3
  00028	48 8d 4c 24 24	 lea	 rcx, QWORD PTR _Lock$[rsp]
  0002d	ff 15 00 00 00
	00		 call	 QWORD PTR __imp_??0_Lockit@std@@QEAA@H@Z
  00033	90		 npad	 1

; 1305 : #endif // _ITERATOR_DEBUG_LEVEL == 2
; 1306 : 
; 1307 :     _Container_proxy* _Temp = _Myproxy;

  00034	48 8b 44 24 50	 mov	 rax, QWORD PTR this$[rsp]
  00039	48 8b 00	 mov	 rax, QWORD PTR [rax]
  0003c	48 89 44 24 38	 mov	 QWORD PTR _Temp$[rsp], rax

; 1308 :     _Myproxy                = _Right._Myproxy;

  00041	48 8b 44 24 50	 mov	 rax, QWORD PTR this$[rsp]
  00046	48 8b 4c 24 58	 mov	 rcx, QWORD PTR _Right$[rsp]
  0004b	48 8b 09	 mov	 rcx, QWORD PTR [rcx]
  0004e	48 89 08	 mov	 QWORD PTR [rax], rcx

; 1309 :     _Right._Myproxy         = _Temp;

  00051	48 8b 44 24 58	 mov	 rax, QWORD PTR _Right$[rsp]
  00056	48 8b 4c 24 38	 mov	 rcx, QWORD PTR _Temp$[rsp]
  0005b	48 89 08	 mov	 QWORD PTR [rax], rcx

; 1310 : 
; 1311 :     if (_Myproxy) {

  0005e	48 8b 44 24 50	 mov	 rax, QWORD PTR this$[rsp]
  00063	48 83 38 00	 cmp	 QWORD PTR [rax], 0
  00067	74 10		 je	 SHORT $LN2@Swap_proxy

; 1312 :         _Myproxy->_Mycont = this;

  00069	48 8b 44 24 50	 mov	 rax, QWORD PTR this$[rsp]
  0006e	48 8b 00	 mov	 rax, QWORD PTR [rax]
  00071	48 8b 4c 24 50	 mov	 rcx, QWORD PTR this$[rsp]
  00076	48 89 08	 mov	 QWORD PTR [rax], rcx
$LN2@Swap_proxy:

; 1313 :     }
; 1314 : 
; 1315 :     if (_Right._Myproxy) {

  00079	48 8b 44 24 58	 mov	 rax, QWORD PTR _Right$[rsp]
  0007e	48 83 38 00	 cmp	 QWORD PTR [rax], 0
  00082	74 10		 je	 SHORT $LN3@Swap_proxy

; 1316 :         _Right._Myproxy->_Mycont = &_Right;

  00084	48 8b 44 24 58	 mov	 rax, QWORD PTR _Right$[rsp]
  00089	48 8b 00	 mov	 rax, QWORD PTR [rax]
  0008c	48 8b 4c 24 58	 mov	 rcx, QWORD PTR _Right$[rsp]
  00091	48 89 08	 mov	 QWORD PTR [rax], rcx
$LN3@Swap_proxy:

; 1317 :     }
; 1318 : }

  00094	48 8d 4c 24 24	 lea	 rcx, QWORD PTR _Lock$[rsp]
  00099	ff 15 00 00 00
	00		 call	 QWORD PTR __imp_??1_Lockit@std@@QEAA@XZ
  0009f	90		 npad	 1
  000a0	48 8b cc	 mov	 rcx, rsp
  000a3	48 8d 15 00 00
	00 00		 lea	 rdx, OFFSET FLAT:?_Swap_proxy_and_iterators@_Container_base12@std@@QEAAXAEAU12@@Z$rtcFrameData
  000aa	e8 00 00 00 00	 call	 _RTC_CheckStackVars
  000af	90		 npad	 1
  000b0	48 83 c4 40	 add	 rsp, 64			; 00000040H
  000b4	5f		 pop	 rdi
  000b5	c3		 ret	 0
?_Swap_proxy_and_iterators@_Container_base12@std@@QEAAXAEAU12@@Z ENDP ; std::_Container_base12::_Swap_proxy_and_iterators
_TEXT	ENDS
;	COMDAT text$x
text$x	SEGMENT
_Lock$ = 36
_Temp$ = 56
this$ = 80
_Right$ = 88
?dtor$0@?0??_Swap_proxy_and_iterators@_Container_base12@std@@QEAAXAEAU12@@Z@4HA PROC ; `std::_Container_base12::_Swap_proxy_and_iterators'::`1'::dtor$0
  00000	48 89 4c 24 08	 mov	 QWORD PTR [rsp+8], rcx
  00005	48 89 54 24 10	 mov	 QWORD PTR [rsp+16], rdx
  0000a	55		 push	 rbp
  0000b	57		 push	 rdi
  0000c	48 83 ec 28	 sub	 rsp, 40			; 00000028H
  00010	48 8b ea	 mov	 rbp, rdx
  00013	48 8d 4d 24	 lea	 rcx, QWORD PTR _Lock$[rbp]
  00017	ff 15 00 00 00
	00		 call	 QWORD PTR __imp_??1_Lockit@std@@QEAA@XZ
  0001d	48 83 c4 28	 add	 rsp, 40			; 00000028H
  00021	5f		 pop	 rdi
  00022	5d		 pop	 rbp
  00023	c3		 ret	 0
?dtor$0@?0??_Swap_proxy_and_iterators@_Container_base12@std@@QEAAXAEAU12@@Z@4HA ENDP ; `std::_Container_base12::_Swap_proxy_and_iterators'::`1'::dtor$0
text$x	ENDS
; Function compile flags: /Odtp /RTCsu
;	COMDAT text$x
text$x	SEGMENT
_Lock$ = 36
_Temp$ = 56
this$ = 80
_Right$ = 88
?dtor$0@?0??_Swap_proxy_and_iterators@_Container_base12@std@@QEAAXAEAU12@@Z@4HA PROC ; `std::_Container_base12::_Swap_proxy_and_iterators'::`1'::dtor$0
  00000	48 89 4c 24 08	 mov	 QWORD PTR [rsp+8], rcx
  00005	48 89 54 24 10	 mov	 QWORD PTR [rsp+16], rdx
  0000a	55		 push	 rbp
  0000b	57		 push	 rdi
  0000c	48 83 ec 28	 sub	 rsp, 40			; 00000028H
  00010	48 8b ea	 mov	 rbp, rdx
  00013	48 8d 4d 24	 lea	 rcx, QWORD PTR _Lock$[rbp]
  00017	ff 15 00 00 00
	00		 call	 QWORD PTR __imp_??1_Lockit@std@@QEAA@XZ
  0001d	48 83 c4 28	 add	 rsp, 40			; 00000028H
  00021	5f		 pop	 rdi
  00022	5d		 pop	 rbp
  00023	c3		 ret	 0
?dtor$0@?0??_Swap_proxy_and_iterators@_Container_base12@std@@QEAAXAEAU12@@Z@4HA ENDP ; `std::_Container_base12::_Swap_proxy_and_iterators'::`1'::dtor$0
text$x	ENDS
; Function compile flags: /Odtp /RTCsu
; File C:\Program Files (x86)\Microsoft Visual Studio\2019\Community\VC\Tools\MSVC\14.23.28105\include\xmemory
;	COMDAT ?_Orphan_all@_Container_base12@std@@QEAAXXZ
_TEXT	SEGMENT
_Lock$4 = 36
_Pnext$5 = 56
this$ = 80
?_Orphan_all@_Container_base12@std@@QEAAXXZ PROC	; std::_Container_base12::_Orphan_all, COMDAT

; 1288 : inline void _Container_base12::_Orphan_all() noexcept {

$LN8:
  00000	48 89 4c 24 08	 mov	 QWORD PTR [rsp+8], rcx
  00005	57		 push	 rdi
  00006	48 83 ec 40	 sub	 rsp, 64			; 00000040H
  0000a	48 8b fc	 mov	 rdi, rsp
  0000d	b9 10 00 00 00	 mov	 ecx, 16
  00012	b8 cc cc cc cc	 mov	 eax, -858993460		; ccccccccH
  00017	f3 ab		 rep stosd
  00019	48 8b 4c 24 50	 mov	 rcx, QWORD PTR [rsp+80]

; 1289 : #if _ITERATOR_DEBUG_LEVEL == 2
; 1290 :     if (_Myproxy) { // proxy allocated, drain it

  0001e	48 8b 44 24 50	 mov	 rax, QWORD PTR this$[rsp]
  00023	48 83 38 00	 cmp	 QWORD PTR [rax], 0
  00027	74 70		 je	 SHORT $LN5@Orphan_all

; 1291 :         _Lockit _Lock(_LOCK_DEBUG);

  00029	ba 03 00 00 00	 mov	 edx, 3
  0002e	48 8d 4c 24 24	 lea	 rcx, QWORD PTR _Lock$4[rsp]
  00033	ff 15 00 00 00
	00		 call	 QWORD PTR __imp_??0_Lockit@std@@QEAA@H@Z
  00039	90		 npad	 1

; 1292 : 
; 1293 :         for (auto _Pnext = &_Myproxy->_Myfirstiter; *_Pnext; *_Pnext = (*_Pnext)->_Mynextiter) {

  0003a	48 8b 44 24 50	 mov	 rax, QWORD PTR this$[rsp]
  0003f	48 8b 00	 mov	 rax, QWORD PTR [rax]
  00042	48 83 c0 08	 add	 rax, 8
  00046	48 89 44 24 38	 mov	 QWORD PTR _Pnext$5[rsp], rax
  0004b	eb 14		 jmp	 SHORT $LN4@Orphan_all
$LN2@Orphan_all:
  0004d	48 8b 44 24 38	 mov	 rax, QWORD PTR _Pnext$5[rsp]
  00052	48 8b 00	 mov	 rax, QWORD PTR [rax]
  00055	48 8b 4c 24 38	 mov	 rcx, QWORD PTR _Pnext$5[rsp]
  0005a	48 8b 40 08	 mov	 rax, QWORD PTR [rax+8]
  0005e	48 89 01	 mov	 QWORD PTR [rcx], rax
$LN4@Orphan_all:
  00061	48 8b 44 24 38	 mov	 rax, QWORD PTR _Pnext$5[rsp]
  00066	48 83 38 00	 cmp	 QWORD PTR [rax], 0
  0006a	74 11		 je	 SHORT $LN3@Orphan_all

; 1294 :             (*_Pnext)->_Myproxy = nullptr;

  0006c	48 8b 44 24 38	 mov	 rax, QWORD PTR _Pnext$5[rsp]
  00071	48 8b 00	 mov	 rax, QWORD PTR [rax]
  00074	48 c7 00 00 00
	00 00		 mov	 QWORD PTR [rax], 0

; 1295 :         }

  0007b	eb d0		 jmp	 SHORT $LN2@Orphan_all
$LN3@Orphan_all:

; 1296 : 
; 1297 :         _Myproxy->_Myfirstiter = nullptr;

  0007d	48 8b 44 24 50	 mov	 rax, QWORD PTR this$[rsp]
  00082	48 8b 00	 mov	 rax, QWORD PTR [rax]
  00085	48 c7 40 08 00
	00 00 00	 mov	 QWORD PTR [rax+8], 0

; 1298 :     }

  0008d	48 8d 4c 24 24	 lea	 rcx, QWORD PTR _Lock$4[rsp]
  00092	ff 15 00 00 00
	00		 call	 QWORD PTR __imp_??1_Lockit@std@@QEAA@XZ
  00098	90		 npad	 1
$LN5@Orphan_all:

; 1299 : #endif // _ITERATOR_DEBUG_LEVEL == 2
; 1300 : }

  00099	48 8b cc	 mov	 rcx, rsp
  0009c	48 8d 15 00 00
	00 00		 lea	 rdx, OFFSET FLAT:?_Orphan_all@_Container_base12@std@@QEAAXXZ$rtcFrameData
  000a3	e8 00 00 00 00	 call	 _RTC_CheckStackVars
  000a8	90		 npad	 1
  000a9	48 83 c4 40	 add	 rsp, 64			; 00000040H
  000ad	5f		 pop	 rdi
  000ae	c3		 ret	 0
?_Orphan_all@_Container_base12@std@@QEAAXXZ ENDP	; std::_Container_base12::_Orphan_all
_TEXT	ENDS
;	COMDAT text$x
text$x	SEGMENT
_Lock$4 = 36
_Pnext$5 = 56
this$ = 80
?dtor$0@?0??_Orphan_all@_Container_base12@std@@QEAAXXZ@4HA PROC ; `std::_Container_base12::_Orphan_all'::`1'::dtor$0
  00000	48 89 4c 24 08	 mov	 QWORD PTR [rsp+8], rcx
  00005	48 89 54 24 10	 mov	 QWORD PTR [rsp+16], rdx
  0000a	55		 push	 rbp
  0000b	57		 push	 rdi
  0000c	48 83 ec 28	 sub	 rsp, 40			; 00000028H
  00010	48 8b ea	 mov	 rbp, rdx
  00013	48 8d 4d 24	 lea	 rcx, QWORD PTR _Lock$4[rbp]
  00017	ff 15 00 00 00
	00		 call	 QWORD PTR __imp_??1_Lockit@std@@QEAA@XZ
  0001d	48 83 c4 28	 add	 rsp, 40			; 00000028H
  00021	5f		 pop	 rdi
  00022	5d		 pop	 rbp
  00023	c3		 ret	 0
?dtor$0@?0??_Orphan_all@_Container_base12@std@@QEAAXXZ@4HA ENDP ; `std::_Container_base12::_Orphan_all'::`1'::dtor$0
text$x	ENDS
; Function compile flags: /Odtp /RTCsu
;	COMDAT text$x
text$x	SEGMENT
_Lock$4 = 36
_Pnext$5 = 56
this$ = 80
?dtor$0@?0??_Orphan_all@_Container_base12@std@@QEAAXXZ@4HA PROC ; `std::_Container_base12::_Orphan_all'::`1'::dtor$0
  00000	48 89 4c 24 08	 mov	 QWORD PTR [rsp+8], rcx
  00005	48 89 54 24 10	 mov	 QWORD PTR [rsp+16], rdx
  0000a	55		 push	 rbp
  0000b	57		 push	 rdi
  0000c	48 83 ec 28	 sub	 rsp, 40			; 00000028H
  00010	48 8b ea	 mov	 rbp, rdx
  00013	48 8d 4d 24	 lea	 rcx, QWORD PTR _Lock$4[rbp]
  00017	ff 15 00 00 00
	00		 call	 QWORD PTR __imp_??1_Lockit@std@@QEAA@XZ
  0001d	48 83 c4 28	 add	 rsp, 40			; 00000028H
  00021	5f		 pop	 rdi
  00022	5d		 pop	 rbp
  00023	c3		 ret	 0
?dtor$0@?0??_Orphan_all@_Container_base12@std@@QEAAXXZ@4HA ENDP ; `std::_Container_base12::_Orphan_all'::`1'::dtor$0
text$x	ENDS
; Function compile flags: /Odtp /RTCsu
; File C:\Program Files (x86)\Microsoft Visual Studio\2019\Community\VC\Tools\MSVC\14.23.28105\include\xmemory
;	COMDAT ??0_Container_base12@std@@QEAA@XZ
_TEXT	SEGMENT
this$ = 16
??0_Container_base12@std@@QEAA@XZ PROC			; std::_Container_base12::_Container_base12, COMDAT

; 1175 :     _Container_base12() : _Myproxy(nullptr) {} // construct childless container

$LN3:
  00000	48 89 4c 24 08	 mov	 QWORD PTR [rsp+8], rcx
  00005	57		 push	 rdi
  00006	48 8b 44 24 10	 mov	 rax, QWORD PTR this$[rsp]
  0000b	48 c7 00 00 00
	00 00		 mov	 QWORD PTR [rax], 0
  00012	48 8b 44 24 10	 mov	 rax, QWORD PTR this$[rsp]
  00017	5f		 pop	 rdi
  00018	c3		 ret	 0
??0_Container_base12@std@@QEAA@XZ ENDP			; std::_Container_base12::_Container_base12
_TEXT	ENDS
; Function compile flags: /Odtp /RTCsu
; File C:\Program Files (x86)\Microsoft Visual Studio\2019\Community\VC\Tools\MSVC\14.23.28105\include\xmemory
;	COMDAT ??0_Container_proxy@std@@QEAA@PEAU_Container_base12@1@@Z
_TEXT	SEGMENT
this$ = 16
_Mycont_$ = 24
??0_Container_proxy@std@@QEAA@PEAU_Container_base12@1@@Z PROC ; std::_Container_proxy::_Container_proxy, COMDAT

; 1167 :     _Container_proxy(_Container_base12* _Mycont_) noexcept : _Mycont(_Mycont_), _Myfirstiter(nullptr) {}

$LN3:
  00000	48 89 54 24 10	 mov	 QWORD PTR [rsp+16], rdx
  00005	48 89 4c 24 08	 mov	 QWORD PTR [rsp+8], rcx
  0000a	57		 push	 rdi
  0000b	48 8b 44 24 10	 mov	 rax, QWORD PTR this$[rsp]
  00010	48 8b 4c 24 18	 mov	 rcx, QWORD PTR _Mycont_$[rsp]
  00015	48 89 08	 mov	 QWORD PTR [rax], rcx
  00018	48 8b 44 24 10	 mov	 rax, QWORD PTR this$[rsp]
  0001d	48 c7 40 08 00
	00 00 00	 mov	 QWORD PTR [rax+8], 0
  00025	48 8b 44 24 10	 mov	 rax, QWORD PTR this$[rsp]
  0002a	5f		 pop	 rdi
  0002b	c3		 ret	 0
??0_Container_proxy@std@@QEAA@PEAU_Container_base12@1@@Z ENDP ; std::_Container_proxy::_Container_proxy
_TEXT	ENDS
; Function compile flags: /Odtp /RTCsu
; File C:\Program Files (x86)\Microsoft Visual Studio\2019\Community\VC\Tools\MSVC\14.23.28105\include\xmemory
;	COMDAT ??$_Convert_size@_K@std@@YA_K_K@Z
_TEXT	SEGMENT
_Len$ = 16
??$_Convert_size@_K@std@@YA_K_K@Z PROC			; std::_Convert_size<unsigned __int64>, COMDAT

; 1073 : _NODISCARD constexpr size_t _Convert_size<size_t>(const size_t _Len) noexcept {

$LN3:
  00000	48 89 4c 24 08	 mov	 QWORD PTR [rsp+8], rcx
  00005	57		 push	 rdi

; 1074 :     // convert size_t to size_t, unchanged
; 1075 :     return _Len;

  00006	48 8b 44 24 10	 mov	 rax, QWORD PTR _Len$[rsp]

; 1076 : }

  0000b	5f		 pop	 rdi
  0000c	c3		 ret	 0
??$_Convert_size@_K@std@@YA_K_K@Z ENDP			; std::_Convert_size<unsigned __int64>
_TEXT	ENDS
; Function compile flags: /Odtp /RTCsu
; File C:\Program Files (x86)\Microsoft Visual Studio\2019\Community\VC\Tools\MSVC\14.23.28105\include\xmemory
;	COMDAT ?_Adjust_manually_vector_aligned@std@@YAXAEAPEAXAEA_K@Z
_TEXT	SEGMENT
_Ptr_user$ = 48
_Ptr_container$ = 56
_Min_back_shift$ = 64
_Back_shift$ = 72
_Ptr$ = 96
_Bytes$ = 104
?_Adjust_manually_vector_aligned@std@@YAXAEAPEAXAEA_K@Z PROC ; std::_Adjust_manually_vector_aligned, COMDAT

; 102  : inline void _Adjust_manually_vector_aligned(void*& _Ptr, size_t& _Bytes) {

$LN21:
  00000	48 89 54 24 10	 mov	 QWORD PTR [rsp+16], rdx
  00005	48 89 4c 24 08	 mov	 QWORD PTR [rsp+8], rcx
  0000a	57		 push	 rdi
  0000b	48 83 ec 50	 sub	 rsp, 80			; 00000050H
  0000f	48 8b fc	 mov	 rdi, rsp
  00012	b9 14 00 00 00	 mov	 ecx, 20
  00017	b8 cc cc cc cc	 mov	 eax, -858993460		; ccccccccH
  0001c	f3 ab		 rep stosd
  0001e	48 8b 4c 24 60	 mov	 rcx, QWORD PTR [rsp+96]

; 103  :     // adjust parameters from _Allocate_manually_vector_aligned to pass to operator delete
; 104  :     _Bytes += _Non_user_size;

  00023	48 8b 44 24 68	 mov	 rax, QWORD PTR _Bytes$[rsp]
  00028	48 8b 00	 mov	 rax, QWORD PTR [rax]
  0002b	48 83 c0 2f	 add	 rax, 47			; 0000002fH
  0002f	48 8b 4c 24 68	 mov	 rcx, QWORD PTR _Bytes$[rsp]
  00034	48 89 01	 mov	 QWORD PTR [rcx], rax

; 105  : 
; 106  :     const uintptr_t* const _Ptr_user = reinterpret_cast<uintptr_t*>(_Ptr);

  00037	48 8b 44 24 60	 mov	 rax, QWORD PTR _Ptr$[rsp]
  0003c	48 8b 00	 mov	 rax, QWORD PTR [rax]
  0003f	48 89 44 24 30	 mov	 QWORD PTR _Ptr_user$[rsp], rax

; 107  :     const uintptr_t _Ptr_container   = _Ptr_user[-1];

  00044	b8 08 00 00 00	 mov	 eax, 8
  00049	48 6b c0 ff	 imul	 rax, rax, -1
  0004d	48 8b 4c 24 30	 mov	 rcx, QWORD PTR _Ptr_user$[rsp]
  00052	48 8b 04 01	 mov	 rax, QWORD PTR [rcx+rax]
  00056	48 89 44 24 38	 mov	 QWORD PTR _Ptr_container$[rsp], rax
$LN4@Adjust_man:

; 108  : 
; 109  :     // If the following asserts, it likely means that we are performing
; 110  :     // an aligned delete on memory coming from an unaligned allocation.
; 111  :     _STL_ASSERT(_Ptr_user[-2] == _Big_allocation_sentinel, "invalid argument");

  0005b	b8 08 00 00 00	 mov	 eax, 8
  00060	48 6b c0 fe	 imul	 rax, rax, -2
  00064	48 8b 4c 24 30	 mov	 rcx, QWORD PTR _Ptr_user$[rsp]
  00069	48 ba fa fa fa
	fa fa fa fa fa	 mov	 rdx, -361700864190383366 ; fafafafafafafafaH
  00073	48 39 14 01	 cmp	 QWORD PTR [rcx+rax], rdx
  00077	75 02		 jne	 SHORT $LN14@Adjust_man
  00079	eb 6b		 jmp	 SHORT $LN15@Adjust_man
$LN14@Adjust_man:
$LN7@Adjust_man:
  0007b	48 8d 05 00 00
	00 00		 lea	 rax, OFFSET FLAT:??_C@_0BB@FCMFBGOM@invalid?5argument@
  00082	48 89 44 24 28	 mov	 QWORD PTR [rsp+40], rax
  00087	48 8d 05 00 00
	00 00		 lea	 rax, OFFSET FLAT:??_C@_02DKCKIIND@?$CFs@
  0008e	48 89 44 24 20	 mov	 QWORD PTR [rsp+32], rax
  00093	45 33 c9	 xor	 r9d, r9d
  00096	41 b8 6f 00 00
	00		 mov	 r8d, 111		; 0000006fH
  0009c	48 8d 15 00 00
	00 00		 lea	 rdx, OFFSET FLAT:??_C@_0GI@FJIKDGOA@C?3?2Program?5Files?5?$CIx86?$CJ?2Microsof@
  000a3	b9 02 00 00 00	 mov	 ecx, 2
  000a8	ff 15 00 00 00
	00		 call	 QWORD PTR __imp__CrtDbgReport
  000ae	83 f8 01	 cmp	 eax, 1
  000b1	75 03		 jne	 SHORT $LN19@Adjust_man
  000b3	cc		 int	 3
  000b4	33 c0		 xor	 eax, eax
$LN19@Adjust_man:
  000b6	48 c7 44 24 20
	00 00 00 00	 mov	 QWORD PTR [rsp+32], 0
  000bf	41 b9 6f 00 00
	00		 mov	 r9d, 111		; 0000006fH
  000c5	4c 8d 05 00 00
	00 00		 lea	 r8, OFFSET FLAT:??_C@_1NA@CDBIFGMM@?$AAC?$AA?3?$AA?2?$AAP?$AAr?$AAo?$AAg?$AAr?$AAa?$AAm?$AA?5?$AAF?$AAi?$AAl?$AAe@
  000cc	48 8d 15 00 00
	00 00		 lea	 rdx, OFFSET FLAT:??_C@_1EK@NIFDJFDG@?$AAs?$AAt?$AAd?$AA?3?$AA?3?$AA_?$AAA?$AAd?$AAj?$AAu?$AAs?$AAt?$AA_?$AAm?$AAa@
  000d3	48 8d 0d 00 00
	00 00		 lea	 rcx, OFFSET FLAT:??_C@_1CG@JNLFBNGN@?$AA?$CC?$AAi?$AAn?$AAv?$AAa?$AAl?$AAi?$AAd?$AA?5?$AAa?$AAr?$AAg?$AAu?$AAm?$AAe@
  000da	ff 15 00 00 00
	00		 call	 QWORD PTR __imp__invalid_parameter
  000e0	33 c0		 xor	 eax, eax
  000e2	85 c0		 test	 eax, eax
  000e4	75 95		 jne	 SHORT $LN7@Adjust_man
$LN15@Adjust_man:
  000e6	33 c0		 xor	 eax, eax
  000e8	85 c0		 test	 eax, eax
  000ea	0f 85 6b ff ff
	ff		 jne	 $LN4@Adjust_man

; 112  : 
; 113  :     // Extra paranoia on aligned allocation/deallocation; ensure _Ptr_container is
; 114  :     // in range [_Min_back_shift, _Non_user_size]
; 115  : #ifdef _DEBUG
; 116  :     constexpr uintptr_t _Min_back_shift = 2 * sizeof(void*);

  000f0	48 c7 44 24 40
	10 00 00 00	 mov	 QWORD PTR _Min_back_shift$[rsp], 16

; 117  : #else // ^^^ _DEBUG ^^^ // vvv !_DEBUG vvv
; 118  :     constexpr uintptr_t _Min_back_shift = sizeof(void*);
; 119  : #endif // _DEBUG
; 120  :     const uintptr_t _Back_shift = reinterpret_cast<uintptr_t>(_Ptr) - _Ptr_container;

  000f9	48 8b 44 24 60	 mov	 rax, QWORD PTR _Ptr$[rsp]
  000fe	48 8b 4c 24 38	 mov	 rcx, QWORD PTR _Ptr_container$[rsp]
  00103	48 8b 00	 mov	 rax, QWORD PTR [rax]
  00106	48 2b c1	 sub	 rax, rcx
  00109	48 89 44 24 48	 mov	 QWORD PTR _Back_shift$[rsp], rax
$LN10@Adjust_man:

; 121  :     _STL_VERIFY(_Back_shift >= _Min_back_shift && _Back_shift <= _Non_user_size, "invalid argument");

  0010e	48 83 7c 24 48
	10		 cmp	 QWORD PTR _Back_shift$[rsp], 16
  00114	72 0a		 jb	 SHORT $LN16@Adjust_man
  00116	48 83 7c 24 48
	2f		 cmp	 QWORD PTR _Back_shift$[rsp], 47 ; 0000002fH
  0011c	77 02		 ja	 SHORT $LN16@Adjust_man
  0011e	eb 6b		 jmp	 SHORT $LN17@Adjust_man
$LN16@Adjust_man:
$LN13@Adjust_man:
  00120	48 8d 05 00 00
	00 00		 lea	 rax, OFFSET FLAT:??_C@_0BB@FCMFBGOM@invalid?5argument@
  00127	48 89 44 24 28	 mov	 QWORD PTR [rsp+40], rax
  0012c	48 8d 05 00 00
	00 00		 lea	 rax, OFFSET FLAT:??_C@_02DKCKIIND@?$CFs@
  00133	48 89 44 24 20	 mov	 QWORD PTR [rsp+32], rax
  00138	45 33 c9	 xor	 r9d, r9d
  0013b	41 b8 79 00 00
	00		 mov	 r8d, 121		; 00000079H
  00141	48 8d 15 00 00
	00 00		 lea	 rdx, OFFSET FLAT:??_C@_0GI@FJIKDGOA@C?3?2Program?5Files?5?$CIx86?$CJ?2Microsof@
  00148	b9 02 00 00 00	 mov	 ecx, 2
  0014d	ff 15 00 00 00
	00		 call	 QWORD PTR __imp__CrtDbgReport
  00153	83 f8 01	 cmp	 eax, 1
  00156	75 03		 jne	 SHORT $LN20@Adjust_man
  00158	cc		 int	 3
  00159	33 c0		 xor	 eax, eax
$LN20@Adjust_man:
  0015b	48 c7 44 24 20
	00 00 00 00	 mov	 QWORD PTR [rsp+32], 0
  00164	41 b9 79 00 00
	00		 mov	 r9d, 121		; 00000079H
  0016a	4c 8d 05 00 00
	00 00		 lea	 r8, OFFSET FLAT:??_C@_1NA@CDBIFGMM@?$AAC?$AA?3?$AA?2?$AAP?$AAr?$AAo?$AAg?$AAr?$AAa?$AAm?$AA?5?$AAF?$AAi?$AAl?$AAe@
  00171	48 8d 15 00 00
	00 00		 lea	 rdx, OFFSET FLAT:??_C@_1EK@NIFDJFDG@?$AAs?$AAt?$AAd?$AA?3?$AA?3?$AA_?$AAA?$AAd?$AAj?$AAu?$AAs?$AAt?$AA_?$AAm?$AAa@
  00178	48 8d 0d 00 00
	00 00		 lea	 rcx, OFFSET FLAT:??_C@_1CG@JNLFBNGN@?$AA?$CC?$AAi?$AAn?$AAv?$AAa?$AAl?$AAi?$AAd?$AA?5?$AAa?$AAr?$AAg?$AAu?$AAm?$AAe@
  0017f	ff 15 00 00 00
	00		 call	 QWORD PTR __imp__invalid_parameter
  00185	33 c0		 xor	 eax, eax
  00187	85 c0		 test	 eax, eax
  00189	75 95		 jne	 SHORT $LN13@Adjust_man
$LN17@Adjust_man:
  0018b	33 c0		 xor	 eax, eax
  0018d	85 c0		 test	 eax, eax
  0018f	0f 85 79 ff ff
	ff		 jne	 $LN10@Adjust_man

; 122  :     _Ptr = reinterpret_cast<void*>(_Ptr_container);

  00195	48 8b 44 24 60	 mov	 rax, QWORD PTR _Ptr$[rsp]
  0019a	48 8b 4c 24 38	 mov	 rcx, QWORD PTR _Ptr_container$[rsp]
  0019f	48 89 08	 mov	 QWORD PTR [rax], rcx

; 123  : }

  001a2	48 83 c4 50	 add	 rsp, 80			; 00000050H
  001a6	5f		 pop	 rdi
  001a7	c3		 ret	 0
?_Adjust_manually_vector_aligned@std@@YAXAEAPEAXAEA_K@Z ENDP ; std::_Adjust_manually_vector_aligned
_TEXT	ENDS
; Function compile flags: /Odtp /RTCsu
; File C:\Program Files (x86)\Microsoft Visual Studio\2019\Community\VC\Tools\MSVC\14.23.28105\include\xmemory
;	COMDAT ?_Allocate@_Default_allocate_traits@std@@SAPEAX_K@Z
_TEXT	SEGMENT
_Bytes$ = 48
?_Allocate@_Default_allocate_traits@std@@SAPEAX_K@Z PROC ; std::_Default_allocate_traits::_Allocate, COMDAT

; 46   :     _DECLSPEC_ALLOCATOR static void* _Allocate(const size_t _Bytes) {

$LN3:
  00000	48 89 4c 24 08	 mov	 QWORD PTR [rsp+8], rcx
  00005	57		 push	 rdi
  00006	48 83 ec 20	 sub	 rsp, 32			; 00000020H
  0000a	48 8b fc	 mov	 rdi, rsp
  0000d	b9 08 00 00 00	 mov	 ecx, 8
  00012	b8 cc cc cc cc	 mov	 eax, -858993460		; ccccccccH
  00017	f3 ab		 rep stosd
  00019	48 8b 4c 24 30	 mov	 rcx, QWORD PTR [rsp+48]

; 47   :         return ::operator new(_Bytes);

  0001e	48 8b 4c 24 30	 mov	 rcx, QWORD PTR _Bytes$[rsp]
  00023	e8 00 00 00 00	 call	 ??2@YAPEAX_K@Z		; operator new

; 48   :     }

  00028	48 83 c4 20	 add	 rsp, 32			; 00000020H
  0002c	5f		 pop	 rdi
  0002d	c3		 ret	 0
?_Allocate@_Default_allocate_traits@std@@SAPEAX_K@Z ENDP ; std::_Default_allocate_traits::_Allocate
_TEXT	ENDS
; Function compile flags: /Odtp /RTCsu
; File C:\Program Files (x86)\Microsoft Visual Studio\2019\Community\VC\Tools\MSVC\14.23.28105\include\exception
;	COMDAT ?_Throw_bad_array_new_length@std@@YAXXZ
_TEXT	SEGMENT
$T1 = 32
?_Throw_bad_array_new_length@std@@YAXXZ PROC		; std::_Throw_bad_array_new_length, COMDAT

; 323  : [[noreturn]] inline void _Throw_bad_array_new_length() {

$LN3:
  00000	40 57		 push	 rdi
  00002	48 83 ec 40	 sub	 rsp, 64			; 00000040H
  00006	48 8b fc	 mov	 rdi, rsp
  00009	b9 10 00 00 00	 mov	 ecx, 16
  0000e	b8 cc cc cc cc	 mov	 eax, -858993460		; ccccccccH
  00013	f3 ab		 rep stosd

; 324  :     _THROW(bad_array_new_length{});

  00015	48 8d 4c 24 20	 lea	 rcx, QWORD PTR $T1[rsp]
  0001a	e8 00 00 00 00	 call	 ??0bad_array_new_length@std@@QEAA@XZ ; std::bad_array_new_length::bad_array_new_length
  0001f	48 8d 15 00 00
	00 00		 lea	 rdx, OFFSET FLAT:_TI3?AVbad_array_new_length@std@@
  00026	48 8d 4c 24 20	 lea	 rcx, QWORD PTR $T1[rsp]
  0002b	e8 00 00 00 00	 call	 _CxxThrowException
$LN2@Throw_bad_:

; 325  : }

  00030	48 83 c4 40	 add	 rsp, 64			; 00000040H
  00034	5f		 pop	 rdi
  00035	c3		 ret	 0
?_Throw_bad_array_new_length@std@@YAXXZ ENDP		; std::_Throw_bad_array_new_length
_TEXT	ENDS
; Function compile flags: /Odtp /RTCsu
;	COMDAT ??_Gbad_array_new_length@std@@UEAAPEAXI@Z
_TEXT	SEGMENT
this$ = 48
__flags$ = 56
??_Gbad_array_new_length@std@@UEAAPEAXI@Z PROC		; std::bad_array_new_length::`scalar deleting destructor', COMDAT
$LN4:
  00000	89 54 24 10	 mov	 DWORD PTR [rsp+16], edx
  00004	48 89 4c 24 08	 mov	 QWORD PTR [rsp+8], rcx
  00009	57		 push	 rdi
  0000a	48 83 ec 20	 sub	 rsp, 32			; 00000020H
  0000e	48 8b fc	 mov	 rdi, rsp
  00011	b9 08 00 00 00	 mov	 ecx, 8
  00016	b8 cc cc cc cc	 mov	 eax, -858993460		; ccccccccH
  0001b	f3 ab		 rep stosd
  0001d	48 8b 4c 24 30	 mov	 rcx, QWORD PTR [rsp+48]
  00022	48 8b 4c 24 30	 mov	 rcx, QWORD PTR this$[rsp]
  00027	e8 00 00 00 00	 call	 ??1bad_array_new_length@std@@UEAA@XZ
  0002c	8b 44 24 38	 mov	 eax, DWORD PTR __flags$[rsp]
  00030	83 e0 01	 and	 eax, 1
  00033	85 c0		 test	 eax, eax
  00035	74 0f		 je	 SHORT $LN2@scalar
  00037	ba 18 00 00 00	 mov	 edx, 24
  0003c	48 8b 4c 24 30	 mov	 rcx, QWORD PTR this$[rsp]
  00041	e8 00 00 00 00	 call	 ??3@YAXPEAX_K@Z		; operator delete
$LN2@scalar:
  00046	48 8b 44 24 30	 mov	 rax, QWORD PTR this$[rsp]
  0004b	48 83 c4 20	 add	 rsp, 32			; 00000020H
  0004f	5f		 pop	 rdi
  00050	c3		 ret	 0
??_Gbad_array_new_length@std@@UEAAPEAXI@Z ENDP		; std::bad_array_new_length::`scalar deleting destructor'
_TEXT	ENDS
; Function compile flags: /Odtp /RTCsu
;	COMDAT ??0bad_array_new_length@std@@QEAA@AEBV01@@Z
_TEXT	SEGMENT
this$ = 48
__that$ = 56
??0bad_array_new_length@std@@QEAA@AEBV01@@Z PROC	; std::bad_array_new_length::bad_array_new_length, COMDAT
$LN4:
  00000	48 89 54 24 10	 mov	 QWORD PTR [rsp+16], rdx
  00005	48 89 4c 24 08	 mov	 QWORD PTR [rsp+8], rcx
  0000a	57		 push	 rdi
  0000b	48 83 ec 20	 sub	 rsp, 32			; 00000020H
  0000f	48 8b fc	 mov	 rdi, rsp
  00012	b9 08 00 00 00	 mov	 ecx, 8
  00017	b8 cc cc cc cc	 mov	 eax, -858993460		; ccccccccH
  0001c	f3 ab		 rep stosd
  0001e	48 8b 4c 24 30	 mov	 rcx, QWORD PTR [rsp+48]
  00023	48 8b 54 24 38	 mov	 rdx, QWORD PTR __that$[rsp]
  00028	48 8b 4c 24 30	 mov	 rcx, QWORD PTR this$[rsp]
  0002d	e8 00 00 00 00	 call	 ??0bad_alloc@std@@QEAA@AEBV01@@Z
  00032	90		 npad	 1
  00033	48 8b 44 24 30	 mov	 rax, QWORD PTR this$[rsp]
  00038	48 8d 0d 00 00
	00 00		 lea	 rcx, OFFSET FLAT:??_7bad_array_new_length@std@@6B@
  0003f	48 89 08	 mov	 QWORD PTR [rax], rcx
  00042	48 8b 44 24 30	 mov	 rax, QWORD PTR this$[rsp]
  00047	48 83 c4 20	 add	 rsp, 32			; 00000020H
  0004b	5f		 pop	 rdi
  0004c	c3		 ret	 0
??0bad_array_new_length@std@@QEAA@AEBV01@@Z ENDP	; std::bad_array_new_length::bad_array_new_length
_TEXT	ENDS
;	COMDAT text$x
text$x	SEGMENT
this$ = 48
__that$ = 56
?dtor$0@?0???0bad_array_new_length@std@@QEAA@AEBV01@@Z@4HA PROC ; `std::bad_array_new_length::bad_array_new_length'::`1'::dtor$0
  00000	48 89 4c 24 08	 mov	 QWORD PTR [rsp+8], rcx
  00005	48 89 54 24 10	 mov	 QWORD PTR [rsp+16], rdx
  0000a	55		 push	 rbp
  0000b	57		 push	 rdi
  0000c	48 83 ec 28	 sub	 rsp, 40			; 00000028H
  00010	48 8b ea	 mov	 rbp, rdx
  00013	48 8b 4d 30	 mov	 rcx, QWORD PTR this$[rbp]
  00017	e8 00 00 00 00	 call	 ??1bad_alloc@std@@UEAA@XZ
  0001c	48 83 c4 28	 add	 rsp, 40			; 00000028H
  00020	5f		 pop	 rdi
  00021	5d		 pop	 rbp
  00022	c3		 ret	 0
?dtor$0@?0???0bad_array_new_length@std@@QEAA@AEBV01@@Z@4HA ENDP ; `std::bad_array_new_length::bad_array_new_length'::`1'::dtor$0
text$x	ENDS
; Function compile flags: /Odtp /RTCsu
;	COMDAT text$x
text$x	SEGMENT
this$ = 48
__that$ = 56
?dtor$0@?0???0bad_array_new_length@std@@QEAA@AEBV01@@Z@4HA PROC ; `std::bad_array_new_length::bad_array_new_length'::`1'::dtor$0
  00000	48 89 4c 24 08	 mov	 QWORD PTR [rsp+8], rcx
  00005	48 89 54 24 10	 mov	 QWORD PTR [rsp+16], rdx
  0000a	55		 push	 rbp
  0000b	57		 push	 rdi
  0000c	48 83 ec 28	 sub	 rsp, 40			; 00000028H
  00010	48 8b ea	 mov	 rbp, rdx
  00013	48 8b 4d 30	 mov	 rcx, QWORD PTR this$[rbp]
  00017	e8 00 00 00 00	 call	 ??1bad_alloc@std@@UEAA@XZ
  0001c	48 83 c4 28	 add	 rsp, 40			; 00000028H
  00020	5f		 pop	 rdi
  00021	5d		 pop	 rbp
  00022	c3		 ret	 0
?dtor$0@?0???0bad_array_new_length@std@@QEAA@AEBV01@@Z@4HA ENDP ; `std::bad_array_new_length::bad_array_new_length'::`1'::dtor$0
text$x	ENDS
; Function compile flags: /Odtp /RTCsu
;	COMDAT ??1bad_array_new_length@std@@UEAA@XZ
_TEXT	SEGMENT
this$ = 48
??1bad_array_new_length@std@@UEAA@XZ PROC		; std::bad_array_new_length::~bad_array_new_length, COMDAT
$LN4:
  00000	48 89 4c 24 08	 mov	 QWORD PTR [rsp+8], rcx
  00005	57		 push	 rdi
  00006	48 83 ec 20	 sub	 rsp, 32			; 00000020H
  0000a	48 8b fc	 mov	 rdi, rsp
  0000d	b9 08 00 00 00	 mov	 ecx, 8
  00012	b8 cc cc cc cc	 mov	 eax, -858993460		; ccccccccH
  00017	f3 ab		 rep stosd
  00019	48 8b 4c 24 30	 mov	 rcx, QWORD PTR [rsp+48]
  0001e	48 8b 4c 24 30	 mov	 rcx, QWORD PTR this$[rsp]
  00023	e8 00 00 00 00	 call	 ??1bad_alloc@std@@UEAA@XZ
  00028	90		 npad	 1
  00029	48 83 c4 20	 add	 rsp, 32			; 00000020H
  0002d	5f		 pop	 rdi
  0002e	c3		 ret	 0
??1bad_array_new_length@std@@UEAA@XZ ENDP		; std::bad_array_new_length::~bad_array_new_length
_TEXT	ENDS
;	COMDAT text$x
text$x	SEGMENT
this$ = 48
?dtor$0@?0???1bad_array_new_length@std@@UEAA@XZ@4HA PROC ; `std::bad_array_new_length::~bad_array_new_length'::`1'::dtor$0
  00000	48 89 4c 24 08	 mov	 QWORD PTR [rsp+8], rcx
  00005	48 89 54 24 10	 mov	 QWORD PTR [rsp+16], rdx
  0000a	55		 push	 rbp
  0000b	57		 push	 rdi
  0000c	48 83 ec 28	 sub	 rsp, 40			; 00000028H
  00010	48 8b ea	 mov	 rbp, rdx
  00013	48 8b 4d 30	 mov	 rcx, QWORD PTR this$[rbp]
  00017	e8 00 00 00 00	 call	 ??1bad_alloc@std@@UEAA@XZ
  0001c	48 83 c4 28	 add	 rsp, 40			; 00000028H
  00020	5f		 pop	 rdi
  00021	5d		 pop	 rbp
  00022	c3		 ret	 0
?dtor$0@?0???1bad_array_new_length@std@@UEAA@XZ@4HA ENDP ; `std::bad_array_new_length::~bad_array_new_length'::`1'::dtor$0
text$x	ENDS
; Function compile flags: /Odtp /RTCsu
;	COMDAT text$x
text$x	SEGMENT
this$ = 48
?dtor$0@?0???1bad_array_new_length@std@@UEAA@XZ@4HA PROC ; `std::bad_array_new_length::~bad_array_new_length'::`1'::dtor$0
  00000	48 89 4c 24 08	 mov	 QWORD PTR [rsp+8], rcx
  00005	48 89 54 24 10	 mov	 QWORD PTR [rsp+16], rdx
  0000a	55		 push	 rbp
  0000b	57		 push	 rdi
  0000c	48 83 ec 28	 sub	 rsp, 40			; 00000028H
  00010	48 8b ea	 mov	 rbp, rdx
  00013	48 8b 4d 30	 mov	 rcx, QWORD PTR this$[rbp]
  00017	e8 00 00 00 00	 call	 ??1bad_alloc@std@@UEAA@XZ
  0001c	48 83 c4 28	 add	 rsp, 40			; 00000028H
  00020	5f		 pop	 rdi
  00021	5d		 pop	 rbp
  00022	c3		 ret	 0
?dtor$0@?0???1bad_array_new_length@std@@UEAA@XZ@4HA ENDP ; `std::bad_array_new_length::~bad_array_new_length'::`1'::dtor$0
text$x	ENDS
; Function compile flags: /Odtp /RTCsu
; File C:\Program Files (x86)\Microsoft Visual Studio\2019\Community\VC\Tools\MSVC\14.23.28105\include\vcruntime_exception.h
;	COMDAT ??0bad_array_new_length@std@@QEAA@XZ
_TEXT	SEGMENT
this$ = 48
??0bad_array_new_length@std@@QEAA@XZ PROC		; std::bad_array_new_length::bad_array_new_length, COMDAT

; 138  :     {

$LN4:
  00000	48 89 4c 24 08	 mov	 QWORD PTR [rsp+8], rcx
  00005	57		 push	 rdi
  00006	48 83 ec 20	 sub	 rsp, 32			; 00000020H
  0000a	48 8b fc	 mov	 rdi, rsp
  0000d	b9 08 00 00 00	 mov	 ecx, 8
  00012	b8 cc cc cc cc	 mov	 eax, -858993460		; ccccccccH
  00017	f3 ab		 rep stosd
  00019	48 8b 4c 24 30	 mov	 rcx, QWORD PTR [rsp+48]

; 137  :         : bad_alloc("bad array new length")

  0001e	48 8d 15 00 00
	00 00		 lea	 rdx, OFFSET FLAT:??_C@_0BF@KINCDENJ@bad?5array?5new?5length@
  00025	48 8b 4c 24 30	 mov	 rcx, QWORD PTR this$[rsp]
  0002a	e8 00 00 00 00	 call	 ??0bad_alloc@std@@AEAA@QEBD@Z ; std::bad_alloc::bad_alloc
  0002f	90		 npad	 1

; 138  :     {

  00030	48 8b 44 24 30	 mov	 rax, QWORD PTR this$[rsp]
  00035	48 8d 0d 00 00
	00 00		 lea	 rcx, OFFSET FLAT:??_7bad_array_new_length@std@@6B@
  0003c	48 89 08	 mov	 QWORD PTR [rax], rcx

; 139  :     }

  0003f	48 8b 44 24 30	 mov	 rax, QWORD PTR this$[rsp]
  00044	48 83 c4 20	 add	 rsp, 32			; 00000020H
  00048	5f		 pop	 rdi
  00049	c3		 ret	 0
??0bad_array_new_length@std@@QEAA@XZ ENDP		; std::bad_array_new_length::bad_array_new_length
_TEXT	ENDS
;	COMDAT text$x
text$x	SEGMENT
this$ = 48
?dtor$0@?0???0bad_array_new_length@std@@QEAA@XZ@4HA PROC ; `std::bad_array_new_length::bad_array_new_length'::`1'::dtor$0
  00000	48 89 4c 24 08	 mov	 QWORD PTR [rsp+8], rcx
  00005	48 89 54 24 10	 mov	 QWORD PTR [rsp+16], rdx
  0000a	55		 push	 rbp
  0000b	57		 push	 rdi
  0000c	48 83 ec 28	 sub	 rsp, 40			; 00000028H
  00010	48 8b ea	 mov	 rbp, rdx
  00013	48 8b 4d 30	 mov	 rcx, QWORD PTR this$[rbp]
  00017	e8 00 00 00 00	 call	 ??1bad_alloc@std@@UEAA@XZ
  0001c	48 83 c4 28	 add	 rsp, 40			; 00000028H
  00020	5f		 pop	 rdi
  00021	5d		 pop	 rbp
  00022	c3		 ret	 0
?dtor$0@?0???0bad_array_new_length@std@@QEAA@XZ@4HA ENDP ; `std::bad_array_new_length::bad_array_new_length'::`1'::dtor$0
text$x	ENDS
; Function compile flags: /Odtp /RTCsu
;	COMDAT text$x
text$x	SEGMENT
this$ = 48
?dtor$0@?0???0bad_array_new_length@std@@QEAA@XZ@4HA PROC ; `std::bad_array_new_length::bad_array_new_length'::`1'::dtor$0
  00000	48 89 4c 24 08	 mov	 QWORD PTR [rsp+8], rcx
  00005	48 89 54 24 10	 mov	 QWORD PTR [rsp+16], rdx
  0000a	55		 push	 rbp
  0000b	57		 push	 rdi
  0000c	48 83 ec 28	 sub	 rsp, 40			; 00000028H
  00010	48 8b ea	 mov	 rbp, rdx
  00013	48 8b 4d 30	 mov	 rcx, QWORD PTR this$[rbp]
  00017	e8 00 00 00 00	 call	 ??1bad_alloc@std@@UEAA@XZ
  0001c	48 83 c4 28	 add	 rsp, 40			; 00000028H
  00020	5f		 pop	 rdi
  00021	5d		 pop	 rbp
  00022	c3		 ret	 0
?dtor$0@?0???0bad_array_new_length@std@@QEAA@XZ@4HA ENDP ; `std::bad_array_new_length::bad_array_new_length'::`1'::dtor$0
text$x	ENDS
; Function compile flags: /Odtp /RTCsu
;	COMDAT ??_Gbad_alloc@std@@UEAAPEAXI@Z
_TEXT	SEGMENT
this$ = 48
__flags$ = 56
??_Gbad_alloc@std@@UEAAPEAXI@Z PROC			; std::bad_alloc::`scalar deleting destructor', COMDAT
$LN4:
  00000	89 54 24 10	 mov	 DWORD PTR [rsp+16], edx
  00004	48 89 4c 24 08	 mov	 QWORD PTR [rsp+8], rcx
  00009	57		 push	 rdi
  0000a	48 83 ec 20	 sub	 rsp, 32			; 00000020H
  0000e	48 8b fc	 mov	 rdi, rsp
  00011	b9 08 00 00 00	 mov	 ecx, 8
  00016	b8 cc cc cc cc	 mov	 eax, -858993460		; ccccccccH
  0001b	f3 ab		 rep stosd
  0001d	48 8b 4c 24 30	 mov	 rcx, QWORD PTR [rsp+48]
  00022	48 8b 4c 24 30	 mov	 rcx, QWORD PTR this$[rsp]
  00027	e8 00 00 00 00	 call	 ??1bad_alloc@std@@UEAA@XZ
  0002c	8b 44 24 38	 mov	 eax, DWORD PTR __flags$[rsp]
  00030	83 e0 01	 and	 eax, 1
  00033	85 c0		 test	 eax, eax
  00035	74 0f		 je	 SHORT $LN2@scalar
  00037	ba 18 00 00 00	 mov	 edx, 24
  0003c	48 8b 4c 24 30	 mov	 rcx, QWORD PTR this$[rsp]
  00041	e8 00 00 00 00	 call	 ??3@YAXPEAX_K@Z		; operator delete
$LN2@scalar:
  00046	48 8b 44 24 30	 mov	 rax, QWORD PTR this$[rsp]
  0004b	48 83 c4 20	 add	 rsp, 32			; 00000020H
  0004f	5f		 pop	 rdi
  00050	c3		 ret	 0
??_Gbad_alloc@std@@UEAAPEAXI@Z ENDP			; std::bad_alloc::`scalar deleting destructor'
_TEXT	ENDS
; Function compile flags: /Odtp /RTCsu
;	COMDAT ??0bad_alloc@std@@QEAA@AEBV01@@Z
_TEXT	SEGMENT
this$ = 48
__that$ = 56
??0bad_alloc@std@@QEAA@AEBV01@@Z PROC			; std::bad_alloc::bad_alloc, COMDAT
$LN4:
  00000	48 89 54 24 10	 mov	 QWORD PTR [rsp+16], rdx
  00005	48 89 4c 24 08	 mov	 QWORD PTR [rsp+8], rcx
  0000a	57		 push	 rdi
  0000b	48 83 ec 20	 sub	 rsp, 32			; 00000020H
  0000f	48 8b fc	 mov	 rdi, rsp
  00012	b9 08 00 00 00	 mov	 ecx, 8
  00017	b8 cc cc cc cc	 mov	 eax, -858993460		; ccccccccH
  0001c	f3 ab		 rep stosd
  0001e	48 8b 4c 24 30	 mov	 rcx, QWORD PTR [rsp+48]
  00023	48 8b 54 24 38	 mov	 rdx, QWORD PTR __that$[rsp]
  00028	48 8b 4c 24 30	 mov	 rcx, QWORD PTR this$[rsp]
  0002d	e8 00 00 00 00	 call	 ??0exception@std@@QEAA@AEBV01@@Z ; std::exception::exception
  00032	90		 npad	 1
  00033	48 8b 44 24 30	 mov	 rax, QWORD PTR this$[rsp]
  00038	48 8d 0d 00 00
	00 00		 lea	 rcx, OFFSET FLAT:??_7bad_alloc@std@@6B@
  0003f	48 89 08	 mov	 QWORD PTR [rax], rcx
  00042	48 8b 44 24 30	 mov	 rax, QWORD PTR this$[rsp]
  00047	48 83 c4 20	 add	 rsp, 32			; 00000020H
  0004b	5f		 pop	 rdi
  0004c	c3		 ret	 0
??0bad_alloc@std@@QEAA@AEBV01@@Z ENDP			; std::bad_alloc::bad_alloc
_TEXT	ENDS
;	COMDAT text$x
text$x	SEGMENT
this$ = 48
__that$ = 56
?dtor$0@?0???0bad_alloc@std@@QEAA@AEBV01@@Z@4HA PROC	; `std::bad_alloc::bad_alloc'::`1'::dtor$0
  00000	48 89 4c 24 08	 mov	 QWORD PTR [rsp+8], rcx
  00005	48 89 54 24 10	 mov	 QWORD PTR [rsp+16], rdx
  0000a	55		 push	 rbp
  0000b	57		 push	 rdi
  0000c	48 83 ec 28	 sub	 rsp, 40			; 00000028H
  00010	48 8b ea	 mov	 rbp, rdx
  00013	48 8b 4d 30	 mov	 rcx, QWORD PTR this$[rbp]
  00017	e8 00 00 00 00	 call	 ??1exception@std@@UEAA@XZ ; std::exception::~exception
  0001c	48 83 c4 28	 add	 rsp, 40			; 00000028H
  00020	5f		 pop	 rdi
  00021	5d		 pop	 rbp
  00022	c3		 ret	 0
?dtor$0@?0???0bad_alloc@std@@QEAA@AEBV01@@Z@4HA ENDP	; `std::bad_alloc::bad_alloc'::`1'::dtor$0
text$x	ENDS
; Function compile flags: /Odtp /RTCsu
;	COMDAT text$x
text$x	SEGMENT
this$ = 48
__that$ = 56
?dtor$0@?0???0bad_alloc@std@@QEAA@AEBV01@@Z@4HA PROC	; `std::bad_alloc::bad_alloc'::`1'::dtor$0
  00000	48 89 4c 24 08	 mov	 QWORD PTR [rsp+8], rcx
  00005	48 89 54 24 10	 mov	 QWORD PTR [rsp+16], rdx
  0000a	55		 push	 rbp
  0000b	57		 push	 rdi
  0000c	48 83 ec 28	 sub	 rsp, 40			; 00000028H
  00010	48 8b ea	 mov	 rbp, rdx
  00013	48 8b 4d 30	 mov	 rcx, QWORD PTR this$[rbp]
  00017	e8 00 00 00 00	 call	 ??1exception@std@@UEAA@XZ ; std::exception::~exception
  0001c	48 83 c4 28	 add	 rsp, 40			; 00000028H
  00020	5f		 pop	 rdi
  00021	5d		 pop	 rbp
  00022	c3		 ret	 0
?dtor$0@?0???0bad_alloc@std@@QEAA@AEBV01@@Z@4HA ENDP	; `std::bad_alloc::bad_alloc'::`1'::dtor$0
text$x	ENDS
; Function compile flags: /Odtp /RTCsu
;	COMDAT ??1bad_alloc@std@@UEAA@XZ
_TEXT	SEGMENT
this$ = 48
??1bad_alloc@std@@UEAA@XZ PROC				; std::bad_alloc::~bad_alloc, COMDAT
$LN4:
  00000	48 89 4c 24 08	 mov	 QWORD PTR [rsp+8], rcx
  00005	57		 push	 rdi
  00006	48 83 ec 20	 sub	 rsp, 32			; 00000020H
  0000a	48 8b fc	 mov	 rdi, rsp
  0000d	b9 08 00 00 00	 mov	 ecx, 8
  00012	b8 cc cc cc cc	 mov	 eax, -858993460		; ccccccccH
  00017	f3 ab		 rep stosd
  00019	48 8b 4c 24 30	 mov	 rcx, QWORD PTR [rsp+48]
  0001e	48 8b 4c 24 30	 mov	 rcx, QWORD PTR this$[rsp]
  00023	e8 00 00 00 00	 call	 ??1exception@std@@UEAA@XZ ; std::exception::~exception
  00028	90		 npad	 1
  00029	48 83 c4 20	 add	 rsp, 32			; 00000020H
  0002d	5f		 pop	 rdi
  0002e	c3		 ret	 0
??1bad_alloc@std@@UEAA@XZ ENDP				; std::bad_alloc::~bad_alloc
_TEXT	ENDS
;	COMDAT text$x
text$x	SEGMENT
this$ = 48
?dtor$0@?0???1bad_alloc@std@@UEAA@XZ@4HA PROC		; `std::bad_alloc::~bad_alloc'::`1'::dtor$0
  00000	48 89 4c 24 08	 mov	 QWORD PTR [rsp+8], rcx
  00005	48 89 54 24 10	 mov	 QWORD PTR [rsp+16], rdx
  0000a	55		 push	 rbp
  0000b	57		 push	 rdi
  0000c	48 83 ec 28	 sub	 rsp, 40			; 00000028H
  00010	48 8b ea	 mov	 rbp, rdx
  00013	48 8b 4d 30	 mov	 rcx, QWORD PTR this$[rbp]
  00017	e8 00 00 00 00	 call	 ??1exception@std@@UEAA@XZ ; std::exception::~exception
  0001c	48 83 c4 28	 add	 rsp, 40			; 00000028H
  00020	5f		 pop	 rdi
  00021	5d		 pop	 rbp
  00022	c3		 ret	 0
?dtor$0@?0???1bad_alloc@std@@UEAA@XZ@4HA ENDP		; `std::bad_alloc::~bad_alloc'::`1'::dtor$0
text$x	ENDS
; Function compile flags: /Odtp /RTCsu
;	COMDAT text$x
text$x	SEGMENT
this$ = 48
?dtor$0@?0???1bad_alloc@std@@UEAA@XZ@4HA PROC		; `std::bad_alloc::~bad_alloc'::`1'::dtor$0
  00000	48 89 4c 24 08	 mov	 QWORD PTR [rsp+8], rcx
  00005	48 89 54 24 10	 mov	 QWORD PTR [rsp+16], rdx
  0000a	55		 push	 rbp
  0000b	57		 push	 rdi
  0000c	48 83 ec 28	 sub	 rsp, 40			; 00000028H
  00010	48 8b ea	 mov	 rbp, rdx
  00013	48 8b 4d 30	 mov	 rcx, QWORD PTR this$[rbp]
  00017	e8 00 00 00 00	 call	 ??1exception@std@@UEAA@XZ ; std::exception::~exception
  0001c	48 83 c4 28	 add	 rsp, 40			; 00000028H
  00020	5f		 pop	 rdi
  00021	5d		 pop	 rbp
  00022	c3		 ret	 0
?dtor$0@?0???1bad_alloc@std@@UEAA@XZ@4HA ENDP		; `std::bad_alloc::~bad_alloc'::`1'::dtor$0
text$x	ENDS
; Function compile flags: /Odtp /RTCsu
; File C:\Program Files (x86)\Microsoft Visual Studio\2019\Community\VC\Tools\MSVC\14.23.28105\include\vcruntime_exception.h
;	COMDAT ??0bad_alloc@std@@AEAA@QEBD@Z
_TEXT	SEGMENT
this$ = 48
_Message$ = 56
??0bad_alloc@std@@AEAA@QEBD@Z PROC			; std::bad_alloc::bad_alloc, COMDAT

; 127  :     {

$LN4:
  00000	48 89 54 24 10	 mov	 QWORD PTR [rsp+16], rdx
  00005	48 89 4c 24 08	 mov	 QWORD PTR [rsp+8], rcx
  0000a	57		 push	 rdi
  0000b	48 83 ec 20	 sub	 rsp, 32			; 00000020H
  0000f	48 8b fc	 mov	 rdi, rsp
  00012	b9 08 00 00 00	 mov	 ecx, 8
  00017	b8 cc cc cc cc	 mov	 eax, -858993460		; ccccccccH
  0001c	f3 ab		 rep stosd
  0001e	48 8b 4c 24 30	 mov	 rcx, QWORD PTR [rsp+48]

; 126  :         : exception(_Message, 1)

  00023	41 b8 01 00 00
	00		 mov	 r8d, 1
  00029	48 8b 54 24 38	 mov	 rdx, QWORD PTR _Message$[rsp]
  0002e	48 8b 4c 24 30	 mov	 rcx, QWORD PTR this$[rsp]
  00033	e8 00 00 00 00	 call	 ??0exception@std@@QEAA@QEBDH@Z ; std::exception::exception
  00038	90		 npad	 1

; 127  :     {

  00039	48 8b 44 24 30	 mov	 rax, QWORD PTR this$[rsp]
  0003e	48 8d 0d 00 00
	00 00		 lea	 rcx, OFFSET FLAT:??_7bad_alloc@std@@6B@
  00045	48 89 08	 mov	 QWORD PTR [rax], rcx

; 128  :     }

  00048	48 8b 44 24 30	 mov	 rax, QWORD PTR this$[rsp]
  0004d	48 83 c4 20	 add	 rsp, 32			; 00000020H
  00051	5f		 pop	 rdi
  00052	c3		 ret	 0
??0bad_alloc@std@@AEAA@QEBD@Z ENDP			; std::bad_alloc::bad_alloc
_TEXT	ENDS
;	COMDAT text$x
text$x	SEGMENT
this$ = 48
_Message$ = 56
?dtor$0@?0???0bad_alloc@std@@AEAA@QEBD@Z@4HA PROC	; `std::bad_alloc::bad_alloc'::`1'::dtor$0
  00000	48 89 4c 24 08	 mov	 QWORD PTR [rsp+8], rcx
  00005	48 89 54 24 10	 mov	 QWORD PTR [rsp+16], rdx
  0000a	55		 push	 rbp
  0000b	57		 push	 rdi
  0000c	48 83 ec 28	 sub	 rsp, 40			; 00000028H
  00010	48 8b ea	 mov	 rbp, rdx
  00013	48 8b 4d 30	 mov	 rcx, QWORD PTR this$[rbp]
  00017	e8 00 00 00 00	 call	 ??1exception@std@@UEAA@XZ ; std::exception::~exception
  0001c	48 83 c4 28	 add	 rsp, 40			; 00000028H
  00020	5f		 pop	 rdi
  00021	5d		 pop	 rbp
  00022	c3		 ret	 0
?dtor$0@?0???0bad_alloc@std@@AEAA@QEBD@Z@4HA ENDP	; `std::bad_alloc::bad_alloc'::`1'::dtor$0
text$x	ENDS
; Function compile flags: /Odtp /RTCsu
;	COMDAT text$x
text$x	SEGMENT
this$ = 48
_Message$ = 56
?dtor$0@?0???0bad_alloc@std@@AEAA@QEBD@Z@4HA PROC	; `std::bad_alloc::bad_alloc'::`1'::dtor$0
  00000	48 89 4c 24 08	 mov	 QWORD PTR [rsp+8], rcx
  00005	48 89 54 24 10	 mov	 QWORD PTR [rsp+16], rdx
  0000a	55		 push	 rbp
  0000b	57		 push	 rdi
  0000c	48 83 ec 28	 sub	 rsp, 40			; 00000028H
  00010	48 8b ea	 mov	 rbp, rdx
  00013	48 8b 4d 30	 mov	 rcx, QWORD PTR this$[rbp]
  00017	e8 00 00 00 00	 call	 ??1exception@std@@UEAA@XZ ; std::exception::~exception
  0001c	48 83 c4 28	 add	 rsp, 40			; 00000028H
  00020	5f		 pop	 rdi
  00021	5d		 pop	 rbp
  00022	c3		 ret	 0
?dtor$0@?0???0bad_alloc@std@@AEAA@QEBD@Z@4HA ENDP	; `std::bad_alloc::bad_alloc'::`1'::dtor$0
text$x	ENDS
; Function compile flags: /Odtp /RTCsu
;	COMDAT ??_Gexception@std@@UEAAPEAXI@Z
_TEXT	SEGMENT
this$ = 48
__flags$ = 56
??_Gexception@std@@UEAAPEAXI@Z PROC			; std::exception::`scalar deleting destructor', COMDAT
$LN4:
  00000	89 54 24 10	 mov	 DWORD PTR [rsp+16], edx
  00004	48 89 4c 24 08	 mov	 QWORD PTR [rsp+8], rcx
  00009	57		 push	 rdi
  0000a	48 83 ec 20	 sub	 rsp, 32			; 00000020H
  0000e	48 8b fc	 mov	 rdi, rsp
  00011	b9 08 00 00 00	 mov	 ecx, 8
  00016	b8 cc cc cc cc	 mov	 eax, -858993460		; ccccccccH
  0001b	f3 ab		 rep stosd
  0001d	48 8b 4c 24 30	 mov	 rcx, QWORD PTR [rsp+48]
  00022	48 8b 4c 24 30	 mov	 rcx, QWORD PTR this$[rsp]
  00027	e8 00 00 00 00	 call	 ??1exception@std@@UEAA@XZ ; std::exception::~exception
  0002c	8b 44 24 38	 mov	 eax, DWORD PTR __flags$[rsp]
  00030	83 e0 01	 and	 eax, 1
  00033	85 c0		 test	 eax, eax
  00035	74 0f		 je	 SHORT $LN2@scalar
  00037	ba 18 00 00 00	 mov	 edx, 24
  0003c	48 8b 4c 24 30	 mov	 rcx, QWORD PTR this$[rsp]
  00041	e8 00 00 00 00	 call	 ??3@YAXPEAX_K@Z		; operator delete
$LN2@scalar:
  00046	48 8b 44 24 30	 mov	 rax, QWORD PTR this$[rsp]
  0004b	48 83 c4 20	 add	 rsp, 32			; 00000020H
  0004f	5f		 pop	 rdi
  00050	c3		 ret	 0
??_Gexception@std@@UEAAPEAXI@Z ENDP			; std::exception::`scalar deleting destructor'
_TEXT	ENDS
; Function compile flags: /Odtp /RTCsu
; File C:\Program Files (x86)\Microsoft Visual Studio\2019\Community\VC\Tools\MSVC\14.23.28105\include\vcruntime_exception.h
;	COMDAT ?what@exception@std@@UEBAPEBDXZ
_TEXT	SEGMENT
tv69 = 0
this$ = 32
?what@exception@std@@UEBAPEBDXZ PROC			; std::exception::what, COMDAT

; 91   :     {

$LN5:
  00000	48 89 4c 24 08	 mov	 QWORD PTR [rsp+8], rcx
  00005	57		 push	 rdi
  00006	48 83 ec 10	 sub	 rsp, 16
  0000a	48 8b fc	 mov	 rdi, rsp
  0000d	b9 04 00 00 00	 mov	 ecx, 4
  00012	b8 cc cc cc cc	 mov	 eax, -858993460		; ccccccccH
  00017	f3 ab		 rep stosd
  00019	48 8b 4c 24 20	 mov	 rcx, QWORD PTR [rsp+32]

; 92   :         return _Data._What ? _Data._What : "Unknown exception";

  0001e	48 8b 44 24 20	 mov	 rax, QWORD PTR this$[rsp]
  00023	48 83 78 08 00	 cmp	 QWORD PTR [rax+8], 0
  00028	74 0f		 je	 SHORT $LN3@what
  0002a	48 8b 44 24 20	 mov	 rax, QWORD PTR this$[rsp]
  0002f	48 8b 40 08	 mov	 rax, QWORD PTR [rax+8]
  00033	48 89 04 24	 mov	 QWORD PTR tv69[rsp], rax
  00037	eb 0b		 jmp	 SHORT $LN4@what
$LN3@what:
  00039	48 8d 05 00 00
	00 00		 lea	 rax, OFFSET FLAT:??_C@_0BC@EOODALEL@Unknown?5exception@
  00040	48 89 04 24	 mov	 QWORD PTR tv69[rsp], rax
$LN4@what:
  00044	48 8b 04 24	 mov	 rax, QWORD PTR tv69[rsp]

; 93   :     }

  00048	48 83 c4 10	 add	 rsp, 16
  0004c	5f		 pop	 rdi
  0004d	c3		 ret	 0
?what@exception@std@@UEBAPEBDXZ ENDP			; std::exception::what
_TEXT	ENDS
; Function compile flags: /Odtp /RTCsu
; File C:\Program Files (x86)\Microsoft Visual Studio\2019\Community\VC\Tools\MSVC\14.23.28105\include\vcruntime_exception.h
;	COMDAT ??1exception@std@@UEAA@XZ
_TEXT	SEGMENT
this$ = 48
??1exception@std@@UEAA@XZ PROC				; std::exception::~exception, COMDAT

; 86   :     {

$LN3:
  00000	48 89 4c 24 08	 mov	 QWORD PTR [rsp+8], rcx
  00005	57		 push	 rdi
  00006	48 83 ec 20	 sub	 rsp, 32			; 00000020H
  0000a	48 8b fc	 mov	 rdi, rsp
  0000d	b9 08 00 00 00	 mov	 ecx, 8
  00012	b8 cc cc cc cc	 mov	 eax, -858993460		; ccccccccH
  00017	f3 ab		 rep stosd
  00019	48 8b 4c 24 30	 mov	 rcx, QWORD PTR [rsp+48]
  0001e	48 8b 44 24 30	 mov	 rax, QWORD PTR this$[rsp]
  00023	48 8d 0d 00 00
	00 00		 lea	 rcx, OFFSET FLAT:??_7exception@std@@6B@
  0002a	48 89 08	 mov	 QWORD PTR [rax], rcx

; 87   :         __std_exception_destroy(&_Data);

  0002d	48 8b 44 24 30	 mov	 rax, QWORD PTR this$[rsp]
  00032	48 83 c0 08	 add	 rax, 8
  00036	48 8b c8	 mov	 rcx, rax
  00039	e8 00 00 00 00	 call	 __std_exception_destroy
  0003e	90		 npad	 1

; 88   :     }

  0003f	48 83 c4 20	 add	 rsp, 32			; 00000020H
  00043	5f		 pop	 rdi
  00044	c3		 ret	 0
??1exception@std@@UEAA@XZ ENDP				; std::exception::~exception
_TEXT	ENDS
; Function compile flags: /Odtp /RTCsu
; File C:\Program Files (x86)\Microsoft Visual Studio\2019\Community\VC\Tools\MSVC\14.23.28105\include\vcruntime_exception.h
;	COMDAT ??0exception@std@@QEAA@AEBV01@@Z
_TEXT	SEGMENT
this$ = 48
_Other$ = 56
??0exception@std@@QEAA@AEBV01@@Z PROC			; std::exception::exception, COMDAT

; 69   :     {

$LN3:
  00000	48 89 54 24 10	 mov	 QWORD PTR [rsp+16], rdx
  00005	48 89 4c 24 08	 mov	 QWORD PTR [rsp+8], rcx
  0000a	57		 push	 rdi
  0000b	48 83 ec 20	 sub	 rsp, 32			; 00000020H
  0000f	48 8b fc	 mov	 rdi, rsp
  00012	b9 08 00 00 00	 mov	 ecx, 8
  00017	b8 cc cc cc cc	 mov	 eax, -858993460		; ccccccccH
  0001c	f3 ab		 rep stosd
  0001e	48 8b 4c 24 30	 mov	 rcx, QWORD PTR [rsp+48]
  00023	48 8b 44 24 30	 mov	 rax, QWORD PTR this$[rsp]
  00028	48 8d 0d 00 00
	00 00		 lea	 rcx, OFFSET FLAT:??_7exception@std@@6B@
  0002f	48 89 08	 mov	 QWORD PTR [rax], rcx

; 68   :         : _Data()

  00032	48 8b 44 24 30	 mov	 rax, QWORD PTR this$[rsp]
  00037	48 83 c0 08	 add	 rax, 8
  0003b	48 8b f8	 mov	 rdi, rax
  0003e	33 c0		 xor	 eax, eax
  00040	b9 10 00 00 00	 mov	 ecx, 16
  00045	f3 aa		 rep stosb

; 70   :         __std_exception_copy(&_Other._Data, &_Data);

  00047	48 8b 44 24 30	 mov	 rax, QWORD PTR this$[rsp]
  0004c	48 83 c0 08	 add	 rax, 8
  00050	48 8b 4c 24 38	 mov	 rcx, QWORD PTR _Other$[rsp]
  00055	48 83 c1 08	 add	 rcx, 8
  00059	48 8b d0	 mov	 rdx, rax
  0005c	e8 00 00 00 00	 call	 __std_exception_copy
  00061	90		 npad	 1

; 71   :     }

  00062	48 8b 44 24 30	 mov	 rax, QWORD PTR this$[rsp]
  00067	48 83 c4 20	 add	 rsp, 32			; 00000020H
  0006b	5f		 pop	 rdi
  0006c	c3		 ret	 0
??0exception@std@@QEAA@AEBV01@@Z ENDP			; std::exception::exception
_TEXT	ENDS
; Function compile flags: /Odtp /RTCsu
; File C:\Program Files (x86)\Microsoft Visual Studio\2019\Community\VC\Tools\MSVC\14.23.28105\include\vcruntime_exception.h
;	COMDAT ??0exception@std@@QEAA@QEBDH@Z
_TEXT	SEGMENT
this$ = 16
_Message$ = 24
__formal$ = 32
??0exception@std@@QEAA@QEBDH@Z PROC			; std::exception::exception, COMDAT

; 63   :     {

$LN3:
  00000	44 89 44 24 18	 mov	 DWORD PTR [rsp+24], r8d
  00005	48 89 54 24 10	 mov	 QWORD PTR [rsp+16], rdx
  0000a	48 89 4c 24 08	 mov	 QWORD PTR [rsp+8], rcx
  0000f	57		 push	 rdi
  00010	48 8b 44 24 10	 mov	 rax, QWORD PTR this$[rsp]
  00015	48 8d 0d 00 00
	00 00		 lea	 rcx, OFFSET FLAT:??_7exception@std@@6B@
  0001c	48 89 08	 mov	 QWORD PTR [rax], rcx

; 62   :         : _Data()

  0001f	48 8b 44 24 10	 mov	 rax, QWORD PTR this$[rsp]
  00024	48 83 c0 08	 add	 rax, 8
  00028	48 8b f8	 mov	 rdi, rax
  0002b	33 c0		 xor	 eax, eax
  0002d	b9 10 00 00 00	 mov	 ecx, 16
  00032	f3 aa		 rep stosb

; 64   :         _Data._What = _Message;

  00034	48 8b 44 24 10	 mov	 rax, QWORD PTR this$[rsp]
  00039	48 8b 4c 24 18	 mov	 rcx, QWORD PTR _Message$[rsp]
  0003e	48 89 48 08	 mov	 QWORD PTR [rax+8], rcx

; 65   :     }

  00042	48 8b 44 24 10	 mov	 rax, QWORD PTR this$[rsp]
  00047	5f		 pop	 rdi
  00048	c3		 ret	 0
??0exception@std@@QEAA@QEBDH@Z ENDP			; std::exception::exception
_TEXT	ENDS
; Function compile flags: /Odtp /RTCsu
; File C:\Program Files (x86)\Microsoft Visual Studio\2019\Community\VC\Tools\MSVC\14.23.28105\include\limits
;	COMDAT ?max@?$numeric_limits@_J@std@@SA_JXZ
_TEXT	SEGMENT
?max@?$numeric_limits@_J@std@@SA_JXZ PROC		; std::numeric_limits<__int64>::max, COMDAT

; 644  :     _NODISCARD static constexpr long long(max)() noexcept { // return maximum value

$LN3:
  00000	40 57		 push	 rdi

; 645  :         return LLONG_MAX;

  00002	48 b8 ff ff ff
	ff ff ff ff 7f	 mov	 rax, 9223372036854775807 ; 7fffffffffffffffH

; 646  :     }

  0000c	5f		 pop	 rdi
  0000d	c3		 ret	 0
?max@?$numeric_limits@_J@std@@SA_JXZ ENDP		; std::numeric_limits<__int64>::max
_TEXT	ENDS
; Function compile flags: /Odtp /RTCsu
; File C:\Program Files (x86)\Microsoft Visual Studio\2019\Community\VC\Tools\MSVC\14.23.28105\include\vcruntime_new.h
;	COMDAT ??2@YAPEAX_KPEAX@Z
_TEXT	SEGMENT
_Size$ = 16
_Where$ = 24
??2@YAPEAX_KPEAX@Z PROC					; operator new, COMDAT

; 168  :     {

$LN3:
  00000	48 89 54 24 10	 mov	 QWORD PTR [rsp+16], rdx
  00005	48 89 4c 24 08	 mov	 QWORD PTR [rsp+8], rcx
  0000a	57		 push	 rdi

; 169  :         (void)_Size;
; 170  :         return _Where;

  0000b	48 8b 44 24 18	 mov	 rax, QWORD PTR _Where$[rsp]

; 171  :     }

  00010	5f		 pop	 rdi
  00011	c3		 ret	 0
??2@YAPEAX_KPEAX@Z ENDP					; operator new
_TEXT	ENDS
; Function compile flags: /Odtp /RTCsu
; File D:\work\intel\intel_codec\QSVPipeline\rgy_pipe.cpp
;	COMDAT ?__empty_global_delete@@YAXPEAX_K@Z
_TEXT	SEGMENT
__formal$ = 16
__formal$ = 24
?__empty_global_delete@@YAXPEAX_K@Z PROC		; __empty_global_delete, COMDAT

$LN3:
  00000	48 89 54 24 10	 mov	 QWORD PTR [rsp+16], rdx
  00005	48 89 4c 24 08	 mov	 QWORD PTR [rsp+8], rcx
  0000a	57		 push	 rdi
  0000b	5f		 pop	 rdi
  0000c	c3		 ret	 0
?__empty_global_delete@@YAXPEAX_K@Z ENDP		; __empty_global_delete
_TEXT	ENDS
; Function compile flags: /Odtp /RTCsu
; File D:\work\intel\intel_codec\QSVPipeline\rgy_pipe.cpp
;	COMDAT ?__empty_global_delete@@YAXPEAX@Z
_TEXT	SEGMENT
__formal$ = 16
?__empty_global_delete@@YAXPEAX@Z PROC			; __empty_global_delete, COMDAT

$LN3:
  00000	48 89 4c 24 08	 mov	 QWORD PTR [rsp+8], rcx
  00005	57		 push	 rdi
  00006	5f		 pop	 rdi
  00007	c3		 ret	 0
?__empty_global_delete@@YAXPEAX@Z ENDP			; __empty_global_delete
_TEXT	ENDS
END
