; Listing generated by Microsoft (R) Optimizing Compiler Version 19.23.28106.4 

include listing.inc

INCLUDELIB MSVCRTD
INCLUDELIB OLDNAMES

CONST	SEGMENT
$SG117262 DB	'none', 00H
	ORG $+3
$SG117265 DB	',', 00H
	ORG $+2
$SG117383 DB	0aH, 0aH, 00H
	ORG $+1
$SG117400 DB	'PERF_MONITOR_SRC', 00H
	ORG $+3
$SG117405 DB	'wb', 00H
	ORG $+1
$SG117401 DB	'PERF_MONITOR_PYW', 00H
	ORG $+3
$SG117474 DB	0aH, 00H
	ORG $+2
$SG117417 DB	',cpu (%)', 00H
	ORG $+3
$SG118201 DB	'a', 00H
	ORG $+2
$SG117419 DB	',cpu kernel (%)', 00H
$SG117421 DB	',cpu main thread (%)', 00H
	ORG $+3
$SG117423 DB	',cpu enc thread (%)', 00H
$SG118210 DB	'"', 00H
	ORG $+2
$SG117425 DB	',cpu aud proc thread (%)', 00H
	ORG $+3
$SG118209 DB	'python', 00H
	ORG $+1
$SG118211 DB	'"', 00H
	ORG $+2
$SG117427 DB	',cpu aud enc thread (%)', 00H
$SG117429 DB	',cpu in thread (%)', 00H
	ORG $+1
$SG118212 DB	'"', 00H
	ORG $+2
$SG117431 DB	',cpu out thread (%)', 00H
$SG118213 DB	'"', 00H
	ORG $+2
$SG117433 DB	',gpu load (%)', 00H
	ORG $+2
$SG117435 DB	',gpu clock (MHz)', 00H
	ORG $+3
$SG118218 DB	'%d', 00H
	ORG $+1
$SG117437 DB	',mfx load (%)', 00H
	ORG $+2
$SG117439 DB	',video encoder load (%)', 00H
$SG117441 DB	',video decoder load (%)', 00H
$SG117443 DB	',video engine clock (MHz)', 00H
	ORG $+2
$SG118219 DB	'-i', 00H
	ORG $+1
$SG117445 DB	',pcie link,pcie tx, pci rx', 00H
	ORG $+1
$SG118409 DB	'%lf', 00H
$SG117447 DB	',queue vid in', 00H
	ORG $+2
$SG117449 DB	',queue aud in', 00H
	ORG $+2
$SG117451 DB	',queue vid out', 00H
	ORG $+1
$SG117453 DB	',queue aud out', 00H
	ORG $+1
$SG117455 DB	',mem private (MB)', 00H
	ORG $+2
$SG118443 DB	',%d', 00H
$SG117457 DB	',mem virtual (MB)', 00H
	ORG $+2
$SG118445 DB	',%d', 00H
$SG117459 DB	',frame in', 00H
	ORG $+2
$SG118447 DB	',%d', 00H
$SG117461 DB	',frame out', 00H
	ORG $+1
$SG118449 DB	',%d', 00H
$SG117463 DB	',enc speed (fps)', 00H
	ORG $+3
$SG118451 DB	',%.2lf', 00H
	ORG $+1
$SG118455 DB	',%d', 00H
$SG117465 DB	',enc speed avg (fps)', 00H
	ORG $+3
$SG117467 DB	',bitrate (kbps)', 00H
$SG117469 DB	',bitrate avg (kbps)', 00H
$SG118457 DB	',%d', 00H
$SG117471 DB	',read (MB/s)', 00H
	ORG $+3
$SG117473 DB	',write (MB/s)', 00H
	ORG $+2
$SG118203 DB	'Failed to open performance monitor log file: %s', 0aH, 00H
	ORG $+3
$SG118453 DB	',%.2lf', 00H
	ORG $+1
$SG118470 DB	0aH, 00H
	ORG $+2
$SG118204 DB	'performance monitoring disabled.', 0aH, 00H
	ORG $+2
$SG110947 DB	'yuv422', 00H
	ORG $+1
$SG110975 DB	'rgb', 00H
$SG118208 DB	'qsvencc_perf_monitor_%d.pyw', 00H
$SG118411 DB	',%lf', 00H
	ORG $+7
$SG118216 DB	'Failed to create file qsvencc_perf_monitor.pyw for perfo'
	DB	'rmance monitor plot.', 0aH, 00H
	ORG $+2
$SG118217 DB	'performance monitor plot disabled.', 0aH, 00H
$SG110977 DB	'gbr', 00H
$SG118222 DB	'Failed to run performance monitor plot.', 0aH, 00H
	ORG $+3
$SG110949 DB	'yuv444', 00H
	ORG $+1
$SG110980 DB	'y8', 00H
	ORG $+1
$SG118223 DB	'performance monitor plot disabled.', 0aH, 00H
$SG111925 DB	'VP8', 00H
$SG118224 DB	'Performace Monitor: %s', 0aH, 00H
$SG118225 DB	'Performace Plot   : %s', 0aH, 00H
$SG118413 DB	',%lf', 00H
	ORG $+3
$SG118415 DB	',%lf', 00H
	ORG $+3
$SG118417 DB	',%lf', 00H
	ORG $+3
$SG118419 DB	',%lf', 00H
	ORG $+3
$SG118421 DB	',%lf', 00H
	ORG $+3
$SG118423 DB	',%lf', 00H
	ORG $+3
$SG118425 DB	',%lf', 00H
	ORG $+3
$SG118427 DB	',%lf', 00H
	ORG $+3
$SG118429 DB	',%lf', 00H
	ORG $+3
$SG118431 DB	',%lf', 00H
	ORG $+3
$SG118433 DB	',%lf', 00H
	ORG $+3
$SG118435 DB	',%lf', 00H
	ORG $+3
$SG118437 DB	',%lf', 00H
	ORG $+3
$SG118439 DB	',PCIe %dx%d', 00H
$SG118440 DB	',%lf', 00H
	ORG $+3
$SG118441 DB	',%lf', 00H
	ORG $+3
$SG118459 DB	',%lf', 00H
	ORG $+3
$SG118461 DB	',%lf', 00H
	ORG $+3
$SG118463 DB	',%lf', 00H
	ORG $+3
$SG118465 DB	',%lf', 00H
	ORG $+3
$SG118467 DB	',%lf', 00H
	ORG $+3
$SG118469 DB	',%lf', 00H
	ORG $+3
$SG110969 DB	'rgb24r', 00H
	ORG $+1
$SG111927 DB	'VP9', 00H
$SG118491 DB	'Error occured running python for perf-monitor-plot.', 0aH
	DB	00H
	ORG $+3
$SG110943 DB	'Invalid', 00H
$SG110944 DB	'nv12', 00H
	ORG $+3
$SG110945 DB	'yv12', 00H
	ORG $+3
$SG110946 DB	'yuy2', 00H
	ORG $+3
$SG110948 DB	'nv16', 00H
	ORG $+3
$SG110950 DB	'yv12(9bit)', 00H
	ORG $+1
$SG112538 DB	'fcc', 00H
$SG110951 DB	'yv12(10bit)', 00H
$SG112539 DB	'GBR', 00H
$SG110952 DB	'yv12(12bit)', 00H
$SG112852 DB	'pal', 00H
$SG110953 DB	'yv12(14bit)', 00H
$SG112854 DB	'mac', 00H
$SG110954 DB	'yv12(16bit)', 00H
$SG110955 DB	'p010', 00H
	ORG $+3
$SG110970 DB	'rgb32r', 00H
	ORG $+1
$SG112856 DB	'0', 00H
	ORG $+2
$SG110956 DB	'yuv422(9bit)', 00H
	ORG $+3
$SG110957 DB	'yuv422(10bit)', 00H
	ORG $+2
$SG110958 DB	'yuv422(12bit)', 00H
	ORG $+2
$SG110959 DB	'yuv422(14bit)', 00H
	ORG $+2
$SG110960 DB	'yuv422(16bit)', 00H
	ORG $+2
$SG110961 DB	'p210', 00H
	ORG $+3
$SG110962 DB	'yuv444(9bit)', 00H
	ORG $+3
$SG110963 DB	'yuv444(10bit)', 00H
	ORG $+2
$SG110964 DB	'yuv444(12bit)', 00H
	ORG $+2
$SG110965 DB	'yuv444(14bit)', 00H
	ORG $+2
$SG110966 DB	'yuv444(16bit)', 00H
	ORG $+2
$SG110967 DB	'yuva444', 00H
$SG110968 DB	'yuva444(16bit)', 00H
	ORG $+1
$SG110971 DB	'rgb24', 00H
	ORG $+2
$SG110972 DB	'rgb32', 00H
	ORG $+2
$SG110973 DB	'bgr24', 00H
	ORG $+2
$SG110974 DB	'bgr32', 00H
	ORG $+2
$SG110976 DB	'rgba', 00H
	ORG $+3
$SG110978 DB	'gbra', 00H
	ORG $+3
$SG110979 DB	'yc48', 00H
	ORG $+3
$SG110981 DB	'yc16', 00H
	ORG $+3
$SG111913 DB	'H.264/AVC', 00H
	ORG $+2
$SG112690 DB	'bt470m', 00H
	ORG $+1
$SG112857 DB	'1', 00H
	ORG $+2
$SG111915 DB	'H.265/HEVC', 00H
	ORG $+1
$SG111917 DB	'MPEG2', 00H
	ORG $+2
$SG111919 DB	'MPEG1', 00H
	ORG $+2
$SG111921 DB	'VC-1', 00H
	ORG $+3
$SG111923 DB	'MPEG4', 00H
	ORG $+2
$SG112693 DB	'linear', 00H
	ORG $+1
$SG112858 DB	'2', 00H
	ORG $+2
$SG111929 DB	'unknown', 00H
$SG112036 DB	'unknown', 00H
$SG112531 DB	'undef', 00H
	ORG $+2
?list_colormatrix@@3QBUCX_DESC@@B DQ FLAT:$SG112531	; list_colormatrix
	DD	02H
	ORG $+4
	DQ	FLAT:$SG112532
	DD	07fffffffH
	ORG $+4
	DQ	FLAT:$SG112533
	DD	01H
	ORG $+4
	DQ	FLAT:$SG112534
	DD	06H
	ORG $+4
	DQ	FLAT:$SG112535
	DD	05H
	ORG $+4
	DQ	FLAT:$SG112536
	DD	07H
	ORG $+4
	DQ	FLAT:$SG112537
	DD	08H
	ORG $+4
	DQ	FLAT:$SG112538
	DD	04H
	ORG $+4
	DQ	FLAT:$SG112539
	DD	00H
	ORG $+4
	DQ	FLAT:$SG112540
	DD	09H
	ORG $+4
	DQ	FLAT:$SG112541
	DD	0aH
	ORG $+4
	DQ	FLAT:$SG112542
	DD	0cH
	ORG $+4
	DQ	FLAT:$SG112543
	DD	0dH
	ORG $+4
	DQ	FLAT:$SG112544
	DD	0eH
	ORG $+4
	DQ	FLAT:$SG112545
	DD	0fH
	ORG $+4
	DQ	0000000000000000H
	DD	00H
	ORG $+4
$SG112532 DB	'auto', 00H
	ORG $+3
$SG112533 DB	'bt709', 00H
	ORG $+2
$SG112534 DB	'smpte170m', 00H
	ORG $+2
$SG112694 DB	'log100', 00H
	ORG $+1
$SG112859 DB	'3', 00H
	ORG $+2
$SG112535 DB	'bt470bg', 00H
$SG112536 DB	'smpte240m', 00H
	ORG $+2
$SG112537 DB	'YCgCo', 00H
	ORG $+2
$SG112695 DB	'log316', 00H
	ORG $+1
$SG112860 DB	'4', 00H
	ORG $+2
$SG112540 DB	'bt2020nc', 00H
	ORG $+3
$SG112544 DB	'ictco', 00H
	ORG $+2
$SG112839 DB	'bt470m', 00H
	ORG $+1
$SG112861 DB	'5', 00H
	ORG $+2
$SG112541 DB	'bt2020c', 00H
$SG112542 DB	'derived-ncl', 00H
$SG112865 DB	'tv', 00H
	ORG $+1
$SG112543 DB	'derived-cl', 00H
	ORG $+1
$SG112866 DB	'pc', 00H
	ORG $+1
$SG112545 DB	'2100-lms', 00H
	ORG $+3
$SG112686 DB	'undef', 00H
	ORG $+6
?list_transfer@@3QBUCX_DESC@@B DQ FLAT:$SG112686	; list_transfer
	DD	02H
	ORG $+4
	DQ	FLAT:$SG112687
	DD	07fffffffH
	ORG $+4
	DQ	FLAT:$SG112688
	DD	01H
	ORG $+4
	DQ	FLAT:$SG112689
	DD	06H
	ORG $+4
	DQ	FLAT:$SG112690
	DD	04H
	ORG $+4
	DQ	FLAT:$SG112691
	DD	05H
	ORG $+4
	DQ	FLAT:$SG112692
	DD	07H
	ORG $+4
	DQ	FLAT:$SG112693
	DD	08H
	ORG $+4
	DQ	FLAT:$SG112694
	DD	09H
	ORG $+4
	DQ	FLAT:$SG112695
	DD	0aH
	ORG $+4
	DQ	FLAT:$SG112696
	DD	0bH
	ORG $+4
	DQ	FLAT:$SG112697
	DD	0cH
	ORG $+4
	DQ	FLAT:$SG112698
	DD	0dH
	ORG $+4
	DQ	FLAT:$SG112699
	DD	0eH
	ORG $+4
	DQ	FLAT:$SG112700
	DD	0fH
	ORG $+4
	DQ	FLAT:$SG112701
	DD	010H
	ORG $+4
	DQ	FLAT:$SG112702
	DD	011H
	ORG $+4
	DQ	FLAT:$SG112703
	DD	012H
	ORG $+4
	DQ	0000000000000000H
	DD	00H
	ORG $+4
$SG112687 DB	'auto', 00H
	ORG $+3
$SG112688 DB	'bt709', 00H
	ORG $+2
$SG112689 DB	'smpte170m', 00H
	ORG $+2
$SG112843 DB	'bt2020', 00H
	ORG $+1
$SG113955 DB	'cfr', 00H
$SG112691 DB	'bt470bg', 00H
$SG112692 DB	'smpte240m', 00H
	ORG $+2
$SG113956 DB	'vfr', 00H
$SG112696 DB	'iec61966-2-4', 00H
	ORG $+3
$SG112697 DB	'bt1361e', 00H
$SG112698 DB	'iec61966-2-1', 00H
	ORG $+3
$SG112699 DB	'bt2020-10', 00H
	ORG $+2
$SG113959 DB	'swr', 00H
$SG112700 DB	'bt2020-12', 00H
	ORG $+2
$SG130638 DB	'%s', 00H
	ORG $+1
$SG112701 DB	'smpte2084', 00H
	ORG $+2
$SG114653 DB	'all', 00H
$SG112702 DB	'smpte428', 00H
	ORG $+3
$SG112835 DB	'undef', 00H
	ORG $+2
$SG114654 DB	'cpu', 00H
$SG112703 DB	'arib-srd-b67', 00H
	ORG $+3
?list_colorprim@@3QBUCX_DESC@@B DQ FLAT:$SG112835	; list_colorprim
	DD	02H
	ORG $+4
	DQ	FLAT:$SG112836
	DD	07fffffffH
	ORG $+4
	DQ	FLAT:$SG112837
	DD	01H
	ORG $+4
	DQ	FLAT:$SG112838
	DD	06H
	ORG $+4
	DQ	FLAT:$SG112839
	DD	04H
	ORG $+4
	DQ	FLAT:$SG112840
	DD	05H
	ORG $+4
	DQ	FLAT:$SG112841
	DD	07H
	ORG $+4
	DQ	FLAT:$SG112842
	DD	08H
	ORG $+4
	DQ	FLAT:$SG112843
	DD	09H
	ORG $+4
	DQ	FLAT:$SG112844
	DD	0aH
	ORG $+4
	DQ	FLAT:$SG112845
	DD	0bH
	ORG $+4
	DQ	FLAT:$SG112846
	DD	0cH
	ORG $+4
	DQ	FLAT:$SG112847
	DD	0dH
	ORG $+4
	DQ	0000000000000000H
	DD	00H
	ORG $+4
$SG112836 DB	'auto', 00H
	ORG $+3
$SG112837 DB	'bt709', 00H
	ORG $+2
$SG112838 DB	'smpte170m', 00H
	ORG $+2
$SG114659 DB	'cpu_in', 00H
	ORG $+1
$SG114664 DB	'mem', 00H
$SG112840 DB	'bt470bg', 00H
$SG112841 DB	'smpte240m', 00H
	ORG $+2
$SG112842 DB	'film', 00H
	ORG $+3
$SG112844 DB	'st428', 00H
	ORG $+2
$SG114667 DB	'io', 00H
	ORG $+1
$SG112845 DB	'st431-2', 00H
$SG112846 DB	'st432-1', 00H
$SG112847 DB	'ebu3213-e', 00H
	ORG $+6
?list_videoformat@@3QBUCX_DESC@@B DQ FLAT:$SG112849	; list_videoformat
	DD	05H
	ORG $+4
	DQ	FLAT:$SG112850
	DD	02H
	ORG $+4
	DQ	FLAT:$SG112851
	DD	00H
	ORG $+4
	DQ	FLAT:$SG112852
	DD	01H
	ORG $+4
	DQ	FLAT:$SG112853
	DD	03H
	ORG $+4
	DQ	FLAT:$SG112854
	DD	04H
	ORG $+4
	DQ	0000000000000000H
	DD	00H
	ORG $+4
$SG112849 DB	'undef', 00H
	ORG $+2
$SG112850 DB	'ntsc', 00H
	ORG $+3
$SG112851 DB	'component', 00H
	ORG $+2
$SG112853 DB	'secam', 00H
	ORG $+2
$SG114670 DB	'fps', 00H
$SG112863 DB	'limited', 00H
$SG112864 DB	'full', 00H
	ORG $+3
$SG113948 DB	'trace', 00H
	ORG $+2
$SG113949 DB	'debug', 00H
	ORG $+2
$SG113950 DB	'more', 00H
	ORG $+3
$SG113951 DB	'info', 00H
	ORG $+3
$SG113952 DB	'warn', 00H
	ORG $+3
$SG113953 DB	'error', 00H
	ORG $+2
$SG113957 DB	'forcecfr', 00H
	ORG $+3
$SG113960 DB	'soxr', 00H
	ORG $+3
$SG114675 DB	'gpu', 00H
$SG130637 DB	'invalid argument', 00H
	ORG $+7
$SG130642 DB	'"', 00H, 'i', 00H, 'n', 00H, 'v', 00H, 'a', 00H, 'l', 00H
	DB	'i', 00H, 'd', 00H, ' ', 00H, 'a', 00H, 'r', 00H, 'g', 00H, 'u'
	DB	00H, 'm', 00H, 'e', 00H, 'n', 00H, 't', 00H, '"', 00H, 00H, 00H
	ORG $+2
$SG130639 DB	'C:\Program Files (x86)\Microsoft Visual Studio\2019\Comm'
	DB	'unity\VC\Tools\MSVC\14.23.28105\include\xmemory', 00H
$SG114658 DB	'cpu_enc', 00H
$SG130640 DB	'C', 00H, ':', 00H, '\', 00H, 'P', 00H, 'r', 00H, 'o', 00H
	DB	'g', 00H, 'r', 00H, 'a', 00H, 'm', 00H, ' ', 00H, 'F', 00H, 'i'
	DB	00H, 'l', 00H, 'e', 00H, 's', 00H, ' ', 00H, '(', 00H, 'x', 00H
	DB	'8', 00H, '6', 00H, ')', 00H, '\', 00H, 'M', 00H, 'i', 00H, 'c'
	DB	00H, 'r', 00H, 'o', 00H, 's', 00H, 'o', 00H, 'f', 00H, 't', 00H
	DB	' ', 00H, 'V', 00H, 'i', 00H, 's', 00H, 'u', 00H, 'a', 00H, 'l'
	DB	00H, ' ', 00H, 'S', 00H, 't', 00H, 'u', 00H, 'd', 00H, 'i', 00H
	DB	'o', 00H, '\', 00H, '2', 00H, '0', 00H, '1', 00H, '9', 00H, '\'
	DB	00H, 'C', 00H, 'o', 00H, 'm', 00H, 'm', 00H, 'u', 00H, 'n', 00H
	DB	'i', 00H, 't', 00H, 'y', 00H, '\', 00H, 'V', 00H, 'C', 00H, '\'
	DB	00H, 'T', 00H, 'o', 00H, 'o', 00H, 'l', 00H, 's', 00H, '\', 00H
	DB	'M', 00H, 'S', 00H, 'V', 00H, 'C', 00H, '\', 00H, '1', 00H, '4'
	DB	00H, '.', 00H, '2', 00H, '3', 00H, '.', 00H, '2', 00H, '8', 00H
	DB	'1', 00H, '0', 00H, '5', 00H, '\', 00H, 'i', 00H, 'n', 00H, 'c'
	DB	00H, 'l', 00H, 'u', 00H, 'd', 00H, 'e', 00H, '\', 00H, 'x', 00H
	DB	'm', 00H, 'e', 00H, 'm', 00H, 'o', 00H, 'r', 00H, 'y', 00H, 00H
	DB	00H
$SG130641 DB	's', 00H, 't', 00H, 'd', 00H, ':', 00H, ':', 00H, '_', 00H
	DB	'A', 00H, 'l', 00H, 'l', 00H, 'o', 00H, 'c', 00H, 'a', 00H, 't'
	DB	00H, 'e', 00H, '_', 00H, 'm', 00H, 'a', 00H, 'n', 00H, 'u', 00H
	DB	'a', 00H, 'l', 00H, 'l', 00H, 'y', 00H, '_', 00H, 'v', 00H, 'e'
	DB	00H, 'c', 00H, 't', 00H, 'o', 00H, 'r', 00H, '_', 00H, 'a', 00H
	DB	'l', 00H, 'i', 00H, 'g', 00H, 'n', 00H, 'e', 00H, 'd', 00H, 00H
	DB	00H
	ORG $+2
$SG130794 DB	'C:\Program Files (x86)\Microsoft Visual Studio\2019\Comm'
	DB	'unity\VC\Tools\MSVC\14.23.28105\include\xlocale', 00H
$SG114660 DB	'cpu_aud', 00H
?list_pref_monitor@@3QBUCX_DESC@@B DQ FLAT:$SG114653	; list_pref_monitor
	DD	0ffffffffH
	ORG $+4
	DQ	FLAT:$SG114654
	DD	0cc03H
	ORG $+4
	DQ	FLAT:$SG114655
	DD	01H
	ORG $+4
	DQ	FLAT:$SG114656
	DD	02H
	ORG $+4
	DQ	FLAT:$SG114657
	DD	0400H
	ORG $+4
	DQ	FLAT:$SG114658
	DD	0800H
	ORG $+4
	DQ	FLAT:$SG114659
	DD	08000H
	ORG $+4
	DQ	FLAT:$SG114660
	DD	03000H
	ORG $+4
	DQ	FLAT:$SG114661
	DD	01000H
	ORG $+4
	DQ	FLAT:$SG114662
	DD	02000H
	ORG $+4
	DQ	FLAT:$SG114663
	DD	04000H
	ORG $+4
	DQ	FLAT:$SG114664
	DD	0cH
	ORG $+4
	DQ	FLAT:$SG114665
	DD	04H
	ORG $+4
	DQ	FLAT:$SG114666
	DD	08H
	ORG $+4
	DQ	FLAT:$SG114667
	DD	0300H
	ORG $+4
	DQ	FLAT:$SG114668
	DD	0100H
	ORG $+4
	DQ	FLAT:$SG114669
	DD	0200H
	ORG $+4
	DQ	FLAT:$SG114670
	DD	010H
	ORG $+4
	DQ	FLAT:$SG114671
	DD	020H
	ORG $+4
	DQ	FLAT:$SG114672
	DD	040H
	ORG $+4
	DQ	FLAT:$SG114673
	DD	080H
	ORG $+4
	DQ	FLAT:$SG114674
	DD	020000H
	ORG $+4
	DQ	FLAT:$SG114675
	DD	01e0c0000H
	ORG $+4
	DQ	FLAT:$SG114676
	DD	040000H
	ORG $+4
	DQ	FLAT:$SG114677
	DD	080000H
	ORG $+4
	DQ	FLAT:$SG114678
	DD	04000000H
	ORG $+4
	DQ	FLAT:$SG114679
	DD	04000000H
	ORG $+4
	DQ	FLAT:$SG114680
	DD	010000000H
	ORG $+4
	DQ	FLAT:$SG114681
	DD	02000000H
	ORG $+4
	DQ	FLAT:$SG114682
	DD	0f00000H
	ORG $+4
	DQ	0000000000000000H
	DD	00H
	ORG $+4
$SG114655 DB	'cpu_total', 00H
	ORG $+6
$SG114656 DB	'cpu_kernel', 00H
	ORG $+5
$SG114657 DB	'cpu_main', 00H
	ORG $+3
$SG114682 DB	'queue', 00H
	ORG $+6
$SG114661 DB	'cpu_aud_proc', 00H
	ORG $+3
$SG114662 DB	'cpu_aud_enc', 00H
	ORG $+4
$SG114663 DB	'cpu_out', 00H
$SG114665 DB	'mem_private', 00H
	ORG $+4
$SG114666 DB	'mem_virtual', 00H
	ORG $+4
$SG114668 DB	'io_read', 00H
$SG114669 DB	'io_write', 00H
	ORG $+7
$SG114671 DB	'fps_avg', 00H
$SG114672 DB	'bitrate', 00H
$SG114673 DB	'bitrate_avg', 00H
	ORG $+4
$SG114674 DB	'frame_out', 00H
	ORG $+6
$SG114676 DB	'gpu_load', 00H
	ORG $+7
$SG114677 DB	'gpu_clock', 00H
	ORG $+6
$SG114678 DB	'vee_load', 00H
	ORG $+7
$SG114679 DB	'ved_load', 00H
	ORG $+7
$SG114680 DB	'pcie_load', 00H
	ORG $+6
$SG114681 DB	've_clock', 00H
CONST	ENDS
PUBLIC	?__empty_global_delete@@YAXPEAX@Z		; __empty_global_delete
PUBLIC	?__empty_global_delete@@YAXPEAX_K@Z		; __empty_global_delete
PUBLIC	__local_stdio_printf_options
PUBLIC	_vfprintf_l
PUBLIC	fprintf
PUBLIC	?max@?$numeric_limits@_J@std@@SA_JXZ		; std::numeric_limits<__int64>::max
PUBLIC	??2@YAPEAX_KPEAX@Z				; operator new
PUBLIC	?now@system_clock@chrono@std@@SA?AV?$time_point@Usystem_clock@chrono@std@@V?$duration@_JU?$ratio@$00$0JIJGIA@@std@@@23@@23@XZ ; std::chrono::system_clock::now
PUBLIC	?count@?$duration@_JU?$ratio@$00$0JIJGIA@@std@@@chrono@std@@QEBA_JXZ ; std::chrono::duration<__int64,std::ratio<1,10000000> >::count
PUBLIC	??0?$time_point@Usystem_clock@chrono@std@@V?$duration@_JU?$ratio@$00$0JIJGIA@@std@@@23@@chrono@std@@QEAA@AEBV?$duration@_JU?$ratio@$00$0JIJGIA@@std@@@12@@Z ; std::chrono::time_point<std::chrono::system_clock,std::chrono::duration<__int64,std::ratio<1,10000000> > >::time_point<std::chrono::system_clock,std::chrono::duration<__int64,std::ratio<1,10000000> > >
PUBLIC	?time_since_epoch@?$time_point@Usystem_clock@chrono@std@@V?$duration@_JU?$ratio@$00$0JIJGIA@@std@@@23@@chrono@std@@QEBA?AV?$duration@_JU?$ratio@$00$0JIJGIA@@std@@@23@XZ ; std::chrono::time_point<std::chrono::system_clock,std::chrono::duration<__int64,std::ratio<1,10000000> > >::time_since_epoch
PUBLIC	??$?0_JX@?$duration@_JU?$ratio@$00$0JIJGIA@@std@@@chrono@std@@QEAA@AEB_J@Z ; std::chrono::duration<__int64,std::ratio<1,10000000> >::duration<__int64,std::ratio<1,10000000> ><__int64,void>
PUBLIC	?now@steady_clock@chrono@std@@SA?AV?$time_point@Usteady_clock@chrono@std@@V?$duration@_JU?$ratio@$00$0DLJKMKAA@@std@@@23@@23@XZ ; std::chrono::steady_clock::now
PUBLIC	?count@?$duration@_JU?$ratio@$00$0DLJKMKAA@@std@@@chrono@std@@QEBA_JXZ ; std::chrono::duration<__int64,std::ratio<1,1000000000> >::count
PUBLIC	??Y?$duration@_JU?$ratio@$00$0DLJKMKAA@@std@@@chrono@std@@QEAAAEAV012@AEBV012@@Z ; std::chrono::duration<__int64,std::ratio<1,1000000000> >::operator+=
PUBLIC	??Z?$duration@_JU?$ratio@$00$0DLJKMKAA@@std@@@chrono@std@@QEAAAEAV012@AEBV012@@Z ; std::chrono::duration<__int64,std::ratio<1,1000000000> >::operator-=
PUBLIC	??0?$time_point@Usteady_clock@chrono@std@@V?$duration@_JU?$ratio@$00$0DLJKMKAA@@std@@@23@@chrono@std@@QEAA@AEBV?$duration@_JU?$ratio@$00$0DLJKMKAA@@std@@@12@@Z ; std::chrono::time_point<std::chrono::steady_clock,std::chrono::duration<__int64,std::ratio<1,1000000000> > >::time_point<std::chrono::steady_clock,std::chrono::duration<__int64,std::ratio<1,1000000000> > >
PUBLIC	?time_since_epoch@?$time_point@Usteady_clock@chrono@std@@V?$duration@_JU?$ratio@$00$0DLJKMKAA@@std@@@23@@chrono@std@@QEBA?AV?$duration@_JU?$ratio@$00$0DLJKMKAA@@std@@@23@XZ ; std::chrono::time_point<std::chrono::steady_clock,std::chrono::duration<__int64,std::ratio<1,1000000000> > >::time_since_epoch
PUBLIC	??$?0_JX@?$duration@_JU?$ratio@$00$0DLJKMKAA@@std@@@chrono@std@@QEAA@AEB_J@Z ; std::chrono::duration<__int64,std::ratio<1,1000000000> >::duration<__int64,std::ratio<1,1000000000> ><__int64,void>
PUBLIC	?count@?$duration@_JU?$ratio@$00$00@std@@@chrono@std@@QEBA_JXZ ; std::chrono::duration<__int64,std::ratio<1,1> >::count
PUBLIC	?count@?$duration@NU?$ratio@$00$00@std@@@chrono@std@@QEBANXZ ; std::chrono::duration<double,std::ratio<1,1> >::count
PUBLIC	?count@?$duration@_JU?$ratio@$00$0DOI@@std@@@chrono@std@@QEBA_JXZ ; std::chrono::duration<__int64,std::ratio<1,1000> >::count
PUBLIC	?count@?$duration@NU?$ratio@$00$0DLJKMKAA@@std@@@chrono@std@@QEBANXZ ; std::chrono::duration<double,std::ratio<1,1000000000> >::count
PUBLIC	??0exception@std@@QEAA@QEBDH@Z			; std::exception::exception
PUBLIC	??0exception@std@@QEAA@AEBV01@@Z		; std::exception::exception
PUBLIC	??1exception@std@@UEAA@XZ			; std::exception::~exception
PUBLIC	?what@exception@std@@UEBAPEBDXZ			; std::exception::what
PUBLIC	??_Gexception@std@@UEAAPEAXI@Z			; std::exception::`scalar deleting destructor'
PUBLIC	??0bad_alloc@std@@AEAA@QEBD@Z			; std::bad_alloc::bad_alloc
PUBLIC	??1bad_alloc@std@@UEAA@XZ			; std::bad_alloc::~bad_alloc
PUBLIC	??0bad_alloc@std@@QEAA@AEBV01@@Z		; std::bad_alloc::bad_alloc
PUBLIC	??_Gbad_alloc@std@@UEAAPEAXI@Z			; std::bad_alloc::`scalar deleting destructor'
PUBLIC	??0bad_array_new_length@std@@QEAA@XZ		; std::bad_array_new_length::bad_array_new_length
PUBLIC	??1bad_array_new_length@std@@UEAA@XZ		; std::bad_array_new_length::~bad_array_new_length
PUBLIC	??0bad_array_new_length@std@@QEAA@AEBV01@@Z	; std::bad_array_new_length::bad_array_new_length
PUBLIC	??_Gbad_array_new_length@std@@UEAAPEAXI@Z	; std::bad_array_new_length::`scalar deleting destructor'
PUBLIC	?_Throw_bad_array_new_length@std@@YAXXZ		; std::_Throw_bad_array_new_length
PUBLIC	?_Allocate@_Default_allocate_traits@std@@SAPEAX_K@Z ; std::_Default_allocate_traits::_Allocate
PUBLIC	?_Adjust_manually_vector_aligned@std@@YAXAEAPEAXAEA_K@Z ; std::_Adjust_manually_vector_aligned
PUBLIC	??$_Convert_size@_K@std@@YA_K_K@Z		; std::_Convert_size<unsigned __int64>
PUBLIC	??0_Container_proxy@std@@QEAA@PEAU_Container_base12@1@@Z ; std::_Container_proxy::_Container_proxy
PUBLIC	??0_Container_base12@std@@QEAA@XZ		; std::_Container_base12::_Container_base12
PUBLIC	?_Orphan_all@_Container_base12@std@@QEAAXXZ	; std::_Container_base12::_Orphan_all
PUBLIC	?_Swap_proxy_and_iterators@_Container_base12@std@@QEAAXAEAU12@@Z ; std::_Container_base12::_Swap_proxy_and_iterators
PUBLIC	?_Release@_Basic_container_proxy_ptr12@std@@QEAAXXZ ; std::_Basic_container_proxy_ptr12::_Release
PUBLIC	?_Incref@_Ref_count_base@std@@QEAAXXZ		; std::_Ref_count_base::_Incref
PUBLIC	?_Decref@_Ref_count_base@std@@QEAAXXZ		; std::_Ref_count_base::_Decref
PUBLIC	?_Decwref@_Ref_count_base@std@@QEAAXXZ		; std::_Ref_count_base::_Decwref
PUBLIC	??0thread@std@@QEAA@XZ				; std::thread::thread
PUBLIC	??1thread@std@@QEAA@XZ				; std::thread::~thread
PUBLIC	??4thread@std@@QEAAAEAV01@$$QEAV01@@Z		; std::thread::operator=
PUBLIC	?joinable@thread@std@@QEBA_NXZ			; std::thread::joinable
PUBLIC	?join@thread@std@@QEAAXXZ			; std::thread::join
PUBLIC	??$exchange@U_Thrd_imp_t@@U1@@std@@YA?AU_Thrd_imp_t@@AEAU1@$$QEAU1@@Z ; std::exchange<_Thrd_imp_t,_Thrd_imp_t>
PUBLIC	?length@?$_Narrow_char_traits@DH@std@@SA_KQEBD@Z ; std::_Narrow_char_traits<char,int>::length
PUBLIC	?copy@?$_Narrow_char_traits@DH@std@@SAPEADQEADQEBD_K@Z ; std::_Narrow_char_traits<char,int>::copy
PUBLIC	?move@?$_Narrow_char_traits@DH@std@@SAPEADQEADQEBD_K@Z ; std::_Narrow_char_traits<char,int>::move
PUBLIC	?assign@?$_Narrow_char_traits@DH@std@@SAXAEADAEBD@Z ; std::_Narrow_char_traits<char,int>::assign
PUBLIC	??0?$allocator@D@std@@QEAA@XZ			; std::allocator<char>::allocator<char>
PUBLIC	?deallocate@?$allocator@D@std@@QEAAXQEAD_K@Z	; std::allocator<char>::deallocate
PUBLIC	?allocate@?$allocator@D@std@@QEAAPEAD_K@Z	; std::allocator<char>::allocate
PUBLIC	?max_size@?$_Default_allocator_traits@V?$allocator@D@std@@@std@@SA_KAEBV?$allocator@D@2@@Z ; std::_Default_allocator_traits<std::allocator<char> >::max_size
PUBLIC	??0?$_String_val@U?$_Simple_types@D@std@@@std@@QEAA@XZ ; std::_String_val<std::_Simple_types<char> >::_String_val<std::_Simple_types<char> >
PUBLIC	?_Myptr@?$_String_val@U?$_Simple_types@D@std@@@std@@QEAAPEADXZ ; std::_String_val<std::_Simple_types<char> >::_Myptr
PUBLIC	?_Myptr@?$_String_val@U?$_Simple_types@D@std@@@std@@QEBAPEBDXZ ; std::_String_val<std::_Simple_types<char> >::_Myptr
PUBLIC	?_Large_string_engaged@?$_String_val@U?$_Simple_types@D@std@@@std@@QEBA_NXZ ; std::_String_val<std::_Simple_types<char> >::_Large_string_engaged
PUBLIC	?_Check_offset@?$_String_val@U?$_Simple_types@D@std@@@std@@QEBAX_K@Z ; std::_String_val<std::_Simple_types<char> >::_Check_offset
PUBLIC	?_Xran@?$_String_val@U?$_Simple_types@D@std@@@std@@SAXXZ ; std::_String_val<std::_Simple_types<char> >::_Xran
PUBLIC	??0_Bxty@?$_String_val@U?$_Simple_types@D@std@@@std@@QEAA@XZ ; std::_String_val<std::_Simple_types<char> >::_Bxty::_Bxty
PUBLIC	??1_Bxty@?$_String_val@U?$_Simple_types@D@std@@@std@@QEAA@XZ ; std::_String_val<std::_Simple_types<char> >::_Bxty::~_Bxty
PUBLIC	??1?$_String_val@U?$_Simple_types@D@std@@@std@@QEAA@XZ ; std::_String_val<std::_Simple_types<char> >::~_String_val<std::_Simple_types<char> >
PUBLIC	??0?$basic_string@DU?$char_traits@D@std@@V?$allocator@D@2@@std@@QEAA@XZ ; std::basic_string<char,std::char_traits<char>,std::allocator<char> >::basic_string<char,std::char_traits<char>,std::allocator<char> >
PUBLIC	??0?$basic_string@DU?$char_traits@D@std@@V?$allocator@D@2@@std@@QEAA@QEBD@Z ; std::basic_string<char,std::char_traits<char>,std::allocator<char> >::basic_string<char,std::char_traits<char>,std::allocator<char> >
PUBLIC	??0?$basic_string@DU?$char_traits@D@std@@V?$allocator@D@2@@std@@QEAA@$$QEAV01@@Z ; std::basic_string<char,std::char_traits<char>,std::allocator<char> >::basic_string<char,std::char_traits<char>,std::allocator<char> >
PUBLIC	?_Move_assign@?$basic_string@DU?$char_traits@D@std@@V?$allocator@D@2@@std@@AEAAXAEAV12@U_Equal_allocators@2@@Z ; std::basic_string<char,std::char_traits<char>,std::allocator<char> >::_Move_assign
PUBLIC	??4?$basic_string@DU?$char_traits@D@std@@V?$allocator@D@2@@std@@QEAAAEAV01@$$QEAV01@@Z ; std::basic_string<char,std::char_traits<char>,std::allocator<char> >::operator=
PUBLIC	?_Memcpy_val_from@?$basic_string@DU?$char_traits@D@std@@V?$allocator@D@2@@std@@AEAAXAEBV12@@Z ; std::basic_string<char,std::char_traits<char>,std::allocator<char> >::_Memcpy_val_from
PUBLIC	?_Take_contents@?$basic_string@DU?$char_traits@D@std@@V?$allocator@D@2@@std@@AEAAXAEAV12@U?$integral_constant@_N$00@2@@Z ; std::basic_string<char,std::char_traits<char>,std::allocator<char> >::_Take_contents
PUBLIC	??1?$basic_string@DU?$char_traits@D@std@@V?$allocator@D@2@@std@@QEAA@XZ ; std::basic_string<char,std::char_traits<char>,std::allocator<char> >::~basic_string<char,std::char_traits<char>,std::allocator<char> >
PUBLIC	?_Copy_assign@?$basic_string@DU?$char_traits@D@std@@V?$allocator@D@2@@std@@AEAAXAEBV12@U?$integral_constant@_N$0A@@2@@Z ; std::basic_string<char,std::char_traits<char>,std::allocator<char> >::_Copy_assign
PUBLIC	??4?$basic_string@DU?$char_traits@D@std@@V?$allocator@D@2@@std@@QEAAAEAV01@AEBV01@@Z ; std::basic_string<char,std::char_traits<char>,std::allocator<char> >::operator=
PUBLIC	??4?$basic_string@DU?$char_traits@D@std@@V?$allocator@D@2@@std@@QEAAAEAV01@QEBD@Z ; std::basic_string<char,std::char_traits<char>,std::allocator<char> >::operator=
PUBLIC	??Y?$basic_string@DU?$char_traits@D@std@@V?$allocator@D@2@@std@@QEAAAEAV01@AEBV01@@Z ; std::basic_string<char,std::char_traits<char>,std::allocator<char> >::operator+=
PUBLIC	??Y?$basic_string@DU?$char_traits@D@std@@V?$allocator@D@2@@std@@QEAAAEAV01@QEBD@Z ; std::basic_string<char,std::char_traits<char>,std::allocator<char> >::operator+=
PUBLIC	?append@?$basic_string@DU?$char_traits@D@std@@V?$allocator@D@2@@std@@QEAAAEAV12@AEBV12@@Z ; std::basic_string<char,std::char_traits<char>,std::allocator<char> >::append
PUBLIC	?append@?$basic_string@DU?$char_traits@D@std@@V?$allocator@D@2@@std@@QEAAAEAV12@QEBD_K@Z ; std::basic_string<char,std::char_traits<char>,std::allocator<char> >::append
PUBLIC	?append@?$basic_string@DU?$char_traits@D@std@@V?$allocator@D@2@@std@@QEAAAEAV12@QEBD@Z ; std::basic_string<char,std::char_traits<char>,std::allocator<char> >::append
PUBLIC	?assign@?$basic_string@DU?$char_traits@D@std@@V?$allocator@D@2@@std@@QEAAAEAV12@QEBD_K@Z ; std::basic_string<char,std::char_traits<char>,std::allocator<char> >::assign
PUBLIC	?assign@?$basic_string@DU?$char_traits@D@std@@V?$allocator@D@2@@std@@QEAAAEAV12@QEBD@Z ; std::basic_string<char,std::char_traits<char>,std::allocator<char> >::assign
PUBLIC	?insert@?$basic_string@DU?$char_traits@D@std@@V?$allocator@D@2@@std@@QEAAAEAV12@_KAEBV12@@Z ; std::basic_string<char,std::char_traits<char>,std::allocator<char> >::insert
PUBLIC	?insert@?$basic_string@DU?$char_traits@D@std@@V?$allocator@D@2@@std@@QEAAAEAV12@_KQEBD0@Z ; std::basic_string<char,std::char_traits<char>,std::allocator<char> >::insert
PUBLIC	?c_str@?$basic_string@DU?$char_traits@D@std@@V?$allocator@D@2@@std@@QEBAPEBDXZ ; std::basic_string<char,std::char_traits<char>,std::allocator<char> >::c_str
PUBLIC	?length@?$basic_string@DU?$char_traits@D@std@@V?$allocator@D@2@@std@@QEBA_KXZ ; std::basic_string<char,std::char_traits<char>,std::allocator<char> >::length
PUBLIC	?size@?$basic_string@DU?$char_traits@D@std@@V?$allocator@D@2@@std@@QEBA_KXZ ; std::basic_string<char,std::char_traits<char>,std::allocator<char> >::size
PUBLIC	?max_size@?$basic_string@DU?$char_traits@D@std@@V?$allocator@D@2@@std@@QEBA_KXZ ; std::basic_string<char,std::char_traits<char>,std::allocator<char> >::max_size
PUBLIC	?capacity@?$basic_string@DU?$char_traits@D@std@@V?$allocator@D@2@@std@@QEBA_KXZ ; std::basic_string<char,std::char_traits<char>,std::allocator<char> >::capacity
PUBLIC	?_Calculate_growth@?$basic_string@DU?$char_traits@D@std@@V?$allocator@D@2@@std@@CA_K_K00@Z ; std::basic_string<char,std::char_traits<char>,std::allocator<char> >::_Calculate_growth
PUBLIC	?_Calculate_growth@?$basic_string@DU?$char_traits@D@std@@V?$allocator@D@2@@std@@AEBA_K_K@Z ; std::basic_string<char,std::char_traits<char>,std::allocator<char> >::_Calculate_growth
PUBLIC	?_Tidy_init@?$basic_string@DU?$char_traits@D@std@@V?$allocator@D@2@@std@@AEAAXXZ ; std::basic_string<char,std::char_traits<char>,std::allocator<char> >::_Tidy_init
PUBLIC	?_Tidy_deallocate@?$basic_string@DU?$char_traits@D@std@@V?$allocator@D@2@@std@@AEAAXXZ ; std::basic_string<char,std::char_traits<char>,std::allocator<char> >::_Tidy_deallocate
PUBLIC	?_Xlen@?$basic_string@DU?$char_traits@D@std@@V?$allocator@D@2@@std@@CAXXZ ; std::basic_string<char,std::char_traits<char>,std::allocator<char> >::_Xlen
PUBLIC	?_Swap_proxy_and_iterators@?$basic_string@DU?$char_traits@D@std@@V?$allocator@D@2@@std@@AEAAXAEAV12@@Z ; std::basic_string<char,std::char_traits<char>,std::allocator<char> >::_Swap_proxy_and_iterators
PUBLIC	?_Getal@?$basic_string@DU?$char_traits@D@std@@V?$allocator@D@2@@std@@AEAAAEAV?$allocator@D@2@XZ ; std::basic_string<char,std::char_traits<char>,std::allocator<char> >::_Getal
PUBLIC	?_Getal@?$basic_string@DU?$char_traits@D@std@@V?$allocator@D@2@@std@@AEBAAEBV?$allocator@D@2@XZ ; std::basic_string<char,std::char_traits<char>,std::allocator<char> >::_Getal
PUBLIC	?_Get_first@?$_Compressed_pair@V?$allocator@D@std@@V?$_String_val@U?$_Simple_types@D@std@@@2@$00@std@@QEAAAEAV?$allocator@D@2@XZ ; std::_Compressed_pair<std::allocator<char>,std::_String_val<std::_Simple_types<char> >,1>::_Get_first
PUBLIC	?_Get_first@?$_Compressed_pair@V?$allocator@D@std@@V?$_String_val@U?$_Simple_types@D@std@@@2@$00@std@@QEBAAEBV?$allocator@D@2@XZ ; std::_Compressed_pair<std::allocator<char>,std::_String_val<std::_Simple_types<char> >,1>::_Get_first
PUBLIC	??1?$_Compressed_pair@V?$allocator@D@std@@V?$_String_val@U?$_Simple_types@D@std@@@2@$00@std@@QEAA@XZ ; std::_Compressed_pair<std::allocator<char>,std::_String_val<std::_Simple_types<char> >,1>::~_Compressed_pair<std::allocator<char>,std::_String_val<std::_Simple_types<char> >,1>
PUBLIC	??Rfp_deleter@@QEBAXPEAU_iobuf@@@Z		; fp_deleter::operator()
PUBLIC	??Rhandle_deleter@@QEBAXPEAX@Z			; handle_deleter::operator()
PUBLIC	??$make_array@W4CspMatrix@@W41@W41@W41@W41@W41@W41@W41@W41@W41@W41@W41@W41@W41@W41@@@YA?AV?$array@W4CspMatrix@@$0O@@std@@$$QEAW4CspMatrix@@0000000000000@Z ; make_array<enum CspMatrix,enum CspMatrix,enum CspMatrix,enum CspMatrix,enum CspMatrix,enum CspMatrix,enum CspMatrix,enum CspMatrix,enum CspMatrix,enum CspMatrix,enum CspMatrix,enum CspMatrix,enum CspMatrix,enum CspMatrix,enum CspMatrix>
PUBLIC	??$make_array@W4CspTransfer@@W41@W41@W41@W41@W41@W41@W41@W41@W41@W41@W41@W41@W41@W41@W41@@@YA?AV?$array@W4CspTransfer@@$0P@@std@@$$QEAW4CspTransfer@@00000000000000@Z ; make_array<enum CspTransfer,enum CspTransfer,enum CspTransfer,enum CspTransfer,enum CspTransfer,enum CspTransfer,enum CspTransfer,enum CspTransfer,enum CspTransfer,enum CspTransfer,enum CspTransfer,enum CspTransfer,enum CspTransfer,enum CspTransfer,enum CspTransfer,enum CspTransfer>
PUBLIC	??$make_array@W4CspColorprim@@W41@W41@W41@W41@W41@W41@W41@W41@W41@W41@W41@W41@@@YA?AV?$array@W4CspColorprim@@$0M@@std@@$$QEAW4CspColorprim@@00000000000@Z ; make_array<enum CspColorprim,enum CspColorprim,enum CspColorprim,enum CspColorprim,enum CspColorprim,enum CspColorprim,enum CspColorprim,enum CspColorprim,enum CspColorprim,enum CspColorprim,enum CspColorprim,enum CspColorprim,enum CspColorprim>
PUBLIC	??$?HDU?$char_traits@D@std@@V?$allocator@D@1@@std@@YA?AV?$basic_string@DU?$char_traits@D@std@@V?$allocator@D@2@@0@$$QEAV10@AEBV10@@Z ; std::operator+<char,std::char_traits<char>,std::allocator<char> >
PUBLIC	??$?HDU?$char_traits@D@std@@V?$allocator@D@1@@std@@YA?AV?$basic_string@DU?$char_traits@D@std@@V?$allocator@D@2@@0@$$QEAV10@0@Z ; std::operator+<char,std::char_traits<char>,std::allocator<char> >
PUBLIC	??0CPerfMonitor@@QEAA@XZ			; CPerfMonitor::CPerfMonitor
PUBLIC	?init@CPerfMonitor@@QEAAHV?$basic_string@DU?$char_traits@D@std@@V?$allocator@D@2@@std@@PEBDHHHV?$unique_ptr@XUhandle_deleter@@@3@V?$shared_ptr@VRGYLog@@@3@PEAUCPerfMonitorPrm@@@Z ; CPerfMonitor::init
PUBLIC	??1CPerfMonitor@@QEAA@XZ			; CPerfMonitor::~CPerfMonitor
PUBLIC	?SetEncStatus@CPerfMonitor@@QEAAXV?$shared_ptr@VEncodeStatus@@@std@@@Z ; CPerfMonitor::SetEncStatus
PUBLIC	?SetThreadHandles@CPerfMonitor@@QEAAXPEAX0000@Z	; CPerfMonitor::SetThreadHandles
PUBLIC	?clear@CPerfMonitor@@QEAAXXZ			; CPerfMonitor::clear
PUBLIC	?createPerfMpnitorPyw@CPerfMonitor@@IEAAHPEBD@Z	; CPerfMonitor::createPerfMpnitorPyw
PUBLIC	?check@CPerfMonitor@@IEAAXXZ			; CPerfMonitor::check
PUBLIC	?run@CPerfMonitor@@IEAAXXZ			; CPerfMonitor::run
PUBLIC	?write_header@CPerfMonitor@@IEAAXPEAU_iobuf@@H@Z ; CPerfMonitor::write_header
PUBLIC	?write@CPerfMonitor@@IEAAXPEAU_iobuf@@H@Z	; CPerfMonitor::write
PUBLIC	?loader@CPerfMonitor@@KAXPEAX@Z			; CPerfMonitor::loader
PUBLIC	?SelectedCounters@CPerfMonitor@@IEAA?AV?$basic_string@DU?$char_traits@D@std@@V?$allocator@D@2@@std@@H@Z ; CPerfMonitor::SelectedCounters
PUBLIC	??4?$unique_ptr@XUhandle_deleter@@@std@@QEAAAEAV01@$$QEAV01@@Z ; std::unique_ptr<void,handle_deleter>::operator=
PUBLIC	??1?$unique_ptr@XUhandle_deleter@@@std@@QEAA@XZ	; std::unique_ptr<void,handle_deleter>::~unique_ptr<void,handle_deleter>
PUBLIC	?get@?$unique_ptr@XUhandle_deleter@@@std@@QEBAPEAXXZ ; std::unique_ptr<void,handle_deleter>::get
PUBLIC	??B?$unique_ptr@XUhandle_deleter@@@std@@QEBA_NXZ ; std::unique_ptr<void,handle_deleter>::operator bool
PUBLIC	?release@?$unique_ptr@XUhandle_deleter@@@std@@QEAAPEAXXZ ; std::unique_ptr<void,handle_deleter>::release
PUBLIC	?reset@?$unique_ptr@XUhandle_deleter@@@std@@QEAAXPEAX@Z ; std::unique_ptr<void,handle_deleter>::reset
PUBLIC	?_Get_first@?$_Compressed_pair@Uhandle_deleter@@PEAX$00@std@@QEAAAEAUhandle_deleter@@XZ ; std::_Compressed_pair<handle_deleter,void *,1>::_Get_first
PUBLIC	??R?$default_delete@VRGYPipeProcess@@@std@@QEBAXPEAVRGYPipeProcess@@@Z ; std::default_delete<RGYPipeProcess>::operator()
PUBLIC	??4?$unique_ptr@VRGYPipeProcess@@U?$default_delete@VRGYPipeProcess@@@std@@@std@@QEAAAEAV01@$$QEAV01@@Z ; std::unique_ptr<RGYPipeProcess,std::default_delete<RGYPipeProcess> >::operator=
PUBLIC	??1?$unique_ptr@VRGYPipeProcess@@U?$default_delete@VRGYPipeProcess@@@std@@@std@@QEAA@XZ ; std::unique_ptr<RGYPipeProcess,std::default_delete<RGYPipeProcess> >::~unique_ptr<RGYPipeProcess,std::default_delete<RGYPipeProcess> >
PUBLIC	??C?$unique_ptr@VRGYPipeProcess@@U?$default_delete@VRGYPipeProcess@@@std@@@std@@QEBAPEAVRGYPipeProcess@@XZ ; std::unique_ptr<RGYPipeProcess,std::default_delete<RGYPipeProcess> >::operator->
PUBLIC	?get@?$unique_ptr@VRGYPipeProcess@@U?$default_delete@VRGYPipeProcess@@@std@@@std@@QEBAPEAVRGYPipeProcess@@XZ ; std::unique_ptr<RGYPipeProcess,std::default_delete<RGYPipeProcess> >::get
PUBLIC	??B?$unique_ptr@VRGYPipeProcess@@U?$default_delete@VRGYPipeProcess@@@std@@@std@@QEBA_NXZ ; std::unique_ptr<RGYPipeProcess,std::default_delete<RGYPipeProcess> >::operator bool
PUBLIC	?release@?$unique_ptr@VRGYPipeProcess@@U?$default_delete@VRGYPipeProcess@@@std@@@std@@QEAAPEAVRGYPipeProcess@@XZ ; std::unique_ptr<RGYPipeProcess,std::default_delete<RGYPipeProcess> >::release
PUBLIC	?reset@?$unique_ptr@VRGYPipeProcess@@U?$default_delete@VRGYPipeProcess@@@std@@@std@@QEAAXPEAVRGYPipeProcess@@@Z ; std::unique_ptr<RGYPipeProcess,std::default_delete<RGYPipeProcess> >::reset
PUBLIC	?_Get_first@?$_Compressed_pair@U?$default_delete@VRGYPipeProcess@@@std@@PEAVRGYPipeProcess@@$00@std@@QEAAAEAU?$default_delete@VRGYPipeProcess@@@2@XZ ; std::_Compressed_pair<std::default_delete<RGYPipeProcess>,RGYPipeProcess *,1>::_Get_first
PUBLIC	?get@?$_Ptr_base@VEncodeStatus@@@std@@IEBAPEAVEncodeStatus@@XZ ; std::_Ptr_base<EncodeStatus>::get
PUBLIC	??0?$_Ptr_base@VEncodeStatus@@@std@@IEAA@XZ	; std::_Ptr_base<EncodeStatus>::_Ptr_base<EncodeStatus>
PUBLIC	?_Decref@?$_Ptr_base@VEncodeStatus@@@std@@IEAAXXZ ; std::_Ptr_base<EncodeStatus>::_Decref
PUBLIC	?_Swap@?$_Ptr_base@VEncodeStatus@@@std@@IEAAXAEAV12@@Z ; std::_Ptr_base<EncodeStatus>::_Swap
PUBLIC	??0?$shared_ptr@VEncodeStatus@@@std@@QEAA@XZ	; std::shared_ptr<EncodeStatus>::shared_ptr<EncodeStatus>
PUBLIC	??0?$shared_ptr@VEncodeStatus@@@std@@QEAA@AEBV01@@Z ; std::shared_ptr<EncodeStatus>::shared_ptr<EncodeStatus>
PUBLIC	??1?$shared_ptr@VEncodeStatus@@@std@@QEAA@XZ	; std::shared_ptr<EncodeStatus>::~shared_ptr<EncodeStatus>
PUBLIC	??4?$shared_ptr@VEncodeStatus@@@std@@QEAAAEAV01@AEBV01@@Z ; std::shared_ptr<EncodeStatus>::operator=
PUBLIC	?swap@?$shared_ptr@VEncodeStatus@@@std@@QEAAXAEAV12@@Z ; std::shared_ptr<EncodeStatus>::swap
PUBLIC	??B?$shared_ptr@VEncodeStatus@@@std@@QEBA_NXZ	; std::shared_ptr<EncodeStatus>::operator bool
PUBLIC	??4?$unique_ptr@U_iobuf@@Ufp_deleter@@@std@@QEAAAEAV01@$$QEAV01@@Z ; std::unique_ptr<_iobuf,fp_deleter>::operator=
PUBLIC	??1?$unique_ptr@U_iobuf@@Ufp_deleter@@@std@@QEAA@XZ ; std::unique_ptr<_iobuf,fp_deleter>::~unique_ptr<_iobuf,fp_deleter>
PUBLIC	?get@?$unique_ptr@U_iobuf@@Ufp_deleter@@@std@@QEBAPEAU_iobuf@@XZ ; std::unique_ptr<_iobuf,fp_deleter>::get
PUBLIC	??B?$unique_ptr@U_iobuf@@Ufp_deleter@@@std@@QEBA_NXZ ; std::unique_ptr<_iobuf,fp_deleter>::operator bool
PUBLIC	?release@?$unique_ptr@U_iobuf@@Ufp_deleter@@@std@@QEAAPEAU_iobuf@@XZ ; std::unique_ptr<_iobuf,fp_deleter>::release
PUBLIC	?reset@?$unique_ptr@U_iobuf@@Ufp_deleter@@@std@@QEAAXPEAU_iobuf@@@Z ; std::unique_ptr<_iobuf,fp_deleter>::reset
PUBLIC	?_Get_first@?$_Compressed_pair@Ufp_deleter@@PEAU_iobuf@@$00@std@@QEAAAEAUfp_deleter@@XZ ; std::_Compressed_pair<fp_deleter,_iobuf *,1>::_Get_first
PUBLIC	?get@?$_Ptr_base@VRGYLog@@@std@@IEBAPEAVRGYLog@@XZ ; std::_Ptr_base<RGYLog>::get
PUBLIC	??0?$_Ptr_base@VRGYLog@@@std@@IEAA@XZ		; std::_Ptr_base<RGYLog>::_Ptr_base<RGYLog>
PUBLIC	?_Decref@?$_Ptr_base@VRGYLog@@@std@@IEAAXXZ	; std::_Ptr_base<RGYLog>::_Decref
PUBLIC	?_Swap@?$_Ptr_base@VRGYLog@@@std@@IEAAXAEAV12@@Z ; std::_Ptr_base<RGYLog>::_Swap
PUBLIC	??0?$shared_ptr@VRGYLog@@@std@@QEAA@XZ		; std::shared_ptr<RGYLog>::shared_ptr<RGYLog>
PUBLIC	??0?$shared_ptr@VRGYLog@@@std@@QEAA@AEBV01@@Z	; std::shared_ptr<RGYLog>::shared_ptr<RGYLog>
PUBLIC	??1?$shared_ptr@VRGYLog@@@std@@QEAA@XZ		; std::shared_ptr<RGYLog>::~shared_ptr<RGYLog>
PUBLIC	??4?$shared_ptr@VRGYLog@@@std@@QEAAAEAV01@AEBV01@@Z ; std::shared_ptr<RGYLog>::operator=
PUBLIC	?swap@?$shared_ptr@VRGYLog@@@std@@QEAAXAEAV12@@Z ; std::shared_ptr<RGYLog>::swap
PUBLIC	?reset@?$shared_ptr@VRGYLog@@@std@@QEAAXXZ	; std::shared_ptr<RGYLog>::reset
PUBLIC	?getStartTimeMicroSec@EncodeStatus@@QEAA_JXZ	; EncodeStatus::getStartTimeMicroSec
PUBLIC	?getEncStarted@EncodeStatus@@QEAA_NXZ		; EncodeStatus::getEncStarted
PUBLIC	?GetEncodeData@EncodeStatus@@QEAA?AUEncodeStatusData@@XZ ; EncodeStatus::GetEncodeData
PUBLIC	??$?CVRGYLog@@$0A@@?$shared_ptr@VRGYLog@@@std@@QEBAPEAVRGYLog@@XZ ; std::shared_ptr<RGYLog>::operator-><RGYLog,0>
PUBLIC	??$?GUsteady_clock@chrono@std@@V?$duration@_JU?$ratio@$00$0DLJKMKAA@@std@@@12@V312@@chrono@std@@YA?AV?$duration@_JU?$ratio@$00$0DLJKMKAA@@std@@@01@AEBV?$time_point@Usteady_clock@chrono@std@@V?$duration@_JU?$ratio@$00$0DLJKMKAA@@std@@@23@@01@0@Z ; std::chrono::operator-<std::chrono::steady_clock,std::chrono::duration<__int64,std::ratio<1,1000000000> >,std::chrono::duration<__int64,std::ratio<1,1000000000> > >
PUBLIC	??$?0HX@?$duration@_JU?$ratio@$00$0DOI@@std@@@chrono@std@@QEAA@AEBH@Z ; std::chrono::duration<__int64,std::ratio<1,1000> >::duration<__int64,std::ratio<1,1000> ><int,void>
PUBLIC	??$?0Uhandle_deleter@@$0A@@?$unique_ptr@XUhandle_deleter@@@std@@QEAA@XZ ; std::unique_ptr<void,handle_deleter>::unique_ptr<void,handle_deleter><handle_deleter,0>
PUBLIC	??$?0U?$default_delete@VRGYPipeProcess@@@std@@$0A@@?$unique_ptr@VRGYPipeProcess@@U?$default_delete@VRGYPipeProcess@@@std@@@std@@QEAA@XZ ; std::unique_ptr<RGYPipeProcess,std::default_delete<RGYPipeProcess> >::unique_ptr<RGYPipeProcess,std::default_delete<RGYPipeProcess> ><std::default_delete<RGYPipeProcess>,0>
PUBLIC	??$?0Ufp_deleter@@$0A@@?$unique_ptr@U_iobuf@@Ufp_deleter@@@std@@QEAA@XZ ; std::unique_ptr<_iobuf,fp_deleter>::unique_ptr<_iobuf,fp_deleter><fp_deleter,0>
PUBLIC	??$move@AEAV?$unique_ptr@XUhandle_deleter@@@std@@@std@@YA$$QEAV?$unique_ptr@XUhandle_deleter@@@0@AEAV10@@Z ; std::move<std::unique_ptr<void,handle_deleter> &>
PUBLIC	??$?0Ufp_deleter@@$0A@@?$unique_ptr@U_iobuf@@Ufp_deleter@@@std@@QEAA@PEAU_iobuf@@@Z ; std::unique_ptr<_iobuf,fp_deleter>::unique_ptr<_iobuf,fp_deleter><fp_deleter,0>
PUBLIC	??$?0U?$default_delete@VRGYPipeProcess@@@std@@$0A@@?$unique_ptr@VRGYPipeProcess@@U?$default_delete@VRGYPipeProcess@@@std@@@std@@QEAA@PEAVRGYPipeProcess@@@Z ; std::unique_ptr<RGYPipeProcess,std::default_delete<RGYPipeProcess> >::unique_ptr<RGYPipeProcess,std::default_delete<RGYPipeProcess> ><std::default_delete<RGYPipeProcess>,0>
PUBLIC	??0?$allocator@PEBD@std@@QEAA@XZ		; std::allocator<char const *>::allocator<char const *>
PUBLIC	?deallocate@?$allocator@PEBD@std@@QEAAXQEAPEBD_K@Z ; std::allocator<char const *>::deallocate
PUBLIC	?allocate@?$allocator@PEBD@std@@QEAAPEAPEBD_K@Z	; std::allocator<char const *>::allocate
PUBLIC	?max_size@?$_Default_allocator_traits@V?$allocator@PEBD@std@@@std@@SA_KAEBV?$allocator@PEBD@2@@Z ; std::_Default_allocator_traits<std::allocator<char const *> >::max_size
PUBLIC	??0?$vector@PEBDV?$allocator@PEBD@std@@@std@@QEAA@XZ ; std::vector<char const *,std::allocator<char const *> >::vector<char const *,std::allocator<char const *> >
PUBLIC	??1?$vector@PEBDV?$allocator@PEBD@std@@@std@@QEAA@XZ ; std::vector<char const *,std::allocator<char const *> >::~vector<char const *,std::allocator<char const *> >
PUBLIC	?push_back@?$vector@PEBDV?$allocator@PEBD@std@@@std@@QEAAXAEBQEBD@Z ; std::vector<char const *,std::allocator<char const *> >::push_back
PUBLIC	?push_back@?$vector@PEBDV?$allocator@PEBD@std@@@std@@QEAAX$$QEAPEBD@Z ; std::vector<char const *,std::allocator<char const *> >::push_back
PUBLIC	?max_size@?$vector@PEBDV?$allocator@PEBD@std@@@std@@QEBA_KXZ ; std::vector<char const *,std::allocator<char const *> >::max_size
PUBLIC	?capacity@?$vector@PEBDV?$allocator@PEBD@std@@@std@@QEBA_KXZ ; std::vector<char const *,std::allocator<char const *> >::capacity
PUBLIC	?_Umove@?$vector@PEBDV?$allocator@PEBD@std@@@std@@AEAAPEAPEBDPEAPEBD00@Z ; std::vector<char const *,std::allocator<char const *> >::_Umove
PUBLIC	?_Umove_if_noexcept1@?$vector@PEBDV?$allocator@PEBD@std@@@std@@AEAAXPEAPEBD00U?$integral_constant@_N$00@2@@Z ; std::vector<char const *,std::allocator<char const *> >::_Umove_if_noexcept1
PUBLIC	?_Umove_if_noexcept@?$vector@PEBDV?$allocator@PEBD@std@@@std@@AEAAXPEAPEBD00@Z ; std::vector<char const *,std::allocator<char const *> >::_Umove_if_noexcept
PUBLIC	?_Destroy@?$vector@PEBDV?$allocator@PEBD@std@@@std@@AEAAXPEAPEBD0@Z ; std::vector<char const *,std::allocator<char const *> >::_Destroy
PUBLIC	?_Calculate_growth@?$vector@PEBDV?$allocator@PEBD@std@@@std@@AEBA_K_K@Z ; std::vector<char const *,std::allocator<char const *> >::_Calculate_growth
PUBLIC	?_Change_array@?$vector@PEBDV?$allocator@PEBD@std@@@std@@AEAAXQEAPEBD_K1@Z ; std::vector<char const *,std::allocator<char const *> >::_Change_array
PUBLIC	?_Tidy@?$vector@PEBDV?$allocator@PEBD@std@@@std@@AEAAXXZ ; std::vector<char const *,std::allocator<char const *> >::_Tidy
PUBLIC	?_Xlength@?$vector@PEBDV?$allocator@PEBD@std@@@std@@CAXXZ ; std::vector<char const *,std::allocator<char const *> >::_Xlength
PUBLIC	?_Orphan_range@?$vector@PEBDV?$allocator@PEBD@std@@@std@@AEBAXPEAPEBD0@Z ; std::vector<char const *,std::allocator<char const *> >::_Orphan_range
PUBLIC	?_Getal@?$vector@PEBDV?$allocator@PEBD@std@@@std@@AEAAAEAV?$allocator@PEBD@2@XZ ; std::vector<char const *,std::allocator<char const *> >::_Getal
PUBLIC	?_Getal@?$vector@PEBDV?$allocator@PEBD@std@@@std@@AEBAAEBV?$allocator@PEBD@2@XZ ; std::vector<char const *,std::allocator<char const *> >::_Getal
PUBLIC	??0?$_Vector_val@U?$_Simple_types@PEBD@std@@@std@@QEAA@XZ ; std::_Vector_val<std::_Simple_types<char const *> >::_Vector_val<std::_Simple_types<char const *> >
PUBLIC	?_Get_first@?$_Compressed_pair@V?$allocator@PEBD@std@@V?$_Vector_val@U?$_Simple_types@PEBD@std@@@2@$00@std@@QEAAAEAV?$allocator@PEBD@2@XZ ; std::_Compressed_pair<std::allocator<char const *>,std::_Vector_val<std::_Simple_types<char const *> >,1>::_Get_first
PUBLIC	?_Get_first@?$_Compressed_pair@V?$allocator@PEBD@std@@V?$_Vector_val@U?$_Simple_types@PEBD@std@@@2@$00@std@@QEBAAEBV?$allocator@PEBD@2@XZ ; std::_Compressed_pair<std::allocator<char const *>,std::_Vector_val<std::_Simple_types<char const *> >,1>::_Get_first
PUBLIC	??$?0A6AXPEAX@ZPEAVCPerfMonitor@@X@thread@std@@QEAA@A6AXPEAX@Z$$QEAPEAVCPerfMonitor@@@Z ; std::thread::thread<void (__cdecl&)(void *),CPerfMonitor *,void>
PUBLIC	??$?CVEncodeStatus@@$0A@@?$shared_ptr@VEncodeStatus@@@std@@QEBAPEAVEncodeStatus@@XZ ; std::shared_ptr<EncodeStatus>::operator-><EncodeStatus,0>
PUBLIC	??$sleep_for@_JU?$ratio@$00$0DOI@@std@@@this_thread@std@@YAXAEBV?$duration@_JU?$ratio@$00$0DOI@@std@@@chrono@1@@Z ; std::this_thread::sleep_for<__int64,std::ratio<1,1000> >
PUBLIC	??$move@AEAPEBD@std@@YA$$QEAPEBDAEAPEBD@Z	; std::move<char const * &>
PUBLIC	??$emplace_back@PEBD@?$vector@PEBDV?$allocator@PEBD@std@@@std@@QEAAX$$QEAPEBD@Z ; std::vector<char const *,std::allocator<char const *> >::emplace_back<char const *>
PUBLIC	??$forward@PEBD@std@@YA$$QEAPEBDAEAPEBD@Z	; std::forward<char const *>
PUBLIC	??$_Emplace_back_with_unused_capacity@PEBD@?$vector@PEBDV?$allocator@PEBD@std@@@std@@AEAAX$$QEAPEBD@Z ; std::vector<char const *,std::allocator<char const *> >::_Emplace_back_with_unused_capacity<char const *>
PUBLIC	??$_Unfancy@PEBD@std@@YAPEAPEBDPEAPEBD@Z	; std::_Unfancy<char const *>
PUBLIC	??$construct@PEBDPEBD@?$_Default_allocator_traits@V?$allocator@PEBD@std@@@std@@SAXAEAV?$allocator@PEBD@1@QEAPEBD$$QEAPEBD@Z ; std::_Default_allocator_traits<std::allocator<char const *> >::construct<char const *,char const *>
PUBLIC	??$_Emplace_reallocate@PEBD@?$vector@PEBDV?$allocator@PEBD@std@@@std@@QEAAPEAPEBDQEAPEBD$$QEAPEBD@Z ; std::vector<char const *,std::allocator<char const *> >::_Emplace_reallocate<char const *>
PUBLIC	??$emplace_back@AEBQEBD@?$vector@PEBDV?$allocator@PEBD@std@@@std@@QEAAXAEBQEBD@Z ; std::vector<char const *,std::allocator<char const *> >::emplace_back<char const * const &>
PUBLIC	??$forward@AEBQEBD@std@@YAAEBQEBDAEBQEBD@Z	; std::forward<char const * const &>
PUBLIC	??$_Emplace_back_with_unused_capacity@AEBQEBD@?$vector@PEBDV?$allocator@PEBD@std@@@std@@AEAAXAEBQEBD@Z ; std::vector<char const *,std::allocator<char const *> >::_Emplace_back_with_unused_capacity<char const * const &>
PUBLIC	??$construct@PEBDAEBQEBD@?$_Default_allocator_traits@V?$allocator@PEBD@std@@@std@@SAXAEAV?$allocator@PEBD@1@QEAPEBDAEBQEBD@Z ; std::_Default_allocator_traits<std::allocator<char const *> >::construct<char const *,char const * const &>
PUBLIC	??$_Emplace_reallocate@AEBQEBD@?$vector@PEBDV?$allocator@PEBD@std@@@std@@QEAAPEAPEBDQEAPEBDAEBQEBD@Z ; std::vector<char const *,std::allocator<char const *> >::_Emplace_reallocate<char const * const &>
PUBLIC	?allocate@?$allocator@U_Container_proxy@std@@@std@@QEAAPEAU_Container_proxy@2@_K@Z ; std::allocator<std::_Container_proxy>::allocate
PUBLIC	??$?0PEBD@?$allocator@U_Container_proxy@std@@@std@@QEAA@AEBV?$allocator@PEBD@1@@Z ; std::allocator<std::_Container_proxy>::allocator<std::_Container_proxy><char const *>
PUBLIC	??$exchange@PEAU_Container_proxy@std@@$$T@std@@YAPEAU_Container_proxy@0@AEAPEAU10@$$QEA$$T@Z ; std::exchange<std::_Container_proxy *,std::nullptr_t>
PUBLIC	??$_Delete_plain_internal@V?$allocator@U_Container_proxy@std@@@std@@@std@@YAXAEAV?$allocator@U_Container_proxy@std@@@0@QEAU_Container_proxy@0@@Z ; std::_Delete_plain_internal<std::allocator<std::_Container_proxy> >
PUBLIC	??$?0$$V@?$_Compressed_pair@V?$allocator@PEBD@std@@V?$_Vector_val@U?$_Simple_types@PEBD@std@@@2@$00@std@@QEAA@U_Zero_then_variadic_args_t@1@@Z ; std::_Compressed_pair<std::allocator<char const *>,std::_Vector_val<std::_Simple_types<char const *> >,1>::_Compressed_pair<std::allocator<char const *>,std::_Vector_val<std::_Simple_types<char const *> >,1><>
PUBLIC	??$_Alloc_proxy@V?$allocator@U_Container_proxy@std@@@std@@@_Container_base12@std@@QEAAX$$QEAV?$allocator@U_Container_proxy@std@@@1@@Z ; std::_Container_base12::_Alloc_proxy<std::allocator<std::_Container_proxy> >
PUBLIC	??$exchange@PEAU_iobuf@@AEAPEAU1@@std@@YAPEAU_iobuf@@AEAPEAU1@0@Z ; std::exchange<_iobuf *,_iobuf * &>
PUBLIC	??$addressof@V?$unique_ptr@U_iobuf@@Ufp_deleter@@@std@@@std@@YAPEAV?$unique_ptr@U_iobuf@@Ufp_deleter@@@0@AEAV10@@Z ; std::addressof<std::unique_ptr<_iobuf,fp_deleter> >
PUBLIC	??$forward@Ufp_deleter@@@std@@YA$$QEAUfp_deleter@@AEAU1@@Z ; std::forward<fp_deleter>
PUBLIC	??$exchange@PEAVRGYPipeProcess@@AEAPEAV1@@std@@YAPEAVRGYPipeProcess@@AEAPEAV1@0@Z ; std::exchange<RGYPipeProcess *,RGYPipeProcess * &>
PUBLIC	??$addressof@V?$unique_ptr@VRGYPipeProcess@@U?$default_delete@VRGYPipeProcess@@@std@@@std@@@std@@YAPEAV?$unique_ptr@VRGYPipeProcess@@U?$default_delete@VRGYPipeProcess@@@std@@@0@AEAV10@@Z ; std::addressof<std::unique_ptr<RGYPipeProcess,std::default_delete<RGYPipeProcess> > >
PUBLIC	??$forward@U?$default_delete@VRGYPipeProcess@@@std@@@std@@YA$$QEAU?$default_delete@VRGYPipeProcess@@@0@AEAU10@@Z ; std::forward<std::default_delete<RGYPipeProcess> >
PUBLIC	??$exchange@PEAXAEAPEAX@std@@YAPEAXAEAPEAX0@Z	; std::exchange<void *,void * &>
PUBLIC	??$addressof@V?$unique_ptr@XUhandle_deleter@@@std@@@std@@YAPEAV?$unique_ptr@XUhandle_deleter@@@0@AEAV10@@Z ; std::addressof<std::unique_ptr<void,handle_deleter> >
PUBLIC	??$forward@Uhandle_deleter@@@std@@YA$$QEAUhandle_deleter@@AEAU1@@Z ; std::forward<handle_deleter>
PUBLIC	??$move@AEAV?$basic_string@DU?$char_traits@D@std@@V?$allocator@D@2@@std@@@std@@YA$$QEAV?$basic_string@DU?$char_traits@D@std@@V?$allocator@D@2@@0@AEAV10@@Z ; std::move<std::basic_string<char,std::char_traits<char>,std::allocator<char> > &>
PUBLIC	??$_Min_value@_K@std@@YAAEB_KAEB_K0@Z		; std::_Min_value<unsigned __int64>
PUBLIC	??0?$_Container_proxy_ptr12@V?$allocator@U_Container_proxy@std@@@std@@@std@@QEAA@AEAV?$allocator@U_Container_proxy@std@@@1@AEAU_Container_base12@1@@Z ; std::_Container_proxy_ptr12<std::allocator<std::_Container_proxy> >::_Container_proxy_ptr12<std::allocator<std::_Container_proxy> >
PUBLIC	??1?$_Container_proxy_ptr12@V?$allocator@U_Container_proxy@std@@@std@@@std@@QEAA@XZ ; std::_Container_proxy_ptr12<std::allocator<std::_Container_proxy> >::~_Container_proxy_ptr12<std::allocator<std::_Container_proxy> >
PUBLIC	??$_Unfancy@D@std@@YAPEADPEAD@Z			; std::_Unfancy<char>
PUBLIC	??$addressof@V?$_String_val@U?$_Simple_types@D@std@@@std@@@std@@YAPEAV?$_String_val@U?$_Simple_types@D@std@@@0@AEAV10@@Z ; std::addressof<std::_String_val<std::_Simple_types<char> > >
PUBLIC	??$addressof@$$CBV?$basic_string@DU?$char_traits@D@std@@V?$allocator@D@2@@std@@@std@@YAPEBV?$basic_string@DU?$char_traits@D@std@@V?$allocator@D@2@@0@AEBV10@@Z ; std::addressof<std::basic_string<char,std::char_traits<char>,std::allocator<char> > const >
PUBLIC	??$?0D@?$allocator@U_Container_proxy@std@@@std@@QEAA@AEBV?$allocator@D@1@@Z ; std::allocator<std::_Container_proxy>::allocator<std::_Container_proxy><char>
PUBLIC	??$addressof@V?$basic_string@DU?$char_traits@D@std@@V?$allocator@D@2@@std@@@std@@YAPEAV?$basic_string@DU?$char_traits@D@std@@V?$allocator@D@2@@0@AEAV10@@Z ; std::addressof<std::basic_string<char,std::char_traits<char>,std::allocator<char> > >
PUBLIC	??$move@AEAV?$allocator@D@std@@@std@@YA$$QEAV?$allocator@D@0@AEAV10@@Z ; std::move<std::allocator<char> &>
PUBLIC	??$?0V?$allocator@D@std@@$$V@?$_Compressed_pair@V?$allocator@D@std@@V?$_String_val@U?$_Simple_types@D@std@@@2@$00@std@@QEAA@U_One_then_variadic_args_t@1@$$QEAV?$allocator@D@1@@Z ; std::_Compressed_pair<std::allocator<char>,std::_String_val<std::_Simple_types<char> >,1>::_Compressed_pair<std::allocator<char>,std::_String_val<std::_Simple_types<char> >,1><std::allocator<char> >
PUBLIC	??$?0$$V@?$_Compressed_pair@V?$allocator@D@std@@V?$_String_val@U?$_Simple_types@D@std@@@2@$00@std@@QEAA@U_Zero_then_variadic_args_t@1@@Z ; std::_Compressed_pair<std::allocator<char>,std::_String_val<std::_Simple_types<char> >,1>::_Compressed_pair<std::allocator<char>,std::_String_val<std::_Simple_types<char> >,1><>
PUBLIC	??$_Unfancy@U_Container_proxy@std@@@std@@YAPEAU_Container_proxy@0@PEAU10@@Z ; std::_Unfancy<std::_Container_proxy>
PUBLIC	??$addressof@U_Container_base12@std@@@std@@YAPEAU_Container_base12@0@AEAU10@@Z ; std::addressof<std::_Container_base12>
PUBLIC	??$_Construct_in_place@U_Container_proxy@std@@PEAU_Container_base12@2@@std@@YAXAEAU_Container_proxy@0@$$QEAPEAU_Container_base12@0@@Z ; std::_Construct_in_place<std::_Container_proxy,std::_Container_base12 *>
PUBLIC	??$_Copy_construct_from@VRGYLog@@@?$_Ptr_base@VRGYLog@@@std@@IEAAXAEBV?$shared_ptr@VRGYLog@@@1@@Z ; std::_Ptr_base<RGYLog>::_Copy_construct_from<RGYLog>
PUBLIC	??$exchange@PEAU_iobuf@@PEAU1@@std@@YAPEAU_iobuf@@AEAPEAU1@$$QEAPEAU1@@Z ; std::exchange<_iobuf *,_iobuf *>
PUBLIC	??$_Copy_construct_from@VEncodeStatus@@@?$_Ptr_base@VEncodeStatus@@@std@@IEAAXAEBV?$shared_ptr@VEncodeStatus@@@1@@Z ; std::_Ptr_base<EncodeStatus>::_Copy_construct_from<EncodeStatus>
PUBLIC	??$exchange@PEAVRGYPipeProcess@@PEAV1@@std@@YAPEAVRGYPipeProcess@@AEAPEAV1@$$QEAPEAV1@@Z ; std::exchange<RGYPipeProcess *,RGYPipeProcess *>
PUBLIC	??$exchange@PEAXPEAX@std@@YAPEAXAEAPEAX$$QEAPEAX@Z ; std::exchange<void *,void *>
PUBLIC	??$_Destroy_in_place@PEAD@std@@YAXAEAPEAD@Z	; std::_Destroy_in_place<char *>
PUBLIC	??$_Max_value@_K@std@@YAAEB_KAEB_K0@Z		; std::_Max_value<unsigned __int64>
PUBLIC	??$addressof@$$CBV?$_String_val@U?$_Simple_types@D@std@@@std@@@std@@YAPEBV?$_String_val@U?$_Simple_types@D@std@@@0@AEBV10@@Z ; std::addressof<std::_String_val<std::_Simple_types<char> > const >
PUBLIC	??R<lambda_66f57f934f28d61049862f64df852ff0>@@QEBAXQEAD_KQEBD@Z ; <lambda_66f57f934f28d61049862f64df852ff0>::operator()
PUBLIC	??$_Reallocate_for@V<lambda_66f57f934f28d61049862f64df852ff0>@@PEBD@?$basic_string@DU?$char_traits@D@std@@V?$allocator@D@2@@std@@AEAAAEAV01@_KV<lambda_66f57f934f28d61049862f64df852ff0>@@PEBD@Z ; std::basic_string<char,std::char_traits<char>,std::allocator<char> >::_Reallocate_for<<lambda_66f57f934f28d61049862f64df852ff0>,char const *>
PUBLIC	??R<lambda_65e615be2a453ca0576c979606f46740>@@QEBAXQEADQEBD_K12@Z ; <lambda_65e615be2a453ca0576c979606f46740>::operator()
PUBLIC	??$_Reallocate_grow_by@V<lambda_65e615be2a453ca0576c979606f46740>@@PEBD_K@?$basic_string@DU?$char_traits@D@std@@V?$allocator@D@2@@std@@AEAAAEAV01@_KV<lambda_65e615be2a453ca0576c979606f46740>@@PEBD_K@Z ; std::basic_string<char,std::char_traits<char>,std::allocator<char> >::_Reallocate_grow_by<<lambda_65e615be2a453ca0576c979606f46740>,char const *,unsigned __int64>
PUBLIC	??$_Pocca@V?$allocator@D@std@@@std@@YAXAEAV?$allocator@D@0@AEBV10@@Z ; std::_Pocca<std::allocator<char> >
PUBLIC	??$_Construct_in_place@PEADAEBQEAD@std@@YAXAEAPEADAEBQEAD@Z ; std::_Construct_in_place<char *,char * const &>
PUBLIC	??$_Pocma@V?$allocator@D@std@@@std@@YAXAEAV?$allocator@D@0@0@Z ; std::_Pocma<std::allocator<char> >
PUBLIC	??$_Get_size_of_n@$00@std@@YA_K_K@Z		; std::_Get_size_of_n<1>
PUBLIC	??$_Allocate@$0BA@U_Default_allocate_traits@std@@$0A@@std@@YAPEAX_K@Z ; std::_Allocate<16,std::_Default_allocate_traits,0>
PUBLIC	??$_Deallocate@$0BA@$0A@@std@@YAXPEAX_K@Z	; std::_Deallocate<16,0>
PUBLIC	??$_Get_size_of_n@$0BA@@std@@YA_K_K@Z		; std::_Get_size_of_n<16>
PUBLIC	??$_Destroy_range@V?$allocator@PEBD@std@@@std@@YAXPEAPEBDQEAPEBDAEAV?$allocator@PEBD@0@@Z ; std::_Destroy_range<std::allocator<char const *> >
PUBLIC	??$swap@PEAV_Ref_count_base@std@@X@std@@YAXAEAPEAV_Ref_count_base@0@0@Z ; std::swap<std::_Ref_count_base *,void>
PUBLIC	??$swap@PEAVRGYLog@@X@std@@YAXAEAPEAVRGYLog@@0@Z ; std::swap<RGYLog *,void>
PUBLIC	??$swap@PEAVEncodeStatus@@X@std@@YAXAEAPEAVEncodeStatus@@0@Z ; std::swap<EncodeStatus *,void>
PUBLIC	??$?G_JU?$ratio@$00$0DLJKMKAA@@std@@_JU01@@chrono@std@@YA?AV?$duration@_JU?$ratio@$00$0DLJKMKAA@@std@@@01@AEBV201@0@Z ; std::chrono::operator-<__int64,std::ratio<1,1000000000>,__int64,std::ratio<1,1000000000> >
PUBLIC	??$sleep_until@Usteady_clock@chrono@std@@V?$duration@_JU?$ratio@$00$0DLJKMKAA@@std@@@23@@this_thread@std@@YAXAEBV?$time_point@Usteady_clock@chrono@std@@V?$duration@_JU?$ratio@$00$0DLJKMKAA@@std@@@23@@chrono@1@@Z ; std::this_thread::sleep_until<std::chrono::steady_clock,std::chrono::duration<__int64,std::ratio<1,1000000000> > >
PUBLIC	??$?0$$V@?$_Compressed_pair@Uhandle_deleter@@PEAX$00@std@@QEAA@U_Zero_then_variadic_args_t@1@@Z ; std::_Compressed_pair<handle_deleter,void *,1>::_Compressed_pair<handle_deleter,void *,1><>
PUBLIC	??$?0$$V@?$_Compressed_pair@U?$default_delete@VRGYPipeProcess@@@std@@PEAVRGYPipeProcess@@$00@std@@QEAA@U_Zero_then_variadic_args_t@1@@Z ; std::_Compressed_pair<std::default_delete<RGYPipeProcess>,RGYPipeProcess *,1>::_Compressed_pair<std::default_delete<RGYPipeProcess>,RGYPipeProcess *,1><>
PUBLIC	??$?0$$V@?$_Compressed_pair@Ufp_deleter@@PEAU_iobuf@@$00@std@@QEAA@U_Zero_then_variadic_args_t@1@@Z ; std::_Compressed_pair<fp_deleter,_iobuf *,1>::_Compressed_pair<fp_deleter,_iobuf *,1><>
PUBLIC	??$?0AEAPEAU_iobuf@@@?$_Compressed_pair@Ufp_deleter@@PEAU_iobuf@@$00@std@@QEAA@U_Zero_then_variadic_args_t@1@AEAPEAU_iobuf@@@Z ; std::_Compressed_pair<fp_deleter,_iobuf *,1>::_Compressed_pair<fp_deleter,_iobuf *,1><_iobuf * &>
PUBLIC	??$?0AEAPEAVRGYPipeProcess@@@?$_Compressed_pair@U?$default_delete@VRGYPipeProcess@@@std@@PEAVRGYPipeProcess@@$00@std@@QEAA@U_Zero_then_variadic_args_t@1@AEAPEAVRGYPipeProcess@@@Z ; std::_Compressed_pair<std::default_delete<RGYPipeProcess>,RGYPipeProcess *,1>::_Compressed_pair<std::default_delete<RGYPipeProcess>,RGYPipeProcess *,1><RGYPipeProcess * &>
PUBLIC	??$forward@A6AXPEAX@Z@std@@YAA6AXPEAX@ZA6AX0@Z@Z ; std::forward<void (__cdecl&)(void *)>
PUBLIC	??$forward@PEAVCPerfMonitor@@@std@@YA$$QEAPEAVCPerfMonitor@@AEAPEAV1@@Z ; std::forward<CPerfMonitor *>
PUBLIC	??$make_unique@V?$tuple@P6AXPEAX@ZPEAVCPerfMonitor@@@std@@A6AXPEAX@ZPEAVCPerfMonitor@@$0A@@std@@YA?AV?$unique_ptr@V?$tuple@P6AXPEAX@ZPEAVCPerfMonitor@@@std@@U?$default_delete@V?$tuple@P6AXPEAX@ZPEAVCPerfMonitor@@@std@@@2@@0@A6AXPEAX@Z$$QEAPEAVCPerfMonitor@@@Z ; std::make_unique<std::tuple<void (__cdecl*)(void *),CPerfMonitor *>,void (__cdecl&)(void *),CPerfMonitor *,0>
PUBLIC	??R?$default_delete@V?$tuple@P6AXPEAX@ZPEAVCPerfMonitor@@@std@@@std@@QEBAXPEAV?$tuple@P6AXPEAX@ZPEAVCPerfMonitor@@@1@@Z ; std::default_delete<std::tuple<void (__cdecl*)(void *),CPerfMonitor *> >::operator()
PUBLIC	??1?$unique_ptr@V?$tuple@P6AXPEAX@ZPEAVCPerfMonitor@@@std@@U?$default_delete@V?$tuple@P6AXPEAX@ZPEAVCPerfMonitor@@@std@@@2@@std@@QEAA@XZ ; std::unique_ptr<std::tuple<void (__cdecl*)(void *),CPerfMonitor *>,std::default_delete<std::tuple<void (__cdecl*)(void *),CPerfMonitor *> > >::~unique_ptr<std::tuple<void (__cdecl*)(void *),CPerfMonitor *>,std::default_delete<std::tuple<void (__cdecl*)(void *),CPerfMonitor *> > >
PUBLIC	??D?$unique_ptr@V?$tuple@P6AXPEAX@ZPEAVCPerfMonitor@@@std@@U?$default_delete@V?$tuple@P6AXPEAX@ZPEAVCPerfMonitor@@@std@@@2@@std@@QEBAAEAV?$tuple@P6AXPEAX@ZPEAVCPerfMonitor@@@1@XZ ; std::unique_ptr<std::tuple<void (__cdecl*)(void *),CPerfMonitor *>,std::default_delete<std::tuple<void (__cdecl*)(void *),CPerfMonitor *> > >::operator*
PUBLIC	?get@?$unique_ptr@V?$tuple@P6AXPEAX@ZPEAVCPerfMonitor@@@std@@U?$default_delete@V?$tuple@P6AXPEAX@ZPEAVCPerfMonitor@@@std@@@2@@std@@QEBAPEAV?$tuple@P6AXPEAX@ZPEAVCPerfMonitor@@@2@XZ ; std::unique_ptr<std::tuple<void (__cdecl*)(void *),CPerfMonitor *>,std::default_delete<std::tuple<void (__cdecl*)(void *),CPerfMonitor *> > >::get
PUBLIC	?release@?$unique_ptr@V?$tuple@P6AXPEAX@ZPEAVCPerfMonitor@@@std@@U?$default_delete@V?$tuple@P6AXPEAX@ZPEAVCPerfMonitor@@@std@@@2@@std@@QEAAPEAV?$tuple@P6AXPEAX@ZPEAVCPerfMonitor@@@2@XZ ; std::unique_ptr<std::tuple<void (__cdecl*)(void *),CPerfMonitor *>,std::default_delete<std::tuple<void (__cdecl*)(void *),CPerfMonitor *> > >::release
PUBLIC	?_Get_first@?$_Compressed_pair@U?$default_delete@V?$tuple@P6AXPEAX@ZPEAVCPerfMonitor@@@std@@@std@@PEAV?$tuple@P6AXPEAX@ZPEAVCPerfMonitor@@@2@$00@std@@QEAAAEAU?$default_delete@V?$tuple@P6AXPEAX@ZPEAVCPerfMonitor@@@std@@@2@XZ ; std::_Compressed_pair<std::default_delete<std::tuple<void (__cdecl*)(void *),CPerfMonitor *> >,std::tuple<void (__cdecl*)(void *),CPerfMonitor *> *,1>::_Get_first
PUBLIC	??$_Invoke@V?$tuple@P6AXPEAX@ZPEAVCPerfMonitor@@@std@@$0A@$00@thread@std@@CAIPEAX@Z ; std::thread::_Invoke<std::tuple<void (__cdecl*)(void *),CPerfMonitor *>,0,1>
PUBLIC	??$?HUsteady_clock@chrono@std@@V?$duration@_JU?$ratio@$00$0DLJKMKAA@@std@@@12@_JU?$ratio@$00$0DOI@@2@@chrono@std@@YA?AV?$time_point@Usteady_clock@chrono@std@@V?$duration@_JU?$ratio@$00$0DLJKMKAA@@std@@@23@@01@AEBV201@AEBV?$duration@_JU?$ratio@$00$0DOI@@std@@@01@@Z ; std::chrono::operator+<std::chrono::steady_clock,std::chrono::duration<__int64,std::ratio<1,1000000000> >,__int64,std::ratio<1,1000> >
PUBLIC	??$_Deallocate_plain@V?$allocator@U_Container_proxy@std@@@std@@@std@@YAXAEAV?$allocator@U_Container_proxy@std@@@0@QEAU_Container_proxy@0@@Z ; std::_Deallocate_plain<std::allocator<std::_Container_proxy> >
PUBLIC	??$forward@V?$allocator@D@std@@@std@@YA$$QEAV?$allocator@D@0@AEAV10@@Z ; std::forward<std::allocator<char> >
PUBLIC	??$addressof@U_Container_proxy@std@@@std@@YAPEAU_Container_proxy@0@AEAU10@@Z ; std::addressof<std::_Container_proxy>
PUBLIC	??$forward@PEAU_Container_base12@std@@@std@@YA$$QEAPEAU_Container_base12@0@AEAPEAU10@@Z ; std::forward<std::_Container_base12 *>
PUBLIC	??$addressof@PEAD@std@@YAPEAPEADAEAPEAD@Z	; std::addressof<char *>
PUBLIC	??$forward@AEBQEAD@std@@YAAEBQEADAEBQEAD@Z	; std::forward<char * const &>
PUBLIC	??$_Allocate_manually_vector_aligned@U_Default_allocate_traits@std@@@std@@YAPEAX_K@Z ; std::_Allocate_manually_vector_aligned<std::_Default_allocate_traits>
PUBLIC	??$move@AEAPEAVCPerfMonitor@@@std@@YA$$QEAPEAVCPerfMonitor@@AEAPEAV1@@Z ; std::move<CPerfMonitor * &>
PUBLIC	??$move@AEAPEAV_Ref_count_base@std@@@std@@YA$$QEAPEAV_Ref_count_base@0@AEAPEAV10@@Z ; std::move<std::_Ref_count_base * &>
PUBLIC	??$move@AEAPEAVRGYLog@@@std@@YA$$QEAPEAVRGYLog@@AEAPEAV1@@Z ; std::move<RGYLog * &>
PUBLIC	??$move@AEAPEAVEncodeStatus@@@std@@YA$$QEAPEAVEncodeStatus@@AEAPEAV1@@Z ; std::move<EncodeStatus * &>
PUBLIC	??$exchange@PEAV?$tuple@P6AXPEAX@ZPEAVCPerfMonitor@@@std@@PEAV12@@std@@YAPEAV?$tuple@P6AXPEAX@ZPEAVCPerfMonitor@@@0@AEAPEAV10@$$QEAPEAV10@@Z ; std::exchange<std::tuple<void (__cdecl*)(void *),CPerfMonitor *> *,std::tuple<void (__cdecl*)(void *),CPerfMonitor *> *>
PUBLIC	??$_Uninitialized_move@PEAPEBDV?$allocator@PEBD@std@@@std@@YAPEAPEBDQEAPEBD0PEAPEBDAEAV?$allocator@PEBD@0@@Z ; std::_Uninitialized_move<char const * *,std::allocator<char const *> >
PUBLIC	??$_Get_size_of_n@$07@std@@YA_K_K@Z		; std::_Get_size_of_n<8>
PUBLIC	??R<lambda_f3a66ab6a0570788f31503db83886f49>@@QEBAXQEADQEBD_K212@Z ; <lambda_f3a66ab6a0570788f31503db83886f49>::operator()
PUBLIC	??$_Reallocate_grow_by@V<lambda_f3a66ab6a0570788f31503db83886f49>@@_KPEBD_K@?$basic_string@DU?$char_traits@D@std@@V?$allocator@D@2@@std@@AEAAAEAV01@_KV<lambda_f3a66ab6a0570788f31503db83886f49>@@_KPEBD2@Z ; std::basic_string<char,std::char_traits<char>,std::allocator<char> >::_Reallocate_grow_by<<lambda_f3a66ab6a0570788f31503db83886f49>,unsigned __int64,char const *,unsigned __int64>
PUBLIC	??$?0_JU?$ratio@$00$0DOI@@std@@X@?$duration@_JU?$ratio@$00$0DLJKMKAA@@std@@@chrono@std@@QEAA@AEBV?$duration@_JU?$ratio@$00$0DOI@@std@@@12@@Z ; std::chrono::duration<__int64,std::ratio<1,1000000000> >::duration<__int64,std::ratio<1,1000000000> ><__int64,std::ratio<1,1000>,void>
PUBLIC	??$?NUsteady_clock@chrono@std@@V?$duration@_JU?$ratio@$00$0DLJKMKAA@@std@@@12@V312@@chrono@std@@YA_NAEBV?$time_point@Usteady_clock@chrono@std@@V?$duration@_JU?$ratio@$00$0DLJKMKAA@@std@@@23@@01@0@Z ; std::chrono::operator<=<std::chrono::steady_clock,std::chrono::duration<__int64,std::ratio<1,1000000000> >,std::chrono::duration<__int64,std::ratio<1,1000000000> > >
PUBLIC	??$_To_xtime_10_day_clamped@_JU?$ratio@$00$0DLJKMKAA@@std@@@std@@YA_NAEAUxtime@@AEBV?$duration@_JU?$ratio@$00$0DLJKMKAA@@std@@@chrono@0@@Z ; std::_To_xtime_10_day_clamped<__int64,std::ratio<1,1000000000> >
PUBLIC	??$forward@AEAPEAU_iobuf@@@std@@YAAEAPEAU_iobuf@@AEAPEAU1@@Z ; std::forward<_iobuf * &>
PUBLIC	??$forward@AEAPEAVRGYPipeProcess@@@std@@YAAEAPEAVRGYPipeProcess@@AEAPEAV1@@Z ; std::forward<RGYPipeProcess * &>
PUBLIC	??$?0A6AXPEAX@ZPEAVCPerfMonitor@@$0A@@?$tuple@P6AXPEAX@ZPEAVCPerfMonitor@@@std@@QEAA@A6AXPEAX@Z$$QEAPEAVCPerfMonitor@@@Z ; std::tuple<void (__cdecl*)(void *),CPerfMonitor *>::tuple<void (__cdecl*)(void *),CPerfMonitor *><void (__cdecl&)(void *),CPerfMonitor *,0>
PUBLIC	??$?0U?$default_delete@V?$tuple@P6AXPEAX@ZPEAVCPerfMonitor@@@std@@@std@@$0A@@?$unique_ptr@V?$tuple@P6AXPEAX@ZPEAVCPerfMonitor@@@std@@U?$default_delete@V?$tuple@P6AXPEAX@ZPEAVCPerfMonitor@@@std@@@2@@std@@QEAA@PEAV?$tuple@P6AXPEAX@ZPEAVCPerfMonitor@@@1@@Z ; std::unique_ptr<std::tuple<void (__cdecl*)(void *),CPerfMonitor *>,std::default_delete<std::tuple<void (__cdecl*)(void *),CPerfMonitor *> > >::unique_ptr<std::tuple<void (__cdecl*)(void *),CPerfMonitor *>,std::default_delete<std::tuple<void (__cdecl*)(void *),CPerfMonitor *> > ><std::default_delete<std::tuple<void (__cdecl*)(void *),CPerfMonitor *> >,0>
PUBLIC	??$get@$0A@P6AXPEAX@ZPEAVCPerfMonitor@@@std@@YAAEAP6AXPEAX@ZAEAV?$tuple@P6AXPEAX@ZPEAVCPerfMonitor@@@0@@Z ; std::get<0,void (__cdecl*)(void *),CPerfMonitor *>
PUBLIC	??$move@AEAP6AXPEAX@Z@std@@YA$$QEAP6AXPEAX@ZAEAP6AX0@Z@Z ; std::move<void (__cdecl*&)(void *)>
PUBLIC	??$get@$00P6AXPEAX@ZPEAVCPerfMonitor@@@std@@YAAEAPEAVCPerfMonitor@@AEAV?$tuple@P6AXPEAX@ZPEAVCPerfMonitor@@@0@@Z ; std::get<1,void (__cdecl*)(void *),CPerfMonitor *>
PUBLIC	??$forward@P6AXPEAX@Z@std@@YA$$QEAP6AXPEAX@ZAEAP6AX0@Z@Z ; std::forward<void (__cdecl*)(void *)>
PUBLIC	??$_Call@P6AXPEAX@ZPEAVCPerfMonitor@@@_Invoker_functor@std@@SAX$$QEAP6AXPEAX@Z$$QEAPEAVCPerfMonitor@@@Z ; std::_Invoker_functor::_Call<void (__cdecl*)(void *),CPerfMonitor *>
PUBLIC	??$invoke@P6AXPEAX@ZPEAVCPerfMonitor@@@std@@YAX$$QEAP6AXPEAX@Z$$QEAPEAVCPerfMonitor@@@Z ; std::invoke<void (__cdecl*)(void *),CPerfMonitor *>
PUBLIC	??$?H_JU?$ratio@$00$0DLJKMKAA@@std@@_JU?$ratio@$00$0DOI@@1@@chrono@std@@YA?AV?$duration@_JU?$ratio@$00$0DLJKMKAA@@std@@@01@AEBV201@AEBV?$duration@_JU?$ratio@$00$0DOI@@std@@@01@@Z ; std::chrono::operator+<__int64,std::ratio<1,1000000000>,__int64,std::ratio<1,1000> >
PUBLIC	?deallocate@?$_Default_allocator_traits@V?$allocator@U_Container_proxy@std@@@std@@@std@@SAXAEAV?$allocator@U_Container_proxy@std@@@2@QEAU_Container_proxy@2@_K@Z ; std::_Default_allocator_traits<std::allocator<std::_Container_proxy> >::deallocate
PUBLIC	??$_Get_unwrapped@PEBD@std@@YAPEAPEBDQEAPEBD@Z	; std::_Get_unwrapped<char const *>
PUBLIC	??$_Copy_memmove@PEAPEBDPEAPEBD@std@@YAPEAPEBDPEAPEBD00@Z ; std::_Copy_memmove<char const * *,char const * *>
PUBLIC	??$duration_cast@V?$duration@_JU?$ratio@$00$0DLJKMKAA@@std@@@chrono@std@@_JU?$ratio@$00$0DOI@@3@X@chrono@std@@YA?AV?$duration@_JU?$ratio@$00$0DLJKMKAA@@std@@@01@AEBV?$duration@_JU?$ratio@$00$0DOI@@std@@@01@@Z ; std::chrono::duration_cast<std::chrono::duration<__int64,std::ratio<1,1000000000> >,__int64,std::ratio<1,1000>,void>
PUBLIC	??$?MUsteady_clock@chrono@std@@V?$duration@_JU?$ratio@$00$0DLJKMKAA@@std@@@12@V312@@chrono@std@@YA_NAEBV?$time_point@Usteady_clock@chrono@std@@V?$duration@_JU?$ratio@$00$0DLJKMKAA@@std@@@23@@01@0@Z ; std::chrono::operator<<std::chrono::steady_clock,std::chrono::duration<__int64,std::ratio<1,1000000000> >,std::chrono::duration<__int64,std::ratio<1,1000000000> > >
PUBLIC	??$?0_JU?$ratio@$00$0JIJGIA@@std@@X@?$duration@_JU?$ratio@$00$0DLJKMKAA@@std@@@chrono@std@@QEAA@AEBV?$duration@_JU?$ratio@$00$0JIJGIA@@std@@@12@@Z ; std::chrono::duration<__int64,std::ratio<1,1000000000> >::duration<__int64,std::ratio<1,1000000000> ><__int64,std::ratio<1,10000000>,void>
PUBLIC	??$?MNU?$ratio@$00$00@std@@_JU?$ratio@$00$0DLJKMKAA@@1@@chrono@std@@YA_NAEBV?$duration@NU?$ratio@$00$00@std@@@01@AEBV?$duration@_JU?$ratio@$00$0DLJKMKAA@@std@@@01@@Z ; std::chrono::operator<<double,std::ratio<1,1>,__int64,std::ratio<1,1000000000> >
PUBLIC	??$duration_cast@V?$duration@_JU?$ratio@$00$0DLJKMKAA@@std@@@chrono@std@@_JU?$ratio@$00$0DLJKMKAA@@3@X@chrono@std@@YA?AV?$duration@_JU?$ratio@$00$0DLJKMKAA@@std@@@01@AEBV201@@Z ; std::chrono::duration_cast<std::chrono::duration<__int64,std::ratio<1,1000000000> >,__int64,std::ratio<1,1000000000>,void>
PUBLIC	??$duration_cast@V?$duration@_JU?$ratio@$00$00@std@@@chrono@std@@_JU?$ratio@$00$0DLJKMKAA@@3@X@chrono@std@@YA?AV?$duration@_JU?$ratio@$00$00@std@@@01@AEBV?$duration@_JU?$ratio@$00$0DLJKMKAA@@std@@@01@@Z ; std::chrono::duration_cast<std::chrono::duration<__int64,std::ratio<1,1> >,__int64,std::ratio<1,1000000000>,void>
PUBLIC	??$?0_JU?$ratio@$00$00@std@@X@?$duration@_JU?$ratio@$00$0DLJKMKAA@@std@@@chrono@std@@QEAA@AEBV?$duration@_JU?$ratio@$00$00@std@@@12@@Z ; std::chrono::duration<__int64,std::ratio<1,1000000000> >::duration<__int64,std::ratio<1,1000000000> ><__int64,std::ratio<1,1>,void>
PUBLIC	??$?0U_Exact_args_t@std@@A6AXPEAX@ZPEAVCPerfMonitor@@$0A@@?$tuple@P6AXPEAX@ZPEAVCPerfMonitor@@@std@@QEAA@U_Exact_args_t@1@A6AXPEAX@Z$$QEAPEAVCPerfMonitor@@@Z ; std::tuple<void (__cdecl*)(void *),CPerfMonitor *>::tuple<void (__cdecl*)(void *),CPerfMonitor *><std::_Exact_args_t,void (__cdecl&)(void *),CPerfMonitor *,0>
PUBLIC	??$?0AEAPEAV?$tuple@P6AXPEAX@ZPEAVCPerfMonitor@@@std@@@?$_Compressed_pair@U?$default_delete@V?$tuple@P6AXPEAX@ZPEAVCPerfMonitor@@@std@@@std@@PEAV?$tuple@P6AXPEAX@ZPEAVCPerfMonitor@@@2@$00@std@@QEAA@U_Zero_then_variadic_args_t@1@AEAPEAV?$tuple@P6AXPEAX@ZPEAVCPerfMonitor@@@1@@Z ; std::_Compressed_pair<std::default_delete<std::tuple<void (__cdecl*)(void *),CPerfMonitor *> >,std::tuple<void (__cdecl*)(void *),CPerfMonitor *> *,1>::_Compressed_pair<std::default_delete<std::tuple<void (__cdecl*)(void *),CPerfMonitor *> >,std::tuple<void (__cdecl*)(void *),CPerfMonitor *> *,1><std::tuple<void (__cdecl*)(void *),CPerfMonitor *> * &>
PUBLIC	??$?M_JU?$ratio@$00$0DLJKMKAA@@std@@_JU01@@chrono@std@@YA_NAEBV?$duration@_JU?$ratio@$00$0DLJKMKAA@@std@@@01@0@Z ; std::chrono::operator<<__int64,std::ratio<1,1000000000>,__int64,std::ratio<1,1000000000> >
PUBLIC	??$duration_cast@V?$duration@_JU?$ratio@$00$0DLJKMKAA@@std@@@chrono@std@@_JU?$ratio@$00$0JIJGIA@@3@X@chrono@std@@YA?AV?$duration@_JU?$ratio@$00$0DLJKMKAA@@std@@@01@AEBV?$duration@_JU?$ratio@$00$0JIJGIA@@std@@@01@@Z ; std::chrono::duration_cast<std::chrono::duration<__int64,std::ratio<1,1000000000> >,__int64,std::ratio<1,10000000>,void>
PUBLIC	??$?0NU?$ratio@$00$00@std@@X@?$duration@NU?$ratio@$00$0DLJKMKAA@@std@@@chrono@std@@QEAA@AEBV?$duration@NU?$ratio@$00$00@std@@@12@@Z ; std::chrono::duration<double,std::ratio<1,1000000000> >::duration<double,std::ratio<1,1000000000> ><double,std::ratio<1,1>,void>
PUBLIC	??$?0_JU?$ratio@$00$0DLJKMKAA@@std@@X@?$duration@NU?$ratio@$00$0DLJKMKAA@@std@@@chrono@std@@QEAA@AEBV?$duration@_JU?$ratio@$00$0DLJKMKAA@@std@@@12@@Z ; std::chrono::duration<double,std::ratio<1,1000000000> >::duration<double,std::ratio<1,1000000000> ><__int64,std::ratio<1,1000000000>,void>
PUBLIC	??$?0_JX@?$duration@_JU?$ratio@$00$00@std@@@chrono@std@@QEAA@AEB_J@Z ; std::chrono::duration<__int64,std::ratio<1,1> >::duration<__int64,std::ratio<1,1> ><__int64,void>
PUBLIC	??$duration_cast@V?$duration@_JU?$ratio@$00$0DLJKMKAA@@std@@@chrono@std@@_JU?$ratio@$00$00@3@X@chrono@std@@YA?AV?$duration@_JU?$ratio@$00$0DLJKMKAA@@std@@@01@AEBV?$duration@_JU?$ratio@$00$00@std@@@01@@Z ; std::chrono::duration_cast<std::chrono::duration<__int64,std::ratio<1,1000000000> >,__int64,std::ratio<1,1>,void>
PUBLIC	??$?0U_Exact_args_t@std@@PEAVCPerfMonitor@@$$V$0A@@?$tuple@PEAVCPerfMonitor@@@std@@QEAA@U_Exact_args_t@1@$$QEAPEAVCPerfMonitor@@@Z ; std::tuple<CPerfMonitor *>::tuple<CPerfMonitor *><std::_Exact_args_t,CPerfMonitor *,0>
PUBLIC	??$?0A6AXPEAX@Z@?$_Tuple_val@P6AXPEAX@Z@std@@QEAA@A6AXPEAX@Z@Z ; std::_Tuple_val<void (__cdecl*)(void *)>::_Tuple_val<void (__cdecl*)(void *)><void (__cdecl&)(void *)>
PUBLIC	??$forward@AEAPEAV?$tuple@P6AXPEAX@ZPEAVCPerfMonitor@@@std@@@std@@YAAEAPEAV?$tuple@P6AXPEAX@ZPEAVCPerfMonitor@@@0@AEAPEAV10@@Z ; std::forward<std::tuple<void (__cdecl*)(void *),CPerfMonitor *> * &>
PUBLIC	??$duration_cast@V?$duration@NU?$ratio@$00$0DLJKMKAA@@std@@@chrono@std@@NU?$ratio@$00$00@3@X@chrono@std@@YA?AV?$duration@NU?$ratio@$00$0DLJKMKAA@@std@@@01@AEBV?$duration@NU?$ratio@$00$00@std@@@01@@Z ; std::chrono::duration_cast<std::chrono::duration<double,std::ratio<1,1000000000> >,double,std::ratio<1,1>,void>
PUBLIC	??$duration_cast@V?$duration@NU?$ratio@$00$0DLJKMKAA@@std@@@chrono@std@@_JU?$ratio@$00$0DLJKMKAA@@3@X@chrono@std@@YA?AV?$duration@NU?$ratio@$00$0DLJKMKAA@@std@@@01@AEBV?$duration@_JU?$ratio@$00$0DLJKMKAA@@std@@@01@@Z ; std::chrono::duration_cast<std::chrono::duration<double,std::ratio<1,1000000000> >,__int64,std::ratio<1,1000000000>,void>
PUBLIC	??$?0U_Exact_args_t@std@@$0A@@?$tuple@$$V@std@@QEAA@U_Exact_args_t@1@@Z ; std::tuple<>::tuple<><std::_Exact_args_t,0>
PUBLIC	??$?0PEAVCPerfMonitor@@@?$_Tuple_val@PEAVCPerfMonitor@@@std@@QEAA@$$QEAPEAVCPerfMonitor@@@Z ; std::_Tuple_val<CPerfMonitor *>::_Tuple_val<CPerfMonitor *><CPerfMonitor *>
PUBLIC	??$?0NX@?$duration@NU?$ratio@$00$0DLJKMKAA@@std@@@chrono@std@@QEAA@AEBN@Z ; std::chrono::duration<double,std::ratio<1,1000000000> >::duration<double,std::ratio<1,1000000000> ><double,void>
PUBLIC	?_OptionsStorage@?1??__local_stdio_printf_options@@9@4_KA ; `__local_stdio_printf_options'::`2'::_OptionsStorage
PUBLIC	??_7exception@std@@6B@				; std::exception::`vftable'
PUBLIC	??_C@_0BC@EOODALEL@Unknown?5exception@		; `string'
PUBLIC	??_7bad_alloc@std@@6B@				; std::bad_alloc::`vftable'
PUBLIC	??_7bad_array_new_length@std@@6B@		; std::bad_array_new_length::`vftable'
PUBLIC	??_C@_0BF@KINCDENJ@bad?5array?5new?5length@	; `string'
PUBLIC	_TI3?AVbad_array_new_length@std@@
PUBLIC	_CTA3?AVbad_array_new_length@std@@
PUBLIC	??_R0?AVbad_array_new_length@std@@@8		; std::bad_array_new_length `RTTI Type Descriptor'
PUBLIC	_CT??_R0?AVbad_array_new_length@std@@@8??0bad_array_new_length@std@@QEAA@AEBV01@@Z24
PUBLIC	??_R0?AVbad_alloc@std@@@8			; std::bad_alloc `RTTI Type Descriptor'
PUBLIC	_CT??_R0?AVbad_alloc@std@@@8??0bad_alloc@std@@QEAA@AEBV01@@Z24
PUBLIC	??_R0?AVexception@std@@@8			; std::exception `RTTI Type Descriptor'
PUBLIC	_CT??_R0?AVexception@std@@@8??0exception@std@@QEAA@AEBV01@@Z24
PUBLIC	??_C@_0BB@FCMFBGOM@invalid?5argument@		; `string'
PUBLIC	??_C@_02DKCKIIND@?$CFs@				; `string'
PUBLIC	??_C@_0GI@FJIKDGOA@C?3?2Program?5Files?5?$CIx86?$CJ?2Microsof@ ; `string'
PUBLIC	??_C@_1NA@CDBIFGMM@?$AAC?$AA?3?$AA?2?$AAP?$AAr?$AAo?$AAg?$AAr?$AAa?$AAm?$AA?5?$AAF?$AAi?$AAl?$AAe@ ; `string'
PUBLIC	??_C@_1EK@NIFDJFDG@?$AAs?$AAt?$AAd?$AA?3?$AA?3?$AA_?$AAA?$AAd?$AAj?$AAu?$AAs?$AAt?$AA_?$AAm?$AAa@ ; `string'
PUBLIC	??_C@_1CG@JNLFBNGN@?$AA?$CC?$AAi?$AAn?$AAv?$AAa?$AAl?$AAi?$AAd?$AA?5?$AAa?$AAr?$AAg?$AAu?$AAm?$AAe@ ; `string'
PUBLIC	??_R0?AVRGYPipeProcess@@@8			; RGYPipeProcess `RTTI Type Descriptor'
PUBLIC	??_R0?AVRGYPipeProcessWin@@@8			; RGYPipeProcessWin `RTTI Type Descriptor'
PUBLIC	??_C@_0BI@CFPLBAOH@invalid?5string?5position@	; `string'
PUBLIC	??_C@_0BD@OLBABOEK@vector?$DMT?$DO?5too?5long@	; `string'
PUBLIC	??_C@_0BA@JFNIOLAK@string?5too?5long@		; `string'
PUBLIC	??_R4exception@std@@6B@				; std::exception::`RTTI Complete Object Locator'
PUBLIC	??_R3exception@std@@8				; std::exception::`RTTI Class Hierarchy Descriptor'
PUBLIC	??_R2exception@std@@8				; std::exception::`RTTI Base Class Array'
PUBLIC	??_R1A@?0A@EA@exception@std@@8			; std::exception::`RTTI Base Class Descriptor at (0,-1,0,64)'
PUBLIC	??_R4bad_alloc@std@@6B@				; std::bad_alloc::`RTTI Complete Object Locator'
PUBLIC	??_R3bad_alloc@std@@8				; std::bad_alloc::`RTTI Class Hierarchy Descriptor'
PUBLIC	??_R2bad_alloc@std@@8				; std::bad_alloc::`RTTI Base Class Array'
PUBLIC	??_R1A@?0A@EA@bad_alloc@std@@8			; std::bad_alloc::`RTTI Base Class Descriptor at (0,-1,0,64)'
PUBLIC	??_R4bad_array_new_length@std@@6B@		; std::bad_array_new_length::`RTTI Complete Object Locator'
PUBLIC	??_R3bad_array_new_length@std@@8		; std::bad_array_new_length::`RTTI Class Hierarchy Descriptor'
PUBLIC	??_R2bad_array_new_length@std@@8		; std::bad_array_new_length::`RTTI Base Class Array'
PUBLIC	??_R1A@?0A@EA@bad_array_new_length@std@@8	; std::bad_array_new_length::`RTTI Base Class Descriptor at (0,-1,0,64)'
PUBLIC	__real@3eb0c6f7a0b5ed8d
PUBLIC	__real@3f50624dd2f1a9fc
PUBLIC	__real@3fe0000000000000
PUBLIC	__real@3ff0000000000000
PUBLIC	__real@4020000000000000
PUBLIC	__real@4059000000000000
PUBLIC	__real@40c3880000000000
PUBLIC	__real@412a5e0000000000
PUBLIC	__real@412e848000000000
PUBLIC	__real@4130000000000000
PUBLIC	__real@41cdcd6500000000
EXTRN	??2@YAPEAX_K@Z:PROC				; operator new
EXTRN	??3@YAXPEAX_K@Z:PROC				; operator delete
EXTRN	__imp__invalid_parameter:PROC
EXTRN	__imp_fopen_s:PROC
EXTRN	__imp_fclose:PROC
EXTRN	__imp_fflush:PROC
EXTRN	__imp_fopen:PROC
EXTRN	__imp_fwrite:PROC
EXTRN	__imp___stdio_common_vfprintf:PROC
EXTRN	memcpy:PROC
EXTRN	memmove:PROC
EXTRN	memset:PROC
EXTRN	__imp__CrtDbgReport:PROC
EXTRN	__imp_??0_Lockit@std@@QEAA@H@Z:PROC
EXTRN	__imp_??1_Lockit@std@@QEAA@XZ:PROC
EXTRN	__imp_clock:PROC
EXTRN	_Xtime_get_ticks:PROC
EXTRN	_Query_perf_counter:PROC
EXTRN	_Query_perf_frequency:PROC
EXTRN	__imp_terminate:PROC
EXTRN	__std_exception_copy:PROC
EXTRN	__std_exception_destroy:PROC
EXTRN	??_Eexception@std@@UEAAPEAXI@Z:PROC		; std::exception::`vector deleting destructor'
EXTRN	??_Ebad_alloc@std@@UEAAPEAXI@Z:PROC		; std::bad_alloc::`vector deleting destructor'
EXTRN	??_Ebad_array_new_length@std@@UEAAPEAXI@Z:PROC	; std::bad_array_new_length::`vector deleting destructor'
EXTRN	strlen:PROC
EXTRN	?_Xlength_error@std@@YAXPEBD@Z:PROC		; std::_Xlength_error
EXTRN	?_Xout_of_range@std@@YAXPEBD@Z:PROC		; std::_Xout_of_range
EXTRN	__imp__beginthreadex:PROC
EXTRN	_Thrd_join:PROC
EXTRN	_Thrd_sleep:PROC
EXTRN	_Thrd_id:PROC
EXTRN	_Cnd_do_broadcast_at_thread_exit:PROC
EXTRN	?_Throw_Cpp_error@std@@YAXH@Z:PROC		; std::_Throw_Cpp_error
EXTRN	__imp_CloseHandle:PROC
EXTRN	__imp_GetProcessTimes:PROC
EXTRN	__imp_GetCurrentProcess:PROC
EXTRN	__imp_GetExitCodeThread:PROC
EXTRN	__imp_GetProcessId:PROC
EXTRN	__imp_GetThreadTimes:PROC
EXTRN	__imp_GetSystemTime:PROC
EXTRN	__imp_GetModuleFileNameA:PROC
EXTRN	__imp_GetModuleHandleA:PROC
EXTRN	__imp_LoadResource:PROC
EXTRN	__imp_LockResource:PROC
EXTRN	__imp_SizeofResource:PROC
EXTRN	__imp_GetProcessIoCounters:PROC
EXTRN	__imp_FindResourceA:PROC
EXTRN	__imp_SystemTimeToFileTime:PROC
EXTRN	__imp_WaitForInputIdle:PROC
EXTRN	__imp_PathCombineA:PROC
EXTRN	__imp_PathRemoveFileSpecA:PROC
EXTRN	?get_cpu_info@@YA_NPEAUcpu_info_t@@@Z:PROC	; get_cpu_info
EXTRN	?strsprintf@@YA?AV?$basic_string@DU?$char_traits@D@std@@V?$allocator@D@2@@std@@PEBDZZ:PROC ; strsprintf
EXTRN	??0RGYPipeProcessWin@@QEAA@XZ:PROC		; RGYPipeProcessWin::RGYPipeProcessWin
EXTRN	?getProcessInfo@RGYPipeProcessWin@@QEAAAEBU_PROCESS_INFORMATION@@XZ:PROC ; RGYPipeProcessWin::getProcessInfo
EXTRN	?get_gpuz_info@@YAHPEAUGPUZ_SH_MEM@@@Z:PROC	; get_gpuz_info
EXTRN	?gpu_core_clock@@YANPEAUGPUZ_SH_MEM@@@Z:PROC	; gpu_core_clock
EXTRN	?gpu_load@@YANPEAUGPUZ_SH_MEM@@@Z:PROC		; gpu_load
EXTRN	?video_engine_load@@YANPEAUGPUZ_SH_MEM@@PEA_N@Z:PROC ; video_engine_load
EXTRN	K32GetProcessMemoryInfo:PROC
EXTRN	_CxxThrowException:PROC
EXTRN	_RTC_CheckStackVars:PROC
EXTRN	_RTC_InitBase:PROC
EXTRN	_RTC_Shutdown:PROC
EXTRN	__CxxFrameHandler4:PROC
EXTRN	__GSHandlerCheck:PROC
EXTRN	__GSHandlerCheck_EH4:PROC
EXTRN	__RTDynamicCast:PROC
EXTRN	__security_check_cookie:PROC
EXTRN	??_7type_info@@6B@:BYTE				; type_info::`vftable'
EXTRN	__security_cookie:QWORD
EXTRN	_fltused:DWORD
;	COMDAT ?_OptionsStorage@?1??__local_stdio_printf_options@@9@4_KA
_BSS	SEGMENT
?_OptionsStorage@?1??__local_stdio_printf_options@@9@4_KA DQ 01H DUP (?) ; `__local_stdio_printf_options'::`2'::_OptionsStorage
_BSS	ENDS
_BSS	SEGMENT
?CspMatrixList@@3V?$array@W4CspMatrix@@$0O@@std@@B DB 038H DUP (?) ; CspMatrixList
?CspTransferList@@3V?$array@W4CspTransfer@@$0P@@std@@B DB 03cH DUP (?) ; CspTransferList
?CspColorprimList@@3V?$array@W4CspColorprim@@$0M@@std@@B DB 030H DUP (?) ; CspColorprimList
_BSS	ENDS
;	COMDAT pdata
pdata	SEGMENT
$pdata$?__empty_global_delete@@YAXPEAX@Z DD imagerel $LN3
	DD	imagerel $LN3+8
	DD	imagerel $unwind$?__empty_global_delete@@YAXPEAX@Z
pdata	ENDS
;	COMDAT pdata
pdata	SEGMENT
$pdata$?__empty_global_delete@@YAXPEAX_K@Z DD imagerel $LN3
	DD	imagerel $LN3+13
	DD	imagerel $unwind$?__empty_global_delete@@YAXPEAX_K@Z
pdata	ENDS
;	COMDAT pdata
pdata	SEGMENT
$pdata$__local_stdio_printf_options DD imagerel $LN3
	DD	imagerel $LN3+11
	DD	imagerel $unwind$__local_stdio_printf_options
pdata	ENDS
;	COMDAT pdata
pdata	SEGMENT
$pdata$_vfprintf_l DD imagerel $LN3
	DD	imagerel $LN3+90
	DD	imagerel $unwind$_vfprintf_l
pdata	ENDS
;	COMDAT pdata
pdata	SEGMENT
$pdata$fprintf DD imagerel $LN3
	DD	imagerel $LN3+120
	DD	imagerel $unwind$fprintf
pdata	ENDS
;	COMDAT pdata
pdata	SEGMENT
$pdata$?max@?$numeric_limits@_J@std@@SA_JXZ DD imagerel $LN3
	DD	imagerel $LN3+14
	DD	imagerel $unwind$?max@?$numeric_limits@_J@std@@SA_JXZ
pdata	ENDS
;	COMDAT pdata
pdata	SEGMENT
$pdata$??2@YAPEAX_KPEAX@Z DD imagerel $LN3
	DD	imagerel $LN3+18
	DD	imagerel $unwind$??2@YAPEAX_KPEAX@Z
pdata	ENDS
;	COMDAT pdata
pdata	SEGMENT
$pdata$?now@system_clock@chrono@std@@SA?AV?$time_point@Usystem_clock@chrono@std@@V?$duration@_JU?$ratio@$00$0JIJGIA@@std@@@23@@23@XZ DD imagerel $LN3
	DD	imagerel $LN3+82
	DD	imagerel $unwind$?now@system_clock@chrono@std@@SA?AV?$time_point@Usystem_clock@chrono@std@@V?$duration@_JU?$ratio@$00$0JIJGIA@@std@@@23@@23@XZ
pdata	ENDS
;	COMDAT pdata
pdata	SEGMENT
$pdata$?count@?$duration@_JU?$ratio@$00$0JIJGIA@@std@@@chrono@std@@QEBA_JXZ DD imagerel $LN3
	DD	imagerel $LN3+16
	DD	imagerel $unwind$?count@?$duration@_JU?$ratio@$00$0JIJGIA@@std@@@chrono@std@@QEBA_JXZ
pdata	ENDS
;	COMDAT pdata
pdata	SEGMENT
$pdata$??0?$time_point@Usystem_clock@chrono@std@@V?$duration@_JU?$ratio@$00$0JIJGIA@@std@@@23@@chrono@std@@QEAA@AEBV?$duration@_JU?$ratio@$00$0JIJGIA@@std@@@12@@Z DD imagerel $LN3
	DD	imagerel $LN3+34
	DD	imagerel $unwind$??0?$time_point@Usystem_clock@chrono@std@@V?$duration@_JU?$ratio@$00$0JIJGIA@@std@@@23@@chrono@std@@QEAA@AEBV?$duration@_JU?$ratio@$00$0JIJGIA@@std@@@12@@Z
pdata	ENDS
;	COMDAT pdata
pdata	SEGMENT
$pdata$?time_since_epoch@?$time_point@Usystem_clock@chrono@std@@V?$duration@_JU?$ratio@$00$0JIJGIA@@std@@@23@@chrono@std@@QEBA?AV?$duration@_JU?$ratio@$00$0JIJGIA@@std@@@23@XZ DD imagerel $LN3
	DD	imagerel $LN3+34
	DD	imagerel $unwind$?time_since_epoch@?$time_point@Usystem_clock@chrono@std@@V?$duration@_JU?$ratio@$00$0JIJGIA@@std@@@23@@chrono@std@@QEBA?AV?$duration@_JU?$ratio@$00$0JIJGIA@@std@@@23@XZ
pdata	ENDS
;	COMDAT pdata
pdata	SEGMENT
$pdata$??$?0_JX@?$duration@_JU?$ratio@$00$0JIJGIA@@std@@@chrono@std@@QEAA@AEB_J@Z DD imagerel $LN3
	DD	imagerel $LN3+34
	DD	imagerel $unwind$??$?0_JX@?$duration@_JU?$ratio@$00$0JIJGIA@@std@@@chrono@std@@QEAA@AEB_J@Z
pdata	ENDS
;	COMDAT pdata
pdata	SEGMENT
$pdata$?now@steady_clock@chrono@std@@SA?AV?$time_point@Usteady_clock@chrono@std@@V?$duration@_JU?$ratio@$00$0DLJKMKAA@@std@@@23@@23@XZ DD imagerel $LN3
	DD	imagerel $LN3+172
	DD	imagerel $unwind$?now@steady_clock@chrono@std@@SA?AV?$time_point@Usteady_clock@chrono@std@@V?$duration@_JU?$ratio@$00$0DLJKMKAA@@std@@@23@@23@XZ
pdata	ENDS
;	COMDAT pdata
pdata	SEGMENT
$pdata$?count@?$duration@_JU?$ratio@$00$0DLJKMKAA@@std@@@chrono@std@@QEBA_JXZ DD imagerel $LN3
	DD	imagerel $LN3+16
	DD	imagerel $unwind$?count@?$duration@_JU?$ratio@$00$0DLJKMKAA@@std@@@chrono@std@@QEBA_JXZ
pdata	ENDS
;	COMDAT pdata
pdata	SEGMENT
$pdata$??Y?$duration@_JU?$ratio@$00$0DLJKMKAA@@std@@@chrono@std@@QEAAAEAV012@AEBV012@@Z DD imagerel $LN3
	DD	imagerel $LN3+42
	DD	imagerel $unwind$??Y?$duration@_JU?$ratio@$00$0DLJKMKAA@@std@@@chrono@std@@QEAAAEAV012@AEBV012@@Z
pdata	ENDS
;	COMDAT pdata
pdata	SEGMENT
$pdata$??Z?$duration@_JU?$ratio@$00$0DLJKMKAA@@std@@@chrono@std@@QEAAAEAV012@AEBV012@@Z DD imagerel $LN3
	DD	imagerel $LN3+45
	DD	imagerel $unwind$??Z?$duration@_JU?$ratio@$00$0DLJKMKAA@@std@@@chrono@std@@QEAAAEAV012@AEBV012@@Z
pdata	ENDS
;	COMDAT pdata
pdata	SEGMENT
$pdata$??0?$time_point@Usteady_clock@chrono@std@@V?$duration@_JU?$ratio@$00$0DLJKMKAA@@std@@@23@@chrono@std@@QEAA@AEBV?$duration@_JU?$ratio@$00$0DLJKMKAA@@std@@@12@@Z DD imagerel $LN3
	DD	imagerel $LN3+34
	DD	imagerel $unwind$??0?$time_point@Usteady_clock@chrono@std@@V?$duration@_JU?$ratio@$00$0DLJKMKAA@@std@@@23@@chrono@std@@QEAA@AEBV?$duration@_JU?$ratio@$00$0DLJKMKAA@@std@@@12@@Z
pdata	ENDS
;	COMDAT pdata
pdata	SEGMENT
$pdata$?time_since_epoch@?$time_point@Usteady_clock@chrono@std@@V?$duration@_JU?$ratio@$00$0DLJKMKAA@@std@@@23@@chrono@std@@QEBA?AV?$duration@_JU?$ratio@$00$0DLJKMKAA@@std@@@23@XZ DD imagerel $LN3
	DD	imagerel $LN3+34
	DD	imagerel $unwind$?time_since_epoch@?$time_point@Usteady_clock@chrono@std@@V?$duration@_JU?$ratio@$00$0DLJKMKAA@@std@@@23@@chrono@std@@QEBA?AV?$duration@_JU?$ratio@$00$0DLJKMKAA@@std@@@23@XZ
pdata	ENDS
;	COMDAT pdata
pdata	SEGMENT
$pdata$??$?0_JX@?$duration@_JU?$ratio@$00$0DLJKMKAA@@std@@@chrono@std@@QEAA@AEB_J@Z DD imagerel $LN3
	DD	imagerel $LN3+34
	DD	imagerel $unwind$??$?0_JX@?$duration@_JU?$ratio@$00$0DLJKMKAA@@std@@@chrono@std@@QEAA@AEB_J@Z
pdata	ENDS
;	COMDAT pdata
pdata	SEGMENT
$pdata$?count@?$duration@_JU?$ratio@$00$00@std@@@chrono@std@@QEBA_JXZ DD imagerel $LN3
	DD	imagerel $LN3+16
	DD	imagerel $unwind$?count@?$duration@_JU?$ratio@$00$00@std@@@chrono@std@@QEBA_JXZ
pdata	ENDS
;	COMDAT pdata
pdata	SEGMENT
$pdata$?count@?$duration@NU?$ratio@$00$00@std@@@chrono@std@@QEBANXZ DD imagerel $LN3
	DD	imagerel $LN3+45
	DD	imagerel $unwind$?count@?$duration@NU?$ratio@$00$00@std@@@chrono@std@@QEBANXZ
pdata	ENDS
;	COMDAT pdata
pdata	SEGMENT
$pdata$?count@?$duration@_JU?$ratio@$00$0DOI@@std@@@chrono@std@@QEBA_JXZ DD imagerel $LN3
	DD	imagerel $LN3+16
	DD	imagerel $unwind$?count@?$duration@_JU?$ratio@$00$0DOI@@std@@@chrono@std@@QEBA_JXZ
pdata	ENDS
;	COMDAT pdata
pdata	SEGMENT
$pdata$?count@?$duration@NU?$ratio@$00$0DLJKMKAA@@std@@@chrono@std@@QEBANXZ DD imagerel $LN3
	DD	imagerel $LN3+45
	DD	imagerel $unwind$?count@?$duration@NU?$ratio@$00$0DLJKMKAA@@std@@@chrono@std@@QEBANXZ
pdata	ENDS
;	COMDAT pdata
pdata	SEGMENT
$pdata$??0exception@std@@QEAA@QEBDH@Z DD imagerel $LN3
	DD	imagerel $LN3+73
	DD	imagerel $unwind$??0exception@std@@QEAA@QEBDH@Z
pdata	ENDS
;	COMDAT pdata
pdata	SEGMENT
$pdata$??0exception@std@@QEAA@AEBV01@@Z DD imagerel $LN3
	DD	imagerel $LN3+109
	DD	imagerel $unwind$??0exception@std@@QEAA@AEBV01@@Z
pdata	ENDS
;	COMDAT pdata
pdata	SEGMENT
$pdata$??1exception@std@@UEAA@XZ DD imagerel $LN3
	DD	imagerel $LN3+69
	DD	imagerel $unwind$??1exception@std@@UEAA@XZ
pdata	ENDS
;	COMDAT pdata
pdata	SEGMENT
$pdata$?what@exception@std@@UEBAPEBDXZ DD imagerel $LN5
	DD	imagerel $LN5+78
	DD	imagerel $unwind$?what@exception@std@@UEBAPEBDXZ
pdata	ENDS
;	COMDAT pdata
pdata	SEGMENT
$pdata$??_Gexception@std@@UEAAPEAXI@Z DD imagerel $LN4
	DD	imagerel $LN4+81
	DD	imagerel $unwind$??_Gexception@std@@UEAAPEAXI@Z
pdata	ENDS
;	COMDAT pdata
pdata	SEGMENT
$pdata$??0bad_alloc@std@@AEAA@QEBD@Z DD imagerel $LN4
	DD	imagerel $LN4+83
	DD	imagerel $unwind$??0bad_alloc@std@@AEAA@QEBD@Z
pdata	ENDS
;	COMDAT pdata
pdata	SEGMENT
$pdata$?dtor$0@?0???0bad_alloc@std@@AEAA@QEBD@Z@4HA DD imagerel ?dtor$0@?0???0bad_alloc@std@@AEAA@QEBD@Z@4HA
	DD	imagerel ?dtor$0@?0???0bad_alloc@std@@AEAA@QEBD@Z@4HA+35
	DD	imagerel $unwind$?dtor$0@?0???0bad_alloc@std@@AEAA@QEBD@Z@4HA
pdata	ENDS
;	COMDAT pdata
pdata	SEGMENT
$pdata$??1bad_alloc@std@@UEAA@XZ DD imagerel $LN4
	DD	imagerel $LN4+47
	DD	imagerel $unwind$??1bad_alloc@std@@UEAA@XZ
pdata	ENDS
;	COMDAT pdata
pdata	SEGMENT
$pdata$?dtor$0@?0???1bad_alloc@std@@UEAA@XZ@4HA DD imagerel ?dtor$0@?0???1bad_alloc@std@@UEAA@XZ@4HA
	DD	imagerel ?dtor$0@?0???1bad_alloc@std@@UEAA@XZ@4HA+35
	DD	imagerel $unwind$?dtor$0@?0???1bad_alloc@std@@UEAA@XZ@4HA
pdata	ENDS
;	COMDAT pdata
pdata	SEGMENT
$pdata$??0bad_alloc@std@@QEAA@AEBV01@@Z DD imagerel $LN4
	DD	imagerel $LN4+77
	DD	imagerel $unwind$??0bad_alloc@std@@QEAA@AEBV01@@Z
pdata	ENDS
;	COMDAT pdata
pdata	SEGMENT
$pdata$?dtor$0@?0???0bad_alloc@std@@QEAA@AEBV01@@Z@4HA DD imagerel ?dtor$0@?0???0bad_alloc@std@@QEAA@AEBV01@@Z@4HA
	DD	imagerel ?dtor$0@?0???0bad_alloc@std@@QEAA@AEBV01@@Z@4HA+35
	DD	imagerel $unwind$?dtor$0@?0???0bad_alloc@std@@QEAA@AEBV01@@Z@4HA
pdata	ENDS
;	COMDAT pdata
pdata	SEGMENT
$pdata$??_Gbad_alloc@std@@UEAAPEAXI@Z DD imagerel $LN4
	DD	imagerel $LN4+81
	DD	imagerel $unwind$??_Gbad_alloc@std@@UEAAPEAXI@Z
pdata	ENDS
;	COMDAT pdata
pdata	SEGMENT
$pdata$??0bad_array_new_length@std@@QEAA@XZ DD imagerel $LN4
	DD	imagerel $LN4+74
	DD	imagerel $unwind$??0bad_array_new_length@std@@QEAA@XZ
pdata	ENDS
;	COMDAT pdata
pdata	SEGMENT
$pdata$?dtor$0@?0???0bad_array_new_length@std@@QEAA@XZ@4HA DD imagerel ?dtor$0@?0???0bad_array_new_length@std@@QEAA@XZ@4HA
	DD	imagerel ?dtor$0@?0???0bad_array_new_length@std@@QEAA@XZ@4HA+35
	DD	imagerel $unwind$?dtor$0@?0???0bad_array_new_length@std@@QEAA@XZ@4HA
pdata	ENDS
;	COMDAT pdata
pdata	SEGMENT
$pdata$??1bad_array_new_length@std@@UEAA@XZ DD imagerel $LN4
	DD	imagerel $LN4+47
	DD	imagerel $unwind$??1bad_array_new_length@std@@UEAA@XZ
pdata	ENDS
;	COMDAT pdata
pdata	SEGMENT
$pdata$?dtor$0@?0???1bad_array_new_length@std@@UEAA@XZ@4HA DD imagerel ?dtor$0@?0???1bad_array_new_length@std@@UEAA@XZ@4HA
	DD	imagerel ?dtor$0@?0???1bad_array_new_length@std@@UEAA@XZ@4HA+35
	DD	imagerel $unwind$?dtor$0@?0???1bad_array_new_length@std@@UEAA@XZ@4HA
pdata	ENDS
;	COMDAT pdata
pdata	SEGMENT
$pdata$??0bad_array_new_length@std@@QEAA@AEBV01@@Z DD imagerel $LN4
	DD	imagerel $LN4+77
	DD	imagerel $unwind$??0bad_array_new_length@std@@QEAA@AEBV01@@Z
pdata	ENDS
;	COMDAT pdata
pdata	SEGMENT
$pdata$?dtor$0@?0???0bad_array_new_length@std@@QEAA@AEBV01@@Z@4HA DD imagerel ?dtor$0@?0???0bad_array_new_length@std@@QEAA@AEBV01@@Z@4HA
	DD	imagerel ?dtor$0@?0???0bad_array_new_length@std@@QEAA@AEBV01@@Z@4HA+35
	DD	imagerel $unwind$?dtor$0@?0???0bad_array_new_length@std@@QEAA@AEBV01@@Z@4HA
pdata	ENDS
;	COMDAT pdata
pdata	SEGMENT
$pdata$??_Gbad_array_new_length@std@@UEAAPEAXI@Z DD imagerel $LN4
	DD	imagerel $LN4+81
	DD	imagerel $unwind$??_Gbad_array_new_length@std@@UEAAPEAXI@Z
pdata	ENDS
;	COMDAT pdata
pdata	SEGMENT
$pdata$?_Throw_bad_array_new_length@std@@YAXXZ DD imagerel $LN3
	DD	imagerel $LN3+54
	DD	imagerel $unwind$?_Throw_bad_array_new_length@std@@YAXXZ
pdata	ENDS
;	COMDAT pdata
pdata	SEGMENT
$pdata$?_Allocate@_Default_allocate_traits@std@@SAPEAX_K@Z DD imagerel $LN3
	DD	imagerel $LN3+46
	DD	imagerel $unwind$?_Allocate@_Default_allocate_traits@std@@SAPEAX_K@Z
pdata	ENDS
;	COMDAT pdata
pdata	SEGMENT
$pdata$?_Adjust_manually_vector_aligned@std@@YAXAEAPEAXAEA_K@Z DD imagerel $LN21
	DD	imagerel $LN21+424
	DD	imagerel $unwind$?_Adjust_manually_vector_aligned@std@@YAXAEAPEAXAEA_K@Z
pdata	ENDS
;	COMDAT pdata
pdata	SEGMENT
$pdata$??$_Convert_size@_K@std@@YA_K_K@Z DD imagerel $LN3
	DD	imagerel $LN3+13
	DD	imagerel $unwind$??$_Convert_size@_K@std@@YA_K_K@Z
pdata	ENDS
;	COMDAT pdata
pdata	SEGMENT
$pdata$??0_Container_proxy@std@@QEAA@PEAU_Container_base12@1@@Z DD imagerel $LN3
	DD	imagerel $LN3+44
	DD	imagerel $unwind$??0_Container_proxy@std@@QEAA@PEAU_Container_base12@1@@Z
pdata	ENDS
;	COMDAT pdata
pdata	SEGMENT
$pdata$??0_Container_base12@std@@QEAA@XZ DD imagerel $LN3
	DD	imagerel $LN3+25
	DD	imagerel $unwind$??0_Container_base12@std@@QEAA@XZ
pdata	ENDS
;	COMDAT pdata
pdata	SEGMENT
$pdata$?_Orphan_all@_Container_base12@std@@QEAAXXZ DD imagerel $LN8
	DD	imagerel $LN8+175
	DD	imagerel $unwind$?_Orphan_all@_Container_base12@std@@QEAAXXZ
pdata	ENDS
;	COMDAT pdata
pdata	SEGMENT
$pdata$?dtor$0@?0??_Orphan_all@_Container_base12@std@@QEAAXXZ@4HA DD imagerel ?dtor$0@?0??_Orphan_all@_Container_base12@std@@QEAAXXZ@4HA
	DD	imagerel ?dtor$0@?0??_Orphan_all@_Container_base12@std@@QEAAXXZ@4HA+36
	DD	imagerel $unwind$?dtor$0@?0??_Orphan_all@_Container_base12@std@@QEAAXXZ@4HA
pdata	ENDS
;	COMDAT pdata
pdata	SEGMENT
$pdata$?_Swap_proxy_and_iterators@_Container_base12@std@@QEAAXAEAU12@@Z DD imagerel $LN6
	DD	imagerel $LN6+182
	DD	imagerel $unwind$?_Swap_proxy_and_iterators@_Container_base12@std@@QEAAXAEAU12@@Z
pdata	ENDS
;	COMDAT pdata
pdata	SEGMENT
$pdata$?dtor$0@?0??_Swap_proxy_and_iterators@_Container_base12@std@@QEAAXAEAU12@@Z@4HA DD imagerel ?dtor$0@?0??_Swap_proxy_and_iterators@_Container_base12@std@@QEAAXAEAU12@@Z@4HA
	DD	imagerel ?dtor$0@?0??_Swap_proxy_and_iterators@_Container_base12@std@@QEAAXAEAU12@@Z@4HA+36
	DD	imagerel $unwind$?dtor$0@?0??_Swap_proxy_and_iterators@_Container_base12@std@@QEAAXAEAU12@@Z@4HA
pdata	ENDS
;	COMDAT pdata
pdata	SEGMENT
$pdata$?_Release@_Basic_container_proxy_ptr12@std@@QEAAXXZ DD imagerel $LN3
	DD	imagerel $LN3+20
	DD	imagerel $unwind$?_Release@_Basic_container_proxy_ptr12@std@@QEAAXXZ
pdata	ENDS
;	COMDAT pdata
pdata	SEGMENT
$pdata$?_Incref@_Ref_count_base@std@@QEAAXXZ DD imagerel $LN3
	DD	imagerel $LN3+20
	DD	imagerel $unwind$?_Incref@_Ref_count_base@std@@QEAAXXZ
pdata	ENDS
;	COMDAT pdata
pdata	SEGMENT
$pdata$?_Decref@_Ref_count_base@std@@QEAAXXZ DD imagerel $LN4
	DD	imagerel $LN4+87
	DD	imagerel $unwind$?_Decref@_Ref_count_base@std@@QEAAXXZ
pdata	ENDS
;	COMDAT pdata
pdata	SEGMENT
$pdata$?_Decwref@_Ref_count_base@std@@QEAAXXZ DD imagerel $LN4
	DD	imagerel $LN4+78
	DD	imagerel $unwind$?_Decwref@_Ref_count_base@std@@QEAAXXZ
pdata	ENDS
;	COMDAT pdata
pdata	SEGMENT
$pdata$??0thread@std@@QEAA@XZ DD imagerel $LN3
	DD	imagerel $LN3+32
	DD	imagerel $unwind$??0thread@std@@QEAA@XZ
pdata	ENDS
;	COMDAT pdata
pdata	SEGMENT
$pdata$??1thread@std@@QEAA@XZ DD imagerel $LN4
	DD	imagerel $LN4+59
	DD	imagerel $unwind$??1thread@std@@QEAA@XZ
pdata	ENDS
;	COMDAT pdata
pdata	SEGMENT
$pdata$??4thread@std@@QEAAAEAV01@$$QEAV01@@Z DD imagerel $LN5
	DD	imagerel $LN5+152
	DD	imagerel $unwind$??4thread@std@@QEAAAEAV01@$$QEAV01@@Z
pdata	ENDS
;	COMDAT pdata
pdata	SEGMENT
$pdata$?joinable@thread@std@@QEBA_NXZ DD imagerel $LN5
	DD	imagerel $LN5+67
	DD	imagerel $unwind$?joinable@thread@std@@QEBA_NXZ
pdata	ENDS
;	COMDAT pdata
pdata	SEGMENT
$pdata$?join@thread@std@@QEAAXXZ DD imagerel $LN6
	DD	imagerel $LN6+173
	DD	imagerel $unwind$?join@thread@std@@QEAAXXZ
pdata	ENDS
;	COMDAT pdata
pdata	SEGMENT
$pdata$??$exchange@U_Thrd_imp_t@@U1@@std@@YA?AU_Thrd_imp_t@@AEAU1@$$QEAU1@@Z DD imagerel $LN3
	DD	imagerel $LN3+134
	DD	imagerel $unwind$??$exchange@U_Thrd_imp_t@@U1@@std@@YA?AU_Thrd_imp_t@@AEAU1@$$QEAU1@@Z
pdata	ENDS
;	COMDAT pdata
pdata	SEGMENT
$pdata$?length@?$_Narrow_char_traits@DH@std@@SA_KQEBD@Z DD imagerel $LN3
	DD	imagerel $LN3+47
	DD	imagerel $unwind$?length@?$_Narrow_char_traits@DH@std@@SA_KQEBD@Z
pdata	ENDS
;	COMDAT pdata
pdata	SEGMENT
$pdata$?copy@?$_Narrow_char_traits@DH@std@@SAPEADQEADQEBD_K@Z DD imagerel $LN3
	DD	imagerel $LN3+67
	DD	imagerel $unwind$?copy@?$_Narrow_char_traits@DH@std@@SAPEADQEADQEBD_K@Z
pdata	ENDS
;	COMDAT pdata
pdata	SEGMENT
$pdata$?move@?$_Narrow_char_traits@DH@std@@SAPEADQEADQEBD_K@Z DD imagerel $LN3
	DD	imagerel $LN3+67
	DD	imagerel $unwind$?move@?$_Narrow_char_traits@DH@std@@SAPEADQEADQEBD_K@Z
pdata	ENDS
;	COMDAT pdata
pdata	SEGMENT
$pdata$?assign@?$_Narrow_char_traits@DH@std@@SAXAEADAEBD@Z DD imagerel $LN3
	DD	imagerel $LN3+28
	DD	imagerel $unwind$?assign@?$_Narrow_char_traits@DH@std@@SAXAEADAEBD@Z
pdata	ENDS
;	COMDAT pdata
pdata	SEGMENT
$pdata$??0?$allocator@D@std@@QEAA@XZ DD imagerel $LN3
	DD	imagerel $LN3+13
	DD	imagerel $unwind$??0?$allocator@D@std@@QEAA@XZ
pdata	ENDS
;	COMDAT pdata
pdata	SEGMENT
$pdata$?deallocate@?$allocator@D@std@@QEAAXQEAD_K@Z DD imagerel $LN3
	DD	imagerel $LN3+61
	DD	imagerel $unwind$?deallocate@?$allocator@D@std@@QEAAXQEAD_K@Z
pdata	ENDS
;	COMDAT pdata
pdata	SEGMENT
$pdata$?allocate@?$allocator@D@std@@QEAAPEAD_K@Z DD imagerel $LN3
	DD	imagerel $LN3+59
	DD	imagerel $unwind$?allocate@?$allocator@D@std@@QEAAPEAD_K@Z
pdata	ENDS
;	COMDAT pdata
pdata	SEGMENT
$pdata$?max_size@?$_Default_allocator_traits@V?$allocator@D@std@@@std@@SA_KAEBV?$allocator@D@2@@Z DD imagerel $LN3
	DD	imagerel $LN3+15
	DD	imagerel $unwind$?max_size@?$_Default_allocator_traits@V?$allocator@D@std@@@std@@SA_KAEBV?$allocator@D@2@@Z
pdata	ENDS
;	COMDAT pdata
pdata	SEGMENT
$pdata$??0?$_String_val@U?$_Simple_types@D@std@@@std@@QEAA@XZ DD imagerel $LN4
	DD	imagerel $LN4+95
	DD	imagerel $unwind$??0?$_String_val@U?$_Simple_types@D@std@@@std@@QEAA@XZ
pdata	ENDS
;	COMDAT pdata
pdata	SEGMENT
$pdata$?dtor$0@?0???0?$_String_val@U?$_Simple_types@D@std@@@std@@QEAA@XZ@4HA DD imagerel ?dtor$0@?0???0?$_String_val@U?$_Simple_types@D@std@@@std@@QEAA@XZ@4HA
	DD	imagerel ?dtor$0@?0???0?$_String_val@U?$_Simple_types@D@std@@@std@@QEAA@XZ@4HA+39
	DD	imagerel $unwind$?dtor$0@?0???0?$_String_val@U?$_Simple_types@D@std@@@std@@QEAA@XZ@4HA
pdata	ENDS
;	COMDAT pdata
pdata	SEGMENT
$pdata$?_Myptr@?$_String_val@U?$_Simple_types@D@std@@@std@@QEAAPEADXZ DD imagerel $LN4
	DD	imagerel $LN4+91
	DD	imagerel $unwind$?_Myptr@?$_String_val@U?$_Simple_types@D@std@@@std@@QEAAPEADXZ
pdata	ENDS
;	COMDAT pdata
pdata	SEGMENT
$pdata$?_Myptr@?$_String_val@U?$_Simple_types@D@std@@@std@@QEBAPEBDXZ DD imagerel $LN4
	DD	imagerel $LN4+91
	DD	imagerel $unwind$?_Myptr@?$_String_val@U?$_Simple_types@D@std@@@std@@QEBAPEBDXZ
pdata	ENDS
;	COMDAT pdata
pdata	SEGMENT
$pdata$?_Large_string_engaged@?$_String_val@U?$_Simple_types@D@std@@@std@@QEBA_NXZ DD imagerel $LN5
	DD	imagerel $LN5+68
	DD	imagerel $unwind$?_Large_string_engaged@?$_String_val@U?$_Simple_types@D@std@@@std@@QEBA_NXZ
pdata	ENDS
;	COMDAT pdata
pdata	SEGMENT
$pdata$?_Check_offset@?$_String_val@U?$_Simple_types@D@std@@@std@@QEBAX_K@Z DD imagerel $LN4
	DD	imagerel $LN4+62
	DD	imagerel $unwind$?_Check_offset@?$_String_val@U?$_Simple_types@D@std@@@std@@QEBAX_K@Z
pdata	ENDS
;	COMDAT pdata
pdata	SEGMENT
$pdata$?_Xran@?$_String_val@U?$_Simple_types@D@std@@@std@@SAXXZ DD imagerel $LN3
	DD	imagerel $LN3+39
	DD	imagerel $unwind$?_Xran@?$_String_val@U?$_Simple_types@D@std@@@std@@SAXXZ
pdata	ENDS
;	COMDAT pdata
pdata	SEGMENT
$pdata$??0_Bxty@?$_String_val@U?$_Simple_types@D@std@@@std@@QEAA@XZ DD imagerel $LN3
	DD	imagerel $LN3+13
	DD	imagerel $unwind$??0_Bxty@?$_String_val@U?$_Simple_types@D@std@@@std@@QEAA@XZ
pdata	ENDS
;	COMDAT pdata
pdata	SEGMENT
$pdata$??1_Bxty@?$_String_val@U?$_Simple_types@D@std@@@std@@QEAA@XZ DD imagerel $LN3
	DD	imagerel $LN3+8
	DD	imagerel $unwind$??1_Bxty@?$_String_val@U?$_Simple_types@D@std@@@std@@QEAA@XZ
pdata	ENDS
;	COMDAT pdata
pdata	SEGMENT
$pdata$??1?$_String_val@U?$_Simple_types@D@std@@@std@@QEAA@XZ DD imagerel $LN4
	DD	imagerel $LN4+54
	DD	imagerel $unwind$??1?$_String_val@U?$_Simple_types@D@std@@@std@@QEAA@XZ
pdata	ENDS
;	COMDAT pdata
pdata	SEGMENT
$pdata$?dtor$0@?0???1?$_String_val@U?$_Simple_types@D@std@@@std@@QEAA@XZ@4HA DD imagerel ?dtor$0@?0???1?$_String_val@U?$_Simple_types@D@std@@@std@@QEAA@XZ@4HA
	DD	imagerel ?dtor$0@?0???1?$_String_val@U?$_Simple_types@D@std@@@std@@QEAA@XZ@4HA+39
	DD	imagerel $unwind$?dtor$0@?0???1?$_String_val@U?$_Simple_types@D@std@@@std@@QEAA@XZ@4HA
pdata	ENDS
;	COMDAT pdata
pdata	SEGMENT
$pdata$??0?$basic_string@DU?$char_traits@D@std@@V?$allocator@D@2@@std@@QEAA@XZ DD imagerel $LN4
	DD	imagerel $LN4+110
	DD	imagerel $unwind$??0?$basic_string@DU?$char_traits@D@std@@V?$allocator@D@2@@std@@QEAA@XZ
pdata	ENDS
;	COMDAT pdata
pdata	SEGMENT
$pdata$?dtor$0@?0???0?$basic_string@DU?$char_traits@D@std@@V?$allocator@D@2@@std@@QEAA@XZ@4HA DD imagerel ?dtor$0@?0???0?$basic_string@DU?$char_traits@D@std@@V?$allocator@D@2@@std@@QEAA@XZ@4HA
	DD	imagerel ?dtor$0@?0???0?$basic_string@DU?$char_traits@D@std@@V?$allocator@D@2@@std@@QEAA@XZ@4HA+35
	DD	imagerel $unwind$?dtor$0@?0???0?$basic_string@DU?$char_traits@D@std@@V?$allocator@D@2@@std@@QEAA@XZ@4HA
pdata	ENDS
;	COMDAT pdata
pdata	SEGMENT
$pdata$??0?$basic_string@DU?$char_traits@D@std@@V?$allocator@D@2@@std@@QEAA@QEBD@Z DD imagerel $LN5
	DD	imagerel $LN5+220
	DD	imagerel $unwind$??0?$basic_string@DU?$char_traits@D@std@@V?$allocator@D@2@@std@@QEAA@QEBD@Z
pdata	ENDS
;	COMDAT pdata
pdata	SEGMENT
$pdata$?dtor$0@?0???0?$basic_string@DU?$char_traits@D@std@@V?$allocator@D@2@@std@@QEAA@QEBD@Z@4HA DD imagerel ?dtor$0@?0???0?$basic_string@DU?$char_traits@D@std@@V?$allocator@D@2@@std@@QEAA@QEBD@Z@4HA
	DD	imagerel ?dtor$0@?0???0?$basic_string@DU?$char_traits@D@std@@V?$allocator@D@2@@std@@QEAA@QEBD@Z@4HA+38
	DD	imagerel $unwind$?dtor$0@?0???0?$basic_string@DU?$char_traits@D@std@@V?$allocator@D@2@@std@@QEAA@QEBD@Z@4HA
pdata	ENDS
;	COMDAT pdata
pdata	SEGMENT
$pdata$?dtor$1@?0???0?$basic_string@DU?$char_traits@D@std@@V?$allocator@D@2@@std@@QEAA@QEBD@Z@4HA DD imagerel ?dtor$1@?0???0?$basic_string@DU?$char_traits@D@std@@V?$allocator@D@2@@std@@QEAA@QEBD@Z@4HA
	DD	imagerel ?dtor$1@?0???0?$basic_string@DU?$char_traits@D@std@@V?$allocator@D@2@@std@@QEAA@QEBD@Z@4HA+35
	DD	imagerel $unwind$?dtor$1@?0???0?$basic_string@DU?$char_traits@D@std@@V?$allocator@D@2@@std@@QEAA@QEBD@Z@4HA
pdata	ENDS
;	COMDAT pdata
pdata	SEGMENT
$pdata$??0?$basic_string@DU?$char_traits@D@std@@V?$allocator@D@2@@std@@QEAA@$$QEAV01@@Z DD imagerel $LN4
	DD	imagerel $LN4+163
	DD	imagerel $unwind$??0?$basic_string@DU?$char_traits@D@std@@V?$allocator@D@2@@std@@QEAA@$$QEAV01@@Z
pdata	ENDS
;	COMDAT pdata
pdata	SEGMENT
$pdata$?dtor$0@?0???0?$basic_string@DU?$char_traits@D@std@@V?$allocator@D@2@@std@@QEAA@$$QEAV01@@Z@4HA DD imagerel ?dtor$0@?0???0?$basic_string@DU?$char_traits@D@std@@V?$allocator@D@2@@std@@QEAA@$$QEAV01@@Z@4HA
	DD	imagerel ?dtor$0@?0???0?$basic_string@DU?$char_traits@D@std@@V?$allocator@D@2@@std@@QEAA@$$QEAV01@@Z@4HA+35
	DD	imagerel $unwind$?dtor$0@?0???0?$basic_string@DU?$char_traits@D@std@@V?$allocator@D@2@@std@@QEAA@$$QEAV01@@Z@4HA
pdata	ENDS
;	COMDAT pdata
pdata	SEGMENT
$pdata$?_Move_assign@?$basic_string@DU?$char_traits@D@std@@V?$allocator@D@2@@std@@AEAAXAEAV12@U_Equal_allocators@2@@Z DD imagerel $LN3
	DD	imagerel $LN3+135
	DD	imagerel $unwind$?_Move_assign@?$basic_string@DU?$char_traits@D@std@@V?$allocator@D@2@@std@@AEAAXAEAV12@U_Equal_allocators@2@@Z
pdata	ENDS
;	COMDAT pdata
pdata	SEGMENT
$pdata$??4?$basic_string@DU?$char_traits@D@std@@V?$allocator@D@2@@std@@QEAAAEAV01@$$QEAV01@@Z DD imagerel $LN4
	DD	imagerel $LN4+101
	DD	imagerel $unwind$??4?$basic_string@DU?$char_traits@D@std@@V?$allocator@D@2@@std@@QEAAAEAV01@$$QEAV01@@Z
pdata	ENDS
;	COMDAT pdata
pdata	SEGMENT
$pdata$?_Memcpy_val_from@?$basic_string@DU?$char_traits@D@std@@V?$allocator@D@2@@std@@AEAAXAEBV12@@Z DD imagerel $LN3
	DD	imagerel $LN3+109
	DD	imagerel $unwind$?_Memcpy_val_from@?$basic_string@DU?$char_traits@D@std@@V?$allocator@D@2@@std@@AEAAXAEBV12@@Z
pdata	ENDS
;	COMDAT pdata
pdata	SEGMENT
$pdata$?_Take_contents@?$basic_string@DU?$char_traits@D@std@@V?$allocator@D@2@@std@@AEAAXAEAV12@U?$integral_constant@_N$00@2@@Z DD imagerel $LN5
	DD	imagerel $LN5+126
	DD	imagerel $unwind$?_Take_contents@?$basic_string@DU?$char_traits@D@std@@V?$allocator@D@2@@std@@AEAAXAEAV12@U?$integral_constant@_N$00@2@@Z
pdata	ENDS
;	COMDAT pdata
pdata	SEGMENT
$pdata$??1?$basic_string@DU?$char_traits@D@std@@V?$allocator@D@2@@std@@QEAA@XZ DD imagerel $LN4
	DD	imagerel $LN4+153
	DD	imagerel $unwind$??1?$basic_string@DU?$char_traits@D@std@@V?$allocator@D@2@@std@@QEAA@XZ
pdata	ENDS
;	COMDAT pdata
pdata	SEGMENT
$pdata$?dtor$0@?0???1?$basic_string@DU?$char_traits@D@std@@V?$allocator@D@2@@std@@QEAA@XZ@4HA DD imagerel ?dtor$0@?0???1?$basic_string@DU?$char_traits@D@std@@V?$allocator@D@2@@std@@QEAA@XZ@4HA
	DD	imagerel ?dtor$0@?0???1?$basic_string@DU?$char_traits@D@std@@V?$allocator@D@2@@std@@QEAA@XZ@4HA+35
	DD	imagerel $unwind$?dtor$0@?0???1?$basic_string@DU?$char_traits@D@std@@V?$allocator@D@2@@std@@QEAA@XZ@4HA
pdata	ENDS
;	COMDAT pdata
pdata	SEGMENT
$pdata$?_Copy_assign@?$basic_string@DU?$char_traits@D@std@@V?$allocator@D@2@@std@@AEAAXAEBV12@U?$integral_constant@_N$0A@@2@@Z DD imagerel $LN3
	DD	imagerel $LN3+122
	DD	imagerel $unwind$?_Copy_assign@?$basic_string@DU?$char_traits@D@std@@V?$allocator@D@2@@std@@AEAAXAEBV12@U?$integral_constant@_N$0A@@2@@Z
pdata	ENDS
;	COMDAT pdata
pdata	SEGMENT
$pdata$??4?$basic_string@DU?$char_traits@D@std@@V?$allocator@D@2@@std@@QEAAAEAV01@AEBV01@@Z DD imagerel $LN4
	DD	imagerel $LN4+101
	DD	imagerel $unwind$??4?$basic_string@DU?$char_traits@D@std@@V?$allocator@D@2@@std@@QEAAAEAV01@AEBV01@@Z
pdata	ENDS
;	COMDAT pdata
pdata	SEGMENT
$pdata$??4?$basic_string@DU?$char_traits@D@std@@V?$allocator@D@2@@std@@QEAAAEAV01@QEBD@Z DD imagerel $LN3
	DD	imagerel $LN3+56
	DD	imagerel $unwind$??4?$basic_string@DU?$char_traits@D@std@@V?$allocator@D@2@@std@@QEAAAEAV01@QEBD@Z
pdata	ENDS
;	COMDAT pdata
pdata	SEGMENT
$pdata$??Y?$basic_string@DU?$char_traits@D@std@@V?$allocator@D@2@@std@@QEAAAEAV01@AEBV01@@Z DD imagerel $LN3
	DD	imagerel $LN3+56
	DD	imagerel $unwind$??Y?$basic_string@DU?$char_traits@D@std@@V?$allocator@D@2@@std@@QEAAAEAV01@AEBV01@@Z
pdata	ENDS
;	COMDAT pdata
pdata	SEGMENT
$pdata$??Y?$basic_string@DU?$char_traits@D@std@@V?$allocator@D@2@@std@@QEAAAEAV01@QEBD@Z DD imagerel $LN3
	DD	imagerel $LN3+56
	DD	imagerel $unwind$??Y?$basic_string@DU?$char_traits@D@std@@V?$allocator@D@2@@std@@QEAAAEAV01@QEBD@Z
pdata	ENDS
;	COMDAT pdata
pdata	SEGMENT
$pdata$?append@?$basic_string@DU?$char_traits@D@std@@V?$allocator@D@2@@std@@QEAAAEAV12@AEBV12@@Z DD imagerel $LN3
	DD	imagerel $LN3+76
	DD	imagerel $unwind$?append@?$basic_string@DU?$char_traits@D@std@@V?$allocator@D@2@@std@@QEAAAEAV12@AEBV12@@Z
pdata	ENDS
;	COMDAT pdata
pdata	SEGMENT
$pdata$?append@?$basic_string@DU?$char_traits@D@std@@V?$allocator@D@2@@std@@QEAAAEAV12@QEBD_K@Z DD imagerel $LN4
	DD	imagerel $LN4+270
	DD	imagerel $unwind$?append@?$basic_string@DU?$char_traits@D@std@@V?$allocator@D@2@@std@@QEAAAEAV12@QEBD_K@Z
pdata	ENDS
;	COMDAT pdata
pdata	SEGMENT
$pdata$?append@?$basic_string@DU?$char_traits@D@std@@V?$allocator@D@2@@std@@QEAAAEAV12@QEBD@Z DD imagerel $LN3
	DD	imagerel $LN3+77
	DD	imagerel $unwind$?append@?$basic_string@DU?$char_traits@D@std@@V?$allocator@D@2@@std@@QEAAAEAV12@QEBD@Z
pdata	ENDS
;	COMDAT pdata
pdata	SEGMENT
$pdata$?assign@?$basic_string@DU?$char_traits@D@std@@V?$allocator@D@2@@std@@QEAAAEAV12@QEBD_K@Z DD imagerel $LN4
	DD	imagerel $LN4+198
	DD	imagerel $unwind$?assign@?$basic_string@DU?$char_traits@D@std@@V?$allocator@D@2@@std@@QEAAAEAV12@QEBD_K@Z
pdata	ENDS
;	COMDAT pdata
pdata	SEGMENT
$pdata$?assign@?$basic_string@DU?$char_traits@D@std@@V?$allocator@D@2@@std@@QEAAAEAV12@QEBD@Z DD imagerel $LN3
	DD	imagerel $LN3+77
	DD	imagerel $unwind$?assign@?$basic_string@DU?$char_traits@D@std@@V?$allocator@D@2@@std@@QEAAAEAV12@QEBD@Z
pdata	ENDS
;	COMDAT pdata
pdata	SEGMENT
$pdata$?insert@?$basic_string@DU?$char_traits@D@std@@V?$allocator@D@2@@std@@QEAAAEAV12@_KAEBV12@@Z DD imagerel $LN3
	DD	imagerel $LN3+86
	DD	imagerel $unwind$?insert@?$basic_string@DU?$char_traits@D@std@@V?$allocator@D@2@@std@@QEAAAEAV12@_KAEBV12@@Z
pdata	ENDS
;	COMDAT pdata
pdata	SEGMENT
$pdata$?insert@?$basic_string@DU?$char_traits@D@std@@V?$allocator@D@2@@std@@QEAAAEAV12@_KQEBD0@Z DD imagerel $LN9
	DD	imagerel $LN9+540
	DD	imagerel $unwind$?insert@?$basic_string@DU?$char_traits@D@std@@V?$allocator@D@2@@std@@QEAAAEAV12@_KQEBD0@Z
pdata	ENDS
;	COMDAT pdata
pdata	SEGMENT
$pdata$?c_str@?$basic_string@DU?$char_traits@D@std@@V?$allocator@D@2@@std@@QEBAPEBDXZ DD imagerel $LN3
	DD	imagerel $LN3+50
	DD	imagerel $unwind$?c_str@?$basic_string@DU?$char_traits@D@std@@V?$allocator@D@2@@std@@QEBAPEBDXZ
pdata	ENDS
;	COMDAT pdata
pdata	SEGMENT
$pdata$?length@?$basic_string@DU?$char_traits@D@std@@V?$allocator@D@2@@std@@QEBA_KXZ DD imagerel $LN3
	DD	imagerel $LN3+17
	DD	imagerel $unwind$?length@?$basic_string@DU?$char_traits@D@std@@V?$allocator@D@2@@std@@QEBA_KXZ
pdata	ENDS
;	COMDAT pdata
pdata	SEGMENT
$pdata$?size@?$basic_string@DU?$char_traits@D@std@@V?$allocator@D@2@@std@@QEBA_KXZ DD imagerel $LN3
	DD	imagerel $LN3+17
	DD	imagerel $unwind$?size@?$basic_string@DU?$char_traits@D@std@@V?$allocator@D@2@@std@@QEBA_KXZ
pdata	ENDS
;	COMDAT pdata
pdata	SEGMENT
$pdata$?max_size@?$basic_string@DU?$char_traits@D@std@@V?$allocator@D@2@@std@@QEBA_KXZ DD imagerel $LN3
	DD	imagerel $LN3+153
	DD	imagerel $unwind$?max_size@?$basic_string@DU?$char_traits@D@std@@V?$allocator@D@2@@std@@QEBA_KXZ
pdata	ENDS
;	COMDAT pdata
pdata	SEGMENT
$pdata$?capacity@?$basic_string@DU?$char_traits@D@std@@V?$allocator@D@2@@std@@QEBA_KXZ DD imagerel $LN3
	DD	imagerel $LN3+17
	DD	imagerel $unwind$?capacity@?$basic_string@DU?$char_traits@D@std@@V?$allocator@D@2@@std@@QEBA_KXZ
pdata	ENDS
;	COMDAT pdata
pdata	SEGMENT
$pdata$?_Calculate_growth@?$basic_string@DU?$char_traits@D@std@@V?$allocator@D@2@@std@@CA_K_K00@Z DD imagerel $LN5
	DD	imagerel $LN5+189
	DD	imagerel $unwind$?_Calculate_growth@?$basic_string@DU?$char_traits@D@std@@V?$allocator@D@2@@std@@CA_K_K00@Z
pdata	ENDS
;	COMDAT pdata
pdata	SEGMENT
$pdata$?_Calculate_growth@?$basic_string@DU?$char_traits@D@std@@V?$allocator@D@2@@std@@AEBA_K_K@Z DD imagerel $LN3
	DD	imagerel $LN3+73
	DD	imagerel $unwind$?_Calculate_growth@?$basic_string@DU?$char_traits@D@std@@V?$allocator@D@2@@std@@AEBA_K_K@Z
pdata	ENDS
;	COMDAT pdata
pdata	SEGMENT
$pdata$?_Tidy_init@?$basic_string@DU?$char_traits@D@std@@V?$allocator@D@2@@std@@AEAAXXZ DD imagerel $LN3
	DD	imagerel $LN3+99
	DD	imagerel $unwind$?_Tidy_init@?$basic_string@DU?$char_traits@D@std@@V?$allocator@D@2@@std@@AEAAXXZ
pdata	ENDS
;	COMDAT pdata
pdata	SEGMENT
$pdata$?_Tidy_deallocate@?$basic_string@DU?$char_traits@D@std@@V?$allocator@D@2@@std@@AEAAXXZ DD imagerel $LN4
	DD	imagerel $LN4+214
	DD	imagerel $unwind$?_Tidy_deallocate@?$basic_string@DU?$char_traits@D@std@@V?$allocator@D@2@@std@@AEAAXXZ
pdata	ENDS
;	COMDAT pdata
pdata	SEGMENT
$pdata$?_Xlen@?$basic_string@DU?$char_traits@D@std@@V?$allocator@D@2@@std@@CAXXZ DD imagerel $LN3
	DD	imagerel $LN3+39
	DD	imagerel $unwind$?_Xlen@?$basic_string@DU?$char_traits@D@std@@V?$allocator@D@2@@std@@CAXXZ
pdata	ENDS
;	COMDAT pdata
pdata	SEGMENT
$pdata$?_Swap_proxy_and_iterators@?$basic_string@DU?$char_traits@D@std@@V?$allocator@D@2@@std@@AEAAXAEAV12@@Z DD imagerel $LN3
	DD	imagerel $LN3+59
	DD	imagerel $unwind$?_Swap_proxy_and_iterators@?$basic_string@DU?$char_traits@D@std@@V?$allocator@D@2@@std@@AEAAXAEAV12@@Z
pdata	ENDS
;	COMDAT pdata
pdata	SEGMENT
$pdata$?_Getal@?$basic_string@DU?$char_traits@D@std@@V?$allocator@D@2@@std@@AEAAAEAV?$allocator@D@2@XZ DD imagerel $LN3
	DD	imagerel $LN3+49
	DD	imagerel $unwind$?_Getal@?$basic_string@DU?$char_traits@D@std@@V?$allocator@D@2@@std@@AEAAAEAV?$allocator@D@2@XZ
pdata	ENDS
;	COMDAT pdata
pdata	SEGMENT
$pdata$?_Getal@?$basic_string@DU?$char_traits@D@std@@V?$allocator@D@2@@std@@AEBAAEBV?$allocator@D@2@XZ DD imagerel $LN3
	DD	imagerel $LN3+49
	DD	imagerel $unwind$?_Getal@?$basic_string@DU?$char_traits@D@std@@V?$allocator@D@2@@std@@AEBAAEBV?$allocator@D@2@XZ
pdata	ENDS
;	COMDAT pdata
pdata	SEGMENT
$pdata$?_Get_first@?$_Compressed_pair@V?$allocator@D@std@@V?$_String_val@U?$_Simple_types@D@std@@@2@$00@std@@QEAAAEAV?$allocator@D@2@XZ DD imagerel $LN3
	DD	imagerel $LN3+13
	DD	imagerel $unwind$?_Get_first@?$_Compressed_pair@V?$allocator@D@std@@V?$_String_val@U?$_Simple_types@D@std@@@2@$00@std@@QEAAAEAV?$allocator@D@2@XZ
pdata	ENDS
;	COMDAT pdata
pdata	SEGMENT
$pdata$?_Get_first@?$_Compressed_pair@V?$allocator@D@std@@V?$_String_val@U?$_Simple_types@D@std@@@2@$00@std@@QEBAAEBV?$allocator@D@2@XZ DD imagerel $LN3
	DD	imagerel $LN3+13
	DD	imagerel $unwind$?_Get_first@?$_Compressed_pair@V?$allocator@D@std@@V?$_String_val@U?$_Simple_types@D@std@@@2@$00@std@@QEBAAEBV?$allocator@D@2@XZ
pdata	ENDS
;	COMDAT pdata
pdata	SEGMENT
$pdata$??1?$_Compressed_pair@V?$allocator@D@std@@V?$_String_val@U?$_Simple_types@D@std@@@2@$00@std@@QEAA@XZ DD imagerel $LN4
	DD	imagerel $LN4+50
	DD	imagerel $unwind$??1?$_Compressed_pair@V?$allocator@D@std@@V?$_String_val@U?$_Simple_types@D@std@@@2@$00@std@@QEAA@XZ
pdata	ENDS
;	COMDAT pdata
pdata	SEGMENT
$pdata$?dtor$0@?0???1?$_Compressed_pair@V?$allocator@D@std@@V?$_String_val@U?$_Simple_types@D@std@@@2@$00@std@@QEAA@XZ@4HA DD imagerel ?dtor$0@?0???1?$_Compressed_pair@V?$allocator@D@std@@V?$_String_val@U?$_Simple_types@D@std@@@2@$00@std@@QEAA@XZ@4HA
	DD	imagerel ?dtor$0@?0???1?$_Compressed_pair@V?$allocator@D@std@@V?$_String_val@U?$_Simple_types@D@std@@@2@$00@std@@QEAA@XZ@4HA+35
	DD	imagerel $unwind$?dtor$0@?0???1?$_Compressed_pair@V?$allocator@D@std@@V?$_String_val@U?$_Simple_types@D@std@@@2@$00@std@@QEAA@XZ@4HA
pdata	ENDS
;	COMDAT pdata
pdata	SEGMENT
$pdata$??Rfp_deleter@@QEBAXPEAU_iobuf@@@Z DD imagerel $LN4
	DD	imagerel $LN4+71
	DD	imagerel $unwind$??Rfp_deleter@@QEBAXPEAU_iobuf@@@Z
pdata	ENDS
;	COMDAT pdata
pdata	SEGMENT
$pdata$??Rhandle_deleter@@QEBAXPEAX@Z DD imagerel $LN4
	DD	imagerel $LN4+60
	DD	imagerel $unwind$??Rhandle_deleter@@QEBAXPEAX@Z
pdata	ENDS
;	COMDAT pdata
pdata	SEGMENT
$pdata$??$make_array@W4CspMatrix@@W41@W41@W41@W41@W41@W41@W41@W41@W41@W41@W41@W41@W41@W41@@@YA?AV?$array@W4CspMatrix@@$0O@@std@@$$QEAW4CspMatrix@@0000000000000@Z DD imagerel $LN3
	DD	imagerel $LN3+297
	DD	imagerel $unwind$??$make_array@W4CspMatrix@@W41@W41@W41@W41@W41@W41@W41@W41@W41@W41@W41@W41@W41@W41@@@YA?AV?$array@W4CspMatrix@@$0O@@std@@$$QEAW4CspMatrix@@0000000000000@Z
pdata	ENDS
;	COMDAT pdata
pdata	SEGMENT
$pdata$??__ECspMatrixList@@YAXXZ DD imagerel ??__ECspMatrixList@@YAXXZ
	DD	imagerel ??__ECspMatrixList@@YAXXZ+452
	DD	imagerel $unwind$??__ECspMatrixList@@YAXXZ
pdata	ENDS
;	COMDAT pdata
pdata	SEGMENT
$pdata$??$make_array@W4CspTransfer@@W41@W41@W41@W41@W41@W41@W41@W41@W41@W41@W41@W41@W41@W41@W41@@@YA?AV?$array@W4CspTransfer@@$0P@@std@@$$QEAW4CspTransfer@@00000000000000@Z DD imagerel $LN3
	DD	imagerel $LN3+311
	DD	imagerel $unwind$??$make_array@W4CspTransfer@@W41@W41@W41@W41@W41@W41@W41@W41@W41@W41@W41@W41@W41@W41@W41@@@YA?AV?$array@W4CspTransfer@@$0P@@std@@$$QEAW4CspTransfer@@00000000000000@Z
pdata	ENDS
;	COMDAT pdata
pdata	SEGMENT
$pdata$??__ECspTransferList@@YAXXZ DD imagerel ??__ECspTransferList@@YAXXZ
	DD	imagerel ??__ECspTransferList@@YAXXZ+476
	DD	imagerel $unwind$??__ECspTransferList@@YAXXZ
pdata	ENDS
;	COMDAT pdata
pdata	SEGMENT
$pdata$??$make_array@W4CspColorprim@@W41@W41@W41@W41@W41@W41@W41@W41@W41@W41@W41@W41@@@YA?AV?$array@W4CspColorprim@@$0M@@std@@$$QEAW4CspColorprim@@00000000000@Z DD imagerel $LN3
	DD	imagerel $LN3+263
	DD	imagerel $unwind$??$make_array@W4CspColorprim@@W41@W41@W41@W41@W41@W41@W41@W41@W41@W41@W41@W41@@@YA?AV?$array@W4CspColorprim@@$0M@@std@@$$QEAW4CspColorprim@@00000000000@Z
pdata	ENDS
;	COMDAT pdata
pdata	SEGMENT
$pdata$??__ECspColorprimList@@YAXXZ DD imagerel ??__ECspColorprimList@@YAXXZ
	DD	imagerel ??__ECspColorprimList@@YAXXZ+398
	DD	imagerel $unwind$??__ECspColorprimList@@YAXXZ
pdata	ENDS
;	COMDAT pdata
pdata	SEGMENT
$pdata$??$?HDU?$char_traits@D@std@@V?$allocator@D@1@@std@@YA?AV?$basic_string@DU?$char_traits@D@std@@V?$allocator@D@2@@0@$$QEAV10@AEBV10@@Z DD imagerel $LN5
	DD	imagerel $LN5+108
	DD	imagerel $unwind$??$?HDU?$char_traits@D@std@@V?$allocator@D@1@@std@@YA?AV?$basic_string@DU?$char_traits@D@std@@V?$allocator@D@2@@0@$$QEAV10@AEBV10@@Z
pdata	ENDS
;	COMDAT pdata
pdata	SEGMENT
$pdata$?dtor$0@?0???$?HDU?$char_traits@D@std@@V?$allocator@D@1@@std@@YA?AV?$basic_string@DU?$char_traits@D@std@@V?$allocator@D@2@@0@$$QEAV10@AEBV10@@Z@4HA DD imagerel ?dtor$0@?0???$?HDU?$char_traits@D@std@@V?$allocator@D@1@@std@@YA?AV?$basic_string@DU?$char_traits@D@std@@V?$allocator@D@2@@0@$$QEAV10@AEBV10@@Z@4HA
	DD	imagerel ?dtor$0@?0???$?HDU?$char_traits@D@std@@V?$allocator@D@1@@std@@YA?AV?$basic_string@DU?$char_traits@D@std@@V?$allocator@D@2@@0@$$QEAV10@AEBV10@@Z@4HA+49
	DD	imagerel $unwind$?dtor$0@?0???$?HDU?$char_traits@D@std@@V?$allocator@D@1@@std@@YA?AV?$basic_string@DU?$char_traits@D@std@@V?$allocator@D@2@@0@$$QEAV10@AEBV10@@Z@4HA
pdata	ENDS
;	COMDAT pdata
pdata	SEGMENT
$pdata$??$?HDU?$char_traits@D@std@@V?$allocator@D@1@@std@@YA?AV?$basic_string@DU?$char_traits@D@std@@V?$allocator@D@2@@0@$$QEAV10@0@Z DD imagerel $LN8
	DD	imagerel $LN8+289
	DD	imagerel $unwind$??$?HDU?$char_traits@D@std@@V?$allocator@D@1@@std@@YA?AV?$basic_string@DU?$char_traits@D@std@@V?$allocator@D@2@@0@$$QEAV10@0@Z
pdata	ENDS
;	COMDAT pdata
pdata	SEGMENT
$pdata$?dtor$0@?0???$?HDU?$char_traits@D@std@@V?$allocator@D@1@@std@@YA?AV?$basic_string@DU?$char_traits@D@std@@V?$allocator@D@2@@0@$$QEAV10@0@Z@4HA DD imagerel ?dtor$0@?0???$?HDU?$char_traits@D@std@@V?$allocator@D@1@@std@@YA?AV?$basic_string@DU?$char_traits@D@std@@V?$allocator@D@2@@0@$$QEAV10@0@Z@4HA
	DD	imagerel ?dtor$0@?0???$?HDU?$char_traits@D@std@@V?$allocator@D@1@@std@@YA?AV?$basic_string@DU?$char_traits@D@std@@V?$allocator@D@2@@0@$$QEAV10@0@Z@4HA+49
	DD	imagerel $unwind$?dtor$0@?0???$?HDU?$char_traits@D@std@@V?$allocator@D@1@@std@@YA?AV?$basic_string@DU?$char_traits@D@std@@V?$allocator@D@2@@0@$$QEAV10@0@Z@4HA
pdata	ENDS
pdata	SEGMENT
$pdata$??0CPerfMonitor@@QEAA@XZ DD imagerel $LN11
	DD	imagerel $LN11+508
	DD	imagerel $unwind$??0CPerfMonitor@@QEAA@XZ
pdata	ENDS
pdata	SEGMENT
$pdata$?dtor$0@?0???0CPerfMonitor@@QEAA@XZ@4HA DD imagerel ?dtor$0@?0???0CPerfMonitor@@QEAA@XZ@4HA
	DD	imagerel ?dtor$0@?0???0CPerfMonitor@@QEAA@XZ@4HA+42
	DD	imagerel $unwind$?dtor$0@?0???0CPerfMonitor@@QEAA@XZ@4HA
$pdata$?dtor$1@?0???0CPerfMonitor@@QEAA@XZ@4HA DD imagerel ?dtor$1@?0???0CPerfMonitor@@QEAA@XZ@4HA
	DD	imagerel ?dtor$1@?0???0CPerfMonitor@@QEAA@XZ@4HA+45
	DD	imagerel $unwind$?dtor$1@?0???0CPerfMonitor@@QEAA@XZ@4HA
$pdata$?dtor$2@?0???0CPerfMonitor@@QEAA@XZ@4HA DD imagerel ?dtor$2@?0???0CPerfMonitor@@QEAA@XZ@4HA
	DD	imagerel ?dtor$2@?0???0CPerfMonitor@@QEAA@XZ@4HA+45
	DD	imagerel $unwind$?dtor$2@?0???0CPerfMonitor@@QEAA@XZ@4HA
$pdata$?dtor$3@?0???0CPerfMonitor@@QEAA@XZ@4HA DD imagerel ?dtor$3@?0???0CPerfMonitor@@QEAA@XZ@4HA
	DD	imagerel ?dtor$3@?0???0CPerfMonitor@@QEAA@XZ@4HA+45
	DD	imagerel $unwind$?dtor$3@?0???0CPerfMonitor@@QEAA@XZ@4HA
$pdata$?dtor$4@?0???0CPerfMonitor@@QEAA@XZ@4HA DD imagerel ?dtor$4@?0???0CPerfMonitor@@QEAA@XZ@4HA
	DD	imagerel ?dtor$4@?0???0CPerfMonitor@@QEAA@XZ@4HA+45
	DD	imagerel $unwind$?dtor$4@?0???0CPerfMonitor@@QEAA@XZ@4HA
$pdata$?dtor$5@?0???0CPerfMonitor@@QEAA@XZ@4HA DD imagerel ?dtor$5@?0???0CPerfMonitor@@QEAA@XZ@4HA
	DD	imagerel ?dtor$5@?0???0CPerfMonitor@@QEAA@XZ@4HA+45
	DD	imagerel $unwind$?dtor$5@?0???0CPerfMonitor@@QEAA@XZ@4HA
$pdata$?dtor$6@?0???0CPerfMonitor@@QEAA@XZ@4HA DD imagerel ?dtor$6@?0???0CPerfMonitor@@QEAA@XZ@4HA
	DD	imagerel ?dtor$6@?0???0CPerfMonitor@@QEAA@XZ@4HA+45
	DD	imagerel $unwind$?dtor$6@?0???0CPerfMonitor@@QEAA@XZ@4HA
$pdata$?dtor$7@?0???0CPerfMonitor@@QEAA@XZ@4HA DD imagerel ?dtor$7@?0???0CPerfMonitor@@QEAA@XZ@4HA
	DD	imagerel ?dtor$7@?0???0CPerfMonitor@@QEAA@XZ@4HA+45
	DD	imagerel $unwind$?dtor$7@?0???0CPerfMonitor@@QEAA@XZ@4HA
pdata	ENDS
pdata	SEGMENT
$pdata$?init@CPerfMonitor@@QEAAHV?$basic_string@DU?$char_traits@D@std@@V?$allocator@D@2@@std@@PEBDHHHV?$unique_ptr@XUhandle_deleter@@@3@V?$shared_ptr@VRGYLog@@@3@PEAUCPerfMonitorPrm@@@Z DD imagerel $LN35
	DD	imagerel $LN35+3528
	DD	imagerel $unwind$?init@CPerfMonitor@@QEAAHV?$basic_string@DU?$char_traits@D@std@@V?$allocator@D@2@@std@@PEBDHHHV?$unique_ptr@XUhandle_deleter@@@3@V?$shared_ptr@VRGYLog@@@3@PEAUCPerfMonitorPrm@@@Z
pdata	ENDS
pdata	SEGMENT
$pdata$?dtor$0@?0??init@CPerfMonitor@@QEAAHV?$basic_string@DU?$char_traits@D@std@@V?$allocator@D@2@@std@@PEBDHHHV?$unique_ptr@XUhandle_deleter@@@3@V?$shared_ptr@VRGYLog@@@3@PEAUCPerfMonitorPrm@@@Z@4HA DD imagerel ?dtor$0@?0??init@CPerfMonitor@@QEAAHV?$basic_string@DU?$char_traits@D@std@@V?$allocator@D@2@@std@@PEBDHHHV?$unique_ptr@XUhandle_deleter@@@3@V?$shared_ptr@VRGYLog@@@3@PEAUCPerfMonitorPrm@@@Z@4HA
	DD	imagerel ?dtor$0@?0??init@CPerfMonitor@@QEAAHV?$basic_string@DU?$char_traits@D@std@@V?$allocator@D@2@@std@@PEBDHHHV?$unique_ptr@XUhandle_deleter@@@3@V?$shared_ptr@VRGYLog@@@3@PEAUCPerfMonitorPrm@@@Z@4HA+38
	DD	imagerel $unwind$?dtor$0@?0??init@CPerfMonitor@@QEAAHV?$basic_string@DU?$char_traits@D@std@@V?$allocator@D@2@@std@@PEBDHHHV?$unique_ptr@XUhandle_deleter@@@3@V?$shared_ptr@VRGYLog@@@3@PEAUCPerfMonitorPrm@@@Z@4HA
$pdata$?dtor$1@?0??init@CPerfMonitor@@QEAAHV?$basic_string@DU?$char_traits@D@std@@V?$allocator@D@2@@std@@PEBDHHHV?$unique_ptr@XUhandle_deleter@@@3@V?$shared_ptr@VRGYLog@@@3@PEAUCPerfMonitorPrm@@@Z@4HA DD imagerel ?dtor$1@?0??init@CPerfMonitor@@QEAAHV?$basic_string@DU?$char_traits@D@std@@V?$allocator@D@2@@std@@PEBDHHHV?$unique_ptr@XUhandle_deleter@@@3@V?$shared_ptr@VRGYLog@@@3@PEAUCPerfMonitorPrm@@@Z@4HA
	DD	imagerel ?dtor$1@?0??init@CPerfMonitor@@QEAAHV?$basic_string@DU?$char_traits@D@std@@V?$allocator@D@2@@std@@PEBDHHHV?$unique_ptr@XUhandle_deleter@@@3@V?$shared_ptr@VRGYLog@@@3@PEAUCPerfMonitorPrm@@@Z@4HA+38
	DD	imagerel $unwind$?dtor$1@?0??init@CPerfMonitor@@QEAAHV?$basic_string@DU?$char_traits@D@std@@V?$allocator@D@2@@std@@PEBDHHHV?$unique_ptr@XUhandle_deleter@@@3@V?$shared_ptr@VRGYLog@@@3@PEAUCPerfMonitorPrm@@@Z@4HA
$pdata$?dtor$2@?0??init@CPerfMonitor@@QEAAHV?$basic_string@DU?$char_traits@D@std@@V?$allocator@D@2@@std@@PEBDHHHV?$unique_ptr@XUhandle_deleter@@@3@V?$shared_ptr@VRGYLog@@@3@PEAUCPerfMonitorPrm@@@Z@4HA DD imagerel ?dtor$2@?0??init@CPerfMonitor@@QEAAHV?$basic_string@DU?$char_traits@D@std@@V?$allocator@D@2@@std@@PEBDHHHV?$unique_ptr@XUhandle_deleter@@@3@V?$shared_ptr@VRGYLog@@@3@PEAUCPerfMonitorPrm@@@Z@4HA
	DD	imagerel ?dtor$2@?0??init@CPerfMonitor@@QEAAHV?$basic_string@DU?$char_traits@D@std@@V?$allocator@D@2@@std@@PEBDHHHV?$unique_ptr@XUhandle_deleter@@@3@V?$shared_ptr@VRGYLog@@@3@PEAUCPerfMonitorPrm@@@Z@4HA+38
	DD	imagerel $unwind$?dtor$2@?0??init@CPerfMonitor@@QEAAHV?$basic_string@DU?$char_traits@D@std@@V?$allocator@D@2@@std@@PEBDHHHV?$unique_ptr@XUhandle_deleter@@@3@V?$shared_ptr@VRGYLog@@@3@PEAUCPerfMonitorPrm@@@Z@4HA
$pdata$?dtor$3@?0??init@CPerfMonitor@@QEAAHV?$basic_string@DU?$char_traits@D@std@@V?$allocator@D@2@@std@@PEBDHHHV?$unique_ptr@XUhandle_deleter@@@3@V?$shared_ptr@VRGYLog@@@3@PEAUCPerfMonitorPrm@@@Z@4HA DD imagerel ?dtor$3@?0??init@CPerfMonitor@@QEAAHV?$basic_string@DU?$char_traits@D@std@@V?$allocator@D@2@@std@@PEBDHHHV?$unique_ptr@XUhandle_deleter@@@3@V?$shared_ptr@VRGYLog@@@3@PEAUCPerfMonitorPrm@@@Z@4HA
	DD	imagerel ?dtor$3@?0??init@CPerfMonitor@@QEAAHV?$basic_string@DU?$char_traits@D@std@@V?$allocator@D@2@@std@@PEBDHHHV?$unique_ptr@XUhandle_deleter@@@3@V?$shared_ptr@VRGYLog@@@3@PEAUCPerfMonitorPrm@@@Z@4HA+38
	DD	imagerel $unwind$?dtor$3@?0??init@CPerfMonitor@@QEAAHV?$basic_string@DU?$char_traits@D@std@@V?$allocator@D@2@@std@@PEBDHHHV?$unique_ptr@XUhandle_deleter@@@3@V?$shared_ptr@VRGYLog@@@3@PEAUCPerfMonitorPrm@@@Z@4HA
$pdata$?dtor$4@?0??init@CPerfMonitor@@QEAAHV?$basic_string@DU?$char_traits@D@std@@V?$allocator@D@2@@std@@PEBDHHHV?$unique_ptr@XUhandle_deleter@@@3@V?$shared_ptr@VRGYLog@@@3@PEAUCPerfMonitorPrm@@@Z@4HA DD imagerel ?dtor$4@?0??init@CPerfMonitor@@QEAAHV?$basic_string@DU?$char_traits@D@std@@V?$allocator@D@2@@std@@PEBDHHHV?$unique_ptr@XUhandle_deleter@@@3@V?$shared_ptr@VRGYLog@@@3@PEAUCPerfMonitorPrm@@@Z@4HA
	DD	imagerel ?dtor$4@?0??init@CPerfMonitor@@QEAAHV?$basic_string@DU?$char_traits@D@std@@V?$allocator@D@2@@std@@PEBDHHHV?$unique_ptr@XUhandle_deleter@@@3@V?$shared_ptr@VRGYLog@@@3@PEAUCPerfMonitorPrm@@@Z@4HA+43
	DD	imagerel $unwind$?dtor$4@?0??init@CPerfMonitor@@QEAAHV?$basic_string@DU?$char_traits@D@std@@V?$allocator@D@2@@std@@PEBDHHHV?$unique_ptr@XUhandle_deleter@@@3@V?$shared_ptr@VRGYLog@@@3@PEAUCPerfMonitorPrm@@@Z@4HA
$pdata$?dtor$5@?0??init@CPerfMonitor@@QEAAHV?$basic_string@DU?$char_traits@D@std@@V?$allocator@D@2@@std@@PEBDHHHV?$unique_ptr@XUhandle_deleter@@@3@V?$shared_ptr@VRGYLog@@@3@PEAUCPerfMonitorPrm@@@Z@4HA DD imagerel ?dtor$5@?0??init@CPerfMonitor@@QEAAHV?$basic_string@DU?$char_traits@D@std@@V?$allocator@D@2@@std@@PEBDHHHV?$unique_ptr@XUhandle_deleter@@@3@V?$shared_ptr@VRGYLog@@@3@PEAUCPerfMonitorPrm@@@Z@4HA
	DD	imagerel ?dtor$5@?0??init@CPerfMonitor@@QEAAHV?$basic_string@DU?$char_traits@D@std@@V?$allocator@D@2@@std@@PEBDHHHV?$unique_ptr@XUhandle_deleter@@@3@V?$shared_ptr@VRGYLog@@@3@PEAUCPerfMonitorPrm@@@Z@4HA+38
	DD	imagerel $unwind$?dtor$5@?0??init@CPerfMonitor@@QEAAHV?$basic_string@DU?$char_traits@D@std@@V?$allocator@D@2@@std@@PEBDHHHV?$unique_ptr@XUhandle_deleter@@@3@V?$shared_ptr@VRGYLog@@@3@PEAUCPerfMonitorPrm@@@Z@4HA
$pdata$?dtor$6@?0??init@CPerfMonitor@@QEAAHV?$basic_string@DU?$char_traits@D@std@@V?$allocator@D@2@@std@@PEBDHHHV?$unique_ptr@XUhandle_deleter@@@3@V?$shared_ptr@VRGYLog@@@3@PEAUCPerfMonitorPrm@@@Z@4HA DD imagerel ?dtor$6@?0??init@CPerfMonitor@@QEAAHV?$basic_string@DU?$char_traits@D@std@@V?$allocator@D@2@@std@@PEBDHHHV?$unique_ptr@XUhandle_deleter@@@3@V?$shared_ptr@VRGYLog@@@3@PEAUCPerfMonitorPrm@@@Z@4HA
	DD	imagerel ?dtor$6@?0??init@CPerfMonitor@@QEAAHV?$basic_string@DU?$char_traits@D@std@@V?$allocator@D@2@@std@@PEBDHHHV?$unique_ptr@XUhandle_deleter@@@3@V?$shared_ptr@VRGYLog@@@3@PEAUCPerfMonitorPrm@@@Z@4HA+38
	DD	imagerel $unwind$?dtor$6@?0??init@CPerfMonitor@@QEAAHV?$basic_string@DU?$char_traits@D@std@@V?$allocator@D@2@@std@@PEBDHHHV?$unique_ptr@XUhandle_deleter@@@3@V?$shared_ptr@VRGYLog@@@3@PEAUCPerfMonitorPrm@@@Z@4HA
$pdata$?dtor$7@?0??init@CPerfMonitor@@QEAAHV?$basic_string@DU?$char_traits@D@std@@V?$allocator@D@2@@std@@PEBDHHHV?$unique_ptr@XUhandle_deleter@@@3@V?$shared_ptr@VRGYLog@@@3@PEAUCPerfMonitorPrm@@@Z@4HA DD imagerel ?dtor$7@?0??init@CPerfMonitor@@QEAAHV?$basic_string@DU?$char_traits@D@std@@V?$allocator@D@2@@std@@PEBDHHHV?$unique_ptr@XUhandle_deleter@@@3@V?$shared_ptr@VRGYLog@@@3@PEAUCPerfMonitorPrm@@@Z@4HA
	DD	imagerel ?dtor$7@?0??init@CPerfMonitor@@QEAAHV?$basic_string@DU?$char_traits@D@std@@V?$allocator@D@2@@std@@PEBDHHHV?$unique_ptr@XUhandle_deleter@@@3@V?$shared_ptr@VRGYLog@@@3@PEAUCPerfMonitorPrm@@@Z@4HA+38
	DD	imagerel $unwind$?dtor$7@?0??init@CPerfMonitor@@QEAAHV?$basic_string@DU?$char_traits@D@std@@V?$allocator@D@2@@std@@PEBDHHHV?$unique_ptr@XUhandle_deleter@@@3@V?$shared_ptr@VRGYLog@@@3@PEAUCPerfMonitorPrm@@@Z@4HA
$pdata$?dtor$8@?0??init@CPerfMonitor@@QEAAHV?$basic_string@DU?$char_traits@D@std@@V?$allocator@D@2@@std@@PEBDHHHV?$unique_ptr@XUhandle_deleter@@@3@V?$shared_ptr@VRGYLog@@@3@PEAUCPerfMonitorPrm@@@Z@4HA DD imagerel ?dtor$8@?0??init@CPerfMonitor@@QEAAHV?$basic_string@DU?$char_traits@D@std@@V?$allocator@D@2@@std@@PEBDHHHV?$unique_ptr@XUhandle_deleter@@@3@V?$shared_ptr@VRGYLog@@@3@PEAUCPerfMonitorPrm@@@Z@4HA
	DD	imagerel ?dtor$8@?0??init@CPerfMonitor@@QEAAHV?$basic_string@DU?$char_traits@D@std@@V?$allocator@D@2@@std@@PEBDHHHV?$unique_ptr@XUhandle_deleter@@@3@V?$shared_ptr@VRGYLog@@@3@PEAUCPerfMonitorPrm@@@Z@4HA+38
	DD	imagerel $unwind$?dtor$8@?0??init@CPerfMonitor@@QEAAHV?$basic_string@DU?$char_traits@D@std@@V?$allocator@D@2@@std@@PEBDHHHV?$unique_ptr@XUhandle_deleter@@@3@V?$shared_ptr@VRGYLog@@@3@PEAUCPerfMonitorPrm@@@Z@4HA
$pdata$?dtor$9@?0??init@CPerfMonitor@@QEAAHV?$basic_string@DU?$char_traits@D@std@@V?$allocator@D@2@@std@@PEBDHHHV?$unique_ptr@XUhandle_deleter@@@3@V?$shared_ptr@VRGYLog@@@3@PEAUCPerfMonitorPrm@@@Z@4HA DD imagerel ?dtor$9@?0??init@CPerfMonitor@@QEAAHV?$basic_string@DU?$char_traits@D@std@@V?$allocator@D@2@@std@@PEBDHHHV?$unique_ptr@XUhandle_deleter@@@3@V?$shared_ptr@VRGYLog@@@3@PEAUCPerfMonitorPrm@@@Z@4HA
	DD	imagerel ?dtor$9@?0??init@CPerfMonitor@@QEAAHV?$basic_string@DU?$char_traits@D@std@@V?$allocator@D@2@@std@@PEBDHHHV?$unique_ptr@XUhandle_deleter@@@3@V?$shared_ptr@VRGYLog@@@3@PEAUCPerfMonitorPrm@@@Z@4HA+38
	DD	imagerel $unwind$?dtor$9@?0??init@CPerfMonitor@@QEAAHV?$basic_string@DU?$char_traits@D@std@@V?$allocator@D@2@@std@@PEBDHHHV?$unique_ptr@XUhandle_deleter@@@3@V?$shared_ptr@VRGYLog@@@3@PEAUCPerfMonitorPrm@@@Z@4HA
$pdata$?dtor$10@?0??init@CPerfMonitor@@QEAAHV?$basic_string@DU?$char_traits@D@std@@V?$allocator@D@2@@std@@PEBDHHHV?$unique_ptr@XUhandle_deleter@@@3@V?$shared_ptr@VRGYLog@@@3@PEAUCPerfMonitorPrm@@@Z@4HA DD imagerel ?dtor$10@?0??init@CPerfMonitor@@QEAAHV?$basic_string@DU?$char_traits@D@std@@V?$allocator@D@2@@std@@PEBDHHHV?$unique_ptr@XUhandle_deleter@@@3@V?$shared_ptr@VRGYLog@@@3@PEAUCPerfMonitorPrm@@@Z@4HA
	DD	imagerel ?dtor$10@?0??init@CPerfMonitor@@QEAAHV?$basic_string@DU?$char_traits@D@std@@V?$allocator@D@2@@std@@PEBDHHHV?$unique_ptr@XUhandle_deleter@@@3@V?$shared_ptr@VRGYLog@@@3@PEAUCPerfMonitorPrm@@@Z@4HA+38
	DD	imagerel $unwind$?dtor$10@?0??init@CPerfMonitor@@QEAAHV?$basic_string@DU?$char_traits@D@std@@V?$allocator@D@2@@std@@PEBDHHHV?$unique_ptr@XUhandle_deleter@@@3@V?$shared_ptr@VRGYLog@@@3@PEAUCPerfMonitorPrm@@@Z@4HA
$pdata$?dtor$11@?0??init@CPerfMonitor@@QEAAHV?$basic_string@DU?$char_traits@D@std@@V?$allocator@D@2@@std@@PEBDHHHV?$unique_ptr@XUhandle_deleter@@@3@V?$shared_ptr@VRGYLog@@@3@PEAUCPerfMonitorPrm@@@Z@4HA DD imagerel ?dtor$11@?0??init@CPerfMonitor@@QEAAHV?$basic_string@DU?$char_traits@D@std@@V?$allocator@D@2@@std@@PEBDHHHV?$unique_ptr@XUhandle_deleter@@@3@V?$shared_ptr@VRGYLog@@@3@PEAUCPerfMonitorPrm@@@Z@4HA
	DD	imagerel ?dtor$11@?0??init@CPerfMonitor@@QEAAHV?$basic_string@DU?$char_traits@D@std@@V?$allocator@D@2@@std@@PEBDHHHV?$unique_ptr@XUhandle_deleter@@@3@V?$shared_ptr@VRGYLog@@@3@PEAUCPerfMonitorPrm@@@Z@4HA+38
	DD	imagerel $unwind$?dtor$11@?0??init@CPerfMonitor@@QEAAHV?$basic_string@DU?$char_traits@D@std@@V?$allocator@D@2@@std@@PEBDHHHV?$unique_ptr@XUhandle_deleter@@@3@V?$shared_ptr@VRGYLog@@@3@PEAUCPerfMonitorPrm@@@Z@4HA
$pdata$?dtor$12@?0??init@CPerfMonitor@@QEAAHV?$basic_string@DU?$char_traits@D@std@@V?$allocator@D@2@@std@@PEBDHHHV?$unique_ptr@XUhandle_deleter@@@3@V?$shared_ptr@VRGYLog@@@3@PEAUCPerfMonitorPrm@@@Z@4HA DD imagerel ?dtor$12@?0??init@CPerfMonitor@@QEAAHV?$basic_string@DU?$char_traits@D@std@@V?$allocator@D@2@@std@@PEBDHHHV?$unique_ptr@XUhandle_deleter@@@3@V?$shared_ptr@VRGYLog@@@3@PEAUCPerfMonitorPrm@@@Z@4HA
	DD	imagerel ?dtor$12@?0??init@CPerfMonitor@@QEAAHV?$basic_string@DU?$char_traits@D@std@@V?$allocator@D@2@@std@@PEBDHHHV?$unique_ptr@XUhandle_deleter@@@3@V?$shared_ptr@VRGYLog@@@3@PEAUCPerfMonitorPrm@@@Z@4HA+38
	DD	imagerel $unwind$?dtor$12@?0??init@CPerfMonitor@@QEAAHV?$basic_string@DU?$char_traits@D@std@@V?$allocator@D@2@@std@@PEBDHHHV?$unique_ptr@XUhandle_deleter@@@3@V?$shared_ptr@VRGYLog@@@3@PEAUCPerfMonitorPrm@@@Z@4HA
$pdata$?dtor$13@?0??init@CPerfMonitor@@QEAAHV?$basic_string@DU?$char_traits@D@std@@V?$allocator@D@2@@std@@PEBDHHHV?$unique_ptr@XUhandle_deleter@@@3@V?$shared_ptr@VRGYLog@@@3@PEAUCPerfMonitorPrm@@@Z@4HA DD imagerel ?dtor$13@?0??init@CPerfMonitor@@QEAAHV?$basic_string@DU?$char_traits@D@std@@V?$allocator@D@2@@std@@PEBDHHHV?$unique_ptr@XUhandle_deleter@@@3@V?$shared_ptr@VRGYLog@@@3@PEAUCPerfMonitorPrm@@@Z@4HA
	DD	imagerel ?dtor$13@?0??init@CPerfMonitor@@QEAAHV?$basic_string@DU?$char_traits@D@std@@V?$allocator@D@2@@std@@PEBDHHHV?$unique_ptr@XUhandle_deleter@@@3@V?$shared_ptr@VRGYLog@@@3@PEAUCPerfMonitorPrm@@@Z@4HA+38
	DD	imagerel $unwind$?dtor$13@?0??init@CPerfMonitor@@QEAAHV?$basic_string@DU?$char_traits@D@std@@V?$allocator@D@2@@std@@PEBDHHHV?$unique_ptr@XUhandle_deleter@@@3@V?$shared_ptr@VRGYLog@@@3@PEAUCPerfMonitorPrm@@@Z@4HA
$pdata$?dtor$14@?0??init@CPerfMonitor@@QEAAHV?$basic_string@DU?$char_traits@D@std@@V?$allocator@D@2@@std@@PEBDHHHV?$unique_ptr@XUhandle_deleter@@@3@V?$shared_ptr@VRGYLog@@@3@PEAUCPerfMonitorPrm@@@Z@4HA DD imagerel ?dtor$14@?0??init@CPerfMonitor@@QEAAHV?$basic_string@DU?$char_traits@D@std@@V?$allocator@D@2@@std@@PEBDHHHV?$unique_ptr@XUhandle_deleter@@@3@V?$shared_ptr@VRGYLog@@@3@PEAUCPerfMonitorPrm@@@Z@4HA
	DD	imagerel ?dtor$14@?0??init@CPerfMonitor@@QEAAHV?$basic_string@DU?$char_traits@D@std@@V?$allocator@D@2@@std@@PEBDHHHV?$unique_ptr@XUhandle_deleter@@@3@V?$shared_ptr@VRGYLog@@@3@PEAUCPerfMonitorPrm@@@Z@4HA+38
	DD	imagerel $unwind$?dtor$14@?0??init@CPerfMonitor@@QEAAHV?$basic_string@DU?$char_traits@D@std@@V?$allocator@D@2@@std@@PEBDHHHV?$unique_ptr@XUhandle_deleter@@@3@V?$shared_ptr@VRGYLog@@@3@PEAUCPerfMonitorPrm@@@Z@4HA
$pdata$?dtor$15@?0??init@CPerfMonitor@@QEAAHV?$basic_string@DU?$char_traits@D@std@@V?$allocator@D@2@@std@@PEBDHHHV?$unique_ptr@XUhandle_deleter@@@3@V?$shared_ptr@VRGYLog@@@3@PEAUCPerfMonitorPrm@@@Z@4HA DD imagerel ?dtor$15@?0??init@CPerfMonitor@@QEAAHV?$basic_string@DU?$char_traits@D@std@@V?$allocator@D@2@@std@@PEBDHHHV?$unique_ptr@XUhandle_deleter@@@3@V?$shared_ptr@VRGYLog@@@3@PEAUCPerfMonitorPrm@@@Z@4HA
	DD	imagerel ?dtor$15@?0??init@CPerfMonitor@@QEAAHV?$basic_string@DU?$char_traits@D@std@@V?$allocator@D@2@@std@@PEBDHHHV?$unique_ptr@XUhandle_deleter@@@3@V?$shared_ptr@VRGYLog@@@3@PEAUCPerfMonitorPrm@@@Z@4HA+38
	DD	imagerel $unwind$?dtor$15@?0??init@CPerfMonitor@@QEAAHV?$basic_string@DU?$char_traits@D@std@@V?$allocator@D@2@@std@@PEBDHHHV?$unique_ptr@XUhandle_deleter@@@3@V?$shared_ptr@VRGYLog@@@3@PEAUCPerfMonitorPrm@@@Z@4HA
$pdata$?dtor$16@?0??init@CPerfMonitor@@QEAAHV?$basic_string@DU?$char_traits@D@std@@V?$allocator@D@2@@std@@PEBDHHHV?$unique_ptr@XUhandle_deleter@@@3@V?$shared_ptr@VRGYLog@@@3@PEAUCPerfMonitorPrm@@@Z@4HA DD imagerel ?dtor$16@?0??init@CPerfMonitor@@QEAAHV?$basic_string@DU?$char_traits@D@std@@V?$allocator@D@2@@std@@PEBDHHHV?$unique_ptr@XUhandle_deleter@@@3@V?$shared_ptr@VRGYLog@@@3@PEAUCPerfMonitorPrm@@@Z@4HA
	DD	imagerel ?dtor$16@?0??init@CPerfMonitor@@QEAAHV?$basic_string@DU?$char_traits@D@std@@V?$allocator@D@2@@std@@PEBDHHHV?$unique_ptr@XUhandle_deleter@@@3@V?$shared_ptr@VRGYLog@@@3@PEAUCPerfMonitorPrm@@@Z@4HA+38
	DD	imagerel $unwind$?dtor$16@?0??init@CPerfMonitor@@QEAAHV?$basic_string@DU?$char_traits@D@std@@V?$allocator@D@2@@std@@PEBDHHHV?$unique_ptr@XUhandle_deleter@@@3@V?$shared_ptr@VRGYLog@@@3@PEAUCPerfMonitorPrm@@@Z@4HA
$pdata$?dtor$17@?0??init@CPerfMonitor@@QEAAHV?$basic_string@DU?$char_traits@D@std@@V?$allocator@D@2@@std@@PEBDHHHV?$unique_ptr@XUhandle_deleter@@@3@V?$shared_ptr@VRGYLog@@@3@PEAUCPerfMonitorPrm@@@Z@4HA DD imagerel ?dtor$17@?0??init@CPerfMonitor@@QEAAHV?$basic_string@DU?$char_traits@D@std@@V?$allocator@D@2@@std@@PEBDHHHV?$unique_ptr@XUhandle_deleter@@@3@V?$shared_ptr@VRGYLog@@@3@PEAUCPerfMonitorPrm@@@Z@4HA
	DD	imagerel ?dtor$17@?0??init@CPerfMonitor@@QEAAHV?$basic_string@DU?$char_traits@D@std@@V?$allocator@D@2@@std@@PEBDHHHV?$unique_ptr@XUhandle_deleter@@@3@V?$shared_ptr@VRGYLog@@@3@PEAUCPerfMonitorPrm@@@Z@4HA+38
	DD	imagerel $unwind$?dtor$17@?0??init@CPerfMonitor@@QEAAHV?$basic_string@DU?$char_traits@D@std@@V?$allocator@D@2@@std@@PEBDHHHV?$unique_ptr@XUhandle_deleter@@@3@V?$shared_ptr@VRGYLog@@@3@PEAUCPerfMonitorPrm@@@Z@4HA
$pdata$?dtor$18@?0??init@CPerfMonitor@@QEAAHV?$basic_string@DU?$char_traits@D@std@@V?$allocator@D@2@@std@@PEBDHHHV?$unique_ptr@XUhandle_deleter@@@3@V?$shared_ptr@VRGYLog@@@3@PEAUCPerfMonitorPrm@@@Z@4HA DD imagerel ?dtor$18@?0??init@CPerfMonitor@@QEAAHV?$basic_string@DU?$char_traits@D@std@@V?$allocator@D@2@@std@@PEBDHHHV?$unique_ptr@XUhandle_deleter@@@3@V?$shared_ptr@VRGYLog@@@3@PEAUCPerfMonitorPrm@@@Z@4HA
	DD	imagerel ?dtor$18@?0??init@CPerfMonitor@@QEAAHV?$basic_string@DU?$char_traits@D@std@@V?$allocator@D@2@@std@@PEBDHHHV?$unique_ptr@XUhandle_deleter@@@3@V?$shared_ptr@VRGYLog@@@3@PEAUCPerfMonitorPrm@@@Z@4HA+38
	DD	imagerel $unwind$?dtor$18@?0??init@CPerfMonitor@@QEAAHV?$basic_string@DU?$char_traits@D@std@@V?$allocator@D@2@@std@@PEBDHHHV?$unique_ptr@XUhandle_deleter@@@3@V?$shared_ptr@VRGYLog@@@3@PEAUCPerfMonitorPrm@@@Z@4HA
$pdata$?dtor$19@?0??init@CPerfMonitor@@QEAAHV?$basic_string@DU?$char_traits@D@std@@V?$allocator@D@2@@std@@PEBDHHHV?$unique_ptr@XUhandle_deleter@@@3@V?$shared_ptr@VRGYLog@@@3@PEAUCPerfMonitorPrm@@@Z@4HA DD imagerel ?dtor$19@?0??init@CPerfMonitor@@QEAAHV?$basic_string@DU?$char_traits@D@std@@V?$allocator@D@2@@std@@PEBDHHHV?$unique_ptr@XUhandle_deleter@@@3@V?$shared_ptr@VRGYLog@@@3@PEAUCPerfMonitorPrm@@@Z@4HA
	DD	imagerel ?dtor$19@?0??init@CPerfMonitor@@QEAAHV?$basic_string@DU?$char_traits@D@std@@V?$allocator@D@2@@std@@PEBDHHHV?$unique_ptr@XUhandle_deleter@@@3@V?$shared_ptr@VRGYLog@@@3@PEAUCPerfMonitorPrm@@@Z@4HA+38
	DD	imagerel $unwind$?dtor$19@?0??init@CPerfMonitor@@QEAAHV?$basic_string@DU?$char_traits@D@std@@V?$allocator@D@2@@std@@PEBDHHHV?$unique_ptr@XUhandle_deleter@@@3@V?$shared_ptr@VRGYLog@@@3@PEAUCPerfMonitorPrm@@@Z@4HA
$pdata$?dtor$20@?0??init@CPerfMonitor@@QEAAHV?$basic_string@DU?$char_traits@D@std@@V?$allocator@D@2@@std@@PEBDHHHV?$unique_ptr@XUhandle_deleter@@@3@V?$shared_ptr@VRGYLog@@@3@PEAUCPerfMonitorPrm@@@Z@4HA DD imagerel ?dtor$20@?0??init@CPerfMonitor@@QEAAHV?$basic_string@DU?$char_traits@D@std@@V?$allocator@D@2@@std@@PEBDHHHV?$unique_ptr@XUhandle_deleter@@@3@V?$shared_ptr@VRGYLog@@@3@PEAUCPerfMonitorPrm@@@Z@4HA
	DD	imagerel ?dtor$20@?0??init@CPerfMonitor@@QEAAHV?$basic_string@DU?$char_traits@D@std@@V?$allocator@D@2@@std@@PEBDHHHV?$unique_ptr@XUhandle_deleter@@@3@V?$shared_ptr@VRGYLog@@@3@PEAUCPerfMonitorPrm@@@Z@4HA+38
	DD	imagerel $unwind$?dtor$20@?0??init@CPerfMonitor@@QEAAHV?$basic_string@DU?$char_traits@D@std@@V?$allocator@D@2@@std@@PEBDHHHV?$unique_ptr@XUhandle_deleter@@@3@V?$shared_ptr@VRGYLog@@@3@PEAUCPerfMonitorPrm@@@Z@4HA
pdata	ENDS
pdata	SEGMENT
$pdata$??1CPerfMonitor@@QEAA@XZ DD imagerel $LN11
	DD	imagerel $LN11+205
	DD	imagerel $unwind$??1CPerfMonitor@@QEAA@XZ
pdata	ENDS
pdata	SEGMENT
$pdata$?dtor$0@?0???1CPerfMonitor@@QEAA@XZ@4HA DD imagerel ?dtor$0@?0???1CPerfMonitor@@QEAA@XZ@4HA
	DD	imagerel ?dtor$0@?0???1CPerfMonitor@@QEAA@XZ@4HA+39
	DD	imagerel $unwind$?dtor$0@?0???1CPerfMonitor@@QEAA@XZ@4HA
$pdata$?dtor$1@?0???1CPerfMonitor@@QEAA@XZ@4HA DD imagerel ?dtor$1@?0???1CPerfMonitor@@QEAA@XZ@4HA
	DD	imagerel ?dtor$1@?0???1CPerfMonitor@@QEAA@XZ@4HA+42
	DD	imagerel $unwind$?dtor$1@?0???1CPerfMonitor@@QEAA@XZ@4HA
$pdata$?dtor$2@?0???1CPerfMonitor@@QEAA@XZ@4HA DD imagerel ?dtor$2@?0???1CPerfMonitor@@QEAA@XZ@4HA
	DD	imagerel ?dtor$2@?0???1CPerfMonitor@@QEAA@XZ@4HA+42
	DD	imagerel $unwind$?dtor$2@?0???1CPerfMonitor@@QEAA@XZ@4HA
$pdata$?dtor$3@?0???1CPerfMonitor@@QEAA@XZ@4HA DD imagerel ?dtor$3@?0???1CPerfMonitor@@QEAA@XZ@4HA
	DD	imagerel ?dtor$3@?0???1CPerfMonitor@@QEAA@XZ@4HA+42
	DD	imagerel $unwind$?dtor$3@?0???1CPerfMonitor@@QEAA@XZ@4HA
$pdata$?dtor$4@?0???1CPerfMonitor@@QEAA@XZ@4HA DD imagerel ?dtor$4@?0???1CPerfMonitor@@QEAA@XZ@4HA
	DD	imagerel ?dtor$4@?0???1CPerfMonitor@@QEAA@XZ@4HA+42
	DD	imagerel $unwind$?dtor$4@?0???1CPerfMonitor@@QEAA@XZ@4HA
$pdata$?dtor$5@?0???1CPerfMonitor@@QEAA@XZ@4HA DD imagerel ?dtor$5@?0???1CPerfMonitor@@QEAA@XZ@4HA
	DD	imagerel ?dtor$5@?0???1CPerfMonitor@@QEAA@XZ@4HA+42
	DD	imagerel $unwind$?dtor$5@?0???1CPerfMonitor@@QEAA@XZ@4HA
$pdata$?dtor$6@?0???1CPerfMonitor@@QEAA@XZ@4HA DD imagerel ?dtor$6@?0???1CPerfMonitor@@QEAA@XZ@4HA
	DD	imagerel ?dtor$6@?0???1CPerfMonitor@@QEAA@XZ@4HA+42
	DD	imagerel $unwind$?dtor$6@?0???1CPerfMonitor@@QEAA@XZ@4HA
$pdata$?dtor$7@?0???1CPerfMonitor@@QEAA@XZ@4HA DD imagerel ?dtor$7@?0???1CPerfMonitor@@QEAA@XZ@4HA
	DD	imagerel ?dtor$7@?0???1CPerfMonitor@@QEAA@XZ@4HA+42
	DD	imagerel $unwind$?dtor$7@?0???1CPerfMonitor@@QEAA@XZ@4HA
pdata	ENDS
pdata	SEGMENT
$pdata$?SetEncStatus@CPerfMonitor@@QEAAXV?$shared_ptr@VEncodeStatus@@@std@@@Z DD imagerel $LN4
	DD	imagerel $LN4+215
	DD	imagerel $unwind$?SetEncStatus@CPerfMonitor@@QEAAXV?$shared_ptr@VEncodeStatus@@@std@@@Z
pdata	ENDS
pdata	SEGMENT
$pdata$?dtor$0@?0??SetEncStatus@CPerfMonitor@@QEAAXV?$shared_ptr@VEncodeStatus@@@std@@@Z@4HA DD imagerel ?dtor$0@?0??SetEncStatus@CPerfMonitor@@QEAAXV?$shared_ptr@VEncodeStatus@@@std@@@Z@4HA
	DD	imagerel ?dtor$0@?0??SetEncStatus@CPerfMonitor@@QEAAXV?$shared_ptr@VEncodeStatus@@@std@@@Z@4HA+38
	DD	imagerel $unwind$?dtor$0@?0??SetEncStatus@CPerfMonitor@@QEAAXV?$shared_ptr@VEncodeStatus@@@std@@@Z@4HA
pdata	ENDS
pdata	SEGMENT
$pdata$?SetThreadHandles@CPerfMonitor@@QEAAXPEAX0000@Z DD imagerel $LN3
	DD	imagerel $LN3+108
	DD	imagerel $unwind$?SetThreadHandles@CPerfMonitor@@QEAAXPEAX0000@Z
$pdata$?clear@CPerfMonitor@@QEAAXXZ DD imagerel $LN6
	DD	imagerel $LN6+419
	DD	imagerel $unwind$?clear@CPerfMonitor@@QEAAXXZ
$pdata$?createPerfMpnitorPyw@CPerfMonitor@@IEAAHPEBD@Z DD imagerel $LN11
	DD	imagerel $LN11+390
	DD	imagerel $unwind$?createPerfMpnitorPyw@CPerfMonitor@@IEAAHPEBD@Z
$pdata$?check@CPerfMonitor@@IEAAXXZ DD imagerel $LN29
	DD	imagerel $LN29+3576
	DD	imagerel $unwind$?check@CPerfMonitor@@IEAAXXZ
$pdata$?run@CPerfMonitor@@IEAAXXZ DD imagerel $LN8
	DD	imagerel $LN8+480
	DD	imagerel $unwind$?run@CPerfMonitor@@IEAAXXZ
$pdata$?write_header@CPerfMonitor@@IEAAXPEAU_iobuf@@H@Z DD imagerel $LN35
	DD	imagerel $LN35+1169
	DD	imagerel $unwind$?write_header@CPerfMonitor@@IEAAXPEAU_iobuf@@H@Z
pdata	ENDS
pdata	SEGMENT
$pdata$?dtor$0@?0??write_header@CPerfMonitor@@IEAAXPEAU_iobuf@@H@Z@4HA DD imagerel ?dtor$0@?0??write_header@CPerfMonitor@@IEAAXPEAU_iobuf@@H@Z@4HA
	DD	imagerel ?dtor$0@?0??write_header@CPerfMonitor@@IEAAXPEAU_iobuf@@H@Z@4HA+35
	DD	imagerel $unwind$?dtor$0@?0??write_header@CPerfMonitor@@IEAAXPEAU_iobuf@@H@Z@4HA
pdata	ENDS
pdata	SEGMENT
$pdata$?write@CPerfMonitor@@IEAAXPEAU_iobuf@@H@Z DD imagerel $LN66
	DD	imagerel $LN66+3698
	DD	imagerel $unwind$?write@CPerfMonitor@@IEAAXPEAU_iobuf@@H@Z
pdata	ENDS
pdata	SEGMENT
$pdata$?dtor$0@?0??write@CPerfMonitor@@IEAAXPEAU_iobuf@@H@Z@4HA DD imagerel ?dtor$0@?0??write@CPerfMonitor@@IEAAXPEAU_iobuf@@H@Z@4HA
	DD	imagerel ?dtor$0@?0??write@CPerfMonitor@@IEAAXPEAU_iobuf@@H@Z@4HA+35
	DD	imagerel $unwind$?dtor$0@?0??write@CPerfMonitor@@IEAAXPEAU_iobuf@@H@Z@4HA
$pdata$?dtor$1@?0??write@CPerfMonitor@@IEAAXPEAU_iobuf@@H@Z@4HA DD imagerel ?dtor$1@?0??write@CPerfMonitor@@IEAAXPEAU_iobuf@@H@Z@4HA
	DD	imagerel ?dtor$1@?0??write@CPerfMonitor@@IEAAXPEAU_iobuf@@H@Z@4HA+35
	DD	imagerel $unwind$?dtor$1@?0??write@CPerfMonitor@@IEAAXPEAU_iobuf@@H@Z@4HA
$pdata$?dtor$2@?0??write@CPerfMonitor@@IEAAXPEAU_iobuf@@H@Z@4HA DD imagerel ?dtor$2@?0??write@CPerfMonitor@@IEAAXPEAU_iobuf@@H@Z@4HA
	DD	imagerel ?dtor$2@?0??write@CPerfMonitor@@IEAAXPEAU_iobuf@@H@Z@4HA+38
	DD	imagerel $unwind$?dtor$2@?0??write@CPerfMonitor@@IEAAXPEAU_iobuf@@H@Z@4HA
$pdata$?dtor$3@?0??write@CPerfMonitor@@IEAAXPEAU_iobuf@@H@Z@4HA DD imagerel ?dtor$3@?0??write@CPerfMonitor@@IEAAXPEAU_iobuf@@H@Z@4HA
	DD	imagerel ?dtor$3@?0??write@CPerfMonitor@@IEAAXPEAU_iobuf@@H@Z@4HA+38
	DD	imagerel $unwind$?dtor$3@?0??write@CPerfMonitor@@IEAAXPEAU_iobuf@@H@Z@4HA
$pdata$?dtor$4@?0??write@CPerfMonitor@@IEAAXPEAU_iobuf@@H@Z@4HA DD imagerel ?dtor$4@?0??write@CPerfMonitor@@IEAAXPEAU_iobuf@@H@Z@4HA
	DD	imagerel ?dtor$4@?0??write@CPerfMonitor@@IEAAXPEAU_iobuf@@H@Z@4HA+38
	DD	imagerel $unwind$?dtor$4@?0??write@CPerfMonitor@@IEAAXPEAU_iobuf@@H@Z@4HA
$pdata$?dtor$5@?0??write@CPerfMonitor@@IEAAXPEAU_iobuf@@H@Z@4HA DD imagerel ?dtor$5@?0??write@CPerfMonitor@@IEAAXPEAU_iobuf@@H@Z@4HA
	DD	imagerel ?dtor$5@?0??write@CPerfMonitor@@IEAAXPEAU_iobuf@@H@Z@4HA+38
	DD	imagerel $unwind$?dtor$5@?0??write@CPerfMonitor@@IEAAXPEAU_iobuf@@H@Z@4HA
$pdata$?dtor$6@?0??write@CPerfMonitor@@IEAAXPEAU_iobuf@@H@Z@4HA DD imagerel ?dtor$6@?0??write@CPerfMonitor@@IEAAXPEAU_iobuf@@H@Z@4HA
	DD	imagerel ?dtor$6@?0??write@CPerfMonitor@@IEAAXPEAU_iobuf@@H@Z@4HA+38
	DD	imagerel $unwind$?dtor$6@?0??write@CPerfMonitor@@IEAAXPEAU_iobuf@@H@Z@4HA
$pdata$?dtor$7@?0??write@CPerfMonitor@@IEAAXPEAU_iobuf@@H@Z@4HA DD imagerel ?dtor$7@?0??write@CPerfMonitor@@IEAAXPEAU_iobuf@@H@Z@4HA
	DD	imagerel ?dtor$7@?0??write@CPerfMonitor@@IEAAXPEAU_iobuf@@H@Z@4HA+38
	DD	imagerel $unwind$?dtor$7@?0??write@CPerfMonitor@@IEAAXPEAU_iobuf@@H@Z@4HA
$pdata$?dtor$8@?0??write@CPerfMonitor@@IEAAXPEAU_iobuf@@H@Z@4HA DD imagerel ?dtor$8@?0??write@CPerfMonitor@@IEAAXPEAU_iobuf@@H@Z@4HA
	DD	imagerel ?dtor$8@?0??write@CPerfMonitor@@IEAAXPEAU_iobuf@@H@Z@4HA+38
	DD	imagerel $unwind$?dtor$8@?0??write@CPerfMonitor@@IEAAXPEAU_iobuf@@H@Z@4HA
$pdata$?dtor$9@?0??write@CPerfMonitor@@IEAAXPEAU_iobuf@@H@Z@4HA DD imagerel ?dtor$9@?0??write@CPerfMonitor@@IEAAXPEAU_iobuf@@H@Z@4HA
	DD	imagerel ?dtor$9@?0??write@CPerfMonitor@@IEAAXPEAU_iobuf@@H@Z@4HA+38
	DD	imagerel $unwind$?dtor$9@?0??write@CPerfMonitor@@IEAAXPEAU_iobuf@@H@Z@4HA
$pdata$?dtor$10@?0??write@CPerfMonitor@@IEAAXPEAU_iobuf@@H@Z@4HA DD imagerel ?dtor$10@?0??write@CPerfMonitor@@IEAAXPEAU_iobuf@@H@Z@4HA
	DD	imagerel ?dtor$10@?0??write@CPerfMonitor@@IEAAXPEAU_iobuf@@H@Z@4HA+38
	DD	imagerel $unwind$?dtor$10@?0??write@CPerfMonitor@@IEAAXPEAU_iobuf@@H@Z@4HA
$pdata$?dtor$11@?0??write@CPerfMonitor@@IEAAXPEAU_iobuf@@H@Z@4HA DD imagerel ?dtor$11@?0??write@CPerfMonitor@@IEAAXPEAU_iobuf@@H@Z@4HA
	DD	imagerel ?dtor$11@?0??write@CPerfMonitor@@IEAAXPEAU_iobuf@@H@Z@4HA+38
	DD	imagerel $unwind$?dtor$11@?0??write@CPerfMonitor@@IEAAXPEAU_iobuf@@H@Z@4HA
$pdata$?dtor$12@?0??write@CPerfMonitor@@IEAAXPEAU_iobuf@@H@Z@4HA DD imagerel ?dtor$12@?0??write@CPerfMonitor@@IEAAXPEAU_iobuf@@H@Z@4HA
	DD	imagerel ?dtor$12@?0??write@CPerfMonitor@@IEAAXPEAU_iobuf@@H@Z@4HA+38
	DD	imagerel $unwind$?dtor$12@?0??write@CPerfMonitor@@IEAAXPEAU_iobuf@@H@Z@4HA
$pdata$?dtor$13@?0??write@CPerfMonitor@@IEAAXPEAU_iobuf@@H@Z@4HA DD imagerel ?dtor$13@?0??write@CPerfMonitor@@IEAAXPEAU_iobuf@@H@Z@4HA
	DD	imagerel ?dtor$13@?0??write@CPerfMonitor@@IEAAXPEAU_iobuf@@H@Z@4HA+38
	DD	imagerel $unwind$?dtor$13@?0??write@CPerfMonitor@@IEAAXPEAU_iobuf@@H@Z@4HA
$pdata$?dtor$14@?0??write@CPerfMonitor@@IEAAXPEAU_iobuf@@H@Z@4HA DD imagerel ?dtor$14@?0??write@CPerfMonitor@@IEAAXPEAU_iobuf@@H@Z@4HA
	DD	imagerel ?dtor$14@?0??write@CPerfMonitor@@IEAAXPEAU_iobuf@@H@Z@4HA+38
	DD	imagerel $unwind$?dtor$14@?0??write@CPerfMonitor@@IEAAXPEAU_iobuf@@H@Z@4HA
$pdata$?dtor$15@?0??write@CPerfMonitor@@IEAAXPEAU_iobuf@@H@Z@4HA DD imagerel ?dtor$15@?0??write@CPerfMonitor@@IEAAXPEAU_iobuf@@H@Z@4HA
	DD	imagerel ?dtor$15@?0??write@CPerfMonitor@@IEAAXPEAU_iobuf@@H@Z@4HA+38
	DD	imagerel $unwind$?dtor$15@?0??write@CPerfMonitor@@IEAAXPEAU_iobuf@@H@Z@4HA
$pdata$?dtor$16@?0??write@CPerfMonitor@@IEAAXPEAU_iobuf@@H@Z@4HA DD imagerel ?dtor$16@?0??write@CPerfMonitor@@IEAAXPEAU_iobuf@@H@Z@4HA
	DD	imagerel ?dtor$16@?0??write@CPerfMonitor@@IEAAXPEAU_iobuf@@H@Z@4HA+38
	DD	imagerel $unwind$?dtor$16@?0??write@CPerfMonitor@@IEAAXPEAU_iobuf@@H@Z@4HA
$pdata$?dtor$17@?0??write@CPerfMonitor@@IEAAXPEAU_iobuf@@H@Z@4HA DD imagerel ?dtor$17@?0??write@CPerfMonitor@@IEAAXPEAU_iobuf@@H@Z@4HA
	DD	imagerel ?dtor$17@?0??write@CPerfMonitor@@IEAAXPEAU_iobuf@@H@Z@4HA+38
	DD	imagerel $unwind$?dtor$17@?0??write@CPerfMonitor@@IEAAXPEAU_iobuf@@H@Z@4HA
$pdata$?dtor$18@?0??write@CPerfMonitor@@IEAAXPEAU_iobuf@@H@Z@4HA DD imagerel ?dtor$18@?0??write@CPerfMonitor@@IEAAXPEAU_iobuf@@H@Z@4HA
	DD	imagerel ?dtor$18@?0??write@CPerfMonitor@@IEAAXPEAU_iobuf@@H@Z@4HA+38
	DD	imagerel $unwind$?dtor$18@?0??write@CPerfMonitor@@IEAAXPEAU_iobuf@@H@Z@4HA
$pdata$?dtor$19@?0??write@CPerfMonitor@@IEAAXPEAU_iobuf@@H@Z@4HA DD imagerel ?dtor$19@?0??write@CPerfMonitor@@IEAAXPEAU_iobuf@@H@Z@4HA
	DD	imagerel ?dtor$19@?0??write@CPerfMonitor@@IEAAXPEAU_iobuf@@H@Z@4HA+38
	DD	imagerel $unwind$?dtor$19@?0??write@CPerfMonitor@@IEAAXPEAU_iobuf@@H@Z@4HA
$pdata$?dtor$20@?0??write@CPerfMonitor@@IEAAXPEAU_iobuf@@H@Z@4HA DD imagerel ?dtor$20@?0??write@CPerfMonitor@@IEAAXPEAU_iobuf@@H@Z@4HA
	DD	imagerel ?dtor$20@?0??write@CPerfMonitor@@IEAAXPEAU_iobuf@@H@Z@4HA+38
	DD	imagerel $unwind$?dtor$20@?0??write@CPerfMonitor@@IEAAXPEAU_iobuf@@H@Z@4HA
$pdata$?dtor$21@?0??write@CPerfMonitor@@IEAAXPEAU_iobuf@@H@Z@4HA DD imagerel ?dtor$21@?0??write@CPerfMonitor@@IEAAXPEAU_iobuf@@H@Z@4HA
	DD	imagerel ?dtor$21@?0??write@CPerfMonitor@@IEAAXPEAU_iobuf@@H@Z@4HA+38
	DD	imagerel $unwind$?dtor$21@?0??write@CPerfMonitor@@IEAAXPEAU_iobuf@@H@Z@4HA
$pdata$?dtor$22@?0??write@CPerfMonitor@@IEAAXPEAU_iobuf@@H@Z@4HA DD imagerel ?dtor$22@?0??write@CPerfMonitor@@IEAAXPEAU_iobuf@@H@Z@4HA
	DD	imagerel ?dtor$22@?0??write@CPerfMonitor@@IEAAXPEAU_iobuf@@H@Z@4HA+38
	DD	imagerel $unwind$?dtor$22@?0??write@CPerfMonitor@@IEAAXPEAU_iobuf@@H@Z@4HA
$pdata$?dtor$23@?0??write@CPerfMonitor@@IEAAXPEAU_iobuf@@H@Z@4HA DD imagerel ?dtor$23@?0??write@CPerfMonitor@@IEAAXPEAU_iobuf@@H@Z@4HA
	DD	imagerel ?dtor$23@?0??write@CPerfMonitor@@IEAAXPEAU_iobuf@@H@Z@4HA+38
	DD	imagerel $unwind$?dtor$23@?0??write@CPerfMonitor@@IEAAXPEAU_iobuf@@H@Z@4HA
$pdata$?dtor$24@?0??write@CPerfMonitor@@IEAAXPEAU_iobuf@@H@Z@4HA DD imagerel ?dtor$24@?0??write@CPerfMonitor@@IEAAXPEAU_iobuf@@H@Z@4HA
	DD	imagerel ?dtor$24@?0??write@CPerfMonitor@@IEAAXPEAU_iobuf@@H@Z@4HA+38
	DD	imagerel $unwind$?dtor$24@?0??write@CPerfMonitor@@IEAAXPEAU_iobuf@@H@Z@4HA
$pdata$?dtor$25@?0??write@CPerfMonitor@@IEAAXPEAU_iobuf@@H@Z@4HA DD imagerel ?dtor$25@?0??write@CPerfMonitor@@IEAAXPEAU_iobuf@@H@Z@4HA
	DD	imagerel ?dtor$25@?0??write@CPerfMonitor@@IEAAXPEAU_iobuf@@H@Z@4HA+38
	DD	imagerel $unwind$?dtor$25@?0??write@CPerfMonitor@@IEAAXPEAU_iobuf@@H@Z@4HA
$pdata$?dtor$26@?0??write@CPerfMonitor@@IEAAXPEAU_iobuf@@H@Z@4HA DD imagerel ?dtor$26@?0??write@CPerfMonitor@@IEAAXPEAU_iobuf@@H@Z@4HA
	DD	imagerel ?dtor$26@?0??write@CPerfMonitor@@IEAAXPEAU_iobuf@@H@Z@4HA+38
	DD	imagerel $unwind$?dtor$26@?0??write@CPerfMonitor@@IEAAXPEAU_iobuf@@H@Z@4HA
$pdata$?dtor$27@?0??write@CPerfMonitor@@IEAAXPEAU_iobuf@@H@Z@4HA DD imagerel ?dtor$27@?0??write@CPerfMonitor@@IEAAXPEAU_iobuf@@H@Z@4HA
	DD	imagerel ?dtor$27@?0??write@CPerfMonitor@@IEAAXPEAU_iobuf@@H@Z@4HA+38
	DD	imagerel $unwind$?dtor$27@?0??write@CPerfMonitor@@IEAAXPEAU_iobuf@@H@Z@4HA
$pdata$?dtor$28@?0??write@CPerfMonitor@@IEAAXPEAU_iobuf@@H@Z@4HA DD imagerel ?dtor$28@?0??write@CPerfMonitor@@IEAAXPEAU_iobuf@@H@Z@4HA
	DD	imagerel ?dtor$28@?0??write@CPerfMonitor@@IEAAXPEAU_iobuf@@H@Z@4HA+38
	DD	imagerel $unwind$?dtor$28@?0??write@CPerfMonitor@@IEAAXPEAU_iobuf@@H@Z@4HA
$pdata$?dtor$29@?0??write@CPerfMonitor@@IEAAXPEAU_iobuf@@H@Z@4HA DD imagerel ?dtor$29@?0??write@CPerfMonitor@@IEAAXPEAU_iobuf@@H@Z@4HA
	DD	imagerel ?dtor$29@?0??write@CPerfMonitor@@IEAAXPEAU_iobuf@@H@Z@4HA+38
	DD	imagerel $unwind$?dtor$29@?0??write@CPerfMonitor@@IEAAXPEAU_iobuf@@H@Z@4HA
$pdata$?dtor$30@?0??write@CPerfMonitor@@IEAAXPEAU_iobuf@@H@Z@4HA DD imagerel ?dtor$30@?0??write@CPerfMonitor@@IEAAXPEAU_iobuf@@H@Z@4HA
	DD	imagerel ?dtor$30@?0??write@CPerfMonitor@@IEAAXPEAU_iobuf@@H@Z@4HA+38
	DD	imagerel $unwind$?dtor$30@?0??write@CPerfMonitor@@IEAAXPEAU_iobuf@@H@Z@4HA
$pdata$?dtor$31@?0??write@CPerfMonitor@@IEAAXPEAU_iobuf@@H@Z@4HA DD imagerel ?dtor$31@?0??write@CPerfMonitor@@IEAAXPEAU_iobuf@@H@Z@4HA
	DD	imagerel ?dtor$31@?0??write@CPerfMonitor@@IEAAXPEAU_iobuf@@H@Z@4HA+38
	DD	imagerel $unwind$?dtor$31@?0??write@CPerfMonitor@@IEAAXPEAU_iobuf@@H@Z@4HA
pdata	ENDS
pdata	SEGMENT
$pdata$?loader@CPerfMonitor@@KAXPEAX@Z DD imagerel $LN3
	DD	imagerel $LN3+46
	DD	imagerel $unwind$?loader@CPerfMonitor@@KAXPEAX@Z
$pdata$?SelectedCounters@CPerfMonitor@@IEAA?AV?$basic_string@DU?$char_traits@D@std@@V?$allocator@D@2@@std@@H@Z DD imagerel $LN12
	DD	imagerel $LN12+436
	DD	imagerel $unwind$?SelectedCounters@CPerfMonitor@@IEAA?AV?$basic_string@DU?$char_traits@D@std@@V?$allocator@D@2@@std@@H@Z
pdata	ENDS
pdata	SEGMENT
$pdata$?dtor$0@?0??SelectedCounters@CPerfMonitor@@IEAA?AV?$basic_string@DU?$char_traits@D@std@@V?$allocator@D@2@@std@@H@Z@4HA DD imagerel ?dtor$0@?0??SelectedCounters@CPerfMonitor@@IEAA?AV?$basic_string@DU?$char_traits@D@std@@V?$allocator@D@2@@std@@H@Z@4HA
	DD	imagerel ?dtor$0@?0??SelectedCounters@CPerfMonitor@@IEAA?AV?$basic_string@DU?$char_traits@D@std@@V?$allocator@D@2@@std@@H@Z@4HA+52
	DD	imagerel $unwind$?dtor$0@?0??SelectedCounters@CPerfMonitor@@IEAA?AV?$basic_string@DU?$char_traits@D@std@@V?$allocator@D@2@@std@@H@Z@4HA
$pdata$?dtor$1@?0??SelectedCounters@CPerfMonitor@@IEAA?AV?$basic_string@DU?$char_traits@D@std@@V?$allocator@D@2@@std@@H@Z@4HA DD imagerel ?dtor$1@?0??SelectedCounters@CPerfMonitor@@IEAA?AV?$basic_string@DU?$char_traits@D@std@@V?$allocator@D@2@@std@@H@Z@4HA
	DD	imagerel ?dtor$1@?0??SelectedCounters@CPerfMonitor@@IEAA?AV?$basic_string@DU?$char_traits@D@std@@V?$allocator@D@2@@std@@H@Z@4HA+35
	DD	imagerel $unwind$?dtor$1@?0??SelectedCounters@CPerfMonitor@@IEAA?AV?$basic_string@DU?$char_traits@D@std@@V?$allocator@D@2@@std@@H@Z@4HA
pdata	ENDS
;	COMDAT pdata
pdata	SEGMENT
$pdata$??4?$unique_ptr@XUhandle_deleter@@@std@@QEAAAEAV01@$$QEAV01@@Z DD imagerel $LN4
	DD	imagerel $LN4+120
	DD	imagerel $unwind$??4?$unique_ptr@XUhandle_deleter@@@std@@QEAAAEAV01@$$QEAV01@@Z
pdata	ENDS
;	COMDAT pdata
pdata	SEGMENT
$pdata$??1?$unique_ptr@XUhandle_deleter@@@std@@QEAA@XZ DD imagerel $LN4
	DD	imagerel $LN4+78
	DD	imagerel $unwind$??1?$unique_ptr@XUhandle_deleter@@@std@@QEAA@XZ
pdata	ENDS
;	COMDAT pdata
pdata	SEGMENT
$pdata$?get@?$unique_ptr@XUhandle_deleter@@@std@@QEBAPEAXXZ DD imagerel $LN3
	DD	imagerel $LN3+16
	DD	imagerel $unwind$?get@?$unique_ptr@XUhandle_deleter@@@std@@QEBAPEAXXZ
pdata	ENDS
;	COMDAT pdata
pdata	SEGMENT
$pdata$??B?$unique_ptr@XUhandle_deleter@@@std@@QEBA_NXZ DD imagerel $LN5
	DD	imagerel $LN5+61
	DD	imagerel $unwind$??B?$unique_ptr@XUhandle_deleter@@@std@@QEBA_NXZ
pdata	ENDS
;	COMDAT pdata
pdata	SEGMENT
$pdata$?release@?$unique_ptr@XUhandle_deleter@@@std@@QEAAPEAXXZ DD imagerel $LN3
	DD	imagerel $LN3+64
	DD	imagerel $unwind$?release@?$unique_ptr@XUhandle_deleter@@@std@@QEAAPEAXXZ
pdata	ENDS
;	COMDAT pdata
pdata	SEGMENT
$pdata$?reset@?$unique_ptr@XUhandle_deleter@@@std@@QEAAXPEAX@Z DD imagerel $LN4
	DD	imagerel $LN4+101
	DD	imagerel $unwind$?reset@?$unique_ptr@XUhandle_deleter@@@std@@QEAAXPEAX@Z
pdata	ENDS
;	COMDAT pdata
pdata	SEGMENT
$pdata$?_Get_first@?$_Compressed_pair@Uhandle_deleter@@PEAX$00@std@@QEAAAEAUhandle_deleter@@XZ DD imagerel $LN3
	DD	imagerel $LN3+13
	DD	imagerel $unwind$?_Get_first@?$_Compressed_pair@Uhandle_deleter@@PEAX$00@std@@QEAAAEAUhandle_deleter@@XZ
pdata	ENDS
;	COMDAT pdata
pdata	SEGMENT
$pdata$??R?$default_delete@VRGYPipeProcess@@@std@@QEBAXPEAVRGYPipeProcess@@@Z DD imagerel $LN5
	DD	imagerel $LN5+95
	DD	imagerel $unwind$??R?$default_delete@VRGYPipeProcess@@@std@@QEBAXPEAVRGYPipeProcess@@@Z
pdata	ENDS
;	COMDAT pdata
pdata	SEGMENT
$pdata$??4?$unique_ptr@VRGYPipeProcess@@U?$default_delete@VRGYPipeProcess@@@std@@@std@@QEAAAEAV01@$$QEAV01@@Z DD imagerel $LN4
	DD	imagerel $LN4+120
	DD	imagerel $unwind$??4?$unique_ptr@VRGYPipeProcess@@U?$default_delete@VRGYPipeProcess@@@std@@@std@@QEAAAEAV01@$$QEAV01@@Z
pdata	ENDS
;	COMDAT pdata
pdata	SEGMENT
$pdata$??1?$unique_ptr@VRGYPipeProcess@@U?$default_delete@VRGYPipeProcess@@@std@@@std@@QEAA@XZ DD imagerel $LN4
	DD	imagerel $LN4+76
	DD	imagerel $unwind$??1?$unique_ptr@VRGYPipeProcess@@U?$default_delete@VRGYPipeProcess@@@std@@@std@@QEAA@XZ
pdata	ENDS
;	COMDAT pdata
pdata	SEGMENT
$pdata$??C?$unique_ptr@VRGYPipeProcess@@U?$default_delete@VRGYPipeProcess@@@std@@@std@@QEBAPEAVRGYPipeProcess@@XZ DD imagerel $LN3
	DD	imagerel $LN3+16
	DD	imagerel $unwind$??C?$unique_ptr@VRGYPipeProcess@@U?$default_delete@VRGYPipeProcess@@@std@@@std@@QEBAPEAVRGYPipeProcess@@XZ
pdata	ENDS
;	COMDAT pdata
pdata	SEGMENT
$pdata$?get@?$unique_ptr@VRGYPipeProcess@@U?$default_delete@VRGYPipeProcess@@@std@@@std@@QEBAPEAVRGYPipeProcess@@XZ DD imagerel $LN3
	DD	imagerel $LN3+16
	DD	imagerel $unwind$?get@?$unique_ptr@VRGYPipeProcess@@U?$default_delete@VRGYPipeProcess@@@std@@@std@@QEBAPEAVRGYPipeProcess@@XZ
pdata	ENDS
;	COMDAT pdata
pdata	SEGMENT
$pdata$??B?$unique_ptr@VRGYPipeProcess@@U?$default_delete@VRGYPipeProcess@@@std@@@std@@QEBA_NXZ DD imagerel $LN5
	DD	imagerel $LN5+61
	DD	imagerel $unwind$??B?$unique_ptr@VRGYPipeProcess@@U?$default_delete@VRGYPipeProcess@@@std@@@std@@QEBA_NXZ
pdata	ENDS
;	COMDAT pdata
pdata	SEGMENT
$pdata$?release@?$unique_ptr@VRGYPipeProcess@@U?$default_delete@VRGYPipeProcess@@@std@@@std@@QEAAPEAVRGYPipeProcess@@XZ DD imagerel $LN3
	DD	imagerel $LN3+64
	DD	imagerel $unwind$?release@?$unique_ptr@VRGYPipeProcess@@U?$default_delete@VRGYPipeProcess@@@std@@@std@@QEAAPEAVRGYPipeProcess@@XZ
pdata	ENDS
;	COMDAT pdata
pdata	SEGMENT
$pdata$?reset@?$unique_ptr@VRGYPipeProcess@@U?$default_delete@VRGYPipeProcess@@@std@@@std@@QEAAXPEAVRGYPipeProcess@@@Z DD imagerel $LN4
	DD	imagerel $LN4+101
	DD	imagerel $unwind$?reset@?$unique_ptr@VRGYPipeProcess@@U?$default_delete@VRGYPipeProcess@@@std@@@std@@QEAAXPEAVRGYPipeProcess@@@Z
pdata	ENDS
;	COMDAT pdata
pdata	SEGMENT
$pdata$?_Get_first@?$_Compressed_pair@U?$default_delete@VRGYPipeProcess@@@std@@PEAVRGYPipeProcess@@$00@std@@QEAAAEAU?$default_delete@VRGYPipeProcess@@@2@XZ DD imagerel $LN3
	DD	imagerel $LN3+13
	DD	imagerel $unwind$?_Get_first@?$_Compressed_pair@U?$default_delete@VRGYPipeProcess@@@std@@PEAVRGYPipeProcess@@$00@std@@QEAAAEAU?$default_delete@VRGYPipeProcess@@@2@XZ
pdata	ENDS
;	COMDAT pdata
pdata	SEGMENT
$pdata$?get@?$_Ptr_base@VEncodeStatus@@@std@@IEBAPEAVEncodeStatus@@XZ DD imagerel $LN3
	DD	imagerel $LN3+16
	DD	imagerel $unwind$?get@?$_Ptr_base@VEncodeStatus@@@std@@IEBAPEAVEncodeStatus@@XZ
pdata	ENDS
;	COMDAT pdata
pdata	SEGMENT
$pdata$??0?$_Ptr_base@VEncodeStatus@@@std@@IEAA@XZ DD imagerel $LN3
	DD	imagerel $LN3+38
	DD	imagerel $unwind$??0?$_Ptr_base@VEncodeStatus@@@std@@IEAA@XZ
pdata	ENDS
;	COMDAT pdata
pdata	SEGMENT
$pdata$?_Decref@?$_Ptr_base@VEncodeStatus@@@std@@IEAAXXZ DD imagerel $LN4
	DD	imagerel $LN4+62
	DD	imagerel $unwind$?_Decref@?$_Ptr_base@VEncodeStatus@@@std@@IEAAXXZ
pdata	ENDS
;	COMDAT pdata
pdata	SEGMENT
$pdata$?_Swap@?$_Ptr_base@VEncodeStatus@@@std@@IEAAXAEAV12@@Z DD imagerel $LN3
	DD	imagerel $LN3+85
	DD	imagerel $unwind$?_Swap@?$_Ptr_base@VEncodeStatus@@@std@@IEAAXAEAV12@@Z
pdata	ENDS
;	COMDAT pdata
pdata	SEGMENT
$pdata$??0?$shared_ptr@VEncodeStatus@@@std@@QEAA@XZ DD imagerel $LN3
	DD	imagerel $LN3+51
	DD	imagerel $unwind$??0?$shared_ptr@VEncodeStatus@@@std@@QEAA@XZ
pdata	ENDS
;	COMDAT pdata
pdata	SEGMENT
$pdata$??0?$shared_ptr@VEncodeStatus@@@std@@QEAA@AEBV01@@Z DD imagerel $LN3
	DD	imagerel $LN3+71
	DD	imagerel $unwind$??0?$shared_ptr@VEncodeStatus@@@std@@QEAA@AEBV01@@Z
pdata	ENDS
;	COMDAT pdata
pdata	SEGMENT
$pdata$??1?$shared_ptr@VEncodeStatus@@@std@@QEAA@XZ DD imagerel $LN3
	DD	imagerel $LN3+46
	DD	imagerel $unwind$??1?$shared_ptr@VEncodeStatus@@@std@@QEAA@XZ
pdata	ENDS
;	COMDAT pdata
pdata	SEGMENT
$pdata$??4?$shared_ptr@VEncodeStatus@@@std@@QEAAAEAV01@AEBV01@@Z DD imagerel $LN4
	DD	imagerel $LN4+104
	DD	imagerel $unwind$??4?$shared_ptr@VEncodeStatus@@@std@@QEAAAEAV01@AEBV01@@Z
pdata	ENDS
;	COMDAT pdata
pdata	SEGMENT
$pdata$?dtor$0@?0???4?$shared_ptr@VEncodeStatus@@@std@@QEAAAEAV01@AEBV01@@Z@4HA DD imagerel ?dtor$0@?0???4?$shared_ptr@VEncodeStatus@@@std@@QEAAAEAV01@AEBV01@@Z@4HA
	DD	imagerel ?dtor$0@?0???4?$shared_ptr@VEncodeStatus@@@std@@QEAAAEAV01@AEBV01@@Z@4HA+35
	DD	imagerel $unwind$?dtor$0@?0???4?$shared_ptr@VEncodeStatus@@@std@@QEAAAEAV01@AEBV01@@Z@4HA
pdata	ENDS
;	COMDAT pdata
pdata	SEGMENT
$pdata$?swap@?$shared_ptr@VEncodeStatus@@@std@@QEAAXAEAV12@@Z DD imagerel $LN3
	DD	imagerel $LN3+56
	DD	imagerel $unwind$?swap@?$shared_ptr@VEncodeStatus@@@std@@QEAAXAEAV12@@Z
pdata	ENDS
;	COMDAT pdata
pdata	SEGMENT
$pdata$??B?$shared_ptr@VEncodeStatus@@@std@@QEBA_NXZ DD imagerel $LN5
	DD	imagerel $LN5+74
	DD	imagerel $unwind$??B?$shared_ptr@VEncodeStatus@@@std@@QEBA_NXZ
pdata	ENDS
;	COMDAT pdata
pdata	SEGMENT
$pdata$??4?$unique_ptr@U_iobuf@@Ufp_deleter@@@std@@QEAAAEAV01@$$QEAV01@@Z DD imagerel $LN4
	DD	imagerel $LN4+120
	DD	imagerel $unwind$??4?$unique_ptr@U_iobuf@@Ufp_deleter@@@std@@QEAAAEAV01@$$QEAV01@@Z
pdata	ENDS
;	COMDAT pdata
pdata	SEGMENT
$pdata$??1?$unique_ptr@U_iobuf@@Ufp_deleter@@@std@@QEAA@XZ DD imagerel $LN4
	DD	imagerel $LN4+78
	DD	imagerel $unwind$??1?$unique_ptr@U_iobuf@@Ufp_deleter@@@std@@QEAA@XZ
pdata	ENDS
;	COMDAT pdata
pdata	SEGMENT
$pdata$?get@?$unique_ptr@U_iobuf@@Ufp_deleter@@@std@@QEBAPEAU_iobuf@@XZ DD imagerel $LN3
	DD	imagerel $LN3+16
	DD	imagerel $unwind$?get@?$unique_ptr@U_iobuf@@Ufp_deleter@@@std@@QEBAPEAU_iobuf@@XZ
pdata	ENDS
;	COMDAT pdata
pdata	SEGMENT
$pdata$??B?$unique_ptr@U_iobuf@@Ufp_deleter@@@std@@QEBA_NXZ DD imagerel $LN5
	DD	imagerel $LN5+61
	DD	imagerel $unwind$??B?$unique_ptr@U_iobuf@@Ufp_deleter@@@std@@QEBA_NXZ
pdata	ENDS
;	COMDAT pdata
pdata	SEGMENT
$pdata$?release@?$unique_ptr@U_iobuf@@Ufp_deleter@@@std@@QEAAPEAU_iobuf@@XZ DD imagerel $LN3
	DD	imagerel $LN3+64
	DD	imagerel $unwind$?release@?$unique_ptr@U_iobuf@@Ufp_deleter@@@std@@QEAAPEAU_iobuf@@XZ
pdata	ENDS
;	COMDAT pdata
pdata	SEGMENT
$pdata$?reset@?$unique_ptr@U_iobuf@@Ufp_deleter@@@std@@QEAAXPEAU_iobuf@@@Z DD imagerel $LN4
	DD	imagerel $LN4+101
	DD	imagerel $unwind$?reset@?$unique_ptr@U_iobuf@@Ufp_deleter@@@std@@QEAAXPEAU_iobuf@@@Z
pdata	ENDS
;	COMDAT pdata
pdata	SEGMENT
$pdata$?_Get_first@?$_Compressed_pair@Ufp_deleter@@PEAU_iobuf@@$00@std@@QEAAAEAUfp_deleter@@XZ DD imagerel $LN3
	DD	imagerel $LN3+13
	DD	imagerel $unwind$?_Get_first@?$_Compressed_pair@Ufp_deleter@@PEAU_iobuf@@$00@std@@QEAAAEAUfp_deleter@@XZ
pdata	ENDS
;	COMDAT pdata
pdata	SEGMENT
$pdata$?get@?$_Ptr_base@VRGYLog@@@std@@IEBAPEAVRGYLog@@XZ DD imagerel $LN3
	DD	imagerel $LN3+16
	DD	imagerel $unwind$?get@?$_Ptr_base@VRGYLog@@@std@@IEBAPEAVRGYLog@@XZ
pdata	ENDS
;	COMDAT pdata
pdata	SEGMENT
$pdata$??0?$_Ptr_base@VRGYLog@@@std@@IEAA@XZ DD imagerel $LN3
	DD	imagerel $LN3+38
	DD	imagerel $unwind$??0?$_Ptr_base@VRGYLog@@@std@@IEAA@XZ
pdata	ENDS
;	COMDAT pdata
pdata	SEGMENT
$pdata$?_Decref@?$_Ptr_base@VRGYLog@@@std@@IEAAXXZ DD imagerel $LN4
	DD	imagerel $LN4+62
	DD	imagerel $unwind$?_Decref@?$_Ptr_base@VRGYLog@@@std@@IEAAXXZ
pdata	ENDS
;	COMDAT pdata
pdata	SEGMENT
$pdata$?_Swap@?$_Ptr_base@VRGYLog@@@std@@IEAAXAEAV12@@Z DD imagerel $LN3
	DD	imagerel $LN3+85
	DD	imagerel $unwind$?_Swap@?$_Ptr_base@VRGYLog@@@std@@IEAAXAEAV12@@Z
pdata	ENDS
;	COMDAT pdata
pdata	SEGMENT
$pdata$??0?$shared_ptr@VRGYLog@@@std@@QEAA@XZ DD imagerel $LN3
	DD	imagerel $LN3+51
	DD	imagerel $unwind$??0?$shared_ptr@VRGYLog@@@std@@QEAA@XZ
pdata	ENDS
;	COMDAT pdata
pdata	SEGMENT
$pdata$??0?$shared_ptr@VRGYLog@@@std@@QEAA@AEBV01@@Z DD imagerel $LN3
	DD	imagerel $LN3+71
	DD	imagerel $unwind$??0?$shared_ptr@VRGYLog@@@std@@QEAA@AEBV01@@Z
pdata	ENDS
;	COMDAT pdata
pdata	SEGMENT
$pdata$??1?$shared_ptr@VRGYLog@@@std@@QEAA@XZ DD imagerel $LN3
	DD	imagerel $LN3+46
	DD	imagerel $unwind$??1?$shared_ptr@VRGYLog@@@std@@QEAA@XZ
pdata	ENDS
;	COMDAT pdata
pdata	SEGMENT
$pdata$??4?$shared_ptr@VRGYLog@@@std@@QEAAAEAV01@AEBV01@@Z DD imagerel $LN4
	DD	imagerel $LN4+104
	DD	imagerel $unwind$??4?$shared_ptr@VRGYLog@@@std@@QEAAAEAV01@AEBV01@@Z
pdata	ENDS
;	COMDAT pdata
pdata	SEGMENT
$pdata$?dtor$0@?0???4?$shared_ptr@VRGYLog@@@std@@QEAAAEAV01@AEBV01@@Z@4HA DD imagerel ?dtor$0@?0???4?$shared_ptr@VRGYLog@@@std@@QEAAAEAV01@AEBV01@@Z@4HA
	DD	imagerel ?dtor$0@?0???4?$shared_ptr@VRGYLog@@@std@@QEAAAEAV01@AEBV01@@Z@4HA+35
	DD	imagerel $unwind$?dtor$0@?0???4?$shared_ptr@VRGYLog@@@std@@QEAAAEAV01@AEBV01@@Z@4HA
pdata	ENDS
;	COMDAT pdata
pdata	SEGMENT
$pdata$?swap@?$shared_ptr@VRGYLog@@@std@@QEAAXAEAV12@@Z DD imagerel $LN3
	DD	imagerel $LN3+56
	DD	imagerel $unwind$?swap@?$shared_ptr@VRGYLog@@@std@@QEAAXAEAV12@@Z
pdata	ENDS
;	COMDAT pdata
pdata	SEGMENT
$pdata$?reset@?$shared_ptr@VRGYLog@@@std@@QEAAXXZ DD imagerel $LN4
	DD	imagerel $LN4+89
	DD	imagerel $unwind$?reset@?$shared_ptr@VRGYLog@@@std@@QEAAXXZ
pdata	ENDS
;	COMDAT pdata
pdata	SEGMENT
$pdata$?dtor$0@?0??reset@?$shared_ptr@VRGYLog@@@std@@QEAAXXZ@4HA DD imagerel ?dtor$0@?0??reset@?$shared_ptr@VRGYLog@@@std@@QEAAXXZ@4HA
	DD	imagerel ?dtor$0@?0??reset@?$shared_ptr@VRGYLog@@@std@@QEAAXXZ@4HA+35
	DD	imagerel $unwind$?dtor$0@?0??reset@?$shared_ptr@VRGYLog@@@std@@QEAAXXZ@4HA
pdata	ENDS
;	COMDAT pdata
pdata	SEGMENT
$pdata$?getStartTimeMicroSec@EncodeStatus@@QEAA_JXZ DD imagerel $LN3
	DD	imagerel $LN3+30
	DD	imagerel $unwind$?getStartTimeMicroSec@EncodeStatus@@QEAA_JXZ
pdata	ENDS
;	COMDAT pdata
pdata	SEGMENT
$pdata$?getEncStarted@EncodeStatus@@QEAA_NXZ DD imagerel $LN3
	DD	imagerel $LN3+20
	DD	imagerel $unwind$?getEncStarted@EncodeStatus@@QEAA_NXZ
pdata	ENDS
;	COMDAT pdata
pdata	SEGMENT
$pdata$?GetEncodeData@EncodeStatus@@QEAA?AUEncodeStatusData@@XZ DD imagerel $LN3
	DD	imagerel $LN3+41
	DD	imagerel $unwind$?GetEncodeData@EncodeStatus@@QEAA?AUEncodeStatusData@@XZ
pdata	ENDS
;	COMDAT pdata
pdata	SEGMENT
$pdata$??$?CVRGYLog@@$0A@@?$shared_ptr@VRGYLog@@@std@@QEBAPEAVRGYLog@@XZ DD imagerel $LN3
	DD	imagerel $LN3+46
	DD	imagerel $unwind$??$?CVRGYLog@@$0A@@?$shared_ptr@VRGYLog@@@std@@QEBAPEAVRGYLog@@XZ
pdata	ENDS
;	COMDAT pdata
pdata	SEGMENT
$pdata$??$?GUsteady_clock@chrono@std@@V?$duration@_JU?$ratio@$00$0DLJKMKAA@@std@@@12@V312@@chrono@std@@YA?AV?$duration@_JU?$ratio@$00$0DLJKMKAA@@std@@@01@AEBV?$time_point@Usteady_clock@chrono@std@@V?$duration@_JU?$ratio@$00$0DLJKMKAA@@std@@@23@@01@0@Z DD imagerel $LN3
	DD	imagerel $LN3+107
	DD	imagerel $unwind$??$?GUsteady_clock@chrono@std@@V?$duration@_JU?$ratio@$00$0DLJKMKAA@@std@@@12@V312@@chrono@std@@YA?AV?$duration@_JU?$ratio@$00$0DLJKMKAA@@std@@@01@AEBV?$time_point@Usteady_clock@chrono@std@@V?$duration@_JU?$ratio@$00$0DLJKMKAA@@std@@@23@@01@0@Z
pdata	ENDS
;	COMDAT pdata
pdata	SEGMENT
$pdata$??$?0HX@?$duration@_JU?$ratio@$00$0DOI@@std@@@chrono@std@@QEAA@AEBH@Z DD imagerel $LN3
	DD	imagerel $LN3+34
	DD	imagerel $unwind$??$?0HX@?$duration@_JU?$ratio@$00$0DOI@@std@@@chrono@std@@QEAA@AEBH@Z
pdata	ENDS
;	COMDAT pdata
pdata	SEGMENT
$pdata$??$?0Uhandle_deleter@@$0A@@?$unique_ptr@XUhandle_deleter@@@std@@QEAA@XZ DD imagerel $LN3
	DD	imagerel $LN3+60
	DD	imagerel $unwind$??$?0Uhandle_deleter@@$0A@@?$unique_ptr@XUhandle_deleter@@@std@@QEAA@XZ
pdata	ENDS
;	COMDAT pdata
pdata	SEGMENT
$pdata$??$?0U?$default_delete@VRGYPipeProcess@@@std@@$0A@@?$unique_ptr@VRGYPipeProcess@@U?$default_delete@VRGYPipeProcess@@@std@@@std@@QEAA@XZ DD imagerel $LN3
	DD	imagerel $LN3+60
	DD	imagerel $unwind$??$?0U?$default_delete@VRGYPipeProcess@@@std@@$0A@@?$unique_ptr@VRGYPipeProcess@@U?$default_delete@VRGYPipeProcess@@@std@@@std@@QEAA@XZ
pdata	ENDS
;	COMDAT pdata
pdata	SEGMENT
$pdata$??$?0Ufp_deleter@@$0A@@?$unique_ptr@U_iobuf@@Ufp_deleter@@@std@@QEAA@XZ DD imagerel $LN3
	DD	imagerel $LN3+60
	DD	imagerel $unwind$??$?0Ufp_deleter@@$0A@@?$unique_ptr@U_iobuf@@Ufp_deleter@@@std@@QEAA@XZ
pdata	ENDS
;	COMDAT pdata
pdata	SEGMENT
$pdata$??$move@AEAV?$unique_ptr@XUhandle_deleter@@@std@@@std@@YA$$QEAV?$unique_ptr@XUhandle_deleter@@@0@AEAV10@@Z DD imagerel $LN3
	DD	imagerel $LN3+13
	DD	imagerel $unwind$??$move@AEAV?$unique_ptr@XUhandle_deleter@@@std@@@std@@YA$$QEAV?$unique_ptr@XUhandle_deleter@@@0@AEAV10@@Z
pdata	ENDS
;	COMDAT pdata
pdata	SEGMENT
$pdata$??$?0Ufp_deleter@@$0A@@?$unique_ptr@U_iobuf@@Ufp_deleter@@@std@@QEAA@PEAU_iobuf@@@Z DD imagerel $LN3
	DD	imagerel $LN3+70
	DD	imagerel $unwind$??$?0Ufp_deleter@@$0A@@?$unique_ptr@U_iobuf@@Ufp_deleter@@@std@@QEAA@PEAU_iobuf@@@Z
pdata	ENDS
;	COMDAT pdata
pdata	SEGMENT
$pdata$??$?0U?$default_delete@VRGYPipeProcess@@@std@@$0A@@?$unique_ptr@VRGYPipeProcess@@U?$default_delete@VRGYPipeProcess@@@std@@@std@@QEAA@PEAVRGYPipeProcess@@@Z DD imagerel $LN3
	DD	imagerel $LN3+70
	DD	imagerel $unwind$??$?0U?$default_delete@VRGYPipeProcess@@@std@@$0A@@?$unique_ptr@VRGYPipeProcess@@U?$default_delete@VRGYPipeProcess@@@std@@@std@@QEAA@PEAVRGYPipeProcess@@@Z
pdata	ENDS
;	COMDAT pdata
pdata	SEGMENT
$pdata$??0?$allocator@PEBD@std@@QEAA@XZ DD imagerel $LN3
	DD	imagerel $LN3+13
	DD	imagerel $unwind$??0?$allocator@PEBD@std@@QEAA@XZ
pdata	ENDS
;	COMDAT pdata
pdata	SEGMENT
$pdata$?deallocate@?$allocator@PEBD@std@@QEAAXQEAPEBD_K@Z DD imagerel $LN3
	DD	imagerel $LN3+68
	DD	imagerel $unwind$?deallocate@?$allocator@PEBD@std@@QEAAXQEAPEBD_K@Z
pdata	ENDS
;	COMDAT pdata
pdata	SEGMENT
$pdata$?allocate@?$allocator@PEBD@std@@QEAAPEAPEBD_K@Z DD imagerel $LN3
	DD	imagerel $LN3+59
	DD	imagerel $unwind$?allocate@?$allocator@PEBD@std@@QEAAPEAPEBD_K@Z
pdata	ENDS
;	COMDAT pdata
pdata	SEGMENT
$pdata$?max_size@?$_Default_allocator_traits@V?$allocator@PEBD@std@@@std@@SA_KAEBV?$allocator@PEBD@2@@Z DD imagerel $LN3
	DD	imagerel $LN3+18
	DD	imagerel $unwind$?max_size@?$_Default_allocator_traits@V?$allocator@PEBD@std@@@std@@SA_KAEBV?$allocator@PEBD@2@@Z
pdata	ENDS
;	COMDAT pdata
pdata	SEGMENT
$pdata$??0?$vector@PEBDV?$allocator@PEBD@std@@@std@@QEAA@XZ DD imagerel $LN3
	DD	imagerel $LN3+99
	DD	imagerel $unwind$??0?$vector@PEBDV?$allocator@PEBD@std@@@std@@QEAA@XZ
pdata	ENDS
;	COMDAT pdata
pdata	SEGMENT
$pdata$??1?$vector@PEBDV?$allocator@PEBD@std@@@std@@QEAA@XZ DD imagerel $LN3
	DD	imagerel $LN3+140
	DD	imagerel $unwind$??1?$vector@PEBDV?$allocator@PEBD@std@@@std@@QEAA@XZ
pdata	ENDS
;	COMDAT pdata
pdata	SEGMENT
$pdata$?push_back@?$vector@PEBDV?$allocator@PEBD@std@@@std@@QEAAXAEBQEBD@Z DD imagerel $LN3
	DD	imagerel $LN3+56
	DD	imagerel $unwind$?push_back@?$vector@PEBDV?$allocator@PEBD@std@@@std@@QEAAXAEBQEBD@Z
pdata	ENDS
;	COMDAT pdata
pdata	SEGMENT
$pdata$?push_back@?$vector@PEBDV?$allocator@PEBD@std@@@std@@QEAAX$$QEAPEBD@Z DD imagerel $LN3
	DD	imagerel $LN3+64
	DD	imagerel $unwind$?push_back@?$vector@PEBDV?$allocator@PEBD@std@@@std@@QEAAX$$QEAPEBD@Z
pdata	ENDS
;	COMDAT pdata
pdata	SEGMENT
$pdata$?max_size@?$vector@PEBDV?$allocator@PEBD@std@@@std@@QEBA_KXZ DD imagerel $LN3
	DD	imagerel $LN3+87
	DD	imagerel $unwind$?max_size@?$vector@PEBDV?$allocator@PEBD@std@@@std@@QEBA_KXZ
pdata	ENDS
;	COMDAT pdata
pdata	SEGMENT
$pdata$?capacity@?$vector@PEBDV?$allocator@PEBD@std@@@std@@QEBA_KXZ DD imagerel $LN3
	DD	imagerel $LN3+68
	DD	imagerel $unwind$?capacity@?$vector@PEBDV?$allocator@PEBD@std@@@std@@QEBA_KXZ
pdata	ENDS
;	COMDAT pdata
pdata	SEGMENT
$pdata$?_Umove@?$vector@PEBDV?$allocator@PEBD@std@@@std@@AEAAPEAPEBDPEAPEBD00@Z DD imagerel $LN3
	DD	imagerel $LN3+84
	DD	imagerel $unwind$?_Umove@?$vector@PEBDV?$allocator@PEBD@std@@@std@@AEAAPEAPEBDPEAPEBD00@Z
pdata	ENDS
;	COMDAT pdata
pdata	SEGMENT
$pdata$?_Umove_if_noexcept1@?$vector@PEBDV?$allocator@PEBD@std@@@std@@AEAAXPEAPEBD00U?$integral_constant@_N$00@2@@Z DD imagerel $LN3
	DD	imagerel $LN3+84
	DD	imagerel $unwind$?_Umove_if_noexcept1@?$vector@PEBDV?$allocator@PEBD@std@@@std@@AEAAXPEAPEBD00U?$integral_constant@_N$00@2@@Z
pdata	ENDS
;	COMDAT pdata
pdata	SEGMENT
$pdata$?_Umove_if_noexcept@?$vector@PEBDV?$allocator@PEBD@std@@@std@@AEAAXPEAPEBD00@Z DD imagerel $LN3
	DD	imagerel $LN3+102
	DD	imagerel $unwind$?_Umove_if_noexcept@?$vector@PEBDV?$allocator@PEBD@std@@@std@@AEAAXPEAPEBD00@Z
pdata	ENDS
;	COMDAT pdata
pdata	SEGMENT
$pdata$?_Destroy@?$vector@PEBDV?$allocator@PEBD@std@@@std@@AEAAXPEAPEBD0@Z DD imagerel $LN3
	DD	imagerel $LN3+74
	DD	imagerel $unwind$?_Destroy@?$vector@PEBDV?$allocator@PEBD@std@@@std@@AEAAXPEAPEBD0@Z
pdata	ENDS
;	COMDAT pdata
pdata	SEGMENT
$pdata$?_Calculate_growth@?$vector@PEBDV?$allocator@PEBD@std@@@std@@AEBA_K_K@Z DD imagerel $LN5
	DD	imagerel $LN5+166
	DD	imagerel $unwind$?_Calculate_growth@?$vector@PEBDV?$allocator@PEBD@std@@@std@@AEBA_K_K@Z
pdata	ENDS
;	COMDAT pdata
pdata	SEGMENT
$pdata$?_Change_array@?$vector@PEBDV?$allocator@PEBD@std@@@std@@AEAAXQEAPEBD_K1@Z DD imagerel $LN4
	DD	imagerel $LN4+269
	DD	imagerel $unwind$?_Change_array@?$vector@PEBDV?$allocator@PEBD@std@@@std@@AEAAXQEAPEBD_K1@Z
pdata	ENDS
;	COMDAT pdata
pdata	SEGMENT
$pdata$?_Tidy@?$vector@PEBDV?$allocator@PEBD@std@@@std@@AEAAXXZ DD imagerel $LN4
	DD	imagerel $LN4+237
	DD	imagerel $unwind$?_Tidy@?$vector@PEBDV?$allocator@PEBD@std@@@std@@AEAAXXZ
pdata	ENDS
;	COMDAT pdata
pdata	SEGMENT
$pdata$?_Xlength@?$vector@PEBDV?$allocator@PEBD@std@@@std@@CAXXZ DD imagerel $LN3
	DD	imagerel $LN3+39
	DD	imagerel $unwind$?_Xlength@?$vector@PEBDV?$allocator@PEBD@std@@@std@@CAXXZ
pdata	ENDS
;	COMDAT pdata
pdata	SEGMENT
$pdata$?_Orphan_range@?$vector@PEBDV?$allocator@PEBD@std@@@std@@AEBAXPEAPEBD0@Z DD imagerel $LN9
	DD	imagerel $LN9+214
	DD	imagerel $unwind$?_Orphan_range@?$vector@PEBDV?$allocator@PEBD@std@@@std@@AEBAXPEAPEBD0@Z
pdata	ENDS
;	COMDAT pdata
pdata	SEGMENT
$pdata$?dtor$0@?0??_Orphan_range@?$vector@PEBDV?$allocator@PEBD@std@@@std@@AEBAXPEAPEBD0@Z@4HA DD imagerel ?dtor$0@?0??_Orphan_range@?$vector@PEBDV?$allocator@PEBD@std@@@std@@AEBAXPEAPEBD0@Z@4HA
	DD	imagerel ?dtor$0@?0??_Orphan_range@?$vector@PEBDV?$allocator@PEBD@std@@@std@@AEBAXPEAPEBD0@Z@4HA+36
	DD	imagerel $unwind$?dtor$0@?0??_Orphan_range@?$vector@PEBDV?$allocator@PEBD@std@@@std@@AEBAXPEAPEBD0@Z@4HA
pdata	ENDS
;	COMDAT pdata
pdata	SEGMENT
$pdata$?_Getal@?$vector@PEBDV?$allocator@PEBD@std@@@std@@AEAAAEAV?$allocator@PEBD@2@XZ DD imagerel $LN3
	DD	imagerel $LN3+49
	DD	imagerel $unwind$?_Getal@?$vector@PEBDV?$allocator@PEBD@std@@@std@@AEAAAEAV?$allocator@PEBD@2@XZ
pdata	ENDS
;	COMDAT pdata
pdata	SEGMENT
$pdata$?_Getal@?$vector@PEBDV?$allocator@PEBD@std@@@std@@AEBAAEBV?$allocator@PEBD@2@XZ DD imagerel $LN3
	DD	imagerel $LN3+49
	DD	imagerel $unwind$?_Getal@?$vector@PEBDV?$allocator@PEBD@std@@@std@@AEBAAEBV?$allocator@PEBD@2@XZ
pdata	ENDS
;	COMDAT pdata
pdata	SEGMENT
$pdata$??0?$_Vector_val@U?$_Simple_types@PEBD@std@@@std@@QEAA@XZ DD imagerel $LN3
	DD	imagerel $LN3+90
	DD	imagerel $unwind$??0?$_Vector_val@U?$_Simple_types@PEBD@std@@@std@@QEAA@XZ
pdata	ENDS
;	COMDAT pdata
pdata	SEGMENT
$pdata$?_Get_first@?$_Compressed_pair@V?$allocator@PEBD@std@@V?$_Vector_val@U?$_Simple_types@PEBD@std@@@2@$00@std@@QEAAAEAV?$allocator@PEBD@2@XZ DD imagerel $LN3
	DD	imagerel $LN3+13
	DD	imagerel $unwind$?_Get_first@?$_Compressed_pair@V?$allocator@PEBD@std@@V?$_Vector_val@U?$_Simple_types@PEBD@std@@@2@$00@std@@QEAAAEAV?$allocator@PEBD@2@XZ
pdata	ENDS
;	COMDAT pdata
pdata	SEGMENT
$pdata$?_Get_first@?$_Compressed_pair@V?$allocator@PEBD@std@@V?$_Vector_val@U?$_Simple_types@PEBD@std@@@2@$00@std@@QEBAAEBV?$allocator@PEBD@2@XZ DD imagerel $LN3
	DD	imagerel $LN3+13
	DD	imagerel $unwind$?_Get_first@?$_Compressed_pair@V?$allocator@PEBD@std@@V?$_Vector_val@U?$_Simple_types@PEBD@std@@@2@$00@std@@QEBAAEBV?$allocator@PEBD@2@XZ
pdata	ENDS
;	COMDAT pdata
pdata	SEGMENT
$pdata$??$?0A6AXPEAX@ZPEAVCPerfMonitor@@X@thread@std@@QEAA@A6AXPEAX@Z$$QEAPEAVCPerfMonitor@@@Z DD imagerel $LN7
	DD	imagerel $LN7+258
	DD	imagerel $unwind$??$?0A6AXPEAX@ZPEAVCPerfMonitor@@X@thread@std@@QEAA@A6AXPEAX@Z$$QEAPEAVCPerfMonitor@@@Z
pdata	ENDS
;	COMDAT pdata
pdata	SEGMENT
$pdata$?dtor$0@?0???$?0A6AXPEAX@ZPEAVCPerfMonitor@@X@thread@std@@QEAA@A6AXPEAX@Z$$QEAPEAVCPerfMonitor@@@Z@4HA DD imagerel ?dtor$0@?0???$?0A6AXPEAX@ZPEAVCPerfMonitor@@X@thread@std@@QEAA@A6AXPEAX@Z$$QEAPEAVCPerfMonitor@@@Z@4HA
	DD	imagerel ?dtor$0@?0???$?0A6AXPEAX@ZPEAVCPerfMonitor@@X@thread@std@@QEAA@A6AXPEAX@Z$$QEAPEAVCPerfMonitor@@@Z@4HA+35
	DD	imagerel $unwind$?dtor$0@?0???$?0A6AXPEAX@ZPEAVCPerfMonitor@@X@thread@std@@QEAA@A6AXPEAX@Z$$QEAPEAVCPerfMonitor@@@Z@4HA
pdata	ENDS
;	COMDAT pdata
pdata	SEGMENT
$pdata$??$?CVEncodeStatus@@$0A@@?$shared_ptr@VEncodeStatus@@@std@@QEBAPEAVEncodeStatus@@XZ DD imagerel $LN3
	DD	imagerel $LN3+46
	DD	imagerel $unwind$??$?CVEncodeStatus@@$0A@@?$shared_ptr@VEncodeStatus@@@std@@QEBAPEAVEncodeStatus@@XZ
pdata	ENDS
;	COMDAT pdata
pdata	SEGMENT
$pdata$??R<lambda_5a0ebdb53bca1837caa8d6a14c3bf926>@@QEBAXPEAXPEAUPROCESS_TIME@@@Z DD imagerel ??R<lambda_5a0ebdb53bca1837caa8d6a14c3bf926>@@QEBAXPEAXPEAUPROCESS_TIME@@@Z
	DD	imagerel ??R<lambda_5a0ebdb53bca1837caa8d6a14c3bf926>@@QEBAXPEAXPEAUPROCESS_TIME@@@Z+113
	DD	imagerel $unwind$??R<lambda_5a0ebdb53bca1837caa8d6a14c3bf926>@@QEBAXPEAXPEAUPROCESS_TIME@@@Z
pdata	ENDS
;	COMDAT pdata
pdata	SEGMENT
$pdata$??$sleep_for@_JU?$ratio@$00$0DOI@@std@@@this_thread@std@@YAXAEBV?$duration@_JU?$ratio@$00$0DOI@@std@@@chrono@1@@Z DD imagerel $LN3
	DD	imagerel $LN3+72
	DD	imagerel $unwind$??$sleep_for@_JU?$ratio@$00$0DOI@@std@@@this_thread@std@@YAXAEBV?$duration@_JU?$ratio@$00$0DOI@@std@@@chrono@1@@Z
pdata	ENDS
;	COMDAT pdata
pdata	SEGMENT
$pdata$??$move@AEAPEBD@std@@YA$$QEAPEBDAEAPEBD@Z DD imagerel $LN3
	DD	imagerel $LN3+13
	DD	imagerel $unwind$??$move@AEAPEBD@std@@YA$$QEAPEBDAEAPEBD@Z
pdata	ENDS
;	COMDAT pdata
pdata	SEGMENT
$pdata$??$emplace_back@PEBD@?$vector@PEBDV?$allocator@PEBD@std@@@std@@QEAAX$$QEAPEBD@Z DD imagerel $LN4
	DD	imagerel $LN4+145
	DD	imagerel $unwind$??$emplace_back@PEBD@?$vector@PEBDV?$allocator@PEBD@std@@@std@@QEAAX$$QEAPEBD@Z
pdata	ENDS
;	COMDAT pdata
pdata	SEGMENT
$pdata$??$forward@PEBD@std@@YA$$QEAPEBDAEAPEBD@Z DD imagerel $LN3
	DD	imagerel $LN3+13
	DD	imagerel $unwind$??$forward@PEBD@std@@YA$$QEAPEBDAEAPEBD@Z
pdata	ENDS
;	COMDAT pdata
pdata	SEGMENT
$pdata$??$_Emplace_back_with_unused_capacity@PEBD@?$vector@PEBDV?$allocator@PEBD@std@@@std@@AEAAX$$QEAPEBD@Z DD imagerel $LN3
	DD	imagerel $LN3+191
	DD	imagerel $unwind$??$_Emplace_back_with_unused_capacity@PEBD@?$vector@PEBDV?$allocator@PEBD@std@@@std@@AEAAX$$QEAPEBD@Z
pdata	ENDS
;	COMDAT pdata
pdata	SEGMENT
$pdata$??$_Unfancy@PEBD@std@@YAPEAPEBDPEAPEBD@Z DD imagerel $LN3
	DD	imagerel $LN3+13
	DD	imagerel $unwind$??$_Unfancy@PEBD@std@@YAPEAPEBDPEAPEBD@Z
pdata	ENDS
;	COMDAT pdata
pdata	SEGMENT
$pdata$??$construct@PEBDPEBD@?$_Default_allocator_traits@V?$allocator@PEBD@std@@@std@@SAXAEAV?$allocator@PEBD@1@QEAPEBD$$QEAPEBD@Z DD imagerel $LN3
	DD	imagerel $LN3+87
	DD	imagerel $unwind$??$construct@PEBDPEBD@?$_Default_allocator_traits@V?$allocator@PEBD@std@@@std@@SAXAEAV?$allocator@PEBD@1@QEAPEBD$$QEAPEBD@Z
pdata	ENDS
;	COMDAT pdata
pdata	SEGMENT
$pdata$??$_Emplace_reallocate@PEBD@?$vector@PEBDV?$allocator@PEBD@std@@@std@@QEAAPEAPEBDQEAPEBD$$QEAPEBD@Z DD imagerel $LN13
	DD	imagerel $LN13+551
	DD	imagerel $unwind$??$_Emplace_reallocate@PEBD@?$vector@PEBDV?$allocator@PEBD@std@@@std@@QEAAPEAPEBDQEAPEBD$$QEAPEBD@Z
pdata	ENDS
;	COMDAT pdata
pdata	SEGMENT
$pdata$?catch$0@?0???$_Emplace_reallocate@PEBD@?$vector@PEBDV?$allocator@PEBD@std@@@std@@QEAAPEAPEBDQEAPEBD$$QEAPEBD@Z@4HA DD imagerel ?catch$0@?0???$_Emplace_reallocate@PEBD@?$vector@PEBDV?$allocator@PEBD@std@@@std@@QEAAPEAPEBDQEAPEBD$$QEAPEBD@Z@4HA
	DD	imagerel ?catch$0@?0???$_Emplace_reallocate@PEBD@?$vector@PEBDV?$allocator@PEBD@std@@@std@@QEAAPEAPEBDQEAPEBD$$QEAPEBD@Z@4HA+81
	DD	imagerel $unwind$?catch$0@?0???$_Emplace_reallocate@PEBD@?$vector@PEBDV?$allocator@PEBD@std@@@std@@QEAAPEAPEBDQEAPEBD$$QEAPEBD@Z@4HA
pdata	ENDS
;	COMDAT pdata
pdata	SEGMENT
$pdata$??$emplace_back@AEBQEBD@?$vector@PEBDV?$allocator@PEBD@std@@@std@@QEAAXAEBQEBD@Z DD imagerel $LN4
	DD	imagerel $LN4+145
	DD	imagerel $unwind$??$emplace_back@AEBQEBD@?$vector@PEBDV?$allocator@PEBD@std@@@std@@QEAAXAEBQEBD@Z
pdata	ENDS
;	COMDAT pdata
pdata	SEGMENT
$pdata$??$forward@AEBQEBD@std@@YAAEBQEBDAEBQEBD@Z DD imagerel $LN3
	DD	imagerel $LN3+13
	DD	imagerel $unwind$??$forward@AEBQEBD@std@@YAAEBQEBDAEBQEBD@Z
pdata	ENDS
;	COMDAT pdata
pdata	SEGMENT
$pdata$??$_Emplace_back_with_unused_capacity@AEBQEBD@?$vector@PEBDV?$allocator@PEBD@std@@@std@@AEAAXAEBQEBD@Z DD imagerel $LN3
	DD	imagerel $LN3+191
	DD	imagerel $unwind$??$_Emplace_back_with_unused_capacity@AEBQEBD@?$vector@PEBDV?$allocator@PEBD@std@@@std@@AEAAXAEBQEBD@Z
pdata	ENDS
;	COMDAT pdata
pdata	SEGMENT
$pdata$??$construct@PEBDAEBQEBD@?$_Default_allocator_traits@V?$allocator@PEBD@std@@@std@@SAXAEAV?$allocator@PEBD@1@QEAPEBDAEBQEBD@Z DD imagerel $LN3
	DD	imagerel $LN3+87
	DD	imagerel $unwind$??$construct@PEBDAEBQEBD@?$_Default_allocator_traits@V?$allocator@PEBD@std@@@std@@SAXAEAV?$allocator@PEBD@1@QEAPEBDAEBQEBD@Z
pdata	ENDS
;	COMDAT pdata
pdata	SEGMENT
$pdata$??$_Emplace_reallocate@AEBQEBD@?$vector@PEBDV?$allocator@PEBD@std@@@std@@QEAAPEAPEBDQEAPEBDAEBQEBD@Z DD imagerel $LN13
	DD	imagerel $LN13+551
	DD	imagerel $unwind$??$_Emplace_reallocate@AEBQEBD@?$vector@PEBDV?$allocator@PEBD@std@@@std@@QEAAPEAPEBDQEAPEBDAEBQEBD@Z
pdata	ENDS
;	COMDAT pdata
pdata	SEGMENT
$pdata$?catch$0@?0???$_Emplace_reallocate@AEBQEBD@?$vector@PEBDV?$allocator@PEBD@std@@@std@@QEAAPEAPEBDQEAPEBDAEBQEBD@Z@4HA DD imagerel ?catch$0@?0???$_Emplace_reallocate@AEBQEBD@?$vector@PEBDV?$allocator@PEBD@std@@@std@@QEAAPEAPEBDQEAPEBDAEBQEBD@Z@4HA
	DD	imagerel ?catch$0@?0???$_Emplace_reallocate@AEBQEBD@?$vector@PEBDV?$allocator@PEBD@std@@@std@@QEAAPEAPEBDQEAPEBDAEBQEBD@Z@4HA+81
	DD	imagerel $unwind$?catch$0@?0???$_Emplace_reallocate@AEBQEBD@?$vector@PEBDV?$allocator@PEBD@std@@@std@@QEAAPEAPEBDQEAPEBDAEBQEBD@Z@4HA
pdata	ENDS
;	COMDAT pdata
pdata	SEGMENT
$pdata$?allocate@?$allocator@U_Container_proxy@std@@@std@@QEAAPEAU_Container_proxy@2@_K@Z DD imagerel $LN3
	DD	imagerel $LN3+59
	DD	imagerel $unwind$?allocate@?$allocator@U_Container_proxy@std@@@std@@QEAAPEAU_Container_proxy@2@_K@Z
pdata	ENDS
;	COMDAT pdata
pdata	SEGMENT
$pdata$??$?0PEBD@?$allocator@U_Container_proxy@std@@@std@@QEAA@AEBV?$allocator@PEBD@1@@Z DD imagerel $LN3
	DD	imagerel $LN3+18
	DD	imagerel $unwind$??$?0PEBD@?$allocator@U_Container_proxy@std@@@std@@QEAA@AEBV?$allocator@PEBD@1@@Z
pdata	ENDS
;	COMDAT pdata
pdata	SEGMENT
$pdata$??$exchange@PEAU_Container_proxy@std@@$$T@std@@YAPEAU_Container_proxy@0@AEAPEAU10@$$QEA$$T@Z DD imagerel $LN3
	DD	imagerel $LN3+73
	DD	imagerel $unwind$??$exchange@PEAU_Container_proxy@std@@$$T@std@@YAPEAU_Container_proxy@0@AEAPEAU10@$$QEA$$T@Z
pdata	ENDS
;	COMDAT pdata
pdata	SEGMENT
$pdata$??$_Delete_plain_internal@V?$allocator@U_Container_proxy@std@@@std@@@std@@YAXAEAV?$allocator@U_Container_proxy@std@@@0@QEAU_Container_proxy@0@@Z DD imagerel $LN3
	DD	imagerel $LN3+56
	DD	imagerel $unwind$??$_Delete_plain_internal@V?$allocator@U_Container_proxy@std@@@std@@@std@@YAXAEAV?$allocator@U_Container_proxy@std@@@0@QEAU_Container_proxy@0@@Z
pdata	ENDS
;	COMDAT pdata
pdata	SEGMENT
$pdata$??$?0$$V@?$_Compressed_pair@V?$allocator@PEBD@std@@V?$_Vector_val@U?$_Simple_types@PEBD@std@@@2@$00@std@@QEAA@U_Zero_then_variadic_args_t@1@@Z DD imagerel $LN3
	DD	imagerel $LN3+68
	DD	imagerel $unwind$??$?0$$V@?$_Compressed_pair@V?$allocator@PEBD@std@@V?$_Vector_val@U?$_Simple_types@PEBD@std@@@2@$00@std@@QEAA@U_Zero_then_variadic_args_t@1@@Z
pdata	ENDS
;	COMDAT pdata
pdata	SEGMENT
$pdata$??$_Alloc_proxy@V?$allocator@U_Container_proxy@std@@@std@@@_Container_base12@std@@QEAAX$$QEAV?$allocator@U_Container_proxy@std@@@1@@Z DD imagerel $LN3
	DD	imagerel $LN3+120
	DD	imagerel $unwind$??$_Alloc_proxy@V?$allocator@U_Container_proxy@std@@@std@@@_Container_base12@std@@QEAAX$$QEAV?$allocator@U_Container_proxy@std@@@1@@Z
pdata	ENDS
;	COMDAT pdata
pdata	SEGMENT
$pdata$??$exchange@PEAU_iobuf@@AEAPEAU1@@std@@YAPEAU_iobuf@@AEAPEAU1@0@Z DD imagerel $LN3
	DD	imagerel $LN3+73
	DD	imagerel $unwind$??$exchange@PEAU_iobuf@@AEAPEAU1@@std@@YAPEAU_iobuf@@AEAPEAU1@0@Z
pdata	ENDS
;	COMDAT pdata
pdata	SEGMENT
$pdata$??$addressof@V?$unique_ptr@U_iobuf@@Ufp_deleter@@@std@@@std@@YAPEAV?$unique_ptr@U_iobuf@@Ufp_deleter@@@0@AEAV10@@Z DD imagerel $LN3
	DD	imagerel $LN3+13
	DD	imagerel $unwind$??$addressof@V?$unique_ptr@U_iobuf@@Ufp_deleter@@@std@@@std@@YAPEAV?$unique_ptr@U_iobuf@@Ufp_deleter@@@0@AEAV10@@Z
pdata	ENDS
;	COMDAT pdata
pdata	SEGMENT
$pdata$??$forward@Ufp_deleter@@@std@@YA$$QEAUfp_deleter@@AEAU1@@Z DD imagerel $LN3
	DD	imagerel $LN3+13
	DD	imagerel $unwind$??$forward@Ufp_deleter@@@std@@YA$$QEAUfp_deleter@@AEAU1@@Z
pdata	ENDS
;	COMDAT pdata
pdata	SEGMENT
$pdata$??$exchange@PEAVRGYPipeProcess@@AEAPEAV1@@std@@YAPEAVRGYPipeProcess@@AEAPEAV1@0@Z DD imagerel $LN3
	DD	imagerel $LN3+73
	DD	imagerel $unwind$??$exchange@PEAVRGYPipeProcess@@AEAPEAV1@@std@@YAPEAVRGYPipeProcess@@AEAPEAV1@0@Z
pdata	ENDS
;	COMDAT pdata
pdata	SEGMENT
$pdata$??$addressof@V?$unique_ptr@VRGYPipeProcess@@U?$default_delete@VRGYPipeProcess@@@std@@@std@@@std@@YAPEAV?$unique_ptr@VRGYPipeProcess@@U?$default_delete@VRGYPipeProcess@@@std@@@0@AEAV10@@Z DD imagerel $LN3
	DD	imagerel $LN3+13
	DD	imagerel $unwind$??$addressof@V?$unique_ptr@VRGYPipeProcess@@U?$default_delete@VRGYPipeProcess@@@std@@@std@@@std@@YAPEAV?$unique_ptr@VRGYPipeProcess@@U?$default_delete@VRGYPipeProcess@@@std@@@0@AEAV10@@Z
pdata	ENDS
;	COMDAT pdata
pdata	SEGMENT
$pdata$??$forward@U?$default_delete@VRGYPipeProcess@@@std@@@std@@YA$$QEAU?$default_delete@VRGYPipeProcess@@@0@AEAU10@@Z DD imagerel $LN3
	DD	imagerel $LN3+13
	DD	imagerel $unwind$??$forward@U?$default_delete@VRGYPipeProcess@@@std@@@std@@YA$$QEAU?$default_delete@VRGYPipeProcess@@@0@AEAU10@@Z
pdata	ENDS
;	COMDAT pdata
pdata	SEGMENT
$pdata$??$exchange@PEAXAEAPEAX@std@@YAPEAXAEAPEAX0@Z DD imagerel $LN3
	DD	imagerel $LN3+73
	DD	imagerel $unwind$??$exchange@PEAXAEAPEAX@std@@YAPEAXAEAPEAX0@Z
pdata	ENDS
;	COMDAT pdata
pdata	SEGMENT
$pdata$??$addressof@V?$unique_ptr@XUhandle_deleter@@@std@@@std@@YAPEAV?$unique_ptr@XUhandle_deleter@@@0@AEAV10@@Z DD imagerel $LN3
	DD	imagerel $LN3+13
	DD	imagerel $unwind$??$addressof@V?$unique_ptr@XUhandle_deleter@@@std@@@std@@YAPEAV?$unique_ptr@XUhandle_deleter@@@0@AEAV10@@Z
pdata	ENDS
;	COMDAT pdata
pdata	SEGMENT
$pdata$??$forward@Uhandle_deleter@@@std@@YA$$QEAUhandle_deleter@@AEAU1@@Z DD imagerel $LN3
	DD	imagerel $LN3+13
	DD	imagerel $unwind$??$forward@Uhandle_deleter@@@std@@YA$$QEAUhandle_deleter@@AEAU1@@Z
pdata	ENDS
;	COMDAT pdata
pdata	SEGMENT
$pdata$??$move@AEAV?$basic_string@DU?$char_traits@D@std@@V?$allocator@D@2@@std@@@std@@YA$$QEAV?$basic_string@DU?$char_traits@D@std@@V?$allocator@D@2@@0@AEAV10@@Z DD imagerel $LN3
	DD	imagerel $LN3+13
	DD	imagerel $unwind$??$move@AEAV?$basic_string@DU?$char_traits@D@std@@V?$allocator@D@2@@std@@@std@@YA$$QEAV?$basic_string@DU?$char_traits@D@std@@V?$allocator@D@2@@0@AEAV10@@Z
pdata	ENDS
;	COMDAT pdata
pdata	SEGMENT
$pdata$??$_Min_value@_K@std@@YAAEB_KAEB_K0@Z DD imagerel $LN5
	DD	imagerel $LN5+94
	DD	imagerel $unwind$??$_Min_value@_K@std@@YAAEB_KAEB_K0@Z
pdata	ENDS
;	COMDAT pdata
pdata	SEGMENT
$pdata$??0?$_Container_proxy_ptr12@V?$allocator@U_Container_proxy@std@@@std@@@std@@QEAA@AEAV?$allocator@U_Container_proxy@std@@@1@AEAU_Container_base12@1@@Z DD imagerel $LN3
	DD	imagerel $LN3+145
	DD	imagerel $unwind$??0?$_Container_proxy_ptr12@V?$allocator@U_Container_proxy@std@@@std@@@std@@QEAA@AEAV?$allocator@U_Container_proxy@std@@@1@AEAU_Container_base12@1@@Z
pdata	ENDS
;	COMDAT pdata
pdata	SEGMENT
$pdata$??1?$_Container_proxy_ptr12@V?$allocator@U_Container_proxy@std@@@std@@@std@@QEAA@XZ DD imagerel $LN4
	DD	imagerel $LN4+69
	DD	imagerel $unwind$??1?$_Container_proxy_ptr12@V?$allocator@U_Container_proxy@std@@@std@@@std@@QEAA@XZ
pdata	ENDS
;	COMDAT pdata
pdata	SEGMENT
$pdata$??$_Unfancy@D@std@@YAPEADPEAD@Z DD imagerel $LN3
	DD	imagerel $LN3+13
	DD	imagerel $unwind$??$_Unfancy@D@std@@YAPEADPEAD@Z
pdata	ENDS
;	COMDAT pdata
pdata	SEGMENT
$pdata$??$addressof@V?$_String_val@U?$_Simple_types@D@std@@@std@@@std@@YAPEAV?$_String_val@U?$_Simple_types@D@std@@@0@AEAV10@@Z DD imagerel $LN3
	DD	imagerel $LN3+13
	DD	imagerel $unwind$??$addressof@V?$_String_val@U?$_Simple_types@D@std@@@std@@@std@@YAPEAV?$_String_val@U?$_Simple_types@D@std@@@0@AEAV10@@Z
pdata	ENDS
;	COMDAT pdata
pdata	SEGMENT
$pdata$??$addressof@$$CBV?$basic_string@DU?$char_traits@D@std@@V?$allocator@D@2@@std@@@std@@YAPEBV?$basic_string@DU?$char_traits@D@std@@V?$allocator@D@2@@0@AEBV10@@Z DD imagerel $LN3
	DD	imagerel $LN3+13
	DD	imagerel $unwind$??$addressof@$$CBV?$basic_string@DU?$char_traits@D@std@@V?$allocator@D@2@@std@@@std@@YAPEBV?$basic_string@DU?$char_traits@D@std@@V?$allocator@D@2@@0@AEBV10@@Z
pdata	ENDS
;	COMDAT pdata
pdata	SEGMENT
$pdata$??$?0D@?$allocator@U_Container_proxy@std@@@std@@QEAA@AEBV?$allocator@D@1@@Z DD imagerel $LN3
	DD	imagerel $LN3+18
	DD	imagerel $unwind$??$?0D@?$allocator@U_Container_proxy@std@@@std@@QEAA@AEBV?$allocator@D@1@@Z
pdata	ENDS
;	COMDAT pdata
pdata	SEGMENT
$pdata$??$addressof@V?$basic_string@DU?$char_traits@D@std@@V?$allocator@D@2@@std@@@std@@YAPEAV?$basic_string@DU?$char_traits@D@std@@V?$allocator@D@2@@0@AEAV10@@Z DD imagerel $LN3
	DD	imagerel $LN3+13
	DD	imagerel $unwind$??$addressof@V?$basic_string@DU?$char_traits@D@std@@V?$allocator@D@2@@std@@@std@@YAPEAV?$basic_string@DU?$char_traits@D@std@@V?$allocator@D@2@@0@AEAV10@@Z
pdata	ENDS
;	COMDAT pdata
pdata	SEGMENT
$pdata$??$move@AEAV?$allocator@D@std@@@std@@YA$$QEAV?$allocator@D@0@AEAV10@@Z DD imagerel $LN3
	DD	imagerel $LN3+13
	DD	imagerel $unwind$??$move@AEAV?$allocator@D@std@@@std@@YA$$QEAV?$allocator@D@0@AEAV10@@Z
pdata	ENDS
;	COMDAT pdata
pdata	SEGMENT
$pdata$??$?0V?$allocator@D@std@@$$V@?$_Compressed_pair@V?$allocator@D@std@@V?$_String_val@U?$_Simple_types@D@std@@@2@$00@std@@QEAA@U_One_then_variadic_args_t@1@$$QEAV?$allocator@D@1@@Z DD imagerel $LN4
	DD	imagerel $LN4+74
	DD	imagerel $unwind$??$?0V?$allocator@D@std@@$$V@?$_Compressed_pair@V?$allocator@D@std@@V?$_String_val@U?$_Simple_types@D@std@@@2@$00@std@@QEAA@U_One_then_variadic_args_t@1@$$QEAV?$allocator@D@1@@Z
pdata	ENDS
;	COMDAT pdata
pdata	SEGMENT
$pdata$?dtor$0@?0???$?0V?$allocator@D@std@@$$V@?$_Compressed_pair@V?$allocator@D@std@@V?$_String_val@U?$_Simple_types@D@std@@@2@$00@std@@QEAA@U_One_then_variadic_args_t@1@$$QEAV?$allocator@D@1@@Z@4HA DD imagerel ?dtor$0@?0???$?0V?$allocator@D@std@@$$V@?$_Compressed_pair@V?$allocator@D@std@@V?$_String_val@U?$_Simple_types@D@std@@@2@$00@std@@QEAA@U_One_then_variadic_args_t@1@$$QEAV?$allocator@D@1@@Z@4HA
	DD	imagerel ?dtor$0@?0???$?0V?$allocator@D@std@@$$V@?$_Compressed_pair@V?$allocator@D@std@@V?$_String_val@U?$_Simple_types@D@std@@@2@$00@std@@QEAA@U_One_then_variadic_args_t@1@$$QEAV?$allocator@D@1@@Z@4HA+35
	DD	imagerel $unwind$?dtor$0@?0???$?0V?$allocator@D@std@@$$V@?$_Compressed_pair@V?$allocator@D@std@@V?$_String_val@U?$_Simple_types@D@std@@@2@$00@std@@QEAA@U_One_then_variadic_args_t@1@$$QEAV?$allocator@D@1@@Z@4HA
pdata	ENDS
;	COMDAT pdata
pdata	SEGMENT
$pdata$??$?0$$V@?$_Compressed_pair@V?$allocator@D@std@@V?$_String_val@U?$_Simple_types@D@std@@@2@$00@std@@QEAA@U_Zero_then_variadic_args_t@1@@Z DD imagerel $LN4
	DD	imagerel $LN4+69
	DD	imagerel $unwind$??$?0$$V@?$_Compressed_pair@V?$allocator@D@std@@V?$_String_val@U?$_Simple_types@D@std@@@2@$00@std@@QEAA@U_Zero_then_variadic_args_t@1@@Z
pdata	ENDS
;	COMDAT pdata
pdata	SEGMENT
$pdata$?dtor$0@?0???$?0$$V@?$_Compressed_pair@V?$allocator@D@std@@V?$_String_val@U?$_Simple_types@D@std@@@2@$00@std@@QEAA@U_Zero_then_variadic_args_t@1@@Z@4HA DD imagerel ?dtor$0@?0???$?0$$V@?$_Compressed_pair@V?$allocator@D@std@@V?$_String_val@U?$_Simple_types@D@std@@@2@$00@std@@QEAA@U_Zero_then_variadic_args_t@1@@Z@4HA
	DD	imagerel ?dtor$0@?0???$?0$$V@?$_Compressed_pair@V?$allocator@D@std@@V?$_String_val@U?$_Simple_types@D@std@@@2@$00@std@@QEAA@U_Zero_then_variadic_args_t@1@@Z@4HA+35
	DD	imagerel $unwind$?dtor$0@?0???$?0$$V@?$_Compressed_pair@V?$allocator@D@std@@V?$_String_val@U?$_Simple_types@D@std@@@2@$00@std@@QEAA@U_Zero_then_variadic_args_t@1@@Z@4HA
pdata	ENDS
;	COMDAT pdata
pdata	SEGMENT
$pdata$??$_Unfancy@U_Container_proxy@std@@@std@@YAPEAU_Container_proxy@0@PEAU10@@Z DD imagerel $LN3
	DD	imagerel $LN3+13
	DD	imagerel $unwind$??$_Unfancy@U_Container_proxy@std@@@std@@YAPEAU_Container_proxy@0@PEAU10@@Z
pdata	ENDS
;	COMDAT pdata
pdata	SEGMENT
$pdata$??$addressof@U_Container_base12@std@@@std@@YAPEAU_Container_base12@0@AEAU10@@Z DD imagerel $LN3
	DD	imagerel $LN3+13
	DD	imagerel $unwind$??$addressof@U_Container_base12@std@@@std@@YAPEAU_Container_base12@0@AEAU10@@Z
pdata	ENDS
;	COMDAT pdata
pdata	SEGMENT
$pdata$??$_Construct_in_place@U_Container_proxy@std@@PEAU_Container_base12@2@@std@@YAXAEAU_Container_proxy@0@$$QEAPEAU_Container_base12@0@@Z DD imagerel $LN3
	DD	imagerel $LN3+92
	DD	imagerel $unwind$??$_Construct_in_place@U_Container_proxy@std@@PEAU_Container_base12@2@@std@@YAXAEAU_Container_proxy@0@$$QEAPEAU_Container_base12@0@@Z
pdata	ENDS
;	COMDAT pdata
pdata	SEGMENT
$pdata$??$_Copy_construct_from@VRGYLog@@@?$_Ptr_base@VRGYLog@@@std@@IEAAXAEBV?$shared_ptr@VRGYLog@@@1@@Z DD imagerel $LN4
	DD	imagerel $LN4+101
	DD	imagerel $unwind$??$_Copy_construct_from@VRGYLog@@@?$_Ptr_base@VRGYLog@@@std@@IEAAXAEBV?$shared_ptr@VRGYLog@@@1@@Z
pdata	ENDS
;	COMDAT pdata
pdata	SEGMENT
$pdata$??$exchange@PEAU_iobuf@@PEAU1@@std@@YAPEAU_iobuf@@AEAPEAU1@$$QEAPEAU1@@Z DD imagerel $LN3
	DD	imagerel $LN3+73
	DD	imagerel $unwind$??$exchange@PEAU_iobuf@@PEAU1@@std@@YAPEAU_iobuf@@AEAPEAU1@$$QEAPEAU1@@Z
pdata	ENDS
;	COMDAT pdata
pdata	SEGMENT
$pdata$??$_Copy_construct_from@VEncodeStatus@@@?$_Ptr_base@VEncodeStatus@@@std@@IEAAXAEBV?$shared_ptr@VEncodeStatus@@@1@@Z DD imagerel $LN4
	DD	imagerel $LN4+101
	DD	imagerel $unwind$??$_Copy_construct_from@VEncodeStatus@@@?$_Ptr_base@VEncodeStatus@@@std@@IEAAXAEBV?$shared_ptr@VEncodeStatus@@@1@@Z
pdata	ENDS
;	COMDAT pdata
pdata	SEGMENT
$pdata$??$exchange@PEAVRGYPipeProcess@@PEAV1@@std@@YAPEAVRGYPipeProcess@@AEAPEAV1@$$QEAPEAV1@@Z DD imagerel $LN3
	DD	imagerel $LN3+73
	DD	imagerel $unwind$??$exchange@PEAVRGYPipeProcess@@PEAV1@@std@@YAPEAVRGYPipeProcess@@AEAPEAV1@$$QEAPEAV1@@Z
pdata	ENDS
;	COMDAT pdata
pdata	SEGMENT
$pdata$??$exchange@PEAXPEAX@std@@YAPEAXAEAPEAX$$QEAPEAX@Z DD imagerel $LN3
	DD	imagerel $LN3+73
	DD	imagerel $unwind$??$exchange@PEAXPEAX@std@@YAPEAXAEAPEAX$$QEAPEAX@Z
pdata	ENDS
;	COMDAT pdata
pdata	SEGMENT
$pdata$??$_Destroy_in_place@PEAD@std@@YAXAEAPEAD@Z DD imagerel $LN3
	DD	imagerel $LN3+8
	DD	imagerel $unwind$??$_Destroy_in_place@PEAD@std@@YAXAEAPEAD@Z
pdata	ENDS
;	COMDAT pdata
pdata	SEGMENT
$pdata$??$_Max_value@_K@std@@YAAEB_KAEB_K0@Z DD imagerel $LN5
	DD	imagerel $LN5+94
	DD	imagerel $unwind$??$_Max_value@_K@std@@YAAEB_KAEB_K0@Z
pdata	ENDS
;	COMDAT pdata
pdata	SEGMENT
$pdata$??$addressof@$$CBV?$_String_val@U?$_Simple_types@D@std@@@std@@@std@@YAPEBV?$_String_val@U?$_Simple_types@D@std@@@0@AEBV10@@Z DD imagerel $LN3
	DD	imagerel $LN3+13
	DD	imagerel $unwind$??$addressof@$$CBV?$_String_val@U?$_Simple_types@D@std@@@std@@@std@@YAPEBV?$_String_val@U?$_Simple_types@D@std@@@0@AEBV10@@Z
pdata	ENDS
;	COMDAT pdata
pdata	SEGMENT
$pdata$??R<lambda_66f57f934f28d61049862f64df852ff0>@@QEBAXQEAD_KQEBD@Z DD imagerel $LN3
	DD	imagerel $LN3+105
	DD	imagerel $unwind$??R<lambda_66f57f934f28d61049862f64df852ff0>@@QEBAXQEAD_KQEBD@Z
pdata	ENDS
;	COMDAT pdata
pdata	SEGMENT
$pdata$??$_Reallocate_for@V<lambda_66f57f934f28d61049862f64df852ff0>@@PEBD@?$basic_string@DU?$char_traits@D@std@@V?$allocator@D@2@@std@@AEAAAEAV01@_KV<lambda_66f57f934f28d61049862f64df852ff0>@@PEBD@Z DD imagerel $LN6
	DD	imagerel $LN6+330
	DD	imagerel $unwind$??$_Reallocate_for@V<lambda_66f57f934f28d61049862f64df852ff0>@@PEBD@?$basic_string@DU?$char_traits@D@std@@V?$allocator@D@2@@std@@AEAAAEAV01@_KV<lambda_66f57f934f28d61049862f64df852ff0>@@PEBD@Z
pdata	ENDS
;	COMDAT pdata
pdata	SEGMENT
$pdata$??R<lambda_65e615be2a453ca0576c979606f46740>@@QEBAXQEADQEBD_K12@Z DD imagerel $LN3
	DD	imagerel $LN3+150
	DD	imagerel $unwind$??R<lambda_65e615be2a453ca0576c979606f46740>@@QEBAXQEADQEBD_K12@Z
pdata	ENDS
;	COMDAT pdata
pdata	SEGMENT
$pdata$??$_Reallocate_grow_by@V<lambda_65e615be2a453ca0576c979606f46740>@@PEBD_K@?$basic_string@DU?$char_traits@D@std@@V?$allocator@D@2@@std@@AEAAAEAV01@_KV<lambda_65e615be2a453ca0576c979606f46740>@@PEBD_K@Z DD imagerel $LN6
	DD	imagerel $LN6+525
	DD	imagerel $unwind$??$_Reallocate_grow_by@V<lambda_65e615be2a453ca0576c979606f46740>@@PEBD_K@?$basic_string@DU?$char_traits@D@std@@V?$allocator@D@2@@std@@AEAAAEAV01@_KV<lambda_65e615be2a453ca0576c979606f46740>@@PEBD_K@Z
pdata	ENDS
;	COMDAT pdata
pdata	SEGMENT
$pdata$??$_Pocca@V?$allocator@D@std@@@std@@YAXAEAV?$allocator@D@0@AEBV10@@Z DD imagerel $LN3
	DD	imagerel $LN3+13
	DD	imagerel $unwind$??$_Pocca@V?$allocator@D@std@@@std@@YAXAEAV?$allocator@D@0@AEBV10@@Z
pdata	ENDS
;	COMDAT pdata
pdata	SEGMENT
$pdata$??$_Construct_in_place@PEADAEBQEAD@std@@YAXAEAPEADAEBQEAD@Z DD imagerel $LN3
	DD	imagerel $LN3+90
	DD	imagerel $unwind$??$_Construct_in_place@PEADAEBQEAD@std@@YAXAEAPEADAEBQEAD@Z
pdata	ENDS
;	COMDAT pdata
pdata	SEGMENT
$pdata$??$_Pocma@V?$allocator@D@std@@@std@@YAXAEAV?$allocator@D@0@0@Z DD imagerel $LN3
	DD	imagerel $LN3+51
	DD	imagerel $unwind$??$_Pocma@V?$allocator@D@std@@@std@@YAXAEAV?$allocator@D@0@0@Z
pdata	ENDS
;	COMDAT pdata
pdata	SEGMENT
$pdata$??$_Get_size_of_n@$00@std@@YA_K_K@Z DD imagerel $LN3
	DD	imagerel $LN3+45
	DD	imagerel $unwind$??$_Get_size_of_n@$00@std@@YA_K_K@Z
pdata	ENDS
;	COMDAT pdata
pdata	SEGMENT
$pdata$??$_Allocate@$0BA@U_Default_allocate_traits@std@@$0A@@std@@YAPEAX_K@Z DD imagerel $LN5
	DD	imagerel $LN5+81
	DD	imagerel $unwind$??$_Allocate@$0BA@U_Default_allocate_traits@std@@$0A@@std@@YAPEAX_K@Z
pdata	ENDS
;	COMDAT pdata
pdata	SEGMENT
$pdata$??$_Deallocate@$0BA@$0A@@std@@YAXPEAX_K@Z DD imagerel $LN4
	DD	imagerel $LN4+84
	DD	imagerel $unwind$??$_Deallocate@$0BA@$0A@@std@@YAXPEAX_K@Z
pdata	ENDS
;	COMDAT pdata
pdata	SEGMENT
$pdata$??$_Get_size_of_n@$0BA@@std@@YA_K_K@Z DD imagerel $LN4
	DD	imagerel $LN4+84
	DD	imagerel $unwind$??$_Get_size_of_n@$0BA@@std@@YA_K_K@Z
pdata	ENDS
;	COMDAT pdata
pdata	SEGMENT
$pdata$??$_Destroy_range@V?$allocator@PEBD@std@@@std@@YAXPEAPEBDQEAPEBDAEAV?$allocator@PEBD@0@@Z DD imagerel $LN3
	DD	imagerel $LN3+18
	DD	imagerel $unwind$??$_Destroy_range@V?$allocator@PEBD@std@@@std@@YAXPEAPEBDQEAPEBDAEAV?$allocator@PEBD@0@@Z
pdata	ENDS
;	COMDAT pdata
pdata	SEGMENT
$pdata$??$swap@PEAV_Ref_count_base@std@@X@std@@YAXAEAPEAV_Ref_count_base@0@0@Z DD imagerel $LN3
	DD	imagerel $LN3+116
	DD	imagerel $unwind$??$swap@PEAV_Ref_count_base@std@@X@std@@YAXAEAPEAV_Ref_count_base@0@0@Z
pdata	ENDS
;	COMDAT pdata
pdata	SEGMENT
$pdata$??$swap@PEAVRGYLog@@X@std@@YAXAEAPEAVRGYLog@@0@Z DD imagerel $LN3
	DD	imagerel $LN3+116
	DD	imagerel $unwind$??$swap@PEAVRGYLog@@X@std@@YAXAEAPEAVRGYLog@@0@Z
pdata	ENDS
;	COMDAT pdata
pdata	SEGMENT
$pdata$??$swap@PEAVEncodeStatus@@X@std@@YAXAEAPEAVEncodeStatus@@0@Z DD imagerel $LN3
	DD	imagerel $LN3+116
	DD	imagerel $unwind$??$swap@PEAVEncodeStatus@@X@std@@YAXAEAPEAVEncodeStatus@@0@Z
pdata	ENDS
;	COMDAT pdata
pdata	SEGMENT
$pdata$??$?G_JU?$ratio@$00$0DLJKMKAA@@std@@_JU01@@chrono@std@@YA?AV?$duration@_JU?$ratio@$00$0DLJKMKAA@@std@@@01@AEBV201@0@Z DD imagerel $LN3
	DD	imagerel $LN3+133
	DD	imagerel $unwind$??$?G_JU?$ratio@$00$0DLJKMKAA@@std@@_JU01@@chrono@std@@YA?AV?$duration@_JU?$ratio@$00$0DLJKMKAA@@std@@@01@AEBV201@0@Z
pdata	ENDS
;	COMDAT pdata
pdata	SEGMENT
$pdata$??$sleep_until@Usteady_clock@chrono@std@@V?$duration@_JU?$ratio@$00$0DLJKMKAA@@std@@@23@@this_thread@std@@YAXAEBV?$time_point@Usteady_clock@chrono@std@@V?$duration@_JU?$ratio@$00$0DLJKMKAA@@std@@@23@@chrono@1@@Z DD imagerel $LN7
	DD	imagerel $LN7+173
	DD	imagerel $unwind$??$sleep_until@Usteady_clock@chrono@std@@V?$duration@_JU?$ratio@$00$0DLJKMKAA@@std@@@23@@this_thread@std@@YAXAEBV?$time_point@Usteady_clock@chrono@std@@V?$duration@_JU?$ratio@$00$0DLJKMKAA@@std@@@23@@chrono@1@@Z
pdata	ENDS
;	COMDAT pdata
pdata	SEGMENT
$pdata$??$?0$$V@?$_Compressed_pair@Uhandle_deleter@@PEAX$00@std@@QEAA@U_Zero_then_variadic_args_t@1@@Z DD imagerel $LN3
	DD	imagerel $LN3+29
	DD	imagerel $unwind$??$?0$$V@?$_Compressed_pair@Uhandle_deleter@@PEAX$00@std@@QEAA@U_Zero_then_variadic_args_t@1@@Z
pdata	ENDS
;	COMDAT pdata
pdata	SEGMENT
$pdata$??$?0$$V@?$_Compressed_pair@U?$default_delete@VRGYPipeProcess@@@std@@PEAVRGYPipeProcess@@$00@std@@QEAA@U_Zero_then_variadic_args_t@1@@Z DD imagerel $LN3
	DD	imagerel $LN3+29
	DD	imagerel $unwind$??$?0$$V@?$_Compressed_pair@U?$default_delete@VRGYPipeProcess@@@std@@PEAVRGYPipeProcess@@$00@std@@QEAA@U_Zero_then_variadic_args_t@1@@Z
pdata	ENDS
;	COMDAT pdata
pdata	SEGMENT
$pdata$??$?0$$V@?$_Compressed_pair@Ufp_deleter@@PEAU_iobuf@@$00@std@@QEAA@U_Zero_then_variadic_args_t@1@@Z DD imagerel $LN3
	DD	imagerel $LN3+29
	DD	imagerel $unwind$??$?0$$V@?$_Compressed_pair@Ufp_deleter@@PEAU_iobuf@@$00@std@@QEAA@U_Zero_then_variadic_args_t@1@@Z
pdata	ENDS
;	COMDAT pdata
pdata	SEGMENT
$pdata$??$?0AEAPEAU_iobuf@@@?$_Compressed_pair@Ufp_deleter@@PEAU_iobuf@@$00@std@@QEAA@U_Zero_then_variadic_args_t@1@AEAPEAU_iobuf@@@Z DD imagerel $LN3
	DD	imagerel $LN3+71
	DD	imagerel $unwind$??$?0AEAPEAU_iobuf@@@?$_Compressed_pair@Ufp_deleter@@PEAU_iobuf@@$00@std@@QEAA@U_Zero_then_variadic_args_t@1@AEAPEAU_iobuf@@@Z
pdata	ENDS
;	COMDAT pdata
pdata	SEGMENT
$pdata$??$?0AEAPEAVRGYPipeProcess@@@?$_Compressed_pair@U?$default_delete@VRGYPipeProcess@@@std@@PEAVRGYPipeProcess@@$00@std@@QEAA@U_Zero_then_variadic_args_t@1@AEAPEAVRGYPipeProcess@@@Z DD imagerel $LN3
	DD	imagerel $LN3+71
	DD	imagerel $unwind$??$?0AEAPEAVRGYPipeProcess@@@?$_Compressed_pair@U?$default_delete@VRGYPipeProcess@@@std@@PEAVRGYPipeProcess@@$00@std@@QEAA@U_Zero_then_variadic_args_t@1@AEAPEAVRGYPipeProcess@@@Z
pdata	ENDS
;	COMDAT pdata
pdata	SEGMENT
$pdata$??$forward@A6AXPEAX@Z@std@@YAA6AXPEAX@ZA6AX0@Z@Z DD imagerel $LN3
	DD	imagerel $LN3+13
	DD	imagerel $unwind$??$forward@A6AXPEAX@Z@std@@YAA6AXPEAX@ZA6AX0@Z@Z
pdata	ENDS
;	COMDAT pdata
pdata	SEGMENT
$pdata$??$forward@PEAVCPerfMonitor@@@std@@YA$$QEAPEAVCPerfMonitor@@AEAPEAV1@@Z DD imagerel $LN3
	DD	imagerel $LN3+13
	DD	imagerel $unwind$??$forward@PEAVCPerfMonitor@@@std@@YA$$QEAPEAVCPerfMonitor@@AEAPEAV1@@Z
pdata	ENDS
;	COMDAT pdata
pdata	SEGMENT
$pdata$??$make_unique@V?$tuple@P6AXPEAX@ZPEAVCPerfMonitor@@@std@@A6AXPEAX@ZPEAVCPerfMonitor@@$0A@@std@@YA?AV?$unique_ptr@V?$tuple@P6AXPEAX@ZPEAVCPerfMonitor@@@std@@U?$default_delete@V?$tuple@P6AXPEAX@ZPEAVCPerfMonitor@@@std@@@2@@0@A6AXPEAX@Z$$QEAPEAVCPerfMonitor@@@Z DD imagerel $LN7
	DD	imagerel $LN7+172
	DD	imagerel $unwind$??$make_unique@V?$tuple@P6AXPEAX@ZPEAVCPerfMonitor@@@std@@A6AXPEAX@ZPEAVCPerfMonitor@@$0A@@std@@YA?AV?$unique_ptr@V?$tuple@P6AXPEAX@ZPEAVCPerfMonitor@@@std@@U?$default_delete@V?$tuple@P6AXPEAX@ZPEAVCPerfMonitor@@@std@@@2@@0@A6AXPEAX@Z$$QEAPEAVCPerfMonitor@@@Z
pdata	ENDS
;	COMDAT pdata
pdata	SEGMENT
$pdata$?dtor$0@?0???$make_unique@V?$tuple@P6AXPEAX@ZPEAVCPerfMonitor@@@std@@A6AXPEAX@ZPEAVCPerfMonitor@@$0A@@std@@YA?AV?$unique_ptr@V?$tuple@P6AXPEAX@ZPEAVCPerfMonitor@@@std@@U?$default_delete@V?$tuple@P6AXPEAX@ZPEAVCPerfMonitor@@@std@@@2@@0@A6AXPEAX@Z$$QEAPEAVCPerfMonitor@@@Z@4HA DD imagerel ?dtor$0@?0???$make_unique@V?$tuple@P6AXPEAX@ZPEAVCPerfMonitor@@@std@@A6AXPEAX@ZPEAVCPerfMonitor@@$0A@@std@@YA?AV?$unique_ptr@V?$tuple@P6AXPEAX@ZPEAVCPerfMonitor@@@std@@U?$default_delete@V?$tuple@P6AXPEAX@ZPEAVCPerfMonitor@@@std@@@2@@0@A6AXPEAX@Z$$QEAPEAVCPerfMonitor@@@Z@4HA
	DD	imagerel ?dtor$0@?0???$make_unique@V?$tuple@P6AXPEAX@ZPEAVCPerfMonitor@@@std@@A6AXPEAX@ZPEAVCPerfMonitor@@$0A@@std@@YA?AV?$unique_ptr@V?$tuple@P6AXPEAX@ZPEAVCPerfMonitor@@@std@@U?$default_delete@V?$tuple@P6AXPEAX@ZPEAVCPerfMonitor@@@std@@@2@@0@A6AXPEAX@Z$$QEAPEAVCPerfMonitor@@@Z@4HA+49
	DD	imagerel $unwind$?dtor$0@?0???$make_unique@V?$tuple@P6AXPEAX@ZPEAVCPerfMonitor@@@std@@A6AXPEAX@ZPEAVCPerfMonitor@@$0A@@std@@YA?AV?$unique_ptr@V?$tuple@P6AXPEAX@ZPEAVCPerfMonitor@@@std@@U?$default_delete@V?$tuple@P6AXPEAX@ZPEAVCPerfMonitor@@@std@@@2@@0@A6AXPEAX@Z$$QEAPEAVCPerfMonitor@@@Z@4HA
pdata	ENDS
;	COMDAT pdata
pdata	SEGMENT
$pdata$??R?$default_delete@V?$tuple@P6AXPEAX@ZPEAVCPerfMonitor@@@std@@@std@@QEBAXPEAV?$tuple@P6AXPEAX@ZPEAVCPerfMonitor@@@1@@Z DD imagerel $LN3
	DD	imagerel $LN3+66
	DD	imagerel $unwind$??R?$default_delete@V?$tuple@P6AXPEAX@ZPEAVCPerfMonitor@@@std@@@std@@QEBAXPEAV?$tuple@P6AXPEAX@ZPEAVCPerfMonitor@@@1@@Z
pdata	ENDS
;	COMDAT pdata
pdata	SEGMENT
$pdata$??1?$unique_ptr@V?$tuple@P6AXPEAX@ZPEAVCPerfMonitor@@@std@@U?$default_delete@V?$tuple@P6AXPEAX@ZPEAVCPerfMonitor@@@std@@@2@@std@@QEAA@XZ DD imagerel $LN4
	DD	imagerel $LN4+76
	DD	imagerel $unwind$??1?$unique_ptr@V?$tuple@P6AXPEAX@ZPEAVCPerfMonitor@@@std@@U?$default_delete@V?$tuple@P6AXPEAX@ZPEAVCPerfMonitor@@@std@@@2@@std@@QEAA@XZ
pdata	ENDS
;	COMDAT pdata
pdata	SEGMENT
$pdata$??D?$unique_ptr@V?$tuple@P6AXPEAX@ZPEAVCPerfMonitor@@@std@@U?$default_delete@V?$tuple@P6AXPEAX@ZPEAVCPerfMonitor@@@std@@@2@@std@@QEBAAEAV?$tuple@P6AXPEAX@ZPEAVCPerfMonitor@@@1@XZ DD imagerel $LN3
	DD	imagerel $LN3+16
	DD	imagerel $unwind$??D?$unique_ptr@V?$tuple@P6AXPEAX@ZPEAVCPerfMonitor@@@std@@U?$default_delete@V?$tuple@P6AXPEAX@ZPEAVCPerfMonitor@@@std@@@2@@std@@QEBAAEAV?$tuple@P6AXPEAX@ZPEAVCPerfMonitor@@@1@XZ
pdata	ENDS
;	COMDAT pdata
pdata	SEGMENT
$pdata$?get@?$unique_ptr@V?$tuple@P6AXPEAX@ZPEAVCPerfMonitor@@@std@@U?$default_delete@V?$tuple@P6AXPEAX@ZPEAVCPerfMonitor@@@std@@@2@@std@@QEBAPEAV?$tuple@P6AXPEAX@ZPEAVCPerfMonitor@@@2@XZ DD imagerel $LN3
	DD	imagerel $LN3+16
	DD	imagerel $unwind$?get@?$unique_ptr@V?$tuple@P6AXPEAX@ZPEAVCPerfMonitor@@@std@@U?$default_delete@V?$tuple@P6AXPEAX@ZPEAVCPerfMonitor@@@std@@@2@@std@@QEBAPEAV?$tuple@P6AXPEAX@ZPEAVCPerfMonitor@@@2@XZ
pdata	ENDS
;	COMDAT pdata
pdata	SEGMENT
$pdata$?release@?$unique_ptr@V?$tuple@P6AXPEAX@ZPEAVCPerfMonitor@@@std@@U?$default_delete@V?$tuple@P6AXPEAX@ZPEAVCPerfMonitor@@@std@@@2@@std@@QEAAPEAV?$tuple@P6AXPEAX@ZPEAVCPerfMonitor@@@2@XZ DD imagerel $LN3
	DD	imagerel $LN3+64
	DD	imagerel $unwind$?release@?$unique_ptr@V?$tuple@P6AXPEAX@ZPEAVCPerfMonitor@@@std@@U?$default_delete@V?$tuple@P6AXPEAX@ZPEAVCPerfMonitor@@@std@@@2@@std@@QEAAPEAV?$tuple@P6AXPEAX@ZPEAVCPerfMonitor@@@2@XZ
pdata	ENDS
;	COMDAT pdata
pdata	SEGMENT
$pdata$?_Get_first@?$_Compressed_pair@U?$default_delete@V?$tuple@P6AXPEAX@ZPEAVCPerfMonitor@@@std@@@std@@PEAV?$tuple@P6AXPEAX@ZPEAVCPerfMonitor@@@2@$00@std@@QEAAAEAU?$default_delete@V?$tuple@P6AXPEAX@ZPEAVCPerfMonitor@@@std@@@2@XZ DD imagerel $LN3
	DD	imagerel $LN3+13
	DD	imagerel $unwind$?_Get_first@?$_Compressed_pair@U?$default_delete@V?$tuple@P6AXPEAX@ZPEAVCPerfMonitor@@@std@@@std@@PEAV?$tuple@P6AXPEAX@ZPEAVCPerfMonitor@@@2@$00@std@@QEAAAEAU?$default_delete@V?$tuple@P6AXPEAX@ZPEAVCPerfMonitor@@@std@@@2@XZ
pdata	ENDS
;	COMDAT pdata
pdata	SEGMENT
$pdata$??$_Invoke@V?$tuple@P6AXPEAX@ZPEAVCPerfMonitor@@@std@@$0A@$00@thread@std@@CAIPEAX@Z DD imagerel $LN4
	DD	imagerel $LN4+179
	DD	imagerel $unwind$??$_Invoke@V?$tuple@P6AXPEAX@ZPEAVCPerfMonitor@@@std@@$0A@$00@thread@std@@CAIPEAX@Z
pdata	ENDS
;	COMDAT pdata
pdata	SEGMENT
$pdata$?dtor$0@?0???$_Invoke@V?$tuple@P6AXPEAX@ZPEAVCPerfMonitor@@@std@@$0A@$00@thread@std@@CAIPEAX@Z@4HA DD imagerel ?dtor$0@?0???$_Invoke@V?$tuple@P6AXPEAX@ZPEAVCPerfMonitor@@@std@@$0A@$00@thread@std@@CAIPEAX@Z@4HA
	DD	imagerel ?dtor$0@?0???$_Invoke@V?$tuple@P6AXPEAX@ZPEAVCPerfMonitor@@@std@@$0A@$00@thread@std@@CAIPEAX@Z@4HA+35
	DD	imagerel $unwind$?dtor$0@?0???$_Invoke@V?$tuple@P6AXPEAX@ZPEAVCPerfMonitor@@@std@@$0A@$00@thread@std@@CAIPEAX@Z@4HA
pdata	ENDS
;	COMDAT pdata
pdata	SEGMENT
$pdata$??$?HUsteady_clock@chrono@std@@V?$duration@_JU?$ratio@$00$0DLJKMKAA@@std@@@12@_JU?$ratio@$00$0DOI@@2@@chrono@std@@YA?AV?$time_point@Usteady_clock@chrono@std@@V?$duration@_JU?$ratio@$00$0DLJKMKAA@@std@@@23@@01@AEBV201@AEBV?$duration@_JU?$ratio@$00$0DOI@@std@@@01@@Z DD imagerel $LN3
	DD	imagerel $LN3+97
	DD	imagerel $unwind$??$?HUsteady_clock@chrono@std@@V?$duration@_JU?$ratio@$00$0DLJKMKAA@@std@@@12@_JU?$ratio@$00$0DOI@@2@@chrono@std@@YA?AV?$time_point@Usteady_clock@chrono@std@@V?$duration@_JU?$ratio@$00$0DLJKMKAA@@std@@@23@@01@AEBV201@AEBV?$duration@_JU?$ratio@$00$0DOI@@std@@@01@@Z
pdata	ENDS
;	COMDAT pdata
pdata	SEGMENT
$pdata$??$_Deallocate_plain@V?$allocator@U_Container_proxy@std@@@std@@@std@@YAXAEAV?$allocator@U_Container_proxy@std@@@0@QEAU_Container_proxy@0@@Z DD imagerel $LN3
	DD	imagerel $LN3+63
	DD	imagerel $unwind$??$_Deallocate_plain@V?$allocator@U_Container_proxy@std@@@std@@@std@@YAXAEAV?$allocator@U_Container_proxy@std@@@0@QEAU_Container_proxy@0@@Z
pdata	ENDS
;	COMDAT pdata
pdata	SEGMENT
$pdata$??$forward@V?$allocator@D@std@@@std@@YA$$QEAV?$allocator@D@0@AEAV10@@Z DD imagerel $LN3
	DD	imagerel $LN3+13
	DD	imagerel $unwind$??$forward@V?$allocator@D@std@@@std@@YA$$QEAV?$allocator@D@0@AEAV10@@Z
pdata	ENDS
;	COMDAT pdata
pdata	SEGMENT
$pdata$??$addressof@U_Container_proxy@std@@@std@@YAPEAU_Container_proxy@0@AEAU10@@Z DD imagerel $LN3
	DD	imagerel $LN3+13
	DD	imagerel $unwind$??$addressof@U_Container_proxy@std@@@std@@YAPEAU_Container_proxy@0@AEAU10@@Z
pdata	ENDS
;	COMDAT pdata
pdata	SEGMENT
$pdata$??$forward@PEAU_Container_base12@std@@@std@@YA$$QEAPEAU_Container_base12@0@AEAPEAU10@@Z DD imagerel $LN3
	DD	imagerel $LN3+13
	DD	imagerel $unwind$??$forward@PEAU_Container_base12@std@@@std@@YA$$QEAPEAU_Container_base12@0@AEAPEAU10@@Z
pdata	ENDS
;	COMDAT pdata
pdata	SEGMENT
$pdata$??$addressof@PEAD@std@@YAPEAPEADAEAPEAD@Z DD imagerel $LN3
	DD	imagerel $LN3+13
	DD	imagerel $unwind$??$addressof@PEAD@std@@YAPEAPEADAEAPEAD@Z
pdata	ENDS
;	COMDAT pdata
pdata	SEGMENT
$pdata$??$forward@AEBQEAD@std@@YAAEBQEADAEBQEAD@Z DD imagerel $LN3
	DD	imagerel $LN3+13
	DD	imagerel $unwind$??$forward@AEBQEAD@std@@YAAEBQEADAEBQEAD@Z
pdata	ENDS
;	COMDAT pdata
pdata	SEGMENT
$pdata$??$_Allocate_manually_vector_aligned@U_Default_allocate_traits@std@@@std@@YAPEAX_K@Z DD imagerel $LN13
	DD	imagerel $LN13+279
	DD	imagerel $unwind$??$_Allocate_manually_vector_aligned@U_Default_allocate_traits@std@@@std@@YAPEAX_K@Z
pdata	ENDS
;	COMDAT pdata
pdata	SEGMENT
$pdata$??$move@AEAPEAVCPerfMonitor@@@std@@YA$$QEAPEAVCPerfMonitor@@AEAPEAV1@@Z DD imagerel $LN3
	DD	imagerel $LN3+13
	DD	imagerel $unwind$??$move@AEAPEAVCPerfMonitor@@@std@@YA$$QEAPEAVCPerfMonitor@@AEAPEAV1@@Z
pdata	ENDS
;	COMDAT pdata
pdata	SEGMENT
$pdata$??$move@AEAPEAV_Ref_count_base@std@@@std@@YA$$QEAPEAV_Ref_count_base@0@AEAPEAV10@@Z DD imagerel $LN3
	DD	imagerel $LN3+13
	DD	imagerel $unwind$??$move@AEAPEAV_Ref_count_base@std@@@std@@YA$$QEAPEAV_Ref_count_base@0@AEAPEAV10@@Z
pdata	ENDS
;	COMDAT pdata
pdata	SEGMENT
$pdata$??$move@AEAPEAVRGYLog@@@std@@YA$$QEAPEAVRGYLog@@AEAPEAV1@@Z DD imagerel $LN3
	DD	imagerel $LN3+13
	DD	imagerel $unwind$??$move@AEAPEAVRGYLog@@@std@@YA$$QEAPEAVRGYLog@@AEAPEAV1@@Z
pdata	ENDS
;	COMDAT pdata
pdata	SEGMENT
$pdata$??$move@AEAPEAVEncodeStatus@@@std@@YA$$QEAPEAVEncodeStatus@@AEAPEAV1@@Z DD imagerel $LN3
	DD	imagerel $LN3+13
	DD	imagerel $unwind$??$move@AEAPEAVEncodeStatus@@@std@@YA$$QEAPEAVEncodeStatus@@AEAPEAV1@@Z
pdata	ENDS
;	COMDAT pdata
pdata	SEGMENT
$pdata$??$exchange@PEAV?$tuple@P6AXPEAX@ZPEAVCPerfMonitor@@@std@@PEAV12@@std@@YAPEAV?$tuple@P6AXPEAX@ZPEAVCPerfMonitor@@@0@AEAPEAV10@$$QEAPEAV10@@Z DD imagerel $LN3
	DD	imagerel $LN3+73
	DD	imagerel $unwind$??$exchange@PEAV?$tuple@P6AXPEAX@ZPEAVCPerfMonitor@@@std@@PEAV12@@std@@YAPEAV?$tuple@P6AXPEAX@ZPEAVCPerfMonitor@@@0@AEAPEAV10@$$QEAPEAV10@@Z
pdata	ENDS
;	COMDAT pdata
pdata	SEGMENT
$pdata$??$_Uninitialized_move@PEAPEBDV?$allocator@PEBD@std@@@std@@YAPEAPEBDQEAPEBD0PEAPEBDAEAV?$allocator@PEBD@0@@Z DD imagerel $LN3
	DD	imagerel $LN3+138
	DD	imagerel $unwind$??$_Uninitialized_move@PEAPEBDV?$allocator@PEBD@std@@@std@@YAPEAPEBDQEAPEBD0PEAPEBDAEAV?$allocator@PEBD@0@@Z
pdata	ENDS
;	COMDAT pdata
pdata	SEGMENT
$pdata$??$_Get_size_of_n@$07@std@@YA_K_K@Z DD imagerel $LN4
	DD	imagerel $LN4+87
	DD	imagerel $unwind$??$_Get_size_of_n@$07@std@@YA_K_K@Z
pdata	ENDS
;	COMDAT pdata
pdata	SEGMENT
$pdata$??R<lambda_f3a66ab6a0570788f31503db83886f49>@@QEBAXQEADQEBD_K212@Z DD imagerel $LN3
	DD	imagerel $LN3+185
	DD	imagerel $unwind$??R<lambda_f3a66ab6a0570788f31503db83886f49>@@QEBAXQEADQEBD_K212@Z
pdata	ENDS
;	COMDAT pdata
pdata	SEGMENT
$pdata$??$_Reallocate_grow_by@V<lambda_f3a66ab6a0570788f31503db83886f49>@@_KPEBD_K@?$basic_string@DU?$char_traits@D@std@@V?$allocator@D@2@@std@@AEAAAEAV01@_KV<lambda_f3a66ab6a0570788f31503db83886f49>@@_KPEBD2@Z DD imagerel $LN6
	DD	imagerel $LN6+564
	DD	imagerel $unwind$??$_Reallocate_grow_by@V<lambda_f3a66ab6a0570788f31503db83886f49>@@_KPEBD_K@?$basic_string@DU?$char_traits@D@std@@V?$allocator@D@2@@std@@AEAAAEAV01@_KV<lambda_f3a66ab6a0570788f31503db83886f49>@@_KPEBD2@Z
pdata	ENDS
;	COMDAT pdata
pdata	SEGMENT
$pdata$??$?0_JU?$ratio@$00$0DOI@@std@@X@?$duration@_JU?$ratio@$00$0DLJKMKAA@@std@@@chrono@std@@QEAA@AEBV?$duration@_JU?$ratio@$00$0DOI@@std@@@12@@Z DD imagerel $LN3
	DD	imagerel $LN3+77
	DD	imagerel $unwind$??$?0_JU?$ratio@$00$0DOI@@std@@X@?$duration@_JU?$ratio@$00$0DLJKMKAA@@std@@@chrono@std@@QEAA@AEBV?$duration@_JU?$ratio@$00$0DOI@@std@@@12@@Z
pdata	ENDS
;	COMDAT pdata
pdata	SEGMENT
$pdata$??$?NUsteady_clock@chrono@std@@V?$duration@_JU?$ratio@$00$0DLJKMKAA@@std@@@12@V312@@chrono@std@@YA_NAEBV?$time_point@Usteady_clock@chrono@std@@V?$duration@_JU?$ratio@$00$0DLJKMKAA@@std@@@23@@01@0@Z DD imagerel $LN5
	DD	imagerel $LN5+86
	DD	imagerel $unwind$??$?NUsteady_clock@chrono@std@@V?$duration@_JU?$ratio@$00$0DLJKMKAA@@std@@@12@V312@@chrono@std@@YA_NAEBV?$time_point@Usteady_clock@chrono@std@@V?$duration@_JU?$ratio@$00$0DLJKMKAA@@std@@@23@@01@0@Z
pdata	ENDS
;	COMDAT pdata
pdata	SEGMENT
$pdata$??$_To_xtime_10_day_clamped@_JU?$ratio@$00$0DLJKMKAA@@std@@@std@@YA_NAEAUxtime@@AEBV?$duration@_JU?$ratio@$00$0DLJKMKAA@@std@@@chrono@0@@Z DD imagerel $LN5
	DD	imagerel $LN5+329
	DD	imagerel $unwind$??$_To_xtime_10_day_clamped@_JU?$ratio@$00$0DLJKMKAA@@std@@@std@@YA_NAEAUxtime@@AEBV?$duration@_JU?$ratio@$00$0DLJKMKAA@@std@@@chrono@0@@Z
pdata	ENDS
;	COMDAT pdata
pdata	SEGMENT
$pdata$??$forward@AEAPEAU_iobuf@@@std@@YAAEAPEAU_iobuf@@AEAPEAU1@@Z DD imagerel $LN3
	DD	imagerel $LN3+13
	DD	imagerel $unwind$??$forward@AEAPEAU_iobuf@@@std@@YAAEAPEAU_iobuf@@AEAPEAU1@@Z
pdata	ENDS
;	COMDAT pdata
pdata	SEGMENT
$pdata$??$forward@AEAPEAVRGYPipeProcess@@@std@@YAAEAPEAVRGYPipeProcess@@AEAPEAV1@@Z DD imagerel $LN3
	DD	imagerel $LN3+13
	DD	imagerel $unwind$??$forward@AEAPEAVRGYPipeProcess@@@std@@YAAEAPEAVRGYPipeProcess@@AEAPEAV1@@Z
pdata	ENDS
;	COMDAT pdata
pdata	SEGMENT
$pdata$??$?0A6AXPEAX@ZPEAVCPerfMonitor@@$0A@@?$tuple@P6AXPEAX@ZPEAVCPerfMonitor@@@std@@QEAA@A6AXPEAX@Z$$QEAPEAVCPerfMonitor@@@Z DD imagerel $LN3
	DD	imagerel $LN3+122
	DD	imagerel $unwind$??$?0A6AXPEAX@ZPEAVCPerfMonitor@@$0A@@?$tuple@P6AXPEAX@ZPEAVCPerfMonitor@@@std@@QEAA@A6AXPEAX@Z$$QEAPEAVCPerfMonitor@@@Z
pdata	ENDS
;	COMDAT pdata
pdata	SEGMENT
$pdata$??$?0U?$default_delete@V?$tuple@P6AXPEAX@ZPEAVCPerfMonitor@@@std@@@std@@$0A@@?$unique_ptr@V?$tuple@P6AXPEAX@ZPEAVCPerfMonitor@@@std@@U?$default_delete@V?$tuple@P6AXPEAX@ZPEAVCPerfMonitor@@@std@@@2@@std@@QEAA@PEAV?$tuple@P6AXPEAX@ZPEAVCPerfMonitor@@@1@@Z DD imagerel $LN3
	DD	imagerel $LN3+70
	DD	imagerel $unwind$??$?0U?$default_delete@V?$tuple@P6AXPEAX@ZPEAVCPerfMonitor@@@std@@@std@@$0A@@?$unique_ptr@V?$tuple@P6AXPEAX@ZPEAVCPerfMonitor@@@std@@U?$default_delete@V?$tuple@P6AXPEAX@ZPEAVCPerfMonitor@@@std@@@2@@std@@QEAA@PEAV?$tuple@P6AXPEAX@ZPEAVCPerfMonitor@@@1@@Z
pdata	ENDS
;	COMDAT pdata
pdata	SEGMENT
$pdata$??$get@$0A@P6AXPEAX@ZPEAVCPerfMonitor@@@std@@YAAEAP6AXPEAX@ZAEAV?$tuple@P6AXPEAX@ZPEAVCPerfMonitor@@@0@@Z DD imagerel $LN3
	DD	imagerel $LN3+17
	DD	imagerel $unwind$??$get@$0A@P6AXPEAX@ZPEAVCPerfMonitor@@@std@@YAAEAP6AXPEAX@ZAEAV?$tuple@P6AXPEAX@ZPEAVCPerfMonitor@@@0@@Z
pdata	ENDS
;	COMDAT pdata
pdata	SEGMENT
$pdata$??$move@AEAP6AXPEAX@Z@std@@YA$$QEAP6AXPEAX@ZAEAP6AX0@Z@Z DD imagerel $LN3
	DD	imagerel $LN3+13
	DD	imagerel $unwind$??$move@AEAP6AXPEAX@Z@std@@YA$$QEAP6AXPEAX@ZAEAP6AX0@Z@Z
pdata	ENDS
;	COMDAT pdata
pdata	SEGMENT
$pdata$??$get@$00P6AXPEAX@ZPEAVCPerfMonitor@@@std@@YAAEAPEAVCPerfMonitor@@AEAV?$tuple@P6AXPEAX@ZPEAVCPerfMonitor@@@0@@Z DD imagerel $LN3
	DD	imagerel $LN3+13
	DD	imagerel $unwind$??$get@$00P6AXPEAX@ZPEAVCPerfMonitor@@@std@@YAAEAPEAVCPerfMonitor@@AEAV?$tuple@P6AXPEAX@ZPEAVCPerfMonitor@@@0@@Z
pdata	ENDS
;	COMDAT pdata
pdata	SEGMENT
$pdata$??$forward@P6AXPEAX@Z@std@@YA$$QEAP6AXPEAX@ZAEAP6AX0@Z@Z DD imagerel $LN3
	DD	imagerel $LN3+13
	DD	imagerel $unwind$??$forward@P6AXPEAX@Z@std@@YA$$QEAP6AXPEAX@ZAEAP6AX0@Z@Z
pdata	ENDS
;	COMDAT pdata
pdata	SEGMENT
$pdata$??$_Call@P6AXPEAX@ZPEAVCPerfMonitor@@@_Invoker_functor@std@@SAX$$QEAP6AXPEAX@Z$$QEAPEAVCPerfMonitor@@@Z DD imagerel $LN3
	DD	imagerel $LN3+76
	DD	imagerel $unwind$??$_Call@P6AXPEAX@ZPEAVCPerfMonitor@@@_Invoker_functor@std@@SAX$$QEAP6AXPEAX@Z$$QEAPEAVCPerfMonitor@@@Z
pdata	ENDS
;	COMDAT pdata
pdata	SEGMENT
$pdata$??$invoke@P6AXPEAX@ZPEAVCPerfMonitor@@@std@@YAX$$QEAP6AXPEAX@Z$$QEAPEAVCPerfMonitor@@@Z DD imagerel $LN3
	DD	imagerel $LN3+82
	DD	imagerel $unwind$??$invoke@P6AXPEAX@ZPEAVCPerfMonitor@@@std@@YAX$$QEAP6AXPEAX@Z$$QEAPEAVCPerfMonitor@@@Z
pdata	ENDS
;	COMDAT pdata
pdata	SEGMENT
$pdata$??$?H_JU?$ratio@$00$0DLJKMKAA@@std@@_JU?$ratio@$00$0DOI@@1@@chrono@std@@YA?AV?$duration@_JU?$ratio@$00$0DLJKMKAA@@std@@@01@AEBV201@AEBV?$duration@_JU?$ratio@$00$0DOI@@std@@@01@@Z DD imagerel $LN3
	DD	imagerel $LN3+133
	DD	imagerel $unwind$??$?H_JU?$ratio@$00$0DLJKMKAA@@std@@_JU?$ratio@$00$0DOI@@1@@chrono@std@@YA?AV?$duration@_JU?$ratio@$00$0DLJKMKAA@@std@@@01@AEBV201@AEBV?$duration@_JU?$ratio@$00$0DOI@@std@@@01@@Z
pdata	ENDS
;	COMDAT pdata
pdata	SEGMENT
$pdata$?deallocate@?$_Default_allocator_traits@V?$allocator@U_Container_proxy@std@@@std@@@std@@SAXAEAV?$allocator@U_Container_proxy@std@@@2@QEAU_Container_proxy@2@_K@Z DD imagerel $LN3
	DD	imagerel $LN3+65
	DD	imagerel $unwind$?deallocate@?$_Default_allocator_traits@V?$allocator@U_Container_proxy@std@@@std@@@std@@SAXAEAV?$allocator@U_Container_proxy@std@@@2@QEAU_Container_proxy@2@_K@Z
pdata	ENDS
;	COMDAT pdata
pdata	SEGMENT
$pdata$??$_Get_unwrapped@PEBD@std@@YAPEAPEBDQEAPEBD@Z DD imagerel $LN3
	DD	imagerel $LN3+13
	DD	imagerel $unwind$??$_Get_unwrapped@PEBD@std@@YAPEAPEBDQEAPEBD@Z
pdata	ENDS
;	COMDAT pdata
pdata	SEGMENT
$pdata$??$_Copy_memmove@PEAPEBDPEAPEBD@std@@YAPEAPEBDPEAPEBD00@Z DD imagerel $LN3
	DD	imagerel $LN3+133
	DD	imagerel $unwind$??$_Copy_memmove@PEAPEBDPEAPEBD@std@@YAPEAPEBDPEAPEBD00@Z
pdata	ENDS
;	COMDAT pdata
pdata	SEGMENT
$pdata$??$duration_cast@V?$duration@_JU?$ratio@$00$0DLJKMKAA@@std@@@chrono@std@@_JU?$ratio@$00$0DOI@@3@X@chrono@std@@YA?AV?$duration@_JU?$ratio@$00$0DLJKMKAA@@std@@@01@AEBV?$duration@_JU?$ratio@$00$0DOI@@std@@@01@@Z DD imagerel $LN9
	DD	imagerel $LN9+239
	DD	imagerel $unwind$??$duration_cast@V?$duration@_JU?$ratio@$00$0DLJKMKAA@@std@@@chrono@std@@_JU?$ratio@$00$0DOI@@3@X@chrono@std@@YA?AV?$duration@_JU?$ratio@$00$0DLJKMKAA@@std@@@01@AEBV?$duration@_JU?$ratio@$00$0DOI@@std@@@01@@Z
pdata	ENDS
;	COMDAT pdata
pdata	SEGMENT
$pdata$??$?MUsteady_clock@chrono@std@@V?$duration@_JU?$ratio@$00$0DLJKMKAA@@std@@@12@V312@@chrono@std@@YA_NAEBV?$time_point@Usteady_clock@chrono@std@@V?$duration@_JU?$ratio@$00$0DLJKMKAA@@std@@@23@@01@0@Z DD imagerel $LN3
	DD	imagerel $LN3+92
	DD	imagerel $unwind$??$?MUsteady_clock@chrono@std@@V?$duration@_JU?$ratio@$00$0DLJKMKAA@@std@@@12@V312@@chrono@std@@YA_NAEBV?$time_point@Usteady_clock@chrono@std@@V?$duration@_JU?$ratio@$00$0DLJKMKAA@@std@@@23@@01@0@Z
pdata	ENDS
;	COMDAT pdata
pdata	SEGMENT
$pdata$??$?0_JU?$ratio@$00$0JIJGIA@@std@@X@?$duration@_JU?$ratio@$00$0DLJKMKAA@@std@@@chrono@std@@QEAA@AEBV?$duration@_JU?$ratio@$00$0JIJGIA@@std@@@12@@Z DD imagerel $LN3
	DD	imagerel $LN3+77
	DD	imagerel $unwind$??$?0_JU?$ratio@$00$0JIJGIA@@std@@X@?$duration@_JU?$ratio@$00$0DLJKMKAA@@std@@@chrono@std@@QEAA@AEBV?$duration@_JU?$ratio@$00$0JIJGIA@@std@@@12@@Z
pdata	ENDS
;	COMDAT pdata
pdata	SEGMENT
$pdata$??$?MNU?$ratio@$00$00@std@@_JU?$ratio@$00$0DLJKMKAA@@1@@chrono@std@@YA_NAEBV?$duration@NU?$ratio@$00$00@std@@@01@AEBV?$duration@_JU?$ratio@$00$0DLJKMKAA@@std@@@01@@Z DD imagerel $LN5
	DD	imagerel $LN5+128
	DD	imagerel $unwind$??$?MNU?$ratio@$00$00@std@@_JU?$ratio@$00$0DLJKMKAA@@1@@chrono@std@@YA_NAEBV?$duration@NU?$ratio@$00$00@std@@@01@AEBV?$duration@_JU?$ratio@$00$0DLJKMKAA@@std@@@01@@Z
pdata	ENDS
;	COMDAT pdata
pdata	SEGMENT
$pdata$??$duration_cast@V?$duration@_JU?$ratio@$00$0DLJKMKAA@@std@@@chrono@std@@_JU?$ratio@$00$0DLJKMKAA@@3@X@chrono@std@@YA?AV?$duration@_JU?$ratio@$00$0DLJKMKAA@@std@@@01@AEBV201@@Z DD imagerel $LN9
	DD	imagerel $LN9+224
	DD	imagerel $unwind$??$duration_cast@V?$duration@_JU?$ratio@$00$0DLJKMKAA@@std@@@chrono@std@@_JU?$ratio@$00$0DLJKMKAA@@3@X@chrono@std@@YA?AV?$duration@_JU?$ratio@$00$0DLJKMKAA@@std@@@01@AEBV201@@Z
pdata	ENDS
;	COMDAT pdata
pdata	SEGMENT
$pdata$??$duration_cast@V?$duration@_JU?$ratio@$00$00@std@@@chrono@std@@_JU?$ratio@$00$0DLJKMKAA@@3@X@chrono@std@@YA?AV?$duration@_JU?$ratio@$00$00@std@@@01@AEBV?$duration@_JU?$ratio@$00$0DLJKMKAA@@std@@@01@@Z DD imagerel $LN9
	DD	imagerel $LN9+246
	DD	imagerel $unwind$??$duration_cast@V?$duration@_JU?$ratio@$00$00@std@@@chrono@std@@_JU?$ratio@$00$0DLJKMKAA@@3@X@chrono@std@@YA?AV?$duration@_JU?$ratio@$00$00@std@@@01@AEBV?$duration@_JU?$ratio@$00$0DLJKMKAA@@std@@@01@@Z
pdata	ENDS
;	COMDAT pdata
pdata	SEGMENT
$pdata$??$?0_JU?$ratio@$00$00@std@@X@?$duration@_JU?$ratio@$00$0DLJKMKAA@@std@@@chrono@std@@QEAA@AEBV?$duration@_JU?$ratio@$00$00@std@@@12@@Z DD imagerel $LN3
	DD	imagerel $LN3+77
	DD	imagerel $unwind$??$?0_JU?$ratio@$00$00@std@@X@?$duration@_JU?$ratio@$00$0DLJKMKAA@@std@@@chrono@std@@QEAA@AEBV?$duration@_JU?$ratio@$00$00@std@@@12@@Z
pdata	ENDS
;	COMDAT pdata
pdata	SEGMENT
$pdata$??$?0U_Exact_args_t@std@@A6AXPEAX@ZPEAVCPerfMonitor@@$0A@@?$tuple@P6AXPEAX@ZPEAVCPerfMonitor@@@std@@QEAA@U_Exact_args_t@1@A6AXPEAX@Z$$QEAPEAVCPerfMonitor@@@Z DD imagerel $LN3
	DD	imagerel $LN3+127
	DD	imagerel $unwind$??$?0U_Exact_args_t@std@@A6AXPEAX@ZPEAVCPerfMonitor@@$0A@@?$tuple@P6AXPEAX@ZPEAVCPerfMonitor@@@std@@QEAA@U_Exact_args_t@1@A6AXPEAX@Z$$QEAPEAVCPerfMonitor@@@Z
pdata	ENDS
;	COMDAT pdata
pdata	SEGMENT
$pdata$??$?0AEAPEAV?$tuple@P6AXPEAX@ZPEAVCPerfMonitor@@@std@@@?$_Compressed_pair@U?$default_delete@V?$tuple@P6AXPEAX@ZPEAVCPerfMonitor@@@std@@@std@@PEAV?$tuple@P6AXPEAX@ZPEAVCPerfMonitor@@@2@$00@std@@QEAA@U_Zero_then_variadic_args_t@1@AEAPEAV?$tuple@P6AXPEAX@ZPEAVCPerfMonitor@@@1@@Z DD imagerel $LN3
	DD	imagerel $LN3+71
	DD	imagerel $unwind$??$?0AEAPEAV?$tuple@P6AXPEAX@ZPEAVCPerfMonitor@@@std@@@?$_Compressed_pair@U?$default_delete@V?$tuple@P6AXPEAX@ZPEAVCPerfMonitor@@@std@@@std@@PEAV?$tuple@P6AXPEAX@ZPEAVCPerfMonitor@@@2@$00@std@@QEAA@U_Zero_then_variadic_args_t@1@AEAPEAV?$tuple@P6AXPEAX@ZPEAVCPerfMonitor@@@1@@Z
pdata	ENDS
;	COMDAT pdata
pdata	SEGMENT
$pdata$??$?M_JU?$ratio@$00$0DLJKMKAA@@std@@_JU01@@chrono@std@@YA_NAEBV?$duration@_JU?$ratio@$00$0DLJKMKAA@@std@@@01@0@Z DD imagerel $LN5
	DD	imagerel $LN5+125
	DD	imagerel $unwind$??$?M_JU?$ratio@$00$0DLJKMKAA@@std@@_JU01@@chrono@std@@YA_NAEBV?$duration@_JU?$ratio@$00$0DLJKMKAA@@std@@@01@0@Z
pdata	ENDS
;	COMDAT pdata
pdata	SEGMENT
$pdata$??$duration_cast@V?$duration@_JU?$ratio@$00$0DLJKMKAA@@std@@@chrono@std@@_JU?$ratio@$00$0JIJGIA@@3@X@chrono@std@@YA?AV?$duration@_JU?$ratio@$00$0DLJKMKAA@@std@@@01@AEBV?$duration@_JU?$ratio@$00$0JIJGIA@@std@@@01@@Z DD imagerel $LN9
	DD	imagerel $LN9+233
	DD	imagerel $unwind$??$duration_cast@V?$duration@_JU?$ratio@$00$0DLJKMKAA@@std@@@chrono@std@@_JU?$ratio@$00$0JIJGIA@@3@X@chrono@std@@YA?AV?$duration@_JU?$ratio@$00$0DLJKMKAA@@std@@@01@AEBV?$duration@_JU?$ratio@$00$0JIJGIA@@std@@@01@@Z
pdata	ENDS
;	COMDAT pdata
pdata	SEGMENT
$pdata$??$?0NU?$ratio@$00$00@std@@X@?$duration@NU?$ratio@$00$0DLJKMKAA@@std@@@chrono@std@@QEAA@AEBV?$duration@NU?$ratio@$00$00@std@@@12@@Z DD imagerel $LN3
	DD	imagerel $LN3+78
	DD	imagerel $unwind$??$?0NU?$ratio@$00$00@std@@X@?$duration@NU?$ratio@$00$0DLJKMKAA@@std@@@chrono@std@@QEAA@AEBV?$duration@NU?$ratio@$00$00@std@@@12@@Z
pdata	ENDS
;	COMDAT pdata
pdata	SEGMENT
$pdata$??$?0_JU?$ratio@$00$0DLJKMKAA@@std@@X@?$duration@NU?$ratio@$00$0DLJKMKAA@@std@@@chrono@std@@QEAA@AEBV?$duration@_JU?$ratio@$00$0DLJKMKAA@@std@@@12@@Z DD imagerel $LN3
	DD	imagerel $LN3+78
	DD	imagerel $unwind$??$?0_JU?$ratio@$00$0DLJKMKAA@@std@@X@?$duration@NU?$ratio@$00$0DLJKMKAA@@std@@@chrono@std@@QEAA@AEBV?$duration@_JU?$ratio@$00$0DLJKMKAA@@std@@@12@@Z
pdata	ENDS
;	COMDAT pdata
pdata	SEGMENT
$pdata$??$?0_JX@?$duration@_JU?$ratio@$00$00@std@@@chrono@std@@QEAA@AEB_J@Z DD imagerel $LN3
	DD	imagerel $LN3+34
	DD	imagerel $unwind$??$?0_JX@?$duration@_JU?$ratio@$00$00@std@@@chrono@std@@QEAA@AEB_J@Z
pdata	ENDS
;	COMDAT pdata
pdata	SEGMENT
$pdata$??$duration_cast@V?$duration@_JU?$ratio@$00$0DLJKMKAA@@std@@@chrono@std@@_JU?$ratio@$00$00@3@X@chrono@std@@YA?AV?$duration@_JU?$ratio@$00$0DLJKMKAA@@std@@@01@AEBV?$duration@_JU?$ratio@$00$00@std@@@01@@Z DD imagerel $LN9
	DD	imagerel $LN9+239
	DD	imagerel $unwind$??$duration_cast@V?$duration@_JU?$ratio@$00$0DLJKMKAA@@std@@@chrono@std@@_JU?$ratio@$00$00@3@X@chrono@std@@YA?AV?$duration@_JU?$ratio@$00$0DLJKMKAA@@std@@@01@AEBV?$duration@_JU?$ratio@$00$00@std@@@01@@Z
pdata	ENDS
;	COMDAT pdata
pdata	SEGMENT
$pdata$??$?0U_Exact_args_t@std@@PEAVCPerfMonitor@@$$V$0A@@?$tuple@PEAVCPerfMonitor@@@std@@QEAA@U_Exact_args_t@1@$$QEAPEAVCPerfMonitor@@@Z DD imagerel $LN3
	DD	imagerel $LN3+105
	DD	imagerel $unwind$??$?0U_Exact_args_t@std@@PEAVCPerfMonitor@@$$V$0A@@?$tuple@PEAVCPerfMonitor@@@std@@QEAA@U_Exact_args_t@1@$$QEAPEAVCPerfMonitor@@@Z
pdata	ENDS
;	COMDAT pdata
pdata	SEGMENT
$pdata$??$?0A6AXPEAX@Z@?$_Tuple_val@P6AXPEAX@Z@std@@QEAA@A6AXPEAX@Z@Z DD imagerel $LN3
	DD	imagerel $LN3+64
	DD	imagerel $unwind$??$?0A6AXPEAX@Z@?$_Tuple_val@P6AXPEAX@Z@std@@QEAA@A6AXPEAX@Z@Z
pdata	ENDS
;	COMDAT pdata
pdata	SEGMENT
$pdata$??$forward@AEAPEAV?$tuple@P6AXPEAX@ZPEAVCPerfMonitor@@@std@@@std@@YAAEAPEAV?$tuple@P6AXPEAX@ZPEAVCPerfMonitor@@@0@AEAPEAV10@@Z DD imagerel $LN3
	DD	imagerel $LN3+13
	DD	imagerel $unwind$??$forward@AEAPEAV?$tuple@P6AXPEAX@ZPEAVCPerfMonitor@@@std@@@std@@YAAEAPEAV?$tuple@P6AXPEAX@ZPEAVCPerfMonitor@@@0@AEAPEAV10@@Z
pdata	ENDS
;	COMDAT pdata
pdata	SEGMENT
$pdata$??$duration_cast@V?$duration@NU?$ratio@$00$0DLJKMKAA@@std@@@chrono@std@@NU?$ratio@$00$00@3@X@chrono@std@@YA?AV?$duration@NU?$ratio@$00$0DLJKMKAA@@std@@@01@AEBV?$duration@NU?$ratio@$00$00@std@@@01@@Z DD imagerel $LN9
	DD	imagerel $LN9+261
	DD	imagerel $unwind$??$duration_cast@V?$duration@NU?$ratio@$00$0DLJKMKAA@@std@@@chrono@std@@NU?$ratio@$00$00@3@X@chrono@std@@YA?AV?$duration@NU?$ratio@$00$0DLJKMKAA@@std@@@01@AEBV?$duration@NU?$ratio@$00$00@std@@@01@@Z
pdata	ENDS
;	COMDAT pdata
pdata	SEGMENT
$pdata$??$duration_cast@V?$duration@NU?$ratio@$00$0DLJKMKAA@@std@@@chrono@std@@_JU?$ratio@$00$0DLJKMKAA@@3@X@chrono@std@@YA?AV?$duration@NU?$ratio@$00$0DLJKMKAA@@std@@@01@AEBV?$duration@_JU?$ratio@$00$0DLJKMKAA@@std@@@01@@Z DD imagerel $LN9
	DD	imagerel $LN9+283
	DD	imagerel $unwind$??$duration_cast@V?$duration@NU?$ratio@$00$0DLJKMKAA@@std@@@chrono@std@@_JU?$ratio@$00$0DLJKMKAA@@3@X@chrono@std@@YA?AV?$duration@NU?$ratio@$00$0DLJKMKAA@@std@@@01@AEBV?$duration@_JU?$ratio@$00$0DLJKMKAA@@std@@@01@@Z
pdata	ENDS
;	COMDAT pdata
pdata	SEGMENT
$pdata$??$?0U_Exact_args_t@std@@$0A@@?$tuple@$$V@std@@QEAA@U_Exact_args_t@1@@Z DD imagerel $LN3
	DD	imagerel $LN3+17
	DD	imagerel $unwind$??$?0U_Exact_args_t@std@@$0A@@?$tuple@$$V@std@@QEAA@U_Exact_args_t@1@@Z
pdata	ENDS
;	COMDAT pdata
pdata	SEGMENT
$pdata$??$?0PEAVCPerfMonitor@@@?$_Tuple_val@PEAVCPerfMonitor@@@std@@QEAA@$$QEAPEAVCPerfMonitor@@@Z DD imagerel $LN3
	DD	imagerel $LN3+67
	DD	imagerel $unwind$??$?0PEAVCPerfMonitor@@@?$_Tuple_val@PEAVCPerfMonitor@@@std@@QEAA@$$QEAPEAVCPerfMonitor@@@Z
pdata	ENDS
;	COMDAT pdata
pdata	SEGMENT
$pdata$??$?0NX@?$duration@NU?$ratio@$00$0DLJKMKAA@@std@@@chrono@std@@QEAA@AEBN@Z DD imagerel $LN3
	DD	imagerel $LN3+36
	DD	imagerel $unwind$??$?0NX@?$duration@NU?$ratio@$00$0DLJKMKAA@@std@@@chrono@std@@QEAA@AEBN@Z
pdata	ENDS
CRT$XCU	SEGMENT
?CspMatrixList$initializer$@@3P6AXXZEA DQ FLAT:??__ECspMatrixList@@YAXXZ ; CspMatrixList$initializer$
CRT$XCU	ENDS
;	COMDAT __real@41cdcd6500000000
CONST	SEGMENT
__real@41cdcd6500000000 DQ 041cdcd6500000000r	; 1e+09
CONST	ENDS
;	COMDAT __real@4130000000000000
CONST	SEGMENT
__real@4130000000000000 DQ 04130000000000000r	; 1.04858e+06
CONST	ENDS
;	COMDAT __real@412e848000000000
CONST	SEGMENT
__real@412e848000000000 DQ 0412e848000000000r	; 1e+06
CONST	ENDS
;	COMDAT __real@412a5e0000000000
CONST	SEGMENT
__real@412a5e0000000000 DQ 0412a5e0000000000r	; 864000
CONST	ENDS
;	COMDAT __real@40c3880000000000
CONST	SEGMENT
__real@40c3880000000000 DQ 040c3880000000000r	; 10000
CONST	ENDS
;	COMDAT __real@4059000000000000
CONST	SEGMENT
__real@4059000000000000 DQ 04059000000000000r	; 100
CONST	ENDS
;	COMDAT __real@4020000000000000
CONST	SEGMENT
__real@4020000000000000 DQ 04020000000000000r	; 8
CONST	ENDS
;	COMDAT __real@3ff0000000000000
CONST	SEGMENT
__real@3ff0000000000000 DQ 03ff0000000000000r	; 1
CONST	ENDS
;	COMDAT __real@3fe0000000000000
CONST	SEGMENT
__real@3fe0000000000000 DQ 03fe0000000000000r	; 0.5
CONST	ENDS
;	COMDAT __real@3f50624dd2f1a9fc
CONST	SEGMENT
__real@3f50624dd2f1a9fc DQ 03f50624dd2f1a9fcr	; 0.001
CONST	ENDS
;	COMDAT __real@3eb0c6f7a0b5ed8d
CONST	SEGMENT
__real@3eb0c6f7a0b5ed8d DQ 03eb0c6f7a0b5ed8dr	; 1e-06
CONST	ENDS
;	COMDAT rtc$TMZ
rtc$TMZ	SEGMENT
_RTC_Shutdown.rtc$TMZ DQ FLAT:_RTC_Shutdown
rtc$TMZ	ENDS
;	COMDAT rtc$IMZ
rtc$IMZ	SEGMENT
_RTC_InitBase.rtc$IMZ DQ FLAT:_RTC_InitBase
rtc$IMZ	ENDS
;	COMDAT ??_R1A@?0A@EA@bad_array_new_length@std@@8
rdata$r	SEGMENT
??_R1A@?0A@EA@bad_array_new_length@std@@8 DD imagerel ??_R0?AVbad_array_new_length@std@@@8 ; std::bad_array_new_length::`RTTI Base Class Descriptor at (0,-1,0,64)'
	DD	02H
	DD	00H
	DD	0ffffffffH
	DD	00H
	DD	040H
	DD	imagerel ??_R3bad_array_new_length@std@@8
rdata$r	ENDS
;	COMDAT ??_R2bad_array_new_length@std@@8
rdata$r	SEGMENT
??_R2bad_array_new_length@std@@8 DD imagerel ??_R1A@?0A@EA@bad_array_new_length@std@@8 ; std::bad_array_new_length::`RTTI Base Class Array'
	DD	imagerel ??_R1A@?0A@EA@bad_alloc@std@@8
	DD	imagerel ??_R1A@?0A@EA@exception@std@@8
	ORG $+3
rdata$r	ENDS
;	COMDAT ??_R3bad_array_new_length@std@@8
rdata$r	SEGMENT
??_R3bad_array_new_length@std@@8 DD 00H			; std::bad_array_new_length::`RTTI Class Hierarchy Descriptor'
	DD	00H
	DD	03H
	DD	imagerel ??_R2bad_array_new_length@std@@8
rdata$r	ENDS
;	COMDAT ??_R4bad_array_new_length@std@@6B@
rdata$r	SEGMENT
??_R4bad_array_new_length@std@@6B@ DD 01H		; std::bad_array_new_length::`RTTI Complete Object Locator'
	DD	00H
	DD	00H
	DD	imagerel ??_R0?AVbad_array_new_length@std@@@8
	DD	imagerel ??_R3bad_array_new_length@std@@8
	DD	imagerel ??_R4bad_array_new_length@std@@6B@
rdata$r	ENDS
;	COMDAT ??_R1A@?0A@EA@bad_alloc@std@@8
rdata$r	SEGMENT
??_R1A@?0A@EA@bad_alloc@std@@8 DD imagerel ??_R0?AVbad_alloc@std@@@8 ; std::bad_alloc::`RTTI Base Class Descriptor at (0,-1,0,64)'
	DD	01H
	DD	00H
	DD	0ffffffffH
	DD	00H
	DD	040H
	DD	imagerel ??_R3bad_alloc@std@@8
rdata$r	ENDS
;	COMDAT ??_R2bad_alloc@std@@8
rdata$r	SEGMENT
??_R2bad_alloc@std@@8 DD imagerel ??_R1A@?0A@EA@bad_alloc@std@@8 ; std::bad_alloc::`RTTI Base Class Array'
	DD	imagerel ??_R1A@?0A@EA@exception@std@@8
	ORG $+3
rdata$r	ENDS
;	COMDAT ??_R3bad_alloc@std@@8
rdata$r	SEGMENT
??_R3bad_alloc@std@@8 DD 00H				; std::bad_alloc::`RTTI Class Hierarchy Descriptor'
	DD	00H
	DD	02H
	DD	imagerel ??_R2bad_alloc@std@@8
rdata$r	ENDS
;	COMDAT ??_R4bad_alloc@std@@6B@
rdata$r	SEGMENT
??_R4bad_alloc@std@@6B@ DD 01H				; std::bad_alloc::`RTTI Complete Object Locator'
	DD	00H
	DD	00H
	DD	imagerel ??_R0?AVbad_alloc@std@@@8
	DD	imagerel ??_R3bad_alloc@std@@8
	DD	imagerel ??_R4bad_alloc@std@@6B@
rdata$r	ENDS
;	COMDAT ??_R1A@?0A@EA@exception@std@@8
rdata$r	SEGMENT
??_R1A@?0A@EA@exception@std@@8 DD imagerel ??_R0?AVexception@std@@@8 ; std::exception::`RTTI Base Class Descriptor at (0,-1,0,64)'
	DD	00H
	DD	00H
	DD	0ffffffffH
	DD	00H
	DD	040H
	DD	imagerel ??_R3exception@std@@8
rdata$r	ENDS
;	COMDAT ??_R2exception@std@@8
rdata$r	SEGMENT
??_R2exception@std@@8 DD imagerel ??_R1A@?0A@EA@exception@std@@8 ; std::exception::`RTTI Base Class Array'
	ORG $+3
rdata$r	ENDS
;	COMDAT ??_R3exception@std@@8
rdata$r	SEGMENT
??_R3exception@std@@8 DD 00H				; std::exception::`RTTI Class Hierarchy Descriptor'
	DD	00H
	DD	01H
	DD	imagerel ??_R2exception@std@@8
rdata$r	ENDS
;	COMDAT ??_R4exception@std@@6B@
rdata$r	SEGMENT
??_R4exception@std@@6B@ DD 01H				; std::exception::`RTTI Complete Object Locator'
	DD	00H
	DD	00H
	DD	imagerel ??_R0?AVexception@std@@@8
	DD	imagerel ??_R3exception@std@@8
	DD	imagerel ??_R4exception@std@@6B@
rdata$r	ENDS
;	COMDAT ??_C@_0BA@JFNIOLAK@string?5too?5long@
CONST	SEGMENT
??_C@_0BA@JFNIOLAK@string?5too?5long@ DB 'string too long', 00H ; `string'
CONST	ENDS
;	COMDAT ??_C@_0BD@OLBABOEK@vector?$DMT?$DO?5too?5long@
CONST	SEGMENT
??_C@_0BD@OLBABOEK@vector?$DMT?$DO?5too?5long@ DB 'vector<T> too long', 00H ; `string'
CONST	ENDS
;	COMDAT ??_C@_0BI@CFPLBAOH@invalid?5string?5position@
CONST	SEGMENT
??_C@_0BI@CFPLBAOH@invalid?5string?5position@ DB 'invalid string position'
	DB	00H						; `string'
CONST	ENDS
;	COMDAT ??_R0?AVRGYPipeProcessWin@@@8
data$r	SEGMENT
??_R0?AVRGYPipeProcessWin@@@8 DQ FLAT:??_7type_info@@6B@ ; RGYPipeProcessWin `RTTI Type Descriptor'
	DQ	0000000000000000H
	DB	'.?AVRGYPipeProcessWin@@', 00H
data$r	ENDS
;	COMDAT ??_R0?AVRGYPipeProcess@@@8
data$r	SEGMENT
??_R0?AVRGYPipeProcess@@@8 DQ FLAT:??_7type_info@@6B@	; RGYPipeProcess `RTTI Type Descriptor'
	DQ	0000000000000000H
	DB	'.?AVRGYPipeProcess@@', 00H
data$r	ENDS
;	COMDAT ??_C@_1CG@JNLFBNGN@?$AA?$CC?$AAi?$AAn?$AAv?$AAa?$AAl?$AAi?$AAd?$AA?5?$AAa?$AAr?$AAg?$AAu?$AAm?$AAe@
CONST	SEGMENT
??_C@_1CG@JNLFBNGN@?$AA?$CC?$AAi?$AAn?$AAv?$AAa?$AAl?$AAi?$AAd?$AA?5?$AAa?$AAr?$AAg?$AAu?$AAm?$AAe@ DB '"'
	DB	00H, 'i', 00H, 'n', 00H, 'v', 00H, 'a', 00H, 'l', 00H, 'i', 00H
	DB	'd', 00H, ' ', 00H, 'a', 00H, 'r', 00H, 'g', 00H, 'u', 00H, 'm'
	DB	00H, 'e', 00H, 'n', 00H, 't', 00H, '"', 00H, 00H, 00H ; `string'
CONST	ENDS
;	COMDAT ??_C@_1EK@NIFDJFDG@?$AAs?$AAt?$AAd?$AA?3?$AA?3?$AA_?$AAA?$AAd?$AAj?$AAu?$AAs?$AAt?$AA_?$AAm?$AAa@
CONST	SEGMENT
??_C@_1EK@NIFDJFDG@?$AAs?$AAt?$AAd?$AA?3?$AA?3?$AA_?$AAA?$AAd?$AAj?$AAu?$AAs?$AAt?$AA_?$AAm?$AAa@ DB 's'
	DB	00H, 't', 00H, 'd', 00H, ':', 00H, ':', 00H, '_', 00H, 'A', 00H
	DB	'd', 00H, 'j', 00H, 'u', 00H, 's', 00H, 't', 00H, '_', 00H, 'm'
	DB	00H, 'a', 00H, 'n', 00H, 'u', 00H, 'a', 00H, 'l', 00H, 'l', 00H
	DB	'y', 00H, '_', 00H, 'v', 00H, 'e', 00H, 'c', 00H, 't', 00H, 'o'
	DB	00H, 'r', 00H, '_', 00H, 'a', 00H, 'l', 00H, 'i', 00H, 'g', 00H
	DB	'n', 00H, 'e', 00H, 'd', 00H, 00H, 00H	; `string'
CONST	ENDS
;	COMDAT ??_C@_1NA@CDBIFGMM@?$AAC?$AA?3?$AA?2?$AAP?$AAr?$AAo?$AAg?$AAr?$AAa?$AAm?$AA?5?$AAF?$AAi?$AAl?$AAe@
CONST	SEGMENT
??_C@_1NA@CDBIFGMM@?$AAC?$AA?3?$AA?2?$AAP?$AAr?$AAo?$AAg?$AAr?$AAa?$AAm?$AA?5?$AAF?$AAi?$AAl?$AAe@ DB 'C'
	DB	00H, ':', 00H, '\', 00H, 'P', 00H, 'r', 00H, 'o', 00H, 'g', 00H
	DB	'r', 00H, 'a', 00H, 'm', 00H, ' ', 00H, 'F', 00H, 'i', 00H, 'l'
	DB	00H, 'e', 00H, 's', 00H, ' ', 00H, '(', 00H, 'x', 00H, '8', 00H
	DB	'6', 00H, ')', 00H, '\', 00H, 'M', 00H, 'i', 00H, 'c', 00H, 'r'
	DB	00H, 'o', 00H, 's', 00H, 'o', 00H, 'f', 00H, 't', 00H, ' ', 00H
	DB	'V', 00H, 'i', 00H, 's', 00H, 'u', 00H, 'a', 00H, 'l', 00H, ' '
	DB	00H, 'S', 00H, 't', 00H, 'u', 00H, 'd', 00H, 'i', 00H, 'o', 00H
	DB	'\', 00H, '2', 00H, '0', 00H, '1', 00H, '9', 00H, '\', 00H, 'C'
	DB	00H, 'o', 00H, 'm', 00H, 'm', 00H, 'u', 00H, 'n', 00H, 'i', 00H
	DB	't', 00H, 'y', 00H, '\', 00H, 'V', 00H, 'C', 00H, '\', 00H, 'T'
	DB	00H, 'o', 00H, 'o', 00H, 'l', 00H, 's', 00H, '\', 00H, 'M', 00H
	DB	'S', 00H, 'V', 00H, 'C', 00H, '\', 00H, '1', 00H, '4', 00H, '.'
	DB	00H, '2', 00H, '3', 00H, '.', 00H, '2', 00H, '8', 00H, '1', 00H
	DB	'0', 00H, '5', 00H, '\', 00H, 'i', 00H, 'n', 00H, 'c', 00H, 'l'
	DB	00H, 'u', 00H, 'd', 00H, 'e', 00H, '\', 00H, 'x', 00H, 'm', 00H
	DB	'e', 00H, 'm', 00H, 'o', 00H, 'r', 00H, 'y', 00H, 00H, 00H ; `string'
CONST	ENDS
;	COMDAT ??_C@_0GI@FJIKDGOA@C?3?2Program?5Files?5?$CIx86?$CJ?2Microsof@
CONST	SEGMENT
??_C@_0GI@FJIKDGOA@C?3?2Program?5Files?5?$CIx86?$CJ?2Microsof@ DB 'C:\Pro'
	DB	'gram Files (x86)\Microsoft Visual Studio\2019\Community\VC\To'
	DB	'ols\MSVC\14.23.28105\include\xmemory', 00H	; `string'
CONST	ENDS
;	COMDAT ??_C@_02DKCKIIND@?$CFs@
CONST	SEGMENT
??_C@_02DKCKIIND@?$CFs@ DB '%s', 00H			; `string'
CONST	ENDS
;	COMDAT ??_C@_0BB@FCMFBGOM@invalid?5argument@
CONST	SEGMENT
??_C@_0BB@FCMFBGOM@invalid?5argument@ DB 'invalid argument', 00H ; `string'
CONST	ENDS
;	COMDAT _CT??_R0?AVexception@std@@@8??0exception@std@@QEAA@AEBV01@@Z24
xdata$x	SEGMENT
_CT??_R0?AVexception@std@@@8??0exception@std@@QEAA@AEBV01@@Z24 DD 00H
	DD	imagerel ??_R0?AVexception@std@@@8
	DD	00H
	DD	0ffffffffH
	ORG $+4
	DD	018H
	DD	imagerel ??0exception@std@@QEAA@AEBV01@@Z
xdata$x	ENDS
;	COMDAT ??_R0?AVexception@std@@@8
data$r	SEGMENT
??_R0?AVexception@std@@@8 DQ FLAT:??_7type_info@@6B@	; std::exception `RTTI Type Descriptor'
	DQ	0000000000000000H
	DB	'.?AVexception@std@@', 00H
data$r	ENDS
;	COMDAT _CT??_R0?AVbad_alloc@std@@@8??0bad_alloc@std@@QEAA@AEBV01@@Z24
xdata$x	SEGMENT
_CT??_R0?AVbad_alloc@std@@@8??0bad_alloc@std@@QEAA@AEBV01@@Z24 DD 010H
	DD	imagerel ??_R0?AVbad_alloc@std@@@8
	DD	00H
	DD	0ffffffffH
	ORG $+4
	DD	018H
	DD	imagerel ??0bad_alloc@std@@QEAA@AEBV01@@Z
xdata$x	ENDS
;	COMDAT ??_R0?AVbad_alloc@std@@@8
data$r	SEGMENT
??_R0?AVbad_alloc@std@@@8 DQ FLAT:??_7type_info@@6B@	; std::bad_alloc `RTTI Type Descriptor'
	DQ	0000000000000000H
	DB	'.?AVbad_alloc@std@@', 00H
data$r	ENDS
;	COMDAT _CT??_R0?AVbad_array_new_length@std@@@8??0bad_array_new_length@std@@QEAA@AEBV01@@Z24
xdata$x	SEGMENT
_CT??_R0?AVbad_array_new_length@std@@@8??0bad_array_new_length@std@@QEAA@AEBV01@@Z24 DD 00H
	DD	imagerel ??_R0?AVbad_array_new_length@std@@@8
	DD	00H
	DD	0ffffffffH
	ORG $+4
	DD	018H
	DD	imagerel ??0bad_array_new_length@std@@QEAA@AEBV01@@Z
xdata$x	ENDS
;	COMDAT ??_R0?AVbad_array_new_length@std@@@8
data$r	SEGMENT
??_R0?AVbad_array_new_length@std@@@8 DQ FLAT:??_7type_info@@6B@ ; std::bad_array_new_length `RTTI Type Descriptor'
	DQ	0000000000000000H
	DB	'.?AVbad_array_new_length@std@@', 00H
data$r	ENDS
;	COMDAT _CTA3?AVbad_array_new_length@std@@
xdata$x	SEGMENT
_CTA3?AVbad_array_new_length@std@@ DD 03H
	DD	imagerel _CT??_R0?AVbad_array_new_length@std@@@8??0bad_array_new_length@std@@QEAA@AEBV01@@Z24
	DD	imagerel _CT??_R0?AVbad_alloc@std@@@8??0bad_alloc@std@@QEAA@AEBV01@@Z24
	DD	imagerel _CT??_R0?AVexception@std@@@8??0exception@std@@QEAA@AEBV01@@Z24
xdata$x	ENDS
;	COMDAT _TI3?AVbad_array_new_length@std@@
xdata$x	SEGMENT
_TI3?AVbad_array_new_length@std@@ DD 00H
	DD	imagerel ??1bad_array_new_length@std@@UEAA@XZ
	DD	00H
	DD	imagerel _CTA3?AVbad_array_new_length@std@@
xdata$x	ENDS
;	COMDAT ??_C@_0BF@KINCDENJ@bad?5array?5new?5length@
CONST	SEGMENT
??_C@_0BF@KINCDENJ@bad?5array?5new?5length@ DB 'bad array new length', 00H ; `string'
CONST	ENDS
;	COMDAT ??_7bad_array_new_length@std@@6B@
CONST	SEGMENT
??_7bad_array_new_length@std@@6B@ DQ FLAT:??_R4bad_array_new_length@std@@6B@ ; std::bad_array_new_length::`vftable'
	DQ	FLAT:??_Ebad_array_new_length@std@@UEAAPEAXI@Z
	DQ	FLAT:?what@exception@std@@UEBAPEBDXZ
CONST	ENDS
;	COMDAT ??_7bad_alloc@std@@6B@
CONST	SEGMENT
??_7bad_alloc@std@@6B@ DQ FLAT:??_R4bad_alloc@std@@6B@	; std::bad_alloc::`vftable'
	DQ	FLAT:??_Ebad_alloc@std@@UEAAPEAXI@Z
	DQ	FLAT:?what@exception@std@@UEBAPEBDXZ
CONST	ENDS
;	COMDAT ??_C@_0BC@EOODALEL@Unknown?5exception@
CONST	SEGMENT
??_C@_0BC@EOODALEL@Unknown?5exception@ DB 'Unknown exception', 00H ; `string'
CONST	ENDS
;	COMDAT ??_7exception@std@@6B@
CONST	SEGMENT
??_7exception@std@@6B@ DQ FLAT:??_R4exception@std@@6B@	; std::exception::`vftable'
	DQ	FLAT:??_Eexception@std@@UEAAPEAXI@Z
	DQ	FLAT:?what@exception@std@@UEBAPEBDXZ
CONST	ENDS
;	COMDAT xdata
xdata	SEGMENT
$unwind$??$?0NX@?$duration@NU?$ratio@$00$0DLJKMKAA@@std@@@chrono@std@@QEAA@AEBN@Z DD 010b01H
	DD	0700bH
xdata	ENDS
;	COMDAT xdata
xdata	SEGMENT
$unwind$??$?0PEAVCPerfMonitor@@@?$_Tuple_val@PEAVCPerfMonitor@@@std@@QEAA@$$QEAPEAVCPerfMonitor@@@Z DD 022301H
	DD	0700b320fH
xdata	ENDS
;	COMDAT xdata
xdata	SEGMENT
$unwind$??$?0U_Exact_args_t@std@@$0A@@?$tuple@$$V@std@@QEAA@U_Exact_args_t@1@@Z DD 010a01H
	DD	0700aH
xdata	ENDS
;	COMDAT xdata
xdata	SEGMENT
$unwind$??$duration_cast@V?$duration@NU?$ratio@$00$0DLJKMKAA@@std@@@chrono@std@@_JU?$ratio@$00$0DLJKMKAA@@3@X@chrono@std@@YA?AV?$duration@NU?$ratio@$00$0DLJKMKAA@@std@@@01@AEBV?$duration@_JU?$ratio@$00$0DLJKMKAA@@std@@@01@@Z DD 022301H
	DD	0700b920fH
xdata	ENDS
;	COMDAT xdata
xdata	SEGMENT
$unwind$??$duration_cast@V?$duration@NU?$ratio@$00$0DLJKMKAA@@std@@@chrono@std@@NU?$ratio@$00$00@3@X@chrono@std@@YA?AV?$duration@NU?$ratio@$00$0DLJKMKAA@@std@@@01@AEBV?$duration@NU?$ratio@$00$00@std@@@01@@Z DD 022301H
	DD	0700b920fH
xdata	ENDS
;	COMDAT xdata
xdata	SEGMENT
$unwind$??$forward@AEAPEAV?$tuple@P6AXPEAX@ZPEAVCPerfMonitor@@@std@@@std@@YAAEAPEAV?$tuple@P6AXPEAX@ZPEAVCPerfMonitor@@@0@AEAPEAV10@@Z DD 010601H
	DD	07006H
xdata	ENDS
;	COMDAT xdata
xdata	SEGMENT
$unwind$??$?0A6AXPEAX@Z@?$_Tuple_val@P6AXPEAX@Z@std@@QEAA@A6AXPEAX@Z@Z DD 022301H
	DD	0700b320fH
xdata	ENDS
;	COMDAT xdata
xdata	SEGMENT
$unwind$??$?0U_Exact_args_t@std@@PEAVCPerfMonitor@@$$V$0A@@?$tuple@PEAVCPerfMonitor@@@std@@QEAA@U_Exact_args_t@1@$$QEAPEAVCPerfMonitor@@@Z DD 022701H
	DD	0700f5213H
xdata	ENDS
;	COMDAT xdata
xdata	SEGMENT
$unwind$??$duration_cast@V?$duration@_JU?$ratio@$00$0DLJKMKAA@@std@@@chrono@std@@_JU?$ratio@$00$00@3@X@chrono@std@@YA?AV?$duration@_JU?$ratio@$00$0DLJKMKAA@@std@@@01@AEBV?$duration@_JU?$ratio@$00$00@std@@@01@@Z DD 022301H
	DD	0700b920fH
xdata	ENDS
;	COMDAT xdata
xdata	SEGMENT
$unwind$??$?0_JX@?$duration@_JU?$ratio@$00$00@std@@@chrono@std@@QEAA@AEB_J@Z DD 010b01H
	DD	0700bH
xdata	ENDS
;	COMDAT xdata
xdata	SEGMENT
$unwind$??$?0_JU?$ratio@$00$0DLJKMKAA@@std@@X@?$duration@NU?$ratio@$00$0DLJKMKAA@@std@@@chrono@std@@QEAA@AEBV?$duration@_JU?$ratio@$00$0DLJKMKAA@@std@@@12@@Z DD 022301H
	DD	0700b520fH
xdata	ENDS
;	COMDAT xdata
xdata	SEGMENT
$unwind$??$?0NU?$ratio@$00$00@std@@X@?$duration@NU?$ratio@$00$0DLJKMKAA@@std@@@chrono@std@@QEAA@AEBV?$duration@NU?$ratio@$00$00@std@@@12@@Z DD 022301H
	DD	0700b520fH
xdata	ENDS
;	COMDAT xdata
xdata	SEGMENT
$unwind$??$duration_cast@V?$duration@_JU?$ratio@$00$0DLJKMKAA@@std@@@chrono@std@@_JU?$ratio@$00$0JIJGIA@@3@X@chrono@std@@YA?AV?$duration@_JU?$ratio@$00$0DLJKMKAA@@std@@@01@AEBV?$duration@_JU?$ratio@$00$0JIJGIA@@std@@@01@@Z DD 022301H
	DD	0700b920fH
xdata	ENDS
;	COMDAT xdata
xdata	SEGMENT
$unwind$??$?M_JU?$ratio@$00$0DLJKMKAA@@std@@_JU01@@chrono@std@@YA_NAEBV?$duration@_JU?$ratio@$00$0DLJKMKAA@@std@@@01@0@Z DD 022301H
	DD	0700b720fH
xdata	ENDS
;	COMDAT xdata
xdata	SEGMENT
$unwind$??$?0AEAPEAV?$tuple@P6AXPEAX@ZPEAVCPerfMonitor@@@std@@@?$_Compressed_pair@U?$default_delete@V?$tuple@P6AXPEAX@ZPEAVCPerfMonitor@@@std@@@std@@PEAV?$tuple@P6AXPEAX@ZPEAVCPerfMonitor@@@2@$00@std@@QEAA@U_Zero_then_variadic_args_t@1@AEAPEAV?$tuple@P6AXPEAX@ZPEAVCPerfMonitor@@@1@@Z DD 022701H
	DD	0700f3213H
xdata	ENDS
;	COMDAT xdata
xdata	SEGMENT
$unwind$??$?0U_Exact_args_t@std@@A6AXPEAX@ZPEAVCPerfMonitor@@$0A@@?$tuple@P6AXPEAX@ZPEAVCPerfMonitor@@@std@@QEAA@U_Exact_args_t@1@A6AXPEAX@Z$$QEAPEAVCPerfMonitor@@@Z DD 022c01H
	DD	070145218H
xdata	ENDS
;	COMDAT xdata
xdata	SEGMENT
$unwind$??$?0_JU?$ratio@$00$00@std@@X@?$duration@_JU?$ratio@$00$0DLJKMKAA@@std@@@chrono@std@@QEAA@AEBV?$duration@_JU?$ratio@$00$00@std@@@12@@Z DD 022301H
	DD	0700b520fH
xdata	ENDS
;	COMDAT xdata
xdata	SEGMENT
$unwind$??$duration_cast@V?$duration@_JU?$ratio@$00$00@std@@@chrono@std@@_JU?$ratio@$00$0DLJKMKAA@@3@X@chrono@std@@YA?AV?$duration@_JU?$ratio@$00$00@std@@@01@AEBV?$duration@_JU?$ratio@$00$0DLJKMKAA@@std@@@01@@Z DD 022301H
	DD	0700b920fH
xdata	ENDS
;	COMDAT xdata
xdata	SEGMENT
$unwind$??$duration_cast@V?$duration@_JU?$ratio@$00$0DLJKMKAA@@std@@@chrono@std@@_JU?$ratio@$00$0DLJKMKAA@@3@X@chrono@std@@YA?AV?$duration@_JU?$ratio@$00$0DLJKMKAA@@std@@@01@AEBV201@@Z DD 022301H
	DD	0700b920fH
xdata	ENDS
;	COMDAT xdata
xdata	SEGMENT
$unwind$??$?MNU?$ratio@$00$00@std@@_JU?$ratio@$00$0DLJKMKAA@@1@@chrono@std@@YA_NAEBV?$duration@NU?$ratio@$00$00@std@@@01@AEBV?$duration@_JU?$ratio@$00$0DLJKMKAA@@std@@@01@@Z DD 022301H
	DD	0700b720fH
xdata	ENDS
;	COMDAT xdata
xdata	SEGMENT
$unwind$??$?0_JU?$ratio@$00$0JIJGIA@@std@@X@?$duration@_JU?$ratio@$00$0DLJKMKAA@@std@@@chrono@std@@QEAA@AEBV?$duration@_JU?$ratio@$00$0JIJGIA@@std@@@12@@Z DD 022301H
	DD	0700b520fH
xdata	ENDS
;	COMDAT xdata
xdata	SEGMENT
$unwind$??$?MUsteady_clock@chrono@std@@V?$duration@_JU?$ratio@$00$0DLJKMKAA@@std@@@12@V312@@chrono@std@@YA_NAEBV?$time_point@Usteady_clock@chrono@std@@V?$duration@_JU?$ratio@$00$0DLJKMKAA@@std@@@23@@01@0@Z DD 022301H
	DD	0700b720fH
xdata	ENDS
;	COMDAT xdata
xdata	SEGMENT
$unwind$??$duration_cast@V?$duration@_JU?$ratio@$00$0DLJKMKAA@@std@@@chrono@std@@_JU?$ratio@$00$0DOI@@3@X@chrono@std@@YA?AV?$duration@_JU?$ratio@$00$0DLJKMKAA@@std@@@01@AEBV?$duration@_JU?$ratio@$00$0DOI@@std@@@01@@Z DD 022301H
	DD	0700b920fH
xdata	ENDS
;	COMDAT xdata
xdata	SEGMENT
$unwind$??$_Copy_memmove@PEAPEBDPEAPEBD@std@@YAPEAPEBDPEAPEBD00@Z DD 022801H
	DD	070107214H
xdata	ENDS
;	COMDAT xdata
xdata	SEGMENT
$unwind$??$_Get_unwrapped@PEBD@std@@YAPEAPEBDQEAPEBD@Z DD 010601H
	DD	07006H
xdata	ENDS
;	COMDAT xdata
xdata	SEGMENT
$unwind$?deallocate@?$_Default_allocator_traits@V?$allocator@U_Container_proxy@std@@@std@@@std@@SAXAEAV?$allocator@U_Container_proxy@std@@@2@QEAU_Container_proxy@2@_K@Z DD 022801H
	DD	070103214H
xdata	ENDS
;	COMDAT xdata
xdata	SEGMENT
$unwind$??$?H_JU?$ratio@$00$0DLJKMKAA@@std@@_JU?$ratio@$00$0DOI@@1@@chrono@std@@YA?AV?$duration@_JU?$ratio@$00$0DLJKMKAA@@std@@@01@AEBV201@AEBV?$duration@_JU?$ratio@$00$0DOI@@std@@@01@@Z DD 022801H
	DD	070107214H
xdata	ENDS
;	COMDAT xdata
xdata	SEGMENT
$unwind$??$invoke@P6AXPEAX@ZPEAVCPerfMonitor@@@std@@YAX$$QEAP6AXPEAX@Z$$QEAPEAVCPerfMonitor@@@Z DD 022301H
	DD	0700b520fH
xdata	ENDS
;	COMDAT xdata
xdata	SEGMENT
$unwind$??$_Call@P6AXPEAX@ZPEAVCPerfMonitor@@@_Invoker_functor@std@@SAX$$QEAP6AXPEAX@Z$$QEAPEAVCPerfMonitor@@@Z DD 022301H
	DD	0700b520fH
xdata	ENDS
;	COMDAT xdata
xdata	SEGMENT
$unwind$??$forward@P6AXPEAX@Z@std@@YA$$QEAP6AXPEAX@ZAEAP6AX0@Z@Z DD 010601H
	DD	07006H
xdata	ENDS
;	COMDAT xdata
xdata	SEGMENT
$unwind$??$get@$00P6AXPEAX@ZPEAVCPerfMonitor@@@std@@YAAEAPEAVCPerfMonitor@@AEAV?$tuple@P6AXPEAX@ZPEAVCPerfMonitor@@@0@@Z DD 010601H
	DD	07006H
xdata	ENDS
;	COMDAT xdata
xdata	SEGMENT
$unwind$??$move@AEAP6AXPEAX@Z@std@@YA$$QEAP6AXPEAX@ZAEAP6AX0@Z@Z DD 010601H
	DD	07006H
xdata	ENDS
;	COMDAT xdata
xdata	SEGMENT
$unwind$??$get@$0A@P6AXPEAX@ZPEAVCPerfMonitor@@@std@@YAAEAP6AXPEAX@ZAEAV?$tuple@P6AXPEAX@ZPEAVCPerfMonitor@@@0@@Z DD 010601H
	DD	07006H
xdata	ENDS
;	COMDAT xdata
xdata	SEGMENT
$ip2state$??$?0U?$default_delete@V?$tuple@P6AXPEAX@ZPEAVCPerfMonitor@@@std@@@std@@$0A@@?$unique_ptr@V?$tuple@P6AXPEAX@ZPEAVCPerfMonitor@@@std@@U?$default_delete@V?$tuple@P6AXPEAX@ZPEAVCPerfMonitor@@@std@@@2@@std@@QEAA@PEAV?$tuple@P6AXPEAX@ZPEAVCPerfMonitor@@@1@@Z DB 02H
	DB	00H
	DB	00H
xdata	ENDS
;	COMDAT xdata
xdata	SEGMENT
$cppxdata$??$?0U?$default_delete@V?$tuple@P6AXPEAX@ZPEAVCPerfMonitor@@@std@@@std@@$0A@@?$unique_ptr@V?$tuple@P6AXPEAX@ZPEAVCPerfMonitor@@@std@@U?$default_delete@V?$tuple@P6AXPEAX@ZPEAVCPerfMonitor@@@std@@@2@@std@@QEAA@PEAV?$tuple@P6AXPEAX@ZPEAVCPerfMonitor@@@1@@Z DB 040H
	DD	imagerel $ip2state$??$?0U?$default_delete@V?$tuple@P6AXPEAX@ZPEAVCPerfMonitor@@@std@@@std@@$0A@@?$unique_ptr@V?$tuple@P6AXPEAX@ZPEAVCPerfMonitor@@@std@@U?$default_delete@V?$tuple@P6AXPEAX@ZPEAVCPerfMonitor@@@std@@@2@@std@@QEAA@PEAV?$tuple@P6AXPEAX@ZPEAVCPerfMonitor@@@1@@Z
xdata	ENDS
;	COMDAT xdata
xdata	SEGMENT
$unwind$??$?0U?$default_delete@V?$tuple@P6AXPEAX@ZPEAVCPerfMonitor@@@std@@@std@@$0A@@?$unique_ptr@V?$tuple@P6AXPEAX@ZPEAVCPerfMonitor@@@std@@U?$default_delete@V?$tuple@P6AXPEAX@ZPEAVCPerfMonitor@@@std@@@2@@std@@QEAA@PEAV?$tuple@P6AXPEAX@ZPEAVCPerfMonitor@@@1@@Z DD 022319H
	DD	0700b520fH
	DD	imagerel __CxxFrameHandler4
	DD	imagerel $cppxdata$??$?0U?$default_delete@V?$tuple@P6AXPEAX@ZPEAVCPerfMonitor@@@std@@@std@@$0A@@?$unique_ptr@V?$tuple@P6AXPEAX@ZPEAVCPerfMonitor@@@std@@U?$default_delete@V?$tuple@P6AXPEAX@ZPEAVCPerfMonitor@@@std@@@2@@std@@QEAA@PEAV?$tuple@P6AXPEAX@ZPEAVCPerfMonitor@@@1@@Z
xdata	ENDS
;	COMDAT xdata
xdata	SEGMENT
$ip2state$??$?0A6AXPEAX@ZPEAVCPerfMonitor@@$0A@@?$tuple@P6AXPEAX@ZPEAVCPerfMonitor@@@std@@QEAA@A6AXPEAX@Z$$QEAPEAVCPerfMonitor@@@Z DB 02H
	DB	00H
	DB	00H
xdata	ENDS
;	COMDAT xdata
xdata	SEGMENT
$cppxdata$??$?0A6AXPEAX@ZPEAVCPerfMonitor@@$0A@@?$tuple@P6AXPEAX@ZPEAVCPerfMonitor@@@std@@QEAA@A6AXPEAX@Z$$QEAPEAVCPerfMonitor@@@Z DB 040H
	DD	imagerel $ip2state$??$?0A6AXPEAX@ZPEAVCPerfMonitor@@$0A@@?$tuple@P6AXPEAX@ZPEAVCPerfMonitor@@@std@@QEAA@A6AXPEAX@Z$$QEAPEAVCPerfMonitor@@@Z
xdata	ENDS
;	COMDAT xdata
xdata	SEGMENT
$unwind$??$?0A6AXPEAX@ZPEAVCPerfMonitor@@$0A@@?$tuple@P6AXPEAX@ZPEAVCPerfMonitor@@@std@@QEAA@A6AXPEAX@Z$$QEAPEAVCPerfMonitor@@@Z DD 022819H
	DD	070105214H
	DD	imagerel __CxxFrameHandler4
	DD	imagerel $cppxdata$??$?0A6AXPEAX@ZPEAVCPerfMonitor@@$0A@@?$tuple@P6AXPEAX@ZPEAVCPerfMonitor@@@std@@QEAA@A6AXPEAX@Z$$QEAPEAVCPerfMonitor@@@Z
xdata	ENDS
;	COMDAT xdata
xdata	SEGMENT
$unwind$??$forward@AEAPEAVRGYPipeProcess@@@std@@YAAEAPEAVRGYPipeProcess@@AEAPEAV1@@Z DD 010601H
	DD	07006H
xdata	ENDS
;	COMDAT xdata
xdata	SEGMENT
$unwind$??$forward@AEAPEAU_iobuf@@@std@@YAAEAPEAU_iobuf@@AEAPEAU1@@Z DD 010601H
	DD	07006H
xdata	ENDS
;	COMDAT xdata
xdata	SEGMENT
$unwind$??$_To_xtime_10_day_clamped@_JU?$ratio@$00$0DLJKMKAA@@std@@@std@@YA_NAEAUxtime@@AEBV?$duration@_JU?$ratio@$00$0DLJKMKAA@@std@@@chrono@0@@Z DD 032901H
	DD	0180112H
	DD	0700bH
xdata	ENDS
;	COMDAT CONST
CONST	SEGMENT
??$_To_xtime_10_day_clamped@_JU?$ratio@$00$0DLJKMKAA@@std@@@std@@YA_NAEAUxtime@@AEBV?$duration@_JU?$ratio@$00$0DLJKMKAA@@std@@@chrono@0@@Z$rtcName$0 DB 05fH ; std::_To_xtime_10_day_clamped<__int64,std::ratio<1,1000000000> >
	DB	054H
	DB	065H
	DB	06eH
	DB	05fH
	DB	064H
	DB	061H
	DB	079H
	DB	073H
	DB	00H
	ORG $+6
??$_To_xtime_10_day_clamped@_JU?$ratio@$00$0DLJKMKAA@@std@@@std@@YA_NAEAUxtime@@AEBV?$duration@_JU?$ratio@$00$0DLJKMKAA@@std@@@chrono@0@@Z$rtcName$1 DB 05fH ; std::_To_xtime_10_day_clamped<__int64,std::ratio<1,1000000000> >
	DB	054H
	DB	065H
	DB	06eH
	DB	05fH
	DB	064H
	DB	061H
	DB	079H
	DB	073H
	DB	05fH
	DB	064H
	DB	00H
??$_To_xtime_10_day_clamped@_JU?$ratio@$00$0DLJKMKAA@@std@@@std@@YA_NAEAUxtime@@AEBV?$duration@_JU?$ratio@$00$0DLJKMKAA@@std@@@chrono@0@@Z$rtcName$2 DB 05fH ; std::_To_xtime_10_day_clamped<__int64,std::ratio<1,1000000000> >
	DB	054H
	DB	030H
	DB	00H
??$_To_xtime_10_day_clamped@_JU?$ratio@$00$0DLJKMKAA@@std@@@std@@YA_NAEAUxtime@@AEBV?$duration@_JU?$ratio@$00$0DLJKMKAA@@std@@@chrono@0@@Z$rtcName$3 DB 05fH ; std::_To_xtime_10_day_clamped<__int64,std::ratio<1,1000000000> >
	DB	057H
	DB	068H
	DB	06fH
	DB	06cH
	DB	065H
	DB	05fH
	DB	073H
	DB	065H
	DB	063H
	DB	06fH
	DB	06eH
	DB	064H
	DB	073H
	DB	00H
	ORG $+1
??$_To_xtime_10_day_clamped@_JU?$ratio@$00$0DLJKMKAA@@std@@@std@@YA_NAEAUxtime@@AEBV?$duration@_JU?$ratio@$00$0DLJKMKAA@@std@@@chrono@0@@Z$rtcVarDesc DD 088H ; std::_To_xtime_10_day_clamped<__int64,std::ratio<1,1000000000> >
	DD	08H
	DQ	FLAT:??$_To_xtime_10_day_clamped@_JU?$ratio@$00$0DLJKMKAA@@std@@@std@@YA_NAEAUxtime@@AEBV?$duration@_JU?$ratio@$00$0DLJKMKAA@@std@@@chrono@0@@Z$rtcName$3
	DD	068H
	DD	08H
	DQ	FLAT:??$_To_xtime_10_day_clamped@_JU?$ratio@$00$0DLJKMKAA@@std@@@std@@YA_NAEAUxtime@@AEBV?$duration@_JU?$ratio@$00$0DLJKMKAA@@std@@@chrono@0@@Z$rtcName$2
	DD	048H
	DD	08H
	DQ	FLAT:??$_To_xtime_10_day_clamped@_JU?$ratio@$00$0DLJKMKAA@@std@@@std@@YA_NAEAUxtime@@AEBV?$duration@_JU?$ratio@$00$0DLJKMKAA@@std@@@chrono@0@@Z$rtcName$1
	DD	028H
	DD	08H
	DQ	FLAT:??$_To_xtime_10_day_clamped@_JU?$ratio@$00$0DLJKMKAA@@std@@@std@@YA_NAEAUxtime@@AEBV?$duration@_JU?$ratio@$00$0DLJKMKAA@@std@@@chrono@0@@Z$rtcName$0
	ORG $+192
??$_To_xtime_10_day_clamped@_JU?$ratio@$00$0DLJKMKAA@@std@@@std@@YA_NAEAUxtime@@AEBV?$duration@_JU?$ratio@$00$0DLJKMKAA@@std@@@chrono@0@@Z$rtcFrameData DD 04H ; std::_To_xtime_10_day_clamped<__int64,std::ratio<1,1000000000> >
	DD	00H
	DQ	FLAT:??$_To_xtime_10_day_clamped@_JU?$ratio@$00$0DLJKMKAA@@std@@@std@@YA_NAEAUxtime@@AEBV?$duration@_JU?$ratio@$00$0DLJKMKAA@@std@@@chrono@0@@Z$rtcVarDesc
CONST	ENDS
;	COMDAT xdata
xdata	SEGMENT
$unwind$??$?NUsteady_clock@chrono@std@@V?$duration@_JU?$ratio@$00$0DLJKMKAA@@std@@@12@V312@@chrono@std@@YA_NAEBV?$time_point@Usteady_clock@chrono@std@@V?$duration@_JU?$ratio@$00$0DLJKMKAA@@std@@@23@@01@0@Z DD 022301H
	DD	0700b520fH
xdata	ENDS
;	COMDAT xdata
xdata	SEGMENT
$unwind$??$?0_JU?$ratio@$00$0DOI@@std@@X@?$duration@_JU?$ratio@$00$0DLJKMKAA@@std@@@chrono@std@@QEAA@AEBV?$duration@_JU?$ratio@$00$0DOI@@std@@@12@@Z DD 022301H
	DD	0700b520fH
xdata	ENDS
;	COMDAT xdata
xdata	SEGMENT
$unwind$??$_Reallocate_grow_by@V<lambda_f3a66ab6a0570788f31503db83886f49>@@_KPEBD_K@?$basic_string@DU?$char_traits@D@std@@V?$allocator@D@2@@std@@AEAAAEAV01@_KV<lambda_f3a66ab6a0570788f31503db83886f49>@@_KPEBD2@Z DD 033301H
	DD	014011cH
	DD	07015H
xdata	ENDS
;	COMDAT CONST
CONST	SEGMENT
??$_Reallocate_grow_by@V<lambda_f3a66ab6a0570788f31503db83886f49>@@_KPEBD_K@?$basic_string@DU?$char_traits@D@std@@V?$allocator@D@2@@std@@AEAAAEAV01@_KV<lambda_f3a66ab6a0570788f31503db83886f49>@@_KPEBD2@Z$rtcName$0 DB 05fH ; std::basic_string<char,std::char_traits<char>,std::allocator<char> >::_Reallocate_grow_by<<lambda_f3a66ab6a0570788f31503db83886f49>,unsigned __int64,char const *,unsigned __int64>
	DB	04eH
	DB	065H
	DB	077H
	DB	05fH
	DB	070H
	DB	074H
	DB	072H
	DB	00H
	ORG $+7
??$_Reallocate_grow_by@V<lambda_f3a66ab6a0570788f31503db83886f49>@@_KPEBD_K@?$basic_string@DU?$char_traits@D@std@@V?$allocator@D@2@@std@@AEAAAEAV01@_KV<lambda_f3a66ab6a0570788f31503db83886f49>@@_KPEBD2@Z$rtcVarDesc DD 078H ; std::basic_string<char,std::char_traits<char>,std::allocator<char> >::_Reallocate_grow_by<<lambda_f3a66ab6a0570788f31503db83886f49>,unsigned __int64,char const *,unsigned __int64>
	DD	08H
