; Listing generated by Microsoft (R) Optimizing Compiler Version 19.23.28106.4 

include listing.inc

INCLUDELIB MSVCRTD
INCLUDELIB OLDNAMES

CONST	SEGMENT
$SG131784 DB	'invalid argument', 00H
	ORG $+3
$SG131785 DB	'%s', 00H
	ORG $+1
$SG131789 DB	'"', 00H, 'i', 00H, 'n', 00H, 'v', 00H, 'a', 00H, 'l', 00H
	DB	'i', 00H, 'd', 00H, ' ', 00H, 'a', 00H, 'r', 00H, 'g', 00H, 'u'
	DB	00H, 'm', 00H, 'e', 00H, 'n', 00H, 't', 00H, '"', 00H, 00H, 00H
	ORG $+2
$SG131786 DB	'C:\Program Files (x86)\Microsoft Visual Studio\2019\Comm'
	DB	'unity\VC\Tools\MSVC\14.23.28105\include\xmemory', 00H
$SG117456 DB	'h264', 00H
	ORG $+3
$SG131787 DB	'C', 00H, ':', 00H, '\', 00H, 'P', 00H, 'r', 00H, 'o', 00H
	DB	'g', 00H, 'r', 00H, 'a', 00H, 'm', 00H, ' ', 00H, 'F', 00H, 'i'
	DB	00H, 'l', 00H, 'e', 00H, 's', 00H, ' ', 00H, '(', 00H, 'x', 00H
	DB	'8', 00H, '6', 00H, ')', 00H, '\', 00H, 'M', 00H, 'i', 00H, 'c'
	DB	00H, 'r', 00H, 'o', 00H, 's', 00H, 'o', 00H, 'f', 00H, 't', 00H
	DB	' ', 00H, 'V', 00H, 'i', 00H, 's', 00H, 'u', 00H, 'a', 00H, 'l'
	DB	00H, ' ', 00H, 'S', 00H, 't', 00H, 'u', 00H, 'd', 00H, 'i', 00H
	DB	'o', 00H, '\', 00H, '2', 00H, '0', 00H, '1', 00H, '9', 00H, '\'
	DB	00H, 'C', 00H, 'o', 00H, 'm', 00H, 'm', 00H, 'u', 00H, 'n', 00H
	DB	'i', 00H, 't', 00H, 'y', 00H, '\', 00H, 'V', 00H, 'C', 00H, '\'
	DB	00H, 'T', 00H, 'o', 00H, 'o', 00H, 'l', 00H, 's', 00H, '\', 00H
	DB	'M', 00H, 'S', 00H, 'V', 00H, 'C', 00H, '\', 00H, '1', 00H, '4'
	DB	00H, '.', 00H, '2', 00H, '3', 00H, '.', 00H, '2', 00H, '8', 00H
	DB	'1', 00H, '0', 00H, '5', 00H, '\', 00H, 'i', 00H, 'n', 00H, 'c'
	DB	00H, 'l', 00H, 'u', 00H, 'd', 00H, 'e', 00H, '\', 00H, 'x', 00H
	DB	'm', 00H, 'e', 00H, 'm', 00H, 'o', 00H, 'r', 00H, 'y', 00H, 00H
	DB	00H
$SG131788 DB	's', 00H, 't', 00H, 'd', 00H, ':', 00H, ':', 00H, '_', 00H
	DB	'A', 00H, 'l', 00H, 'l', 00H, 'o', 00H, 'c', 00H, 'a', 00H, 't'
	DB	00H, 'e', 00H, '_', 00H, 'm', 00H, 'a', 00H, 'n', 00H, 'u', 00H
	DB	'a', 00H, 'l', 00H, 'l', 00H, 'y', 00H, '_', 00H, 'v', 00H, 'e'
	DB	00H, 'c', 00H, 't', 00H, 'o', 00H, 'r', 00H, '_', 00H, 'a', 00H
	DB	'l', 00H, 'i', 00H, 'g', 00H, 'n', 00H, 'e', 00H, 'd', 00H, 00H
	DB	00H
	ORG $+2
$SG131856 DB	'C:\Program Files (x86)\Microsoft Visual Studio\2019\Comm'
	DB	'unity\VC\Tools\MSVC\14.23.28105\include\xlocale', 00H
$SG117457 DB	'hevc', 00H
	ORG $+3
$SG117458 DB	'mpeg2', 00H
	ORG $+2
$SG117459 DB	'vc-1', 00H
	ORG $+3
$SG117460 DB	'vp8', 00H
$SG117461 DB	'raw', 00H
$SG117463 DB	'CBR', 00H
$SG117464 DB	'VBR', 00H
$SG117465 DB	'CQP', 00H
$SG117466 DB	'AVBR', 00H
	ORG $+3
$SG117467 DB	'LA', 00H
	ORG $+1
$SG117468 DB	'LA-EXT', 00H
	ORG $+1
$SG117469 DB	'LA-HRD', 00H
	ORG $+1
$SG117470 DB	'LA-ICQ', 00H
	ORG $+1
$SG117471 DB	'ICQ', 00H
$SG117472 DB	'QVBR', 00H
	ORG $+3
$SG117473 DB	'VCM', 00H
$SG117475 DB	'auto', 00H
	ORG $+3
?list_avc_profile@@3QBUCX_DESC@@B DQ FLAT:$SG117475	; list_avc_profile
	DD	00H
	ORG $+4
	DQ	FLAT:$SG117476
	DD	042H
	ORG $+4
	DQ	FLAT:$SG117477
	DD	04dH
	ORG $+4
	DQ	FLAT:$SG117478
	DD	064H
	ORG $+4
	DQ	0000000000000000H
	DD	00H
	ORG $+4
$SG117476 DB	'Baseline', 00H
	ORG $+3
$SG117477 DB	'Main', 00H
	ORG $+3
$SG117478 DB	'High', 00H
	ORG $+7
?list_hevc_profile@@3QBUCX_DESC@@B DQ FLAT:$SG117480	; list_hevc_profile
	DD	00H
	ORG $+4
	DQ	FLAT:$SG117481
	DD	01H
	ORG $+4
	DQ	FLAT:$SG117482
	DD	02H
	ORG $+4
	DQ	0000000000000000H
	DD	00H
	ORG $+4
$SG117480 DB	'auto', 00H
	ORG $+3
$SG117481 DB	'main', 00H
	ORG $+3
$SG117482 DB	'main10', 00H
	ORG $+1
$SG117484 DB	'main', 00H
	ORG $+3
$SG117485 DB	'high', 00H
	ORG $+3
$SG117487 DB	'auto', 00H
	ORG $+3
?list_mpeg2_profile@@3QBUCX_DESC@@B DQ FLAT:$SG117487	; list_mpeg2_profile
	DD	00H
	ORG $+4
	DQ	FLAT:$SG117488
	DD	050H
	ORG $+4
	DQ	FLAT:$SG117489
	DD	040H
	ORG $+4
	DQ	FLAT:$SG117490
	DD	010H
	ORG $+4
	DQ	0000000000000000H
	DD	00H
	ORG $+4
$SG117488 DB	'Simple', 00H
	ORG $+1
$SG117489 DB	'Main', 00H
	ORG $+3
$SG117490 DB	'High', 00H
	ORG $+3
$SG117492 DB	'auto', 00H
	ORG $+3
?list_vc1_profile@@3QBUCX_DESC@@B DQ FLAT:$SG117492	; list_vc1_profile
	DD	00H
	ORG $+4
	DQ	FLAT:$SG117493
	DD	01H
	ORG $+4
	DQ	FLAT:$SG117494
	DD	05H
	ORG $+4
	DQ	FLAT:$SG117495
	DD	0dH
	ORG $+4
	DQ	0000000000000000H
	DD	00H
	ORG $+4
$SG117493 DB	'Simple', 00H
	ORG $+1
$SG117494 DB	'Main', 00H
	ORG $+3
$SG117495 DB	'Advanced', 00H
	ORG $+7
?list_vp8_profile@@3QBUCX_DESC@@B DQ FLAT:$SG117497	; list_vp8_profile
	DD	00H
	ORG $+4
	DQ	FLAT:$SG117498
	DD	01H
	ORG $+4
	DQ	FLAT:$SG117499
	DD	02H
	ORG $+4
	DQ	FLAT:$SG117500
	DD	03H
	ORG $+4
	DQ	FLAT:$SG117501
	DD	04H
	ORG $+4
	DQ	0000000000000000H
	DD	00H
	ORG $+4
$SG117497 DB	'auto', 00H
	ORG $+3
$SG117498 DB	'0', 00H
	ORG $+2
$SG117499 DB	'1', 00H
	ORG $+2
$SG117500 DB	'2', 00H
	ORG $+2
$SG117501 DB	'3', 00H
	ORG $+2
$SG117503 DB	'auto', 00H
	ORG $+3
?list_vp9_profile@@3QBUCX_DESC@@B DQ FLAT:$SG117503	; list_vp9_profile
	DD	00H
	ORG $+4
	DQ	FLAT:$SG117504
	DD	01H
	ORG $+4
	DQ	FLAT:$SG117505
	DD	02H
	ORG $+4
	DQ	FLAT:$SG117506
	DD	03H
	ORG $+4
	DQ	FLAT:$SG117507
	DD	04H
	ORG $+4
	DQ	0000000000000000H
	DD	00H
	ORG $+4
$SG117504 DB	'0', 00H
	ORG $+2
$SG117505 DB	'1', 00H
	ORG $+2
$SG117506 DB	'2', 00H
	ORG $+2
$SG117507 DB	'3', 00H
	ORG $+2
$SG117509 DB	'8', 00H
	ORG $+2
$SG117510 DB	'10', 00H
	ORG $+1
$SG117512 DB	'progressive', 00H
$SG117518 DB	'it', 00H
	ORG $+1
$SG117513 DB	'interlaced(tff)', 00H
$SG117514 DB	'interlaced(bff)', 00H
$SG117516 DB	'none', 00H
	ORG $+3
$SG117517 DB	'normal', 00H
	ORG $+1
$SG117519 DB	'bob', 00H
$SG117521 DB	'32', 00H
	ORG $+1
$SG117522 DB	'2332', 00H
	ORG $+3
$SG117523 DB	'repeat', 00H
	ORG $+1
$SG117524 DB	'41', 00H
	ORG $+1
$SG117526 DB	'auto', 00H
	ORG $+7
?list_avc_level@@3QBUCX_DESC@@B DQ FLAT:$SG117526	; list_avc_level
	DD	00H
	ORG $+4
	DQ	FLAT:$SG117527
	DD	0aH
	ORG $+4
	DQ	FLAT:$SG117528
	DD	09H
	ORG $+4
	DQ	FLAT:$SG117529
	DD	0bH
	ORG $+4
	DQ	FLAT:$SG117530
	DD	0cH
	ORG $+4
	DQ	FLAT:$SG117531
	DD	0dH
	ORG $+4
	DQ	FLAT:$SG117532
	DD	014H
	ORG $+4
	DQ	FLAT:$SG117533
	DD	015H
	ORG $+4
	DQ	FLAT:$SG117534
	DD	016H
	ORG $+4
	DQ	FLAT:$SG117535
	DD	01eH
	ORG $+4
	DQ	FLAT:$SG117536
	DD	01fH
	ORG $+4
	DQ	FLAT:$SG117537
	DD	020H
	ORG $+4
	DQ	FLAT:$SG117538
	DD	028H
	ORG $+4
	DQ	FLAT:$SG117539
	DD	029H
	ORG $+4
	DQ	FLAT:$SG117540
	DD	02aH
	ORG $+4
	DQ	FLAT:$SG117541
	DD	032H
	ORG $+4
	DQ	FLAT:$SG117542
	DD	033H
	ORG $+4
	DQ	FLAT:$SG117543
	DD	034H
	ORG $+4
	DQ	0000000000000000H
	DD	00H
	ORG $+4
$SG117527 DB	'1', 00H
	ORG $+2
$SG117528 DB	'1b', 00H
	ORG $+1
$SG117529 DB	'1.1', 00H
$SG117530 DB	'1.2', 00H
$SG117531 DB	'1.3', 00H
$SG117532 DB	'2', 00H
	ORG $+2
$SG117533 DB	'2.1', 00H
$SG117534 DB	'2.2', 00H
$SG117535 DB	'3', 00H
	ORG $+2
$SG117536 DB	'3.1', 00H
$SG117537 DB	'3.2', 00H
$SG117538 DB	'4', 00H
	ORG $+2
$SG117539 DB	'4.1', 00H
$SG117540 DB	'4.2', 00H
$SG117541 DB	'5', 00H
	ORG $+2
$SG117542 DB	'5.1', 00H
$SG117543 DB	'5.2', 00H
$SG117545 DB	'auto', 00H
	ORG $+7
?list_hevc_level@@3QBUCX_DESC@@B DQ FLAT:$SG117545	; list_hevc_level
	DD	00H
	ORG $+4
	DQ	FLAT:$SG117546
	DD	0aH
	ORG $+4
	DQ	FLAT:$SG117547
	DD	014H
	ORG $+4
	DQ	FLAT:$SG117548
	DD	015H
	ORG $+4
	DQ	FLAT:$SG117549
	DD	01eH
	ORG $+4
	DQ	FLAT:$SG117550
	DD	01fH
	ORG $+4
	DQ	FLAT:$SG117551
	DD	028H
	ORG $+4
	DQ	FLAT:$SG117552
	DD	029H
	ORG $+4
	DQ	FLAT:$SG117553
	DD	032H
	ORG $+4
	DQ	FLAT:$SG117554
	DD	033H
	ORG $+4
	DQ	FLAT:$SG117555
	DD	034H
	ORG $+4
	DQ	FLAT:$SG117556
	DD	03cH
	ORG $+4
	DQ	FLAT:$SG117557
	DD	03dH
	ORG $+4
	DQ	FLAT:$SG117558
	DD	03eH
	ORG $+4
	DQ	0000000000000000H
	DD	00H
	ORG $+4
$SG117546 DB	'1', 00H
	ORG $+2
$SG117547 DB	'2', 00H
	ORG $+2
$SG117548 DB	'2.1', 00H
$SG117549 DB	'3', 00H
	ORG $+2
$SG117550 DB	'3.1', 00H
$SG117551 DB	'4', 00H
	ORG $+2
$SG117552 DB	'4.1', 00H
$SG117553 DB	'5', 00H
	ORG $+2
$SG117554 DB	'5.1', 00H
$SG117555 DB	'5.2', 00H
$SG117556 DB	'6', 00H
	ORG $+2
$SG117557 DB	'6.1', 00H
$SG117558 DB	'6.2', 00H
$SG117560 DB	'auto', 00H
	ORG $+7
?list_mpeg2_level@@3QBUCX_DESC@@B DQ FLAT:$SG117560	; list_mpeg2_level
	DD	00H
	ORG $+4
	DQ	FLAT:$SG117561
	DD	0aH
	ORG $+4
	DQ	FLAT:$SG117562
	DD	08H
	ORG $+4
	DQ	FLAT:$SG117563
	DD	04H
	ORG $+4
	DQ	FLAT:$SG117564
	DD	06H
	ORG $+4
	DQ	0000000000000000H
	DD	00H
	ORG $+4
$SG117561 DB	'low', 00H
$SG117562 DB	'main', 00H
	ORG $+3
$SG117563 DB	'high', 00H
	ORG $+3
$SG117567 DB	'low', 00H
$SG117564 DB	'high1440', 00H
	ORG $+3
$SG117566 DB	'auto', 00H
	ORG $+7
?list_vc1_level@@3QBUCX_DESC@@B DQ FLAT:$SG117566	; list_vc1_level
	DD	00H
	ORG $+4
	DQ	FLAT:$SG117567
	DD	01H
	ORG $+4
	DQ	FLAT:$SG117568
	DD	03H
	ORG $+4
	DQ	FLAT:$SG117569
	DD	05H
	ORG $+4
	DQ	0000000000000000H
	DD	00H
	ORG $+4
$SG117568 DB	'median', 00H
	ORG $+1
$SG117569 DB	'high', 00H
	ORG $+3
$SG117571 DB	'auto', 00H
	ORG $+3
$SG117572 DB	'0', 00H
	ORG $+2
$SG117573 DB	'1', 00H
	ORG $+2
$SG117574 DB	'2', 00H
	ORG $+2
$SG117575 DB	'3', 00H
	ORG $+2
$SG117576 DB	'4', 00H
	ORG $+2
$SG117583 DB	'off', 00H
?list_vp8_level@@3QBUCX_DESC@@B DQ FLAT:$SG117578	; list_vp8_level
	DD	00H
	ORG $+4
	DQ	0000000000000000H
	DD	00H
	ORG $+4
$SG117578 DB	'auto', 00H
	ORG $+3
?list_vp9_level@@3QBUCX_DESC@@B DQ FLAT:$SG117580	; list_vp9_level
	DD	00H
	ORG $+4
	DQ	0000000000000000H
	DD	00H
	ORG $+4
$SG117580 DB	'auto', 00H
	ORG $+3
$SG117582 DB	'Auto', 00H
	ORG $+3
$SG117584 DB	'for I frames', 00H
	ORG $+3
$SG117585 DB	'for I,P frames', 00H
	ORG $+1
$SG117586 DB	'for All frames', 00H
	ORG $+1
$SG117588 DB	'auto', 00H
	ORG $+3
$SG117589 DB	'off', 00H
$SG117590 DB	'i', 00H
	ORG $+2
$SG117591 DB	'ip', 00H
	ORG $+1
$SG117592 DB	'all', 00H
$SG117593 DB	'ipb', 00H
$SG117594 DB	'ib', 00H
	ORG $+1
$SG117595 DB	'p', 00H
	ORG $+2
$SG117596 DB	'pb', 00H
	ORG $+1
$SG117597 DB	'b', 00H
	ORG $+2
$SG117599 DB	'auto', 00H
	ORG $+3
$SG117600 DB	'slow', 00H
	ORG $+3
$SG117601 DB	'medium', 00H
	ORG $+1
$SG117602 DB	'fast', 00H
	ORG $+3
$SG117605 DB	'0', 00H
	ORG $+2
$SG117604 DB	'default', 00H
$SG117606 DB	'1', 00H
	ORG $+2
$SG117607 DB	'2', 00H
	ORG $+2
$SG117608 DB	'3', 00H
	ORG $+2
$SG117609 DB	'4', 00H
	ORG $+2
$SG117611 DB	'low', 00H
$SG117612 DB	'normal', 00H
	ORG $+1
$SG117613 DB	'high', 00H
	ORG $+3
$SG117625 DB	'none', 00H
	ORG $+3
$SG117626 DB	'copy', 00H
	ORG $+3
$SG117627 DB	'aac', 00H
$SG117628 DB	'libmp3lame', 00H
	ORG $+1
$SG117633 DB	'ac3', 00H
$SG117629 DB	'libtwolame', 00H
	ORG $+1
$SG117664 DB	'tff', 00H
$SG117630 DB	'libvorbis', 00H
	ORG $+2
$SG117665 DB	'bff', 00H
$SG117631 DB	'pcm_s16le', 00H
	ORG $+2
$SG117676 DB	'higher', 00H
	ORG $+1
$SG117690 DB	'8x8', 00H
$SG117632 DB	'libopus', 00H
$SG117663 DB	'none', 00H
	ORG $+3
$SG117667 DB	' 1 - best quality', 00H
	ORG $+2
$SG117680 DB	'faster', 00H
	ORG $+1
$SG117691 DB	'4x4', 00H
$SG117668 DB	' 2 - higher', 00H
$SG117694 DB	'16', 00H
	ORG $+1
$SG117669 DB	' 3 - high quality', 00H
	ORG $+2
$SG117695 DB	'32', 00H
	ORG $+1
$SG117670 DB	' 4 - balanced', 00H
	ORG $+2
$SG117671 DB	' 5 - fast', 00H
	ORG $+2
$SG117696 DB	'64', 00H
	ORG $+1
$SG117672 DB	' 6 - faster', 00H
$SG117704 DB	'all', 00H
$SG117673 DB	' 7 - fastest', 00H
	ORG $+3
$SG117675 DB	'best', 00H
	ORG $+3
$SG117677 DB	'high', 00H
	ORG $+3
$SG117678 DB	'balanced', 00H
	ORG $+3
$SG117679 DB	'fast', 00H
	ORG $+3
$SG117686 DB	'Q-pel', 00H
	ORG $+2
$SG117703 DB	'chroma', 00H
	ORG $+1
$SG117708 DB	'box', 00H
$SG117681 DB	'fastest', 00H
$SG117683 DB	'Auto', 00H
	ORG $+3
$SG117684 DB	'full-pel', 00H
	ORG $+3
$SG117689 DB	'16x16', 00H
	ORG $+2
$SG117710 DB	'off', 00H
$SG117685 DB	'half-pel', 00H
	ORG $+3
$SG117688 DB	'Auto', 00H
	ORG $+3
$SG117693 DB	'auto', 00H
	ORG $+3
$SG117700 DB	'auto', 00H
	ORG $+3
$SG117701 DB	'none', 00H
	ORG $+3
$SG117702 DB	'luma', 00H
	ORG $+3
$SG117706 DB	'none', 00H
	ORG $+3
$SG117711 DB	'x2', 00H
	ORG $+1
$SG117707 DB	'upscale', 00H
$SG117712 DB	'x2.5', 00H
	ORG $+3
$SG117714 DB	'simple', 00H
	ORG $+1
$SG117715 DB	'complex', 00H
$SG117717 DB	'0', 00H
	ORG $+2
$SG117718 DB	'90', 00H
	ORG $+1
$SG117719 DB	'180', 00H
$SG117720 DB	'270', 00H
$SG117722 DB	'n', 00H
	ORG $+2
$SG117723 DB	'h', 00H
	ORG $+2
$SG117724 DB	'v', 00H
	ORG $+2
$SG117726 DB	'auto', 00H
	ORG $+3
$SG117727 DB	'simple', 00H
	ORG $+1
$SG117728 DB	'fine', 00H
	ORG $+3
$SG117730 DB	'auto', 00H
	ORG $+3
$SG117731 DB	'none', 00H
	ORG $+3
$SG117732 DB	'sse2', 00H
	ORG $+3
$SG117733 DB	'sse3', 00H
	ORG $+3
$SG117734 DB	'ssse3', 00H
	ORG $+2
$SG117735 DB	'sse41', 00H
	ORG $+2
$SG117736 DB	'avx', 00H
$SG117737 DB	'avx2', 00H
	ORG $+3
$SG118129 DB	'%s', 00H
	ORG $+1
$SG110590 DB	'rgb', 00H
$SG110558 DB	'Invalid', 00H
$SG110559 DB	'nv12', 00H
	ORG $+3
$SG110560 DB	'yv12', 00H
	ORG $+3
$SG110561 DB	'yuy2', 00H
	ORG $+3
$SG110562 DB	'yuv422', 00H
	ORG $+1
$SG110563 DB	'nv16', 00H
	ORG $+3
$SG110564 DB	'yuv444', 00H
	ORG $+1
$SG110565 DB	'yv12(9bit)', 00H
	ORG $+1
$SG110592 DB	'gbr', 00H
$SG110566 DB	'yv12(10bit)', 00H
$SG110595 DB	'y8', 00H
	ORG $+1
$SG110567 DB	'yv12(12bit)', 00H
$SG111540 DB	'VP8', 00H
$SG110568 DB	'yv12(14bit)', 00H
$SG111542 DB	'VP9', 00H
$SG110569 DB	'yv12(16bit)', 00H
$SG110570 DB	'p010', 00H
	ORG $+3
$SG110584 DB	'rgb24r', 00H
	ORG $+1
$SG112153 DB	'fcc', 00H
$SG110571 DB	'yuv422(9bit)', 00H
	ORG $+3
$SG110572 DB	'yuv422(10bit)', 00H
	ORG $+2
$SG110573 DB	'yuv422(12bit)', 00H
	ORG $+2
$SG110574 DB	'yuv422(14bit)', 00H
	ORG $+2
$SG110575 DB	'yuv422(16bit)', 00H
	ORG $+2
$SG110576 DB	'p210', 00H
	ORG $+3
$SG110577 DB	'yuv444(9bit)', 00H
	ORG $+3
$SG110578 DB	'yuv444(10bit)', 00H
	ORG $+2
$SG110579 DB	'yuv444(12bit)', 00H
	ORG $+2
$SG110580 DB	'yuv444(14bit)', 00H
	ORG $+2
$SG110581 DB	'yuv444(16bit)', 00H
	ORG $+2
$SG110582 DB	'yuva444', 00H
$SG110583 DB	'yuva444(16bit)', 00H
	ORG $+1
$SG110585 DB	'rgb32r', 00H
	ORG $+1
$SG110586 DB	'rgb24', 00H
	ORG $+2
$SG110587 DB	'rgb32', 00H
	ORG $+2
$SG110588 DB	'bgr24', 00H
	ORG $+2
$SG110589 DB	'bgr32', 00H
	ORG $+2
$SG110591 DB	'rgba', 00H
	ORG $+3
$SG110593 DB	'gbra', 00H
	ORG $+3
$SG110594 DB	'yc48', 00H
	ORG $+3
$SG110596 DB	'yc16', 00H
	ORG $+3
?RGY_CSP_BIT_DEPTH@@3QBEB DB 00H			; RGY_CSP_BIT_DEPTH
	DB	08H
	DB	08H
	DB	08H
	DB	08H
	DB	08H
	DB	08H
	DB	09H
	DB	0aH
	DB	0cH
	DB	0eH
	DB	010H
	DB	010H
	DB	09H
	DB	0aH
	DB	0cH
	DB	0eH
	DB	010H
	DB	010H
	DB	09H
	DB	0aH
	DB	0cH
	DB	0eH
	DB	010H
	DB	08H
	DB	010H
	DB	08H
	DB	08H
	DB	08H
	DB	08H
	DB	08H
	DB	08H
	DB	08H
	DB	08H
	DB	08H
	DB	08H
	DB	0aH
	DB	08H
	DB	010H
	ORG $+1
$SG111532 DB	'MPEG2', 00H
	ORG $+2
?RGY_CSP_CHROMA_FORMAT@@3QBW4RGY_CHROMAFMT@@B DD 00H	; RGY_CSP_CHROMA_FORMAT
	DD	01H
	DD	01H
	DD	02H
	DD	02H
	DD	02H
	DD	03H
	DD	01H
	DD	01H
	DD	01H
	DD	01H
	DD	01H
	DD	01H
	DD	02H
	DD	02H
	DD	02H
	DD	02H
	DD	02H
	DD	02H
	DD	03H
	DD	03H
	DD	03H
	DD	03H
	DD	03H
	DD	03H
	DD	03H
	DD	04H
	DD	04H
	DD	04H
	DD	04H
	DD	04H
	DD	04H
	DD	05H
	DD	05H
	DD	05H
	DD	05H
	DD	03H
	DD	00H
	DD	00H
$SG112154 DB	'GBR', 00H
$SG111528 DB	'H.264/AVC', 00H
	ORG $+2
$SG112305 DB	'bt470m', 00H
	ORG $+1
$SG112467 DB	'pal', 00H
$SG111530 DB	'H.265/HEVC', 00H
	ORG $+1
$SG111534 DB	'MPEG1', 00H
	ORG $+2
$SG111536 DB	'VC-1', 00H
	ORG $+3
$SG111538 DB	'MPEG4', 00H
	ORG $+2
$SG112308 DB	'linear', 00H
	ORG $+1
$SG112469 DB	'mac', 00H
$SG111544 DB	'unknown', 00H
$SG111651 DB	'unknown', 00H
$SG112146 DB	'undef', 00H
	ORG $+2
?list_colormatrix@@3QBUCX_DESC@@B DQ FLAT:$SG112146	; list_colormatrix
	DD	02H
	ORG $+4
	DQ	FLAT:$SG112147
	DD	07fffffffH
	ORG $+4
	DQ	FLAT:$SG112148
	DD	01H
	ORG $+4
	DQ	FLAT:$SG112149
	DD	06H
	ORG $+4
	DQ	FLAT:$SG112150
	DD	05H
	ORG $+4
	DQ	FLAT:$SG112151
	DD	07H
	ORG $+4
	DQ	FLAT:$SG112152
	DD	08H
	ORG $+4
	DQ	FLAT:$SG112153
	DD	04H
	ORG $+4
	DQ	FLAT:$SG112154
	DD	00H
	ORG $+4
	DQ	FLAT:$SG112155
	DD	09H
	ORG $+4
	DQ	FLAT:$SG112156
	DD	0aH
	ORG $+4
	DQ	FLAT:$SG112157
	DD	0cH
	ORG $+4
	DQ	FLAT:$SG112158
	DD	0dH
	ORG $+4
	DQ	FLAT:$SG112159
	DD	0eH
	ORG $+4
	DQ	FLAT:$SG112160
	DD	0fH
	ORG $+4
	DQ	0000000000000000H
	DD	00H
	ORG $+4
$SG112147 DB	'auto', 00H
	ORG $+3
$SG112148 DB	'bt709', 00H
	ORG $+2
$SG112149 DB	'smpte170m', 00H
	ORG $+2
$SG112309 DB	'log100', 00H
	ORG $+1
$SG112471 DB	'0', 00H
	ORG $+2
$SG112150 DB	'bt470bg', 00H
$SG112151 DB	'smpte240m', 00H
	ORG $+2
$SG112152 DB	'YCgCo', 00H
	ORG $+2
$SG112310 DB	'log316', 00H
	ORG $+1
$SG112472 DB	'1', 00H
	ORG $+2
$SG112155 DB	'bt2020nc', 00H
	ORG $+3
$SG112159 DB	'ictco', 00H
	ORG $+2
$SG112454 DB	'bt470m', 00H
	ORG $+1
$SG112473 DB	'2', 00H
	ORG $+2
$SG112156 DB	'bt2020c', 00H
$SG112157 DB	'derived-ncl', 00H
$SG112474 DB	'3', 00H
	ORG $+2
$SG112158 DB	'derived-cl', 00H
	ORG $+1
$SG112475 DB	'4', 00H
	ORG $+2
$SG112160 DB	'2100-lms', 00H
	ORG $+3
$SG112301 DB	'undef', 00H
	ORG $+6
?list_transfer@@3QBUCX_DESC@@B DQ FLAT:$SG112301	; list_transfer
	DD	02H
	ORG $+4
	DQ	FLAT:$SG112302
	DD	07fffffffH
	ORG $+4
	DQ	FLAT:$SG112303
	DD	01H
	ORG $+4
	DQ	FLAT:$SG112304
	DD	06H
	ORG $+4
	DQ	FLAT:$SG112305
	DD	04H
	ORG $+4
	DQ	FLAT:$SG112306
	DD	05H
	ORG $+4
	DQ	FLAT:$SG112307
	DD	07H
	ORG $+4
	DQ	FLAT:$SG112308
	DD	08H
	ORG $+4
	DQ	FLAT:$SG112309
	DD	09H
	ORG $+4
	DQ	FLAT:$SG112310
	DD	0aH
	ORG $+4
	DQ	FLAT:$SG112311
	DD	0bH
	ORG $+4
	DQ	FLAT:$SG112312
	DD	0cH
	ORG $+4
	DQ	FLAT:$SG112313
	DD	0dH
	ORG $+4
	DQ	FLAT:$SG112314
	DD	0eH
	ORG $+4
	DQ	FLAT:$SG112315
	DD	0fH
	ORG $+4
	DQ	FLAT:$SG112316
	DD	010H
	ORG $+4
	DQ	FLAT:$SG112317
	DD	011H
	ORG $+4
	DQ	FLAT:$SG112318
	DD	012H
	ORG $+4
	DQ	0000000000000000H
	DD	00H
	ORG $+4
$SG112302 DB	'auto', 00H
	ORG $+3
$SG112303 DB	'bt709', 00H
	ORG $+2
$SG112304 DB	'smpte170m', 00H
	ORG $+2
$SG112458 DB	'bt2020', 00H
	ORG $+1
$SG112476 DB	'5', 00H
	ORG $+2
$SG112306 DB	'bt470bg', 00H
$SG112307 DB	'smpte240m', 00H
	ORG $+2
$SG112480 DB	'tv', 00H
	ORG $+1
$SG112311 DB	'iec61966-2-4', 00H
	ORG $+3
$SG112312 DB	'bt1361e', 00H
$SG112313 DB	'iec61966-2-1', 00H
	ORG $+3
$SG112314 DB	'bt2020-10', 00H
	ORG $+2
$SG112481 DB	'pc', 00H
	ORG $+1
$SG112315 DB	'bt2020-12', 00H
	ORG $+2
$SG120934 DB	' ', 00H
	ORG $+2
$SG112316 DB	'smpte2084', 00H
	ORG $+2
$SG120960 DB	'420p10', 00H
	ORG $+1
$SG120983 DB	'420', 00H
$SG112317 DB	'smpte428', 00H
	ORG $+3
$SG112450 DB	'undef', 00H
	ORG $+2
$SG120961 DB	'420p10', 00H
	ORG $+1
$SG120984 DB	'420', 00H
$SG112318 DB	'arib-srd-b67', 00H
	ORG $+3
?list_colorprim@@3QBUCX_DESC@@B DQ FLAT:$SG112450	; list_colorprim
	DD	02H
	ORG $+4
	DQ	FLAT:$SG112451
	DD	07fffffffH
	ORG $+4
	DQ	FLAT:$SG112452
	DD	01H
	ORG $+4
	DQ	FLAT:$SG112453
	DD	06H
	ORG $+4
	DQ	FLAT:$SG112454
	DD	04H
	ORG $+4
	DQ	FLAT:$SG112455
	DD	05H
	ORG $+4
	DQ	FLAT:$SG112456
	DD	07H
	ORG $+4
	DQ	FLAT:$SG112457
	DD	08H
	ORG $+4
	DQ	FLAT:$SG112458
	DD	09H
	ORG $+4
	DQ	FLAT:$SG112459
	DD	0aH
	ORG $+4
	DQ	FLAT:$SG112460
	DD	0bH
	ORG $+4
	DQ	FLAT:$SG112461
	DD	0cH
	ORG $+4
	DQ	FLAT:$SG112462
	DD	0dH
	ORG $+4
	DQ	0000000000000000H
	DD	00H
	ORG $+4
$SG112451 DB	'auto', 00H
	ORG $+3
$SG112452 DB	'bt709', 00H
	ORG $+2
$SG112453 DB	'smpte170m', 00H
	ORG $+2
$SG120964 DB	'420p12', 00H
	ORG $+1
$SG121007 DB	'422', 00H
$SG112455 DB	'bt470bg', 00H
$SG112456 DB	'smpte240m', 00H
	ORG $+2
$SG112457 DB	'film', 00H
	ORG $+3
$SG112459 DB	'st428', 00H
	ORG $+2
$SG120965 DB	'420p12', 00H
	ORG $+1
$SG121008 DB	'422', 00H
$SG112460 DB	'st431-2', 00H
$SG112461 DB	'st432-1', 00H
$SG112462 DB	'ebu3213-e', 00H
	ORG $+2
$SG112464 DB	'undef', 00H
	ORG $+6
?list_videoformat@@3QBUCX_DESC@@B DQ FLAT:$SG112464	; list_videoformat
	DD	05H
	ORG $+4
	DQ	FLAT:$SG112465
	DD	02H
	ORG $+4
	DQ	FLAT:$SG112466
	DD	00H
	ORG $+4
	DQ	FLAT:$SG112467
	DD	01H
	ORG $+4
	DQ	FLAT:$SG112468
	DD	03H
	ORG $+4
	DQ	FLAT:$SG112469
	DD	04H
	ORG $+4
	DQ	0000000000000000H
	DD	00H
	ORG $+4
$SG112465 DB	'ntsc', 00H
	ORG $+3
$SG112466 DB	'component', 00H
	ORG $+2
$SG112468 DB	'secam', 00H
	ORG $+2
$SG120968 DB	'420p14', 00H
	ORG $+1
$SG121031 DB	'444', 00H
$SG112478 DB	'limited', 00H
$SG112479 DB	'full', 00H
	ORG $+3
$SG120942 DB	'%d:%d', 00H
	ORG $+2
$SG120947 DB	'%d:%d', 00H
	ORG $+2
$SG120956 DB	'420p9', 00H
	ORG $+2
$SG120957 DB	'420p9', 00H
	ORG $+2
$SG120969 DB	'420p14', 00H
	ORG $+1
$SG120972 DB	'420p16', 00H
	ORG $+1
$SG120973 DB	'420p16', 00H
	ORG $+1
$SG120977 DB	'420mpeg2', 00H
	ORG $+3
$SG120987 DB	'422p9', 00H
	ORG $+2
$SG120991 DB	'422p10', 00H
	ORG $+1
$SG121032 DB	'444', 00H
$SG120978 DB	'420mpeg2', 00H
	ORG $+3
$SG120988 DB	'422p9', 00H
	ORG $+2
$SG120992 DB	'422p10', 00H
	ORG $+1
$SG121046 DB	'raw', 00H
$SG120979 DB	'420jpeg', 00H
$SG120980 DB	'420jpeg', 00H
$SG120981 DB	'420paldv', 00H
	ORG $+3
$SG120995 DB	'422p12', 00H
	ORG $+1
$SG121225 DB	'y4m', 00H
$SG120982 DB	'420paldv', 00H
	ORG $+3
$SG120996 DB	'422p12', 00H
	ORG $+1
$SG120999 DB	'422p14', 00H
	ORG $+1
$SG121000 DB	'422p14', 00H
	ORG $+1
$SG121003 DB	'422p16', 00H
	ORG $+1
$SG121004 DB	'422p16', 00H
	ORG $+1
$SG121011 DB	'444p9', 00H
	ORG $+2
$SG121012 DB	'444p9', 00H
	ORG $+2
$SG121015 DB	'444p10', 00H
	ORG $+1
$SG121016 DB	'444p10', 00H
	ORG $+1
$SG121019 DB	'444p12', 00H
	ORG $+1
$SG121020 DB	'444p12', 00H
	ORG $+1
$SG121023 DB	'444p14', 00H
	ORG $+1
$SG121024 DB	'444p14', 00H
	ORG $+1
$SG121027 DB	'444p16', 00H
	ORG $+1
$SG121028 DB	'444p16', 00H
	ORG $+1
$SG121035 DB	'nv12', 00H
	ORG $+3
$SG121036 DB	'nv12', 00H
	ORG $+3
$SG121039 DB	'p010', 00H
	ORG $+3
$SG121040 DB	'p010', 00H
	ORG $+3
$SG121226 DB	'raw', 00H
$SG121227 DB	'-', 00H
	ORG $+2
$SG121236 DB	'rb', 00H
	ORG $+1
$SG121231 DB	'failed to switch stdin to binary mode.', 0aH, 00H
$SG121232 DB	'output to stdout.', 0aH, 00H
	ORG $+1
$SG113570 DB	'cfr', 00H
$SG121237 DB	'Failed to open file "%s": %s.', 0aH, 00H
	ORG $+1
$SG121238 DB	'Opened file: "%s".', 0aH, 00H
$SG113571 DB	'vfr', 00H
$SG121243 DB	'YUV4MPEG2', 00H
	ORG $+2
$SG113574 DB	'swr', 00H
$SG121244 DB	'YUV4MPEG2', 00H
	ORG $+2
$SG114636 DB	'all', 00H
$SG121245 DB	'YUV4MPEG2', 00H
	ORG $+2
$SG114637 DB	'cpu', 00H
$SG121246 DB	'failed to parse y4m header.', 00H
$SG114647 DB	'mem', 00H
$SG121252 DB	'yuv422 not supported as input color format.', 00H
$SG114650 DB	'io', 00H
	ORG $+1
$SG121255 DB	'yuv422 not supported as input color format.', 00H
$SG114653 DB	'fps', 00H
$SG121259 DB	'Unknown color foramt.', 0aH, 00H
	ORG $+1
$SG121260 DB	'%dx%d, pitch:%d, bufferSize:%d.', 0aH, 00H
	ORG $+3
$SG121297 DB	'FRAME', 00H
	ORG $+2
$SG114642 DB	'cpu_in', 00H
	ORG $+1
$SG114658 DB	'gpu', 00H
$SG121264 DB	'Failed to allocate input buffer.', 0aH, 00H
	ORG $+6
$SG121266 DB	'raw/y4m: color conversion not supported: %s -> %s.', 0aH
	DB	00H
$SG121298 DB	'FRAME', 00H
	ORG $+6
$SG121299 DB	'header1: finish.', 0aH, 00H
	ORG $+2
$SG121301 DB	'FRAME', 00H
	ORG $+2
$SG121302 DB	'FRAME', 00H
	ORG $+6
$SG121303 DB	'header2: finish.', 0aH, 00H
	ORG $+6
$SG121305 DB	'header3: finish.', 0aH, 00H
	ORG $+6
$SG121314 DB	'Unknown color foramt.', 0aH, 00H
	ORG $+1
$SG121316 DB	'fread: finish: %d.', 0aH, 00H
	ORG $+4
?list_empty@@3QBUCX_DESC@@B DQ 0000000000000000H	; list_empty
	DD	00H
	ORG $+4
$SG113563 DB	'trace', 00H
	ORG $+2
$SG113564 DB	'debug', 00H
	ORG $+2
$SG113565 DB	'more', 00H
	ORG $+3
$SG113566 DB	'info', 00H
	ORG $+3
$SG113567 DB	'warn', 00H
	ORG $+3
$SG113568 DB	'error', 00H
	ORG $+2
$SG113572 DB	'forcecfr', 00H
	ORG $+3
$SG113575 DB	'soxr', 00H
	ORG $+7
$SG114638 DB	'cpu_total', 00H
	ORG $+6
$SG114639 DB	'cpu_kernel', 00H
	ORG $+5
$SG114640 DB	'cpu_main', 00H
	ORG $+7
$SG114641 DB	'cpu_enc', 00H
$SG114643 DB	'cpu_aud', 00H
$SG114644 DB	'cpu_aud_proc', 00H
	ORG $+3
$SG114645 DB	'cpu_aud_enc', 00H
	ORG $+4
$SG114646 DB	'cpu_out', 00H
$SG114648 DB	'mem_private', 00H
	ORG $+4
$SG114649 DB	'mem_virtual', 00H
	ORG $+4
$SG114651 DB	'io_read', 00H
$SG114652 DB	'io_write', 00H
	ORG $+7
$SG114654 DB	'fps_avg', 00H
$SG114655 DB	'bitrate', 00H
$SG114656 DB	'bitrate_avg', 00H
	ORG $+4
$SG114657 DB	'frame_out', 00H
	ORG $+6
$SG114659 DB	'gpu_load', 00H
	ORG $+7
$SG114660 DB	'gpu_clock', 00H
	ORG $+6
$SG114661 DB	'vee_load', 00H
	ORG $+7
$SG114662 DB	'ved_load', 00H
	ORG $+7
$SG114663 DB	'pcie_load', 00H
	ORG $+6
$SG114664 DB	've_clock', 00H
	ORG $+3
$SG114665 DB	'queue', 00H
CONST	ENDS
PUBLIC	?__empty_global_delete@@YAXPEAX@Z		; __empty_global_delete
PUBLIC	?__empty_global_delete@@YAXPEAX_K@Z		; __empty_global_delete
PUBLIC	??2@YAPEAX_KPEAX@Z				; operator new
PUBLIC	__local_stdio_printf_options
PUBLIC	__local_stdio_scanf_options
PUBLIC	_vsprintf_s_l
PUBLIC	vsprintf_s
PUBLIC	_vscprintf_l
PUBLIC	_vscprintf
PUBLIC	_vsscanf_s_l
PUBLIC	vsscanf_s
PUBLIC	sscanf_s
PUBLIC	??0exception@std@@QEAA@QEBDH@Z			; std::exception::exception
PUBLIC	??0exception@std@@QEAA@AEBV01@@Z		; std::exception::exception
PUBLIC	??1exception@std@@UEAA@XZ			; std::exception::~exception
PUBLIC	?what@exception@std@@UEBAPEBDXZ			; std::exception::what
PUBLIC	??_Gexception@std@@UEAAPEAXI@Z			; std::exception::`scalar deleting destructor'
PUBLIC	??0bad_alloc@std@@AEAA@QEBD@Z			; std::bad_alloc::bad_alloc
PUBLIC	??1bad_alloc@std@@UEAA@XZ			; std::bad_alloc::~bad_alloc
PUBLIC	??0bad_alloc@std@@QEAA@AEBV01@@Z		; std::bad_alloc::bad_alloc
PUBLIC	??_Gbad_alloc@std@@UEAAPEAXI@Z			; std::bad_alloc::`scalar deleting destructor'
PUBLIC	??0bad_array_new_length@std@@QEAA@XZ		; std::bad_array_new_length::bad_array_new_length
PUBLIC	??1bad_array_new_length@std@@UEAA@XZ		; std::bad_array_new_length::~bad_array_new_length
PUBLIC	??0bad_array_new_length@std@@QEAA@AEBV01@@Z	; std::bad_array_new_length::bad_array_new_length
PUBLIC	??_Gbad_array_new_length@std@@UEAAPEAXI@Z	; std::bad_array_new_length::`scalar deleting destructor'
PUBLIC	?_Throw_bad_array_new_length@std@@YAXXZ		; std::_Throw_bad_array_new_length
PUBLIC	?max@?$numeric_limits@_J@std@@SA_JXZ		; std::numeric_limits<__int64>::max
PUBLIC	?_Allocate@_Default_allocate_traits@std@@SAPEAX_K@Z ; std::_Default_allocate_traits::_Allocate
PUBLIC	?_Adjust_manually_vector_aligned@std@@YAXAEAPEAXAEA_K@Z ; std::_Adjust_manually_vector_aligned
PUBLIC	??$_Convert_size@_K@std@@YA_K_K@Z		; std::_Convert_size<unsigned __int64>
PUBLIC	??0_Container_proxy@std@@QEAA@PEAU_Container_base12@1@@Z ; std::_Container_proxy::_Container_proxy
PUBLIC	??0_Container_base12@std@@QEAA@XZ		; std::_Container_base12::_Container_base12
PUBLIC	?_Orphan_all@_Container_base12@std@@QEAAXXZ	; std::_Container_base12::_Orphan_all
PUBLIC	?_Swap_proxy_and_iterators@_Container_base12@std@@QEAAXAEAU12@@Z ; std::_Container_base12::_Swap_proxy_and_iterators
PUBLIC	?_Release@_Basic_container_proxy_ptr12@std@@QEAAXXZ ; std::_Basic_container_proxy_ptr12::_Release
PUBLIC	?length@?$_Narrow_char_traits@DH@std@@SA_KQEBD@Z ; std::_Narrow_char_traits<char,int>::length
PUBLIC	?copy@?$_Narrow_char_traits@DH@std@@SAPEADQEADQEBD_K@Z ; std::_Narrow_char_traits<char,int>::copy
PUBLIC	?move@?$_Narrow_char_traits@DH@std@@SAPEADQEADQEBD_K@Z ; std::_Narrow_char_traits<char,int>::move
PUBLIC	?assign@?$_Narrow_char_traits@DH@std@@SAPEADQEAD_KD@Z ; std::_Narrow_char_traits<char,int>::assign
PUBLIC	?assign@?$_Narrow_char_traits@DH@std@@SAXAEADAEBD@Z ; std::_Narrow_char_traits<char,int>::assign
PUBLIC	??0?$allocator@D@std@@QEAA@XZ			; std::allocator<char>::allocator<char>
PUBLIC	?deallocate@?$allocator@D@std@@QEAAXQEAD_K@Z	; std::allocator<char>::deallocate
PUBLIC	?allocate@?$allocator@D@std@@QEAAPEAD_K@Z	; std::allocator<char>::allocate
PUBLIC	?max_size@?$_Default_allocator_traits@V?$allocator@D@std@@@std@@SA_KAEBV?$allocator@D@2@@Z ; std::_Default_allocator_traits<std::allocator<char> >::max_size
PUBLIC	??0?$_String_val@U?$_Simple_types@D@std@@@std@@QEAA@XZ ; std::_String_val<std::_Simple_types<char> >::_String_val<std::_Simple_types<char> >
PUBLIC	?_Myptr@?$_String_val@U?$_Simple_types@D@std@@@std@@QEAAPEADXZ ; std::_String_val<std::_Simple_types<char> >::_Myptr
PUBLIC	?_Myptr@?$_String_val@U?$_Simple_types@D@std@@@std@@QEBAPEBDXZ ; std::_String_val<std::_Simple_types<char> >::_Myptr
PUBLIC	?_Large_string_engaged@?$_String_val@U?$_Simple_types@D@std@@@std@@QEBA_NXZ ; std::_String_val<std::_Simple_types<char> >::_Large_string_engaged
PUBLIC	??0_Bxty@?$_String_val@U?$_Simple_types@D@std@@@std@@QEAA@XZ ; std::_String_val<std::_Simple_types<char> >::_Bxty::_Bxty
PUBLIC	??1_Bxty@?$_String_val@U?$_Simple_types@D@std@@@std@@QEAA@XZ ; std::_String_val<std::_Simple_types<char> >::_Bxty::~_Bxty
PUBLIC	??1?$_String_val@U?$_Simple_types@D@std@@@std@@QEAA@XZ ; std::_String_val<std::_Simple_types<char> >::~_String_val<std::_Simple_types<char> >
PUBLIC	??0?$basic_string@DU?$char_traits@D@std@@V?$allocator@D@2@@std@@QEAA@XZ ; std::basic_string<char,std::char_traits<char>,std::allocator<char> >::basic_string<char,std::char_traits<char>,std::allocator<char> >
PUBLIC	??0?$basic_string@DU?$char_traits@D@std@@V?$allocator@D@2@@std@@QEAA@QEBD@Z ; std::basic_string<char,std::char_traits<char>,std::allocator<char> >::basic_string<char,std::char_traits<char>,std::allocator<char> >
PUBLIC	??0?$basic_string@DU?$char_traits@D@std@@V?$allocator@D@2@@std@@QEAA@$$QEAV01@@Z ; std::basic_string<char,std::char_traits<char>,std::allocator<char> >::basic_string<char,std::char_traits<char>,std::allocator<char> >
PUBLIC	?_Memcpy_val_from@?$basic_string@DU?$char_traits@D@std@@V?$allocator@D@2@@std@@AEAAXAEBV12@@Z ; std::basic_string<char,std::char_traits<char>,std::allocator<char> >::_Memcpy_val_from
PUBLIC	?_Take_contents@?$basic_string@DU?$char_traits@D@std@@V?$allocator@D@2@@std@@AEAAXAEAV12@U?$integral_constant@_N$00@2@@Z ; std::basic_string<char,std::char_traits<char>,std::allocator<char> >::_Take_contents
PUBLIC	??1?$basic_string@DU?$char_traits@D@std@@V?$allocator@D@2@@std@@QEAA@XZ ; std::basic_string<char,std::char_traits<char>,std::allocator<char> >::~basic_string<char,std::char_traits<char>,std::allocator<char> >
PUBLIC	??4?$basic_string@DU?$char_traits@D@std@@V?$allocator@D@2@@std@@QEAAAEAV01@QEBD@Z ; std::basic_string<char,std::char_traits<char>,std::allocator<char> >::operator=
PUBLIC	??Y?$basic_string@DU?$char_traits@D@std@@V?$allocator@D@2@@std@@QEAAAEAV01@AEBV01@@Z ; std::basic_string<char,std::char_traits<char>,std::allocator<char> >::operator+=
PUBLIC	??Y?$basic_string@DU?$char_traits@D@std@@V?$allocator@D@2@@std@@QEAAAEAV01@QEBD@Z ; std::basic_string<char,std::char_traits<char>,std::allocator<char> >::operator+=
PUBLIC	?append@?$basic_string@DU?$char_traits@D@std@@V?$allocator@D@2@@std@@QEAAAEAV12@AEBV12@@Z ; std::basic_string<char,std::char_traits<char>,std::allocator<char> >::append
PUBLIC	?append@?$basic_string@DU?$char_traits@D@std@@V?$allocator@D@2@@std@@QEAAAEAV12@QEBD_K@Z ; std::basic_string<char,std::char_traits<char>,std::allocator<char> >::append
PUBLIC	?append@?$basic_string@DU?$char_traits@D@std@@V?$allocator@D@2@@std@@QEAAAEAV12@QEBD@Z ; std::basic_string<char,std::char_traits<char>,std::allocator<char> >::append
PUBLIC	?append@?$basic_string@DU?$char_traits@D@std@@V?$allocator@D@2@@std@@QEAAAEAV12@_KD@Z ; std::basic_string<char,std::char_traits<char>,std::allocator<char> >::append
PUBLIC	?assign@?$basic_string@DU?$char_traits@D@std@@V?$allocator@D@2@@std@@QEAAAEAV12@QEBD_K@Z ; std::basic_string<char,std::char_traits<char>,std::allocator<char> >::assign
PUBLIC	?assign@?$basic_string@DU?$char_traits@D@std@@V?$allocator@D@2@@std@@QEAAAEAV12@QEBD@Z ; std::basic_string<char,std::char_traits<char>,std::allocator<char> >::assign
PUBLIC	??A?$basic_string@DU?$char_traits@D@std@@V?$allocator@D@2@@std@@QEAAAEAD_K@Z ; std::basic_string<char,std::char_traits<char>,std::allocator<char> >::operator[]
PUBLIC	??A?$basic_string@DU?$char_traits@D@std@@V?$allocator@D@2@@std@@QEBAAEBD_K@Z ; std::basic_string<char,std::char_traits<char>,std::allocator<char> >::operator[]
PUBLIC	?c_str@?$basic_string@DU?$char_traits@D@std@@V?$allocator@D@2@@std@@QEBAPEBDXZ ; std::basic_string<char,std::char_traits<char>,std::allocator<char> >::c_str
PUBLIC	?size@?$basic_string@DU?$char_traits@D@std@@V?$allocator@D@2@@std@@QEBA_KXZ ; std::basic_string<char,std::char_traits<char>,std::allocator<char> >::size
PUBLIC	?max_size@?$basic_string@DU?$char_traits@D@std@@V?$allocator@D@2@@std@@QEBA_KXZ ; std::basic_string<char,std::char_traits<char>,std::allocator<char> >::max_size
PUBLIC	?resize@?$basic_string@DU?$char_traits@D@std@@V?$allocator@D@2@@std@@QEAAX_KD@Z ; std::basic_string<char,std::char_traits<char>,std::allocator<char> >::resize
PUBLIC	?reserve@?$basic_string@DU?$char_traits@D@std@@V?$allocator@D@2@@std@@QEAAX_K@Z ; std::basic_string<char,std::char_traits<char>,std::allocator<char> >::reserve
PUBLIC	?_Calculate_growth@?$basic_string@DU?$char_traits@D@std@@V?$allocator@D@2@@std@@CA_K_K00@Z ; std::basic_string<char,std::char_traits<char>,std::allocator<char> >::_Calculate_growth
PUBLIC	?_Calculate_growth@?$basic_string@DU?$char_traits@D@std@@V?$allocator@D@2@@std@@AEBA_K_K@Z ; std::basic_string<char,std::char_traits<char>,std::allocator<char> >::_Calculate_growth
PUBLIC	?_Become_small@?$basic_string@DU?$char_traits@D@std@@V?$allocator@D@2@@std@@AEAAXXZ ; std::basic_string<char,std::char_traits<char>,std::allocator<char> >::_Become_small
PUBLIC	?_Eos@?$basic_string@DU?$char_traits@D@std@@V?$allocator@D@2@@std@@AEAAX_K@Z ; std::basic_string<char,std::char_traits<char>,std::allocator<char> >::_Eos
PUBLIC	?_Tidy_init@?$basic_string@DU?$char_traits@D@std@@V?$allocator@D@2@@std@@AEAAXXZ ; std::basic_string<char,std::char_traits<char>,std::allocator<char> >::_Tidy_init
PUBLIC	?_Tidy_deallocate@?$basic_string@DU?$char_traits@D@std@@V?$allocator@D@2@@std@@AEAAXXZ ; std::basic_string<char,std::char_traits<char>,std::allocator<char> >::_Tidy_deallocate
PUBLIC	?_Xlen@?$basic_string@DU?$char_traits@D@std@@V?$allocator@D@2@@std@@CAXXZ ; std::basic_string<char,std::char_traits<char>,std::allocator<char> >::_Xlen
PUBLIC	?_Swap_proxy_and_iterators@?$basic_string@DU?$char_traits@D@std@@V?$allocator@D@2@@std@@AEAAXAEAV12@@Z ; std::basic_string<char,std::char_traits<char>,std::allocator<char> >::_Swap_proxy_and_iterators
PUBLIC	?_Getal@?$basic_string@DU?$char_traits@D@std@@V?$allocator@D@2@@std@@AEAAAEAV?$allocator@D@2@XZ ; std::basic_string<char,std::char_traits<char>,std::allocator<char> >::_Getal
PUBLIC	?_Getal@?$basic_string@DU?$char_traits@D@std@@V?$allocator@D@2@@std@@AEBAAEBV?$allocator@D@2@XZ ; std::basic_string<char,std::char_traits<char>,std::allocator<char> >::_Getal
PUBLIC	?_Get_first@?$_Compressed_pair@V?$allocator@D@std@@V?$_String_val@U?$_Simple_types@D@std@@@2@$00@std@@QEAAAEAV?$allocator@D@2@XZ ; std::_Compressed_pair<std::allocator<char>,std::_String_val<std::_Simple_types<char> >,1>::_Get_first
PUBLIC	?_Get_first@?$_Compressed_pair@V?$allocator@D@std@@V?$_String_val@U?$_Simple_types@D@std@@@2@$00@std@@QEBAAEBV?$allocator@D@2@XZ ; std::_Compressed_pair<std::allocator<char>,std::_String_val<std::_Simple_types<char> >,1>::_Get_first
PUBLIC	??1?$_Compressed_pair@V?$allocator@D@std@@V?$_String_val@U?$_Simple_types@D@std@@@2@$00@std@@QEAA@XZ ; std::_Compressed_pair<std::allocator<char>,std::_String_val<std::_Simple_types<char> >,1>::~_Compressed_pair<std::allocator<char>,std::_String_val<std::_Simple_types<char> >,1>
PUBLIC	??_G?$basic_string@DU?$char_traits@D@std@@V?$allocator@D@2@@std@@QEAAPEAXI@Z ; std::basic_string<char,std::char_traits<char>,std::allocator<char> >::`scalar deleting destructor'
PUBLIC	??8type_info@@QEBA_NAEBV0@@Z			; type_info::operator==
PUBLIC	??0_Ref_count_base@std@@IEAA@XZ			; std::_Ref_count_base::_Ref_count_base
PUBLIC	??1_Ref_count_base@std@@UEAA@XZ			; std::_Ref_count_base::~_Ref_count_base
PUBLIC	?_Decref@_Ref_count_base@std@@QEAAXXZ		; std::_Ref_count_base::_Decref
PUBLIC	?_Decwref@_Ref_count_base@std@@QEAAXXZ		; std::_Ref_count_base::_Decwref
PUBLIC	_tcscmp
PUBLIC	??Raligned_malloc_deleter@@QEBAXPEAX@Z		; aligned_malloc_deleter::operator()
PUBLIC	??$make_array@W4CspMatrix@@W41@W41@W41@W41@W41@W41@W41@W41@W41@W41@W41@W41@W41@W41@@@YA?AV?$array@W4CspMatrix@@$0O@@std@@$$QEAW4CspMatrix@@0000000000000@Z ; make_array<enum CspMatrix,enum CspMatrix,enum CspMatrix,enum CspMatrix,enum CspMatrix,enum CspMatrix,enum CspMatrix,enum CspMatrix,enum CspMatrix,enum CspMatrix,enum CspMatrix,enum CspMatrix,enum CspMatrix,enum CspMatrix,enum CspMatrix>
PUBLIC	??$make_array@W4CspTransfer@@W41@W41@W41@W41@W41@W41@W41@W41@W41@W41@W41@W41@W41@W41@W41@@@YA?AV?$array@W4CspTransfer@@$0P@@std@@$$QEAW4CspTransfer@@00000000000000@Z ; make_array<enum CspTransfer,enum CspTransfer,enum CspTransfer,enum CspTransfer,enum CspTransfer,enum CspTransfer,enum CspTransfer,enum CspTransfer,enum CspTransfer,enum CspTransfer,enum CspTransfer,enum CspTransfer,enum CspTransfer,enum CspTransfer,enum CspTransfer,enum CspTransfer>
PUBLIC	??$make_array@W4CspColorprim@@W41@W41@W41@W41@W41@W41@W41@W41@W41@W41@W41@W41@@@YA?AV?$array@W4CspColorprim@@$0M@@std@@$$QEAW4CspColorprim@@00000000000@Z ; make_array<enum CspColorprim,enum CspColorprim,enum CspColorprim,enum CspColorprim,enum CspColorprim,enum CspColorprim,enum CspColorprim,enum CspColorprim,enum CspColorprim,enum CspColorprim,enum CspColorprim,enum CspColorprim,enum CspColorprim>
PUBLIC	??$?HDU?$char_traits@D@std@@V?$allocator@D@1@@std@@YA?AV?$basic_string@DU?$char_traits@D@std@@V?$allocator@D@2@@0@AEBV10@QEBD@Z ; std::operator+<char,std::char_traits<char>,std::allocator<char> >
PUBLIC	??$?HDU?$char_traits@D@std@@V?$allocator@D@1@@std@@YA?AV?$basic_string@DU?$char_traits@D@std@@V?$allocator@D@2@@0@$$QEAV10@QEBD@Z ; std::operator+<char,std::char_traits<char>,std::allocator<char> >
PUBLIC	??$?HDU?$char_traits@D@std@@V?$allocator@D@1@@std@@YA?AV?$basic_string@DU?$char_traits@D@std@@V?$allocator@D@2@@0@$$QEAV10@AEBV10@@Z ; std::operator+<char,std::char_traits<char>,std::allocator<char> >
PUBLIC	?size@?$vector@UsTrim@@V?$allocator@UsTrim@@@std@@@std@@QEBA_KXZ ; std::vector<sTrim,std::allocator<sTrim> >::size
PUBLIC	??A?$vector@UsTrim@@V?$allocator@UsTrim@@@std@@@std@@QEAAAEAUsTrim@@_K@Z ; std::vector<sTrim,std::allocator<sTrim> >::operator[]
PUBLIC	?getLogLevel@RGYLog@@QEAAHXZ			; RGYLog::getLogLevel
PUBLIC	?get@?$_Ptr_base@VEncodeStatus@@@std@@IEBAPEAVEncodeStatus@@XZ ; std::_Ptr_base<EncodeStatus>::get
PUBLIC	?get@?$_Ptr_base@VRGYLog@@@std@@IEBAPEAVRGYLog@@XZ ; std::_Ptr_base<RGYLog>::get
PUBLIC	??$?CVRGYLog@@$0A@@?$shared_ptr@VRGYLog@@@std@@QEBAPEAVRGYLog@@XZ ; std::shared_ptr<RGYLog>::operator-><RGYLog,0>
PUBLIC	?ptrArray@RGYFrame@@QEAAXQEAPEAX_N@Z		; RGYFrame::ptrArray
PUBLIC	?ptrRGB@RGYFrame@@QEAAPEAEXZ			; RGYFrame::ptrRGB
PUBLIC	?pitch@RGYFrame@@QEAAIXZ			; RGYFrame::pitch
PUBLIC	??$min@PEAE@std@@YAAEBQEAEAEBQEAE0@Z		; std::min<unsigned char *>
PUBLIC	?getFunc@RGYConvertCSP@@QEBAPEBUConvertCSP@@XZ	; RGYConvertCSP::getFunc
PUBLIC	??_GRGYConvertCSP@@QEAAPEAXI@Z			; RGYConvertCSP::`scalar deleting destructor'
PUBLIC	?GetNextBitstream@RGYInput@@UEAA?AW4RGY_ERR@@PEAURGYBitstream@@@Z ; RGYInput::GetNextBitstream
PUBLIC	?GetNextBitstreamNoDelete@RGYInput@@UEAA?AW4RGY_ERR@@PEAURGYBitstream@@@Z ; RGYInput::GetNextBitstreamNoDelete
PUBLIC	?GetHeader@RGYInput@@UEAA?AW4RGY_ERR@@PEAURGYBitstream@@@Z ; RGYInput::GetHeader
PUBLIC	?GetAudioTrackCount@RGYInput@@UEAAHXZ		; RGYInput::GetAudioTrackCount
PUBLIC	?GetSubtitleTrackCount@RGYInput@@UEAAHXZ	; RGYInput::GetSubtitleTrackCount
PUBLIC	?GetDataTrackCount@RGYInput@@UEAAHXZ		; RGYInput::GetDataTrackCount
PUBLIC	?AddMessage@RGYInput@@QEAAXHAEBV?$basic_string@DU?$char_traits@D@std@@V?$allocator@D@2@@std@@@Z ; RGYInput::AddMessage
PUBLIC	?AddMessage@RGYInput@@QEAAXHPEBDZZ		; RGYInput::AddMessage
PUBLIC	?getVideoTrimMaxFramIdx@RGYInput@@IEAAHXZ	; RGYInput::getVideoTrimMaxFramIdx
PUBLIC	??R?$default_delete@VRGYConvertCSP@@@std@@QEBAXPEAVRGYConvertCSP@@@Z ; std::default_delete<RGYConvertCSP>::operator()
PUBLIC	??4?$unique_ptr@VRGYConvertCSP@@U?$default_delete@VRGYConvertCSP@@@std@@@std@@QEAAAEAV01@$$QEAV01@@Z ; std::unique_ptr<RGYConvertCSP,std::default_delete<RGYConvertCSP> >::operator=
PUBLIC	??1?$unique_ptr@VRGYConvertCSP@@U?$default_delete@VRGYConvertCSP@@@std@@@std@@QEAA@XZ ; std::unique_ptr<RGYConvertCSP,std::default_delete<RGYConvertCSP> >::~unique_ptr<RGYConvertCSP,std::default_delete<RGYConvertCSP> >
PUBLIC	??C?$unique_ptr@VRGYConvertCSP@@U?$default_delete@VRGYConvertCSP@@@std@@@std@@QEBAPEAVRGYConvertCSP@@XZ ; std::unique_ptr<RGYConvertCSP,std::default_delete<RGYConvertCSP> >::operator->
PUBLIC	?release@?$unique_ptr@VRGYConvertCSP@@U?$default_delete@VRGYConvertCSP@@@std@@@std@@QEAAPEAVRGYConvertCSP@@XZ ; std::unique_ptr<RGYConvertCSP,std::default_delete<RGYConvertCSP> >::release
PUBLIC	?reset@?$unique_ptr@VRGYConvertCSP@@U?$default_delete@VRGYConvertCSP@@@std@@@std@@QEAAXPEAVRGYConvertCSP@@@Z ; std::unique_ptr<RGYConvertCSP,std::default_delete<RGYConvertCSP> >::reset
PUBLIC	?_Get_first@?$_Compressed_pair@U?$default_delete@VRGYConvertCSP@@@std@@PEAVRGYConvertCSP@@$00@std@@QEAAAEAU?$default_delete@VRGYConvertCSP@@@2@XZ ; std::_Compressed_pair<std::default_delete<RGYConvertCSP>,RGYConvertCSP *,1>::_Get_first
PUBLIC	??$?8VRGYLog@@@std@@YA_NAEBV?$shared_ptr@VRGYLog@@@0@$$T@Z ; std::operator==<RGYLog>
PUBLIC	?deallocate@?$allocator@V?$basic_string@DU?$char_traits@D@std@@V?$allocator@D@2@@std@@@std@@QEAAXQEAV?$basic_string@DU?$char_traits@D@std@@V?$allocator@D@2@@2@_K@Z ; std::allocator<std::basic_string<char,std::char_traits<char>,std::allocator<char> > >::deallocate
PUBLIC	??1?$vector@V?$basic_string@DU?$char_traits@D@std@@V?$allocator@D@2@@std@@V?$allocator@V?$basic_string@DU?$char_traits@D@std@@V?$allocator@D@2@@std@@@2@@std@@QEAA@XZ ; std::vector<std::basic_string<char,std::char_traits<char>,std::allocator<char> >,std::allocator<std::basic_string<char,std::char_traits<char>,std::allocator<char> > > >::~vector<std::basic_string<char,std::char_traits<char>,std::allocator<char> >,std::allocator<std::basic_string<char,std::char_traits<char>,std::allocator<char> > > >
PUBLIC	?_Unchecked_begin@?$vector@V?$basic_string@DU?$char_traits@D@std@@V?$allocator@D@2@@std@@V?$allocator@V?$basic_string@DU?$char_traits@D@std@@V?$allocator@D@2@@std@@@2@@std@@QEAAPEAV?$basic_string@DU?$char_traits@D@std@@V?$allocator@D@2@@2@XZ ; std::vector<std::basic_string<char,std::char_traits<char>,std::allocator<char> >,std::allocator<std::basic_string<char,std::char_traits<char>,std::allocator<char> > > >::_Unchecked_begin
PUBLIC	?_Unchecked_end@?$vector@V?$basic_string@DU?$char_traits@D@std@@V?$allocator@D@2@@std@@V?$allocator@V?$basic_string@DU?$char_traits@D@std@@V?$allocator@D@2@@std@@@2@@std@@QEAAPEAV?$basic_string@DU?$char_traits@D@std@@V?$allocator@D@2@@2@XZ ; std::vector<std::basic_string<char,std::char_traits<char>,std::allocator<char> >,std::allocator<std::basic_string<char,std::char_traits<char>,std::allocator<char> > > >::_Unchecked_end
PUBLIC	?_Destroy@?$vector@V?$basic_string@DU?$char_traits@D@std@@V?$allocator@D@2@@std@@V?$allocator@V?$basic_string@DU?$char_traits@D@std@@V?$allocator@D@2@@std@@@2@@std@@AEAAXPEAV?$basic_string@DU?$char_traits@D@std@@V?$allocator@D@2@@2@0@Z ; std::vector<std::basic_string<char,std::char_traits<char>,std::allocator<char> >,std::allocator<std::basic_string<char,std::char_traits<char>,std::allocator<char> > > >::_Destroy
PUBLIC	?_Tidy@?$vector@V?$basic_string@DU?$char_traits@D@std@@V?$allocator@D@2@@std@@V?$allocator@V?$basic_string@DU?$char_traits@D@std@@V?$allocator@D@2@@std@@@2@@std@@AEAAXXZ ; std::vector<std::basic_string<char,std::char_traits<char>,std::allocator<char> >,std::allocator<std::basic_string<char,std::char_traits<char>,std::allocator<char> > > >::_Tidy
PUBLIC	?_Getal@?$vector@V?$basic_string@DU?$char_traits@D@std@@V?$allocator@D@2@@std@@V?$allocator@V?$basic_string@DU?$char_traits@D@std@@V?$allocator@D@2@@std@@@2@@std@@AEAAAEAV?$allocator@V?$basic_string@DU?$char_traits@D@std@@V?$allocator@D@2@@std@@@2@XZ ; std::vector<std::basic_string<char,std::char_traits<char>,std::allocator<char> >,std::allocator<std::basic_string<char,std::char_traits<char>,std::allocator<char> > > >::_Getal
PUBLIC	?_Get_first@?$_Compressed_pair@V?$allocator@V?$basic_string@DU?$char_traits@D@std@@V?$allocator@D@2@@std@@@std@@V?$_Vector_val@U?$_Simple_types@V?$basic_string@DU?$char_traits@D@std@@V?$allocator@D@2@@std@@@std@@@2@$00@std@@QEAAAEAV?$allocator@V?$basic_string@DU?$char_traits@D@std@@V?$allocator@D@2@@std@@@2@XZ ; std::_Compressed_pair<std::allocator<std::basic_string<char,std::char_traits<char>,std::allocator<char> > >,std::_Vector_val<std::_Simple_types<std::basic_string<char,std::char_traits<char>,std::allocator<char> > > >,1>::_Get_first
PUBLIC	??0RGYInputRaw@@QEAA@XZ				; RGYInputRaw::RGYInputRaw
PUBLIC	??1RGYInputRaw@@UEAA@XZ				; RGYInputRaw::~RGYInputRaw
PUBLIC	?LoadNextFrame@RGYInputRaw@@UEAA?AW4RGY_ERR@@PEAURGYFrame@@@Z ; RGYInputRaw::LoadNextFrame
PUBLIC	?Close@RGYInputRaw@@UEAAXXZ			; RGYInputRaw::Close
PUBLIC	?Init@RGYInputRaw@@MEAA?AW4RGY_ERR@@PEBDPEAUVideoInfo@@PEBVRGYInputPrm@@@Z ; RGYInputRaw::Init
PUBLIC	?ParseY4MHeader@RGYInputRaw@@IEAA?AW4RGY_ERR@@PEADPEAUVideoInfo@@@Z ; RGYInputRaw::ParseY4MHeader
PUBLIC	?get@?$_Ptr_base@E@std@@IEBAPEAEXZ		; std::_Ptr_base<unsigned char>::get
PUBLIC	??0?$_Ptr_base@E@std@@IEAA@XZ			; std::_Ptr_base<unsigned char>::_Ptr_base<unsigned char>
PUBLIC	?_Decref@?$_Ptr_base@E@std@@IEAAXXZ		; std::_Ptr_base<unsigned char>::_Decref
PUBLIC	?_Swap@?$_Ptr_base@E@std@@IEAAXAEAV12@@Z	; std::_Ptr_base<unsigned char>::_Swap
PUBLIC	??0?$shared_ptr@E@std@@QEAA@XZ			; std::shared_ptr<unsigned char>::shared_ptr<unsigned char>
PUBLIC	??0?$shared_ptr@E@std@@QEAA@$$QEAV01@@Z		; std::shared_ptr<unsigned char>::shared_ptr<unsigned char>
PUBLIC	??1?$shared_ptr@E@std@@QEAA@XZ			; std::shared_ptr<unsigned char>::~shared_ptr<unsigned char>
PUBLIC	??4?$shared_ptr@E@std@@QEAAAEAV01@$$QEAV01@@Z	; std::shared_ptr<unsigned char>::operator=
PUBLIC	?swap@?$shared_ptr@E@std@@QEAAXAEAV12@@Z	; std::shared_ptr<unsigned char>::swap
PUBLIC	?reset@?$shared_ptr@E@std@@QEAAXXZ		; std::shared_ptr<unsigned char>::reset
PUBLIC	??B?$shared_ptr@E@std@@QEBA_NXZ			; std::shared_ptr<unsigned char>::operator bool
PUBLIC	??_GRGYInputRaw@@UEAAPEAXI@Z			; RGYInputRaw::`scalar deleting destructor'
PUBLIC	??$make_unique@VRGYConvertCSP@@AEBH$0A@@std@@YA?AV?$unique_ptr@VRGYConvertCSP@@U?$default_delete@VRGYConvertCSP@@@std@@@0@AEBH@Z ; std::make_unique<RGYConvertCSP,int const &,0>
PUBLIC	??$?0EUaligned_malloc_deleter@@$0A@@?$shared_ptr@E@std@@QEAA@PEAEUaligned_malloc_deleter@@@Z ; std::shared_ptr<unsigned char>::shared_ptr<unsigned char><unsigned char,aligned_malloc_deleter,0>
PUBLIC	??$?CVEncodeStatus@@$0A@@?$shared_ptr@VEncodeStatus@@@std@@QEBAPEAVEncodeStatus@@XZ ; std::shared_ptr<EncodeStatus>::operator-><EncodeStatus,0>
PUBLIC	??$move@AEAV?$shared_ptr@E@std@@@std@@YA$$QEAV?$shared_ptr@E@0@AEAV10@@Z ; std::move<std::shared_ptr<unsigned char> &>
PUBLIC	?allocate@?$allocator@U_Container_proxy@std@@@std@@QEAAPEAU_Container_proxy@2@_K@Z ; std::allocator<std::_Container_proxy>::allocate
PUBLIC	??$?0V?$basic_string@DU?$char_traits@D@std@@V?$allocator@D@2@@std@@@?$allocator@U_Container_proxy@std@@@std@@QEAA@AEBV?$allocator@V?$basic_string@DU?$char_traits@D@std@@V?$allocator@D@2@@std@@@1@@Z ; std::allocator<std::_Container_proxy>::allocator<std::_Container_proxy><std::basic_string<char,std::char_traits<char>,std::allocator<char> > >
PUBLIC	??$exchange@PEAU_Container_proxy@std@@$$T@std@@YAPEAU_Container_proxy@0@AEAPEAU10@$$QEA$$T@Z ; std::exchange<std::_Container_proxy *,std::nullptr_t>
PUBLIC	??$_Delete_plain_internal@V?$allocator@U_Container_proxy@std@@@std@@@std@@YAXAEAV?$allocator@U_Container_proxy@std@@@0@QEAU_Container_proxy@0@@Z ; std::_Delete_plain_internal<std::allocator<std::_Container_proxy> >
PUBLIC	??$addressof@V?$unique_ptr@VRGYConvertCSP@@U?$default_delete@VRGYConvertCSP@@@std@@@std@@@std@@YAPEAV?$unique_ptr@VRGYConvertCSP@@U?$default_delete@VRGYConvertCSP@@@std@@@0@AEAV10@@Z ; std::addressof<std::unique_ptr<RGYConvertCSP,std::default_delete<RGYConvertCSP> > >
PUBLIC	??$forward@U?$default_delete@VRGYConvertCSP@@@std@@@std@@YA$$QEAU?$default_delete@VRGYConvertCSP@@@0@AEAU10@@Z ; std::forward<std::default_delete<RGYConvertCSP> >
PUBLIC	??$move@AEAV?$basic_string@DU?$char_traits@D@std@@V?$allocator@D@2@@std@@@std@@YA$$QEAV?$basic_string@DU?$char_traits@D@std@@V?$allocator@D@2@@0@AEAV10@@Z ; std::move<std::basic_string<char,std::char_traits<char>,std::allocator<char> > &>
PUBLIC	??$_Min_value@_K@std@@YAAEB_KAEB_K0@Z		; std::_Min_value<unsigned __int64>
PUBLIC	??0?$_Container_proxy_ptr12@V?$allocator@U_Container_proxy@std@@@std@@@std@@QEAA@AEAV?$allocator@U_Container_proxy@std@@@1@AEAU_Container_base12@1@@Z ; std::_Container_proxy_ptr12<std::allocator<std::_Container_proxy> >::_Container_proxy_ptr12<std::allocator<std::_Container_proxy> >
PUBLIC	??1?$_Container_proxy_ptr12@V?$allocator@U_Container_proxy@std@@@std@@@std@@QEAA@XZ ; std::_Container_proxy_ptr12<std::allocator<std::_Container_proxy> >::~_Container_proxy_ptr12<std::allocator<std::_Container_proxy> >
PUBLIC	??$_Alloc_proxy@V?$allocator@U_Container_proxy@std@@@std@@@_Container_base12@std@@QEAAX$$QEAV?$allocator@U_Container_proxy@std@@@1@@Z ; std::_Container_base12::_Alloc_proxy<std::allocator<std::_Container_proxy> >
PUBLIC	??$_Unfancy@D@std@@YAPEADPEAD@Z			; std::_Unfancy<char>
PUBLIC	??$addressof@V?$_String_val@U?$_Simple_types@D@std@@@std@@@std@@YAPEAV?$_String_val@U?$_Simple_types@D@std@@@0@AEAV10@@Z ; std::addressof<std::_String_val<std::_Simple_types<char> > >
PUBLIC	??$?0D@?$allocator@U_Container_proxy@std@@@std@@QEAA@AEBV?$allocator@D@1@@Z ; std::allocator<std::_Container_proxy>::allocator<std::_Container_proxy><char>
PUBLIC	??$move@AEAV?$allocator@D@std@@@std@@YA$$QEAV?$allocator@D@0@AEAV10@@Z ; std::move<std::allocator<char> &>
PUBLIC	??$?0V?$allocator@D@std@@$$V@?$_Compressed_pair@V?$allocator@D@std@@V?$_String_val@U?$_Simple_types@D@std@@@2@$00@std@@QEAA@U_One_then_variadic_args_t@1@$$QEAV?$allocator@D@1@@Z ; std::_Compressed_pair<std::allocator<char>,std::_String_val<std::_Simple_types<char> >,1>::_Compressed_pair<std::allocator<char>,std::_String_val<std::_Simple_types<char> >,1><std::allocator<char> >
PUBLIC	??$?0$$V@?$_Compressed_pair@V?$allocator@D@std@@V?$_String_val@U?$_Simple_types@D@std@@@2@$00@std@@QEAA@U_Zero_then_variadic_args_t@1@@Z ; std::_Compressed_pair<std::allocator<char>,std::_String_val<std::_Simple_types<char> >,1>::_Compressed_pair<std::allocator<char>,std::_String_val<std::_Simple_types<char> >,1><>
PUBLIC	??$_Unfancy@U_Container_proxy@std@@@std@@YAPEAU_Container_proxy@0@PEAU10@@Z ; std::_Unfancy<std::_Container_proxy>
PUBLIC	??$addressof@U_Container_base12@std@@@std@@YAPEAU_Container_base12@0@AEAU10@@Z ; std::addressof<std::_Container_base12>
PUBLIC	??$_Construct_in_place@U_Container_proxy@std@@PEAU_Container_base12@2@@std@@YAXAEAU_Container_proxy@0@$$QEAPEAU_Container_base12@0@@Z ; std::_Construct_in_place<std::_Container_proxy,std::_Container_base12 *>
PUBLIC	??$_Move_construct_from@E@?$_Ptr_base@E@std@@IEAAX$$QEAV01@@Z ; std::_Ptr_base<unsigned char>::_Move_construct_from<unsigned char>
PUBLIC	??$exchange@PEAVRGYConvertCSP@@AEAPEAV1@@std@@YAPEAVRGYConvertCSP@@AEAPEAV1@0@Z ; std::exchange<RGYConvertCSP *,RGYConvertCSP * &>
PUBLIC	??$exchange@PEAVRGYConvertCSP@@PEAV1@@std@@YAPEAVRGYConvertCSP@@AEAPEAV1@$$QEAPEAV1@@Z ; std::exchange<RGYConvertCSP *,RGYConvertCSP *>
PUBLIC	??$_Destroy_in_place@PEAD@std@@YAXAEAPEAD@Z	; std::_Destroy_in_place<char *>
PUBLIC	??$_Max_value@_K@std@@YAAEB_KAEB_K0@Z		; std::_Max_value<unsigned __int64>
PUBLIC	??$addressof@$$CBV?$_String_val@U?$_Simple_types@D@std@@@std@@@std@@YAPEBV?$_String_val@U?$_Simple_types@D@std@@@0@AEBV10@@Z ; std::addressof<std::_String_val<std::_Simple_types<char> > const >
PUBLIC	??R<lambda_66f57f934f28d61049862f64df852ff0>@@QEBAXQEAD_KQEBD@Z ; <lambda_66f57f934f28d61049862f64df852ff0>::operator()
PUBLIC	??$_Reallocate_for@V<lambda_66f57f934f28d61049862f64df852ff0>@@PEBD@?$basic_string@DU?$char_traits@D@std@@V?$allocator@D@2@@std@@AEAAAEAV01@_KV<lambda_66f57f934f28d61049862f64df852ff0>@@PEBD@Z ; std::basic_string<char,std::char_traits<char>,std::allocator<char> >::_Reallocate_for<<lambda_66f57f934f28d61049862f64df852ff0>,char const *>
PUBLIC	??R<lambda_e1befb086ad3257e3f042a63030725f7>@@QEBAXQEADQEBD_K2D@Z ; <lambda_e1befb086ad3257e3f042a63030725f7>::operator()
PUBLIC	??$_Reallocate_grow_by@V<lambda_e1befb086ad3257e3f042a63030725f7>@@_KD@?$basic_string@DU?$char_traits@D@std@@V?$allocator@D@2@@std@@AEAAAEAV01@_KV<lambda_e1befb086ad3257e3f042a63030725f7>@@_KD@Z ; std::basic_string<char,std::char_traits<char>,std::allocator<char> >::_Reallocate_grow_by<<lambda_e1befb086ad3257e3f042a63030725f7>,unsigned __int64,char>
PUBLIC	??R<lambda_65e615be2a453ca0576c979606f46740>@@QEBAXQEADQEBD_K12@Z ; <lambda_65e615be2a453ca0576c979606f46740>::operator()
PUBLIC	??$_Reallocate_grow_by@V<lambda_65e615be2a453ca0576c979606f46740>@@PEBD_K@?$basic_string@DU?$char_traits@D@std@@V?$allocator@D@2@@std@@AEAAAEAV01@_KV<lambda_65e615be2a453ca0576c979606f46740>@@PEBD_K@Z ; std::basic_string<char,std::char_traits<char>,std::allocator<char> >::_Reallocate_grow_by<<lambda_65e615be2a453ca0576c979606f46740>,char const *,unsigned __int64>
PUBLIC	??$_Construct_in_place@PEADAEBQEAD@std@@YAXAEAPEADAEBQEAD@Z ; std::_Construct_in_place<char *,char * const &>
PUBLIC	??$_Get_size_of_n@$00@std@@YA_K_K@Z		; std::_Get_size_of_n<1>
PUBLIC	??$_Allocate@$0BA@U_Default_allocate_traits@std@@$0A@@std@@YAPEAX_K@Z ; std::_Allocate<16,std::_Default_allocate_traits,0>
PUBLIC	??$_Deallocate@$0BA@$0A@@std@@YAXPEAX_K@Z	; std::_Deallocate<16,0>
PUBLIC	??$_Get_size_of_n@$0BA@@std@@YA_K_K@Z		; std::_Get_size_of_n<16>
PUBLIC	??$swap@PEAEX@std@@YAXAEAPEAE0@Z		; std::swap<unsigned char *,void>
PUBLIC	??$swap@PEAV_Ref_count_base@std@@X@std@@YAXAEAPEAV_Ref_count_base@0@0@Z ; std::swap<std::_Ref_count_base *,void>
PUBLIC	??$_Destroy_range@V?$allocator@V?$basic_string@DU?$char_traits@D@std@@V?$allocator@D@2@@std@@@std@@@std@@YAXPEAV?$basic_string@DU?$char_traits@D@std@@V?$allocator@D@2@@0@QEAV10@AEAV?$allocator@V?$basic_string@DU?$char_traits@D@std@@V?$allocator@D@2@@std@@@0@@Z ; std::_Destroy_range<std::allocator<std::basic_string<char,std::char_traits<char>,std::allocator<char> > > >
PUBLIC	??$forward@AEBH@std@@YAAEBHAEBH@Z		; std::forward<int const &>
PUBLIC	??$?0U?$default_delete@VRGYConvertCSP@@@std@@$0A@@?$unique_ptr@VRGYConvertCSP@@U?$default_delete@VRGYConvertCSP@@@std@@@std@@QEAA@PEAVRGYConvertCSP@@@Z ; std::unique_ptr<RGYConvertCSP,std::default_delete<RGYConvertCSP> >::unique_ptr<RGYConvertCSP,std::default_delete<RGYConvertCSP> ><std::default_delete<RGYConvertCSP>,0>
PUBLIC	??$move@AEAUaligned_malloc_deleter@@@std@@YA$$QEAUaligned_malloc_deleter@@AEAU1@@Z ; std::move<aligned_malloc_deleter &>
PUBLIC	??$_Setpd@PEAEUaligned_malloc_deleter@@@?$shared_ptr@E@std@@AEAAXQEAEUaligned_malloc_deleter@@@Z ; std::shared_ptr<unsigned char>::_Setpd<unsigned char *,aligned_malloc_deleter>
PUBLIC	??$_Deallocate_plain@V?$allocator@U_Container_proxy@std@@@std@@@std@@YAXAEAV?$allocator@U_Container_proxy@std@@@0@QEAU_Container_proxy@0@@Z ; std::_Deallocate_plain<std::allocator<std::_Container_proxy> >
PUBLIC	??$forward@V?$allocator@D@std@@@std@@YA$$QEAV?$allocator@D@0@AEAV10@@Z ; std::forward<std::allocator<char> >
PUBLIC	??$addressof@U_Container_proxy@std@@@std@@YAPEAU_Container_proxy@0@AEAU10@@Z ; std::addressof<std::_Container_proxy>
PUBLIC	??$forward@PEAU_Container_base12@std@@@std@@YA$$QEAPEAU_Container_base12@0@AEAPEAU10@@Z ; std::forward<std::_Container_base12 *>
PUBLIC	??$addressof@PEAD@std@@YAPEAPEADAEAPEAD@Z	; std::addressof<char *>
PUBLIC	??$forward@AEBQEAD@std@@YAAEBQEADAEBQEAD@Z	; std::forward<char * const &>
PUBLIC	??$_Allocate_manually_vector_aligned@U_Default_allocate_traits@std@@@std@@YAPEAX_K@Z ; std::_Allocate_manually_vector_aligned<std::_Default_allocate_traits>
PUBLIC	??$move@AEAPEAE@std@@YA$$QEAPEAEAEAPEAE@Z	; std::move<unsigned char * &>
PUBLIC	??$move@AEAPEAV_Ref_count_base@std@@@std@@YA$$QEAPEAV_Ref_count_base@0@AEAPEAV10@@Z ; std::move<std::_Ref_count_base * &>
PUBLIC	??$_Unfancy@V?$basic_string@DU?$char_traits@D@std@@V?$allocator@D@2@@std@@@std@@YAPEAV?$basic_string@DU?$char_traits@D@std@@V?$allocator@D@2@@0@PEAV10@@Z ; std::_Unfancy<std::basic_string<char,std::char_traits<char>,std::allocator<char> > >
PUBLIC	??$destroy@V?$basic_string@DU?$char_traits@D@std@@V?$allocator@D@2@@std@@@?$_Default_allocator_traits@V?$allocator@V?$basic_string@DU?$char_traits@D@std@@V?$allocator@D@2@@std@@@std@@@std@@SAXAEAV?$allocator@V?$basic_string@DU?$char_traits@D@std@@V?$allocator@D@2@@std@@@1@QEAV?$basic_string@DU?$char_traits@D@std@@V?$allocator@D@2@@1@@Z ; std::_Default_allocator_traits<std::allocator<std::basic_string<char,std::char_traits<char>,std::allocator<char> > > >::destroy<std::basic_string<char,std::char_traits<char>,std::allocator<char> > >
PUBLIC	??R<lambda_9013ee9e23efe4882b67eff5b0ecf103>@@QEBAXQEADQEBD_K@Z ; <lambda_9013ee9e23efe4882b67eff5b0ecf103>::operator()
PUBLIC	??$_Reallocate_grow_by@V<lambda_9013ee9e23efe4882b67eff5b0ecf103>@@$$V@?$basic_string@DU?$char_traits@D@std@@V?$allocator@D@2@@std@@AEAAAEAV01@_KV<lambda_9013ee9e23efe4882b67eff5b0ecf103>@@@Z ; std::basic_string<char,std::char_traits<char>,std::allocator<char> >::_Reallocate_grow_by<<lambda_9013ee9e23efe4882b67eff5b0ecf103> >
PUBLIC	??$?0AEAPEAVRGYConvertCSP@@@?$_Compressed_pair@U?$default_delete@VRGYConvertCSP@@@std@@PEAVRGYConvertCSP@@$00@std@@QEAA@U_Zero_then_variadic_args_t@1@AEAPEAVRGYConvertCSP@@@Z ; std::_Compressed_pair<std::default_delete<RGYConvertCSP>,RGYConvertCSP *,1>::_Compressed_pair<std::default_delete<RGYConvertCSP>,RGYConvertCSP *,1><RGYConvertCSP * &>
PUBLIC	??0?$_Temporary_owner_del@PEAEUaligned_malloc_deleter@@@std@@QEAA@QEAEAEAUaligned_malloc_deleter@@@Z ; std::_Temporary_owner_del<unsigned char *,aligned_malloc_deleter>::_Temporary_owner_del<unsigned char *,aligned_malloc_deleter>
PUBLIC	??1?$_Temporary_owner_del@PEAEUaligned_malloc_deleter@@@std@@QEAA@XZ ; std::_Temporary_owner_del<unsigned char *,aligned_malloc_deleter>::~_Temporary_owner_del<unsigned char *,aligned_malloc_deleter>
PUBLIC	??0?$_Ref_count_resource@PEAEUaligned_malloc_deleter@@@std@@QEAA@PEAEUaligned_malloc_deleter@@@Z ; std::_Ref_count_resource<unsigned char *,aligned_malloc_deleter>::_Ref_count_resource<unsigned char *,aligned_malloc_deleter>
PUBLIC	?_Get_deleter@?$_Ref_count_resource@PEAEUaligned_malloc_deleter@@@std@@UEBAPEAXAEBVtype_info@@@Z ; std::_Ref_count_resource<unsigned char *,aligned_malloc_deleter>::_Get_deleter
PUBLIC	?_Destroy@?$_Ref_count_resource@PEAEUaligned_malloc_deleter@@@std@@EEAAXXZ ; std::_Ref_count_resource<unsigned char *,aligned_malloc_deleter>::_Destroy
PUBLIC	?_Delete_this@?$_Ref_count_resource@PEAEUaligned_malloc_deleter@@@std@@EEAAXXZ ; std::_Ref_count_resource<unsigned char *,aligned_malloc_deleter>::_Delete_this
PUBLIC	?_Get_first@?$_Compressed_pair@Ualigned_malloc_deleter@@PEAE$00@std@@QEAAAEAUaligned_malloc_deleter@@XZ ; std::_Compressed_pair<aligned_malloc_deleter,unsigned char *,1>::_Get_first
PUBLIC	?_Get_first@?$_Compressed_pair@Ualigned_malloc_deleter@@PEAE$00@std@@QEBAAEBUaligned_malloc_deleter@@XZ ; std::_Compressed_pair<aligned_malloc_deleter,unsigned char *,1>::_Get_first
PUBLIC	??1?$_Ref_count_resource@PEAEUaligned_malloc_deleter@@@std@@UEAA@XZ ; std::_Ref_count_resource<unsigned char *,aligned_malloc_deleter>::~_Ref_count_resource<unsigned char *,aligned_malloc_deleter>
PUBLIC	??_G?$_Ref_count_resource@PEAEUaligned_malloc_deleter@@@std@@UEAAPEAXI@Z ; std::_Ref_count_resource<unsigned char *,aligned_malloc_deleter>::`scalar deleting destructor'
PUBLIC	??$_Set_ptr_rep_and_enable_shared@E@?$shared_ptr@E@std@@AEAAXQEAEQEAV_Ref_count_base@1@@Z ; std::shared_ptr<unsigned char>::_Set_ptr_rep_and_enable_shared<unsigned char>
PUBLIC	?deallocate@?$_Default_allocator_traits@V?$allocator@U_Container_proxy@std@@@std@@@std@@SAXAEAV?$allocator@U_Container_proxy@std@@@2@QEAU_Container_proxy@2@_K@Z ; std::_Default_allocator_traits<std::allocator<std::_Container_proxy> >::deallocate
PUBLIC	??$addressof@$$CBUaligned_malloc_deleter@@@std@@YAPEBUaligned_malloc_deleter@@AEBU1@@Z ; std::addressof<aligned_malloc_deleter const >
PUBLIC	??$?0Ualigned_malloc_deleter@@AEAPEAE@?$_Compressed_pair@Ualigned_malloc_deleter@@PEAE$00@std@@QEAA@U_One_then_variadic_args_t@1@$$QEAUaligned_malloc_deleter@@AEAPEAE@Z ; std::_Compressed_pair<aligned_malloc_deleter,unsigned char *,1>::_Compressed_pair<aligned_malloc_deleter,unsigned char *,1><aligned_malloc_deleter,unsigned char * &>
PUBLIC	??$forward@AEAPEAVRGYConvertCSP@@@std@@YAAEAPEAVRGYConvertCSP@@AEAPEAV1@@Z ; std::forward<RGYConvertCSP * &>
PUBLIC	??$forward@Ualigned_malloc_deleter@@@std@@YA$$QEAUaligned_malloc_deleter@@AEAU1@@Z ; std::forward<aligned_malloc_deleter>
PUBLIC	??$forward@AEAPEAE@std@@YAAEAPEAEAEAPEAE@Z	; std::forward<unsigned char * &>
PUBLIC	?_OptionsStorage@?1??__local_stdio_printf_options@@9@4_KA ; `__local_stdio_printf_options'::`2'::_OptionsStorage
PUBLIC	?_OptionsStorage@?1??__local_stdio_scanf_options@@9@4_KA ; `__local_stdio_scanf_options'::`2'::_OptionsStorage
PUBLIC	??_7exception@std@@6B@				; std::exception::`vftable'
PUBLIC	??_C@_0BC@EOODALEL@Unknown?5exception@		; `string'
PUBLIC	??_7bad_alloc@std@@6B@				; std::bad_alloc::`vftable'
PUBLIC	??_7bad_array_new_length@std@@6B@		; std::bad_array_new_length::`vftable'
PUBLIC	??_C@_0BF@KINCDENJ@bad?5array?5new?5length@	; `string'
PUBLIC	_TI3?AVbad_array_new_length@std@@
PUBLIC	_CTA3?AVbad_array_new_length@std@@
PUBLIC	??_R0?AVbad_array_new_length@std@@@8		; std::bad_array_new_length `RTTI Type Descriptor'
PUBLIC	_CT??_R0?AVbad_array_new_length@std@@@8??0bad_array_new_length@std@@QEAA@AEBV01@@Z24
PUBLIC	??_R0?AVbad_alloc@std@@@8			; std::bad_alloc `RTTI Type Descriptor'
PUBLIC	_CT??_R0?AVbad_alloc@std@@@8??0bad_alloc@std@@QEAA@AEBV01@@Z24
PUBLIC	??_R0?AVexception@std@@@8			; std::exception `RTTI Type Descriptor'
PUBLIC	_CT??_R0?AVexception@std@@@8??0exception@std@@QEAA@AEBV01@@Z24
PUBLIC	??_C@_0BB@FCMFBGOM@invalid?5argument@		; `string'
PUBLIC	??_C@_02DKCKIIND@?$CFs@				; `string'
PUBLIC	??_C@_0GI@FJIKDGOA@C?3?2Program?5Files?5?$CIx86?$CJ?2Microsof@ ; `string'
PUBLIC	??_C@_1NA@CDBIFGMM@?$AAC?$AA?3?$AA?2?$AAP?$AAr?$AAo?$AAg?$AAr?$AAa?$AAm?$AA?5?$AAF?$AAi?$AAl?$AAe@ ; `string'
PUBLIC	??_C@_1EK@NIFDJFDG@?$AAs?$AAt?$AAd?$AA?3?$AA?3?$AA_?$AAA?$AAd?$AAj?$AAu?$AAs?$AAt?$AA_?$AAm?$AAa@ ; `string'
PUBLIC	??_C@_1CG@JNLFBNGN@?$AA?$CC?$AAi?$AAn?$AAv?$AAa?$AAl?$AAi?$AAd?$AA?5?$AAa?$AAr?$AAg?$AAu?$AAm?$AAe@ ; `string'
PUBLIC	??_C@_02LMMGGCAJ@?3?5@				; `string'
PUBLIC	??_C@_01EEMJAFIK@?6@				; `string'
PUBLIC	??_7RGYInputRaw@@6B@				; RGYInputRaw::`vftable'
PUBLIC	??_C@_0GH@OOPCKGB@C?3?2Program?5Files?5?$CIx86?$CJ?2Microsof@ ; `string'
PUBLIC	??_C@_1MO@NOOOHLI@?$AAC?$AA?3?$AA?2?$AAP?$AAr?$AAo?$AAg?$AAr?$AAa?$AAm?$AA?5?$AAF?$AAi?$AAl?$AAe@ ; `string'
PUBLIC	??_C@_0BO@PFKOHNJC@vector?5subscript?5out?5of?5range@ ; `string'
PUBLIC	??_C@_1JG@GIBNJFPK@?$AAs?$AAt?$AAd?$AA?3?$AA?3?$AAv?$AAe?$AAc?$AAt?$AAo?$AAr?$AA?$DM?$AAs?$AAt?$AAr@ ; `string'
PUBLIC	??_C@_1EA@LEKOKFNB@?$AA?$CC?$AAv?$AAe?$AAc?$AAt?$AAo?$AAr?$AA?5?$AAs?$AAu?$AAb?$AAs?$AAc?$AAr?$AAi@ ; `string'
PUBLIC	??_C@_0BO@LFGPDMIB@string?5subscript?5out?5of?5range@ ; `string'
PUBLIC	??_C@_0GI@KAEHDKAJ@C?3?2Program?5Files?5?$CIx86?$CJ?2Microsof@ ; `string'
PUBLIC	??_C@_1NA@MNJEKPBN@?$AAC?$AA?3?$AA?2?$AAP?$AAr?$AAo?$AAg?$AAr?$AAa?$AAm?$AA?5?$AAF?$AAi?$AAl?$AAe@ ; `string'
PUBLIC	??_C@_1EA@OADAPGGK@?$AA?$CC?$AAs?$AAt?$AAr?$AAi?$AAn?$AAg?$AA?5?$AAs?$AAu?$AAb?$AAs?$AAc?$AAr?$AAi@ ; `string'
PUBLIC	??_C@_1LO@NPPEKPAI@?$AAs?$AAt?$AAd?$AA?3?$AA?3?$AAb?$AAa?$AAs?$AAi?$AAc?$AA_?$AAs?$AAt?$AAr?$AAi@ ; `string'
PUBLIC	??_C@_0BD@FEEMDEPI@invalid?5comparator@		; `string'
PUBLIC	??_C@_0GK@EEDLHHLD@C?3?2Program?5Files?5?$CIx86?$CJ?2Microsof@ ; `string'
PUBLIC	??_C@_1NE@BOCHNKFM@?$AAC?$AA?3?$AA?2?$AAP?$AAr?$AAo?$AAg?$AAr?$AAa?$AAm?$AA?5?$AAF?$AAi?$AAl?$AAe@ ; `string'
PUBLIC	??_C@_1BC@BLAPCBGI@?$AAs?$AAt?$AAd?$AA?3?$AA?3?$AAm?$AAi?$AAn@ ; `string'
PUBLIC	??_C@_1CK@NDNHPKPI@?$AA?$CC?$AAi?$AAn?$AAv?$AAa?$AAl?$AAi?$AAd?$AA?5?$AAc?$AAo?$AAm?$AAp?$AAa?$AAr@ ; `string'
PUBLIC	??_C@_0BA@JFNIOLAK@string?5too?5long@		; `string'
PUBLIC	??_7?$_Ref_count_resource@PEAEUaligned_malloc_deleter@@@std@@6B@ ; std::_Ref_count_resource<unsigned char *,aligned_malloc_deleter>::`vftable'
PUBLIC	??_R0?AUaligned_malloc_deleter@@@8		; aligned_malloc_deleter `RTTI Type Descriptor'
PUBLIC	??_R4exception@std@@6B@				; std::exception::`RTTI Complete Object Locator'
PUBLIC	??_R3exception@std@@8				; std::exception::`RTTI Class Hierarchy Descriptor'
PUBLIC	??_R2exception@std@@8				; std::exception::`RTTI Base Class Array'
PUBLIC	??_R1A@?0A@EA@exception@std@@8			; std::exception::`RTTI Base Class Descriptor at (0,-1,0,64)'
PUBLIC	??_R4bad_alloc@std@@6B@				; std::bad_alloc::`RTTI Complete Object Locator'
PUBLIC	??_R3bad_alloc@std@@8				; std::bad_alloc::`RTTI Class Hierarchy Descriptor'
PUBLIC	??_R2bad_alloc@std@@8				; std::bad_alloc::`RTTI Base Class Array'
PUBLIC	??_R1A@?0A@EA@bad_alloc@std@@8			; std::bad_alloc::`RTTI Base Class Descriptor at (0,-1,0,64)'
PUBLIC	??_R4bad_array_new_length@std@@6B@		; std::bad_array_new_length::`RTTI Complete Object Locator'
PUBLIC	??_R3bad_array_new_length@std@@8		; std::bad_array_new_length::`RTTI Class Hierarchy Descriptor'
PUBLIC	??_R2bad_array_new_length@std@@8		; std::bad_array_new_length::`RTTI Base Class Array'
PUBLIC	??_R1A@?0A@EA@bad_array_new_length@std@@8	; std::bad_array_new_length::`RTTI Base Class Descriptor at (0,-1,0,64)'
PUBLIC	??_R0?AV_Ref_count_base@std@@@8			; std::_Ref_count_base `RTTI Type Descriptor'
PUBLIC	??_R3_Ref_count_base@std@@8			; std::_Ref_count_base::`RTTI Class Hierarchy Descriptor'
PUBLIC	??_R2_Ref_count_base@std@@8			; std::_Ref_count_base::`RTTI Base Class Array'
PUBLIC	??_R1A@?0A@EA@_Ref_count_base@std@@8		; std::_Ref_count_base::`RTTI Base Class Descriptor at (0,-1,0,64)'
PUBLIC	??_R4RGYInputRaw@@6B@				; RGYInputRaw::`RTTI Complete Object Locator'
PUBLIC	??_R0?AVRGYInputRaw@@@8				; RGYInputRaw `RTTI Type Descriptor'
PUBLIC	??_R3RGYInputRaw@@8				; RGYInputRaw::`RTTI Class Hierarchy Descriptor'
PUBLIC	??_R2RGYInputRaw@@8				; RGYInputRaw::`RTTI Base Class Array'
PUBLIC	??_R1A@?0A@EA@RGYInputRaw@@8			; RGYInputRaw::`RTTI Base Class Descriptor at (0,-1,0,64)'
PUBLIC	??_R1A@?0A@EA@RGYInput@@8			; RGYInput::`RTTI Base Class Descriptor at (0,-1,0,64)'
PUBLIC	??_R0?AVRGYInput@@@8				; RGYInput `RTTI Type Descriptor'
PUBLIC	??_R3RGYInput@@8				; RGYInput::`RTTI Class Hierarchy Descriptor'
PUBLIC	??_R2RGYInput@@8				; RGYInput::`RTTI Base Class Array'
PUBLIC	??_R4?$_Ref_count_resource@PEAEUaligned_malloc_deleter@@@std@@6B@ ; std::_Ref_count_resource<unsigned char *,aligned_malloc_deleter>::`RTTI Complete Object Locator'
PUBLIC	??_R0?AV?$_Ref_count_resource@PEAEUaligned_malloc_deleter@@@std@@@8 ; std::_Ref_count_resource<unsigned char *,aligned_malloc_deleter> `RTTI Type Descriptor'
PUBLIC	??_R3?$_Ref_count_resource@PEAEUaligned_malloc_deleter@@@std@@8 ; std::_Ref_count_resource<unsigned char *,aligned_malloc_deleter>::`RTTI Class Hierarchy Descriptor'
PUBLIC	??_R2?$_Ref_count_resource@PEAEUaligned_malloc_deleter@@@std@@8 ; std::_Ref_count_resource<unsigned char *,aligned_malloc_deleter>::`RTTI Base Class Array'
PUBLIC	??_R1A@?0A@EA@?$_Ref_count_resource@PEAEUaligned_malloc_deleter@@@std@@8 ; std::_Ref_count_resource<unsigned char *,aligned_malloc_deleter>::`RTTI Base Class Descriptor at (0,-1,0,64)'
EXTRN	??2@YAPEAX_K@Z:PROC				; operator new
EXTRN	??3@YAXPEAX_K@Z:PROC				; operator delete
EXTRN	__imp__invalid_parameter:PROC
EXTRN	__imp__CrtDbgReport:PROC
EXTRN	__imp_??0_Lockit@std@@QEAA@H@Z:PROC
EXTRN	__imp_??1_Lockit@std@@QEAA@XZ:PROC
EXTRN	__imp__aligned_free:PROC
EXTRN	__imp__aligned_malloc:PROC
EXTRN	__imp_strtol:PROC
EXTRN	__imp___acrt_iob_func:PROC
EXTRN	__imp_fopen_s:PROC
EXTRN	__imp_fclose:PROC
EXTRN	__imp_fgets:PROC
EXTRN	__imp__fileno:PROC
EXTRN	__imp_fread:PROC
EXTRN	__imp__fgetc_nolock:PROC
EXTRN	__imp__fread_nolock:PROC
EXTRN	__imp___stdio_common_vsprintf:PROC
EXTRN	__imp___stdio_common_vsprintf_s:PROC
EXTRN	__imp___stdio_common_vsscanf:PROC
EXTRN	__std_exception_copy:PROC
EXTRN	__std_exception_destroy:PROC
EXTRN	??_Eexception@std@@UEAAPEAXI@Z:PROC		; std::exception::`vector deleting destructor'
EXTRN	??_Ebad_alloc@std@@UEAAPEAXI@Z:PROC		; std::bad_alloc::`vector deleting destructor'
EXTRN	??_Ebad_array_new_length@std@@UEAAPEAXI@Z:PROC	; std::bad_array_new_length::`vector deleting destructor'
EXTRN	memcmp:PROC
EXTRN	memcpy:PROC
EXTRN	memmove:PROC
EXTRN	memset:PROC
EXTRN	__imp_strtok_s:PROC
EXTRN	strcmp:PROC
EXTRN	__imp_strerror:PROC
EXTRN	strlen:PROC
EXTRN	__imp__strnicmp:PROC
EXTRN	?_Xlength_error@std@@YAXPEBD@Z:PROC		; std::_Xlength_error
EXTRN	__std_type_info_compare:PROC
EXTRN	__imp__setmode:PROC
EXTRN	__imp__mbscmp:PROC
EXTRN	?get_simd_str@@YAPEBDI@Z:PROC			; get_simd_str
EXTRN	?split@@YA?AV?$vector@V?$basic_string@DU?$char_traits@D@std@@V?$allocator@D@2@@std@@V?$allocator@V?$basic_string@DU?$char_traits@D@std@@V?$allocator@D@2@@std@@@2@@std@@AEBV?$basic_string@DU?$char_traits@D@std@@V?$allocator@D@2@@2@0_N@Z:PROC ; split
EXTRN	??0RGYConvertCSP@@QEAA@H@Z:PROC			; RGYConvertCSP::RGYConvertCSP
EXTRN	??1RGYConvertCSP@@QEAA@XZ:PROC			; RGYConvertCSP::~RGYConvertCSP
EXTRN	?getFunc@RGYConvertCSP@@QEAAPEBUConvertCSP@@W4RGY_CSP@@0_NI@Z:PROC ; RGYConvertCSP::getFunc
EXTRN	?run@RGYConvertCSP@@QEAAHHPEAPEAXPEAPEBXHHHHHHPEAH@Z:PROC ; RGYConvertCSP::run
EXTRN	??0RGYInput@@QEAA@XZ:PROC			; RGYInput::RGYInput
EXTRN	??1RGYInput@@UEAA@XZ:PROC			; RGYInput::~RGYInput
EXTRN	?Close@RGYInput@@UEAAXXZ:PROC			; RGYInput::Close
EXTRN	?CreateInputInfo@RGYInput@@MEAAXPEBD000PEBUVideoInfo@@@Z:PROC ; RGYInput::CreateInputInfo
EXTRN	??_ERGYInputRaw@@UEAAPEAXI@Z:PROC		; RGYInputRaw::`vector deleting destructor'
EXTRN	??_E?$_Ref_count_resource@PEAEUaligned_malloc_deleter@@@std@@UEAAPEAXI@Z:PROC ; std::_Ref_count_resource<unsigned char *,aligned_malloc_deleter>::`vector deleting destructor'
EXTRN	_CxxThrowException:PROC
EXTRN	_RTC_CheckStackVars:PROC
EXTRN	_RTC_InitBase:PROC
EXTRN	_RTC_Shutdown:PROC
EXTRN	__CxxFrameHandler4:PROC
EXTRN	__GSHandlerCheck:PROC
EXTRN	__GSHandlerCheck_EH4:PROC
EXTRN	__security_check_cookie:PROC
EXTRN	??_7type_info@@6B@:BYTE				; type_info::`vftable'
EXTRN	__ImageBase:BYTE
EXTRN	__security_cookie:QWORD
EXTRN	_fltused:DWORD
;	COMDAT ?_OptionsStorage@?1??__local_stdio_printf_options@@9@4_KA
_BSS	SEGMENT
?_OptionsStorage@?1??__local_stdio_printf_options@@9@4_KA DQ 01H DUP (?) ; `__local_stdio_printf_options'::`2'::_OptionsStorage
_BSS	ENDS
;	COMDAT ?_OptionsStorage@?1??__local_stdio_scanf_options@@9@4_KA
_BSS	SEGMENT
?_OptionsStorage@?1??__local_stdio_scanf_options@@9@4_KA DQ 01H DUP (?) ; `__local_stdio_scanf_options'::`2'::_OptionsStorage
_BSS	ENDS
_BSS	SEGMENT
?CspMatrixList@@3V?$array@W4CspMatrix@@$0O@@std@@B DB 038H DUP (?) ; CspMatrixList
?CspTransferList@@3V?$array@W4CspTransfer@@$0P@@std@@B DB 03cH DUP (?) ; CspTransferList
?CspColorprimList@@3V?$array@W4CspColorprim@@$0M@@std@@B DB 030H DUP (?) ; CspColorprimList
_BSS	ENDS
;	COMDAT pdata
pdata	SEGMENT
$pdata$?__empty_global_delete@@YAXPEAX@Z DD imagerel $LN3
	DD	imagerel $LN3+8
	DD	imagerel $unwind$?__empty_global_delete@@YAXPEAX@Z
pdata	ENDS
;	COMDAT pdata
pdata	SEGMENT
$pdata$?__empty_global_delete@@YAXPEAX_K@Z DD imagerel $LN3
	DD	imagerel $LN3+13
	DD	imagerel $unwind$?__empty_global_delete@@YAXPEAX_K@Z
pdata	ENDS
;	COMDAT pdata
pdata	SEGMENT
$pdata$??2@YAPEAX_KPEAX@Z DD imagerel $LN3
	DD	imagerel $LN3+18
	DD	imagerel $unwind$??2@YAPEAX_KPEAX@Z
pdata	ENDS
;	COMDAT pdata
pdata	SEGMENT
$pdata$__local_stdio_printf_options DD imagerel $LN3
	DD	imagerel $LN3+11
	DD	imagerel $unwind$__local_stdio_printf_options
pdata	ENDS
;	COMDAT pdata
pdata	SEGMENT
$pdata$__local_stdio_scanf_options DD imagerel $LN3
	DD	imagerel $LN3+11
	DD	imagerel $unwind$__local_stdio_scanf_options
pdata	ENDS
;	COMDAT pdata
pdata	SEGMENT
$pdata$_vsprintf_s_l DD imagerel $LN5
	DD	imagerel $LN5+133
	DD	imagerel $unwind$_vsprintf_s_l
pdata	ENDS
;	COMDAT pdata
pdata	SEGMENT
$pdata$vsprintf_s DD imagerel $LN3
	DD	imagerel $LN3+84
	DD	imagerel $unwind$vsprintf_s
pdata	ENDS
;	COMDAT pdata
pdata	SEGMENT
$pdata$_vscprintf_l DD imagerel $LN5
	DD	imagerel $LN5+130
	DD	imagerel $unwind$_vscprintf_l
pdata	ENDS
;	COMDAT pdata
pdata	SEGMENT
$pdata$_vscprintf DD imagerel $LN3
	DD	imagerel $LN3+58
	DD	imagerel $unwind$_vscprintf
pdata	ENDS
;	COMDAT pdata
pdata	SEGMENT
$pdata$_vsscanf_s_l DD imagerel $LN3
	DD	imagerel $LN3+109
	DD	imagerel $unwind$_vsscanf_s_l
pdata	ENDS
;	COMDAT pdata
pdata	SEGMENT
$pdata$vsscanf_s DD imagerel $LN3
	DD	imagerel $LN3+69
	DD	imagerel $unwind$vsscanf_s
pdata	ENDS
;	COMDAT pdata
pdata	SEGMENT
$pdata$sscanf_s DD imagerel $LN3
	DD	imagerel $LN3+117
	DD	imagerel $unwind$sscanf_s
pdata	ENDS
;	COMDAT pdata
pdata	SEGMENT
$pdata$??0exception@std@@QEAA@QEBDH@Z DD imagerel $LN3
	DD	imagerel $LN3+73
	DD	imagerel $unwind$??0exception@std@@QEAA@QEBDH@Z
pdata	ENDS
;	COMDAT pdata
pdata	SEGMENT
$pdata$??0exception@std@@QEAA@AEBV01@@Z DD imagerel $LN3
	DD	imagerel $LN3+109
	DD	imagerel $unwind$??0exception@std@@QEAA@AEBV01@@Z
pdata	ENDS
;	COMDAT pdata
pdata	SEGMENT
$pdata$??1exception@std@@UEAA@XZ DD imagerel $LN3
	DD	imagerel $LN3+69
	DD	imagerel $unwind$??1exception@std@@UEAA@XZ
pdata	ENDS
;	COMDAT pdata
pdata	SEGMENT
$pdata$?what@exception@std@@UEBAPEBDXZ DD imagerel $LN5
	DD	imagerel $LN5+78
	DD	imagerel $unwind$?what@exception@std@@UEBAPEBDXZ
pdata	ENDS
;	COMDAT pdata
pdata	SEGMENT
$pdata$??_Gexception@std@@UEAAPEAXI@Z DD imagerel $LN4
	DD	imagerel $LN4+81
	DD	imagerel $unwind$??_Gexception@std@@UEAAPEAXI@Z
pdata	ENDS
;	COMDAT pdata
pdata	SEGMENT
$pdata$??0bad_alloc@std@@AEAA@QEBD@Z DD imagerel $LN4
	DD	imagerel $LN4+83
	DD	imagerel $unwind$??0bad_alloc@std@@AEAA@QEBD@Z
pdata	ENDS
;	COMDAT pdata
pdata	SEGMENT
$pdata$?dtor$0@?0???0bad_alloc@std@@AEAA@QEBD@Z@4HA DD imagerel ?dtor$0@?0???0bad_alloc@std@@AEAA@QEBD@Z@4HA
	DD	imagerel ?dtor$0@?0???0bad_alloc@std@@AEAA@QEBD@Z@4HA+35
	DD	imagerel $unwind$?dtor$0@?0???0bad_alloc@std@@AEAA@QEBD@Z@4HA
pdata	ENDS
;	COMDAT pdata
pdata	SEGMENT
$pdata$??1bad_alloc@std@@UEAA@XZ DD imagerel $LN4
	DD	imagerel $LN4+47
	DD	imagerel $unwind$??1bad_alloc@std@@UEAA@XZ
pdata	ENDS
;	COMDAT pdata
pdata	SEGMENT
$pdata$?dtor$0@?0???1bad_alloc@std@@UEAA@XZ@4HA DD imagerel ?dtor$0@?0???1bad_alloc@std@@UEAA@XZ@4HA
	DD	imagerel ?dtor$0@?0???1bad_alloc@std@@UEAA@XZ@4HA+35
	DD	imagerel $unwind$?dtor$0@?0???1bad_alloc@std@@UEAA@XZ@4HA
pdata	ENDS
;	COMDAT pdata
pdata	SEGMENT
$pdata$??0bad_alloc@std@@QEAA@AEBV01@@Z DD imagerel $LN4
	DD	imagerel $LN4+77
	DD	imagerel $unwind$??0bad_alloc@std@@QEAA@AEBV01@@Z
pdata	ENDS
;	COMDAT pdata
pdata	SEGMENT
$pdata$?dtor$0@?0???0bad_alloc@std@@QEAA@AEBV01@@Z@4HA DD imagerel ?dtor$0@?0???0bad_alloc@std@@QEAA@AEBV01@@Z@4HA
	DD	imagerel ?dtor$0@?0???0bad_alloc@std@@QEAA@AEBV01@@Z@4HA+35
	DD	imagerel $unwind$?dtor$0@?0???0bad_alloc@std@@QEAA@AEBV01@@Z@4HA
pdata	ENDS
;	COMDAT pdata
pdata	SEGMENT
$pdata$??_Gbad_alloc@std@@UEAAPEAXI@Z DD imagerel $LN4
	DD	imagerel $LN4+81
	DD	imagerel $unwind$??_Gbad_alloc@std@@UEAAPEAXI@Z
pdata	ENDS
;	COMDAT pdata
pdata	SEGMENT
$pdata$??0bad_array_new_length@std@@QEAA@XZ DD imagerel $LN4
	DD	imagerel $LN4+74
	DD	imagerel $unwind$??0bad_array_new_length@std@@QEAA@XZ
pdata	ENDS
;	COMDAT pdata
pdata	SEGMENT
$pdata$?dtor$0@?0???0bad_array_new_length@std@@QEAA@XZ@4HA DD imagerel ?dtor$0@?0???0bad_array_new_length@std@@QEAA@XZ@4HA
	DD	imagerel ?dtor$0@?0???0bad_array_new_length@std@@QEAA@XZ@4HA+35
	DD	imagerel $unwind$?dtor$0@?0???0bad_array_new_length@std@@QEAA@XZ@4HA
pdata	ENDS
;	COMDAT pdata
pdata	SEGMENT
$pdata$??1bad_array_new_length@std@@UEAA@XZ DD imagerel $LN4
	DD	imagerel $LN4+47
	DD	imagerel $unwind$??1bad_array_new_length@std@@UEAA@XZ
pdata	ENDS
;	COMDAT pdata
pdata	SEGMENT
$pdata$?dtor$0@?0???1bad_array_new_length@std@@UEAA@XZ@4HA DD imagerel ?dtor$0@?0???1bad_array_new_length@std@@UEAA@XZ@4HA
	DD	imagerel ?dtor$0@?0???1bad_array_new_length@std@@UEAA@XZ@4HA+35
	DD	imagerel $unwind$?dtor$0@?0???1bad_array_new_length@std@@UEAA@XZ@4HA
pdata	ENDS
;	COMDAT pdata
pdata	SEGMENT
$pdata$??0bad_array_new_length@std@@QEAA@AEBV01@@Z DD imagerel $LN4
	DD	imagerel $LN4+77
	DD	imagerel $unwind$??0bad_array_new_length@std@@QEAA@AEBV01@@Z
pdata	ENDS
;	COMDAT pdata
pdata	SEGMENT
$pdata$?dtor$0@?0???0bad_array_new_length@std@@QEAA@AEBV01@@Z@4HA DD imagerel ?dtor$0@?0???0bad_array_new_length@std@@QEAA@AEBV01@@Z@4HA
	DD	imagerel ?dtor$0@?0???0bad_array_new_length@std@@QEAA@AEBV01@@Z@4HA+35
	DD	imagerel $unwind$?dtor$0@?0???0bad_array_new_length@std@@QEAA@AEBV01@@Z@4HA
pdata	ENDS
;	COMDAT pdata
pdata	SEGMENT
$pdata$??_Gbad_array_new_length@std@@UEAAPEAXI@Z DD imagerel $LN4
	DD	imagerel $LN4+81
	DD	imagerel $unwind$??_Gbad_array_new_length@std@@UEAAPEAXI@Z
pdata	ENDS
;	COMDAT pdata
pdata	SEGMENT
$pdata$?_Throw_bad_array_new_length@std@@YAXXZ DD imagerel $LN3
	DD	imagerel $LN3+54
	DD	imagerel $unwind$?_Throw_bad_array_new_length@std@@YAXXZ
pdata	ENDS
;	COMDAT pdata
pdata	SEGMENT
$pdata$?max@?$numeric_limits@_J@std@@SA_JXZ DD imagerel $LN3
	DD	imagerel $LN3+14
	DD	imagerel $unwind$?max@?$numeric_limits@_J@std@@SA_JXZ
pdata	ENDS
;	COMDAT pdata
pdata	SEGMENT
$pdata$?_Allocate@_Default_allocate_traits@std@@SAPEAX_K@Z DD imagerel $LN3
	DD	imagerel $LN3+46
	DD	imagerel $unwind$?_Allocate@_Default_allocate_traits@std@@SAPEAX_K@Z
pdata	ENDS
;	COMDAT pdata
pdata	SEGMENT
$pdata$?_Adjust_manually_vector_aligned@std@@YAXAEAPEAXAEA_K@Z DD imagerel $LN21
	DD	imagerel $LN21+424
	DD	imagerel $unwind$?_Adjust_manually_vector_aligned@std@@YAXAEAPEAXAEA_K@Z
pdata	ENDS
;	COMDAT pdata
pdata	SEGMENT
$pdata$??$_Convert_size@_K@std@@YA_K_K@Z DD imagerel $LN3
	DD	imagerel $LN3+13
	DD	imagerel $unwind$??$_Convert_size@_K@std@@YA_K_K@Z
pdata	ENDS
;	COMDAT pdata
pdata	SEGMENT
$pdata$??0_Container_proxy@std@@QEAA@PEAU_Container_base12@1@@Z DD imagerel $LN3
	DD	imagerel $LN3+44
	DD	imagerel $unwind$??0_Container_proxy@std@@QEAA@PEAU_Container_base12@1@@Z
pdata	ENDS
;	COMDAT pdata
pdata	SEGMENT
$pdata$??0_Container_base12@std@@QEAA@XZ DD imagerel $LN3
	DD	imagerel $LN3+25
	DD	imagerel $unwind$??0_Container_base12@std@@QEAA@XZ
pdata	ENDS
;	COMDAT pdata
pdata	SEGMENT
$pdata$?_Orphan_all@_Container_base12@std@@QEAAXXZ DD imagerel $LN8
	DD	imagerel $LN8+175
	DD	imagerel $unwind$?_Orphan_all@_Container_base12@std@@QEAAXXZ
pdata	ENDS
;	COMDAT pdata
pdata	SEGMENT
$pdata$?dtor$0@?0??_Orphan_all@_Container_base12@std@@QEAAXXZ@4HA DD imagerel ?dtor$0@?0??_Orphan_all@_Container_base12@std@@QEAAXXZ@4HA
	DD	imagerel ?dtor$0@?0??_Orphan_all@_Container_base12@std@@QEAAXXZ@4HA+36
	DD	imagerel $unwind$?dtor$0@?0??_Orphan_all@_Container_base12@std@@QEAAXXZ@4HA
pdata	ENDS
;	COMDAT pdata
pdata	SEGMENT
$pdata$?_Swap_proxy_and_iterators@_Container_base12@std@@QEAAXAEAU12@@Z DD imagerel $LN6
	DD	imagerel $LN6+182
	DD	imagerel $unwind$?_Swap_proxy_and_iterators@_Container_base12@std@@QEAAXAEAU12@@Z
pdata	ENDS
;	COMDAT pdata
pdata	SEGMENT
$pdata$?dtor$0@?0??_Swap_proxy_and_iterators@_Container_base12@std@@QEAAXAEAU12@@Z@4HA DD imagerel ?dtor$0@?0??_Swap_proxy_and_iterators@_Container_base12@std@@QEAAXAEAU12@@Z@4HA
	DD	imagerel ?dtor$0@?0??_Swap_proxy_and_iterators@_Container_base12@std@@QEAAXAEAU12@@Z@4HA+36
	DD	imagerel $unwind$?dtor$0@?0??_Swap_proxy_and_iterators@_Container_base12@std@@QEAAXAEAU12@@Z@4HA
pdata	ENDS
;	COMDAT pdata
pdata	SEGMENT
$pdata$?_Release@_Basic_container_proxy_ptr12@std@@QEAAXXZ DD imagerel $LN3
	DD	imagerel $LN3+20
	DD	imagerel $unwind$?_Release@_Basic_container_proxy_ptr12@std@@QEAAXXZ
pdata	ENDS
;	COMDAT pdata
pdata	SEGMENT
$pdata$?length@?$_Narrow_char_traits@DH@std@@SA_KQEBD@Z DD imagerel $LN3
	DD	imagerel $LN3+47
	DD	imagerel $unwind$?length@?$_Narrow_char_traits@DH@std@@SA_KQEBD@Z
pdata	ENDS
;	COMDAT pdata
pdata	SEGMENT
$pdata$?copy@?$_Narrow_char_traits@DH@std@@SAPEADQEADQEBD_K@Z DD imagerel $LN3
	DD	imagerel $LN3+67
	DD	imagerel $unwind$?copy@?$_Narrow_char_traits@DH@std@@SAPEADQEADQEBD_K@Z
pdata	ENDS
;	COMDAT pdata
pdata	SEGMENT
$pdata$?move@?$_Narrow_char_traits@DH@std@@SAPEADQEADQEBD_K@Z DD imagerel $LN3
	DD	imagerel $LN3+67
	DD	imagerel $unwind$?move@?$_Narrow_char_traits@DH@std@@SAPEADQEADQEBD_K@Z
pdata	ENDS
;	COMDAT pdata
pdata	SEGMENT
$pdata$?assign@?$_Narrow_char_traits@DH@std@@SAPEADQEAD_KD@Z DD imagerel $LN3
	DD	imagerel $LN3+69
	DD	imagerel $unwind$?assign@?$_Narrow_char_traits@DH@std@@SAPEADQEAD_KD@Z
pdata	ENDS
;	COMDAT pdata
pdata	SEGMENT
$pdata$?assign@?$_Narrow_char_traits@DH@std@@SAXAEADAEBD@Z DD imagerel $LN3
	DD	imagerel $LN3+28
	DD	imagerel $unwind$?assign@?$_Narrow_char_traits@DH@std@@SAXAEADAEBD@Z
pdata	ENDS
;	COMDAT pdata
pdata	SEGMENT
$pdata$??0?$allocator@D@std@@QEAA@XZ DD imagerel $LN3
	DD	imagerel $LN3+13
	DD	imagerel $unwind$??0?$allocator@D@std@@QEAA@XZ
pdata	ENDS
;	COMDAT pdata
pdata	SEGMENT
$pdata$?deallocate@?$allocator@D@std@@QEAAXQEAD_K@Z DD imagerel $LN3
	DD	imagerel $LN3+61
	DD	imagerel $unwind$?deallocate@?$allocator@D@std@@QEAAXQEAD_K@Z
pdata	ENDS
;	COMDAT pdata
pdata	SEGMENT
$pdata$?allocate@?$allocator@D@std@@QEAAPEAD_K@Z DD imagerel $LN3
	DD	imagerel $LN3+59
	DD	imagerel $unwind$?allocate@?$allocator@D@std@@QEAAPEAD_K@Z
pdata	ENDS
;	COMDAT pdata
pdata	SEGMENT
$pdata$?max_size@?$_Default_allocator_traits@V?$allocator@D@std@@@std@@SA_KAEBV?$allocator@D@2@@Z DD imagerel $LN3
	DD	imagerel $LN3+15
	DD	imagerel $unwind$?max_size@?$_Default_allocator_traits@V?$allocator@D@std@@@std@@SA_KAEBV?$allocator@D@2@@Z
pdata	ENDS
;	COMDAT pdata
pdata	SEGMENT
$pdata$??0?$_String_val@U?$_Simple_types@D@std@@@std@@QEAA@XZ DD imagerel $LN4
	DD	imagerel $LN4+95
	DD	imagerel $unwind$??0?$_String_val@U?$_Simple_types@D@std@@@std@@QEAA@XZ
pdata	ENDS
;	COMDAT pdata
pdata	SEGMENT
$pdata$?dtor$0@?0???0?$_String_val@U?$_Simple_types@D@std@@@std@@QEAA@XZ@4HA DD imagerel ?dtor$0@?0???0?$_String_val@U?$_Simple_types@D@std@@@std@@QEAA@XZ@4HA
	DD	imagerel ?dtor$0@?0???0?$_String_val@U?$_Simple_types@D@std@@@std@@QEAA@XZ@4HA+39
	DD	imagerel $unwind$?dtor$0@?0???0?$_String_val@U?$_Simple_types@D@std@@@std@@QEAA@XZ@4HA
pdata	ENDS
;	COMDAT pdata
pdata	SEGMENT
$pdata$?_Myptr@?$_String_val@U?$_Simple_types@D@std@@@std@@QEAAPEADXZ DD imagerel $LN4
	DD	imagerel $LN4+91
	DD	imagerel $unwind$?_Myptr@?$_String_val@U?$_Simple_types@D@std@@@std@@QEAAPEADXZ
pdata	ENDS
;	COMDAT pdata
pdata	SEGMENT
$pdata$?_Myptr@?$_String_val@U?$_Simple_types@D@std@@@std@@QEBAPEBDXZ DD imagerel $LN4
	DD	imagerel $LN4+91
	DD	imagerel $unwind$?_Myptr@?$_String_val@U?$_Simple_types@D@std@@@std@@QEBAPEBDXZ
pdata	ENDS
;	COMDAT pdata
pdata	SEGMENT
$pdata$?_Large_string_engaged@?$_String_val@U?$_Simple_types@D@std@@@std@@QEBA_NXZ DD imagerel $LN5
	DD	imagerel $LN5+68
	DD	imagerel $unwind$?_Large_string_engaged@?$_String_val@U?$_Simple_types@D@std@@@std@@QEBA_NXZ
pdata	ENDS
;	COMDAT pdata
pdata	SEGMENT
$pdata$??0_Bxty@?$_String_val@U?$_Simple_types@D@std@@@std@@QEAA@XZ DD imagerel $LN3
	DD	imagerel $LN3+13
	DD	imagerel $unwind$??0_Bxty@?$_String_val@U?$_Simple_types@D@std@@@std@@QEAA@XZ
pdata	ENDS
;	COMDAT pdata
pdata	SEGMENT
$pdata$??1_Bxty@?$_String_val@U?$_Simple_types@D@std@@@std@@QEAA@XZ DD imagerel $LN3
	DD	imagerel $LN3+8
	DD	imagerel $unwind$??1_Bxty@?$_String_val@U?$_Simple_types@D@std@@@std@@QEAA@XZ
pdata	ENDS
;	COMDAT pdata
pdata	SEGMENT
$pdata$??1?$_String_val@U?$_Simple_types@D@std@@@std@@QEAA@XZ DD imagerel $LN4
	DD	imagerel $LN4+54
	DD	imagerel $unwind$??1?$_String_val@U?$_Simple_types@D@std@@@std@@QEAA@XZ
pdata	ENDS
;	COMDAT pdata
pdata	SEGMENT
$pdata$?dtor$0@?0???1?$_String_val@U?$_Simple_types@D@std@@@std@@QEAA@XZ@4HA DD imagerel ?dtor$0@?0???1?$_String_val@U?$_Simple_types@D@std@@@std@@QEAA@XZ@4HA
	DD	imagerel ?dtor$0@?0???1?$_String_val@U?$_Simple_types@D@std@@@std@@QEAA@XZ@4HA+39
	DD	imagerel $unwind$?dtor$0@?0???1?$_String_val@U?$_Simple_types@D@std@@@std@@QEAA@XZ@4HA
pdata	ENDS
;	COMDAT pdata
pdata	SEGMENT
$pdata$??0?$basic_string@DU?$char_traits@D@std@@V?$allocator@D@2@@std@@QEAA@XZ DD imagerel $LN4
	DD	imagerel $LN4+110
	DD	imagerel $unwind$??0?$basic_string@DU?$char_traits@D@std@@V?$allocator@D@2@@std@@QEAA@XZ
pdata	ENDS
;	COMDAT pdata
pdata	SEGMENT
$pdata$?dtor$0@?0???0?$basic_string@DU?$char_traits@D@std@@V?$allocator@D@2@@std@@QEAA@XZ@4HA DD imagerel ?dtor$0@?0???0?$basic_string@DU?$char_traits@D@std@@V?$allocator@D@2@@std@@QEAA@XZ@4HA
	DD	imagerel ?dtor$0@?0???0?$basic_string@DU?$char_traits@D@std@@V?$allocator@D@2@@std@@QEAA@XZ@4HA+35
	DD	imagerel $unwind$?dtor$0@?0???0?$basic_string@DU?$char_traits@D@std@@V?$allocator@D@2@@std@@QEAA@XZ@4HA
pdata	ENDS
;	COMDAT pdata
pdata	SEGMENT
$pdata$??0?$basic_string@DU?$char_traits@D@std@@V?$allocator@D@2@@std@@QEAA@QEBD@Z DD imagerel $LN5
	DD	imagerel $LN5+220
	DD	imagerel $unwind$??0?$basic_string@DU?$char_traits@D@std@@V?$allocator@D@2@@std@@QEAA@QEBD@Z
pdata	ENDS
;	COMDAT pdata
pdata	SEGMENT
$pdata$?dtor$0@?0???0?$basic_string@DU?$char_traits@D@std@@V?$allocator@D@2@@std@@QEAA@QEBD@Z@4HA DD imagerel ?dtor$0@?0???0?$basic_string@DU?$char_traits@D@std@@V?$allocator@D@2@@std@@QEAA@QEBD@Z@4HA
	DD	imagerel ?dtor$0@?0???0?$basic_string@DU?$char_traits@D@std@@V?$allocator@D@2@@std@@QEAA@QEBD@Z@4HA+38
	DD	imagerel $unwind$?dtor$0@?0???0?$basic_string@DU?$char_traits@D@std@@V?$allocator@D@2@@std@@QEAA@QEBD@Z@4HA
pdata	ENDS
;	COMDAT pdata
pdata	SEGMENT
$pdata$?dtor$1@?0???0?$basic_string@DU?$char_traits@D@std@@V?$allocator@D@2@@std@@QEAA@QEBD@Z@4HA DD imagerel ?dtor$1@?0???0?$basic_string@DU?$char_traits@D@std@@V?$allocator@D@2@@std@@QEAA@QEBD@Z@4HA
	DD	imagerel ?dtor$1@?0???0?$basic_string@DU?$char_traits@D@std@@V?$allocator@D@2@@std@@QEAA@QEBD@Z@4HA+35
	DD	imagerel $unwind$?dtor$1@?0???0?$basic_string@DU?$char_traits@D@std@@V?$allocator@D@2@@std@@QEAA@QEBD@Z@4HA
pdata	ENDS
;	COMDAT pdata
pdata	SEGMENT
$pdata$??0?$basic_string@DU?$char_traits@D@std@@V?$allocator@D@2@@std@@QEAA@$$QEAV01@@Z DD imagerel $LN4
	DD	imagerel $LN4+163
	DD	imagerel $unwind$??0?$basic_string@DU?$char_traits@D@std@@V?$allocator@D@2@@std@@QEAA@$$QEAV01@@Z
pdata	ENDS
;	COMDAT pdata
pdata	SEGMENT
$pdata$?dtor$0@?0???0?$basic_string@DU?$char_traits@D@std@@V?$allocator@D@2@@std@@QEAA@$$QEAV01@@Z@4HA DD imagerel ?dtor$0@?0???0?$basic_string@DU?$char_traits@D@std@@V?$allocator@D@2@@std@@QEAA@$$QEAV01@@Z@4HA
	DD	imagerel ?dtor$0@?0???0?$basic_string@DU?$char_traits@D@std@@V?$allocator@D@2@@std@@QEAA@$$QEAV01@@Z@4HA+35
	DD	imagerel $unwind$?dtor$0@?0???0?$basic_string@DU?$char_traits@D@std@@V?$allocator@D@2@@std@@QEAA@$$QEAV01@@Z@4HA
pdata	ENDS
;	COMDAT pdata
pdata	SEGMENT
$pdata$?_Memcpy_val_from@?$basic_string@DU?$char_traits@D@std@@V?$allocator@D@2@@std@@AEAAXAEBV12@@Z DD imagerel $LN3
	DD	imagerel $LN3+109
	DD	imagerel $unwind$?_Memcpy_val_from@?$basic_string@DU?$char_traits@D@std@@V?$allocator@D@2@@std@@AEAAXAEBV12@@Z
pdata	ENDS
;	COMDAT pdata
pdata	SEGMENT
$pdata$?_Take_contents@?$basic_string@DU?$char_traits@D@std@@V?$allocator@D@2@@std@@AEAAXAEAV12@U?$integral_constant@_N$00@2@@Z DD imagerel $LN5
	DD	imagerel $LN5+126
	DD	imagerel $unwind$?_Take_contents@?$basic_string@DU?$char_traits@D@std@@V?$allocator@D@2@@std@@AEAAXAEAV12@U?$integral_constant@_N$00@2@@Z
pdata	ENDS
;	COMDAT pdata
pdata	SEGMENT
$pdata$??1?$basic_string@DU?$char_traits@D@std@@V?$allocator@D@2@@std@@QEAA@XZ DD imagerel $LN4
	DD	imagerel $LN4+153
	DD	imagerel $unwind$??1?$basic_string@DU?$char_traits@D@std@@V?$allocator@D@2@@std@@QEAA@XZ
pdata	ENDS
;	COMDAT pdata
pdata	SEGMENT
$pdata$?dtor$0@?0???1?$basic_string@DU?$char_traits@D@std@@V?$allocator@D@2@@std@@QEAA@XZ@4HA DD imagerel ?dtor$0@?0???1?$basic_string@DU?$char_traits@D@std@@V?$allocator@D@2@@std@@QEAA@XZ@4HA
	DD	imagerel ?dtor$0@?0???1?$basic_string@DU?$char_traits@D@std@@V?$allocator@D@2@@std@@QEAA@XZ@4HA+35
	DD	imagerel $unwind$?dtor$0@?0???1?$basic_string@DU?$char_traits@D@std@@V?$allocator@D@2@@std@@QEAA@XZ@4HA
pdata	ENDS
;	COMDAT pdata
pdata	SEGMENT
$pdata$??4?$basic_string@DU?$char_traits@D@std@@V?$allocator@D@2@@std@@QEAAAEAV01@QEBD@Z DD imagerel $LN3
	DD	imagerel $LN3+56
	DD	imagerel $unwind$??4?$basic_string@DU?$char_traits@D@std@@V?$allocator@D@2@@std@@QEAAAEAV01@QEBD@Z
pdata	ENDS
;	COMDAT pdata
pdata	SEGMENT
$pdata$??Y?$basic_string@DU?$char_traits@D@std@@V?$allocator@D@2@@std@@QEAAAEAV01@AEBV01@@Z DD imagerel $LN3
	DD	imagerel $LN3+56
	DD	imagerel $unwind$??Y?$basic_string@DU?$char_traits@D@std@@V?$allocator@D@2@@std@@QEAAAEAV01@AEBV01@@Z
pdata	ENDS
;	COMDAT pdata
pdata	SEGMENT
$pdata$??Y?$basic_string@DU?$char_traits@D@std@@V?$allocator@D@2@@std@@QEAAAEAV01@QEBD@Z DD imagerel $LN3
	DD	imagerel $LN3+56
	DD	imagerel $unwind$??Y?$basic_string@DU?$char_traits@D@std@@V?$allocator@D@2@@std@@QEAAAEAV01@QEBD@Z
pdata	ENDS
;	COMDAT pdata
pdata	SEGMENT
$pdata$?append@?$basic_string@DU?$char_traits@D@std@@V?$allocator@D@2@@std@@QEAAAEAV12@AEBV12@@Z DD imagerel $LN3
	DD	imagerel $LN3+76
	DD	imagerel $unwind$?append@?$basic_string@DU?$char_traits@D@std@@V?$allocator@D@2@@std@@QEAAAEAV12@AEBV12@@Z
pdata	ENDS
;	COMDAT pdata
pdata	SEGMENT
$pdata$?append@?$basic_string@DU?$char_traits@D@std@@V?$allocator@D@2@@std@@QEAAAEAV12@QEBD_K@Z DD imagerel $LN4
	DD	imagerel $LN4+270
	DD	imagerel $unwind$?append@?$basic_string@DU?$char_traits@D@std@@V?$allocator@D@2@@std@@QEAAAEAV12@QEBD_K@Z
pdata	ENDS
;	COMDAT pdata
pdata	SEGMENT
$pdata$?append@?$basic_string@DU?$char_traits@D@std@@V?$allocator@D@2@@std@@QEAAAEAV12@QEBD@Z DD imagerel $LN3
	DD	imagerel $LN3+77
	DD	imagerel $unwind$?append@?$basic_string@DU?$char_traits@D@std@@V?$allocator@D@2@@std@@QEAAAEAV12@QEBD@Z
pdata	ENDS
;	COMDAT pdata
pdata	SEGMENT
$pdata$?append@?$basic_string@DU?$char_traits@D@std@@V?$allocator@D@2@@std@@QEAAAEAV12@_KD@Z DD imagerel $LN4
	DD	imagerel $LN4+270
	DD	imagerel $unwind$?append@?$basic_string@DU?$char_traits@D@std@@V?$allocator@D@2@@std@@QEAAAEAV12@_KD@Z
pdata	ENDS
;	COMDAT pdata
pdata	SEGMENT
$pdata$?assign@?$basic_string@DU?$char_traits@D@std@@V?$allocator@D@2@@std@@QEAAAEAV12@QEBD_K@Z DD imagerel $LN4
	DD	imagerel $LN4+198
	DD	imagerel $unwind$?assign@?$basic_string@DU?$char_traits@D@std@@V?$allocator@D@2@@std@@QEAAAEAV12@QEBD_K@Z
pdata	ENDS
;	COMDAT pdata
pdata	SEGMENT
$pdata$?assign@?$basic_string@DU?$char_traits@D@std@@V?$allocator@D@2@@std@@QEAAAEAV12@QEBD@Z DD imagerel $LN3
	DD	imagerel $LN3+77
	DD	imagerel $unwind$?assign@?$basic_string@DU?$char_traits@D@std@@V?$allocator@D@2@@std@@QEAAAEAV12@QEBD@Z
pdata	ENDS
;	COMDAT pdata
pdata	SEGMENT
$pdata$??A?$basic_string@DU?$char_traits@D@std@@V?$allocator@D@2@@std@@QEAAAEAD_K@Z DD imagerel $LN12
	DD	imagerel $LN12+197
	DD	imagerel $unwind$??A?$basic_string@DU?$char_traits@D@std@@V?$allocator@D@2@@std@@QEAAAEAD_K@Z
pdata	ENDS
;	COMDAT pdata
pdata	SEGMENT
$pdata$??A?$basic_string@DU?$char_traits@D@std@@V?$allocator@D@2@@std@@QEBAAEBD_K@Z DD imagerel $LN12
	DD	imagerel $LN12+197
	DD	imagerel $unwind$??A?$basic_string@DU?$char_traits@D@std@@V?$allocator@D@2@@std@@QEBAAEBD_K@Z
pdata	ENDS
;	COMDAT pdata
pdata	SEGMENT
$pdata$?c_str@?$basic_string@DU?$char_traits@D@std@@V?$allocator@D@2@@std@@QEBAPEBDXZ DD imagerel $LN3
	DD	imagerel $LN3+50
	DD	imagerel $unwind$?c_str@?$basic_string@DU?$char_traits@D@std@@V?$allocator@D@2@@std@@QEBAPEBDXZ
pdata	ENDS
;	COMDAT pdata
pdata	SEGMENT
$pdata$?size@?$basic_string@DU?$char_traits@D@std@@V?$allocator@D@2@@std@@QEBA_KXZ DD imagerel $LN3
	DD	imagerel $LN3+17
	DD	imagerel $unwind$?size@?$basic_string@DU?$char_traits@D@std@@V?$allocator@D@2@@std@@QEBA_KXZ
pdata	ENDS
;	COMDAT pdata
pdata	SEGMENT
$pdata$?max_size@?$basic_string@DU?$char_traits@D@std@@V?$allocator@D@2@@std@@QEBA_KXZ DD imagerel $LN3
	DD	imagerel $LN3+153
	DD	imagerel $unwind$?max_size@?$basic_string@DU?$char_traits@D@std@@V?$allocator@D@2@@std@@QEBA_KXZ
pdata	ENDS
;	COMDAT pdata
pdata	SEGMENT
$pdata$?resize@?$basic_string@DU?$char_traits@D@std@@V?$allocator@D@2@@std@@QEAAX_KD@Z DD imagerel $LN5
	DD	imagerel $LN5+125
	DD	imagerel $unwind$?resize@?$basic_string@DU?$char_traits@D@std@@V?$allocator@D@2@@std@@QEAAX_KD@Z
pdata	ENDS
;	COMDAT pdata
pdata	SEGMENT
$pdata$?reserve@?$basic_string@DU?$char_traits@D@std@@V?$allocator@D@2@@std@@QEAAX_K@Z DD imagerel $LN7
	DD	imagerel $LN7+219
	DD	imagerel $unwind$?reserve@?$basic_string@DU?$char_traits@D@std@@V?$allocator@D@2@@std@@QEAAX_K@Z
pdata	ENDS
;	COMDAT pdata
pdata	SEGMENT
$pdata$?_Calculate_growth@?$basic_string@DU?$char_traits@D@std@@V?$allocator@D@2@@std@@CA_K_K00@Z DD imagerel $LN5
	DD	imagerel $LN5+189
	DD	imagerel $unwind$?_Calculate_growth@?$basic_string@DU?$char_traits@D@std@@V?$allocator@D@2@@std@@CA_K_K00@Z
pdata	ENDS
;	COMDAT pdata
pdata	SEGMENT
$pdata$?_Calculate_growth@?$basic_string@DU?$char_traits@D@std@@V?$allocator@D@2@@std@@AEBA_K_K@Z DD imagerel $LN3
	DD	imagerel $LN3+73
	DD	imagerel $unwind$?_Calculate_growth@?$basic_string@DU?$char_traits@D@std@@V?$allocator@D@2@@std@@AEBA_K_K@Z
pdata	ENDS
;	COMDAT pdata
pdata	SEGMENT
$pdata$?_Become_small@?$basic_string@DU?$char_traits@D@std@@V?$allocator@D@2@@std@@AEAAXXZ DD imagerel $LN3
	DD	imagerel $LN3+190
	DD	imagerel $unwind$?_Become_small@?$basic_string@DU?$char_traits@D@std@@V?$allocator@D@2@@std@@AEAAXXZ
pdata	ENDS
;	COMDAT pdata
pdata	SEGMENT
$pdata$?_Eos@?$basic_string@DU?$char_traits@D@std@@V?$allocator@D@2@@std@@AEAAX_K@Z DD imagerel $LN3
	DD	imagerel $LN3+91
	DD	imagerel $unwind$?_Eos@?$basic_string@DU?$char_traits@D@std@@V?$allocator@D@2@@std@@AEAAX_K@Z
pdata	ENDS
;	COMDAT pdata
pdata	SEGMENT
$pdata$?_Tidy_init@?$basic_string@DU?$char_traits@D@std@@V?$allocator@D@2@@std@@AEAAXXZ DD imagerel $LN3
	DD	imagerel $LN3+99
	DD	imagerel $unwind$?_Tidy_init@?$basic_string@DU?$char_traits@D@std@@V?$allocator@D@2@@std@@AEAAXXZ
pdata	ENDS
;	COMDAT pdata
pdata	SEGMENT
$pdata$?_Tidy_deallocate@?$basic_string@DU?$char_traits@D@std@@V?$allocator@D@2@@std@@AEAAXXZ DD imagerel $LN4
	DD	imagerel $LN4+214
	DD	imagerel $unwind$?_Tidy_deallocate@?$basic_string@DU?$char_traits@D@std@@V?$allocator@D@2@@std@@AEAAXXZ
pdata	ENDS
;	COMDAT pdata
pdata	SEGMENT
$pdata$?_Xlen@?$basic_string@DU?$char_traits@D@std@@V?$allocator@D@2@@std@@CAXXZ DD imagerel $LN3
	DD	imagerel $LN3+39
	DD	imagerel $unwind$?_Xlen@?$basic_string@DU?$char_traits@D@std@@V?$allocator@D@2@@std@@CAXXZ
pdata	ENDS
;	COMDAT pdata
pdata	SEGMENT
$pdata$?_Swap_proxy_and_iterators@?$basic_string@DU?$char_traits@D@std@@V?$allocator@D@2@@std@@AEAAXAEAV12@@Z DD imagerel $LN3
	DD	imagerel $LN3+59
	DD	imagerel $unwind$?_Swap_proxy_and_iterators@?$basic_string@DU?$char_traits@D@std@@V?$allocator@D@2@@std@@AEAAXAEAV12@@Z
pdata	ENDS
;	COMDAT pdata
pdata	SEGMENT
$pdata$?_Getal@?$basic_string@DU?$char_traits@D@std@@V?$allocator@D@2@@std@@AEAAAEAV?$allocator@D@2@XZ DD imagerel $LN3
	DD	imagerel $LN3+49
	DD	imagerel $unwind$?_Getal@?$basic_string@DU?$char_traits@D@std@@V?$allocator@D@2@@std@@AEAAAEAV?$allocator@D@2@XZ
pdata	ENDS
;	COMDAT pdata
pdata	SEGMENT
$pdata$?_Getal@?$basic_string@DU?$char_traits@D@std@@V?$allocator@D@2@@std@@AEBAAEBV?$allocator@D@2@XZ DD imagerel $LN3
	DD	imagerel $LN3+49
	DD	imagerel $unwind$?_Getal@?$basic_string@DU?$char_traits@D@std@@V?$allocator@D@2@@std@@AEBAAEBV?$allocator@D@2@XZ
pdata	ENDS
;	COMDAT pdata
pdata	SEGMENT
$pdata$?_Get_first@?$_Compressed_pair@V?$allocator@D@std@@V?$_String_val@U?$_Simple_types@D@std@@@2@$00@std@@QEAAAEAV?$allocator@D@2@XZ DD imagerel $LN3
	DD	imagerel $LN3+13
	DD	imagerel $unwind$?_Get_first@?$_Compressed_pair@V?$allocator@D@std@@V?$_String_val@U?$_Simple_types@D@std@@@2@$00@std@@QEAAAEAV?$allocator@D@2@XZ
pdata	ENDS
;	COMDAT pdata
pdata	SEGMENT
$pdata$?_Get_first@?$_Compressed_pair@V?$allocator@D@std@@V?$_String_val@U?$_Simple_types@D@std@@@2@$00@std@@QEBAAEBV?$allocator@D@2@XZ DD imagerel $LN3
	DD	imagerel $LN3+13
	DD	imagerel $unwind$?_Get_first@?$_Compressed_pair@V?$allocator@D@std@@V?$_String_val@U?$_Simple_types@D@std@@@2@$00@std@@QEBAAEBV?$allocator@D@2@XZ
pdata	ENDS
;	COMDAT pdata
pdata	SEGMENT
$pdata$??1?$_Compressed_pair@V?$allocator@D@std@@V?$_String_val@U?$_Simple_types@D@std@@@2@$00@std@@QEAA@XZ DD imagerel $LN4
	DD	imagerel $LN4+50
	DD	imagerel $unwind$??1?$_Compressed_pair@V?$allocator@D@std@@V?$_String_val@U?$_Simple_types@D@std@@@2@$00@std@@QEAA@XZ
pdata	ENDS
;	COMDAT pdata
pdata	SEGMENT
$pdata$?dtor$0@?0???1?$_Compressed_pair@V?$allocator@D@std@@V?$_String_val@U?$_Simple_types@D@std@@@2@$00@std@@QEAA@XZ@4HA DD imagerel ?dtor$0@?0???1?$_Compressed_pair@V?$allocator@D@std@@V?$_String_val@U?$_Simple_types@D@std@@@2@$00@std@@QEAA@XZ@4HA
	DD	imagerel ?dtor$0@?0???1?$_Compressed_pair@V?$allocator@D@std@@V?$_String_val@U?$_Simple_types@D@std@@@2@$00@std@@QEAA@XZ@4HA+35
	DD	imagerel $unwind$?dtor$0@?0???1?$_Compressed_pair@V?$allocator@D@std@@V?$_String_val@U?$_Simple_types@D@std@@@2@$00@std@@QEAA@XZ@4HA
pdata	ENDS
;	COMDAT pdata
pdata	SEGMENT
$pdata$??_G?$basic_string@DU?$char_traits@D@std@@V?$allocator@D@2@@std@@QEAAPEAXI@Z DD imagerel $LN4
	DD	imagerel $LN4+81
	DD	imagerel $unwind$??_G?$basic_string@DU?$char_traits@D@std@@V?$allocator@D@2@@std@@QEAAPEAXI@Z
pdata	ENDS
;	COMDAT pdata
pdata	SEGMENT
$pdata$??8type_info@@QEBA_NAEBV0@@Z DD imagerel $LN5
	DD	imagerel $LN5+95
	DD	imagerel $unwind$??8type_info@@QEBA_NAEBV0@@Z
pdata	ENDS
;	COMDAT pdata
pdata	SEGMENT
$pdata$??0_Ref_count_base@std@@IEAA@XZ DD imagerel $LN3
	DD	imagerel $LN3+37
	DD	imagerel $unwind$??0_Ref_count_base@std@@IEAA@XZ
pdata	ENDS
;	COMDAT pdata
pdata	SEGMENT
$pdata$??1_Ref_count_base@std@@UEAA@XZ DD imagerel $LN3
	DD	imagerel $LN3+8
	DD	imagerel $unwind$??1_Ref_count_base@std@@UEAA@XZ
pdata	ENDS
;	COMDAT pdata
pdata	SEGMENT
$pdata$?_Decref@_Ref_count_base@std@@QEAAXXZ DD imagerel $LN4
	DD	imagerel $LN4+87
	DD	imagerel $unwind$?_Decref@_Ref_count_base@std@@QEAAXXZ
pdata	ENDS
;	COMDAT pdata
pdata	SEGMENT
$pdata$?_Decwref@_Ref_count_base@std@@QEAAXXZ DD imagerel $LN4
	DD	imagerel $LN4+78
	DD	imagerel $unwind$?_Decwref@_Ref_count_base@std@@QEAAXXZ
pdata	ENDS
;	COMDAT pdata
pdata	SEGMENT
$pdata$_tcscmp DD imagerel $LN3
	DD	imagerel $LN3+57
	DD	imagerel $unwind$_tcscmp
pdata	ENDS
pdata	SEGMENT
$pdata$??I@YA?AW4RGY_PICSTRUCT@@W40@0@Z DD imagerel ??I@YA?AW4RGY_PICSTRUCT@@W40@0@Z
	DD	imagerel ??I@YA?AW4RGY_PICSTRUCT@@W40@0@Z+23
	DD	imagerel $unwind$??I@YA?AW4RGY_PICSTRUCT@@W40@0@Z
pdata	ENDS
;	COMDAT pdata
pdata	SEGMENT
$pdata$??Raligned_malloc_deleter@@QEBAXPEAX@Z DD imagerel $LN3
	DD	imagerel $LN3+52
	DD	imagerel $unwind$??Raligned_malloc_deleter@@QEBAXPEAX@Z
pdata	ENDS
;	COMDAT pdata
pdata	SEGMENT
$pdata$??$make_array@W4CspMatrix@@W41@W41@W41@W41@W41@W41@W41@W41@W41@W41@W41@W41@W41@W41@@@YA?AV?$array@W4CspMatrix@@$0O@@std@@$$QEAW4CspMatrix@@0000000000000@Z DD imagerel $LN3
	DD	imagerel $LN3+297
	DD	imagerel $unwind$??$make_array@W4CspMatrix@@W41@W41@W41@W41@W41@W41@W41@W41@W41@W41@W41@W41@W41@W41@@@YA?AV?$array@W4CspMatrix@@$0O@@std@@$$QEAW4CspMatrix@@0000000000000@Z
pdata	ENDS
;	COMDAT pdata
pdata	SEGMENT
$pdata$??__ECspMatrixList@@YAXXZ DD imagerel ??__ECspMatrixList@@YAXXZ
	DD	imagerel ??__ECspMatrixList@@YAXXZ+452
	DD	imagerel $unwind$??__ECspMatrixList@@YAXXZ
pdata	ENDS
;	COMDAT pdata
pdata	SEGMENT
$pdata$??$make_array@W4CspTransfer@@W41@W41@W41@W41@W41@W41@W41@W41@W41@W41@W41@W41@W41@W41@W41@@@YA?AV?$array@W4CspTransfer@@$0P@@std@@$$QEAW4CspTransfer@@00000000000000@Z DD imagerel $LN3
	DD	imagerel $LN3+311
	DD	imagerel $unwind$??$make_array@W4CspTransfer@@W41@W41@W41@W41@W41@W41@W41@W41@W41@W41@W41@W41@W41@W41@W41@@@YA?AV?$array@W4CspTransfer@@$0P@@std@@$$QEAW4CspTransfer@@00000000000000@Z
pdata	ENDS
;	COMDAT pdata
pdata	SEGMENT
$pdata$??__ECspTransferList@@YAXXZ DD imagerel ??__ECspTransferList@@YAXXZ
	DD	imagerel ??__ECspTransferList@@YAXXZ+476
	DD	imagerel $unwind$??__ECspTransferList@@YAXXZ
pdata	ENDS
;	COMDAT pdata
pdata	SEGMENT
$pdata$??$make_array@W4CspColorprim@@W41@W41@W41@W41@W41@W41@W41@W41@W41@W41@W41@W41@@@YA?AV?$array@W4CspColorprim@@$0M@@std@@$$QEAW4CspColorprim@@00000000000@Z DD imagerel $LN3
	DD	imagerel $LN3+263
	DD	imagerel $unwind$??$make_array@W4CspColorprim@@W41@W41@W41@W41@W41@W41@W41@W41@W41@W41@W41@W41@@@YA?AV?$array@W4CspColorprim@@$0M@@std@@$$QEAW4CspColorprim@@00000000000@Z
pdata	ENDS
;	COMDAT pdata
pdata	SEGMENT
$pdata$??__ECspColorprimList@@YAXXZ DD imagerel ??__ECspColorprimList@@YAXXZ
	DD	imagerel ??__ECspColorprimList@@YAXXZ+398
	DD	imagerel $unwind$??__ECspColorprimList@@YAXXZ
pdata	ENDS
;	COMDAT pdata
pdata	SEGMENT
$pdata$??$?HDU?$char_traits@D@std@@V?$allocator@D@1@@std@@YA?AV?$basic_string@DU?$char_traits@D@std@@V?$allocator@D@2@@0@AEBV10@QEBD@Z DD imagerel $LN6
	DD	imagerel $LN6+270
	DD	imagerel $unwind$??$?HDU?$char_traits@D@std@@V?$allocator@D@1@@std@@YA?AV?$basic_string@DU?$char_traits@D@std@@V?$allocator@D@2@@0@AEBV10@QEBD@Z
pdata	ENDS
;	COMDAT pdata
pdata	SEGMENT
$pdata$?dtor$0@?0???$?HDU?$char_traits@D@std@@V?$allocator@D@1@@std@@YA?AV?$basic_string@DU?$char_traits@D@std@@V?$allocator@D@2@@0@AEBV10@QEBD@Z@4HA DD imagerel ?dtor$0@?0???$?HDU?$char_traits@D@std@@V?$allocator@D@1@@std@@YA?AV?$basic_string@DU?$char_traits@D@std@@V?$allocator@D@2@@0@AEBV10@QEBD@Z@4HA
	DD	imagerel ?dtor$0@?0???$?HDU?$char_traits@D@std@@V?$allocator@D@1@@std@@YA?AV?$basic_string@DU?$char_traits@D@std@@V?$allocator@D@2@@0@AEBV10@QEBD@Z@4HA+35
	DD	imagerel $unwind$?dtor$0@?0???$?HDU?$char_traits@D@std@@V?$allocator@D@1@@std@@YA?AV?$basic_string@DU?$char_traits@D@std@@V?$allocator@D@2@@0@AEBV10@QEBD@Z@4HA
pdata	ENDS
;	COMDAT pdata
pdata	SEGMENT
$pdata$?dtor$1@?0???$?HDU?$char_traits@D@std@@V?$allocator@D@1@@std@@YA?AV?$basic_string@DU?$char_traits@D@std@@V?$allocator@D@2@@0@AEBV10@QEBD@Z@4HA DD imagerel ?dtor$1@?0???$?HDU?$char_traits@D@std@@V?$allocator@D@1@@std@@YA?AV?$basic_string@DU?$char_traits@D@std@@V?$allocator@D@2@@0@AEBV10@QEBD@Z@4HA
	DD	imagerel ?dtor$1@?0???$?HDU?$char_traits@D@std@@V?$allocator@D@1@@std@@YA?AV?$basic_string@DU?$char_traits@D@std@@V?$allocator@D@2@@0@AEBV10@QEBD@Z@4HA+52
	DD	imagerel $unwind$?dtor$1@?0???$?HDU?$char_traits@D@std@@V?$allocator@D@1@@std@@YA?AV?$basic_string@DU?$char_traits@D@std@@V?$allocator@D@2@@0@AEBV10@QEBD@Z@4HA
pdata	ENDS
;	COMDAT pdata
pdata	SEGMENT
$pdata$??$?HDU?$char_traits@D@std@@V?$allocator@D@1@@std@@YA?AV?$basic_string@DU?$char_traits@D@std@@V?$allocator@D@2@@0@$$QEAV10@QEBD@Z DD imagerel $LN5
	DD	imagerel $LN5+108
	DD	imagerel $unwind$??$?HDU?$char_traits@D@std@@V?$allocator@D@1@@std@@YA?AV?$basic_string@DU?$char_traits@D@std@@V?$allocator@D@2@@0@$$QEAV10@QEBD@Z
pdata	ENDS
;	COMDAT pdata
pdata	SEGMENT
$pdata$?dtor$0@?0???$?HDU?$char_traits@D@std@@V?$allocator@D@1@@std@@YA?AV?$basic_string@DU?$char_traits@D@std@@V?$allocator@D@2@@0@$$QEAV10@QEBD@Z@4HA DD imagerel ?dtor$0@?0???$?HDU?$char_traits@D@std@@V?$allocator@D@1@@std@@YA?AV?$basic_string@DU?$char_traits@D@std@@V?$allocator@D@2@@0@$$QEAV10@QEBD@Z@4HA
	DD	imagerel ?dtor$0@?0???$?HDU?$char_traits@D@std@@V?$allocator@D@1@@std@@YA?AV?$basic_string@DU?$char_traits@D@std@@V?$allocator@D@2@@0@$$QEAV10@QEBD@Z@4HA+49
	DD	imagerel $unwind$?dtor$0@?0???$?HDU?$char_traits@D@std@@V?$allocator@D@1@@std@@YA?AV?$basic_string@DU?$char_traits@D@std@@V?$allocator@D@2@@0@$$QEAV10@QEBD@Z@4HA
pdata	ENDS
;	COMDAT pdata
pdata	SEGMENT
$pdata$??$?HDU?$char_traits@D@std@@V?$allocator@D@1@@std@@YA?AV?$basic_string@DU?$char_traits@D@std@@V?$allocator@D@2@@0@$$QEAV10@AEBV10@@Z DD imagerel $LN5
	DD	imagerel $LN5+108
	DD	imagerel $unwind$??$?HDU?$char_traits@D@std@@V?$allocator@D@1@@std@@YA?AV?$basic_string@DU?$char_traits@D@std@@V?$allocator@D@2@@0@$$QEAV10@AEBV10@@Z
pdata	ENDS
;	COMDAT pdata
pdata	SEGMENT
$pdata$?dtor$0@?0???$?HDU?$char_traits@D@std@@V?$allocator@D@1@@std@@YA?AV?$basic_string@DU?$char_traits@D@std@@V?$allocator@D@2@@0@$$QEAV10@AEBV10@@Z@4HA DD imagerel ?dtor$0@?0???$?HDU?$char_traits@D@std@@V?$allocator@D@1@@std@@YA?AV?$basic_string@DU?$char_traits@D@std@@V?$allocator@D@2@@0@$$QEAV10@AEBV10@@Z@4HA
	DD	imagerel ?dtor$0@?0???$?HDU?$char_traits@D@std@@V?$allocator@D@1@@std@@YA?AV?$basic_string@DU?$char_traits@D@std@@V?$allocator@D@2@@0@$$QEAV10@AEBV10@@Z@4HA+49
	DD	imagerel $unwind$?dtor$0@?0???$?HDU?$char_traits@D@std@@V?$allocator@D@1@@std@@YA?AV?$basic_string@DU?$char_traits@D@std@@V?$allocator@D@2@@0@$$QEAV10@AEBV10@@Z@4HA
pdata	ENDS
;	COMDAT pdata
pdata	SEGMENT
$pdata$?size@?$vector@UsTrim@@V?$allocator@UsTrim@@@std@@@std@@QEBA_KXZ DD imagerel $LN3
	DD	imagerel $LN3+68
	DD	imagerel $unwind$?size@?$vector@UsTrim@@V?$allocator@UsTrim@@@std@@@std@@QEBA_KXZ
pdata	ENDS
;	COMDAT pdata
pdata	SEGMENT
$pdata$??A?$vector@UsTrim@@V?$allocator@UsTrim@@@std@@@std@@QEAAAEAUsTrim@@_K@Z DD imagerel $LN12
	DD	imagerel $LN12+222
	DD	imagerel $unwind$??A?$vector@UsTrim@@V?$allocator@UsTrim@@@std@@@std@@QEAAAEAUsTrim@@_K@Z
pdata	ENDS
;	COMDAT pdata
pdata	SEGMENT
$pdata$?getLogLevel@RGYLog@@QEAAHXZ DD imagerel $LN3
	DD	imagerel $LN3+16
	DD	imagerel $unwind$?getLogLevel@RGYLog@@QEAAHXZ
pdata	ENDS
;	COMDAT pdata
pdata	SEGMENT
$pdata$?get@?$_Ptr_base@VEncodeStatus@@@std@@IEBAPEAVEncodeStatus@@XZ DD imagerel $LN3
	DD	imagerel $LN3+16
	DD	imagerel $unwind$?get@?$_Ptr_base@VEncodeStatus@@@std@@IEBAPEAVEncodeStatus@@XZ
pdata	ENDS
;	COMDAT pdata
pdata	SEGMENT
$pdata$?get@?$_Ptr_base@VRGYLog@@@std@@IEBAPEAVRGYLog@@XZ DD imagerel $LN3
	DD	imagerel $LN3+16
	DD	imagerel $unwind$?get@?$_Ptr_base@VRGYLog@@@std@@IEBAPEAVRGYLog@@XZ
pdata	ENDS
;	COMDAT pdata
pdata	SEGMENT
$pdata$??$?CVRGYLog@@$0A@@?$shared_ptr@VRGYLog@@@std@@QEBAPEAVRGYLog@@XZ DD imagerel $LN3
	DD	imagerel $LN3+46
	DD	imagerel $unwind$??$?CVRGYLog@@$0A@@?$shared_ptr@VRGYLog@@@std@@QEBAPEAVRGYLog@@XZ
pdata	ENDS
;	COMDAT pdata
pdata	SEGMENT
$pdata$?ptrArray@RGYFrame@@QEAAXQEAPEAX_N@Z DD imagerel $LN5
	DD	imagerel $LN5+172
	DD	imagerel $unwind$?ptrArray@RGYFrame@@QEAAXQEAPEAX_N@Z
pdata	ENDS
;	COMDAT pdata
pdata	SEGMENT
$pdata$?ptrRGB@RGYFrame@@QEAAPEAEXZ DD imagerel $LN3
	DD	imagerel $LN3+113
	DD	imagerel $unwind$?ptrRGB@RGYFrame@@QEAAPEAEXZ
pdata	ENDS
;	COMDAT pdata
pdata	SEGMENT
$pdata$?pitch@RGYFrame@@QEAAIXZ DD imagerel $LN3
	DD	imagerel $LN3+20
	DD	imagerel $unwind$?pitch@RGYFrame@@QEAAIXZ
pdata	ENDS
;	COMDAT pdata
pdata	SEGMENT
$pdata$??$min@PEAE@std@@YAAEBQEAEAEBQEAE0@Z DD imagerel $LN13
	DD	imagerel $LN13+214
	DD	imagerel $unwind$??$min@PEAE@std@@YAAEBQEAEAEBQEAE0@Z
pdata	ENDS
;	COMDAT pdata
pdata	SEGMENT
$pdata$?getFunc@RGYConvertCSP@@QEBAPEBUConvertCSP@@XZ DD imagerel $LN3
	DD	imagerel $LN3+16
	DD	imagerel $unwind$?getFunc@RGYConvertCSP@@QEBAPEBUConvertCSP@@XZ
pdata	ENDS
;	COMDAT pdata
pdata	SEGMENT
$pdata$??_GRGYConvertCSP@@QEAAPEAXI@Z DD imagerel $LN4
	DD	imagerel $LN4+81
	DD	imagerel $unwind$??_GRGYConvertCSP@@QEAAPEAXI@Z
pdata	ENDS
;	COMDAT pdata
pdata	SEGMENT
$pdata$?GetNextBitstream@RGYInput@@UEAA?AW4RGY_ERR@@PEAURGYBitstream@@@Z DD imagerel $LN3
	DD	imagerel $LN3+15
	DD	imagerel $unwind$?GetNextBitstream@RGYInput@@UEAA?AW4RGY_ERR@@PEAURGYBitstream@@@Z
pdata	ENDS
;	COMDAT pdata
pdata	SEGMENT
$pdata$?GetNextBitstreamNoDelete@RGYInput@@UEAA?AW4RGY_ERR@@PEAURGYBitstream@@@Z DD imagerel $LN3
	DD	imagerel $LN3+15
	DD	imagerel $unwind$?GetNextBitstreamNoDelete@RGYInput@@UEAA?AW4RGY_ERR@@PEAURGYBitstream@@@Z
pdata	ENDS
;	COMDAT pdata
pdata	SEGMENT
$pdata$?GetHeader@RGYInput@@UEAA?AW4RGY_ERR@@PEAURGYBitstream@@@Z DD imagerel $LN3
	DD	imagerel $LN3+15
	DD	imagerel $unwind$?GetHeader@RGYInput@@UEAA?AW4RGY_ERR@@PEAURGYBitstream@@@Z
pdata	ENDS
;	COMDAT pdata
pdata	SEGMENT
$pdata$?GetAudioTrackCount@RGYInput@@UEAAHXZ DD imagerel $LN3
	DD	imagerel $LN3+10
	DD	imagerel $unwind$?GetAudioTrackCount@RGYInput@@UEAAHXZ
pdata	ENDS
;	COMDAT pdata
pdata	SEGMENT
$pdata$?GetSubtitleTrackCount@RGYInput@@UEAAHXZ DD imagerel $LN3
	DD	imagerel $LN3+10
	DD	imagerel $unwind$?GetSubtitleTrackCount@RGYInput@@UEAAHXZ
pdata	ENDS
;	COMDAT pdata
pdata	SEGMENT
$pdata$?GetDataTrackCount@RGYInput@@UEAAHXZ DD imagerel $LN3
	DD	imagerel $LN3+10
	DD	imagerel $unwind$?GetDataTrackCount@RGYInput@@UEAAHXZ
pdata	ENDS
;	COMDAT pdata
pdata	SEGMENT
$pdata$?AddMessage@RGYInput@@QEAAXHAEBV?$basic_string@DU?$char_traits@D@std@@V?$allocator@D@2@@std@@@Z DD imagerel $LN14
	DD	imagerel $LN14+688
	DD	imagerel $unwind$?AddMessage@RGYInput@@QEAAXHAEBV?$basic_string@DU?$char_traits@D@std@@V?$allocator@D@2@@std@@@Z
pdata	ENDS
;	COMDAT pdata
pdata	SEGMENT
$pdata$?dtor$0@?0??AddMessage@RGYInput@@QEAAXHAEBV?$basic_string@DU?$char_traits@D@std@@V?$allocator@D@2@@std@@@Z@4HA DD imagerel ?dtor$0@?0??AddMessage@RGYInput@@QEAAXHAEBV?$basic_string@DU?$char_traits@D@std@@V?$allocator@D@2@@std@@@Z@4HA
	DD	imagerel ?dtor$0@?0??AddMessage@RGYInput@@QEAAXHAEBV?$basic_string@DU?$char_traits@D@std@@V?$allocator@D@2@@std@@@Z@4HA+35
	DD	imagerel $unwind$?dtor$0@?0??AddMessage@RGYInput@@QEAAXHAEBV?$basic_string@DU?$char_traits@D@std@@V?$allocator@D@2@@std@@@Z@4HA
pdata	ENDS
;	COMDAT pdata
pdata	SEGMENT
$pdata$?dtor$1@?0??AddMessage@RGYInput@@QEAAXHAEBV?$basic_string@DU?$char_traits@D@std@@V?$allocator@D@2@@std@@@Z@4HA DD imagerel ?dtor$1@?0??AddMessage@RGYInput@@QEAAXHAEBV?$basic_string@DU?$char_traits@D@std@@V?$allocator@D@2@@std@@@Z@4HA
	DD	imagerel ?dtor$1@?0??AddMessage@RGYInput@@QEAAXHAEBV?$basic_string@DU?$char_traits@D@std@@V?$allocator@D@2@@std@@@Z@4HA+35
	DD	imagerel $unwind$?dtor$1@?0??AddMessage@RGYInput@@QEAAXHAEBV?$basic_string@DU?$char_traits@D@std@@V?$allocator@D@2@@std@@@Z@4HA
pdata	ENDS
;	COMDAT pdata
pdata	SEGMENT
$pdata$?dtor$2@?0??AddMessage@RGYInput@@QEAAXHAEBV?$basic_string@DU?$char_traits@D@std@@V?$allocator@D@2@@std@@@Z@4HA DD imagerel ?dtor$2@?0??AddMessage@RGYInput@@QEAAXHAEBV?$basic_string@DU?$char_traits@D@std@@V?$allocator@D@2@@std@@@Z@4HA
	DD	imagerel ?dtor$2@?0??AddMessage@RGYInput@@QEAAXHAEBV?$basic_string@DU?$char_traits@D@std@@V?$allocator@D@2@@std@@@Z@4HA+38
	DD	imagerel $unwind$?dtor$2@?0??AddMessage@RGYInput@@QEAAXHAEBV?$basic_string@DU?$char_traits@D@std@@V?$allocator@D@2@@std@@@Z@4HA
pdata	ENDS
;	COMDAT pdata
pdata	SEGMENT
$pdata$?dtor$3@?0??AddMessage@RGYInput@@QEAAXHAEBV?$basic_string@DU?$char_traits@D@std@@V?$allocator@D@2@@std@@@Z@4HA DD imagerel ?dtor$3@?0??AddMessage@RGYInput@@QEAAXHAEBV?$basic_string@DU?$char_traits@D@std@@V?$allocator@D@2@@std@@@Z@4HA
	DD	imagerel ?dtor$3@?0??AddMessage@RGYInput@@QEAAXHAEBV?$basic_string@DU?$char_traits@D@std@@V?$allocator@D@2@@std@@@Z@4HA+38
	DD	imagerel $unwind$?dtor$3@?0??AddMessage@RGYInput@@QEAAXHAEBV?$basic_string@DU?$char_traits@D@std@@V?$allocator@D@2@@std@@@Z@4HA
pdata	ENDS
;	COMDAT pdata
pdata	SEGMENT
$pdata$?dtor$4@?0??AddMessage@RGYInput@@QEAAXHAEBV?$basic_string@DU?$char_traits@D@std@@V?$allocator@D@2@@std@@@Z@4HA DD imagerel ?dtor$4@?0??AddMessage@RGYInput@@QEAAXHAEBV?$basic_string@DU?$char_traits@D@std@@V?$allocator@D@2@@std@@@Z@4HA
	DD	imagerel ?dtor$4@?0??AddMessage@RGYInput@@QEAAXHAEBV?$basic_string@DU?$char_traits@D@std@@V?$allocator@D@2@@std@@@Z@4HA+38
	DD	imagerel $unwind$?dtor$4@?0??AddMessage@RGYInput@@QEAAXHAEBV?$basic_string@DU?$char_traits@D@std@@V?$allocator@D@2@@std@@@Z@4HA
pdata	ENDS
;	COMDAT pdata
pdata	SEGMENT
$pdata$?AddMessage@RGYInput@@QEAAXHPEBDZZ DD imagerel $LN6
	DD	imagerel $LN6+354
	DD	imagerel $unwind$?AddMessage@RGYInput@@QEAAXHPEBDZZ
pdata	ENDS
;	COMDAT pdata
pdata	SEGMENT
$pdata$?dtor$0@?0??AddMessage@RGYInput@@QEAAXHPEBDZZ@4HA DD imagerel ?dtor$0@?0??AddMessage@RGYInput@@QEAAXHPEBDZZ@4HA
	DD	imagerel ?dtor$0@?0??AddMessage@RGYInput@@QEAAXHPEBDZZ@4HA+35
	DD	imagerel $unwind$?dtor$0@?0??AddMessage@RGYInput@@QEAAXHPEBDZZ@4HA
pdata	ENDS
;	COMDAT pdata
pdata	SEGMENT
$pdata$?getVideoTrimMaxFramIdx@RGYInput@@IEAAHXZ DD imagerel $LN4
	DD	imagerel $LN4+112
	DD	imagerel $unwind$?getVideoTrimMaxFramIdx@RGYInput@@IEAAHXZ
pdata	ENDS
;	COMDAT pdata
pdata	SEGMENT
$pdata$??R?$default_delete@VRGYConvertCSP@@@std@@QEBAXPEAVRGYConvertCSP@@@Z DD imagerel $LN5
	DD	imagerel $LN5+90
	DD	imagerel $unwind$??R?$default_delete@VRGYConvertCSP@@@std@@QEBAXPEAVRGYConvertCSP@@@Z
pdata	ENDS
;	COMDAT pdata
pdata	SEGMENT
$pdata$??4?$unique_ptr@VRGYConvertCSP@@U?$default_delete@VRGYConvertCSP@@@std@@@std@@QEAAAEAV01@$$QEAV01@@Z DD imagerel $LN4
	DD	imagerel $LN4+120
	DD	imagerel $unwind$??4?$unique_ptr@VRGYConvertCSP@@U?$default_delete@VRGYConvertCSP@@@std@@@std@@QEAAAEAV01@$$QEAV01@@Z
pdata	ENDS
;	COMDAT pdata
pdata	SEGMENT
$pdata$??1?$unique_ptr@VRGYConvertCSP@@U?$default_delete@VRGYConvertCSP@@@std@@@std@@QEAA@XZ DD imagerel $LN4
	DD	imagerel $LN4+76
	DD	imagerel $unwind$??1?$unique_ptr@VRGYConvertCSP@@U?$default_delete@VRGYConvertCSP@@@std@@@std@@QEAA@XZ
pdata	ENDS
;	COMDAT pdata
pdata	SEGMENT
$pdata$??C?$unique_ptr@VRGYConvertCSP@@U?$default_delete@VRGYConvertCSP@@@std@@@std@@QEBAPEAVRGYConvertCSP@@XZ DD imagerel $LN3
	DD	imagerel $LN3+16
	DD	imagerel $unwind$??C?$unique_ptr@VRGYConvertCSP@@U?$default_delete@VRGYConvertCSP@@@std@@@std@@QEBAPEAVRGYConvertCSP@@XZ
pdata	ENDS
;	COMDAT pdata
pdata	SEGMENT
$pdata$?release@?$unique_ptr@VRGYConvertCSP@@U?$default_delete@VRGYConvertCSP@@@std@@@std@@QEAAPEAVRGYConvertCSP@@XZ DD imagerel $LN3
	DD	imagerel $LN3+64
	DD	imagerel $unwind$?release@?$unique_ptr@VRGYConvertCSP@@U?$default_delete@VRGYConvertCSP@@@std@@@std@@QEAAPEAVRGYConvertCSP@@XZ
pdata	ENDS
;	COMDAT pdata
pdata	SEGMENT
$pdata$?reset@?$unique_ptr@VRGYConvertCSP@@U?$default_delete@VRGYConvertCSP@@@std@@@std@@QEAAXPEAVRGYConvertCSP@@@Z DD imagerel $LN4
	DD	imagerel $LN4+101
	DD	imagerel $unwind$?reset@?$unique_ptr@VRGYConvertCSP@@U?$default_delete@VRGYConvertCSP@@@std@@@std@@QEAAXPEAVRGYConvertCSP@@@Z
pdata	ENDS
;	COMDAT pdata
pdata	SEGMENT
$pdata$?_Get_first@?$_Compressed_pair@U?$default_delete@VRGYConvertCSP@@@std@@PEAVRGYConvertCSP@@$00@std@@QEAAAEAU?$default_delete@VRGYConvertCSP@@@2@XZ DD imagerel $LN3
	DD	imagerel $LN3+13
	DD	imagerel $unwind$?_Get_first@?$_Compressed_pair@U?$default_delete@VRGYConvertCSP@@@std@@PEAVRGYConvertCSP@@$00@std@@QEAAAEAU?$default_delete@VRGYConvertCSP@@@2@XZ
pdata	ENDS
;	COMDAT pdata
pdata	SEGMENT
$pdata$??$?8VRGYLog@@@std@@YA_NAEBV?$shared_ptr@VRGYLog@@@0@$$T@Z DD imagerel $LN5
	DD	imagerel $LN5+79
	DD	imagerel $unwind$??$?8VRGYLog@@@std@@YA_NAEBV?$shared_ptr@VRGYLog@@@0@$$T@Z
pdata	ENDS
;	COMDAT pdata
pdata	SEGMENT
$pdata$?deallocate@?$allocator@V?$basic_string@DU?$char_traits@D@std@@V?$allocator@D@2@@std@@@std@@QEAAXQEAV?$basic_string@DU?$char_traits@D@std@@V?$allocator@D@2@@2@_K@Z DD imagerel $LN3
	DD	imagerel $LN3+65
	DD	imagerel $unwind$?deallocate@?$allocator@V?$basic_string@DU?$char_traits@D@std@@V?$allocator@D@2@@std@@@std@@QEAAXQEAV?$basic_string@DU?$char_traits@D@std@@V?$allocator@D@2@@2@_K@Z
pdata	ENDS
;	COMDAT pdata
pdata	SEGMENT
$pdata$??1?$vector@V?$basic_string@DU?$char_traits@D@std@@V?$allocator@D@2@@std@@V?$allocator@V?$basic_string@DU?$char_traits@D@std@@V?$allocator@D@2@@std@@@2@@std@@QEAA@XZ DD imagerel $LN3
	DD	imagerel $LN3+140
	DD	imagerel $unwind$??1?$vector@V?$basic_string@DU?$char_traits@D@std@@V?$allocator@D@2@@std@@V?$allocator@V?$basic_string@DU?$char_traits@D@std@@V?$allocator@D@2@@std@@@2@@std@@QEAA@XZ
pdata	ENDS
;	COMDAT pdata
pdata	SEGMENT
$pdata$?_Unchecked_begin@?$vector@V?$basic_string@DU?$char_traits@D@std@@V?$allocator@D@2@@std@@V?$allocator@V?$basic_string@DU?$char_traits@D@std@@V?$allocator@D@2@@std@@@2@@std@@QEAAPEAV?$basic_string@DU?$char_traits@D@std@@V?$allocator@D@2@@2@XZ DD imagerel $LN3
	DD	imagerel $LN3+17
	DD	imagerel $unwind$?_Unchecked_begin@?$vector@V?$basic_string@DU?$char_traits@D@std@@V?$allocator@D@2@@std@@V?$allocator@V?$basic_string@DU?$char_traits@D@std@@V?$allocator@D@2@@std@@@2@@std@@QEAAPEAV?$basic_string@DU?$char_traits@D@std@@V?$allocator@D@2@@2@XZ
pdata	ENDS
;	COMDAT pdata
pdata	SEGMENT
$pdata$?_Unchecked_end@?$vector@V?$basic_string@DU?$char_traits@D@std@@V?$allocator@D@2@@std@@V?$allocator@V?$basic_string@DU?$char_traits@D@std@@V?$allocator@D@2@@std@@@2@@std@@QEAAPEAV?$basic_string@DU?$char_traits@D@std@@V?$allocator@D@2@@2@XZ DD imagerel $LN3
	DD	imagerel $LN3+17
	DD	imagerel $unwind$?_Unchecked_end@?$vector@V?$basic_string@DU?$char_traits@D@std@@V?$allocator@D@2@@std@@V?$allocator@V?$basic_string@DU?$char_traits@D@std@@V?$allocator@D@2@@std@@@2@@std@@QEAAPEAV?$basic_string@DU?$char_traits@D@std@@V?$allocator@D@2@@2@XZ
pdata	ENDS
;	COMDAT pdata
pdata	SEGMENT
$pdata$?_Destroy@?$vector@V?$basic_string@DU?$char_traits@D@std@@V?$allocator@D@2@@std@@V?$allocator@V?$basic_string@DU?$char_traits@D@std@@V?$allocator@D@2@@std@@@2@@std@@AEAAXPEAV?$basic_string@DU?$char_traits@D@std@@V?$allocator@D@2@@2@0@Z DD imagerel $LN3
	DD	imagerel $LN3+74
	DD	imagerel $unwind$?_Destroy@?$vector@V?$basic_string@DU?$char_traits@D@std@@V?$allocator@D@2@@std@@V?$allocator@V?$basic_string@DU?$char_traits@D@std@@V?$allocator@D@2@@std@@@2@@std@@AEAAXPEAV?$basic_string@DU?$char_traits@D@std@@V?$allocator@D@2@@2@0@Z
pdata	ENDS
;	COMDAT pdata
pdata	SEGMENT
$pdata$?_Tidy@?$vector@V?$basic_string@DU?$char_traits@D@std@@V?$allocator@D@2@@std@@V?$allocator@V?$basic_string@DU?$char_traits@D@std@@V?$allocator@D@2@@std@@@2@@std@@AEAAXXZ DD imagerel $LN4
	DD	imagerel $LN4+247
	DD	imagerel $unwind$?_Tidy@?$vector@V?$basic_string@DU?$char_traits@D@std@@V?$allocator@D@2@@std@@V?$allocator@V?$basic_string@DU?$char_traits@D@std@@V?$allocator@D@2@@std@@@2@@std@@AEAAXXZ
pdata	ENDS
;	COMDAT pdata
pdata	SEGMENT
$pdata$?_Getal@?$vector@V?$basic_string@DU?$char_traits@D@std@@V?$allocator@D@2@@std@@V?$allocator@V?$basic_string@DU?$char_traits@D@std@@V?$allocator@D@2@@std@@@2@@std@@AEAAAEAV?$allocator@V?$basic_string@DU?$char_traits@D@std@@V?$allocator@D@2@@std@@@2@XZ DD imagerel $LN3
	DD	imagerel $LN3+49
	DD	imagerel $unwind$?_Getal@?$vector@V?$basic_string@DU?$char_traits@D@std@@V?$allocator@D@2@@std@@V?$allocator@V?$basic_string@DU?$char_traits@D@std@@V?$allocator@D@2@@std@@@2@@std@@AEAAAEAV?$allocator@V?$basic_string@DU?$char_traits@D@std@@V?$allocator@D@2@@std@@@2@XZ
pdata	ENDS
;	COMDAT pdata
pdata	SEGMENT
$pdata$?_Get_first@?$_Compressed_pair@V?$allocator@V?$basic_string@DU?$char_traits@D@std@@V?$allocator@D@2@@std@@@std@@V?$_Vector_val@U?$_Simple_types@V?$basic_string@DU?$char_traits@D@std@@V?$allocator@D@2@@std@@@std@@@2@$00@std@@QEAAAEAV?$allocator@V?$basic_string@DU?$char_traits@D@std@@V?$allocator@D@2@@std@@@2@XZ DD imagerel $LN3
	DD	imagerel $LN3+13
	DD	imagerel $unwind$?_Get_first@?$_Compressed_pair@V?$allocator@V?$basic_string@DU?$char_traits@D@std@@V?$allocator@D@2@@std@@@std@@V?$_Vector_val@U?$_Simple_types@V?$basic_string@DU?$char_traits@D@std@@V?$allocator@D@2@@std@@@std@@@2@$00@std@@QEAAAEAV?$allocator@V?$basic_string@DU?$char_traits@D@std@@V?$allocator@D@2@@std@@@2@XZ
pdata	ENDS
pdata	SEGMENT
$pdata$??0RGYInputRaw@@QEAA@XZ DD imagerel $LN5
	DD	imagerel $LN5+145
	DD	imagerel $unwind$??0RGYInputRaw@@QEAA@XZ
pdata	ENDS
pdata	SEGMENT
$pdata$?dtor$0@?0???0RGYInputRaw@@QEAA@XZ@4HA DD imagerel ?dtor$0@?0???0RGYInputRaw@@QEAA@XZ@4HA
	DD	imagerel ?dtor$0@?0???0RGYInputRaw@@QEAA@XZ@4HA+35
	DD	imagerel $unwind$?dtor$0@?0???0RGYInputRaw@@QEAA@XZ@4HA
$pdata$?dtor$1@?0???0RGYInputRaw@@QEAA@XZ@4HA DD imagerel ?dtor$1@?0???0RGYInputRaw@@QEAA@XZ@4HA
	DD	imagerel ?dtor$1@?0???0RGYInputRaw@@QEAA@XZ@4HA+42
	DD	imagerel $unwind$?dtor$1@?0???0RGYInputRaw@@QEAA@XZ@4HA
pdata	ENDS
pdata	SEGMENT
$pdata$??1RGYInputRaw@@UEAA@XZ DD imagerel $LN5
	DD	imagerel $LN5+93
	DD	imagerel $unwind$??1RGYInputRaw@@UEAA@XZ
pdata	ENDS
pdata	SEGMENT
$pdata$?dtor$0@?0???1RGYInputRaw@@UEAA@XZ@4HA DD imagerel ?dtor$0@?0???1RGYInputRaw@@UEAA@XZ@4HA
	DD	imagerel ?dtor$0@?0???1RGYInputRaw@@UEAA@XZ@4HA+35
	DD	imagerel $unwind$?dtor$0@?0???1RGYInputRaw@@UEAA@XZ@4HA
$pdata$?dtor$1@?0???1RGYInputRaw@@UEAA@XZ@4HA DD imagerel ?dtor$1@?0???1RGYInputRaw@@UEAA@XZ@4HA
	DD	imagerel ?dtor$1@?0???1RGYInputRaw@@UEAA@XZ@4HA+42
	DD	imagerel $unwind$?dtor$1@?0???1RGYInputRaw@@UEAA@XZ@4HA
pdata	ENDS
pdata	SEGMENT
$pdata$?LoadNextFrame@RGYInputRaw@@UEAA?AW4RGY_ERR@@PEAURGYFrame@@@Z DD imagerel $LN41
	DD	imagerel $LN41+2194
	DD	imagerel $unwind$?LoadNextFrame@RGYInputRaw@@UEAA?AW4RGY_ERR@@PEAURGYFrame@@@Z
$pdata$?Close@RGYInputRaw@@UEAAXXZ DD imagerel $LN4
	DD	imagerel $LN4+129
	DD	imagerel $unwind$?Close@RGYInputRaw@@UEAAXXZ
$pdata$?Init@RGYInputRaw@@MEAA?AW4RGY_ERR@@PEBDPEAUVideoInfo@@PEBVRGYInputPrm@@@Z DD imagerel $LN41
	DD	imagerel $LN41+2684
	DD	imagerel $unwind$?Init@RGYInputRaw@@MEAA?AW4RGY_ERR@@PEBDPEAUVideoInfo@@PEBVRGYInputPrm@@@Z
pdata	ENDS
pdata	SEGMENT
$pdata$?dtor$0@?0??Init@RGYInputRaw@@MEAA?AW4RGY_ERR@@PEBDPEAUVideoInfo@@PEBVRGYInputPrm@@@Z@4HA DD imagerel ?dtor$0@?0??Init@RGYInputRaw@@MEAA?AW4RGY_ERR@@PEBDPEAUVideoInfo@@PEBVRGYInputPrm@@@Z@4HA
	DD	imagerel ?dtor$0@?0??Init@RGYInputRaw@@MEAA?AW4RGY_ERR@@PEBDPEAUVideoInfo@@PEBVRGYInputPrm@@@Z@4HA+38
	DD	imagerel $unwind$?dtor$0@?0??Init@RGYInputRaw@@MEAA?AW4RGY_ERR@@PEBDPEAUVideoInfo@@PEBVRGYInputPrm@@@Z@4HA
$pdata$?dtor$1@?0??Init@RGYInputRaw@@MEAA?AW4RGY_ERR@@PEBDPEAUVideoInfo@@PEBVRGYInputPrm@@@Z@4HA DD imagerel ?dtor$1@?0??Init@RGYInputRaw@@MEAA?AW4RGY_ERR@@PEBDPEAUVideoInfo@@PEBVRGYInputPrm@@@Z@4HA
	DD	imagerel ?dtor$1@?0??Init@RGYInputRaw@@MEAA?AW4RGY_ERR@@PEBDPEAUVideoInfo@@PEBVRGYInputPrm@@@Z@4HA+38
	DD	imagerel $unwind$?dtor$1@?0??Init@RGYInputRaw@@MEAA?AW4RGY_ERR@@PEBDPEAUVideoInfo@@PEBVRGYInputPrm@@@Z@4HA
pdata	ENDS
pdata	SEGMENT
$pdata$?ParseY4MHeader@RGYInputRaw@@IEAA?AW4RGY_ERR@@PEADPEAUVideoInfo@@@Z DD imagerel $LN74
	DD	imagerel $LN74+2355
	DD	imagerel $unwind$?ParseY4MHeader@RGYInputRaw@@IEAA?AW4RGY_ERR@@PEADPEAUVideoInfo@@@Z
pdata	ENDS
;	COMDAT pdata
pdata	SEGMENT
$pdata$?get@?$_Ptr_base@E@std@@IEBAPEAEXZ DD imagerel $LN3
	DD	imagerel $LN3+16
	DD	imagerel $unwind$?get@?$_Ptr_base@E@std@@IEBAPEAEXZ
pdata	ENDS
;	COMDAT pdata
pdata	SEGMENT
$pdata$??0?$_Ptr_base@E@std@@IEAA@XZ DD imagerel $LN3
	DD	imagerel $LN3+38
	DD	imagerel $unwind$??0?$_Ptr_base@E@std@@IEAA@XZ
pdata	ENDS
;	COMDAT pdata
pdata	SEGMENT
$pdata$?_Decref@?$_Ptr_base@E@std@@IEAAXXZ DD imagerel $LN4
	DD	imagerel $LN4+62
	DD	imagerel $unwind$?_Decref@?$_Ptr_base@E@std@@IEAAXXZ
pdata	ENDS
;	COMDAT pdata
pdata	SEGMENT
$pdata$?_Swap@?$_Ptr_base@E@std@@IEAAXAEAV12@@Z DD imagerel $LN3
	DD	imagerel $LN3+85
	DD	imagerel $unwind$?_Swap@?$_Ptr_base@E@std@@IEAAXAEAV12@@Z
pdata	ENDS
;	COMDAT pdata
pdata	SEGMENT
$pdata$??0?$shared_ptr@E@std@@QEAA@XZ DD imagerel $LN3
	DD	imagerel $LN3+51
	DD	imagerel $unwind$??0?$shared_ptr@E@std@@QEAA@XZ
pdata	ENDS
;	COMDAT pdata
pdata	SEGMENT
$pdata$??0?$shared_ptr@E@std@@QEAA@$$QEAV01@@Z DD imagerel $LN3
	DD	imagerel $LN3+79
	DD	imagerel $unwind$??0?$shared_ptr@E@std@@QEAA@$$QEAV01@@Z
pdata	ENDS
;	COMDAT pdata
pdata	SEGMENT
$pdata$??1?$shared_ptr@E@std@@QEAA@XZ DD imagerel $LN3
	DD	imagerel $LN3+46
	DD	imagerel $unwind$??1?$shared_ptr@E@std@@QEAA@XZ
pdata	ENDS
;	COMDAT pdata
pdata	SEGMENT
$pdata$??4?$shared_ptr@E@std@@QEAAAEAV01@$$QEAV01@@Z DD imagerel $LN4
	DD	imagerel $LN4+113
	DD	imagerel $unwind$??4?$shared_ptr@E@std@@QEAAAEAV01@$$QEAV01@@Z
pdata	ENDS
;	COMDAT pdata
pdata	SEGMENT
$pdata$?dtor$0@?0???4?$shared_ptr@E@std@@QEAAAEAV01@$$QEAV01@@Z@4HA DD imagerel ?dtor$0@?0???4?$shared_ptr@E@std@@QEAAAEAV01@$$QEAV01@@Z@4HA
	DD	imagerel ?dtor$0@?0???4?$shared_ptr@E@std@@QEAAAEAV01@$$QEAV01@@Z@4HA+35
	DD	imagerel $unwind$?dtor$0@?0???4?$shared_ptr@E@std@@QEAAAEAV01@$$QEAV01@@Z@4HA
pdata	ENDS
;	COMDAT pdata
pdata	SEGMENT
$pdata$?swap@?$shared_ptr@E@std@@QEAAXAEAV12@@Z DD imagerel $LN3
	DD	imagerel $LN3+56
	DD	imagerel $unwind$?swap@?$shared_ptr@E@std@@QEAAXAEAV12@@Z
pdata	ENDS
;	COMDAT pdata
pdata	SEGMENT
$pdata$?reset@?$shared_ptr@E@std@@QEAAXXZ DD imagerel $LN4
	DD	imagerel $LN4+89
	DD	imagerel $unwind$?reset@?$shared_ptr@E@std@@QEAAXXZ
pdata	ENDS
;	COMDAT pdata
pdata	SEGMENT
$pdata$?dtor$0@?0??reset@?$shared_ptr@E@std@@QEAAXXZ@4HA DD imagerel ?dtor$0@?0??reset@?$shared_ptr@E@std@@QEAAXXZ@4HA
	DD	imagerel ?dtor$0@?0??reset@?$shared_ptr@E@std@@QEAAXXZ@4HA+35
	DD	imagerel $unwind$?dtor$0@?0??reset@?$shared_ptr@E@std@@QEAAXXZ@4HA
pdata	ENDS
;	COMDAT pdata
pdata	SEGMENT
$pdata$??B?$shared_ptr@E@std@@QEBA_NXZ DD imagerel $LN5
	DD	imagerel $LN5+74
	DD	imagerel $unwind$??B?$shared_ptr@E@std@@QEBA_NXZ
pdata	ENDS
;	COMDAT pdata
pdata	SEGMENT
$pdata$??_GRGYInputRaw@@UEAAPEAXI@Z DD imagerel $LN4
	DD	imagerel $LN4+81
	DD	imagerel $unwind$??_GRGYInputRaw@@UEAAPEAXI@Z
pdata	ENDS
pdata	SEGMENT
$pdata$??$rgy_reduce@H@@YAXAEAH0@Z DD imagerel ??$rgy_reduce@H@@YAXAEAH0@Z
	DD	imagerel ??$rgy_reduce@H@@YAXAEAH0@Z+124
	DD	imagerel $unwind$??$rgy_reduce@H@@YAXAEAH0@Z
pdata	ENDS
;	COMDAT pdata
pdata	SEGMENT
$pdata$??$make_unique@VRGYConvertCSP@@AEBH$0A@@std@@YA?AV?$unique_ptr@VRGYConvertCSP@@U?$default_delete@VRGYConvertCSP@@@std@@@0@AEBH@Z DD imagerel $LN8
	DD	imagerel $LN8+152
	DD	imagerel $unwind$??$make_unique@VRGYConvertCSP@@AEBH$0A@@std@@YA?AV?$unique_ptr@VRGYConvertCSP@@U?$default_delete@VRGYConvertCSP@@@std@@@0@AEBH@Z
pdata	ENDS
;	COMDAT pdata
pdata	SEGMENT
$pdata$?dtor$0@?0???$make_unique@VRGYConvertCSP@@AEBH$0A@@std@@YA?AV?$unique_ptr@VRGYConvertCSP@@U?$default_delete@VRGYConvertCSP@@@std@@@0@AEBH@Z@4HA DD imagerel ?dtor$0@?0???$make_unique@VRGYConvertCSP@@AEBH$0A@@std@@YA?AV?$unique_ptr@VRGYConvertCSP@@U?$default_delete@VRGYConvertCSP@@@std@@@0@AEBH@Z@4HA
	DD	imagerel ?dtor$0@?0???$make_unique@VRGYConvertCSP@@AEBH$0A@@std@@YA?AV?$unique_ptr@VRGYConvertCSP@@U?$default_delete@VRGYConvertCSP@@@std@@@0@AEBH@Z@4HA+40
	DD	imagerel $unwind$?dtor$0@?0???$make_unique@VRGYConvertCSP@@AEBH$0A@@std@@YA?AV?$unique_ptr@VRGYConvertCSP@@U?$default_delete@VRGYConvertCSP@@@std@@@0@AEBH@Z@4HA
pdata	ENDS
;	COMDAT pdata
pdata	SEGMENT
$pdata$?dtor$1@?0???$make_unique@VRGYConvertCSP@@AEBH$0A@@std@@YA?AV?$unique_ptr@VRGYConvertCSP@@U?$default_delete@VRGYConvertCSP@@@std@@@0@AEBH@Z@4HA DD imagerel ?dtor$1@?0???$make_unique@VRGYConvertCSP@@AEBH$0A@@std@@YA?AV?$unique_ptr@VRGYConvertCSP@@U?$default_delete@VRGYConvertCSP@@@std@@@0@AEBH@Z@4HA
	DD	imagerel ?dtor$1@?0???$make_unique@VRGYConvertCSP@@AEBH$0A@@std@@YA?AV?$unique_ptr@VRGYConvertCSP@@U?$default_delete@VRGYConvertCSP@@@std@@@0@AEBH@Z@4HA+49
	DD	imagerel $unwind$?dtor$1@?0???$make_unique@VRGYConvertCSP@@AEBH$0A@@std@@YA?AV?$unique_ptr@VRGYConvertCSP@@U?$default_delete@VRGYConvertCSP@@@std@@@0@AEBH@Z@4HA
pdata	ENDS
;	COMDAT pdata
pdata	SEGMENT
$pdata$??$?0EUaligned_malloc_deleter@@$0A@@?$shared_ptr@E@std@@QEAA@PEAEUaligned_malloc_deleter@@@Z DD imagerel $LN3
	DD	imagerel $LN3+90
	DD	imagerel $unwind$??$?0EUaligned_malloc_deleter@@$0A@@?$shared_ptr@E@std@@QEAA@PEAEUaligned_malloc_deleter@@@Z
pdata	ENDS
;	COMDAT pdata
pdata	SEGMENT
$pdata$??$?CVEncodeStatus@@$0A@@?$shared_ptr@VEncodeStatus@@@std@@QEBAPEAVEncodeStatus@@XZ DD imagerel $LN3
	DD	imagerel $LN3+46
	DD	imagerel $unwind$??$?CVEncodeStatus@@$0A@@?$shared_ptr@VEncodeStatus@@@std@@QEBAPEAVEncodeStatus@@XZ
pdata	ENDS
;	COMDAT pdata
pdata	SEGMENT
$pdata$??$move@AEAV?$shared_ptr@E@std@@@std@@YA$$QEAV?$shared_ptr@E@0@AEAV10@@Z DD imagerel $LN3
	DD	imagerel $LN3+13
	DD	imagerel $unwind$??$move@AEAV?$shared_ptr@E@std@@@std@@YA$$QEAV?$shared_ptr@E@0@AEAV10@@Z
pdata	ENDS
;	COMDAT pdata
pdata	SEGMENT
$pdata$?allocate@?$allocator@U_Container_proxy@std@@@std@@QEAAPEAU_Container_proxy@2@_K@Z DD imagerel $LN3
	DD	imagerel $LN3+59
	DD	imagerel $unwind$?allocate@?$allocator@U_Container_proxy@std@@@std@@QEAAPEAU_Container_proxy@2@_K@Z
pdata	ENDS
;	COMDAT pdata
pdata	SEGMENT
$pdata$??$?0V?$basic_string@DU?$char_traits@D@std@@V?$allocator@D@2@@std@@@?$allocator@U_Container_proxy@std@@@std@@QEAA@AEBV?$allocator@V?$basic_string@DU?$char_traits@D@std@@V?$allocator@D@2@@std@@@1@@Z DD imagerel $LN3
	DD	imagerel $LN3+18
	DD	imagerel $unwind$??$?0V?$basic_string@DU?$char_traits@D@std@@V?$allocator@D@2@@std@@@?$allocator@U_Container_proxy@std@@@std@@QEAA@AEBV?$allocator@V?$basic_string@DU?$char_traits@D@std@@V?$allocator@D@2@@std@@@1@@Z
pdata	ENDS
;	COMDAT pdata
pdata	SEGMENT
$pdata$??$exchange@PEAU_Container_proxy@std@@$$T@std@@YAPEAU_Container_proxy@0@AEAPEAU10@$$QEA$$T@Z DD imagerel $LN3
	DD	imagerel $LN3+73
	DD	imagerel $unwind$??$exchange@PEAU_Container_proxy@std@@$$T@std@@YAPEAU_Container_proxy@0@AEAPEAU10@$$QEA$$T@Z
pdata	ENDS
;	COMDAT pdata
pdata	SEGMENT
$pdata$??$_Delete_plain_internal@V?$allocator@U_Container_proxy@std@@@std@@@std@@YAXAEAV?$allocator@U_Container_proxy@std@@@0@QEAU_Container_proxy@0@@Z DD imagerel $LN3
	DD	imagerel $LN3+56
	DD	imagerel $unwind$??$_Delete_plain_internal@V?$allocator@U_Container_proxy@std@@@std@@@std@@YAXAEAV?$allocator@U_Container_proxy@std@@@0@QEAU_Container_proxy@0@@Z
pdata	ENDS
;	COMDAT pdata
pdata	SEGMENT
$pdata$??$addressof@V?$unique_ptr@VRGYConvertCSP@@U?$default_delete@VRGYConvertCSP@@@std@@@std@@@std@@YAPEAV?$unique_ptr@VRGYConvertCSP@@U?$default_delete@VRGYConvertCSP@@@std@@@0@AEAV10@@Z DD imagerel $LN3
	DD	imagerel $LN3+13
	DD	imagerel $unwind$??$addressof@V?$unique_ptr@VRGYConvertCSP@@U?$default_delete@VRGYConvertCSP@@@std@@@std@@@std@@YAPEAV?$unique_ptr@VRGYConvertCSP@@U?$default_delete@VRGYConvertCSP@@@std@@@0@AEAV10@@Z
pdata	ENDS
;	COMDAT pdata
pdata	SEGMENT
$pdata$??$forward@U?$default_delete@VRGYConvertCSP@@@std@@@std@@YA$$QEAU?$default_delete@VRGYConvertCSP@@@0@AEAU10@@Z DD imagerel $LN3
	DD	imagerel $LN3+13
	DD	imagerel $unwind$??$forward@U?$default_delete@VRGYConvertCSP@@@std@@@std@@YA$$QEAU?$default_delete@VRGYConvertCSP@@@0@AEAU10@@Z
pdata	ENDS
;	COMDAT pdata
pdata	SEGMENT
$pdata$??$move@AEAV?$basic_string@DU?$char_traits@D@std@@V?$allocator@D@2@@std@@@std@@YA$$QEAV?$basic_string@DU?$char_traits@D@std@@V?$allocator@D@2@@0@AEAV10@@Z DD imagerel $LN3
	DD	imagerel $LN3+13
	DD	imagerel $unwind$??$move@AEAV?$basic_string@DU?$char_traits@D@std@@V?$allocator@D@2@@std@@@std@@YA$$QEAV?$basic_string@DU?$char_traits@D@std@@V?$allocator@D@2@@0@AEAV10@@Z
pdata	ENDS
;	COMDAT pdata
pdata	SEGMENT
$pdata$??$_Min_value@_K@std@@YAAEB_KAEB_K0@Z DD imagerel $LN5
	DD	imagerel $LN5+94
	DD	imagerel $unwind$??$_Min_value@_K@std@@YAAEB_KAEB_K0@Z
pdata	ENDS
;	COMDAT pdata
pdata	SEGMENT
$pdata$??0?$_Container_proxy_ptr12@V?$allocator@U_Container_proxy@std@@@std@@@std@@QEAA@AEAV?$allocator@U_Container_proxy@std@@@1@AEAU_Container_base12@1@@Z DD imagerel $LN3
	DD	imagerel $LN3+145
	DD	imagerel $unwind$??0?$_Container_proxy_ptr12@V?$allocator@U_Container_proxy@std@@@std@@@std@@QEAA@AEAV?$allocator@U_Container_proxy@std@@@1@AEAU_Container_base12@1@@Z
pdata	ENDS
;	COMDAT pdata
pdata	SEGMENT
$pdata$??1?$_Container_proxy_ptr12@V?$allocator@U_Container_proxy@std@@@std@@@std@@QEAA@XZ DD imagerel $LN4
	DD	imagerel $LN4+69
	DD	imagerel $unwind$??1?$_Container_proxy_ptr12@V?$allocator@U_Container_proxy@std@@@std@@@std@@QEAA@XZ
pdata	ENDS
;	COMDAT pdata
pdata	SEGMENT
$pdata$??$_Alloc_proxy@V?$allocator@U_Container_proxy@std@@@std@@@_Container_base12@std@@QEAAX$$QEAV?$allocator@U_Container_proxy@std@@@1@@Z DD imagerel $LN3
	DD	imagerel $LN3+120
	DD	imagerel $unwind$??$_Alloc_proxy@V?$allocator@U_Container_proxy@std@@@std@@@_Container_base12@std@@QEAAX$$QEAV?$allocator@U_Container_proxy@std@@@1@@Z
pdata	ENDS
;	COMDAT pdata
pdata	SEGMENT
$pdata$??$_Unfancy@D@std@@YAPEADPEAD@Z DD imagerel $LN3
	DD	imagerel $LN3+13
	DD	imagerel $unwind$??$_Unfancy@D@std@@YAPEADPEAD@Z
pdata	ENDS
;	COMDAT pdata
pdata	SEGMENT
$pdata$??$addressof@V?$_String_val@U?$_Simple_types@D@std@@@std@@@std@@YAPEAV?$_String_val@U?$_Simple_types@D@std@@@0@AEAV10@@Z DD imagerel $LN3
	DD	imagerel $LN3+13
	DD	imagerel $unwind$??$addressof@V?$_String_val@U?$_Simple_types@D@std@@@std@@@std@@YAPEAV?$_String_val@U?$_Simple_types@D@std@@@0@AEAV10@@Z
pdata	ENDS
;	COMDAT pdata
pdata	SEGMENT
$pdata$??$?0D@?$allocator@U_Container_proxy@std@@@std@@QEAA@AEBV?$allocator@D@1@@Z DD imagerel $LN3
	DD	imagerel $LN3+18
	DD	imagerel $unwind$??$?0D@?$allocator@U_Container_proxy@std@@@std@@QEAA@AEBV?$allocator@D@1@@Z
pdata	ENDS
;	COMDAT pdata
pdata	SEGMENT
$pdata$??$move@AEAV?$allocator@D@std@@@std@@YA$$QEAV?$allocator@D@0@AEAV10@@Z DD imagerel $LN3
	DD	imagerel $LN3+13
	DD	imagerel $unwind$??$move@AEAV?$allocator@D@std@@@std@@YA$$QEAV?$allocator@D@0@AEAV10@@Z
pdata	ENDS
;	COMDAT pdata
pdata	SEGMENT
$pdata$??$?0V?$allocator@D@std@@$$V@?$_Compressed_pair@V?$allocator@D@std@@V?$_String_val@U?$_Simple_types@D@std@@@2@$00@std@@QEAA@U_One_then_variadic_args_t@1@$$QEAV?$allocator@D@1@@Z DD imagerel $LN4
	DD	imagerel $LN4+74
	DD	imagerel $unwind$??$?0V?$allocator@D@std@@$$V@?$_Compressed_pair@V?$allocator@D@std@@V?$_String_val@U?$_Simple_types@D@std@@@2@$00@std@@QEAA@U_One_then_variadic_args_t@1@$$QEAV?$allocator@D@1@@Z
pdata	ENDS
;	COMDAT pdata
pdata	SEGMENT
$pdata$?dtor$0@?0???$?0V?$allocator@D@std@@$$V@?$_Compressed_pair@V?$allocator@D@std@@V?$_String_val@U?$_Simple_types@D@std@@@2@$00@std@@QEAA@U_One_then_variadic_args_t@1@$$QEAV?$allocator@D@1@@Z@4HA DD imagerel ?dtor$0@?0???$?0V?$allocator@D@std@@$$V@?$_Compressed_pair@V?$allocator@D@std@@V?$_String_val@U?$_Simple_types@D@std@@@2@$00@std@@QEAA@U_One_then_variadic_args_t@1@$$QEAV?$allocator@D@1@@Z@4HA
	DD	imagerel ?dtor$0@?0???$?0V?$allocator@D@std@@$$V@?$_Compressed_pair@V?$allocator@D@std@@V?$_String_val@U?$_Simple_types@D@std@@@2@$00@std@@QEAA@U_One_then_variadic_args_t@1@$$QEAV?$allocator@D@1@@Z@4HA+35
	DD	imagerel $unwind$?dtor$0@?0???$?0V?$allocator@D@std@@$$V@?$_Compressed_pair@V?$allocator@D@std@@V?$_String_val@U?$_Simple_types@D@std@@@2@$00@std@@QEAA@U_One_then_variadic_args_t@1@$$QEAV?$allocator@D@1@@Z@4HA
pdata	ENDS
;	COMDAT pdata
pdata	SEGMENT
$pdata$??$?0$$V@?$_Compressed_pair@V?$allocator@D@std@@V?$_String_val@U?$_Simple_types@D@std@@@2@$00@std@@QEAA@U_Zero_then_variadic_args_t@1@@Z DD imagerel $LN4
	DD	imagerel $LN4+69
	DD	imagerel $unwind$??$?0$$V@?$_Compressed_pair@V?$allocator@D@std@@V?$_String_val@U?$_Simple_types@D@std@@@2@$00@std@@QEAA@U_Zero_then_variadic_args_t@1@@Z
pdata	ENDS
;	COMDAT pdata
pdata	SEGMENT
$pdata$?dtor$0@?0???$?0$$V@?$_Compressed_pair@V?$allocator@D@std@@V?$_String_val@U?$_Simple_types@D@std@@@2@$00@std@@QEAA@U_Zero_then_variadic_args_t@1@@Z@4HA DD imagerel ?dtor$0@?0???$?0$$V@?$_Compressed_pair@V?$allocator@D@std@@V?$_String_val@U?$_Simple_types@D@std@@@2@$00@std@@QEAA@U_Zero_then_variadic_args_t@1@@Z@4HA
	DD	imagerel ?dtor$0@?0???$?0$$V@?$_Compressed_pair@V?$allocator@D@std@@V?$_String_val@U?$_Simple_types@D@std@@@2@$00@std@@QEAA@U_Zero_then_variadic_args_t@1@@Z@4HA+35
	DD	imagerel $unwind$?dtor$0@?0???$?0$$V@?$_Compressed_pair@V?$allocator@D@std@@V?$_String_val@U?$_Simple_types@D@std@@@2@$00@std@@QEAA@U_Zero_then_variadic_args_t@1@@Z@4HA
pdata	ENDS
;	COMDAT pdata
pdata	SEGMENT
$pdata$??$_Unfancy@U_Container_proxy@std@@@std@@YAPEAU_Container_proxy@0@PEAU10@@Z DD imagerel $LN3
	DD	imagerel $LN3+13
	DD	imagerel $unwind$??$_Unfancy@U_Container_proxy@std@@@std@@YAPEAU_Container_proxy@0@PEAU10@@Z
pdata	ENDS
;	COMDAT pdata
pdata	SEGMENT
$pdata$??$addressof@U_Container_base12@std@@@std@@YAPEAU_Container_base12@0@AEAU10@@Z DD imagerel $LN3
	DD	imagerel $LN3+13
	DD	imagerel $unwind$??$addressof@U_Container_base12@std@@@std@@YAPEAU_Container_base12@0@AEAU10@@Z
pdata	ENDS
;	COMDAT pdata
pdata	SEGMENT
$pdata$??$_Construct_in_place@U_Container_proxy@std@@PEAU_Container_base12@2@@std@@YAXAEAU_Container_proxy@0@$$QEAPEAU_Container_base12@0@@Z DD imagerel $LN3
	DD	imagerel $LN3+92
	DD	imagerel $unwind$??$_Construct_in_place@U_Container_proxy@std@@PEAU_Container_base12@2@@std@@YAXAEAU_Container_proxy@0@$$QEAPEAU_Container_base12@0@@Z
pdata	ENDS
;	COMDAT pdata
pdata	SEGMENT
$pdata$??$_Move_construct_from@E@?$_Ptr_base@E@std@@IEAAX$$QEAV01@@Z DD imagerel $LN3
	DD	imagerel $LN3+72
	DD	imagerel $unwind$??$_Move_construct_from@E@?$_Ptr_base@E@std@@IEAAX$$QEAV01@@Z
pdata	ENDS
;	COMDAT pdata
pdata	SEGMENT
$pdata$??$exchange@PEAVRGYConvertCSP@@AEAPEAV1@@std@@YAPEAVRGYConvertCSP@@AEAPEAV1@0@Z DD imagerel $LN3
	DD	imagerel $LN3+73
	DD	imagerel $unwind$??$exchange@PEAVRGYConvertCSP@@AEAPEAV1@@std@@YAPEAVRGYConvertCSP@@AEAPEAV1@0@Z
pdata	ENDS
;	COMDAT pdata
pdata	SEGMENT
$pdata$??$exchange@PEAVRGYConvertCSP@@PEAV1@@std@@YAPEAVRGYConvertCSP@@AEAPEAV1@$$QEAPEAV1@@Z DD imagerel $LN3
	DD	imagerel $LN3+73
	DD	imagerel $unwind$??$exchange@PEAVRGYConvertCSP@@PEAV1@@std@@YAPEAVRGYConvertCSP@@AEAPEAV1@$$QEAPEAV1@@Z
pdata	ENDS
;	COMDAT pdata
pdata	SEGMENT
$pdata$??$_Destroy_in_place@PEAD@std@@YAXAEAPEAD@Z DD imagerel $LN3
	DD	imagerel $LN3+8
	DD	imagerel $unwind$??$_Destroy_in_place@PEAD@std@@YAXAEAPEAD@Z
pdata	ENDS
;	COMDAT pdata
pdata	SEGMENT
$pdata$??$_Max_value@_K@std@@YAAEB_KAEB_K0@Z DD imagerel $LN5
	DD	imagerel $LN5+94
	DD	imagerel $unwind$??$_Max_value@_K@std@@YAAEB_KAEB_K0@Z
pdata	ENDS
;	COMDAT pdata
pdata	SEGMENT
$pdata$??$addressof@$$CBV?$_String_val@U?$_Simple_types@D@std@@@std@@@std@@YAPEBV?$_String_val@U?$_Simple_types@D@std@@@0@AEBV10@@Z DD imagerel $LN3
	DD	imagerel $LN3+13
	DD	imagerel $unwind$??$addressof@$$CBV?$_String_val@U?$_Simple_types@D@std@@@std@@@std@@YAPEBV?$_String_val@U?$_Simple_types@D@std@@@0@AEBV10@@Z
pdata	ENDS
;	COMDAT pdata
pdata	SEGMENT
$pdata$??R<lambda_66f57f934f28d61049862f64df852ff0>@@QEBAXQEAD_KQEBD@Z DD imagerel $LN3
	DD	imagerel $LN3+105
	DD	imagerel $unwind$??R<lambda_66f57f934f28d61049862f64df852ff0>@@QEBAXQEAD_KQEBD@Z
pdata	ENDS
;	COMDAT pdata
pdata	SEGMENT
$pdata$??$_Reallocate_for@V<lambda_66f57f934f28d61049862f64df852ff0>@@PEBD@?$basic_string@DU?$char_traits@D@std@@V?$allocator@D@2@@std@@AEAAAEAV01@_KV<lambda_66f57f934f28d61049862f64df852ff0>@@PEBD@Z DD imagerel $LN6
	DD	imagerel $LN6+330
	DD	imagerel $unwind$??$_Reallocate_for@V<lambda_66f57f934f28d61049862f64df852ff0>@@PEBD@?$basic_string@DU?$char_traits@D@std@@V?$allocator@D@2@@std@@AEAAAEAV01@_KV<lambda_66f57f934f28d61049862f64df852ff0>@@PEBD@Z
pdata	ENDS
;	COMDAT pdata
pdata	SEGMENT
$pdata$??R<lambda_e1befb086ad3257e3f042a63030725f7>@@QEBAXQEADQEBD_K2D@Z DD imagerel $LN3
	DD	imagerel $LN3+151
	DD	imagerel $unwind$??R<lambda_e1befb086ad3257e3f042a63030725f7>@@QEBAXQEADQEBD_K2D@Z
pdata	ENDS
;	COMDAT pdata
pdata	SEGMENT
$pdata$??$_Reallocate_grow_by@V<lambda_e1befb086ad3257e3f042a63030725f7>@@_KD@?$basic_string@DU?$char_traits@D@std@@V?$allocator@D@2@@std@@AEAAAEAV01@_KV<lambda_e1befb086ad3257e3f042a63030725f7>@@_KD@Z DD imagerel $LN6
	DD	imagerel $LN6+523
	DD	imagerel $unwind$??$_Reallocate_grow_by@V<lambda_e1befb086ad3257e3f042a63030725f7>@@_KD@?$basic_string@DU?$char_traits@D@std@@V?$allocator@D@2@@std@@AEAAAEAV01@_KV<lambda_e1befb086ad3257e3f042a63030725f7>@@_KD@Z
pdata	ENDS
;	COMDAT pdata
pdata	SEGMENT
$pdata$??R<lambda_65e615be2a453ca0576c979606f46740>@@QEBAXQEADQEBD_K12@Z DD imagerel $LN3
	DD	imagerel $LN3+150
	DD	imagerel $unwind$??R<lambda_65e615be2a453ca0576c979606f46740>@@QEBAXQEADQEBD_K12@Z
pdata	ENDS
;	COMDAT pdata
pdata	SEGMENT
$pdata$??$_Reallocate_grow_by@V<lambda_65e615be2a453ca0576c979606f46740>@@PEBD_K@?$basic_string@DU?$char_traits@D@std@@V?$allocator@D@2@@std@@AEAAAEAV01@_KV<lambda_65e615be2a453ca0576c979606f46740>@@PEBD_K@Z DD imagerel $LN6
	DD	imagerel $LN6+525
	DD	imagerel $unwind$??$_Reallocate_grow_by@V<lambda_65e615be2a453ca0576c979606f46740>@@PEBD_K@?$basic_string@DU?$char_traits@D@std@@V?$allocator@D@2@@std@@AEAAAEAV01@_KV<lambda_65e615be2a453ca0576c979606f46740>@@PEBD_K@Z
pdata	ENDS
;	COMDAT pdata
pdata	SEGMENT
$pdata$??$_Construct_in_place@PEADAEBQEAD@std@@YAXAEAPEADAEBQEAD@Z DD imagerel $LN3
	DD	imagerel $LN3+90
	DD	imagerel $unwind$??$_Construct_in_place@PEADAEBQEAD@std@@YAXAEAPEADAEBQEAD@Z
pdata	ENDS
;	COMDAT pdata
pdata	SEGMENT
$pdata$??$_Get_size_of_n@$00@std@@YA_K_K@Z DD imagerel $LN3
	DD	imagerel $LN3+45
	DD	imagerel $unwind$??$_Get_size_of_n@$00@std@@YA_K_K@Z
pdata	ENDS
;	COMDAT pdata
pdata	SEGMENT
$pdata$??$_Allocate@$0BA@U_Default_allocate_traits@std@@$0A@@std@@YAPEAX_K@Z DD imagerel $LN5
	DD	imagerel $LN5+81
	DD	imagerel $unwind$??$_Allocate@$0BA@U_Default_allocate_traits@std@@$0A@@std@@YAPEAX_K@Z
pdata	ENDS
;	COMDAT pdata
pdata	SEGMENT
$pdata$??$_Deallocate@$0BA@$0A@@std@@YAXPEAX_K@Z DD imagerel $LN4
	DD	imagerel $LN4+84
	DD	imagerel $unwind$??$_Deallocate@$0BA@$0A@@std@@YAXPEAX_K@Z
pdata	ENDS
;	COMDAT pdata
pdata	SEGMENT
$pdata$??$_Get_size_of_n@$0BA@@std@@YA_K_K@Z DD imagerel $LN4
	DD	imagerel $LN4+84
	DD	imagerel $unwind$??$_Get_size_of_n@$0BA@@std@@YA_K_K@Z
pdata	ENDS
;	COMDAT pdata
pdata	SEGMENT
$pdata$??$swap@PEAEX@std@@YAXAEAPEAE0@Z DD imagerel $LN3
	DD	imagerel $LN3+116
	DD	imagerel $unwind$??$swap@PEAEX@std@@YAXAEAPEAE0@Z
pdata	ENDS
;	COMDAT pdata
pdata	SEGMENT
$pdata$??$swap@PEAV_Ref_count_base@std@@X@std@@YAXAEAPEAV_Ref_count_base@0@0@Z DD imagerel $LN3
	DD	imagerel $LN3+116
	DD	imagerel $unwind$??$swap@PEAV_Ref_count_base@std@@X@std@@YAXAEAPEAV_Ref_count_base@0@0@Z
pdata	ENDS
;	COMDAT pdata
pdata	SEGMENT
$pdata$??$_Destroy_range@V?$allocator@V?$basic_string@DU?$char_traits@D@std@@V?$allocator@D@2@@std@@@std@@@std@@YAXPEAV?$basic_string@DU?$char_traits@D@std@@V?$allocator@D@2@@0@QEAV10@AEAV?$allocator@V?$basic_string@DU?$char_traits@D@std@@V?$allocator@D@2@@std@@@0@@Z DD imagerel $LN6
	DD	imagerel $LN6+101
	DD	imagerel $unwind$??$_Destroy_range@V?$allocator@V?$basic_string@DU?$char_traits@D@std@@V?$allocator@D@2@@std@@@std@@@std@@YAXPEAV?$basic_string@DU?$char_traits@D@std@@V?$allocator@D@2@@0@QEAV10@AEAV?$allocator@V?$basic_string@DU?$char_traits@D@std@@V?$allocator@D@2@@std@@@0@@Z
pdata	ENDS
pdata	SEGMENT
$pdata$??$rgy_gcd@H@@YAHHH@Z DD imagerel ??$rgy_gcd@H@@YAHHH@Z
	DD	imagerel ??$rgy_gcd@H@@YAHHH@Z+105
	DD	imagerel $unwind$??$rgy_gcd@H@@YAHHH@Z
pdata	ENDS
;	COMDAT pdata
pdata	SEGMENT
$pdata$??$forward@AEBH@std@@YAAEBHAEBH@Z DD imagerel $LN3
	DD	imagerel $LN3+13
	DD	imagerel $unwind$??$forward@AEBH@std@@YAAEBHAEBH@Z
pdata	ENDS
;	COMDAT pdata
pdata	SEGMENT
$pdata$??$?0U?$default_delete@VRGYConvertCSP@@@std@@$0A@@?$unique_ptr@VRGYConvertCSP@@U?$default_delete@VRGYConvertCSP@@@std@@@std@@QEAA@PEAVRGYConvertCSP@@@Z DD imagerel $LN3
	DD	imagerel $LN3+70
	DD	imagerel $unwind$??$?0U?$default_delete@VRGYConvertCSP@@@std@@$0A@@?$unique_ptr@VRGYConvertCSP@@U?$default_delete@VRGYConvertCSP@@@std@@@std@@QEAA@PEAVRGYConvertCSP@@@Z
pdata	ENDS
;	COMDAT pdata
pdata	SEGMENT
$pdata$??$move@AEAUaligned_malloc_deleter@@@std@@YA$$QEAUaligned_malloc_deleter@@AEAU1@@Z DD imagerel $LN3
	DD	imagerel $LN3+13
	DD	imagerel $unwind$??$move@AEAUaligned_malloc_deleter@@@std@@YA$$QEAUaligned_malloc_deleter@@AEAU1@@Z
pdata	ENDS
;	COMDAT pdata
pdata	SEGMENT
$pdata$??$_Setpd@PEAEUaligned_malloc_deleter@@@?$shared_ptr@E@std@@AEAAXQEAEUaligned_malloc_deleter@@@Z DD imagerel $LN7
	DD	imagerel $LN7+201
	DD	imagerel $unwind$??$_Setpd@PEAEUaligned_malloc_deleter@@@?$shared_ptr@E@std@@AEAAXQEAEUaligned_malloc_deleter@@@Z
pdata	ENDS
;	COMDAT pdata
pdata	SEGMENT
$pdata$?dtor$0@?0???$_Setpd@PEAEUaligned_malloc_deleter@@@?$shared_ptr@E@std@@AEAAXQEAEUaligned_malloc_deleter@@@Z@4HA DD imagerel ?dtor$0@?0???$_Setpd@PEAEUaligned_malloc_deleter@@@?$shared_ptr@E@std@@AEAAXQEAEUaligned_malloc_deleter@@@Z@4HA
	DD	imagerel ?dtor$0@?0???$_Setpd@PEAEUaligned_malloc_deleter@@@?$shared_ptr@E@std@@AEAAXQEAEUaligned_malloc_deleter@@@Z@4HA+35
	DD	imagerel $unwind$?dtor$0@?0???$_Setpd@PEAEUaligned_malloc_deleter@@@?$shared_ptr@E@std@@AEAAXQEAEUaligned_malloc_deleter@@@Z@4HA
pdata	ENDS
;	COMDAT pdata
pdata	SEGMENT
$pdata$?dtor$1@?0???$_Setpd@PEAEUaligned_malloc_deleter@@@?$shared_ptr@E@std@@AEAAXQEAEUaligned_malloc_deleter@@@Z@4HA DD imagerel ?dtor$1@?0???$_Setpd@PEAEUaligned_malloc_deleter@@@?$shared_ptr@E@std@@AEAAXQEAEUaligned_malloc_deleter@@@Z@4HA
	DD	imagerel ?dtor$1@?0???$_Setpd@PEAEUaligned_malloc_deleter@@@?$shared_ptr@E@std@@AEAAXQEAEUaligned_malloc_deleter@@@Z@4HA+40
	DD	imagerel $unwind$?dtor$1@?0???$_Setpd@PEAEUaligned_malloc_deleter@@@?$shared_ptr@E@std@@AEAAXQEAEUaligned_malloc_deleter@@@Z@4HA
pdata	ENDS
;	COMDAT pdata
pdata	SEGMENT
$pdata$??$_Deallocate_plain@V?$allocator@U_Container_proxy@std@@@std@@@std@@YAXAEAV?$allocator@U_Container_proxy@std@@@0@QEAU_Container_proxy@0@@Z DD imagerel $LN3
	DD	imagerel $LN3+63
	DD	imagerel $unwind$??$_Deallocate_plain@V?$allocator@U_Container_proxy@std@@@std@@@std@@YAXAEAV?$allocator@U_Container_proxy@std@@@0@QEAU_Container_proxy@0@@Z
pdata	ENDS
;	COMDAT pdata
pdata	SEGMENT
$pdata$??$forward@V?$allocator@D@std@@@std@@YA$$QEAV?$allocator@D@0@AEAV10@@Z DD imagerel $LN3
	DD	imagerel $LN3+13
	DD	imagerel $unwind$??$forward@V?$allocator@D@std@@@std@@YA$$QEAV?$allocator@D@0@AEAV10@@Z
pdata	ENDS
;	COMDAT pdata
pdata	SEGMENT
$pdata$??$addressof@U_Container_proxy@std@@@std@@YAPEAU_Container_proxy@0@AEAU10@@Z DD imagerel $LN3
	DD	imagerel $LN3+13
	DD	imagerel $unwind$??$addressof@U_Container_proxy@std@@@std@@YAPEAU_Container_proxy@0@AEAU10@@Z
pdata	ENDS
;	COMDAT pdata
pdata	SEGMENT
$pdata$??$forward@PEAU_Container_base12@std@@@std@@YA$$QEAPEAU_Container_base12@0@AEAPEAU10@@Z DD imagerel $LN3
	DD	imagerel $LN3+13
	DD	imagerel $unwind$??$forward@PEAU_Container_base12@std@@@std@@YA$$QEAPEAU_Container_base12@0@AEAPEAU10@@Z
pdata	ENDS
;	COMDAT pdata
pdata	SEGMENT
$pdata$??$addressof@PEAD@std@@YAPEAPEADAEAPEAD@Z DD imagerel $LN3
	DD	imagerel $LN3+13
	DD	imagerel $unwind$??$addressof@PEAD@std@@YAPEAPEADAEAPEAD@Z
pdata	ENDS
;	COMDAT pdata
pdata	SEGMENT
$pdata$??$forward@AEBQEAD@std@@YAAEBQEADAEBQEAD@Z DD imagerel $LN3
	DD	imagerel $LN3+13
	DD	imagerel $unwind$??$forward@AEBQEAD@std@@YAAEBQEADAEBQEAD@Z
pdata	ENDS
;	COMDAT pdata
pdata	SEGMENT
$pdata$??$_Allocate_manually_vector_aligned@U_Default_allocate_traits@std@@@std@@YAPEAX_K@Z DD imagerel $LN13
	DD	imagerel $LN13+279
	DD	imagerel $unwind$??$_Allocate_manually_vector_aligned@U_Default_allocate_traits@std@@@std@@YAPEAX_K@Z
pdata	ENDS
;	COMDAT pdata
pdata	SEGMENT
$pdata$??$move@AEAPEAE@std@@YA$$QEAPEAEAEAPEAE@Z DD imagerel $LN3
	DD	imagerel $LN3+13
	DD	imagerel $unwind$??$move@AEAPEAE@std@@YA$$QEAPEAEAEAPEAE@Z
pdata	ENDS
;	COMDAT pdata
pdata	SEGMENT
$pdata$??$move@AEAPEAV_Ref_count_base@std@@@std@@YA$$QEAPEAV_Ref_count_base@0@AEAPEAV10@@Z DD imagerel $LN3
	DD	imagerel $LN3+13
	DD	imagerel $unwind$??$move@AEAPEAV_Ref_count_base@std@@@std@@YA$$QEAPEAV_Ref_count_base@0@AEAPEAV10@@Z
pdata	ENDS
;	COMDAT pdata
pdata	SEGMENT
$pdata$??$_Unfancy@V?$basic_string@DU?$char_traits@D@std@@V?$allocator@D@2@@std@@@std@@YAPEAV?$basic_string@DU?$char_traits@D@std@@V?$allocator@D@2@@0@PEAV10@@Z DD imagerel $LN3
	DD	imagerel $LN3+13
	DD	imagerel $unwind$??$_Unfancy@V?$basic_string@DU?$char_traits@D@std@@V?$allocator@D@2@@std@@@std@@YAPEAV?$basic_string@DU?$char_traits@D@std@@V?$allocator@D@2@@0@PEAV10@@Z
pdata	ENDS
;	COMDAT pdata
pdata	SEGMENT
$pdata$??$destroy@V?$basic_string@DU?$char_traits@D@std@@V?$allocator@D@2@@std@@@?$_Default_allocator_traits@V?$allocator@V?$basic_string@DU?$char_traits@D@std@@V?$allocator@D@2@@std@@@std@@@std@@SAXAEAV?$allocator@V?$basic_string@DU?$char_traits@D@std@@V?$allocator@D@2@@std@@@1@QEAV?$basic_string@DU?$char_traits@D@std@@V?$allocator@D@2@@1@@Z DD imagerel $LN3
	DD	imagerel $LN3+53
	DD	imagerel $unwind$??$destroy@V?$basic_string@DU?$char_traits@D@std@@V?$allocator@D@2@@std@@@?$_Default_allocator_traits@V?$allocator@V?$basic_string@DU?$char_traits@D@std@@V?$allocator@D@2@@std@@@std@@@std@@SAXAEAV?$allocator@V?$basic_string@DU?$char_traits@D@std@@V?$allocator@D@2@@std@@@1@QEAV?$basic_string@DU?$char_traits@D@std@@V?$allocator@D@2@@1@@Z
pdata	ENDS
;	COMDAT pdata
pdata	SEGMENT
$pdata$??R<lambda_9013ee9e23efe4882b67eff5b0ecf103>@@QEBAXQEADQEBD_K@Z DD imagerel $LN3
	DD	imagerel $LN3+77
	DD	imagerel $unwind$??R<lambda_9013ee9e23efe4882b67eff5b0ecf103>@@QEBAXQEADQEBD_K@Z
pdata	ENDS
;	COMDAT pdata
pdata	SEGMENT
$pdata$??$_Reallocate_grow_by@V<lambda_9013ee9e23efe4882b67eff5b0ecf103>@@$$V@?$basic_string@DU?$char_traits@D@std@@V?$allocator@D@2@@std@@AEAAAEAV01@_KV<lambda_9013ee9e23efe4882b67eff5b0ecf103>@@@Z DD imagerel $LN6
	DD	imagerel $LN6+459
	DD	imagerel $unwind$??$_Reallocate_grow_by@V<lambda_9013ee9e23efe4882b67eff5b0ecf103>@@$$V@?$basic_string@DU?$char_traits@D@std@@V?$allocator@D@2@@std@@AEAAAEAV01@_KV<lambda_9013ee9e23efe4882b67eff5b0ecf103>@@@Z
pdata	ENDS
;	COMDAT pdata
pdata	SEGMENT
$pdata$??$?0AEAPEAVRGYConvertCSP@@@?$_Compressed_pair@U?$default_delete@VRGYConvertCSP@@@std@@PEAVRGYConvertCSP@@$00@std@@QEAA@U_Zero_then_variadic_args_t@1@AEAPEAVRGYConvertCSP@@@Z DD imagerel $LN3
	DD	imagerel $LN3+71
	DD	imagerel $unwind$??$?0AEAPEAVRGYConvertCSP@@@?$_Compressed_pair@U?$default_delete@VRGYConvertCSP@@@std@@PEAVRGYConvertCSP@@$00@std@@QEAA@U_Zero_then_variadic_args_t@1@AEAPEAVRGYConvertCSP@@@Z
pdata	ENDS
;	COMDAT pdata
pdata	SEGMENT
$pdata$??0?$_Temporary_owner_del@PEAEUaligned_malloc_deleter@@@std@@QEAA@QEAEAEAUaligned_malloc_deleter@@@Z DD imagerel $LN3
	DD	imagerel $LN3+59
	DD	imagerel $unwind$??0?$_Temporary_owner_del@PEAEUaligned_malloc_deleter@@@std@@QEAA@QEAEAEAUaligned_malloc_deleter@@@Z
pdata	ENDS
;	COMDAT pdata
pdata	SEGMENT
$pdata$??1?$_Temporary_owner_del@PEAEUaligned_malloc_deleter@@@std@@QEAA@XZ DD imagerel $LN4
	DD	imagerel $LN4+72
	DD	imagerel $unwind$??1?$_Temporary_owner_del@PEAEUaligned_malloc_deleter@@@std@@QEAA@XZ
pdata	ENDS
;	COMDAT pdata
pdata	SEGMENT
$pdata$??0?$_Ref_count_resource@PEAEUaligned_malloc_deleter@@@std@@QEAA@PEAEUaligned_malloc_deleter@@@Z DD imagerel $LN4
	DD	imagerel $LN4+129
	DD	imagerel $unwind$??0?$_Ref_count_resource@PEAEUaligned_malloc_deleter@@@std@@QEAA@PEAEUaligned_malloc_deleter@@@Z
pdata	ENDS
;	COMDAT pdata
pdata	SEGMENT
$pdata$?dtor$0@?0???0?$_Ref_count_resource@PEAEUaligned_malloc_deleter@@@std@@QEAA@PEAEUaligned_malloc_deleter@@@Z@4HA DD imagerel ?dtor$0@?0???0?$_Ref_count_resource@PEAEUaligned_malloc_deleter@@@std@@QEAA@PEAEUaligned_malloc_deleter@@@Z@4HA
	DD	imagerel ?dtor$0@?0???0?$_Ref_count_resource@PEAEUaligned_malloc_deleter@@@std@@QEAA@PEAEUaligned_malloc_deleter@@@Z@4HA+35
	DD	imagerel $unwind$?dtor$0@?0???0?$_Ref_count_resource@PEAEUaligned_malloc_deleter@@@std@@QEAA@PEAEUaligned_malloc_deleter@@@Z@4HA
pdata	ENDS
;	COMDAT pdata
pdata	SEGMENT
$pdata$?_Get_deleter@?$_Ref_count_resource@PEAEUaligned_malloc_deleter@@@std@@UEBAPEAXAEBVtype_info@@@Z DD imagerel $LN4
	DD	imagerel $LN4+94
	DD	imagerel $unwind$?_Get_deleter@?$_Ref_count_resource@PEAEUaligned_malloc_deleter@@@std@@UEBAPEAXAEBVtype_info@@@Z
pdata	ENDS
;	COMDAT pdata
pdata	SEGMENT
$pdata$?_Destroy@?$_Ref_count_resource@PEAEUaligned_malloc_deleter@@@std@@EEAAXXZ DD imagerel $LN3
	DD	imagerel $LN3+72
	DD	imagerel $unwind$?_Destroy@?$_Ref_count_resource@PEAEUaligned_malloc_deleter@@@std@@EEAAXXZ
pdata	ENDS
;	COMDAT pdata
pdata	SEGMENT
$pdata$?_Delete_this@?$_Ref_count_resource@PEAEUaligned_malloc_deleter@@@std@@EEAAXXZ DD imagerel $LN5
	DD	imagerel $LN5+91
	DD	imagerel $unwind$?_Delete_this@?$_Ref_count_resource@PEAEUaligned_malloc_deleter@@@std@@EEAAXXZ
pdata	ENDS
;	COMDAT pdata
pdata	SEGMENT
$pdata$?_Get_first@?$_Compressed_pair@Ualigned_malloc_deleter@@PEAE$00@std@@QEAAAEAUaligned_malloc_deleter@@XZ DD imagerel $LN3
	DD	imagerel $LN3+13
	DD	imagerel $unwind$?_Get_first@?$_Compressed_pair@Ualigned_malloc_deleter@@PEAE$00@std@@QEAAAEAUaligned_malloc_deleter@@XZ
pdata	ENDS
;	COMDAT pdata
pdata	SEGMENT
$pdata$?_Get_first@?$_Compressed_pair@Ualigned_malloc_deleter@@PEAE$00@std@@QEBAAEBUaligned_malloc_deleter@@XZ DD imagerel $LN3
	DD	imagerel $LN3+13
	DD	imagerel $unwind$?_Get_first@?$_Compressed_pair@Ualigned_malloc_deleter@@PEAE$00@std@@QEBAAEBUaligned_malloc_deleter@@XZ
pdata	ENDS
;	COMDAT pdata
pdata	SEGMENT
$pdata$??1?$_Ref_count_resource@PEAEUaligned_malloc_deleter@@@std@@UEAA@XZ DD imagerel $LN4
	DD	imagerel $LN4+47
	DD	imagerel $unwind$??1?$_Ref_count_resource@PEAEUaligned_malloc_deleter@@@std@@UEAA@XZ
pdata	ENDS
;	COMDAT pdata
pdata	SEGMENT
$pdata$?dtor$0@?0???1?$_Ref_count_resource@PEAEUaligned_malloc_deleter@@@std@@UEAA@XZ@4HA DD imagerel ?dtor$0@?0???1?$_Ref_count_resource@PEAEUaligned_malloc_deleter@@@std@@UEAA@XZ@4HA
	DD	imagerel ?dtor$0@?0???1?$_Ref_count_resource@PEAEUaligned_malloc_deleter@@@std@@UEAA@XZ@4HA+35
	DD	imagerel $unwind$?dtor$0@?0???1?$_Ref_count_resource@PEAEUaligned_malloc_deleter@@@std@@UEAA@XZ@4HA
pdata	ENDS
;	COMDAT pdata
pdata	SEGMENT
$pdata$??_G?$_Ref_count_resource@PEAEUaligned_malloc_deleter@@@std@@UEAAPEAXI@Z DD imagerel $LN4
	DD	imagerel $LN4+81
	DD	imagerel $unwind$??_G?$_Ref_count_resource@PEAEUaligned_malloc_deleter@@@std@@UEAAPEAXI@Z
pdata	ENDS
;	COMDAT pdata
pdata	SEGMENT
$pdata$??$_Set_ptr_rep_and_enable_shared@E@?$shared_ptr@E@std@@AEAAXQEAEQEAV_Ref_count_base@1@@Z DD imagerel $LN3
	DD	imagerel $LN3+45
	DD	imagerel $unwind$??$_Set_ptr_rep_and_enable_shared@E@?$shared_ptr@E@std@@AEAAXQEAEQEAV_Ref_count_base@1@@Z
pdata	ENDS
;	COMDAT pdata
pdata	SEGMENT
$pdata$?deallocate@?$_Default_allocator_traits@V?$allocator@U_Container_proxy@std@@@std@@@std@@SAXAEAV?$allocator@U_Container_proxy@std@@@2@QEAU_Container_proxy@2@_K@Z DD imagerel $LN3
	DD	imagerel $LN3+65
	DD	imagerel $unwind$?deallocate@?$_Default_allocator_traits@V?$allocator@U_Container_proxy@std@@@std@@@std@@SAXAEAV?$allocator@U_Container_proxy@std@@@2@QEAU_Container_proxy@2@_K@Z
pdata	ENDS
;	COMDAT pdata
pdata	SEGMENT
$pdata$??$addressof@$$CBUaligned_malloc_deleter@@@std@@YAPEBUaligned_malloc_deleter@@AEBU1@@Z DD imagerel $LN3
	DD	imagerel $LN3+13
	DD	imagerel $unwind$??$addressof@$$CBUaligned_malloc_deleter@@@std@@YAPEBUaligned_malloc_deleter@@AEBU1@@Z
pdata	ENDS
;	COMDAT pdata
pdata	SEGMENT
$pdata$??$?0Ualigned_malloc_deleter@@AEAPEAE@?$_Compressed_pair@Ualigned_malloc_deleter@@PEAE$00@std@@QEAA@U_One_then_variadic_args_t@1@$$QEAUaligned_malloc_deleter@@AEAPEAE@Z DD imagerel $LN3
	DD	imagerel $LN3+86
	DD	imagerel $unwind$??$?0Ualigned_malloc_deleter@@AEAPEAE@?$_Compressed_pair@Ualigned_malloc_deleter@@PEAE$00@std@@QEAA@U_One_then_variadic_args_t@1@$$QEAUaligned_malloc_deleter@@AEAPEAE@Z
pdata	ENDS
;	COMDAT pdata
pdata	SEGMENT
$pdata$??$forward@AEAPEAVRGYConvertCSP@@@std@@YAAEAPEAVRGYConvertCSP@@AEAPEAV1@@Z DD imagerel $LN3
	DD	imagerel $LN3+13
	DD	imagerel $unwind$??$forward@AEAPEAVRGYConvertCSP@@@std@@YAAEAPEAVRGYConvertCSP@@AEAPEAV1@@Z
pdata	ENDS
;	COMDAT pdata
pdata	SEGMENT
$pdata$??$forward@Ualigned_malloc_deleter@@@std@@YA$$QEAUaligned_malloc_deleter@@AEAU1@@Z DD imagerel $LN3
	DD	imagerel $LN3+13
	DD	imagerel $unwind$??$forward@Ualigned_malloc_deleter@@@std@@YA$$QEAUaligned_malloc_deleter@@AEAU1@@Z
pdata	ENDS
;	COMDAT pdata
pdata	SEGMENT
$pdata$??$forward@AEAPEAE@std@@YAAEAPEAEAEAPEAE@Z DD imagerel $LN3
	DD	imagerel $LN3+13
	DD	imagerel $unwind$??$forward@AEAPEAE@std@@YAAEAPEAEAEAPEAE@Z
pdata	ENDS
CRT$XCU	SEGMENT
?CspMatrixList$initializer$@@3P6AXXZEA DQ FLAT:??__ECspMatrixList@@YAXXZ ; CspMatrixList$initializer$
CRT$XCU	ENDS
;	COMDAT rtc$TMZ
rtc$TMZ	SEGMENT
_RTC_Shutdown.rtc$TMZ DQ FLAT:_RTC_Shutdown
rtc$TMZ	ENDS
;	COMDAT rtc$IMZ
rtc$IMZ	SEGMENT
_RTC_InitBase.rtc$IMZ DQ FLAT:_RTC_InitBase
rtc$IMZ	ENDS
;	COMDAT ??_R1A@?0A@EA@?$_Ref_count_resource@PEAEUaligned_malloc_deleter@@@std@@8
rdata$r	SEGMENT
??_R1A@?0A@EA@?$_Ref_count_resource@PEAEUaligned_malloc_deleter@@@std@@8 DD imagerel ??_R0?AV?$_Ref_count_resource@PEAEUaligned_malloc_deleter@@@std@@@8 ; std::_Ref_count_resource<unsigned char *,aligned_malloc_deleter>::`RTTI Base Class Descriptor at (0,-1,0,64)'
	DD	01H
	DD	00H
	DD	0ffffffffH
	DD	00H
	DD	040H
	DD	imagerel ??_R3?$_Ref_count_resource@PEAEUaligned_malloc_deleter@@@std@@8
rdata$r	ENDS
;	COMDAT ??_R2?$_Ref_count_resource@PEAEUaligned_malloc_deleter@@@std@@8
rdata$r	SEGMENT
??_R2?$_Ref_count_resource@PEAEUaligned_malloc_deleter@@@std@@8 DD imagerel ??_R1A@?0A@EA@?$_Ref_count_resource@PEAEUaligned_malloc_deleter@@@std@@8 ; std::_Ref_count_resource<unsigned char *,aligned_malloc_deleter>::`RTTI Base Class Array'
	DD	imagerel ??_R1A@?0A@EA@_Ref_count_base@std@@8
	ORG $+3
rdata$r	ENDS
;	COMDAT ??_R3?$_Ref_count_resource@PEAEUaligned_malloc_deleter@@@std@@8
rdata$r	SEGMENT
??_R3?$_Ref_count_resource@PEAEUaligned_malloc_deleter@@@std@@8 DD 00H ; std::_Ref_count_resource<unsigned char *,aligned_malloc_deleter>::`RTTI Class Hierarchy Descriptor'
	DD	00H
	DD	02H
	DD	imagerel ??_R2?$_Ref_count_resource@PEAEUaligned_malloc_deleter@@@std@@8
rdata$r	ENDS
;	COMDAT ??_R0?AV?$_Ref_count_resource@PEAEUaligned_malloc_deleter@@@std@@@8
data$r	SEGMENT
??_R0?AV?$_Ref_count_resource@PEAEUaligned_malloc_deleter@@@std@@@8 DQ FLAT:??_7type_info@@6B@ ; std::_Ref_count_resource<unsigned char *,aligned_malloc_deleter> `RTTI Type Descriptor'
	DQ	0000000000000000H
	DB	'.?AV?$_Ref_count_resource@PEAEUaligned_malloc_deleter@@@'
	DB	'std@@', 00H
data$r	ENDS
;	COMDAT ??_R4?$_Ref_count_resource@PEAEUaligned_malloc_deleter@@@std@@6B@
rdata$r	SEGMENT
??_R4?$_Ref_count_resource@PEAEUaligned_malloc_deleter@@@std@@6B@ DD 01H ; std::_Ref_count_resource<unsigned char *,aligned_malloc_deleter>::`RTTI Complete Object Locator'
	DD	00H
	DD	00H
	DD	imagerel ??_R0?AV?$_Ref_count_resource@PEAEUaligned_malloc_deleter@@@std@@@8
	DD	imagerel ??_R3?$_Ref_count_resource@PEAEUaligned_malloc_deleter@@@std@@8
	DD	imagerel ??_R4?$_Ref_count_resource@PEAEUaligned_malloc_deleter@@@std@@6B@
rdata$r	ENDS
;	COMDAT ??_R2RGYInput@@8
rdata$r	SEGMENT
??_R2RGYInput@@8 DD imagerel ??_R1A@?0A@EA@RGYInput@@8	; RGYInput::`RTTI Base Class Array'
	ORG $+3
rdata$r	ENDS
;	COMDAT ??_R3RGYInput@@8
rdata$r	SEGMENT
??_R3RGYInput@@8 DD 00H					; RGYInput::`RTTI Class Hierarchy Descriptor'
	DD	00H
	DD	01H
	DD	imagerel ??_R2RGYInput@@8
rdata$r	ENDS
;	COMDAT ??_R0?AVRGYInput@@@8
data$r	SEGMENT
??_R0?AVRGYInput@@@8 DQ FLAT:??_7type_info@@6B@		; RGYInput `RTTI Type Descriptor'
	DQ	0000000000000000H
	DB	'.?AVRGYInput@@', 00H
data$r	ENDS
;	COMDAT ??_R1A@?0A@EA@RGYInput@@8
rdata$r	SEGMENT
??_R1A@?0A@EA@RGYInput@@8 DD imagerel ??_R0?AVRGYInput@@@8 ; RGYInput::`RTTI Base Class Descriptor at (0,-1,0,64)'
	DD	00H
	DD	00H
	DD	0ffffffffH
	DD	00H
	DD	040H
	DD	imagerel ??_R3RGYInput@@8
rdata$r	ENDS
;	COMDAT ??_R1A@?0A@EA@RGYInputRaw@@8
rdata$r	SEGMENT
??_R1A@?0A@EA@RGYInputRaw@@8 DD imagerel ??_R0?AVRGYInputRaw@@@8 ; RGYInputRaw::`RTTI Base Class Descriptor at (0,-1,0,64)'
	DD	01H
	DD	00H
	DD	0ffffffffH
	DD	00H
	DD	040H
	DD	imagerel ??_R3RGYInputRaw@@8
rdata$r	ENDS
;	COMDAT ??_R2RGYInputRaw@@8
rdata$r	SEGMENT
??_R2RGYInputRaw@@8 DD imagerel ??_R1A@?0A@EA@RGYInputRaw@@8 ; RGYInputRaw::`RTTI Base Class Array'
	DD	imagerel ??_R1A@?0A@EA@RGYInput@@8
	ORG $+3
rdata$r	ENDS
;	COMDAT ??_R3RGYInputRaw@@8
rdata$r	SEGMENT
??_R3RGYInputRaw@@8 DD 00H				; RGYInputRaw::`RTTI Class Hierarchy Descriptor'
	DD	00H
	DD	02H
	DD	imagerel ??_R2RGYInputRaw@@8
rdata$r	ENDS
;	COMDAT ??_R0?AVRGYInputRaw@@@8
data$r	SEGMENT
??_R0?AVRGYInputRaw@@@8 DQ FLAT:??_7type_info@@6B@	; RGYInputRaw `RTTI Type Descriptor'
	DQ	0000000000000000H
	DB	'.?AVRGYInputRaw@@', 00H
data$r	ENDS
;	COMDAT ??_R4RGYInputRaw@@6B@
rdata$r	SEGMENT
??_R4RGYInputRaw@@6B@ DD 01H				; RGYInputRaw::`RTTI Complete Object Locator'
	DD	00H
	DD	00H
	DD	imagerel ??_R0?AVRGYInputRaw@@@8
	DD	imagerel ??_R3RGYInputRaw@@8
	DD	imagerel ??_R4RGYInputRaw@@6B@
rdata$r	ENDS
;	COMDAT ??_R1A@?0A@EA@_Ref_count_base@std@@8
rdata$r	SEGMENT
??_R1A@?0A@EA@_Ref_count_base@std@@8 DD imagerel ??_R0?AV_Ref_count_base@std@@@8 ; std::_Ref_count_base::`RTTI Base Class Descriptor at (0,-1,0,64)'
	DD	00H
	DD	00H
	DD	0ffffffffH
	DD	00H
	DD	040H
	DD	imagerel ??_R3_Ref_count_base@std@@8
rdata$r	ENDS
;	COMDAT ??_R2_Ref_count_base@std@@8
rdata$r	SEGMENT
??_R2_Ref_count_base@std@@8 DD imagerel ??_R1A@?0A@EA@_Ref_count_base@std@@8 ; std::_Ref_count_base::`RTTI Base Class Array'
	ORG $+3
rdata$r	ENDS
;	COMDAT ??_R3_Ref_count_base@std@@8
rdata$r	SEGMENT
??_R3_Ref_count_base@std@@8 DD 00H			; std::_Ref_count_base::`RTTI Class Hierarchy Descriptor'
	DD	00H
	DD	01H
	DD	imagerel ??_R2_Ref_count_base@std@@8
rdata$r	ENDS
;	COMDAT ??_R0?AV_Ref_count_base@std@@@8
data$r	SEGMENT
??_R0?AV_Ref_count_base@std@@@8 DQ FLAT:??_7type_info@@6B@ ; std::_Ref_count_base `RTTI Type Descriptor'
	DQ	0000000000000000H
	DB	'.?AV_Ref_count_base@std@@', 00H
data$r	ENDS
;	COMDAT ??_R1A@?0A@EA@bad_array_new_length@std@@8
rdata$r	SEGMENT
??_R1A@?0A@EA@bad_array_new_length@std@@8 DD imagerel ??_R0?AVbad_array_new_length@std@@@8 ; std::bad_array_new_length::`RTTI Base Class Descriptor at (0,-1,0,64)'
	DD	02H
	DD	00H
	DD	0ffffffffH
	DD	00H
	DD	040H
	DD	imagerel ??_R3bad_array_new_length@std@@8
rdata$r	ENDS
;	COMDAT ??_R2bad_array_new_length@std@@8
rdata$r	SEGMENT
??_R2bad_array_new_length@std@@8 DD imagerel ??_R1A@?0A@EA@bad_array_new_length@std@@8 ; std::bad_array_new_length::`RTTI Base Class Array'
	DD	imagerel ??_R1A@?0A@EA@bad_alloc@std@@8
	DD	imagerel ??_R1A@?0A@EA@exception@std@@8
	ORG $+3
rdata$r	ENDS
;	COMDAT ??_R3bad_array_new_length@std@@8
rdata$r	SEGMENT
??_R3bad_array_new_length@std@@8 DD 00H			; std::bad_array_new_length::`RTTI Class Hierarchy Descriptor'
	DD	00H
	DD	03H
	DD	imagerel ??_R2bad_array_new_length@std@@8
rdata$r	ENDS
;	COMDAT ??_R4bad_array_new_length@std@@6B@
rdata$r	SEGMENT
??_R4bad_array_new_length@std@@6B@ DD 01H		; std::bad_array_new_length::`RTTI Complete Object Locator'
	DD	00H
	DD	00H
	DD	imagerel ??_R0?AVbad_array_new_length@std@@@8
	DD	imagerel ??_R3bad_array_new_length@std@@8
	DD	imagerel ??_R4bad_array_new_length@std@@6B@
rdata$r	ENDS
;	COMDAT ??_R1A@?0A@EA@bad_alloc@std@@8
rdata$r	SEGMENT
??_R1A@?0A@EA@bad_alloc@std@@8 DD imagerel ??_R0?AVbad_alloc@std@@@8 ; std::bad_alloc::`RTTI Base Class Descriptor at (0,-1,0,64)'
	DD	01H
	DD	00H
	DD	0ffffffffH
	DD	00H
	DD	040H
	DD	imagerel ??_R3bad_alloc@std@@8
rdata$r	ENDS
;	COMDAT ??_R2bad_alloc@std@@8
rdata$r	SEGMENT
??_R2bad_alloc@std@@8 DD imagerel ??_R1A@?0A@EA@bad_alloc@std@@8 ; std::bad_alloc::`RTTI Base Class Array'
	DD	imagerel ??_R1A@?0A@EA@exception@std@@8
	ORG $+3
rdata$r	ENDS
;	COMDAT ??_R3bad_alloc@std@@8
rdata$r	SEGMENT
??_R3bad_alloc@std@@8 DD 00H				; std::bad_alloc::`RTTI Class Hierarchy Descriptor'
	DD	00H
	DD	02H
	DD	imagerel ??_R2bad_alloc@std@@8
rdata$r	ENDS
;	COMDAT ??_R4bad_alloc@std@@6B@
rdata$r	SEGMENT
??_R4bad_alloc@std@@6B@ DD 01H				; std::bad_alloc::`RTTI Complete Object Locator'
	DD	00H
	DD	00H
	DD	imagerel ??_R0?AVbad_alloc@std@@@8
	DD	imagerel ??_R3bad_alloc@std@@8
	DD	imagerel ??_R4bad_alloc@std@@6B@
rdata$r	ENDS
;	COMDAT ??_R1A@?0A@EA@exception@std@@8
rdata$r	SEGMENT
??_R1A@?0A@EA@exception@std@@8 DD imagerel ??_R0?AVexception@std@@@8 ; std::exception::`RTTI Base Class Descriptor at (0,-1,0,64)'
	DD	00H
	DD	00H
	DD	0ffffffffH
	DD	00H
	DD	040H
	DD	imagerel ??_R3exception@std@@8
rdata$r	ENDS
;	COMDAT ??_R2exception@std@@8
rdata$r	SEGMENT
??_R2exception@std@@8 DD imagerel ??_R1A@?0A@EA@exception@std@@8 ; std::exception::`RTTI Base Class Array'
	ORG $+3
rdata$r	ENDS
;	COMDAT ??_R3exception@std@@8
rdata$r	SEGMENT
??_R3exception@std@@8 DD 00H				; std::exception::`RTTI Class Hierarchy Descriptor'
	DD	00H
	DD	01H
	DD	imagerel ??_R2exception@std@@8
rdata$r	ENDS
;	COMDAT ??_R4exception@std@@6B@
rdata$r	SEGMENT
??_R4exception@std@@6B@ DD 01H				; std::exception::`RTTI Complete Object Locator'
	DD	00H
	DD	00H
	DD	imagerel ??_R0?AVexception@std@@@8
	DD	imagerel ??_R3exception@std@@8
	DD	imagerel ??_R4exception@std@@6B@
rdata$r	ENDS
;	COMDAT ??_R0?AUaligned_malloc_deleter@@@8
data$r	SEGMENT
??_R0?AUaligned_malloc_deleter@@@8 DQ FLAT:??_7type_info@@6B@ ; aligned_malloc_deleter `RTTI Type Descriptor'
	DQ	0000000000000000H
	DB	'.?AUaligned_malloc_deleter@@', 00H
data$r	ENDS
;	COMDAT ??_7?$_Ref_count_resource@PEAEUaligned_malloc_deleter@@@std@@6B@
CONST	SEGMENT
??_7?$_Ref_count_resource@PEAEUaligned_malloc_deleter@@@std@@6B@ DQ FLAT:??_R4?$_Ref_count_resource@PEAEUaligned_malloc_deleter@@@std@@6B@ ; std::_Ref_count_resource<unsigned char *,aligned_malloc_deleter>::`vftable'
	DQ	FLAT:?_Destroy@?$_Ref_count_resource@PEAEUaligned_malloc_deleter@@@std@@EEAAXXZ
	DQ	FLAT:?_Delete_this@?$_Ref_count_resource@PEAEUaligned_malloc_deleter@@@std@@EEAAXXZ
	DQ	FLAT:??_E?$_Ref_count_resource@PEAEUaligned_malloc_deleter@@@std@@UEAAPEAXI@Z
	DQ	FLAT:?_Get_deleter@?$_Ref_count_resource@PEAEUaligned_malloc_deleter@@@std@@UEBAPEAXAEBVtype_info@@@Z
CONST	ENDS
;	COMDAT ??_C@_0BA@JFNIOLAK@string?5too?5long@
CONST	SEGMENT
??_C@_0BA@JFNIOLAK@string?5too?5long@ DB 'string too long', 00H ; `string'
CONST	ENDS
;	COMDAT ??_C@_1CK@NDNHPKPI@?$AA?$CC?$AAi?$AAn?$AAv?$AAa?$AAl?$AAi?$AAd?$AA?5?$AAc?$AAo?$AAm?$AAp?$AAa?$AAr@
CONST	SEGMENT
??_C@_1CK@NDNHPKPI@?$AA?$CC?$AAi?$AAn?$AAv?$AAa?$AAl?$AAi?$AAd?$AA?5?$AAc?$AAo?$AAm?$AAp?$AAa?$AAr@ DB '"'
	DB	00H, 'i', 00H, 'n', 00H, 'v', 00H, 'a', 00H, 'l', 00H, 'i', 00H
	DB	'd', 00H, ' ', 00H, 'c', 00H, 'o', 00H, 'm', 00H, 'p', 00H, 'a'
	DB	00H, 'r', 00H, 'a', 00H, 't', 00H, 'o', 00H, 'r', 00H, '"', 00H
	DB	00H, 00H					; `string'
CONST	ENDS
;	COMDAT ??_C@_1BC@BLAPCBGI@?$AAs?$AAt?$AAd?$AA?3?$AA?3?$AAm?$AAi?$AAn@
CONST	SEGMENT
??_C@_1BC@BLAPCBGI@?$AAs?$AAt?$AAd?$AA?3?$AA?3?$AAm?$AAi?$AAn@ DB 's', 00H
	DB	't', 00H, 'd', 00H, ':', 00H, ':', 00H, 'm', 00H, 'i', 00H, 'n'
	DB	00H, 00H, 00H				; `string'
CONST	ENDS
;	COMDAT ??_C@_1NE@BOCHNKFM@?$AAC?$AA?3?$AA?2?$AAP?$AAr?$AAo?$AAg?$AAr?$AAa?$AAm?$AA?5?$AAF?$AAi?$AAl?$AAe@
CONST	SEGMENT
??_C@_1NE@BOCHNKFM@?$AAC?$AA?3?$AA?2?$AAP?$AAr?$AAo?$AAg?$AAr?$AAa?$AAm?$AA?5?$AAF?$AAi?$AAl?$AAe@ DB 'C'
	DB	00H, ':', 00H, '\', 00H, 'P', 00H, 'r', 00H, 'o', 00H, 'g', 00H
	DB	'r', 00H, 'a', 00H, 'm', 00H, ' ', 00H, 'F', 00H, 'i', 00H, 'l'
	DB	00H, 'e', 00H, 's', 00H, ' ', 00H, '(', 00H, 'x', 00H, '8', 00H
	DB	'6', 00H, ')', 00H, '\', 00H, 'M', 00H, 'i', 00H, 'c', 00H, 'r'
	DB	00H, 'o', 00H, 's', 00H, 'o', 00H, 'f', 00H, 't', 00H, ' ', 00H
	DB	'V', 00H, 'i', 00H, 's', 00H, 'u', 00H, 'a', 00H, 'l', 00H, ' '
	DB	00H, 'S', 00H, 't', 00H, 'u', 00H, 'd', 00H, 'i', 00H, 'o', 00H
	DB	'\', 00H, '2', 00H, '0', 00H, '1', 00H, '9', 00H, '\', 00H, 'C'
	DB	00H, 'o', 00H, 'm', 00H, 'm', 00H, 'u', 00H, 'n', 00H, 'i', 00H
	DB	't', 00H, 'y', 00H, '\', 00H, 'V', 00H, 'C', 00H, '\', 00H, 'T'
	DB	00H, 'o', 00H, 'o', 00H, 'l', 00H, 's', 00H, '\', 00H, 'M', 00H
	DB	'S', 00H, 'V', 00H, 'C', 00H, '\', 00H, '1', 00H, '4', 00H, '.'
	DB	00H, '2', 00H, '3', 00H, '.', 00H, '2', 00H, '8', 00H, '1', 00H
	DB	'0', 00H, '5', 00H, '\', 00H, 'i', 00H, 'n', 00H, 'c', 00H, 'l'
	DB	00H, 'u', 00H, 'd', 00H, 'e', 00H, '\', 00H, 'a', 00H, 'l', 00H
	DB	'g', 00H, 'o', 00H, 'r', 00H, 'i', 00H, 't', 00H, 'h', 00H, 'm'
	DB	00H, 00H, 00H				; `string'
CONST	ENDS
;	COMDAT ??_C@_0GK@EEDLHHLD@C?3?2Program?5Files?5?$CIx86?$CJ?2Microsof@
CONST	SEGMENT
??_C@_0GK@EEDLHHLD@C?3?2Program?5Files?5?$CIx86?$CJ?2Microsof@ DB 'C:\Pro'
	DB	'gram Files (x86)\Microsoft Visual Studio\2019\Community\VC\To'
	DB	'ols\MSVC\14.23.28105\include\algorithm', 00H ; `string'
CONST	ENDS
;	COMDAT ??_C@_0BD@FEEMDEPI@invalid?5comparator@
CONST	SEGMENT
??_C@_0BD@FEEMDEPI@invalid?5comparator@ DB 'invalid comparator', 00H ; `string'
CONST	ENDS
;	COMDAT ??_C@_1LO@NPPEKPAI@?$AAs?$AAt?$AAd?$AA?3?$AA?3?$AAb?$AAa?$AAs?$AAi?$AAc?$AA_?$AAs?$AAt?$AAr?$AAi@
CONST	SEGMENT
??_C@_1LO@NPPEKPAI@?$AAs?$AAt?$AAd?$AA?3?$AA?3?$AAb?$AAa?$AAs?$AAi?$AAc?$AA_?$AAs?$AAt?$AAr?$AAi@ DB 's'
	DB	00H, 't', 00H, 'd', 00H, ':', 00H, ':', 00H, 'b', 00H, 'a', 00H
	DB	's', 00H, 'i', 00H, 'c', 00H, '_', 00H, 's', 00H, 't', 00H, 'r'
	DB	00H, 'i', 00H, 'n', 00H, 'g', 00H, '<', 00H, 'c', 00H, 'h', 00H
	DB	'a', 00H, 'r', 00H, ',', 00H, 's', 00H, 't', 00H, 'r', 00H, 'u'
	DB	00H, 'c', 00H, 't', 00H, ' ', 00H, 's', 00H, 't', 00H, 'd', 00H
	DB	':', 00H, ':', 00H, 'c', 00H, 'h', 00H, 'a', 00H, 'r', 00H, '_'
	DB	00H, 't', 00H, 'r', 00H, 'a', 00H, 'i', 00H, 't', 00H, 's', 00H
	DB	'<', 00H, 'c', 00H, 'h', 00H, 'a', 00H, 'r', 00H, '>', 00H, ','
	DB	00H, 'c', 00H, 'l', 00H, 'a', 00H, 's', 00H, 's', 00H, ' ', 00H
	DB	's', 00H, 't', 00H, 'd', 00H, ':', 00H, ':', 00H, 'a', 00H, 'l'
	DB	00H, 'l', 00H, 'o', 00H, 'c', 00H, 'a', 00H, 't', 00H, 'o', 00H
	DB	'r', 00H, '<', 00H, 'c', 00H, 'h', 00H, 'a', 00H, 'r', 00H, '>'
	DB	00H, ' ', 00H, '>', 00H, ':', 00H, ':', 00H, 'o', 00H, 'p', 00H
	DB	'e', 00H, 'r', 00H, 'a', 00H, 't', 00H, 'o', 00H, 'r', 00H, ' '
	DB	00H, '[', 00H, ']', 00H, 00H, 00H		; `string'
CONST	ENDS
;	COMDAT ??_C@_1EA@OADAPGGK@?$AA?$CC?$AAs?$AAt?$AAr?$AAi?$AAn?$AAg?$AA?5?$AAs?$AAu?$AAb?$AAs?$AAc?$AAr?$AAi@
CONST	SEGMENT
??_C@_1EA@OADAPGGK@?$AA?$CC?$AAs?$AAt?$AAr?$AAi?$AAn?$AAg?$AA?5?$AAs?$AAu?$AAb?$AAs?$AAc?$AAr?$AAi@ DB '"'
	DB	00H, 's', 00H, 't', 00H, 'r', 00H, 'i', 00H, 'n', 00H, 'g', 00H
	DB	' ', 00H, 's', 00H, 'u', 00H, 'b', 00H, 's', 00H, 'c', 00H, 'r'
	DB	00H, 'i', 00H, 'p', 00H, 't', 00H, ' ', 00H, 'o', 00H, 'u', 00H
	DB	't', 00H, ' ', 00H, 'o', 00H, 'f', 00H, ' ', 00H, 'r', 00H, 'a'
	DB	00H, 'n', 00H, 'g', 00H, 'e', 00H, '"', 00H, 00H, 00H ; `string'
CONST	ENDS
;	COMDAT ??_C@_1NA@MNJEKPBN@?$AAC?$AA?3?$AA?2?$AAP?$AAr?$AAo?$AAg?$AAr?$AAa?$AAm?$AA?5?$AAF?$AAi?$AAl?$AAe@
CONST	SEGMENT
??_C@_1NA@MNJEKPBN@?$AAC?$AA?3?$AA?2?$AAP?$AAr?$AAo?$AAg?$AAr?$AAa?$AAm?$AA?5?$AAF?$AAi?$AAl?$AAe@ DB 'C'
	DB	00H, ':', 00H, '\', 00H, 'P', 00H, 'r', 00H, 'o', 00H, 'g', 00H
	DB	'r', 00H, 'a', 00H, 'm', 00H, ' ', 00H, 'F', 00H, 'i', 00H, 'l'
	DB	00H, 'e', 00H, 's', 00H, ' ', 00H, '(', 00H, 'x', 00H, '8', 00H
	DB	'6', 00H, ')', 00H, '\', 00H, 'M', 00H, 'i', 00H, 'c', 00H, 'r'
	DB	00H, 'o', 00H, 's', 00H, 'o', 00H, 'f', 00H, 't', 00H, ' ', 00H
	DB	'V', 00H, 'i', 00H, 's', 00H, 'u', 00H, 'a', 00H, 'l', 00H, ' '
	DB	00H, 'S', 00H, 't', 00H, 'u', 00H, 'd', 00H, 'i', 00H, 'o', 00H
	DB	'\', 00H, '2', 00H, '0', 00H, '1', 00H, '9', 00H, '\', 00H, 'C'
	DB	00H, 'o', 00H, 'm', 00H, 'm', 00H, 'u', 00H, 'n', 00H, 'i', 00H
	DB	't', 00H, 'y', 00H, '\', 00H, 'V', 00H, 'C', 00H, '\', 00H, 'T'
	DB	00H, 'o', 00H, 'o', 00H, 'l', 00H, 's', 00H, '\', 00H, 'M', 00H
	DB	'S', 00H, 'V', 00H, 'C', 00H, '\', 00H, '1', 00H, '4', 00H, '.'
	DB	00H, '2', 00H, '3', 00H, '.', 00H, '2', 00H, '8', 00H, '1', 00H
	DB	'0', 00H, '5', 00H, '\', 00H, 'i', 00H, 'n', 00H, 'c', 00H, 'l'
	DB	00H, 'u', 00H, 'd', 00H, 'e', 00H, '\', 00H, 'x', 00H, 's', 00H
	DB	't', 00H, 'r', 00H, 'i', 00H, 'n', 00H, 'g', 00H, 00H, 00H ; `string'
CONST	ENDS
;	COMDAT ??_C@_0GI@KAEHDKAJ@C?3?2Program?5Files?5?$CIx86?$CJ?2Microsof@
CONST	SEGMENT
??_C@_0GI@KAEHDKAJ@C?3?2Program?5Files?5?$CIx86?$CJ?2Microsof@ DB 'C:\Pro'
	DB	'gram Files (x86)\Microsoft Visual Studio\2019\Community\VC\To'
	DB	'ols\MSVC\14.23.28105\include\xstring', 00H	; `string'
CONST	ENDS
;	COMDAT ??_C@_0BO@LFGPDMIB@string?5subscript?5out?5of?5range@
CONST	SEGMENT
??_C@_0BO@LFGPDMIB@string?5subscript?5out?5of?5range@ DB 'string subscrip'
	DB	't out of range', 00H			; `string'
CONST	ENDS
;	COMDAT ??_C@_1EA@LEKOKFNB@?$AA?$CC?$AAv?$AAe?$AAc?$AAt?$AAo?$AAr?$AA?5?$AAs?$AAu?$AAb?$AAs?$AAc?$AAr?$AAi@
CONST	SEGMENT
??_C@_1EA@LEKOKFNB@?$AA?$CC?$AAv?$AAe?$AAc?$AAt?$AAo?$AAr?$AA?5?$AAs?$AAu?$AAb?$AAs?$AAc?$AAr?$AAi@ DB '"'
	DB	00H, 'v', 00H, 'e', 00H, 'c', 00H, 't', 00H, 'o', 00H, 'r', 00H
	DB	' ', 00H, 's', 00H, 'u', 00H, 'b', 00H, 's', 00H, 'c', 00H, 'r'
	DB	00H, 'i', 00H, 'p', 00H, 't', 00H, ' ', 00H, 'o', 00H, 'u', 00H
	DB	't', 00H, ' ', 00H, 'o', 00H, 'f', 00H, ' ', 00H, 'r', 00H, 'a'
	DB	00H, 'n', 00H, 'g', 00H, 'e', 00H, '"', 00H, 00H, 00H ; `string'
CONST	ENDS
;	COMDAT ??_C@_1JG@GIBNJFPK@?$AAs?$AAt?$AAd?$AA?3?$AA?3?$AAv?$AAe?$AAc?$AAt?$AAo?$AAr?$AA?$DM?$AAs?$AAt?$AAr@
CONST	SEGMENT
??_C@_1JG@GIBNJFPK@?$AAs?$AAt?$AAd?$AA?3?$AA?3?$AAv?$AAe?$AAc?$AAt?$AAo?$AAr?$AA?$DM?$AAs?$AAt?$AAr@ DB 's'
	DB	00H, 't', 00H, 'd', 00H, ':', 00H, ':', 00H, 'v', 00H, 'e', 00H
	DB	'c', 00H, 't', 00H, 'o', 00H, 'r', 00H, '<', 00H, 's', 00H, 't'
	DB	00H, 'r', 00H, 'u', 00H, 'c', 00H, 't', 00H, ' ', 00H, 's', 00H
	DB	'T', 00H, 'r', 00H, 'i', 00H, 'm', 00H, ',', 00H, 'c', 00H, 'l'
	DB	00H, 'a', 00H, 's', 00H, 's', 00H, ' ', 00H, 's', 00H, 't', 00H
	DB	'd', 00H, ':', 00H, ':', 00H, 'a', 00H, 'l', 00H, 'l', 00H, 'o'
	DB	00H, 'c', 00H, 'a', 00H, 't', 00H, 'o', 00H, 'r', 00H, '<', 00H
	DB	's', 00H, 't', 00H, 'r', 00H, 'u', 00H, 'c', 00H, 't', 00H, ' '
	DB	00H, 's', 00H, 'T', 00H, 'r', 00H, 'i', 00H, 'm', 00H, '>', 00H
	DB	' ', 00H, '>', 00H, ':', 00H, ':', 00H, 'o', 00H, 'p', 00H, 'e'
	DB	00H, 'r', 00H, 'a', 00H, 't', 00H, 'o', 00H, 'r', 00H, ' ', 00H
	DB	'[', 00H, ']', 00H, 00H, 00H			; `string'
CONST	ENDS
;	COMDAT ??_C@_0BO@PFKOHNJC@vector?5subscript?5out?5of?5range@
CONST	SEGMENT
??_C@_0BO@PFKOHNJC@vector?5subscript?5out?5of?5range@ DB 'vector subscrip'
	DB	't out of range', 00H			; `string'
CONST	ENDS
;	COMDAT ??_C@_1MO@NOOOHLI@?$AAC?$AA?3?$AA?2?$AAP?$AAr?$AAo?$AAg?$AAr?$AAa?$AAm?$AA?5?$AAF?$AAi?$AAl?$AAe@
CONST	SEGMENT
??_C@_1MO@NOOOHLI@?$AAC?$AA?3?$AA?2?$AAP?$AAr?$AAo?$AAg?$AAr?$AAa?$AAm?$AA?5?$AAF?$AAi?$AAl?$AAe@ DB 'C'
	DB	00H, ':', 00H, '\', 00H, 'P', 00H, 'r', 00H, 'o', 00H, 'g', 00H
	DB	'r', 00H, 'a', 00H, 'm', 00H, ' ', 00H, 'F', 00H, 'i', 00H, 'l'
	DB	00H, 'e', 00H, 's', 00H, ' ', 00H, '(', 00H, 'x', 00H, '8', 00H
	DB	'6', 00H, ')', 00H, '\', 00H, 'M', 00H, 'i', 00H, 'c', 00H, 'r'
	DB	00H, 'o', 00H, 's', 00H, 'o', 00H, 'f', 00H, 't', 00H, ' ', 00H
	DB	'V', 00H, 'i', 00H, 's', 00H, 'u', 00H, 'a', 00H, 'l', 00H, ' '
	DB	00H, 'S', 00H, 't', 00H, 'u', 00H, 'd', 00H, 'i', 00H, 'o', 00H
	DB	'\', 00H, '2', 00H, '0', 00H, '1', 00H, '9', 00H, '\', 00H, 'C'
	DB	00H, 'o', 00H, 'm', 00H, 'm', 00H, 'u', 00H, 'n', 00H, 'i', 00H
	DB	't', 00H, 'y', 00H, '\', 00H, 'V', 00H, 'C', 00H, '\', 00H, 'T'
	DB	00H, 'o', 00H, 'o', 00H, 'l', 00H, 's', 00H, '\', 00H, 'M', 00H
	DB	'S', 00H, 'V', 00H, 'C', 00H, '\', 00H, '1', 00H, '4', 00H, '.'
	DB	00H, '2', 00H, '3', 00H, '.', 00H, '2', 00H, '8', 00H, '1', 00H
	DB	'0', 00H, '5', 00H, '\', 00H, 'i', 00H, 'n', 00H, 'c', 00H, 'l'
	DB	00H, 'u', 00H, 'd', 00H, 'e', 00H, '\', 00H, 'v', 00H, 'e', 00H
	DB	'c', 00H, 't', 00H, 'o', 00H, 'r', 00H, 00H, 00H ; `string'
CONST	ENDS
;	COMDAT ??_C@_0GH@OOPCKGB@C?3?2Program?5Files?5?$CIx86?$CJ?2Microsof@
CONST	SEGMENT
??_C@_0GH@OOPCKGB@C?3?2Program?5Files?5?$CIx86?$CJ?2Microsof@ DB 'C:\Prog'
	DB	'ram Files (x86)\Microsoft Visual Studio\2019\Community\VC\Too'
	DB	'ls\MSVC\14.23.28105\include\vector', 00H	; `string'
CONST	ENDS
;	COMDAT ??_7RGYInputRaw@@6B@
CONST	SEGMENT
??_7RGYInputRaw@@6B@ DQ FLAT:??_R4RGYInputRaw@@6B@	; RGYInputRaw::`vftable'
	DQ	FLAT:??_ERGYInputRaw@@UEAAPEAXI@Z
	DQ	FLAT:?Init@RGYInputRaw@@MEAA?AW4RGY_ERR@@PEBDPEAUVideoInfo@@PEBVRGYInputPrm@@@Z
	DQ	FLAT:?LoadNextFrame@RGYInputRaw@@UEAA?AW4RGY_ERR@@PEAURGYFrame@@@Z
	DQ	FLAT:?GetNextBitstream@RGYInput@@UEAA?AW4RGY_ERR@@PEAURGYBitstream@@@Z
	DQ	FLAT:?GetNextBitstreamNoDelete@RGYInput@@UEAA?AW4RGY_ERR@@PEAURGYBitstream@@@Z
	DQ	FLAT:?GetHeader@RGYInput@@UEAA?AW4RGY_ERR@@PEAURGYBitstream@@@Z
	DQ	FLAT:?Close@RGYInputRaw@@UEAAXXZ
	DQ	FLAT:?GetAudioTrackCount@RGYInput@@UEAAHXZ
	DQ	FLAT:?GetSubtitleTrackCount@RGYInput@@UEAAHXZ
	DQ	FLAT:?GetDataTrackCount@RGYInput@@UEAAHXZ
	DQ	FLAT:?CreateInputInfo@RGYInput@@MEAAXPEBD000PEBUVideoInfo@@@Z
CONST	ENDS
;	COMDAT ??_C@_01EEMJAFIK@?6@
CONST	SEGMENT
??_C@_01EEMJAFIK@?6@ DB 0aH, 00H			; `string'
CONST	ENDS
_DATA	SEGMENT
?RGY_CSP_NAMES@@3PAPEBDA DQ FLAT:$SG110558		; RGY_CSP_NAMES
	DQ	FLAT:$SG110559
	DQ	FLAT:$SG110560
	DQ	FLAT:$SG110561
	DQ	FLAT:$SG110562
	DQ	FLAT:$SG110563
	DQ	FLAT:$SG110564
	DQ	FLAT:$SG110565
	DQ	FLAT:$SG110566
	DQ	FLAT:$SG110567
	DQ	FLAT:$SG110568
	DQ	FLAT:$SG110569
	DQ	FLAT:$SG110570
	DQ	FLAT:$SG110571
	DQ	FLAT:$SG110572
	DQ	FLAT:$SG110573
	DQ	FLAT:$SG110574
	DQ	FLAT:$SG110575
	DQ	FLAT:$SG110576
	DQ	FLAT:$SG110577
	DQ	FLAT:$SG110578
	DQ	FLAT:$SG110579
	DQ	FLAT:$SG110580
	DQ	FLAT:$SG110581
	DQ	FLAT:$SG110582
	DQ	FLAT:$SG110583
	DQ	FLAT:$SG110584
	DQ	FLAT:$SG110585
	DQ	FLAT:$SG110586
	DQ	FLAT:$SG110587
	DQ	FLAT:$SG110588
	DQ	FLAT:$SG110589
	DQ	FLAT:$SG110590
	DQ	FLAT:$SG110591
	DQ	FLAT:$SG110592
	DQ	FLAT:$SG110593
	DQ	FLAT:$SG110594
	DQ	FLAT:$SG110595
	DQ	FLAT:$SG110596
_DATA	ENDS
;	COMDAT ??_C@_02LMMGGCAJ@?3?5@
CONST	SEGMENT
??_C@_02LMMGGCAJ@?3?5@ DB ': ', 00H			; `string'
CONST	ENDS
;	COMDAT ??_C@_1CG@JNLFBNGN@?$AA?$CC?$AAi?$AAn?$AAv?$AAa?$AAl?$AAi?$AAd?$AA?5?$AAa?$AAr?$AAg?$AAu?$AAm?$AAe@
CONST	SEGMENT
??_C@_1CG@JNLFBNGN@?$AA?$CC?$AAi?$AAn?$AAv?$AAa?$AAl?$AAi?$AAd?$AA?5?$AAa?$AAr?$AAg?$AAu?$AAm?$AAe@ DB '"'
	DB	00H, 'i', 00H, 'n', 00H, 'v', 00H, 'a', 00H, 'l', 00H, 'i', 00H
	DB	'd', 00H, ' ', 00H, 'a', 00H, 'r', 00H, 'g', 00H, 'u', 00H, 'm'
	DB	00H, 'e', 00H, 'n', 00H, 't', 00H, '"', 00H, 00H, 00H ; `string'
CONST	ENDS
;	COMDAT ??_C@_1EK@NIFDJFDG@?$AAs?$AAt?$AAd?$AA?3?$AA?3?$AA_?$AAA?$AAd?$AAj?$AAu?$AAs?$AAt?$AA_?$AAm?$AAa@
CONST	SEGMENT
??_C@_1EK@NIFDJFDG@?$AAs?$AAt?$AAd?$AA?3?$AA?3?$AA_?$AAA?$AAd?$AAj?$AAu?$AAs?$AAt?$AA_?$AAm?$AAa@ DB 's'
	DB	00H, 't', 00H, 'd', 00H, ':', 00H, ':', 00H, '_', 00H, 'A', 00H
	DB	'd', 00H, 'j', 00H, 'u', 00H, 's', 00H, 't', 00H, '_', 00H, 'm'
	DB	00H, 'a', 00H, 'n', 00H, 'u', 00H, 'a', 00H, 'l', 00H, 'l', 00H
	DB	'y', 00H, '_', 00H, 'v', 00H, 'e', 00H, 'c', 00H, 't', 00H, 'o'
	DB	00H, 'r', 00H, '_', 00H, 'a', 00H, 'l', 00H, 'i', 00H, 'g', 00H
	DB	'n', 00H, 'e', 00H, 'd', 00H, 00H, 00H	; `string'
CONST	ENDS
;	COMDAT ??_C@_1NA@CDBIFGMM@?$AAC?$AA?3?$AA?2?$AAP?$AAr?$AAo?$AAg?$AAr?$AAa?$AAm?$AA?5?$AAF?$AAi?$AAl?$AAe@
CONST	SEGMENT
??_C@_1NA@CDBIFGMM@?$AAC?$AA?3?$AA?2?$AAP?$AAr?$AAo?$AAg?$AAr?$AAa?$AAm?$AA?5?$AAF?$AAi?$AAl?$AAe@ DB 'C'
	DB	00H, ':', 00H, '\', 00H, 'P', 00H, 'r', 00H, 'o', 00H, 'g', 00H
	DB	'r', 00H, 'a', 00H, 'm', 00H, ' ', 00H, 'F', 00H, 'i', 00H, 'l'
	DB	00H, 'e', 00H, 's', 00H, ' ', 00H, '(', 00H, 'x', 00H, '8', 00H
	DB	'6', 00H, ')', 00H, '\', 00H, 'M', 00H, 'i', 00H, 'c', 00H, 'r'
	DB	00H, 'o', 00H, 's', 00H, 'o', 00H, 'f', 00H, 't', 00H, ' ', 00H
	DB	'V', 00H, 'i', 00H, 's', 00H, 'u', 00H, 'a', 00H, 'l', 00H, ' '
	DB	00H, 'S', 00H, 't', 00H, 'u', 00H, 'd', 00H, 'i', 00H, 'o', 00H
	DB	'\', 00H, '2', 00H, '0', 00H, '1', 00H, '9', 00H, '\', 00H, 'C'
	DB	00H, 'o', 00H, 'm', 00H, 'm', 00H, 'u', 00H, 'n', 00H, 'i', 00H
	DB	't', 00H, 'y', 00H, '\', 00H, 'V', 00H, 'C', 00H, '\', 00H, 'T'
	DB	00H, 'o', 00H, 'o', 00H, 'l', 00H, 's', 00H, '\', 00H, 'M', 00H
	DB	'S', 00H, 'V', 00H, 'C', 00H, '\', 00H, '1', 00H, '4', 00H, '.'
	DB	00H, '2', 00H, '3', 00H, '.', 00H, '2', 00H, '8', 00H, '1', 00H
	DB	'0', 00H, '5', 00H, '\', 00H, 'i', 00H, 'n', 00H, 'c', 00H, 'l'
	DB	00H, 'u', 00H, 'd', 00H, 'e', 00H, '\', 00H, 'x', 00H, 'm', 00H
	DB	'e', 00H, 'm', 00H, 'o', 00H, 'r', 00H, 'y', 00H, 00H, 00H ; `string'
CONST	ENDS
;	COMDAT ??_C@_0GI@FJIKDGOA@C?3?2Program?5Files?5?$CIx86?$CJ?2Microsof@
CONST	SEGMENT
??_C@_0GI@FJIKDGOA@C?3?2Program?5Files?5?$CIx86?$CJ?2Microsof@ DB 'C:\Pro'
	DB	'gram Files (x86)\Microsoft Visual Studio\2019\Community\VC\To'
	DB	'ols\MSVC\14.23.28105\include\xmemory', 00H	; `string'
CONST	ENDS
;	COMDAT ??_C@_02DKCKIIND@?$CFs@
CONST	SEGMENT
??_C@_02DKCKIIND@?$CFs@ DB '%s', 00H			; `string'
CONST	ENDS
;	COMDAT ??_C@_0BB@FCMFBGOM@invalid?5argument@
CONST	SEGMENT
??_C@_0BB@FCMFBGOM@invalid?5argument@ DB 'invalid argument', 00H ; `string'
CONST	ENDS
;	COMDAT _CT??_R0?AVexception@std@@@8??0exception@std@@QEAA@AEBV01@@Z24
xdata$x	SEGMENT
_CT??_R0?AVexception@std@@@8??0exception@std@@QEAA@AEBV01@@Z24 DD 00H
	DD	imagerel ??_R0?AVexception@std@@@8
	DD	00H
	DD	0ffffffffH
	ORG $+4
	DD	018H
	DD	imagerel ??0exception@std@@QEAA@AEBV01@@Z
xdata$x	ENDS
;	COMDAT ??_R0?AVexception@std@@@8
data$r	SEGMENT
??_R0?AVexception@std@@@8 DQ FLAT:??_7type_info@@6B@	; std::exception `RTTI Type Descriptor'
	DQ	0000000000000000H
	DB	'.?AVexception@std@@', 00H
data$r	ENDS
;	COMDAT _CT??_R0?AVbad_alloc@std@@@8??0bad_alloc@std@@QEAA@AEBV01@@Z24
xdata$x	SEGMENT
_CT??_R0?AVbad_alloc@std@@@8??0bad_alloc@std@@QEAA@AEBV01@@Z24 DD 010H
	DD	imagerel ??_R0?AVbad_alloc@std@@@8
	DD	00H
	DD	0ffffffffH
	ORG $+4
	DD	018H
	DD	imagerel ??0bad_alloc@std@@QEAA@AEBV01@@Z
xdata$x	ENDS
;	COMDAT ??_R0?AVbad_alloc@std@@@8
data$r	SEGMENT
??_R0?AVbad_alloc@std@@@8 DQ FLAT:??_7type_info@@6B@	; std::bad_alloc `RTTI Type Descriptor'
	DQ	0000000000000000H
	DB	'.?AVbad_alloc@std@@', 00H
data$r	ENDS
;	COMDAT _CT??_R0?AVbad_array_new_length@std@@@8??0bad_array_new_length@std@@QEAA@AEBV01@@Z24
xdata$x	SEGMENT
_CT??_R0?AVbad_array_new_length@std@@@8??0bad_array_new_length@std@@QEAA@AEBV01@@Z24 DD 00H
	DD	imagerel ??_R0?AVbad_array_new_length@std@@@8
	DD	00H
	DD	0ffffffffH
	ORG $+4
	DD	018H
	DD	imagerel ??0bad_array_new_length@std@@QEAA@AEBV01@@Z
xdata$x	ENDS
;	COMDAT ??_R0?AVbad_array_new_length@std@@@8
data$r	SEGMENT
??_R0?AVbad_array_new_length@std@@@8 DQ FLAT:??_7type_info@@6B@ ; std::bad_array_new_length `RTTI Type Descriptor'
	DQ	0000000000000000H
	DB	'.?AVbad_array_new_length@std@@', 00H
data$r	ENDS
;	COMDAT _CTA3?AVbad_array_new_length@std@@
xdata$x	SEGMENT
_CTA3?AVbad_array_new_length@std@@ DD 03H
	DD	imagerel _CT??_R0?AVbad_array_new_length@std@@@8??0bad_array_new_length@std@@QEAA@AEBV01@@Z24
	DD	imagerel _CT??_R0?AVbad_alloc@std@@@8??0bad_alloc@std@@QEAA@AEBV01@@Z24
	DD	imagerel _CT??_R0?AVexception@std@@@8??0exception@std@@QEAA@AEBV01@@Z24
xdata$x	ENDS
;	COMDAT _TI3?AVbad_array_new_length@std@@
xdata$x	SEGMENT
_TI3?AVbad_array_new_length@std@@ DD 00H
	DD	imagerel ??1bad_array_new_length@std@@UEAA@XZ
	DD	00H
	DD	imagerel _CTA3?AVbad_array_new_length@std@@
xdata$x	ENDS
;	COMDAT ??_C@_0BF@KINCDENJ@bad?5array?5new?5length@
CONST	SEGMENT
??_C@_0BF@KINCDENJ@bad?5array?5new?5length@ DB 'bad array new length', 00H ; `string'
CONST	ENDS
;	COMDAT ??_7bad_array_new_length@std@@6B@
CONST	SEGMENT
??_7bad_array_new_length@std@@6B@ DQ FLAT:??_R4bad_array_new_length@std@@6B@ ; std::bad_array_new_length::`vftable'
	DQ	FLAT:??_Ebad_array_new_length@std@@UEAAPEAXI@Z
	DQ	FLAT:?what@exception@std@@UEBAPEBDXZ
CONST	ENDS
;	COMDAT ??_7bad_alloc@std@@6B@
CONST	SEGMENT
??_7bad_alloc@std@@6B@ DQ FLAT:??_R4bad_alloc@std@@6B@	; std::bad_alloc::`vftable'
	DQ	FLAT:??_Ebad_alloc@std@@UEAAPEAXI@Z
	DQ	FLAT:?what@exception@std@@UEBAPEBDXZ
CONST	ENDS
;	COMDAT ??_C@_0BC@EOODALEL@Unknown?5exception@
CONST	SEGMENT
??_C@_0BC@EOODALEL@Unknown?5exception@ DB 'Unknown exception', 00H ; `string'
CONST	ENDS
;	COMDAT ??_7exception@std@@6B@
CONST	SEGMENT
??_7exception@std@@6B@ DQ FLAT:??_R4exception@std@@6B@	; std::exception::`vftable'
	DQ	FLAT:??_Eexception@std@@UEAAPEAXI@Z
	DQ	FLAT:?what@exception@std@@UEBAPEBDXZ
CONST	ENDS
;	COMDAT xdata
xdata	SEGMENT
$unwind$??$forward@AEAPEAE@std@@YAAEAPEAEAEAPEAE@Z DD 010601H
	DD	07006H
xdata	ENDS
;	COMDAT xdata
xdata	SEGMENT
$unwind$??$forward@Ualigned_malloc_deleter@@@std@@YA$$QEAUaligned_malloc_deleter@@AEAU1@@Z DD 010601H
	DD	07006H
xdata	ENDS
;	COMDAT xdata
xdata	SEGMENT
$unwind$??$forward@AEAPEAVRGYConvertCSP@@@std@@YAAEAPEAVRGYConvertCSP@@AEAPEAV1@@Z DD 010601H
	DD	07006H
xdata	ENDS
;	COMDAT xdata
xdata	SEGMENT
$unwind$??$?0Ualigned_malloc_deleter@@AEAPEAE@?$_Compressed_pair@Ualigned_malloc_deleter@@PEAE$00@std@@QEAA@U_One_then_variadic_args_t@1@$$QEAUaligned_malloc_deleter@@AEAPEAE@Z DD 022c01H
	DD	070143218H
xdata	ENDS
;	COMDAT xdata
xdata	SEGMENT
$unwind$??$addressof@$$CBUaligned_malloc_deleter@@@std@@YAPEBUaligned_malloc_deleter@@AEBU1@@Z DD 010601H
	DD	07006H
xdata	ENDS
;	COMDAT xdata
xdata	SEGMENT
$unwind$?deallocate@?$_Default_allocator_traits@V?$allocator@U_Container_proxy@std@@@std@@@std@@SAXAEAV?$allocator@U_Container_proxy@std@@@2@QEAU_Container_proxy@2@_K@Z DD 022801H
	DD	070103214H
xdata	ENDS
;	COMDAT xdata
xdata	SEGMENT
$unwind$??$_Set_ptr_rep_and_enable_shared@E@?$shared_ptr@E@std@@AEAAXQEAEQEAV_Ref_count_base@1@@Z DD 011001H
	DD	07010H
xdata	ENDS
;	COMDAT xdata
xdata	SEGMENT
$unwind$??_G?$_Ref_count_resource@PEAEUaligned_malloc_deleter@@@std@@UEAAPEAXI@Z DD 022201H
	DD	0700a320eH
xdata	ENDS
;	COMDAT xdata
xdata	SEGMENT
$unwind$?dtor$0@?0???1?$_Ref_count_resource@PEAEUaligned_malloc_deleter@@@std@@UEAA@XZ@4HA DD 031001H
	DD	0700c4210H
	DD	0500bH
xdata	ENDS
;	COMDAT xdata
xdata	SEGMENT
$ip2state$??1?$_Ref_count_resource@PEAEUaligned_malloc_deleter@@@std@@UEAA@XZ DB 02H
	DB	00H
	DB	00H
xdata	ENDS
;	COMDAT xdata
xdata	SEGMENT
$stateUnwindMap$??1?$_Ref_count_resource@PEAEUaligned_malloc_deleter@@@std@@UEAA@XZ DB 02H
	DB	0eH
	DD	imagerel ?dtor$0@?0???1?$_Ref_count_resource@PEAEUaligned_malloc_deleter@@@std@@UEAA@XZ@4HA
xdata	ENDS
;	COMDAT xdata
xdata	SEGMENT
$cppxdata$??1?$_Ref_count_resource@PEAEUaligned_malloc_deleter@@@std@@UEAA@XZ DB 048H
	DD	imagerel $stateUnwindMap$??1?$_Ref_count_resource@PEAEUaligned_malloc_deleter@@@std@@UEAA@XZ
	DD	imagerel $ip2state$??1?$_Ref_count_resource@PEAEUaligned_malloc_deleter@@@std@@UEAA@XZ
xdata	ENDS
;	COMDAT xdata
xdata	SEGMENT
$unwind$??1?$_Ref_count_resource@PEAEUaligned_malloc_deleter@@@std@@UEAA@XZ DD 021e11H
	DD	07006320aH
	DD	imagerel __CxxFrameHandler4
	DD	imagerel $cppxdata$??1?$_Ref_count_resource@PEAEUaligned_malloc_deleter@@@std@@UEAA@XZ
xdata	ENDS
;	COMDAT xdata
xdata	SEGMENT
$unwind$?_Get_first@?$_Compressed_pair@Ualigned_malloc_deleter@@PEAE$00@std@@QEBAAEBUaligned_malloc_deleter@@XZ DD 010601H
	DD	07006H
xdata	ENDS
;	COMDAT xdata
xdata	SEGMENT
$unwind$?_Get_first@?$_Compressed_pair@Ualigned_malloc_deleter@@PEAE$00@std@@QEAAAEAUaligned_malloc_deleter@@XZ DD 010601H
	DD	07006H
xdata	ENDS
;	COMDAT xdata
xdata	SEGMENT
$unwind$?_Delete_this@?$_Ref_count_resource@PEAEUaligned_malloc_deleter@@@std@@EEAAXXZ DD 021e01H
	DD	07006520aH
xdata	ENDS
;	COMDAT xdata
xdata	SEGMENT
$ip2state$?_Destroy@?$_Ref_count_resource@PEAEUaligned_malloc_deleter@@@std@@EEAAXXZ DB 02H
	DB	00H
	DB	00H
xdata	ENDS
;	COMDAT xdata
xdata	SEGMENT
$cppxdata$?_Destroy@?$_Ref_count_resource@PEAEUaligned_malloc_deleter@@@std@@EEAAXXZ DB 040H
	DD	imagerel $ip2state$?_Destroy@?$_Ref_count_resource@PEAEUaligned_malloc_deleter@@@std@@EEAAXXZ
xdata	ENDS
;	COMDAT xdata
xdata	SEGMENT
$unwind$?_Destroy@?$_Ref_count_resource@PEAEUaligned_malloc_deleter@@@std@@EEAAXXZ DD 021e19H
	DD	07006320aH
	DD	imagerel __CxxFrameHandler4
	DD	imagerel $cppxdata$?_Destroy@?$_Ref_count_resource@PEAEUaligned_malloc_deleter@@@std@@EEAAXXZ
xdata	ENDS
;	COMDAT xdata
xdata	SEGMENT
$unwind$?_Get_deleter@?$_Ref_count_resource@PEAEUaligned_malloc_deleter@@@std@@UEBAPEAXAEBVtype_info@@@Z DD 022301H
	DD	0700b320fH
xdata	ENDS
;	COMDAT xdata
xdata	SEGMENT
$unwind$?dtor$0@?0???0?$_Ref_count_resource@PEAEUaligned_malloc_deleter@@@std@@QEAA@PEAEUaligned_malloc_deleter@@@Z@4HA DD 031001H
	DD	0700c4210H
	DD	0500bH
xdata	ENDS
;	COMDAT xdata
xdata	SEGMENT
$ip2state$??0?$_Ref_count_resource@PEAEUaligned_malloc_deleter@@@std@@QEAA@PEAEUaligned_malloc_deleter@@@Z DB 06H
	DB	00H
	DB	00H
	DB	082H
	DB	02H
	DB	'j'
	DB	00H
xdata	ENDS
;	COMDAT xdata
xdata	SEGMENT
$stateUnwindMap$??0?$_Ref_count_resource@PEAEUaligned_malloc_deleter@@@std@@QEAA@PEAEUaligned_malloc_deleter@@@Z DB 02H
	DB	0eH
	DD	imagerel ?dtor$0@?0???0?$_Ref_count_resource@PEAEUaligned_malloc_deleter@@@std@@QEAA@PEAEUaligned_malloc_deleter@@@Z@4HA
xdata	ENDS
;	COMDAT xdata
xdata	SEGMENT
$cppxdata$??0?$_Ref_count_resource@PEAEUaligned_malloc_deleter@@@std@@QEAA@PEAEUaligned_malloc_deleter@@@Z DB 08H
	DD	imagerel $stateUnwindMap$??0?$_Ref_count_resource@PEAEUaligned_malloc_deleter@@@std@@QEAA@PEAEUaligned_malloc_deleter@@@Z
	DD	imagerel $ip2state$??0?$_Ref_count_resource@PEAEUaligned_malloc_deleter@@@std@@QEAA@PEAEUaligned_malloc_deleter@@@Z
xdata	ENDS
;	COMDAT xdata
xdata	SEGMENT
$unwind$??0?$_Ref_count_resource@PEAEUaligned_malloc_deleter@@@std@@QEAA@PEAEUaligned_malloc_deleter@@@Z DD 022811H
	DD	070105214H
	DD	imagerel __CxxFrameHandler4
	DD	imagerel $cppxdata$??0?$_Ref_count_resource@PEAEUaligned_malloc_deleter@@@std@@QEAA@PEAEUaligned_malloc_deleter@@@Z
xdata	ENDS
;	COMDAT xdata
xdata	SEGMENT
$ip2state$??1?$_Temporary_owner_del@PEAEUaligned_malloc_deleter@@@std@@QEAA@XZ DB 02H
	DB	00H
	DB	00H
xdata	ENDS
;	COMDAT xdata
xdata	SEGMENT
$cppxdata$??1?$_Temporary_owner_del@PEAEUaligned_malloc_deleter@@@std@@QEAA@XZ DB 040H
	DD	imagerel $ip2state$??1?$_Temporary_owner_del@PEAEUaligned_malloc_deleter@@@std@@QEAA@XZ
xdata	ENDS
;	COMDAT xdata
xdata	SEGMENT
$unwind$??1?$_Temporary_owner_del@PEAEUaligned_malloc_deleter@@@std@@QEAA@XZ DD 021e19H
	DD	07006320aH
	DD	imagerel __CxxFrameHandler4
	DD	imagerel $cppxdata$??1?$_Temporary_owner_del@PEAEUaligned_malloc_deleter@@@std@@QEAA@XZ
xdata	ENDS
;	COMDAT xdata
xdata	SEGMENT
$unwind$??0?$_Temporary_owner_del@PEAEUaligned_malloc_deleter@@@std@@QEAA@QEAEAEAUaligned_malloc_deleter@@@Z DD 011001H
	DD	07010H
xdata	ENDS
;	COMDAT xdata
xdata	SEGMENT
$unwind$??$?0AEAPEAVRGYConvertCSP@@@?$_Compressed_pair@U?$default_delete@VRGYConvertCSP@@@std@@PEAVRGYConvertCSP@@$00@std@@QEAA@U_Zero_then_variadic_args_t@1@AEAPEAVRGYConvertCSP@@@Z DD 022701H
	DD	0700f3213H
xdata	ENDS
;	COMDAT xdata
xdata	SEGMENT
$unwind$??$_Reallocate_grow_by@V<lambda_9013ee9e23efe4882b67eff5b0ecf103>@@$$V@?$basic_string@DU?$char_traits@D@std@@V?$allocator@D@2@@std@@AEAAAEAV01@_KV<lambda_9013ee9e23efe4882b67eff5b0ecf103>@@@Z DD 022e01H
	DD	07010f217H
xdata	ENDS
;	COMDAT CONST
CONST	SEGMENT
??$_Reallocate_grow_by@V<lambda_9013ee9e23efe4882b67eff5b0ecf103>@@$$V@?$basic_string@DU?$char_traits@D@std@@V?$allocator@D@2@@std@@AEAAAEAV01@_KV<lambda_9013ee9e23efe4882b67eff5b0ecf103>@@@Z$rtcName$0 DB 05fH ; std::basic_string<char,std::char_traits<char>,std::allocator<char> >::_Reallocate_grow_by<<lambda_9013ee9e23efe4882b67eff5b0ecf103> >
	DB	04eH
	DB	065H
	DB	077H
	DB	05fH
	DB	070H
	DB	074H
	DB	072H
	DB	00H
	ORG $+7
??$_Reallocate_grow_by@V<lambda_9013ee9e23efe4882b67eff5b0ecf103>@@$$V@?$basic_string@DU?$char_traits@D@std@@V?$allocator@D@2@@std@@AEAAAEAV01@_KV<lambda_9013ee9e23efe4882b67eff5b0ecf103>@@@Z$rtcVarDesc DD 058H ; std::basic_string<char,std::char_traits<char>,std::allocator<char> >::_Reallocate_grow_by<<lambda_9013ee9e23efe4882b67eff5b0ecf103> >
	DD	08H
	DQ	FLAT:??$_Reallocate_grow_by@V<lambda_9013ee9e23efe4882b67eff5b0ecf103>@@$$V@?$basic_string@DU?$char_traits@D@std@@V?$allocator@D@2@@std@@AEAAAEAV01@_KV<lambda_9013ee9e23efe4882b67eff5b0ecf103>@@@Z$rtcName$0
	ORG $+48
??$_Reallocate_grow_by@V<lambda_9013ee9e23efe4882b67eff5b0ecf103>@@$$V@?$basic_string@DU?$char_traits@D@std@@V?$allocator@D@2@@std@@AEAAAEAV01@_KV<lambda_9013ee9e23efe4882b67eff5b0ecf103>@@@Z$rtcFrameData DD 01H ; std::basic_string<char,std::char_traits<char>,std::allocator<char> >::_Reallocate_grow_by<<lambda_9013ee9e23efe4882b67eff5b0ecf103> >
	DD	00H
	DQ	FLAT:??$_Reallocate_grow_by@V<lambda_9013ee9e23efe4882b67eff5b0ecf103>@@$$V@?$basic_string@DU?$char_traits@D@std@@V?$allocator@D@2@@std@@AEAAAEAV01@_KV<lambda_9013ee9e23efe4882b67eff5b0ecf103>@@@Z$rtcVarDesc
CONST	ENDS
;	COMDAT xdata
xdata	SEGMENT
$unwind$??R<lambda_9013ee9e23efe4882b67eff5b0ecf103>@@QEBAXQEADQEBD_K@Z DD 022d01H
	DD	070153219H
xdata	ENDS
;	COMDAT xdata
xdata	SEGMENT
$unwind$??$destroy@V?$basic_string@DU?$char_traits@D@std@@V?$allocator@D@2@@std@@@?$_Default_allocator_traits@V?$allocator@V?$basic_string@DU?$char_traits@D@std@@V?$allocator@D@2@@std@@@std@@@std@@SAXAEAV?$allocator@V?$basic_string@DU?$char_traits@D@std@@V?$allocator@D@2@@std@@@1@QEAV?$basic_string@DU?$char_traits@D@std@@V?$allocator@D@2@@1@@Z DD 022301H
	DD	0700b320fH
xdata	ENDS
;	COMDAT xdata
xdata	SEGMENT
$unwind$??$_Unfancy@V?$basic_string@DU?$char_traits@D@std@@V?$allocator@D@2@@std@@@std@@YAPEAV?$basic_string@DU?$char_traits@D@std@@V?$allocator@D@2@@0@PEAV10@@Z DD 010601H
	DD	07006H
xdata	ENDS
;	COMDAT xdata
xdata	SEGMENT
$unwind$??$move@AEAPEAV_Ref_count_base@std@@@std@@YA$$QEAPEAV_Ref_count_base@0@AEAPEAV10@@Z DD 010601H
	DD	07006H
xdata	ENDS
;	COMDAT xdata
xdata	SEGMENT
$unwind$??$move@AEAPEAE@std@@YA$$QEAPEAEAEAPEAE@Z DD 010601H
	DD	07006H
xdata	ENDS
;	COMDAT xdata
xdata	SEGMENT
$unwind$??$_Allocate_manually_vector_aligned@U_Default_allocate_traits@std@@@std@@YAPEAX_K@Z DD 021e01H
	DD	07006920aH
xdata	ENDS
;	COMDAT xdata
xdata	SEGMENT
$unwind$??$forward@AEBQEAD@std@@YAAEBQEADAEBQEAD@Z DD 010601H
	DD	07006H
xdata	ENDS
;	COMDAT xdata
xdata	SEGMENT
$unwind$??$addressof@PEAD@std@@YAPEAPEADAEAPEAD@Z DD 010601H
	DD	07006H
xdata	ENDS
;	COMDAT xdata
xdata	SEGMENT
$unwind$??$forward@PEAU_Container_base12@std@@@std@@YA$$QEAPEAU_Container_base12@0@AEAPEAU10@@Z DD 010601H
	DD	07006H
xdata	ENDS
;	COMDAT xdata
xdata	SEGMENT
$unwind$??$addressof@U_Container_proxy@std@@@std@@YAPEAU_Container_proxy@0@AEAU10@@Z DD 010601H
	DD	07006H
xdata	ENDS
;	COMDAT xdata
xdata	SEGMENT
$unwind$??$forward@V?$allocator@D@std@@@std@@YA$$QEAV?$allocator@D@0@AEAV10@@Z DD 010601H
	DD	07006H
xdata	ENDS
;	COMDAT xdata
xdata	SEGMENT
$ip2state$??$_Deallocate_plain@V?$allocator@U_Container_proxy@std@@@std@@@std@@YAXAEAV?$allocator@U_Container_proxy@std@@@0@QEAU_Container_proxy@0@@Z DB 02H
	DB	00H
	DB	00H
xdata	ENDS
;	COMDAT xdata
xdata	SEGMENT
$cppxdata$??$_Deallocate_plain@V?$allocator@U_Container_proxy@std@@@std@@@std@@YAXAEAV?$allocator@U_Container_proxy@std@@@0@QEAU_Container_proxy@0@@Z DB 040H
	DD	imagerel $ip2state$??$_Deallocate_plain@V?$allocator@U_Container_proxy@std@@@std@@@std@@YAXAEAV?$allocator@U_Container_proxy@std@@@0@QEAU_Container_proxy@0@@Z
xdata	ENDS
;	COMDAT xdata
xdata	SEGMENT
$unwind$??$_Deallocate_plain@V?$allocator@U_Container_proxy@std@@@std@@@std@@YAXAEAV?$allocator@U_Container_proxy@std@@@0@QEAU_Container_proxy@0@@Z DD 022319H
	DD	0700b320fH
	DD	imagerel __CxxFrameHandler4
	DD	imagerel $cppxdata$??$_Deallocate_plain@V?$allocator@U_Container_proxy@std@@@std@@@std@@YAXAEAV?$allocator@U_Container_proxy@std@@@0@QEAU_Container_proxy@0@@Z
xdata	ENDS
;	COMDAT xdata
xdata	SEGMENT
$unwind$?dtor$1@?0???$_Setpd@PEAEUaligned_malloc_deleter@@@?$shared_ptr@E@std@@AEAAXQEAEUaligned_malloc_deleter@@@Z@4HA DD 031001H
	DD	0700c4210H
	DD	0500bH
xdata	ENDS
;	COMDAT xdata
xdata	SEGMENT
$unwind$?dtor$0@?0???$_Setpd@PEAEUaligned_malloc_deleter@@@?$shared_ptr@E@std@@AEAAXQEAEUaligned_malloc_deleter@@@Z@4HA DD 031001H
	DD	0700c4210H
	DD	0500bH
xdata	ENDS
;	COMDAT xdata
xdata	SEGMENT
$ip2state$??$_Setpd@PEAEUaligned_malloc_deleter@@@?$shared_ptr@E@std@@AEAAXQEAEUaligned_malloc_deleter@@@Z DB 0aH
	DB	00H
	DB	00H
	DB	080H
	DB	02H
	DB	01eH
	DB	04H
	DB	084H
	DB	02H
	DB	'2'
	DB	00H
xdata	ENDS
;	COMDAT xdata
xdata	SEGMENT
$stateUnwindMap$??$_Setpd@PEAEUaligned_malloc_deleter@@@?$shared_ptr@E@std@@AEAAXQEAEUaligned_malloc_deleter@@@Z DB 04H
	DB	0eH
	DD	imagerel ?dtor$0@?0???$_Setpd@PEAEUaligned_malloc_deleter@@@?$shared_ptr@E@std@@AEAAXQEAEUaligned_malloc_deleter@@@Z@4HA
	DB	02eH
	DD	imagerel ?dtor$1@?0???$_Setpd@PEAEUaligned_malloc_deleter@@@?$shared_ptr@E@std@@AEAAXQEAEUaligned_malloc_deleter@@@Z@4HA
xdata	ENDS
;	COMDAT xdata
xdata	SEGMENT
$cppxdata$??$_Setpd@PEAEUaligned_malloc_deleter@@@?$shared_ptr@E@std@@AEAAXQEAEUaligned_malloc_deleter@@@Z DB 08H
	DD	imagerel $stateUnwindMap$??$_Setpd@PEAEUaligned_malloc_deleter@@@?$shared_ptr@E@std@@AEAAXQEAEUaligned_malloc_deleter@@@Z
	DD	imagerel $ip2state$??$_Setpd@PEAEUaligned_malloc_deleter@@@?$shared_ptr@E@std@@AEAAXQEAEUaligned_malloc_deleter@@@Z
xdata	ENDS
;	COMDAT xdata
xdata	SEGMENT
$unwind$??$_Setpd@PEAEUaligned_malloc_deleter@@@?$shared_ptr@E@std@@AEAAXQEAEUaligned_malloc_deleter@@@Z DD 022811H
	DD	07010b214H
	DD	imagerel __CxxFrameHandler4
	DD	imagerel $cppxdata$??$_Setpd@PEAEUaligned_malloc_deleter@@@?$shared_ptr@E@std@@AEAAXQEAEUaligned_malloc_deleter@@@Z
xdata	ENDS
;	COMDAT CONST
CONST	SEGMENT
??$_Setpd@PEAEUaligned_malloc_deleter@@@?$shared_ptr@E@std@@AEAAXQEAEUaligned_malloc_deleter@@@Z$rtcName$0 DB 05fH ; std::shared_ptr<unsigned char>::_Setpd<unsigned char *,aligned_malloc_deleter>
	DB	04fH
	DB	077H
	DB	06eH
	DB	065H
	DB	072H
	DB	00H
	ORG $+9
??$_Setpd@PEAEUaligned_malloc_deleter@@@?$shared_ptr@E@std@@AEAAXQEAEUaligned_malloc_deleter@@@Z$rtcVarDesc DD 028H ; std::shared_ptr<unsigned char>::_Setpd<unsigned char *,aligned_malloc_deleter>
	DD	018H
	DQ	FLAT:??$_Setpd@PEAEUaligned_malloc_deleter@@@?$shared_ptr@E@std@@AEAAXQEAEUaligned_malloc_deleter@@@Z$rtcName$0
	ORG $+48
??$_Setpd@PEAEUaligned_malloc_deleter@@@?$shared_ptr@E@std@@AEAAXQEAEUaligned_malloc_deleter@@@Z$rtcFrameData DD 01H ; std::shared_ptr<unsigned char>::_Setpd<unsigned char *,aligned_malloc_deleter>
	DD	00H
	DQ	FLAT:??$_Setpd@PEAEUaligned_malloc_deleter@@@?$shared_ptr@E@std@@AEAAXQEAEUaligned_malloc_deleter@@@Z$rtcVarDesc
CONST	ENDS
;	COMDAT xdata
xdata	SEGMENT
$unwind$??$move@AEAUaligned_malloc_deleter@@@std@@YA$$QEAUaligned_malloc_deleter@@AEAU1@@Z DD 010601H
	DD	07006H
xdata	ENDS
;	COMDAT xdata
xdata	SEGMENT
$ip2state$??$?0U?$default_delete@VRGYConvertCSP@@@std@@$0A@@?$unique_ptr@VRGYConvertCSP@@U?$default_delete@VRGYConvertCSP@@@std@@@std@@QEAA@PEAVRGYConvertCSP@@@Z DB 02H
	DB	00H
	DB	00H
xdata	ENDS
;	COMDAT xdata
xdata	SEGMENT
$cppxdata$??$?0U?$default_delete@VRGYConvertCSP@@@std@@$0A@@?$unique_ptr@VRGYConvertCSP@@U?$default_delete@VRGYConvertCSP@@@std@@@std@@QEAA@PEAVRGYConvertCSP@@@Z DB 040H
	DD	imagerel $ip2state$??$?0U?$default_delete@VRGYConvertCSP@@@std@@$0A@@?$unique_ptr@VRGYConvertCSP@@U?$default_delete@VRGYConvertCSP@@@std@@@std@@QEAA@PEAVRGYConvertCSP@@@Z
xdata	ENDS
;	COMDAT xdata
xdata	SEGMENT
$unwind$??$?0U?$default_delete@VRGYConvertCSP@@@std@@$0A@@?$unique_ptr@VRGYConvertCSP@@U?$default_delete@VRGYConvertCSP@@@std@@@std@@QEAA@PEAVRGYConvertCSP@@@Z DD 022319H
	DD	0700b520fH
	DD	imagerel __CxxFrameHandler4
	DD	imagerel $cppxdata$??$?0U?$default_delete@VRGYConvertCSP@@@std@@$0A@@?$unique_ptr@VRGYConvertCSP@@U?$default_delete@VRGYConvertCSP@@@std@@@std@@QEAA@PEAVRGYConvertCSP@@@Z
xdata	ENDS
;	COMDAT xdata
xdata	SEGMENT
$unwind$??$forward@AEBH@std@@YAAEBHAEBH@Z DD 010601H
	DD	07006H
xdata	ENDS
;	COMDAT xdata
xdata	SEGMENT
$ip2state$??$_Destroy_range@V?$allocator@V?$basic_string@DU?$char_traits@D@std@@V?$allocator@D@2@@std@@@std@@@std@@YAXPEAV?$basic_string@DU?$char_traits@D@std@@V?$allocator@D@2@@0@QEAV10@AEAV?$allocator@V?$basic_string@DU?$char_traits@D@std@@V?$allocator@D@2@@std@@@0@@Z DB 02H
	DB	00H
	DB	00H
xdata	ENDS
;	COMDAT xdata
xdata	SEGMENT
$cppxdata$??$_Destroy_range@V?$allocator@V?$basic_string@DU?$char_traits@D@std@@V?$allocator@D@2@@std@@@std@@@std@@YAXPEAV?$basic_string@DU?$char_traits@D@std@@V?$allocator@D@2@@0@QEAV10@AEAV?$allocator@V?$basic_string@DU?$char_traits@D@std@@V?$allocator@D@2@@std@@@0@@Z DB 040H
	DD	imagerel $ip2state$??$_Destroy_range@V?$allocator@V?$basic_string@DU?$char_traits@D@std@@V?$allocator@D@2@@std@@@std@@@std@@YAXPEAV?$basic_string@DU?$char_traits@D@std@@V?$allocator@D@2@@0@QEAV10@AEAV?$allocator@V?$basic_string@DU?$char_traits@D@std@@V?$allocator@D@2@@std@@@0@@Z
xdata	ENDS
;	COMDAT xdata
xdata	SEGMENT
$unwind$??$_Destroy_range@V?$allocator@V?$basic_string@DU?$char_traits@D@std@@V?$allocator@D@2@@std@@@std@@@std@@YAXPEAV?$basic_string@DU?$char_traits@D@std@@V?$allocator@D@2@@0@QEAV10@AEAV?$allocator@V?$basic_string@DU?$char_traits@D@std@@V?$allocator@D@2@@std@@@0@@Z DD 022819H
	DD	070103214H
	DD	imagerel __CxxFrameHandler4
	DD	imagerel $cppxdata$??$_Destroy_range@V?$allocator@V?$basic_string@DU?$char_traits@D@std@@V?$allocator@D@2@@std@@@std@@@std@@YAXPEAV?$basic_string@DU?$char_traits@D@std@@V?$allocator@D@2@@0@QEAV10@AEAV?$allocator@V?$basic_string@DU?$char_traits@D@std@@V?$allocator@D@2@@std@@@0@@Z
xdata	ENDS
;	COMDAT xdata
xdata	SEGMENT
$unwind$??$swap@PEAV_Ref_count_base@std@@X@std@@YAXAEAPEAV_Ref_count_base@0@0@Z DD 022301H
	DD	0700b720fH
xdata	ENDS
;	COMDAT CONST
CONST	SEGMENT
??$swap@PEAV_Ref_count_base@std@@X@std@@YAXAEAPEAV_Ref_count_base@0@0@Z$rtcName$0 DB 05fH ; std::swap<std::_Ref_count_base *,void>
	DB	054H
	DB	06dH
	DB	070H
	DB	00H
	ORG $+11
??$swap@PEAV_Ref_count_base@std@@X@std@@YAXAEAPEAV_Ref_count_base@0@0@Z$rtcVarDesc DD 028H ; std::swap<std::_Ref_count_base *,void>
	DD	08H
	DQ	FLAT:??$swap@PEAV_Ref_count_base@std@@X@std@@YAXAEAPEAV_Ref_count_base@0@0@Z$rtcName$0
	ORG $+48
??$swap@PEAV_Ref_count_base@std@@X@std@@YAXAEAPEAV_Ref_count_base@0@0@Z$rtcFrameData DD 01H ; std::swap<std::_Ref_count_base *,void>
	DD	00H
	DQ	FLAT:??$swap@PEAV_Ref_count_base@std@@X@std@@YAXAEAPEAV_Ref_count_base@0@0@Z$rtcVarDesc
CONST	ENDS
;	COMDAT xdata
xdata	SEGMENT
$unwind$??$swap@PEAEX@std@@YAXAEAPEAE0@Z DD 022301H
	DD	0700b720fH
xdata	ENDS
;	COMDAT CONST
CONST	SEGMENT
??$swap@PEAEX@std@@YAXAEAPEAE0@Z$rtcName$0 DB 05fH	; std::swap<unsigned char *,void>
	DB	054H
	DB	06dH
	DB	070H
	DB	00H
	ORG $+11
??$swap@PEAEX@std@@YAXAEAPEAE0@Z$rtcVarDesc DD 028H	; std::swap<unsigned char *,void>
	DD	08H
	DQ	FLAT:??$swap@PEAEX@std@@YAXAEAPEAE0@Z$rtcName$0
	ORG $+48
??$swap@PEAEX@std@@YAXAEAPEAE0@Z$rtcFrameData DD 01H	; std::swap<unsigned char *,void>
	DD	00H
	DQ	FLAT:??$swap@PEAEX@std@@YAXAEAPEAE0@Z$rtcVarDesc
CONST	ENDS
;	COMDAT xdata
xdata	SEGMENT
$unwind$??$_Get_size_of_n@$0BA@@std@@YA_K_K@Z DD 021e01H
	DD	07006520aH
xdata	ENDS
;	COMDAT xdata
xdata	SEGMENT
$ip2state$??$_Deallocate@$0BA@$0A@@std@@YAXPEAX_K@Z DB 02H
	DB	00H
	DB	00H
xdata	ENDS
;	COMDAT xdata
xdata	SEGMENT
$cppxdata$??$_Deallocate@$0BA@$0A@@std@@YAXPEAX_K@Z DB 040H
	DD	imagerel $ip2state$??$_Deallocate@$0BA@$0A@@std@@YAXPEAX_K@Z
xdata	ENDS
;	COMDAT xdata
xdata	SEGMENT
$unwind$??$_Deallocate@$0BA@$0A@@std@@YAXPEAX_K@Z DD 022319H
	DD	0700b320fH
	DD	imagerel __CxxFrameHandler4
	DD	imagerel $cppxdata$??$_Deallocate@$0BA@$0A@@std@@YAXPEAX_K@Z
xdata	ENDS
;	COMDAT xdata
xdata	SEGMENT
$unwind$??$_Allocate@$0BA@U_Default_allocate_traits@std@@$0A@@std@@YAPEAX_K@Z DD 021e01H
	DD	07006320aH
xdata	ENDS
;	COMDAT xdata
xdata	SEGMENT
$unwind$??$_Get_size_of_n@$00@std@@YA_K_K@Z DD 021e01H
	DD	07006120aH
xdata	ENDS
;	COMDAT xdata
xdata	SEGMENT
$unwind$??$_Construct_in_place@PEADAEBQEAD@std@@YAXAEAPEADAEBQEAD@Z DD 022301H
	DD	0700b520fH
xdata	ENDS
;	COMDAT xdata
xdata	SEGMENT
$unwind$??$_Reallocate_grow_by@V<lambda_65e615be2a453ca0576c979606f46740>@@PEBD_K@?$basic_string@DU?$char_traits@D@std@@V?$allocator@D@2@@std@@AEAAAEAV01@_KV<lambda_65e615be2a453ca0576c979606f46740>@@PEBD_K@Z DD 033301H
	DD	012011cH
	DD	07015H
xdata	ENDS
;	COMDAT CONST
CONST	SEGMENT
??$_Reallocate_grow_by@V<lambda_65e615be2a453ca0576c979606f46740>@@PEBD_K@?$basic_string@DU?$char_traits@D@std@@V?$allocator@D@2@@std@@AEAAAEAV01@_KV<lambda_65e615be2a453ca0576c979606f46740>@@PEBD_K@Z$rtcName$0 DB 05fH ; std::basic_string<char,std::char_traits<char>,std::allocator<char> >::_Reallocate_grow_by<<lambda_65e615be2a453ca0576c979606f46740>,char const *,unsigned __int64>
	DB	04eH
	DB	065H
	DB	077H
	DB	05fH
	DB	070H
	DB	074H
	DB	072H
	DB	00H
	ORG $+7
??$_Reallocate_grow_by@V<lambda_65e615be2a453ca0576c979606f46740>@@PEBD_K@?$basic_string@DU?$char_traits@D@std@@V?$allocator@D@2@@std@@AEAAAEAV01@_KV<lambda_65e615be2a453ca0576c979606f46740>@@PEBD_K@Z$rtcVarDesc DD 068H ; std::basic_string<char,std::char_traits<char>,std::allocator<char> >::_Reallocate_grow_by<<lambda_65e615be2a453ca0576c979606f46740>,char const *,unsigned __int64>
	DD	08H
	DQ	FLAT:??$_Reallocate_grow_by@V<lambda_65e615be2a453ca0576c979606f46740>@@PEBD_K@?$basic_string@DU?$char_traits@D@std@@V?$allocator@D@2@@std@@AEAAAEAV01@_KV<lambda_65e615be2a453ca0576c979606f46740>@@PEBD_K@Z$rtcName$0
	ORG $+48
??$_Reallocate_grow_by@V<lambda_65e615be2a453ca0576c979606f46740>@@PEBD_K@?$basic_string@DU?$char_traits@D@std@@V?$allocator@D@2@@std@@AEAAAEAV01@_KV<lambda_65e615be2a453ca0576c979606f46740>@@PEBD_K@Z$rtcFrameData DD 01H ; std::basic_string<char,std::char_traits<char>,std::allocator<char> >::_Reallocate_grow_by<<lambda_65e615be2a453ca0576c979606f46740>,char const *,unsigned __int64>
	DD	00H
	DQ	FLAT:??$_Reallocate_grow_by@V<lambda_65e615be2a453ca0576c979606f46740>@@PEBD_K@?$basic_string@DU?$char_traits@D@std@@V?$allocator@D@2@@std@@AEAAAEAV01@_KV<lambda_65e615be2a453ca0576c979606f46740>@@PEBD_K@Z$rtcVarDesc
CONST	ENDS
;	COMDAT xdata
xdata	SEGMENT
$unwind$??R<lambda_65e615be2a453ca0576c979606f46740>@@QEBAXQEADQEBD_K12@Z DD 022d01H
	DD	070155219H
xdata	ENDS
;	COMDAT xdata
xdata	SEGMENT
$unwind$??$_Reallocate_grow_by@V<lambda_e1befb086ad3257e3f042a63030725f7>@@_KD@?$basic_string@DU?$char_traits@D@std@@V?$allocator@D@2@@std@@AEAAAEAV01@_KV<lambda_e1befb086ad3257e3f042a63030725f7>@@_KD@Z DD 033301H
	DD	012011cH
	DD	07015H
xdata	ENDS
;	COMDAT CONST
CONST	SEGMENT
??$_Reallocate_grow_by@V<lambda_e1befb086ad3257e3f042a63030725f7>@@_KD@?$basic_string@DU?$char_traits@D@std@@V?$allocator@D@2@@std@@AEAAAEAV01@_KV<lambda_e1befb086ad3257e3f042a63030725f7>@@_KD@Z$rtcName$0 DB 05fH ; std::basic_string<char,std::char_traits<char>,std::allocator<char> >::_Reallocate_grow_by<<lambda_e1befb086ad3257e3f042a63030725f7>,unsigned __int64,char>
	DB	04eH
	DB	065H
	DB	077H
	DB	05fH
	DB	070H
	DB	074H
	DB	072H
	DB	00H
	ORG $+7
??$_Reallocate_grow_by@V<lambda_e1befb086ad3257e3f042a63030725f7>@@_KD@?$basic_string@DU?$char_traits@D@std@@V?$allocator@D@2@@std@@AEAAAEAV01@_KV<lambda_e1befb086ad3257e3f042a63030725f7>@@_KD@Z$rtcVarDesc DD 068H ; std::basic_string<char,std::char_traits<char>,std::allocator<char> >::_Reallocate_grow_by<<lambda_e1befb086ad3257e3f042a63030725f7>,unsigned __int64,char>
	DD	08H
	DQ	FLAT:??$_Reallocate_grow_by@V<lambda_e1befb086ad3257e3f042a63030725f7>@@_KD@?$basic_string@DU?$char_traits@D@std@@V?$allocator@D@2@@std@@AEAAAEAV01@_KV<lambda_e1befb086ad3257e3f042a63030725f7>@@_KD@Z$rtcName$0
	ORG $+48
??$_Reallocate_grow_by@V<lambda_e1befb086ad3257e3f042a63030725f7>@@_KD@?$basic_string@DU?$char_traits@D@std@@V?$allocator@D@2@@std@@AEAAAEAV01@_KV<lambda_e1befb086ad3257e3f042a63030725f7>@@_KD@Z$rtcFrameData DD 01H ; std::basic_string<char,std::char_traits<char>,std::allocator<char> >::_Reallocate_grow_by<<lambda_e1befb086ad3257e3f042a63030725f7>,unsigned __int64,char>
	DD	00H
	DQ	FLAT:??$_Reallocate_grow_by@V<lambda_e1befb086ad3257e3f042a63030725f7>@@_KD@?$basic_string@DU?$char_traits@D@std@@V?$allocator@D@2@@std@@AEAAAEAV01@_KV<lambda_e1befb086ad3257e3f042a63030725f7>@@_KD@Z$rtcVarDesc
CONST	ENDS
;	COMDAT xdata
xdata	SEGMENT
$unwind$??R<lambda_e1befb086ad3257e3f042a63030725f7>@@QEBAXQEADQEBD_K2D@Z DD 022d01H
	DD	070155219H
xdata	ENDS
;	COMDAT xdata
xdata	SEGMENT
$unwind$??$_Reallocate_for@V<lambda_66f57f934f28d61049862f64df852ff0>@@PEBD@?$basic_string@DU?$char_traits@D@std@@V?$allocator@D@2@@std@@AEAAAEAV01@_KV<lambda_66f57f934f28d61049862f64df852ff0>@@PEBD@Z DD 022d01H
	DD	07015b219H
xdata	ENDS
;	COMDAT CONST
CONST	SEGMENT
??$_Reallocate_for@V<lambda_66f57f934f28d61049862f64df852ff0>@@PEBD@?$basic_string@DU?$char_traits@D@std@@V?$allocator@D@2@@std@@AEAAAEAV01@_KV<lambda_66f57f934f28d61049862f64df852ff0>@@PEBD@Z$rtcName$0 DB 05fH ; std::basic_string<char,std::char_traits<char>,std::allocator<char> >::_Reallocate_for<<lambda_66f57f934f28d61049862f64df852ff0>,char const *>
	DB	04eH
	DB	065H
	DB	077H
	DB	05fH
	DB	070H
	DB	074H
	DB	072H
	DB	00H
	ORG $+7
??$_Reallocate_for@V<lambda_66f57f934f28d61049862f64df852ff0>@@PEBD@?$basic_string@DU?$char_traits@D@std@@V?$allocator@D@2@@std@@AEAAAEAV01@_KV<lambda_66f57f934f28d61049862f64df852ff0>@@PEBD@Z$rtcVarDesc DD 048H ; std::basic_string<char,std::char_traits<char>,std::allocator<char> >::_Reallocate_for<<lambda_66f57f934f28d61049862f64df852ff0>,char const *>
	DD	08H
	DQ	FLAT:??$_Reallocate_for@V<lambda_66f57f934f28d61049862f64df852ff0>@@PEBD@?$basic_string@DU?$char_traits@D@std@@V?$allocator@D@2@@std@@AEAAAEAV01@_KV<lambda_66f57f934f28d61049862f64df852ff0>@@PEBD@Z$rtcName$0
	ORG $+48
??$_Reallocate_for@V<lambda_66f57f934f28d61049862f64df852ff0>@@PEBD@?$basic_string@DU?$char_traits@D@std@@V?$allocator@D@2@@std@@AEAAAEAV01@_KV<lambda_66f57f934f28d61049862f64df852ff0>@@PEBD@Z$rtcFrameData DD 01H ; std::basic_string<char,std::char_traits<char>,std::allocator<char> >::_Reallocate_for<<lambda_66f57f934f28d61049862f64df852ff0>,char const *>
	DD	00H
	DQ	FLAT:??$_Reallocate_for@V<lambda_66f57f934f28d61049862f64df852ff0>@@PEBD@?$basic_string@DU?$char_traits@D@std@@V?$allocator@D@2@@std@@AEAAAEAV01@_KV<lambda_66f57f934f28d61049862f64df852ff0>@@PEBD@Z$rtcVarDesc
CONST	ENDS
;	COMDAT xdata
xdata	SEGMENT
$unwind$??R<lambda_66f57f934f28d61049862f64df852ff0>@@QEBAXQEAD_KQEBD@Z DD 022d01H
	DD	070155219H
xdata	ENDS
;	COMDAT xdata
xdata	SEGMENT
$unwind$??$addressof@$$CBV?$_String_val@U?$_Simple_types@D@std@@@std@@@std@@YAPEBV?$_String_val@U?$_Simple_types@D@std@@@0@AEBV10@@Z DD 010601H
	DD	07006H
xdata	ENDS
;	COMDAT xdata
xdata	SEGMENT
$unwind$??$_Max_value@_K@std@@YAAEB_KAEB_K0@Z DD 022301H
	DD	0700b120fH
xdata	ENDS
;	COMDAT xdata
xdata	SEGMENT
$unwind$??$_Destroy_in_place@PEAD@std@@YAXAEAPEAD@Z DD 010601H
	DD	07006H
xdata	ENDS
;	COMDAT xdata
xdata	SEGMENT
$unwind$??$exchange@PEAVRGYConvertCSP@@PEAV1@@std@@YAPEAVRGYConvertCSP@@AEAPEAV1@$$QEAPEAV1@@Z DD 022301H
	DD	0700b120fH
xdata	ENDS
;	COMDAT xdata
xdata	SEGMENT
$unwind$??$exchange@PEAVRGYConvertCSP@@AEAPEAV1@@std@@YAPEAVRGYConvertCSP@@AEAPEAV1@0@Z DD 022301H
	DD	0700b120fH
xdata	ENDS
;	COMDAT xdata
xdata	SEGMENT
$unwind$??$_Move_construct_from@E@?$_Ptr_base@E@std@@IEAAX$$QEAV01@@Z DD 010b01H
	DD	0700bH
xdata	ENDS
;	COMDAT xdata
xdata	SEGMENT
$unwind$??$_Construct_in_place@U_Container_proxy@std@@PEAU_Container_base12@2@@std@@YAXAEAU_Container_proxy@0@$$QEAPEAU_Container_base12@0@@Z DD 022301H
	DD	0700b520fH
xdata	ENDS
;	COMDAT xdata
xdata	SEGMENT
$unwind$??$addressof@U_Container_base12@std@@@std@@YAPEAU_Container_base12@0@AEAU10@@Z DD 010601H
	DD	07006H
xdata	ENDS
;	COMDAT xdata
xdata	SEGMENT
$unwind$??$_Unfancy@U_Container_proxy@std@@@std@@YAPEAU_Container_proxy@0@PEAU10@@Z DD 010601H
	DD	07006H
xdata	ENDS
;	COMDAT xdata
xdata	SEGMENT
$unwind$?dtor$0@?0???$?0$$V@?$_Compressed_pair@V?$allocator@D@std@@V?$_String_val@U?$_Simple_types@D@std@@@2@$00@std@@QEAA@U_Zero_then_variadic_args_t@1@@Z@4HA DD 031001H
	DD	0700c4210H
	DD	0500bH
xdata	ENDS
;	COMDAT xdata
xdata	SEGMENT
$ip2state$??$?0$$V@?$_Compressed_pair@V?$allocator@D@std@@V?$_String_val@U?$_Simple_types@D@std@@@2@$00@std@@QEAA@U_Zero_then_variadic_args_t@1@@Z DB 02H
	DB	00H
	DB	00H
xdata	ENDS
;	COMDAT xdata
xdata	SEGMENT
$stateUnwindMap$??$?0$$V@?$_Compressed_pair@V?$allocator@D@std@@V?$_String_val@U?$_Simple_types@D@std@@@2@$00@std@@QEAA@U_Zero_then_variadic_args_t@1@@Z DB 02H
	DB	0eH
	DD	imagerel ?dtor$0@?0???$?0$$V@?$_Compressed_pair@V?$allocator@D@std@@V?$_String_val@U?$_Simple_types@D@std@@@2@$00@std@@QEAA@U_Zero_then_variadic_args_t@1@@Z@4HA
xdata	ENDS
;	COMDAT xdata
xdata	SEGMENT
$cppxdata$??$?0$$V@?$_Compressed_pair@V?$allocator@D@std@@V?$_String_val@U?$_Simple_types@D@std@@@2@$00@std@@QEAA@U_Zero_then_variadic_args_t@1@@Z DB 08H
	DD	imagerel $stateUnwindMap$??$?0$$V@?$_Compressed_pair@V?$allocator@D@std@@V?$_String_val@U?$_Simple_types@D@std@@@2@$00@std@@QEAA@U_Zero_then_variadic_args_t@1@@Z
	DD	imagerel $ip2state$??$?0$$V@?$_Compressed_pair@V?$allocator@D@std@@V?$_String_val@U?$_Simple_types@D@std@@@2@$00@std@@QEAA@U_Zero_then_variadic_args_t@1@@Z
xdata	ENDS
;	COMDAT xdata
xdata	SEGMENT
$unwind$??$?0$$V@?$_Compressed_pair@V?$allocator@D@std@@V?$_String_val@U?$_Simple_types@D@std@@@2@$00@std@@QEAA@U_Zero_then_variadic_args_t@1@@Z DD 022211H
	DD	0700a320eH
	DD	imagerel __CxxFrameHandler4
	DD	imagerel $cppxdata$??$?0$$V@?$_Compressed_pair@V?$allocator@D@std@@V?$_String_val@U?$_Simple_types@D@std@@@2@$00@std@@QEAA@U_Zero_then_variadic_args_t@1@@Z
xdata	ENDS
;	COMDAT xdata
xdata	SEGMENT
$unwind$?dtor$0@?0???$?0V?$allocator@D@std@@$$V@?$_Compressed_pair@V?$allocator@D@std@@V?$_String_val@U?$_Simple_types@D@std@@@2@$00@std@@QEAA@U_One_then_variadic_args_t@1@$$QEAV?$allocator@D@1@@Z@4HA DD 031001H
	DD	0700c4210H
	DD	0500bH
xdata	ENDS
;	COMDAT xdata
xdata	SEGMENT
$ip2state$??$?0V?$allocator@D@std@@$$V@?$_Compressed_pair@V?$allocator@D@std@@V?$_String_val@U?$_Simple_types@D@std@@@2@$00@std@@QEAA@U_One_then_variadic_args_t@1@$$QEAV?$allocator@D@1@@Z DB 02H
	DB	00H
	DB	00H
xdata	ENDS
;	COMDAT xdata
xdata	SEGMENT
$stateUnwindMap$??$?0V?$allocator@D@std@@$$V@?$_Compressed_pair@V?$allocator@D@std@@V?$_String_val@U?$_Simple_types@D@std@@@2@$00@std@@QEAA@U_One_then_variadic_args_t@1@$$QEAV?$allocator@D@1@@Z DB 02H
	DB	0eH
	DD	imagerel ?dtor$0@?0???$?0V?$allocator@D@std@@$$V@?$_Compressed_pair@V?$allocator@D@std@@V?$_String_val@U?$_Simple_types@D@std@@@2@$00@std@@QEAA@U_One_then_variadic_args_t@1@$$QEAV?$allocator@D@1@@Z@4HA
xdata	ENDS
;	COMDAT xdata
xdata	SEGMENT
$cppxdata$??$?0V?$allocator@D@std@@$$V@?$_Compressed_pair@V?$allocator@D@std@@V?$_String_val@U?$_Simple_types@D@std@@@2@$00@std@@QEAA@U_One_then_variadic_args_t@1@$$QEAV?$allocator@D@1@@Z DB 08H
	DD	imagerel $stateUnwindMap$??$?0V?$allocator@D@std@@$$V@?$_Compressed_pair@V?$allocator@D@std@@V?$_String_val@U?$_Simple_types@D@std@@@2@$00@std@@QEAA@U_One_then_variadic_args_t@1@$$QEAV?$allocator@D@1@@Z
	DD	imagerel $ip2state$??$?0V?$allocator@D@std@@$$V@?$_Compressed_pair@V?$allocator@D@std@@V?$_String_val@U?$_Simple_types@D@std@@@2@$00@std@@QEAA@U_One_then_variadic_args_t@1@$$QEAV?$allocator@D@1@@Z
xdata	ENDS
;	COMDAT xdata
xdata	SEGMENT
$unwind$??$?0V?$allocator@D@std@@$$V@?$_Compressed_pair@V?$allocator@D@std@@V?$_String_val@U?$_Simple_types@D@std@@@2@$00@std@@QEAA@U_One_then_variadic_args_t@1@$$QEAV?$allocator@D@1@@Z DD 022711H
	DD	0700f3213H
	DD	imagerel __CxxFrameHandler4
	DD	imagerel $cppxdata$??$?0V?$allocator@D@std@@$$V@?$_Compressed_pair@V?$allocator@D@std@@V?$_String_val@U?$_Simple_types@D@std@@@2@$00@std@@QEAA@U_One_then_variadic_args_t@1@$$QEAV?$allocator@D@1@@Z
xdata	ENDS
;	COMDAT xdata
xdata	SEGMENT
$unwind$??$move@AEAV?$allocator@D@std@@@std@@YA$$QEAV?$allocator@D@0@AEAV10@@Z DD 010601H
	DD	07006H
xdata	ENDS
;	COMDAT xdata
xdata	SEGMENT
$unwind$??$?0D@?$allocator@U_Container_proxy@std@@@std@@QEAA@AEBV?$allocator@D@1@@Z DD 010b01H
	DD	0700bH
xdata	ENDS
;	COMDAT xdata
xdata	SEGMENT
$unwind$??$addressof@V?$_String_val@U?$_Simple_types@D@std@@@std@@@std@@YAPEAV?$_String_val@U?$_Simple_types@D@std@@@0@AEAV10@@Z DD 010601H
	DD	07006H
xdata	ENDS
;	COMDAT xdata
xdata	SEGMENT
$unwind$??$_Unfancy@D@std@@YAPEADPEAD@Z DD 010601H
	DD	07006H
xdata	ENDS
;	COMDAT xdata
xdata	SEGMENT
$unwind$??$_Alloc_proxy@V?$allocator@U_Container_proxy@std@@@std@@@_Container_base12@std@@QEAAX$$QEAV?$allocator@U_Container_proxy@std@@@1@@Z DD 022301H
	DD	0700b520fH
xdata	ENDS
;	COMDAT xdata
xdata	SEGMENT
$unwind$??1?$_Container_proxy_ptr12@V?$allocator@U_Container_proxy@std@@@std@@@std@@QEAA@XZ DD 021e01H
	DD	07006320aH
xdata	ENDS
;	COMDAT xdata
xdata	SEGMENT
$unwind$??0?$_Container_proxy_ptr12@V?$allocator@U_Container_proxy@std@@@std@@@std@@QEAA@AEAV?$allocator@U_Container_proxy@std@@@1@AEAU_Container_base12@1@@Z DD 022801H
	DD	070105214H
xdata	ENDS
;	COMDAT xdata
xdata	SEGMENT
$unwind$??$_Min_value@_K@std@@YAAEB_KAEB_K0@Z DD 022301H
	DD	0700b120fH
xdata	ENDS
;	COMDAT xdata
xdata	SEGMENT
$unwind$??$move@AEAV?$basic_string@DU?$char_traits@D@std@@V?$allocator@D@2@@std@@@std@@YA$$QEAV?$basic_string@DU?$char_traits@D@std@@V?$allocator@D@2@@0@AEAV10@@Z DD 010601H
	DD	07006H
xdata	ENDS
;	COMDAT xdata
xdata	SEGMENT
$unwind$??$forward@U?$default_delete@VRGYConvertCSP@@@std@@@std@@YA$$QEAU?$default_delete@VRGYConvertCSP@@@0@AEAU10@@Z DD 010601H
	DD	07006H
xdata	ENDS
;	COMDAT xdata
xdata	SEGMENT
$unwind$??$addressof@V?$unique_ptr@VRGYConvertCSP@@U?$default_delete@VRGYConvertCSP@@@std@@@std@@@std@@YAPEAV?$unique_ptr@VRGYConvertCSP@@U?$default_delete@VRGYConvertCSP@@@std@@@0@AEAV10@@Z DD 010601H
	DD	07006H
xdata	ENDS
;	COMDAT xdata
xdata	SEGMENT
$unwind$??$_Delete_plain_internal@V?$allocator@U_Container_proxy@std@@@std@@@std@@YAXAEAV?$allocator@U_Container_proxy@std@@@0@QEAU_Container_proxy@0@@Z DD 022301H
	DD	0700b320fH
xdata	ENDS
;	COMDAT xdata
xdata	SEGMENT
$unwind$??$exchange@PEAU_Container_proxy@std@@$$T@std@@YAPEAU_Container_proxy@0@AEAPEAU10@$$QEA$$T@Z DD 022301H
	DD	0700b120fH
xdata	ENDS
;	COMDAT xdata
xdata	SEGMENT
$unwind$??$?0V?$basic_string@DU?$char_traits@D@std@@V?$allocator@D@2@@std@@@?$allocator@U_Container_proxy@std@@@std@@QEAA@AEBV?$allocator@V?$basic_string@DU?$char_traits@D@std@@V?$allocator@D@2@@std@@@1@@Z DD 010b01H
	DD	0700bH
xdata	ENDS
;	COMDAT xdata
xdata	SEGMENT
$unwind$?allocate@?$allocator@U_Container_proxy@std@@@std@@QEAAPEAU_Container_proxy@2@_K@Z DD 022301H
	DD	0700b320fH
xdata	ENDS
;	COMDAT xdata
xdata	SEGMENT
$unwind$??$move@AEAV?$shared_ptr@E@std@@@std@@YA$$QEAV?$shared_ptr@E@0@AEAV10@@Z DD 010601H
	DD	07006H
xdata	ENDS
;	COMDAT xdata
xdata	SEGMENT
$unwind$??$?CVEncodeStatus@@$0A@@?$shared_ptr@VEncodeStatus@@@std@@QEBAPEAVEncodeStatus@@XZ DD 021e01H
	DD	07006320aH
xdata	ENDS
;	COMDAT xdata
xdata	SEGMENT
$unwind$??$?0EUaligned_malloc_deleter@@$0A@@?$shared_ptr@E@std@@QEAA@PEAEUaligned_malloc_deleter@@@Z DD 022801H
	DD	070103214H
xdata	ENDS
;	COMDAT xdata
xdata	SEGMENT
$unwind$?dtor$1@?0???$make_unique@VRGYConvertCSP@@AEBH$0A@@std@@YA?AV?$unique_ptr@VRGYConvertCSP@@U?$default_delete@VRGYConvertCSP@@@std@@@0@AEBH@Z@4HA DD 031001H
	DD	0700c4210H
	DD	0500bH
xdata	ENDS
;	COMDAT xdata
xdata	SEGMENT
$unwind$?dtor$0@?0???$make_unique@VRGYConvertCSP@@AEBH$0A@@std@@YA?AV?$unique_ptr@VRGYConvertCSP@@U?$default_delete@VRGYConvertCSP@@@std@@@0@AEBH@Z@4HA DD 031001H
	DD	0700c4210H
	DD	0500bH
xdata	ENDS
;	COMDAT xdata
xdata	SEGMENT
$ip2state$??$make_unique@VRGYConvertCSP@@AEBH$0A@@std@@YA?AV?$unique_ptr@VRGYConvertCSP@@U?$default_delete@VRGYConvertCSP@@@std@@@0@AEBH@Z DB 06H
	DB	00H
	DB	00H
	DB	't'
	DB	04H
	DB	'p'
	DB	02H
xdata	ENDS
;	COMDAT xdata
xdata	SEGMENT
$stateUnwindMap$??$make_unique@VRGYConvertCSP@@AEBH$0A@@std@@YA?AV?$unique_ptr@VRGYConvertCSP@@U?$default_delete@VRGYConvertCSP@@@std@@@0@AEBH@Z DB 04H
	DB	0eH
	DD	imagerel ?dtor$1@?0???$make_unique@VRGYConvertCSP@@AEBH$0A@@std@@YA?AV?$unique_ptr@VRGYConvertCSP@@U?$default_delete@VRGYConvertCSP@@@std@@@0@AEBH@Z@4HA
	DB	02eH
	DD	imagerel ?dtor$0@?0???$make_unique@VRGYConvertCSP@@AEBH$0A@@std@@YA?AV?$unique_ptr@VRGYConvertCSP@@U?$default_delete@VRGYConvertCSP@@@std@@@0@AEBH@Z@4HA
xdata	ENDS
;	COMDAT xdata
xdata	SEGMENT
$cppxdata$??$make_unique@VRGYConvertCSP@@AEBH$0A@@std@@YA?AV?$unique_ptr@VRGYConvertCSP@@U?$default_delete@VRGYConvertCSP@@@std@@@0@AEBH@Z DB 08H
	DD	imagerel $stateUnwindMap$??$make_unique@VRGYConvertCSP@@AEBH$0A@@std@@YA?AV?$unique_ptr@VRGYConvertCSP@@U?$default_delete@VRGYConvertCSP@@@std@@@0@AEBH@Z
	DD	imagerel $ip2state$??$make_unique@VRGYConvertCSP@@AEBH$0A@@std@@YA?AV?$unique_ptr@VRGYConvertCSP@@U?$default_delete@VRGYConvertCSP@@@std@@@0@AEBH@Z
xdata	ENDS
;	COMDAT xdata
xdata	SEGMENT
$unwind$??$make_unique@VRGYConvertCSP@@AEBH$0A@@std@@YA?AV?$unique_ptr@VRGYConvertCSP@@U?$default_delete@VRGYConvertCSP@@@std@@@0@AEBH@Z DD 022311H
	DD	0700b720fH
	DD	imagerel __CxxFrameHandler4
	DD	imagerel $cppxdata$??$make_unique@VRGYConvertCSP@@AEBH$0A@@std@@YA?AV?$unique_ptr@VRGYConvertCSP@@U?$default_delete@VRGYConvertCSP@@@std@@@0@AEBH@Z
xdata	ENDS
;	COMDAT xdata
xdata	SEGMENT
$unwind$??_GRGYInputRaw@@UEAAPEAXI@Z DD 022201H
	DD	0700a320eH
xdata	ENDS
;	COMDAT xdata
xdata	SEGMENT
$unwind$??B?$shared_ptr@E@std@@QEBA_NXZ DD 021e01H
	DD	07006520aH
xdata	ENDS
;	COMDAT xdata
xdata	SEGMENT
$unwind$?dtor$0@?0??reset@?$shared_ptr@E@std@@QEAAXXZ@4HA DD 031001H
	DD	0700c4210H
	DD	0500bH
xdata	ENDS
;	COMDAT xdata
xdata	SEGMENT
$ip2state$?reset@?$shared_ptr@E@std@@QEAAXXZ DB 06H
	DB	00H
	DB	00H
	DB	'p'
	DB	02H
	DB	' '
	DB	00H
xdata	ENDS
;	COMDAT xdata
xdata	SEGMENT
$stateUnwindMap$?reset@?$shared_ptr@E@std@@QEAAXXZ DB 02H
	DB	0eH
	DD	imagerel ?dtor$0@?0??reset@?$shared_ptr@E@std@@QEAAXXZ@4HA
xdata	ENDS
;	COMDAT xdata
xdata	SEGMENT
$cppxdata$?reset@?$shared_ptr@E@std@@QEAAXXZ DB 048H
	DD	imagerel $stateUnwindMap$?reset@?$shared_ptr@E@std@@QEAAXXZ
	DD	imagerel $ip2state$?reset@?$shared_ptr@E@std@@QEAAXXZ
xdata	ENDS
;	COMDAT xdata
xdata	SEGMENT
$unwind$?reset@?$shared_ptr@E@std@@QEAAXXZ DD 021e11H
	DD	07006720aH
	DD	imagerel __CxxFrameHandler4
	DD	imagerel $cppxdata$?reset@?$shared_ptr@E@std@@QEAAXXZ
xdata	ENDS
;	COMDAT xdata
xdata	SEGMENT
$unwind$?swap@?$shared_ptr@E@std@@QEAAXAEAV12@@Z DD 022301H
	DD	0700b320fH
xdata	ENDS
;	COMDAT xdata
xdata	SEGMENT
$unwind$?dtor$0@?0???4?$shared_ptr@E@std@@QEAAAEAV01@$$QEAV01@@Z@4HA DD 031001H
	DD	0700c4210H
	DD	0500bH
xdata	ENDS
;	COMDAT xdata
xdata	SEGMENT
$ip2state$??4?$shared_ptr@E@std@@QEAAAEAV01@$$QEAV01@@Z DB 06H
	DB	00H
	DB	00H
	DB	096H
	DB	02H
	DB	' '
	DB	00H
xdata	ENDS
;	COMDAT xdata
xdata	SEGMENT
$stateUnwindMap$??4?$shared_ptr@E@std@@QEAAAEAV01@$$QEAV01@@Z DB 02H
	DB	0eH
	DD	imagerel ?dtor$0@?0???4?$shared_ptr@E@std@@QEAAAEAV01@$$QEAV01@@Z@4HA
xdata	ENDS
;	COMDAT xdata
xdata	SEGMENT
$cppxdata$??4?$shared_ptr@E@std@@QEAAAEAV01@$$QEAV01@@Z DB 048H
	DD	imagerel $stateUnwindMap$??4?$shared_ptr@E@std@@QEAAAEAV01@$$QEAV01@@Z
	DD	imagerel $ip2state$??4?$shared_ptr@E@std@@QEAAAEAV01@$$QEAV01@@Z
xdata	ENDS
;	COMDAT xdata
xdata	SEGMENT
$unwind$??4?$shared_ptr@E@std@@QEAAAEAV01@$$QEAV01@@Z DD 022311H
	DD	0700b720fH
	DD	imagerel __CxxFrameHandler4
	DD	imagerel $cppxdata$??4?$shared_ptr@E@std@@QEAAAEAV01@$$QEAV01@@Z
xdata	ENDS
;	COMDAT xdata
xdata	SEGMENT
$unwind$??1?$shared_ptr@E@std@@QEAA@XZ DD 021e01H
	DD	07006320aH
xdata	ENDS
;	COMDAT xdata
xdata	SEGMENT
$unwind$??0?$shared_ptr@E@std@@QEAA@$$QEAV01@@Z DD 022301H
	DD	0700b320fH
xdata	ENDS
;	COMDAT xdata
xdata	SEGMENT
$unwind$??0?$shared_ptr@E@std@@QEAA@XZ DD 021e01H
	DD	07006320aH
xdata	ENDS
;	COMDAT xdata
xdata	SEGMENT
$unwind$?_Swap@?$_Ptr_base@E@std@@IEAAXAEAV12@@Z DD 022301H
	DD	0700b320fH
xdata	ENDS
;	COMDAT xdata
xdata	SEGMENT
$unwind$?_Decref@?$_Ptr_base@E@std@@IEAAXXZ DD 021e01H
	DD	07006320aH
xdata	ENDS
;	COMDAT xdata
xdata	SEGMENT
$unwind$??0?$_Ptr_base@E@std@@IEAA@XZ DD 010601H
	DD	07006H
xdata	ENDS
;	COMDAT xdata
xdata	SEGMENT
$unwind$?get@?$_Ptr_base@E@std@@IEBAPEAEXZ DD 010601H
	DD	07006H
xdata	ENDS
CONST	SEGMENT
	ORG $+6
?LoadNextFrame@RGYInputRaw@@UEAA?AW4RGY_ERR@@PEAURGYFrame@@@Z$rtcName$0 DB 079H ; RGYInputRaw::LoadNextFrame
	DB	034H
	DB	06dH
	DB	05fH
	DB	062H
	DB	075H
	DB	066H
	DB	00H
?LoadNextFrame@RGYInputRaw@@UEAA?AW4RGY_ERR@@PEAURGYFrame@@@Z$rtcName$1 DB 064H ; RGYInputRaw::LoadNextFrame
	DB	073H
	DB	074H
	DB	05fH
	DB	061H
	DB	072H
	DB	072H
	DB	061H
	DB	079H
	DB	00H
	ORG $+2
?Init@RGYInputRaw@@MEAA?AW4RGY_ERR@@PEBDPEAUVideoInfo@@PEBVRGYInputPrm@@@Z$rtcName$0 DB 062H ; RGYInputRaw::Init
	DB	075H
	DB	066H
	DB	00H
?LoadNextFrame@RGYInputRaw@@UEAA?AW4RGY_ERR@@PEAURGYFrame@@@Z$rtcName$2 DB 073H ; RGYInputRaw::LoadNextFrame
	DB	072H
	DB	063H
	DB	05fH
	DB	061H
	DB	072H
	DB	072H
	DB	061H
	DB	079H
	DB	00H
	ORG $+6
?LoadNextFrame@RGYInputRaw@@UEAA?AW4RGY_ERR@@PEAURGYFrame@@@Z$rtcFrameData DD 03H ; RGYInputRaw::LoadNextFrame
	DD	00H
	DQ	FLAT:?LoadNextFrame@RGYInputRaw@@UEAA?AW4RGY_ERR@@PEAURGYFrame@@@Z$rtcVarDesc
?ParseY4MHeader@RGYInputRaw@@IEAA?AW4RGY_ERR@@PEADPEAUVideoInfo@@@Z$rtcName$0 DB 071H ; RGYInputRaw::ParseY4MHeader
	DB	00H
	ORG $+6
?LoadNextFrame@RGYInputRaw@@UEAA?AW4RGY_ERR@@PEAURGYFrame@@@Z$rtcVarDesc DD 0b8H ; RGYInputRaw::LoadNextFrame
	DD	018H
	DQ	FLAT:?LoadNextFrame@RGYInputRaw@@UEAA?AW4RGY_ERR@@PEAURGYFrame@@@Z$rtcName$2
	DD	088H
	DD	018H
	DQ	FLAT:?LoadNextFrame@RGYInputRaw@@UEAA?AW4RGY_ERR@@PEAURGYFrame@@@Z$rtcName$1
	DD	068H
	DD	08H
	DQ	FLAT:?LoadNextFrame@RGYInputRaw@@UEAA?AW4RGY_ERR@@PEAURGYFrame@@@Z$rtcName$0
	ORG $+144
?Init@RGYInputRaw@@MEAA?AW4RGY_ERR@@PEBDPEAUVideoInfo@@PEBVRGYInputPrm@@@Z$rtcVarDesc DD 060H ; RGYInputRaw::Init
	DD	080H
	DQ	FLAT:?Init@RGYInputRaw@@MEAA?AW4RGY_ERR@@PEBDPEAUVideoInfo@@PEBVRGYInputPrm@@@Z$rtcName$0
	ORG $+48
?Init@RGYInputRaw@@MEAA?AW4RGY_ERR@@PEBDPEAUVideoInfo@@PEBVRGYInputPrm@@@Z$rtcFrameData DD 01H ; RGYInputRaw::Init
	DD	00H
	DQ	FLAT:?Init@RGYInputRaw@@MEAA?AW4RGY_ERR@@PEBDPEAUVideoInfo@@PEBVRGYInputPrm@@@Z$rtcVarDesc
?ParseY4MHeader@RGYInputRaw@@IEAA?AW4RGY_ERR@@PEADPEAUVideoInfo@@@Z$rtcName$1 DB 065H ; RGYInputRaw::ParseY4MHeader
	DB	070H
	DB	074H
	DB	072H
	DB	00H
	ORG $+3
?ParseY4MHeader@RGYInputRaw@@IEAA?AW4RGY_ERR@@PEADPEAUVideoInfo@@@Z$rtcName$2 DB 065H ; RGYInputRaw::ParseY4MHeader
	DB	070H
	DB	074H
	DB	072H
	DB	00H
	ORG $+3
?ParseY4MHeader@RGYInputRaw@@IEAA?AW4RGY_ERR@@PEADPEAUVideoInfo@@@Z$rtcName$3 DB 072H ; RGYInputRaw::ParseY4MHeader
	DB	061H
	DB	074H
	DB	065H
	DB	00H
	ORG $+3
?ParseY4MHeader@RGYInputRaw@@IEAA?AW4RGY_ERR@@PEADPEAUVideoInfo@@@Z$rtcName$4 DB 073H ; RGYInputRaw::ParseY4MHeader
	DB	063H
	DB	061H
	DB	06cH
	DB	065H
	DB	00H
	ORG $+2
?ParseY4MHeader@RGYInputRaw@@IEAA?AW4RGY_ERR@@PEADPEAUVideoInfo@@@Z$rtcName$5 DB 073H ; RGYInputRaw::ParseY4MHeader
	DB	061H
	DB	072H
	DB	05fH
	DB	078H
	DB	00H
	ORG $+2
?ParseY4MHeader@RGYInputRaw@@IEAA?AW4RGY_ERR@@PEADPEAUVideoInfo@@@Z$rtcName$6 DB 073H ; RGYInputRaw::ParseY4MHeader
	DB	061H
	DB	072H
	DB	05fH
	DB	079H
	DB	00H
	ORG $+2
?ParseY4MHeader@RGYInputRaw@@IEAA?AW4RGY_ERR@@PEADPEAUVideoInfo@@@Z$rtcVarDesc DD 0f4H ; RGYInputRaw::ParseY4MHeader
	DD	04H
	DQ	FLAT:?ParseY4MHeader@RGYInputRaw@@IEAA?AW4RGY_ERR@@PEADPEAUVideoInfo@@@Z$rtcName$6
	DD	0d4H
	DD	04H
	DQ	FLAT:?ParseY4MHeader@RGYInputRaw@@IEAA?AW4RGY_ERR@@PEADPEAUVideoInfo@@@Z$rtcName$5
	DD	0b4H
	DD	04H
	DQ	FLAT:?ParseY4MHeader@RGYInputRaw@@IEAA?AW4RGY_ERR@@PEADPEAUVideoInfo@@@Z$rtcName$4
	DD	094H
	DD	04H
	DQ	FLAT:?ParseY4MHeader@RGYInputRaw@@IEAA?AW4RGY_ERR@@PEADPEAUVideoInfo@@@Z$rtcName$3
	DD	078H
	DD	08H
	DQ	FLAT:?ParseY4MHeader@RGYInputRaw@@IEAA?AW4RGY_ERR@@PEADPEAUVideoInfo@@@Z$rtcName$2
	DD	058H
	DD	08H
	DQ	FLAT:?ParseY4MHeader@RGYInputRaw@@IEAA?AW4RGY_ERR@@PEADPEAUVideoInfo@@@Z$rtcName$1
	DD	038H
	DD	08H
	DQ	FLAT:?ParseY4MHeader@RGYInputRaw@@IEAA?AW4RGY_ERR@@PEADPEAUVideoInfo@@@Z$rtcName$0
	ORG $+336
?ParseY4MHeader@RGYInputRaw@@IEAA?AW4RGY_ERR@@PEADPEAUVideoInfo@@@Z$rtcFrameData DD 07H ; RGYInputRaw::ParseY4MHeader
	DD	00H
	DQ	FLAT:?ParseY4MHeader@RGYInputRaw@@IEAA?AW4RGY_ERR@@PEADPEAUVideoInfo@@@Z$rtcVarDesc
CONST	ENDS
;	COMDAT xdata
xdata	SEGMENT
$unwind$?_Get_first@?$_Compressed_pair@V?$allocator@V?$basic_string@DU?$char_traits@D@std@@V?$allocator@D@2@@std@@@std@@V?$_Vector_val@U?$_Simple_types@V?$basic_string@DU?$char_traits@D@std@@V?$allocator@D@2@@std@@@std@@@2@$00@std@@QEAAAEAV?$allocator@V?$basic_string@DU?$char_traits@D@std@@V?$allocator@D@2@@std@@@2@XZ DD 010601H
	DD	07006H
xdata	ENDS
;	COMDAT xdata
xdata	SEGMENT
$unwind$?_Getal@?$vector@V?$basic_string@DU?$char_traits@D@std@@V?$allocator@D@2@@std@@V?$allocator@V?$basic_string@DU?$char_traits@D@std@@V?$allocator@D@2@@std@@@2@@std@@AEAAAEAV?$allocator@V?$basic_string@DU?$char_traits@D@std@@V?$allocator@D@2@@std@@@2@XZ DD 021e01H
	DD	07006320aH
xdata	ENDS
;	COMDAT xdata
xdata	SEGMENT
$ip2state$?_Tidy@?$vector@V?$basic_string@DU?$char_traits@D@std@@V?$allocator@D@2@@std@@V?$allocator@V?$basic_string@DU?$char_traits@D@std@@V?$allocator@D@2@@std@@@2@@std@@AEAAXXZ DB 02H
	DB	00H
	DB	00H
xdata	ENDS
;	COMDAT xdata
xdata	SEGMENT
$cppxdata$?_Tidy@?$vector@V?$basic_string@DU?$char_traits@D@std@@V?$allocator@D@2@@std@@V?$allocator@V?$basic_string@DU?$char_traits@D@std@@V?$allocator@D@2@@std@@@2@@std@@AEAAXXZ DB 040H
	DD	imagerel $ip2state$?_Tidy@?$vector@V?$basic_string@DU?$char_traits@D@std@@V?$allocator@D@2@@std@@V?$allocator@V?$basic_string@DU?$char_traits@D@std@@V?$allocator@D@2@@std@@@2@@std@@AEAAXXZ
xdata	ENDS
;	COMDAT xdata
xdata	SEGMENT
$unwind$?_Tidy@?$vector@V?$basic_string@DU?$char_traits@D@std@@V?$allocator@D@2@@std@@V?$allocator@V?$basic_string@DU?$char_traits@D@std@@V?$allocator@D@2@@std@@@2@@std@@AEAAXXZ DD 021e19H
	DD	07006920aH
	DD	imagerel __CxxFrameHandler4
	DD	imagerel $cppxdata$?_Tidy@?$vector@V?$basic_string@DU?$char_traits@D@std@@V?$allocator@D@2@@std@@V?$allocator@V?$basic_string@DU?$char_traits@D@std@@V?$allocator@D@2@@std@@@2@@std@@AEAAXXZ
xdata	ENDS
;	COMDAT xdata
xdata	SEGMENT
$unwind$?_Destroy@?$vector@V?$basic_string@DU?$char_traits@D@std@@V?$allocator@D@2@@std@@V?$allocator@V?$basic_string@DU?$char_traits@D@std@@V?$allocator@D@2@@std@@@2@@std@@AEAAXPEAV?$basic_string@DU?$char_traits@D@std@@V?$allocator@D@2@@2@0@Z DD 022801H
	DD	070103214H
xdata	ENDS
;	COMDAT xdata
xdata	SEGMENT
$unwind$?_Unchecked_end@?$vector@V?$basic_string@DU?$char_traits@D@std@@V?$allocator@D@2@@std@@V?$allocator@V?$basic_string@DU?$char_traits@D@std@@V?$allocator@D@2@@std@@@2@@std@@QEAAPEAV?$basic_string@DU?$char_traits@D@std@@V?$allocator@D@2@@2@XZ DD 010601H
	DD	07006H
xdata	ENDS
;	COMDAT xdata
xdata	SEGMENT
$unwind$?_Unchecked_begin@?$vector@V?$basic_string@DU?$char_traits@D@std@@V?$allocator@D@2@@std@@V?$allocator@V?$basic_string@DU?$char_traits@D@std@@V?$allocator@D@2@@std@@@2@@std@@QEAAPEAV?$basic_string@DU?$char_traits@D@std@@V?$allocator@D@2@@2@XZ DD 010601H
	DD	07006H
xdata	ENDS
;	COMDAT xdata
xdata	SEGMENT
$ip2state$??1?$vector@V?$basic_string@DU?$char_traits@D@std@@V?$allocator@D@2@@std@@V?$allocator@V?$basic_string@DU?$char_traits@D@std@@V?$allocator@D@2@@std@@@2@@std@@QEAA@XZ DB 02H
	DB	00H
	DB	00H
xdata	ENDS
;	COMDAT xdata
xdata	SEGMENT
$cppxdata$??1?$vector@V?$basic_string@DU?$char_traits@D@std@@V?$allocator@D@2@@std@@V?$allocator@V?$basic_string@DU?$char_traits@D@std@@V?$allocator@D@2@@std@@@2@@std@@QEAA@XZ DB 040H
	DD	imagerel $ip2state$??1?$vector@V?$basic_string@DU?$char_traits@D@std@@V?$allocator@D@2@@std@@V?$allocator@V?$basic_string@DU?$char_traits@D@std@@V?$allocator@D@2@@std@@@2@@std@@QEAA@XZ
xdata	ENDS
;	COMDAT xdata
xdata	SEGMENT
$unwind$??1?$vector@V?$basic_string@DU?$char_traits@D@std@@V?$allocator@D@2@@std@@V?$allocator@V?$basic_string@DU?$char_traits@D@std@@V?$allocator@D@2@@std@@@2@@std@@QEAA@XZ DD 021e19H
	DD	07006920aH
	DD	imagerel __CxxFrameHandler4
	DD	imagerel $cppxdata$??1?$vector@V?$basic_string@DU?$char_traits@D@std@@V?$allocator@D@2@@std@@V?$allocator@V?$basic_string@DU?$char_traits@D@std@@V?$allocator@D@2@@std@@@2@@std@@QEAA@XZ
xdata	ENDS
;	COMDAT CONST
CONST	SEGMENT
??1?$vector@V?$basic_string@DU?$char_traits@D@std@@V?$allocator@D@2@@std@@V?$allocator@V?$basic_string@DU?$char_traits@D@std@@V?$allocator@D@2@@std@@@2@@std@@QEAA@XZ$rtcName$0 DB 024H ; std::vector<std::basic_string<char,std::char_traits<char>,std::allocator<char> >,std::allocator<std::basic_string<char,std::char_traits<char>,std::allocator<char> > > >::~vector<std::basic_string<char,std::char_traits<char>,std::allocator<char> >,std::allocator<std::basic_string<char,std::char_traits<char>,std::allocator<char> > > >
	DB	053H
	DB	031H
	DB	00H
	ORG $+12
??1?$vector@V?$basic_string@DU?$char_traits@D@std@@V?$allocator@D@2@@std@@V?$allocator@V?$basic_string@DU?$char_traits@D@std@@V?$allocator@D@2@@std@@@2@@std@@QEAA@XZ$rtcVarDesc DD 034H ; std::vector<std::basic_string<char,std::char_traits<char>,std::allocator<char> >,std::allocator<std::basic_string<char,std::char_traits<char>,std::allocator<char> > > >::~vector<std::basic_string<char,std::char_traits<char>,std::allocator<char> >,std::allocator<std::basic_string<char,std::char_traits<char>,std::allocator<char> > > >
	DD	01H
	DQ	FLAT:??1?$vector@V?$basic_string@DU?$char_traits@D@std@@V?$allocator@D@2@@std@@V?$allocator@V?$basic_string@DU?$char_traits@D@std@@V?$allocator@D@2@@std@@@2@@std@@QEAA@XZ$rtcName$0
	ORG $+48
??1?$vector@V?$basic_string@DU?$char_traits@D@std@@V?$allocator@D@2@@std@@V?$allocator@V?$basic_string@DU?$char_traits@D@std@@V?$allocator@D@2@@std@@@2@@std@@QEAA@XZ$rtcFrameData DD 01H ; std::vector<std::basic_string<char,std::char_traits<char>,std::allocator<char> >,std::allocator<std::basic_string<char,std::char_traits<char>,std::allocator<char> > > >::~vector<std::basic_string<char,std::char_traits<char>,std::allocator<char> >,std::allocator<std::basic_string<char,std::char_traits<char>,std::allocator<char> > > >
	DD	00H
	DQ	FLAT:??1?$vector@V?$basic_string@DU?$char_traits@D@std@@V?$allocator@D@2@@std@@V?$allocator@V?$basic_string@DU?$char_traits@D@std@@V?$allocator@D@2@@std@@@2@@std@@QEAA@XZ$rtcVarDesc
CONST	ENDS
;	COMDAT xdata
xdata	SEGMENT
$unwind$?deallocate@?$allocator@V?$basic_string@DU?$char_traits@D@std@@V?$allocator@D@2@@std@@@std@@QEAAXQEAV?$basic_string@DU?$char_traits@D@std@@V?$allocator@D@2@@2@_K@Z DD 022801H
	DD	070103214H
xdata	ENDS
;	COMDAT xdata
xdata	SEGMENT
$unwind$??$?8VRGYLog@@@std@@YA_NAEBV?$shared_ptr@VRGYLog@@@0@$$T@Z DD 022301H
	DD	0700b520fH
xdata	ENDS
;	COMDAT xdata
xdata	SEGMENT
$unwind$?_Get_first@?$_Compressed_pair@U?$default_delete@VRGYConvertCSP@@@std@@PEAVRGYConvertCSP@@$00@std@@QEAAAEAU?$default_delete@VRGYConvertCSP@@@2@XZ DD 010601H
	DD	07006H
xdata	ENDS
;	COMDAT xdata
xdata	SEGMENT
$ip2state$?reset@?$unique_ptr@VRGYConvertCSP@@U?$default_delete@VRGYConvertCSP@@@std@@@std@@QEAAXPEAVRGYConvertCSP@@@Z DB 02H
	DB	00H
	DB	00H
xdata	ENDS
;	COMDAT xdata
xdata	SEGMENT
$cppxdata$?reset@?$unique_ptr@VRGYConvertCSP@@U?$default_delete@VRGYConvertCSP@@@std@@@std@@QEAAXPEAVRGYConvertCSP@@@Z DB 040H
	DD	imagerel $ip2state$?reset@?$unique_ptr@VRGYConvertCSP@@U?$default_delete@VRGYConvertCSP@@@std@@@std@@QEAAXPEAVRGYConvertCSP@@@Z
xdata	ENDS
;	COMDAT xdata
xdata	SEGMENT
$unwind$?reset@?$unique_ptr@VRGYConvertCSP@@U?$default_delete@VRGYConvertCSP@@@std@@@std@@QEAAXPEAVRGYConvertCSP@@@Z DD 022319H
	DD	0700b520fH
	DD	imagerel __CxxFrameHandler4
	DD	imagerel $cppxdata$?reset@?$unique_ptr@VRGYConvertCSP@@U?$default_delete@VRGYConvertCSP@@@std@@@std@@QEAAXPEAVRGYConvertCSP@@@Z
xdata	ENDS
;	COMDAT xdata
xdata	SEGMENT
$ip2state$?release@?$unique_ptr@VRGYConvertCSP@@U?$default_delete@VRGYConvertCSP@@@std@@@std@@QEAAPEAVRGYConvertCSP@@XZ DB 02H
	DB	00H
	DB	00H
xdata	ENDS
;	COMDAT xdata
xdata	SEGMENT
$cppxdata$?release@?$unique_ptr@VRGYConvertCSP@@U?$default_delete@VRGYConvertCSP@@@std@@@std@@QEAAPEAVRGYConvertCSP@@XZ DB 040H
	DD	imagerel $ip2state$?release@?$unique_ptr@VRGYConvertCSP@@U?$default_delete@VRGYConvertCSP@@@std@@@std@@QEAAPEAVRGYConvertCSP@@XZ
xdata	ENDS
;	COMDAT xdata
xdata	SEGMENT
$unwind$?release@?$unique_ptr@VRGYConvertCSP@@U?$default_delete@VRGYConvertCSP@@@std@@@std@@QEAAPEAVRGYConvertCSP@@XZ DD 021e19H
	DD	07006520aH
	DD	imagerel __CxxFrameHandler4
	DD	imagerel $cppxdata$?release@?$unique_ptr@VRGYConvertCSP@@U?$default_delete@VRGYConvertCSP@@@std@@@std@@QEAAPEAVRGYConvertCSP@@XZ
xdata	ENDS
;	COMDAT xdata
xdata	SEGMENT
$unwind$??C?$unique_ptr@VRGYConvertCSP@@U?$default_delete@VRGYConvertCSP@@@std@@@std@@QEBAPEAVRGYConvertCSP@@XZ DD 010601H
	DD	07006H
xdata	ENDS
;	COMDAT xdata
xdata	SEGMENT
$unwind$??1?$unique_ptr@VRGYConvertCSP@@U?$default_delete@VRGYConvertCSP@@@std@@@std@@QEAA@XZ DD 021e01H
	DD	07006320aH
xdata	ENDS
;	COMDAT xdata
xdata	SEGMENT
$unwind$??4?$unique_ptr@VRGYConvertCSP@@U?$default_delete@VRGYConvertCSP@@@std@@@std@@QEAAAEAV01@$$QEAV01@@Z DD 022301H
	DD	0700b320fH
xdata	ENDS
;	COMDAT xdata
xdata	SEGMENT
$unwind$??R?$default_delete@VRGYConvertCSP@@@std@@QEBAXPEAVRGYConvertCSP@@@Z DD 022301H
	DD	0700b520fH
xdata	ENDS
;	COMDAT xdata
xdata	SEGMENT
$unwind$?getVideoTrimMaxFramIdx@RGYInput@@IEAAHXZ DD 021e01H
	DD	07006320aH
xdata	ENDS
;	COMDAT xdata
xdata	SEGMENT
$unwind$?dtor$0@?0??AddMessage@RGYInput@@QEAAXHPEBDZZ@4HA DD 031001H
	DD	0700c4210H
	DD	0500bH
xdata	ENDS
;	COMDAT xdata
xdata	SEGMENT
$ip2state$?AddMessage@RGYInput@@QEAAXHPEBDZZ DB 06H
	DB	00H
	DB	00H
	DB	0fdH, 02H
	DB	02H
	DB	0e2H
	DB	00H
xdata	ENDS
;	COMDAT xdata
xdata	SEGMENT
$stateUnwindMap$?AddMessage@RGYInput@@QEAAXHPEBDZZ DB 02H
	DB	0eH
	DD	imagerel ?dtor$0@?0??AddMessage@RGYInput@@QEAAXHPEBDZZ@4HA
xdata	ENDS
;	COMDAT xdata
xdata	SEGMENT
$cppxdata$?AddMessage@RGYInput@@QEAAXHPEBDZZ DB 08H
	DD	imagerel $stateUnwindMap$?AddMessage@RGYInput@@QEAAXHPEBDZZ
	DD	imagerel $ip2state$?AddMessage@RGYInput@@QEAAXHPEBDZZ
xdata	ENDS
;	COMDAT xdata
xdata	SEGMENT
$unwind$?AddMessage@RGYInput@@QEAAXHPEBDZZ DD 034419H
	DD	014011bH
	DD	07014H
	DD	imagerel __GSHandlerCheck_EH4
	DD	imagerel $cppxdata$?AddMessage@RGYInput@@QEAAXHPEBDZZ
	DD	092H
xdata	ENDS
;	COMDAT CONST
CONST	SEGMENT
?AddMessage@RGYInput@@QEAAXHPEBDZZ$rtcName$0 DB 061H	; RGYInput::AddMessage
	DB	072H
	DB	067H
	DB	073H
	DB	00H
	ORG $+3
?AddMessage@RGYInput@@QEAAXHPEBDZZ$rtcName$1 DB 062H	; RGYInput::AddMessage
	DB	075H
	DB	066H
	DB	066H
	DB	065H
	DB	072H
	DB	00H
	ORG $+1
?AddMessage@RGYInput@@QEAAXHPEBDZZ$rtcVarDesc DD 048H	; RGYInput::AddMessage
	DD	028H
	DQ	FLAT:?AddMessage@RGYInput@@QEAAXHPEBDZZ$rtcName$1
	DD	028H
	DD	08H
	DQ	FLAT:?AddMessage@RGYInput@@QEAAXHPEBDZZ$rtcName$0
	ORG $+96
?AddMessage@RGYInput@@QEAAXHPEBDZZ$rtcFrameData DD 02H	; RGYInput::AddMessage
	DD	00H
	DQ	FLAT:?AddMessage@RGYInput@@QEAAXHPEBDZZ$rtcVarDesc
CONST	ENDS
;	COMDAT xdata
xdata	SEGMENT
$unwind$?dtor$4@?0??AddMessage@RGYInput@@QEAAXHAEBV?$basic_string@DU?$char_traits@D@std@@V?$allocator@D@2@@std@@@Z@4HA DD 031001H
	DD	0700c4210H
	DD	0500bH
xdata	ENDS
;	COMDAT xdata
xdata	SEGMENT
$unwind$?dtor$3@?0??AddMessage@RGYInput@@QEAAXHAEBV?$basic_string@DU?$char_traits@D@std@@V?$allocator@D@2@@std@@@Z@4HA DD 031001H
	DD	0700c4210H
	DD	0500bH
xdata	ENDS
;	COMDAT xdata
xdata	SEGMENT
$unwind$?dtor$2@?0??AddMessage@RGYInput@@QEAAXHAEBV?$basic_string@DU?$char_traits@D@std@@V?$allocator@D@2@@std@@@Z@4HA DD 031001H
	DD	0700c4210H
	DD	0500bH
xdata	ENDS
;	COMDAT xdata
xdata	SEGMENT
$unwind$?dtor$1@?0??AddMessage@RGYInput@@QEAAXHAEBV?$basic_string@DU?$char_traits@D@std@@V?$allocator@D@2@@std@@@Z@4HA DD 031001H
	DD	0700c4210H
	DD	0500bH
xdata	ENDS
;	COMDAT xdata
xdata	SEGMENT
$unwind$?dtor$0@?0??AddMessage@RGYInput@@QEAAXHAEBV?$basic_string@DU?$char_traits@D@std@@V?$allocator@D@2@@std@@@Z@4HA DD 031001H
	DD	0700c4210H
	DD	0500bH
xdata	ENDS
;	COMDAT xdata
xdata	SEGMENT
$ip2state$?AddMessage@RGYInput@@QEAAXHAEBV?$basic_string@DU?$char_traits@D@std@@V?$allocator@D@2@@std@@@Z DB 014H
	DB	00H
	DB	00H
	DB	'q', 02H
	DB	02H
	DB	'6'
	DB	06H
	DB	0c9H, 03H
	DB	08H
	DB	'j'
	DB	0aH
	DB	'h'
	DB	0cH
	DB	'|'
	DB	0aH
	DB	01cH
	DB	08H
	DB	01cH
	DB	06H
	DB	'$'
	DB	00H
xdata	ENDS
;	COMDAT xdata
xdata	SEGMENT
$stateUnwindMap$?AddMessage@RGYInput@@QEAAXHAEBV?$basic_string@DU?$char_traits@D@std@@V?$allocator@D@2@@std@@@Z DB 0cH
	DB	0eH
	DD	imagerel ?dtor$0@?0??AddMessage@RGYInput@@QEAAXHAEBV?$basic_string@DU?$char_traits@D@std@@V?$allocator@D@2@@std@@@Z@4HA
	DB	02eH
	DD	imagerel ?dtor$1@?0??AddMessage@RGYInput@@QEAAXHAEBV?$basic_string@DU?$char_traits@D@std@@V?$allocator@D@2@@std@@@Z@4HA
	DB	05eH
	DD	imagerel ?dtor$1@?0??AddMessage@RGYInput@@QEAAXHAEBV?$basic_string@DU?$char_traits@D@std@@V?$allocator@D@2@@std@@@Z@4HA
	DB	02eH
	DD	imagerel ?dtor$2@?0??AddMessage@RGYInput@@QEAAXHAEBV?$basic_string@DU?$char_traits@D@std@@V?$allocator@D@2@@std@@@Z@4HA
	DB	02eH
	DD	imagerel ?dtor$3@?0??AddMessage@RGYInput@@QEAAXHAEBV?$basic_string@DU?$char_traits@D@std@@V?$allocator@D@2@@std@@@Z@4HA
	DB	02eH
	DD	imagerel ?dtor$4@?0??AddMessage@RGYInput@@QEAAXHAEBV?$basic_string@DU?$char_traits@D@std@@V?$allocator@D@2@@std@@@Z@4HA
xdata	ENDS
;	COMDAT xdata
xdata	SEGMENT
$cppxdata$?AddMessage@RGYInput@@QEAAXHAEBV?$basic_string@DU?$char_traits@D@std@@V?$allocator@D@2@@std@@@Z DB 08H
	DD	imagerel $stateUnwindMap$?AddMessage@RGYInput@@QEAAXHAEBV?$basic_string@DU?$char_traits@D@std@@V?$allocator@D@2@@std@@@Z
	DD	imagerel $ip2state$?AddMessage@RGYInput@@QEAAXHAEBV?$basic_string@DU?$char_traits@D@std@@V?$allocator@D@2@@std@@@Z
xdata	ENDS
;	COMDAT xdata
xdata	SEGMENT
$unwind$?AddMessage@RGYInput@@QEAAXHAEBV?$basic_string@DU?$char_traits@D@std@@V?$allocator@D@2@@std@@@Z DD 033f19H
	DD	02e0116H
	DD	0700fH
	DD	imagerel __GSHandlerCheck_EH4
	DD	imagerel $cppxdata$?AddMessage@RGYInput@@QEAAXHAEBV?$basic_string@DU?$char_traits@D@std@@V?$allocator@D@2@@std@@@Z
	DD	0162H
xdata	ENDS
;	COMDAT CONST
CONST	SEGMENT
?AddMessage@RGYInput@@QEAAXHAEBV?$basic_string@DU?$char_traits@D@std@@V?$allocator@D@2@@std@@@Z$rtcName$0 DB 06cH ; RGYInput::AddMessage
	DB	069H
	DB	06eH
	DB	065H
	DB	073H
	DB	00H
	ORG $+10
?AddMessage@RGYInput@@QEAAXHAEBV?$basic_string@DU?$char_traits@D@std@@V?$allocator@D@2@@std@@@Z$rtcVarDesc DD 028H ; RGYInput::AddMessage
	DD	020H
	DQ	FLAT:?AddMessage@RGYInput@@QEAAXHAEBV?$basic_string@DU?$char_traits@D@std@@V?$allocator@D@2@@std@@@Z$rtcName$0
	ORG $+48
?AddMessage@RGYInput@@QEAAXHAEBV?$basic_string@DU?$char_traits@D@std@@V?$allocator@D@2@@std@@@Z$rtcFrameData DD 01H ; RGYInput::AddMessage
	DD	00H
	DQ	FLAT:?AddMessage@RGYInput@@QEAAXHAEBV?$basic_string@DU?$char_traits@D@std@@V?$allocator@D@2@@std@@@Z$rtcVarDesc
CONST	ENDS
;	COMDAT xdata
xdata	SEGMENT
$unwind$?GetDataTrackCount@RGYInput@@UEAAHXZ DD 010601H
	DD	07006H
xdata	ENDS
;	COMDAT xdata
xdata	SEGMENT
$unwind$?GetSubtitleTrackCount@RGYInput@@UEAAHXZ DD 010601H
	DD	07006H
xdata	ENDS
;	COMDAT xdata
xdata	SEGMENT
$unwind$?GetAudioTrackCount@RGYInput@@UEAAHXZ DD 010601H
	DD	07006H
xdata	ENDS
;	COMDAT xdata
xdata	SEGMENT
$unwind$?GetHeader@RGYInput@@UEAA?AW4RGY_ERR@@PEAURGYBitstream@@@Z DD 010b01H
	DD	0700bH
xdata	ENDS
;	COMDAT xdata
xdata	SEGMENT
$unwind$?GetNextBitstreamNoDelete@RGYInput@@UEAA?AW4RGY_ERR@@PEAURGYBitstream@@@Z DD 010b01H
	DD	0700bH
xdata	ENDS
;	COMDAT xdata
xdata	SEGMENT
$unwind$?GetNextBitstream@RGYInput@@UEAA?AW4RGY_ERR@@PEAURGYBitstream@@@Z DD 010b01H
	DD	0700bH
xdata	ENDS
;	COMDAT xdata
xdata	SEGMENT
$unwind$??_GRGYConvertCSP@@QEAAPEAXI@Z DD 022201H
	DD	0700a320eH
xdata	ENDS
;	COMDAT xdata
xdata	SEGMENT
$unwind$?getFunc@RGYConvertCSP@@QEBAPEBUConvertCSP@@XZ DD 010601H
	DD	07006H
xdata	ENDS
;	COMDAT xdata
xdata	SEGMENT
$ip2state$??$min@PEAE@std@@YAAEBQEAEAEBQEAE0@Z DB 02H
	DB	00H
	DB	00H
xdata	ENDS
;	COMDAT xdata
xdata	SEGMENT
$cppxdata$??$min@PEAE@std@@YAAEBQEAEAEBQEAE0@Z DB 040H
	DD	imagerel $ip2state$??$min@PEAE@std@@YAAEBQEAEAEBQEAE0@Z
xdata	ENDS
;	COMDAT xdata
xdata	SEGMENT
$unwind$??$min@PEAE@std@@YAAEBQEAEAEBQEAE0@Z DD 022319H
	DD	0700b520fH
	DD	imagerel __CxxFrameHandler4
	DD	imagerel $cppxdata$??$min@PEAE@std@@YAAEBQEAEAEBQEAE0@Z
xdata	ENDS
;	COMDAT xdata
xdata	SEGMENT
$unwind$?pitch@RGYFrame@@QEAAIXZ DD 010601H
	DD	07006H
xdata	ENDS
;	COMDAT xdata
xdata	SEGMENT
$unwind$?ptrRGB@RGYFrame@@QEAAPEAEXZ DD 021e01H
	DD	07006520aH
xdata	ENDS
;	COMDAT xdata
xdata	SEGMENT
$unwind$?ptrArray@RGYFrame@@QEAAXQEAPEAX_N@Z DD 022801H
	DD	070105214H
xdata	ENDS
;	COMDAT xdata
xdata	SEGMENT
$unwind$??$?CVRGYLog@@$0A@@?$shared_ptr@VRGYLog@@@std@@QEBAPEAVRGYLog@@XZ DD 021e01H
	DD	07006320aH
xdata	ENDS
;	COMDAT xdata
xdata	SEGMENT
$unwind$?get@?$_Ptr_base@VRGYLog@@@std@@IEBAPEAVRGYLog@@XZ DD 010601H
	DD	07006H
xdata	ENDS
;	COMDAT xdata
xdata	SEGMENT
$unwind$?get@?$_Ptr_base@VEncodeStatus@@@std@@IEBAPEAVEncodeStatus@@XZ DD 010601H
	DD	07006H
xdata	ENDS
;	COMDAT xdata
xdata	SEGMENT
$unwind$?getLogLevel@RGYLog@@QEAAHXZ DD 010601H
	DD	07006H
xdata	ENDS
;	COMDAT xdata
xdata	SEGMENT
$ip2state$??A?$vector@UsTrim@@V?$allocator@UsTrim@@@std@@@std@@QEAAAEAUsTrim@@_K@Z DB 02H
	DB	00H
	DB	00H
xdata	ENDS
;	COMDAT xdata
xdata	SEGMENT
$cppxdata$??A?$vector@UsTrim@@V?$allocator@UsTrim@@@std@@@std@@QEAAAEAUsTrim@@_K@Z DB 040H
	DD	imagerel $ip2state$??A?$vector@UsTrim@@V?$allocator@UsTrim@@@std@@@std@@QEAAAEAUsTrim@@_K@Z
xdata	ENDS
;	COMDAT xdata
xdata	SEGMENT
$unwind$??A?$vector@UsTrim@@V?$allocator@UsTrim@@@std@@@std@@QEAAAEAUsTrim@@_K@Z DD 022319H
	DD	0700b720fH
	DD	imagerel __CxxFrameHandler4
	DD	imagerel $cppxdata$??A?$vector@UsTrim@@V?$allocator@UsTrim@@@std@@@std@@QEAAAEAUsTrim@@_K@Z
xdata	ENDS
;	COMDAT xdata
xdata	SEGMENT
$unwind$?size@?$vector@UsTrim@@V?$allocator@UsTrim@@@std@@@std@@QEBA_KXZ DD 021e01H
	DD	07006120aH
xdata	ENDS
;	COMDAT xdata
xdata	SEGMENT
$unwind$?dtor$0@?0???$?HDU?$char_traits@D@std@@V?$allocator@D@1@@std@@YA?AV?$basic_string@DU?$char_traits@D@std@@V?$allocator@D@2@@0@$$QEAV10@AEBV10@@Z@4HA DD 031001H
	DD	0700c4210H
	DD	0500bH
xdata	ENDS
;	COMDAT xdata
xdata	SEGMENT
$ip2state$??$?HDU?$char_traits@D@std@@V?$allocator@D@1@@std@@YA?AV?$basic_string@DU?$char_traits@D@std@@V?$allocator@D@2@@0@$$QEAV10@AEBV10@@Z DB 04H
	DB	00H
	DB	00H
	DB	0aaH
	DB	02H
xdata	ENDS
;	COMDAT xdata
xdata	SEGMENT
$stateUnwindMap$??$?HDU?$char_traits@D@std@@V?$allocator@D@1@@std@@YA?AV?$basic_string@DU?$char_traits@D@std@@V?$allocator@D@2@@0@$$QEAV10@AEBV10@@Z DB 02H
	DB	0eH
	DD	imagerel ?dtor$0@?0???$?HDU?$char_traits@D@std@@V?$allocator@D@1@@std@@YA?AV?$basic_string@DU?$char_traits@D@std@@V?$allocator@D@2@@0@$$QEAV10@AEBV10@@Z@4HA
xdata	ENDS
;	COMDAT xdata
xdata	SEGMENT
$cppxdata$??$?HDU?$char_traits@D@std@@V?$allocator@D@1@@std@@YA?AV?$basic_string@DU?$char_traits@D@std@@V?$allocator@D@2@@0@$$QEAV10@AEBV10@@Z DB 08H
	DD	imagerel $stateUnwindMap$??$?HDU?$char_traits@D@std@@V?$allocator@D@1@@std@@YA?AV?$basic_string@DU?$char_traits@D@std@@V?$allocator@D@2@@0@$$QEAV10@AEBV10@@Z
	DD	imagerel $ip2state$??$?HDU?$char_traits@D@std@@V?$allocator@D@1@@std@@YA?AV?$basic_string@DU?$char_traits@D@std@@V?$allocator@D@2@@0@$$QEAV10@AEBV10@@Z
xdata	ENDS
;	COMDAT xdata
xdata	SEGMENT
$unwind$??$?HDU?$char_traits@D@std@@V?$allocator@D@1@@std@@YA?AV?$basic_string@DU?$char_traits@D@std@@V?$allocator@D@2@@0@$$QEAV10@AEBV10@@Z DD 022811H
	DD	070105214H
	DD	imagerel __CxxFrameHandler4
	DD	imagerel $cppxdata$??$?HDU?$char_traits@D@std@@V?$allocator@D@1@@std@@YA?AV?$basic_string@DU?$char_traits@D@std@@V?$allocator@D@2@@0@$$QEAV10@AEBV10@@Z
xdata	ENDS
;	COMDAT xdata
xdata	SEGMENT
$unwind$?dtor$0@?0???$?HDU?$char_traits@D@std@@V?$allocator@D@1@@std@@YA?AV?$basic_string@DU?$char_traits@D@std@@V?$allocator@D@2@@0@$$QEAV10@QEBD@Z@4HA DD 031001H
	DD	0700c4210H
	DD	0500bH
xdata	ENDS
;	COMDAT xdata
xdata	SEGMENT
$ip2state$??$?HDU?$char_traits@D@std@@V?$allocator@D@1@@std@@YA?AV?$basic_string@DU?$char_traits@D@std@@V?$allocator@D@2@@0@$$QEAV10@QEBD@Z DB 04H
	DB	00H
	DB	00H
	DB	0aaH
	DB	02H
xdata	ENDS
;	COMDAT xdata
xdata	SEGMENT
$stateUnwindMap$??$?HDU?$char_traits@D@std@@V?$allocator@D@1@@std@@YA?AV?$basic_string@DU?$char_traits@D@std@@V?$allocator@D@2@@0@$$QEAV10@QEBD@Z DB 02H
	DB	0eH
	DD	imagerel ?dtor$0@?0???$?HDU?$char_traits@D@std@@V?$allocator@D@1@@std@@YA?AV?$basic_string@DU?$char_traits@D@std@@V?$allocator@D@2@@0@$$QEAV10@QEBD@Z@4HA
xdata	ENDS
;	COMDAT xdata
xdata	SEGMENT
$cppxdata$??$?HDU?$char_traits@D@std@@V?$allocator@D@1@@std@@YA?AV?$basic_string@DU?$char_traits@D@std@@V?$allocator@D@2@@0@$$QEAV10@QEBD@Z DB 08H
	DD	imagerel $stateUnwindMap$??$?HDU?$char_traits@D@std@@V?$allocator@D@1@@std@@YA?AV?$basic_string@DU?$char_traits@D@std@@V?$allocator@D@2@@0@$$QEAV10@QEBD@Z
	DD	imagerel $ip2state$??$?HDU?$char_traits@D@std@@V?$allocator@D@1@@std@@YA?AV?$basic_string@DU?$char_traits@D@std@@V?$allocator@D@2@@0@$$QEAV10@QEBD@Z
xdata	ENDS
;	COMDAT xdata
xdata	SEGMENT
$unwind$??$?HDU?$char_traits@D@std@@V?$allocator@D@1@@std@@YA?AV?$basic_string@DU?$char_traits@D@std@@V?$allocator@D@2@@0@$$QEAV10@QEBD@Z DD 022811H
	DD	070105214H
	DD	imagerel __CxxFrameHandler4
	DD	imagerel $cppxdata$??$?HDU?$char_traits@D@std@@V?$allocator@D@1@@std@@YA?AV?$basic_string@DU?$char_traits@D@std@@V?$allocator@D@2@@0@$$QEAV10@QEBD@Z
xdata	ENDS
;	COMDAT xdata
xdata	SEGMENT
$unwind$?dtor$1@?0???$?HDU?$char_traits@D@std@@V?$allocator@D@1@@std@@YA?AV?$basic_string@DU?$char_traits@D@std@@V?$allocator@D@2@@0@AEBV10@QEBD@Z@4HA DD 031001H
	DD	0700c4210H
	DD	0500bH
xdata	ENDS
;	COMDAT xdata
xdata	SEGMENT
$unwind$?dtor$0@?0???$?HDU?$char_traits@D@std@@V?$allocator@D@1@@std@@YA?AV?$basic_string@DU?$char_traits@D@std@@V?$allocator@D@2@@0@AEBV10@QEBD@Z@4HA DD 031001H
	DD	0700c4210H
	DD	0500bH
xdata	ENDS
;	COMDAT xdata
xdata	SEGMENT
$ip2state$??$?HDU?$char_traits@D@std@@V?$allocator@D@1@@std@@YA?AV?$basic_string@DU?$char_traits@D@std@@V?$allocator@D@2@@0@AEBV10@QEBD@Z DB 06H
	DB	00H
	DB	00H
	DB	0a0H
	DB	04H
	DB	01H, 02H
	DB	02H
xdata	ENDS
;	COMDAT xdata
xdata	SEGMENT
$stateUnwindMap$??$?HDU?$char_traits@D@std@@V?$allocator@D@1@@std@@YA?AV?$basic_string@DU?$char_traits@D@std@@V?$allocator@D@2@@0@AEBV10@QEBD@Z DB 04H
	DB	0eH
	DD	imagerel ?dtor$1@?0???$?HDU?$char_traits@D@std@@V?$allocator@D@1@@std@@YA?AV?$basic_string@DU?$char_traits@D@std@@V?$allocator@D@2@@0@AEBV10@QEBD@Z@4HA
	DB	02eH
	DD	imagerel ?dtor$0@?0???$?HDU?$char_traits@D@std@@V?$allocator@D@1@@std@@YA?AV?$basic_string@DU?$char_traits@D@std@@V?$allocator@D@2@@0@AEBV10@QEBD@Z@4HA
xdata	ENDS
;	COMDAT xdata
xdata	SEGMENT
$cppxdata$??$?HDU?$char_traits@D@std@@V?$allocator@D@1@@std@@YA?AV?$basic_string@DU?$char_traits@D@std@@V?$allocator@D@2@@0@AEBV10@QEBD@Z DB 08H
	DD	imagerel $stateUnwindMap$??$?HDU?$char_traits@D@std@@V?$allocator@D@1@@std@@YA?AV?$basic_string@DU?$char_traits@D@std@@V?$allocator@D@2@@0@AEBV10@QEBD@Z
	DD	imagerel $ip2state$??$?HDU?$char_traits@D@std@@V?$allocator@D@1@@std@@YA?AV?$basic_string@DU?$char_traits@D@std@@V?$allocator@D@2@@0@AEBV10@QEBD@Z
xdata	ENDS
;	COMDAT xdata
xdata	SEGMENT
$unwind$??$?HDU?$char_traits@D@std@@V?$allocator@D@1@@std@@YA?AV?$basic_string@DU?$char_traits@D@std@@V?$allocator@D@2@@0@AEBV10@QEBD@Z DD 023d19H
	DD	07010f217H
	DD	imagerel __GSHandlerCheck_EH4
	DD	imagerel $cppxdata$??$?HDU?$char_traits@D@std@@V?$allocator@D@1@@std@@YA?AV?$basic_string@DU?$char_traits@D@std@@V?$allocator@D@2@@0@AEBV10@QEBD@Z
	DD	072H
xdata	ENDS
;	COMDAT CONST
CONST	SEGMENT
??$?HDU?$char_traits@D@std@@V?$allocator@D@1@@std@@YA?AV?$basic_string@DU?$char_traits@D@std@@V?$allocator@D@2@@0@AEBV10@QEBD@Z$rtcName$0 DB 05fH ; std::operator+<char,std::char_traits<char>,std::allocator<char> >
	DB	041H
	DB	06eH
	DB	073H
	DB	00H
	ORG $+11
??$?HDU?$char_traits@D@std@@V?$allocator@D@1@@std@@YA?AV?$basic_string@DU?$char_traits@D@std@@V?$allocator@D@2@@0@AEBV10@QEBD@Z$rtcVarDesc DD 028H ; std::operator+<char,std::char_traits<char>,std::allocator<char> >
	DD	028H
	DQ	FLAT:??$?HDU?$char_traits@D@std@@V?$allocator@D@1@@std@@YA?AV?$basic_string@DU?$char_traits@D@std@@V?$allocator@D@2@@0@AEBV10@QEBD@Z$rtcName$0
	ORG $+48
??$?HDU?$char_traits@D@std@@V?$allocator@D@1@@std@@YA?AV?$basic_string@DU?$char_traits@D@std@@V?$allocator@D@2@@0@AEBV10@QEBD@Z$rtcFrameData DD 01H ; std::operator+<char,std::char_traits<char>,std::allocator<char> >
	DD	00H
	DQ	FLAT:??$?HDU?$char_traits@D@std@@V?$allocator@D@1@@std@@YA?AV?$basic_string@DU?$char_traits@D@std@@V?$allocator@D@2@@0@AEBV10@QEBD@Z$rtcVarDesc
CONST	ENDS
;	COMDAT xdata
xdata	SEGMENT
$unwind$??__ECspColorprimList@@YAXXZ DD 042b19H
	DD	023010aH
	DD	060027003H
	DD	imagerel __GSHandlerCheck
	DD	0108H
xdata	ENDS
;	COMDAT xdata
xdata	SEGMENT
$unwind$??$make_array@W4CspColorprim@@W41@W41@W41@W41@W41@W41@W41@W41@W41@W41@W41@W41@@@YA?AV?$array@W4CspColorprim@@$0M@@std@@$$QEAW4CspColorprim@@00000000000@Z DD 033d19H
	DD	07016821aH
	DD	06015H
	DD	imagerel __GSHandlerCheck
	DD	038H
xdata	ENDS
;	COMDAT xdata
xdata	SEGMENT
$unwind$??__ECspTransferList@@YAXXZ DD 042b19H
	DD	02b010aH
	DD	060027003H
	DD	imagerel __GSHandlerCheck
	DD	0148H
xdata	ENDS
;	COMDAT xdata
xdata	SEGMENT
$unwind$??$make_array@W4CspTransfer@@W41@W41@W41@W41@W41@W41@W41@W41@W41@W41@W41@W41@W41@W41@W41@@@YA?AV?$array@W4CspTransfer@@$0P@@std@@$$QEAW4CspTransfer@@00000000000000@Z DD 033d19H
	DD	07016a21aH
	DD	06015H
	DD	imagerel __GSHandlerCheck
	DD	048H
xdata	ENDS
;	COMDAT xdata
xdata	SEGMENT
$unwind$??__ECspMatrixList@@YAXXZ DD 042b19H
	DD	029010aH
	DD	060027003H
	DD	imagerel __GSHandlerCheck
	DD	0130H
xdata	ENDS
;	COMDAT xdata
xdata	SEGMENT
$unwind$??$make_array@W4CspMatrix@@W41@W41@W41@W41@W41@W41@W41@W41@W41@W41@W41@W41@W41@W41@@@YA?AV?$array@W4CspMatrix@@$0O@@std@@$$QEAW4CspMatrix@@0000000000000@Z DD 033d19H
	DD	07016a21aH
	DD	06015H
	DD	imagerel __GSHandlerCheck
	DD	040H
xdata	ENDS
;	COMDAT xdata
xdata	SEGMENT
$unwind$??Raligned_malloc_deleter@@QEBAXPEAX@Z DD 022301H
	DD	0700b320fH
xdata	ENDS
xdata	SEGMENT
$unwind$??I@YA?AW4RGY_PICSTRUCT@@W40@0@Z DD 010901H
	DD	07009H
$unwind$??0RGYInputRaw@@QEAA@XZ DD 021e11H
	DD	07006320aH
	DD	imagerel __CxxFrameHandler4
	DD	imagerel $cppxdata$??0RGYInputRaw@@QEAA@XZ
$cppxdata$??0RGYInputRaw@@QEAA@XZ DB 08H
	DD	imagerel $stateUnwindMap$??0RGYInputRaw@@QEAA@XZ
	DD	imagerel $ip2state$??0RGYInputRaw@@QEAA@XZ
$stateUnwindMap$??0RGYInputRaw@@QEAA@XZ DB 04H
	DB	0eH
	DD	imagerel ?dtor$0@?0???0RGYInputRaw@@QEAA@XZ@4HA
	DB	02eH
	DD	imagerel ?dtor$1@?0???0RGYInputRaw@@QEAA@XZ@4HA
$ip2state$??0RGYInputRaw@@QEAA@XZ DB 08H
	DB	00H
	DB	00H
	DB	'R'
	DB	02H
	DB	084H
	DB	04H
	DB	'6'
	DB	00H
$cppxdata$??1RGYInputRaw@@UEAA@XZ DB 048H
	DD	imagerel $stateUnwindMap$??1RGYInputRaw@@UEAA@XZ
	DD	imagerel $ip2state$??1RGYInputRaw@@UEAA@XZ
$ip2state$??1RGYInputRaw@@UEAA@XZ DB 08H
	DB	00H
	DB	00H
	DB	'Z'
	DB	04H
	DB	016H
	DB	02H
	DB	'('
	DB	00H
$cppxdata$?Init@RGYInputRaw@@MEAA?AW4RGY_ERR@@PEBDPEAUVideoInfo@@PEBVRGYInputPrm@@@Z DB 08H
	DD	imagerel $stateUnwindMap$?Init@RGYInputRaw@@MEAA?AW4RGY_ERR@@PEBDPEAUVideoInfo@@PEBVRGYInputPrm@@@Z
	DD	imagerel $ip2state$?Init@RGYInputRaw@@MEAA?AW4RGY_ERR@@PEBDPEAUVideoInfo@@PEBVRGYInputPrm@@@Z
$unwind$?dtor$0@?0???0RGYInputRaw@@QEAA@XZ@4HA DD 031001H
	DD	0700c4210H
	DD	0500bH
$unwind$?dtor$1@?0???0RGYInputRaw@@QEAA@XZ@4HA DD 031001H
	DD	0700c4210H
	DD	0500bH
$unwind$??1RGYInputRaw@@UEAA@XZ DD 021e19H
	DD	07006320aH
	DD	imagerel __CxxFrameHandler4
	DD	imagerel $cppxdata$??1RGYInputRaw@@UEAA@XZ
$stateUnwindMap$??1RGYInputRaw@@UEAA@XZ DB 04H
	DB	0eH
	DD	imagerel ?dtor$0@?0???1RGYInputRaw@@UEAA@XZ@4HA
	DB	02eH
	DD	imagerel ?dtor$1@?0???1RGYInputRaw@@UEAA@XZ@4HA
$ip2state$?Init@RGYInputRaw@@MEAA?AW4RGY_ERR@@PEBDPEAUVideoInfo@@PEBVRGYInputPrm@@@Z DB 010H
	DB	00H
	DB	00H
	DB	0a1H, 03H
	DB	02H
	DB	'>'
	DB	00H
	DB	'm', 0cH
	DB	02H
	DB	04H
	DB	00H
	DB	0a9H, 0bH
	DB	04H
	DB	'>'
	DB	00H
	DB	0cdH, 0bH
	DB	02H
$unwind$?dtor$0@?0???1RGYInputRaw@@UEAA@XZ@4HA DD 031001H
	DD	0700c4210H
	DD	0500bH
$unwind$?dtor$1@?0???1RGYInputRaw@@UEAA@XZ@4HA DD 031001H
	DD	0700c4210H
	DD	0500bH
$unwind$?LoadNextFrame@RGYInputRaw@@UEAA?AW4RGY_ERR@@PEAURGYFrame@@@Z DD 033b19H
	DD	02a0112H
	DD	0700bH
	DD	imagerel __GSHandlerCheck
	DD	0148H
$unwind$?Close@RGYInputRaw@@UEAAXXZ DD 021e01H
	DD	07006320aH
