; Listing generated by Microsoft (R) Optimizing Compiler Version 19.23.28106.4 

include listing.inc

INCLUDELIB MSVCRTD
INCLUDELIB OLDNAMES

CONST	SEGMENT
$SG110547 DB	'Invalid', 00H
$SG110548 DB	'nv12', 00H
	ORG $+3
$SG110549 DB	'yv12', 00H
	ORG $+3
$SG110550 DB	'yuy2', 00H
	ORG $+3
$SG110551 DB	'yuv422', 00H
	ORG $+1
$SG110552 DB	'nv16', 00H
	ORG $+3
$SG110553 DB	'yuv444', 00H
	ORG $+1
$SG110554 DB	'yv12(9bit)', 00H
	ORG $+1
$SG110579 DB	'rgb', 00H
$SG110555 DB	'yv12(10bit)', 00H
$SG110581 DB	'gbr', 00H
$SG110556 DB	'yv12(12bit)', 00H
$SG110584 DB	'y8', 00H
	ORG $+1
$SG110557 DB	'yv12(14bit)', 00H
$SG111529 DB	'VP8', 00H
$SG110558 DB	'yv12(16bit)', 00H
$SG110559 DB	'p010', 00H
	ORG $+3
$SG110573 DB	'rgb24r', 00H
	ORG $+1
$SG111531 DB	'VP9', 00H
$SG110560 DB	'yuv422(9bit)', 00H
	ORG $+3
$SG110561 DB	'yuv422(10bit)', 00H
	ORG $+2
$SG110562 DB	'yuv422(12bit)', 00H
	ORG $+2
$SG110563 DB	'yuv422(14bit)', 00H
	ORG $+2
$SG110564 DB	'yuv422(16bit)', 00H
	ORG $+2
$SG110565 DB	'p210', 00H
	ORG $+3
$SG110566 DB	'yuv444(9bit)', 00H
	ORG $+3
$SG110567 DB	'yuv444(10bit)', 00H
	ORG $+2
$SG110568 DB	'yuv444(12bit)', 00H
	ORG $+2
$SG110569 DB	'yuv444(14bit)', 00H
	ORG $+2
$SG110570 DB	'yuv444(16bit)', 00H
	ORG $+2
$SG110571 DB	'yuva444', 00H
$SG110572 DB	'yuva444(16bit)', 00H
	ORG $+1
$SG110574 DB	'rgb32r', 00H
	ORG $+1
$SG110575 DB	'rgb24', 00H
	ORG $+2
$SG110576 DB	'rgb32', 00H
	ORG $+2
$SG110577 DB	'bgr24', 00H
	ORG $+2
$SG110578 DB	'bgr32', 00H
	ORG $+2
$SG110580 DB	'rgba', 00H
	ORG $+3
$SG110582 DB	'gbra', 00H
	ORG $+3
$SG110583 DB	'yc48', 00H
	ORG $+3
$SG110585 DB	'yc16', 00H
	ORG $+3
$SG111517 DB	'H.264/AVC', 00H
	ORG $+2
$SG112142 DB	'fcc', 00H
$SG111519 DB	'H.265/HEVC', 00H
	ORG $+1
$SG111521 DB	'MPEG2', 00H
	ORG $+2
$SG111523 DB	'MPEG1', 00H
	ORG $+2
$SG111525 DB	'VC-1', 00H
	ORG $+3
$SG111527 DB	'MPEG4', 00H
	ORG $+2
$SG112143 DB	'GBR', 00H
$SG111533 DB	'unknown', 00H
$SG111640 DB	'unknown', 00H
?list_colormatrix@@3QBUCX_DESC@@B DQ FLAT:$SG112135	; list_colormatrix
	DD	02H
	ORG $+4
	DQ	FLAT:$SG112136
	DD	07fffffffH
	ORG $+4
	DQ	FLAT:$SG112137
	DD	01H
	ORG $+4
	DQ	FLAT:$SG112138
	DD	06H
	ORG $+4
	DQ	FLAT:$SG112139
	DD	05H
	ORG $+4
	DQ	FLAT:$SG112140
	DD	07H
	ORG $+4
	DQ	FLAT:$SG112141
	DD	08H
	ORG $+4
	DQ	FLAT:$SG112142
	DD	04H
	ORG $+4
	DQ	FLAT:$SG112143
	DD	00H
	ORG $+4
	DQ	FLAT:$SG112144
	DD	09H
	ORG $+4
	DQ	FLAT:$SG112145
	DD	0aH
	ORG $+4
	DQ	FLAT:$SG112146
	DD	0cH
	ORG $+4
	DQ	FLAT:$SG112147
	DD	0dH
	ORG $+4
	DQ	FLAT:$SG112148
	DD	0eH
	ORG $+4
	DQ	FLAT:$SG112149
	DD	0fH
	ORG $+4
	DQ	0000000000000000H
	DD	00H
	ORG $+4
$SG112135 DB	'undef', 00H
	ORG $+2
$SG112136 DB	'auto', 00H
	ORG $+3
$SG112137 DB	'bt709', 00H
	ORG $+2
$SG112138 DB	'smpte170m', 00H
	ORG $+2
$SG112294 DB	'bt470m', 00H
	ORG $+1
$SG112456 DB	'pal', 00H
$SG112139 DB	'bt470bg', 00H
$SG112140 DB	'smpte240m', 00H
	ORG $+2
$SG112141 DB	'YCgCo', 00H
	ORG $+2
$SG112297 DB	'linear', 00H
	ORG $+1
$SG112458 DB	'mac', 00H
$SG112144 DB	'bt2020nc', 00H
	ORG $+3
$SG112148 DB	'ictco', 00H
	ORG $+2
$SG112298 DB	'log100', 00H
	ORG $+1
$SG112460 DB	'0', 00H
	ORG $+2
$SG112145 DB	'bt2020c', 00H
$SG112146 DB	'derived-ncl', 00H
$SG112461 DB	'1', 00H
	ORG $+2
$SG112147 DB	'derived-cl', 00H
	ORG $+1
$SG112462 DB	'2', 00H
	ORG $+2
$SG112149 DB	'2100-lms', 00H
	ORG $+7
?list_transfer@@3QBUCX_DESC@@B DQ FLAT:$SG112290	; list_transfer
	DD	02H
	ORG $+4
	DQ	FLAT:$SG112291
	DD	07fffffffH
	ORG $+4
	DQ	FLAT:$SG112292
	DD	01H
	ORG $+4
	DQ	FLAT:$SG112293
	DD	06H
	ORG $+4
	DQ	FLAT:$SG112294
	DD	04H
	ORG $+4
	DQ	FLAT:$SG112295
	DD	05H
	ORG $+4
	DQ	FLAT:$SG112296
	DD	07H
	ORG $+4
	DQ	FLAT:$SG112297
	DD	08H
	ORG $+4
	DQ	FLAT:$SG112298
	DD	09H
	ORG $+4
	DQ	FLAT:$SG112299
	DD	0aH
	ORG $+4
	DQ	FLAT:$SG112300
	DD	0bH
	ORG $+4
	DQ	FLAT:$SG112301
	DD	0cH
	ORG $+4
	DQ	FLAT:$SG112302
	DD	0dH
	ORG $+4
	DQ	FLAT:$SG112303
	DD	0eH
	ORG $+4
	DQ	FLAT:$SG112304
	DD	0fH
	ORG $+4
	DQ	FLAT:$SG112305
	DD	010H
	ORG $+4
	DQ	FLAT:$SG112306
	DD	011H
	ORG $+4
	DQ	FLAT:$SG112307
	DD	012H
	ORG $+4
	DQ	0000000000000000H
	DD	00H
	ORG $+4
$SG112290 DB	'undef', 00H
	ORG $+2
$SG112291 DB	'auto', 00H
	ORG $+3
$SG112292 DB	'bt709', 00H
	ORG $+2
$SG112293 DB	'smpte170m', 00H
	ORG $+2
$SG112299 DB	'log316', 00H
	ORG $+1
$SG112463 DB	'3', 00H
	ORG $+2
$SG112295 DB	'bt470bg', 00H
$SG112296 DB	'smpte240m', 00H
	ORG $+2
$SG112443 DB	'bt470m', 00H
	ORG $+1
$SG112464 DB	'4', 00H
	ORG $+2
$SG112300 DB	'iec61966-2-4', 00H
	ORG $+3
$SG112301 DB	'bt1361e', 00H
$SG112302 DB	'iec61966-2-1', 00H
	ORG $+3
$SG112303 DB	'bt2020-10', 00H
	ORG $+2
$SG112447 DB	'bt2020', 00H
	ORG $+1
$SG112465 DB	'5', 00H
	ORG $+2
$SG112304 DB	'bt2020-12', 00H
	ORG $+2
$SG112469 DB	'tv', 00H
	ORG $+1
$SG112305 DB	'smpte2084', 00H
	ORG $+2
$SG112470 DB	'pc', 00H
	ORG $+1
$SG112306 DB	'smpte428', 00H
	ORG $+3
$SG112439 DB	'undef', 00H
	ORG $+2
$SG113559 DB	'cfr', 00H
$SG112307 DB	'arib-srd-b67', 00H
	ORG $+3
$SG112440 DB	'auto', 00H
	ORG $+3
?list_colorprim@@3QBUCX_DESC@@B DQ FLAT:$SG112439	; list_colorprim
	DD	02H
	ORG $+4
	DQ	FLAT:$SG112440
	DD	07fffffffH
	ORG $+4
	DQ	FLAT:$SG112441
	DD	01H
	ORG $+4
	DQ	FLAT:$SG112442
	DD	06H
	ORG $+4
	DQ	FLAT:$SG112443
	DD	04H
	ORG $+4
	DQ	FLAT:$SG112444
	DD	05H
	ORG $+4
	DQ	FLAT:$SG112445
	DD	07H
	ORG $+4
	DQ	FLAT:$SG112446
	DD	08H
	ORG $+4
	DQ	FLAT:$SG112447
	DD	09H
	ORG $+4
	DQ	FLAT:$SG112448
	DD	0aH
	ORG $+4
	DQ	FLAT:$SG112449
	DD	0bH
	ORG $+4
	DQ	FLAT:$SG112450
	DD	0cH
	ORG $+4
	DQ	FLAT:$SG112451
	DD	0dH
	ORG $+4
	DQ	0000000000000000H
	DD	00H
	ORG $+4
$SG112441 DB	'bt709', 00H
	ORG $+2
$SG112442 DB	'smpte170m', 00H
	ORG $+2
$SG113560 DB	'vfr', 00H
$SG112444 DB	'bt470bg', 00H
$SG112445 DB	'smpte240m', 00H
	ORG $+2
$SG112446 DB	'film', 00H
	ORG $+3
$SG112448 DB	'st428', 00H
	ORG $+2
$SG113563 DB	'swr', 00H
$SG112449 DB	'st431-2', 00H
$SG112450 DB	'st432-1', 00H
$SG112451 DB	'ebu3213-e', 00H
	ORG $+6
?list_videoformat@@3QBUCX_DESC@@B DQ FLAT:$SG112453	; list_videoformat
	DD	05H
	ORG $+4
	DQ	FLAT:$SG112454
	DD	02H
	ORG $+4
	DQ	FLAT:$SG112455
	DD	00H
	ORG $+4
	DQ	FLAT:$SG112456
	DD	01H
	ORG $+4
	DQ	FLAT:$SG112457
	DD	03H
	ORG $+4
	DQ	FLAT:$SG112458
	DD	04H
	ORG $+4
	DQ	0000000000000000H
	DD	00H
	ORG $+4
$SG112453 DB	'undef', 00H
	ORG $+2
$SG112454 DB	'ntsc', 00H
	ORG $+3
$SG112455 DB	'component', 00H
	ORG $+2
$SG112457 DB	'secam', 00H
	ORG $+2
$SG122201 DB	'%s', 00H
	ORG $+1
$SG112467 DB	'limited', 00H
$SG112468 DB	'full', 00H
	ORG $+3
$SG113552 DB	'trace', 00H
	ORG $+2
$SG113553 DB	'debug', 00H
	ORG $+2
$SG113554 DB	'more', 00H
	ORG $+3
$SG113555 DB	'info', 00H
	ORG $+3
$SG113556 DB	'warn', 00H
	ORG $+3
$SG113557 DB	'error', 00H
	ORG $+2
$SG113561 DB	'forcecfr', 00H
	ORG $+3
$SG113564 DB	'soxr', 00H
	ORG $+7
$SG113840 DB	'QSVEncC (x64) 3.25 (r0) by happy, Feb 13 2020 01:31:42 ('
	DB	'VC 1923/Win/avx2)', 00H
	ORG $+6
$SG122200 DB	'invalid argument', 00H
	ORG $+15
$SG122202 DB	'C:\Program Files (x86)\Microsoft Visual Studio\2019\Comm'
	DB	'unity\VC\Tools\MSVC\14.23.28105\include\xmemory', 00H
	ORG $+8
$SG122203 DB	'C', 00H, ':', 00H, '\', 00H, 'P', 00H, 'r', 00H, 'o', 00H
	DB	'g', 00H, 'r', 00H, 'a', 00H, 'm', 00H, ' ', 00H, 'F', 00H, 'i'
	DB	00H, 'l', 00H, 'e', 00H, 's', 00H, ' ', 00H, '(', 00H, 'x', 00H
	DB	'8', 00H, '6', 00H, ')', 00H, '\', 00H, 'M', 00H, 'i', 00H, 'c'
	DB	00H, 'r', 00H, 'o', 00H, 's', 00H, 'o', 00H, 'f', 00H, 't', 00H
	DB	' ', 00H, 'V', 00H, 'i', 00H, 's', 00H, 'u', 00H, 'a', 00H, 'l'
	DB	00H, ' ', 00H, 'S', 00H, 't', 00H, 'u', 00H, 'd', 00H, 'i', 00H
	DB	'o', 00H, '\', 00H, '2', 00H, '0', 00H, '1', 00H, '9', 00H, '\'
	DB	00H, 'C', 00H, 'o', 00H, 'm', 00H, 'm', 00H, 'u', 00H, 'n', 00H
	DB	'i', 00H, 't', 00H, 'y', 00H, '\', 00H, 'V', 00H, 'C', 00H, '\'
	DB	00H, 'T', 00H, 'o', 00H, 'o', 00H, 'l', 00H, 's', 00H, '\', 00H
	DB	'M', 00H, 'S', 00H, 'V', 00H, 'C', 00H, '\', 00H, '1', 00H, '4'
	DB	00H, '.', 00H, '2', 00H, '3', 00H, '.', 00H, '2', 00H, '8', 00H
	DB	'1', 00H, '0', 00H, '5', 00H, '\', 00H, 'i', 00H, 'n', 00H, 'c'
	DB	00H, 'l', 00H, 'u', 00H, 'd', 00H, 'e', 00H, '\', 00H, 'x', 00H
	DB	'm', 00H, 'e', 00H, 'm', 00H, 'o', 00H, 'r', 00H, 'y', 00H, 00H
	DB	00H
$SG122204 DB	's', 00H, 't', 00H, 'd', 00H, ':', 00H, ':', 00H, '_', 00H
	DB	'A', 00H, 'l', 00H, 'l', 00H, 'o', 00H, 'c', 00H, 'a', 00H, 't'
	DB	00H, 'e', 00H, '_', 00H, 'm', 00H, 'a', 00H, 'n', 00H, 'u', 00H
	DB	'a', 00H, 'l', 00H, 'l', 00H, 'y', 00H, '_', 00H, 'v', 00H, 'e'
	DB	00H, 'c', 00H, 't', 00H, 'o', 00H, 'r', 00H, '_', 00H, 'a', 00H
	DB	'l', 00H, 'i', 00H, 'g', 00H, 'n', 00H, 'e', 00H, 'd', 00H, 00H
	DB	00H
	ORG $+2
$SG122205 DB	'"', 00H, 'i', 00H, 'n', 00H, 'v', 00H, 'a', 00H, 'l', 00H
	DB	'i', 00H, 'd', 00H, ' ', 00H, 'a', 00H, 'r', 00H, 'g', 00H, 'u'
	DB	00H, 'm', 00H, 'e', 00H, 'n', 00H, 't', 00H, '"', 00H, 00H, 00H
	ORG $+10
$SG122246 DB	'C:\Program Files (x86)\Microsoft Visual Studio\2019\Comm'
	DB	'unity\VC\Tools\MSVC\14.23.28105\include\xlocale', 00H
CONST	ENDS
PUBLIC	?__empty_global_delete@@YAXPEAX@Z		; __empty_global_delete
PUBLIC	?__empty_global_delete@@YAXPEAX_K@Z		; __empty_global_delete
PUBLIC	?get_encoder_version@@YAPEBDXZ			; get_encoder_version
PUBLIC	??$make_array@W4CspMatrix@@W41@W41@W41@W41@W41@W41@W41@W41@W41@W41@W41@W41@W41@W41@@@YA?AV?$array@W4CspMatrix@@$0O@@std@@$$QEAW4CspMatrix@@0000000000000@Z ; make_array<enum CspMatrix,enum CspMatrix,enum CspMatrix,enum CspMatrix,enum CspMatrix,enum CspMatrix,enum CspMatrix,enum CspMatrix,enum CspMatrix,enum CspMatrix,enum CspMatrix,enum CspMatrix,enum CspMatrix,enum CspMatrix,enum CspMatrix>
PUBLIC	??$make_array@W4CspTransfer@@W41@W41@W41@W41@W41@W41@W41@W41@W41@W41@W41@W41@W41@W41@W41@@@YA?AV?$array@W4CspTransfer@@$0P@@std@@$$QEAW4CspTransfer@@00000000000000@Z ; make_array<enum CspTransfer,enum CspTransfer,enum CspTransfer,enum CspTransfer,enum CspTransfer,enum CspTransfer,enum CspTransfer,enum CspTransfer,enum CspTransfer,enum CspTransfer,enum CspTransfer,enum CspTransfer,enum CspTransfer,enum CspTransfer,enum CspTransfer,enum CspTransfer>
PUBLIC	??$make_array@W4CspColorprim@@W41@W41@W41@W41@W41@W41@W41@W41@W41@W41@W41@W41@@@YA?AV?$array@W4CspColorprim@@$0M@@std@@$$QEAW4CspColorprim@@00000000000@Z ; make_array<enum CspColorprim,enum CspColorprim,enum CspColorprim,enum CspColorprim,enum CspColorprim,enum CspColorprim,enum CspColorprim,enum CspColorprim,enum CspColorprim,enum CspColorprim,enum CspColorprim,enum CspColorprim,enum CspColorprim>
EXTRN	_RTC_InitBase:PROC
EXTRN	_RTC_Shutdown:PROC
EXTRN	__GSHandlerCheck:PROC
EXTRN	__security_check_cookie:PROC
EXTRN	__security_cookie:QWORD
_BSS	SEGMENT
?CspMatrixList@@3V?$array@W4CspMatrix@@$0O@@std@@B DB 038H DUP (?) ; CspMatrixList
?CspTransferList@@3V?$array@W4CspTransfer@@$0P@@std@@B DB 03cH DUP (?) ; CspTransferList
?CspColorprimList@@3V?$array@W4CspColorprim@@$0M@@std@@B DB 030H DUP (?) ; CspColorprimList
_BSS	ENDS
;	COMDAT pdata
pdata	SEGMENT
$pdata$?__empty_global_delete@@YAXPEAX@Z DD imagerel $LN3
	DD	imagerel $LN3+8
	DD	imagerel $unwind$?__empty_global_delete@@YAXPEAX@Z
pdata	ENDS
;	COMDAT pdata
pdata	SEGMENT
$pdata$?__empty_global_delete@@YAXPEAX_K@Z DD imagerel $LN3
	DD	imagerel $LN3+13
	DD	imagerel $unwind$?__empty_global_delete@@YAXPEAX_K@Z
pdata	ENDS
pdata	SEGMENT
$pdata$?get_encoder_version@@YAPEBDXZ DD imagerel $LN3
	DD	imagerel $LN3+11
	DD	imagerel $unwind$?get_encoder_version@@YAPEBDXZ
pdata	ENDS
;	COMDAT pdata
pdata	SEGMENT
$pdata$??$make_array@W4CspMatrix@@W41@W41@W41@W41@W41@W41@W41@W41@W41@W41@W41@W41@W41@W41@@@YA?AV?$array@W4CspMatrix@@$0O@@std@@$$QEAW4CspMatrix@@0000000000000@Z DD imagerel $LN3
	DD	imagerel $LN3+297
	DD	imagerel $unwind$??$make_array@W4CspMatrix@@W41@W41@W41@W41@W41@W41@W41@W41@W41@W41@W41@W41@W41@W41@@@YA?AV?$array@W4CspMatrix@@$0O@@std@@$$QEAW4CspMatrix@@0000000000000@Z
pdata	ENDS
;	COMDAT pdata
pdata	SEGMENT
$pdata$??__ECspMatrixList@@YAXXZ DD imagerel ??__ECspMatrixList@@YAXXZ
	DD	imagerel ??__ECspMatrixList@@YAXXZ+452
	DD	imagerel $unwind$??__ECspMatrixList@@YAXXZ
pdata	ENDS
;	COMDAT pdata
pdata	SEGMENT
$pdata$??$make_array@W4CspTransfer@@W41@W41@W41@W41@W41@W41@W41@W41@W41@W41@W41@W41@W41@W41@W41@@@YA?AV?$array@W4CspTransfer@@$0P@@std@@$$QEAW4CspTransfer@@00000000000000@Z DD imagerel $LN3
	DD	imagerel $LN3+311
	DD	imagerel $unwind$??$make_array@W4CspTransfer@@W41@W41@W41@W41@W41@W41@W41@W41@W41@W41@W41@W41@W41@W41@W41@@@YA?AV?$array@W4CspTransfer@@$0P@@std@@$$QEAW4CspTransfer@@00000000000000@Z
pdata	ENDS
;	COMDAT pdata
pdata	SEGMENT
$pdata$??__ECspTransferList@@YAXXZ DD imagerel ??__ECspTransferList@@YAXXZ
	DD	imagerel ??__ECspTransferList@@YAXXZ+476
	DD	imagerel $unwind$??__ECspTransferList@@YAXXZ
pdata	ENDS
;	COMDAT pdata
pdata	SEGMENT
$pdata$??$make_array@W4CspColorprim@@W41@W41@W41@W41@W41@W41@W41@W41@W41@W41@W41@W41@@@YA?AV?$array@W4CspColorprim@@$0M@@std@@$$QEAW4CspColorprim@@00000000000@Z DD imagerel $LN3
	DD	imagerel $LN3+263
	DD	imagerel $unwind$??$make_array@W4CspColorprim@@W41@W41@W41@W41@W41@W41@W41@W41@W41@W41@W41@W41@@@YA?AV?$array@W4CspColorprim@@$0M@@std@@$$QEAW4CspColorprim@@00000000000@Z
pdata	ENDS
;	COMDAT pdata
pdata	SEGMENT
$pdata$??__ECspColorprimList@@YAXXZ DD imagerel ??__ECspColorprimList@@YAXXZ
	DD	imagerel ??__ECspColorprimList@@YAXXZ+398
	DD	imagerel $unwind$??__ECspColorprimList@@YAXXZ
pdata	ENDS
CRT$XCU	SEGMENT
?CspMatrixList$initializer$@@3P6AXXZEA DQ FLAT:??__ECspMatrixList@@YAXXZ ; CspMatrixList$initializer$
CRT$XCU	ENDS
;	COMDAT rtc$TMZ
rtc$TMZ	SEGMENT
_RTC_Shutdown.rtc$TMZ DQ FLAT:_RTC_Shutdown
rtc$TMZ	ENDS
;	COMDAT rtc$IMZ
rtc$IMZ	SEGMENT
_RTC_InitBase.rtc$IMZ DQ FLAT:_RTC_InitBase
rtc$IMZ	ENDS
;	COMDAT xdata
xdata	SEGMENT
$unwind$??__ECspColorprimList@@YAXXZ DD 042b19H
	DD	023010aH
	DD	060027003H
	DD	imagerel __GSHandlerCheck
	DD	0108H
xdata	ENDS
;	COMDAT xdata
xdata	SEGMENT
$unwind$??$make_array@W4CspColorprim@@W41@W41@W41@W41@W41@W41@W41@W41@W41@W41@W41@W41@@@YA?AV?$array@W4CspColorprim@@$0M@@std@@$$QEAW4CspColorprim@@00000000000@Z DD 033d19H
	DD	07016821aH
	DD	06015H
	DD	imagerel __GSHandlerCheck
	DD	038H
xdata	ENDS
;	COMDAT xdata
xdata	SEGMENT
$unwind$??__ECspTransferList@@YAXXZ DD 042b19H
	DD	02b010aH
	DD	060027003H
	DD	imagerel __GSHandlerCheck
	DD	0148H
xdata	ENDS
;	COMDAT xdata
xdata	SEGMENT
$unwind$??$make_array@W4CspTransfer@@W41@W41@W41@W41@W41@W41@W41@W41@W41@W41@W41@W41@W41@W41@W41@@@YA?AV?$array@W4CspTransfer@@$0P@@std@@$$QEAW4CspTransfer@@00000000000000@Z DD 033d19H
	DD	07016a21aH
	DD	06015H
	DD	imagerel __GSHandlerCheck
	DD	048H
xdata	ENDS
;	COMDAT xdata
xdata	SEGMENT
$unwind$??__ECspMatrixList@@YAXXZ DD 042b19H
	DD	029010aH
	DD	060027003H
	DD	imagerel __GSHandlerCheck
	DD	0130H
xdata	ENDS
;	COMDAT xdata
xdata	SEGMENT
$unwind$??$make_array@W4CspMatrix@@W41@W41@W41@W41@W41@W41@W41@W41@W41@W41@W41@W41@W41@W41@@@YA?AV?$array@W4CspMatrix@@$0O@@std@@$$QEAW4CspMatrix@@0000000000000@Z DD 033d19H
	DD	07016a21aH
	DD	06015H
	DD	imagerel __GSHandlerCheck
	DD	040H
xdata	ENDS
xdata	SEGMENT
$unwind$?get_encoder_version@@YAPEBDXZ DD 010201H
	DD	07002H
xdata	ENDS
;	COMDAT xdata
xdata	SEGMENT
$unwind$?__empty_global_delete@@YAXPEAX_K@Z DD 010b01H
	DD	0700bH
xdata	ENDS
;	COMDAT xdata
xdata	SEGMENT
$unwind$?__empty_global_delete@@YAXPEAX@Z DD 010601H
	DD	07006H
xdata	ENDS
CRT$XCU	SEGMENT
?CspTransferList$initializer$@@3P6AXXZEA DQ FLAT:??__ECspTransferList@@YAXXZ ; CspTransferList$initializer$
CRT$XCU	ENDS
CRT$XCU	SEGMENT
?CspColorprimList$initializer$@@3P6AXXZEA DQ FLAT:??__ECspColorprimList@@YAXXZ ; CspColorprimList$initializer$
CRT$XCU	ENDS
; Function compile flags: /Odtp /RTCsu
; File D:\work\intel\intel_codec\QSVPipeline\rgy_util.h
;	COMDAT ??__ECspColorprimList@@YAXXZ
text$di	SEGMENT
$T1 = 112
$T2 = 168
$T3 = 172
$T4 = 176
$T5 = 180
$T6 = 184
$T7 = 188
$T8 = 192
$T9 = 196
$T10 = 200
$T11 = 204
$T12 = 208
$T13 = 212
$T14 = 216
__$ArrayPad$ = 264
??__ECspColorprimList@@YAXXZ PROC			; `dynamic initializer for 'CspColorprimList'', COMDAT

; 1187 : );

  00000	40 56		 push	 rsi
  00002	57		 push	 rdi
  00003	48 81 ec 18 01
	00 00		 sub	 rsp, 280		; 00000118H
  0000a	48 8b fc	 mov	 rdi, rsp
  0000d	b9 46 00 00 00	 mov	 ecx, 70			; 00000046H
  00012	b8 cc cc cc cc	 mov	 eax, -858993460		; ccccccccH
  00017	f3 ab		 rep stosd
  00019	48 8b 05 00 00
	00 00		 mov	 rax, QWORD PTR __security_cookie
  00020	48 33 c4	 xor	 rax, rsp
  00023	48 89 84 24 08
	01 00 00	 mov	 QWORD PTR __$ArrayPad$[rsp], rax

; 1174 : static const auto CspColorprimList = make_array<CspColorprim>(

  0002b	c7 84 24 a8 00
	00 00 0d 00 00
	00		 mov	 DWORD PTR $T2[rsp], 13
  00036	c7 84 24 ac 00
	00 00 0c 00 00
	00		 mov	 DWORD PTR $T3[rsp], 12
  00041	c7 84 24 b0 00
	00 00 0b 00 00
	00		 mov	 DWORD PTR $T4[rsp], 11
  0004c	c7 84 24 b4 00
	00 00 0a 00 00
	00		 mov	 DWORD PTR $T5[rsp], 10
  00057	c7 84 24 b8 00
	00 00 09 00 00
	00		 mov	 DWORD PTR $T6[rsp], 9
  00062	c7 84 24 bc 00
	00 00 08 00 00
	00		 mov	 DWORD PTR $T7[rsp], 8
  0006d	c7 84 24 c0 00
	00 00 07 00 00
	00		 mov	 DWORD PTR $T8[rsp], 7
  00078	c7 84 24 c4 00
	00 00 06 00 00
	00		 mov	 DWORD PTR $T9[rsp], 6
  00083	c7 84 24 c8 00
	00 00 05 00 00
	00		 mov	 DWORD PTR $T10[rsp], 5
  0008e	c7 84 24 cc 00
	00 00 04 00 00
	00		 mov	 DWORD PTR $T11[rsp], 4
  00099	c7 84 24 d0 00
	00 00 02 00 00
	00		 mov	 DWORD PTR $T12[rsp], 2
  000a4	c7 84 24 d4 00
	00 00 01 00 00
	00		 mov	 DWORD PTR $T13[rsp], 1
  000af	48 8d 84 24 a8
	00 00 00	 lea	 rax, QWORD PTR $T2[rsp]
  000b7	48 89 44 24 60	 mov	 QWORD PTR [rsp+96], rax
  000bc	48 8d 84 24 ac
	00 00 00	 lea	 rax, QWORD PTR $T3[rsp]
  000c4	48 89 44 24 58	 mov	 QWORD PTR [rsp+88], rax
  000c9	48 8d 84 24 b0
	00 00 00	 lea	 rax, QWORD PTR $T4[rsp]
  000d1	48 89 44 24 50	 mov	 QWORD PTR [rsp+80], rax
  000d6	48 8d 84 24 b4
	00 00 00	 lea	 rax, QWORD PTR $T5[rsp]
  000de	48 89 44 24 48	 mov	 QWORD PTR [rsp+72], rax
  000e3	48 8d 84 24 b8
	00 00 00	 lea	 rax, QWORD PTR $T6[rsp]
  000eb	48 89 44 24 40	 mov	 QWORD PTR [rsp+64], rax
  000f0	48 8d 84 24 bc
	00 00 00	 lea	 rax, QWORD PTR $T7[rsp]
  000f8	48 89 44 24 38	 mov	 QWORD PTR [rsp+56], rax
  000fd	48 8d 84 24 c0
	00 00 00	 lea	 rax, QWORD PTR $T8[rsp]
  00105	48 89 44 24 30	 mov	 QWORD PTR [rsp+48], rax
  0010a	48 8d 84 24 c4
	00 00 00	 lea	 rax, QWORD PTR $T9[rsp]
  00112	48 89 44 24 28	 mov	 QWORD PTR [rsp+40], rax
  00117	48 8d 84 24 c8
	00 00 00	 lea	 rax, QWORD PTR $T10[rsp]
  0011f	48 89 44 24 20	 mov	 QWORD PTR [rsp+32], rax
  00124	4c 8d 8c 24 cc
	00 00 00	 lea	 r9, QWORD PTR $T11[rsp]
  0012c	4c 8d 84 24 d0
	00 00 00	 lea	 r8, QWORD PTR $T12[rsp]
  00134	48 8d 94 24 d4
	00 00 00	 lea	 rdx, QWORD PTR $T13[rsp]
  0013c	48 8d 8c 24 d8
	00 00 00	 lea	 rcx, QWORD PTR $T14[rsp]
  00144	e8 00 00 00 00	 call	 ??$make_array@W4CspColorprim@@W41@W41@W41@W41@W41@W41@W41@W41@W41@W41@W41@W41@@@YA?AV?$array@W4CspColorprim@@$0M@@std@@$$QEAW4CspColorprim@@00000000000@Z ; make_array<enum CspColorprim,enum CspColorprim,enum CspColorprim,enum CspColorprim,enum CspColorprim,enum CspColorprim,enum CspColorprim,enum CspColorprim,enum CspColorprim,enum CspColorprim,enum CspColorprim,enum CspColorprim,enum CspColorprim>
  00149	48 8d 4c 24 70	 lea	 rcx, QWORD PTR $T1[rsp]
  0014e	48 8b f9	 mov	 rdi, rcx
  00151	48 8b f0	 mov	 rsi, rax
  00154	b9 30 00 00 00	 mov	 ecx, 48			; 00000030H
  00159	f3 a4		 rep movsb
  0015b	48 8d 05 00 00
	00 00		 lea	 rax, OFFSET FLAT:?CspColorprimList@@3V?$array@W4CspColorprim@@$0M@@std@@B
  00162	48 8d 4c 24 70	 lea	 rcx, QWORD PTR $T1[rsp]
  00167	48 8b f8	 mov	 rdi, rax
  0016a	48 8b f1	 mov	 rsi, rcx
  0016d	b9 30 00 00 00	 mov	 ecx, 48			; 00000030H
  00172	f3 a4		 rep movsb
  00174	48 8b 8c 24 08
	01 00 00	 mov	 rcx, QWORD PTR __$ArrayPad$[rsp]
  0017c	48 33 cc	 xor	 rcx, rsp
  0017f	e8 00 00 00 00	 call	 __security_check_cookie
  00184	48 81 c4 18 01
	00 00		 add	 rsp, 280		; 00000118H
  0018b	5f		 pop	 rdi
  0018c	5e		 pop	 rsi
  0018d	c3		 ret	 0
??__ECspColorprimList@@YAXXZ ENDP			; `dynamic initializer for 'CspColorprimList''
text$di	ENDS
; Function compile flags: /Odtp /RTCsu
; File D:\work\intel\intel_codec\QSVPipeline\rgy_util.h
;	COMDAT ??$make_array@W4CspColorprim@@W41@W41@W41@W41@W41@W41@W41@W41@W41@W41@W41@W41@@@YA?AV?$array@W4CspColorprim@@$0M@@std@@$$QEAW4CspColorprim@@00000000000@Z
_TEXT	SEGMENT
$T1 = 0
__$ArrayPad$ = 56
$T2 = 96
<args_0>$ = 104
<args_1>$ = 112
<args_2>$ = 120
<args_3>$ = 128
<args_4>$ = 136
<args_5>$ = 144
<args_6>$ = 152
<args_7>$ = 160
<args_8>$ = 168
<args_9>$ = 176
<args_10>$ = 184
<args_11>$ = 192
??$make_array@W4CspColorprim@@W41@W41@W41@W41@W41@W41@W41@W41@W41@W41@W41@W41@@@YA?AV?$array@W4CspColorprim@@$0M@@std@@$$QEAW4CspColorprim@@00000000000@Z PROC ; make_array<enum CspColorprim,enum CspColorprim,enum CspColorprim,enum CspColorprim,enum CspColorprim,enum CspColorprim,enum CspColorprim,enum CspColorprim,enum CspColorprim,enum CspColorprim,enum CspColorprim,enum CspColorprim,enum CspColorprim>, COMDAT

; 129  : constexpr std::array<T, sizeof...(Args)> make_array(Args&&... args) {

$LN3:
  00000	4c 89 4c 24 20	 mov	 QWORD PTR [rsp+32], r9
  00005	4c 89 44 24 18	 mov	 QWORD PTR [rsp+24], r8
  0000a	48 89 54 24 10	 mov	 QWORD PTR [rsp+16], rdx
  0000f	48 89 4c 24 08	 mov	 QWORD PTR [rsp+8], rcx
  00014	56		 push	 rsi
  00015	57		 push	 rdi
  00016	48 83 ec 48	 sub	 rsp, 72			; 00000048H
  0001a	48 8b fc	 mov	 rdi, rsp
  0001d	b9 12 00 00 00	 mov	 ecx, 18
  00022	b8 cc cc cc cc	 mov	 eax, -858993460		; ccccccccH
  00027	f3 ab		 rep stosd
  00029	48 8b 4c 24 60	 mov	 rcx, QWORD PTR [rsp+96]
  0002e	48 8b 05 00 00
	00 00		 mov	 rax, QWORD PTR __security_cookie
  00035	48 33 c4	 xor	 rax, rsp
  00038	48 89 44 24 38	 mov	 QWORD PTR __$ArrayPad$[rsp], rax

; 130  :     return std::array<T, sizeof...(Args)>{ static_cast<Args&&>(args)... };

  0003d	48 8b 44 24 68	 mov	 rax, QWORD PTR <args_0>$[rsp]
  00042	8b 00		 mov	 eax, DWORD PTR [rax]
  00044	89 04 24	 mov	 DWORD PTR $T1[rsp], eax
  00047	48 8b 44 24 70	 mov	 rax, QWORD PTR <args_1>$[rsp]
  0004c	8b 00		 mov	 eax, DWORD PTR [rax]
  0004e	89 44 24 04	 mov	 DWORD PTR $T1[rsp+4], eax
  00052	48 8b 44 24 78	 mov	 rax, QWORD PTR <args_2>$[rsp]
  00057	8b 00		 mov	 eax, DWORD PTR [rax]
  00059	89 44 24 08	 mov	 DWORD PTR $T1[rsp+8], eax
  0005d	48 8b 84 24 80
	00 00 00	 mov	 rax, QWORD PTR <args_3>$[rsp]
  00065	8b 00		 mov	 eax, DWORD PTR [rax]
  00067	89 44 24 0c	 mov	 DWORD PTR $T1[rsp+12], eax
  0006b	48 8b 84 24 88
	00 00 00	 mov	 rax, QWORD PTR <args_4>$[rsp]
  00073	8b 00		 mov	 eax, DWORD PTR [rax]
  00075	89 44 24 10	 mov	 DWORD PTR $T1[rsp+16], eax
  00079	48 8b 84 24 90
	00 00 00	 mov	 rax, QWORD PTR <args_5>$[rsp]
  00081	8b 00		 mov	 eax, DWORD PTR [rax]
  00083	89 44 24 14	 mov	 DWORD PTR $T1[rsp+20], eax
  00087	48 8b 84 24 98
	00 00 00	 mov	 rax, QWORD PTR <args_6>$[rsp]
  0008f	8b 00		 mov	 eax, DWORD PTR [rax]
  00091	89 44 24 18	 mov	 DWORD PTR $T1[rsp+24], eax
  00095	48 8b 84 24 a0
	00 00 00	 mov	 rax, QWORD PTR <args_7>$[rsp]
  0009d	8b 00		 mov	 eax, DWORD PTR [rax]
  0009f	89 44 24 1c	 mov	 DWORD PTR $T1[rsp+28], eax
  000a3	48 8b 84 24 a8
	00 00 00	 mov	 rax, QWORD PTR <args_8>$[rsp]
  000ab	8b 00		 mov	 eax, DWORD PTR [rax]
  000ad	89 44 24 20	 mov	 DWORD PTR $T1[rsp+32], eax
  000b1	48 8b 84 24 b0
	00 00 00	 mov	 rax, QWORD PTR <args_9>$[rsp]
  000b9	8b 00		 mov	 eax, DWORD PTR [rax]
  000bb	89 44 24 24	 mov	 DWORD PTR $T1[rsp+36], eax
  000bf	48 8b 84 24 b8
	00 00 00	 mov	 rax, QWORD PTR <args_10>$[rsp]
  000c7	8b 00		 mov	 eax, DWORD PTR [rax]
  000c9	89 44 24 28	 mov	 DWORD PTR $T1[rsp+40], eax
  000cd	48 8b 84 24 c0
	00 00 00	 mov	 rax, QWORD PTR <args_11>$[rsp]
  000d5	8b 00		 mov	 eax, DWORD PTR [rax]
  000d7	89 44 24 2c	 mov	 DWORD PTR $T1[rsp+44], eax
  000db	48 8d 04 24	 lea	 rax, QWORD PTR $T1[rsp]
  000df	48 8b 7c 24 60	 mov	 rdi, QWORD PTR $T2[rsp]
  000e4	48 8b f0	 mov	 rsi, rax
  000e7	b9 30 00 00 00	 mov	 ecx, 48			; 00000030H
  000ec	f3 a4		 rep movsb
  000ee	48 8b 44 24 60	 mov	 rax, QWORD PTR $T2[rsp]

; 131  : }

  000f3	48 8b 4c 24 38	 mov	 rcx, QWORD PTR __$ArrayPad$[rsp]
  000f8	48 33 cc	 xor	 rcx, rsp
  000fb	e8 00 00 00 00	 call	 __security_check_cookie
  00100	48 83 c4 48	 add	 rsp, 72			; 00000048H
  00104	5f		 pop	 rdi
  00105	5e		 pop	 rsi
  00106	c3		 ret	 0
??$make_array@W4CspColorprim@@W41@W41@W41@W41@W41@W41@W41@W41@W41@W41@W41@W41@@@YA?AV?$array@W4CspColorprim@@$0M@@std@@$$QEAW4CspColorprim@@00000000000@Z ENDP ; make_array<enum CspColorprim,enum CspColorprim,enum CspColorprim,enum CspColorprim,enum CspColorprim,enum CspColorprim,enum CspColorprim,enum CspColorprim,enum CspColorprim,enum CspColorprim,enum CspColorprim,enum CspColorprim,enum CspColorprim>
_TEXT	ENDS
; Function compile flags: /Odtp /RTCsu
; File D:\work\intel\intel_codec\QSVPipeline\rgy_util.h
;	COMDAT ??__ECspTransferList@@YAXXZ
text$di	SEGMENT
$T1 = 128
$T2 = 200
$T3 = 204
$T4 = 208
$T5 = 212
$T6 = 216
$T7 = 220
$T8 = 224
$T9 = 228
$T10 = 232
$T11 = 236
$T12 = 240
$T13 = 244
$T14 = 248
$T15 = 252
$T16 = 256
$T17 = 264
__$ArrayPad$ = 328
??__ECspTransferList@@YAXXZ PROC			; `dynamic initializer for 'CspTransferList'', COMDAT

; 1135 : );

  00000	40 56		 push	 rsi
  00002	57		 push	 rdi
  00003	48 81 ec 58 01
	00 00		 sub	 rsp, 344		; 00000158H
  0000a	48 8b fc	 mov	 rdi, rsp
  0000d	b9 56 00 00 00	 mov	 ecx, 86			; 00000056H
  00012	b8 cc cc cc cc	 mov	 eax, -858993460		; ccccccccH
  00017	f3 ab		 rep stosd
  00019	48 8b 05 00 00
	00 00		 mov	 rax, QWORD PTR __security_cookie
  00020	48 33 c4	 xor	 rax, rsp
  00023	48 89 84 24 48
	01 00 00	 mov	 QWORD PTR __$ArrayPad$[rsp], rax

; 1119 : static const auto CspTransferList = make_array<CspTransfer>(

  0002b	c7 84 24 c8 00
	00 00 12 00 00
	00		 mov	 DWORD PTR $T2[rsp], 18
  00036	c7 84 24 cc 00
	00 00 10 00 00
	00		 mov	 DWORD PTR $T3[rsp], 16
  00041	c7 84 24 d0 00
	00 00 0f 00 00
	00		 mov	 DWORD PTR $T4[rsp], 15
  0004c	c7 84 24 d4 00
	00 00 0e 00 00
	00		 mov	 DWORD PTR $T5[rsp], 14
  00057	c7 84 24 d8 00
	00 00 0d 00 00
	00		 mov	 DWORD PTR $T6[rsp], 13
  00062	c7 84 24 dc 00
	00 00 0b 00 00
	00		 mov	 DWORD PTR $T7[rsp], 11
  0006d	c7 84 24 e0 00
	00 00 0a 00 00
	00		 mov	 DWORD PTR $T8[rsp], 10
  00078	c7 84 24 e4 00
	00 00 09 00 00
	00		 mov	 DWORD PTR $T9[rsp], 9
  00083	c7 84 24 e8 00
	00 00 08 00 00
	00		 mov	 DWORD PTR $T10[rsp], 8
  0008e	c7 84 24 ec 00
	00 00 07 00 00
	00		 mov	 DWORD PTR $T11[rsp], 7
  00099	c7 84 24 f0 00
	00 00 06 00 00
	00		 mov	 DWORD PTR $T12[rsp], 6
  000a4	c7 84 24 f4 00
	00 00 05 00 00
	00		 mov	 DWORD PTR $T13[rsp], 5
  000af	c7 84 24 f8 00
	00 00 04 00 00
	00		 mov	 DWORD PTR $T14[rsp], 4
  000ba	c7 84 24 fc 00
	00 00 02 00 00
	00		 mov	 DWORD PTR $T15[rsp], 2
  000c5	c7 84 24 00 01
	00 00 01 00 00
	00		 mov	 DWORD PTR $T16[rsp], 1
  000d0	48 8d 84 24 c8
	00 00 00	 lea	 rax, QWORD PTR $T2[rsp]
  000d8	48 89 44 24 78	 mov	 QWORD PTR [rsp+120], rax
  000dd	48 8d 84 24 cc
	00 00 00	 lea	 rax, QWORD PTR $T3[rsp]
  000e5	48 89 44 24 70	 mov	 QWORD PTR [rsp+112], rax
  000ea	48 8d 84 24 d0
	00 00 00	 lea	 rax, QWORD PTR $T4[rsp]
  000f2	48 89 44 24 68	 mov	 QWORD PTR [rsp+104], rax
  000f7	48 8d 84 24 d4
	00 00 00	 lea	 rax, QWORD PTR $T5[rsp]
  000ff	48 89 44 24 60	 mov	 QWORD PTR [rsp+96], rax
  00104	48 8d 84 24 d8
	00 00 00	 lea	 rax, QWORD PTR $T6[rsp]
  0010c	48 89 44 24 58	 mov	 QWORD PTR [rsp+88], rax
  00111	48 8d 84 24 dc
	00 00 00	 lea	 rax, QWORD PTR $T7[rsp]
  00119	48 89 44 24 50	 mov	 QWORD PTR [rsp+80], rax
  0011e	48 8d 84 24 e0
	00 00 00	 lea	 rax, QWORD PTR $T8[rsp]
  00126	48 89 44 24 48	 mov	 QWORD PTR [rsp+72], rax
  0012b	48 8d 84 24 e4
	00 00 00	 lea	 rax, QWORD PTR $T9[rsp]
  00133	48 89 44 24 40	 mov	 QWORD PTR [rsp+64], rax
  00138	48 8d 84 24 e8
	00 00 00	 lea	 rax, QWORD PTR $T10[rsp]
  00140	48 89 44 24 38	 mov	 QWORD PTR [rsp+56], rax
  00145	48 8d 84 24 ec
	00 00 00	 lea	 rax, QWORD PTR $T11[rsp]
  0014d	48 89 44 24 30	 mov	 QWORD PTR [rsp+48], rax
  00152	48 8d 84 24 f0
	00 00 00	 lea	 rax, QWORD PTR $T12[rsp]
  0015a	48 89 44 24 28	 mov	 QWORD PTR [rsp+40], rax
  0015f	48 8d 84 24 f4
	00 00 00	 lea	 rax, QWORD PTR $T13[rsp]
  00167	48 89 44 24 20	 mov	 QWORD PTR [rsp+32], rax
  0016c	4c 8d 8c 24 f8
	00 00 00	 lea	 r9, QWORD PTR $T14[rsp]
  00174	4c 8d 84 24 fc
	00 00 00	 lea	 r8, QWORD PTR $T15[rsp]
  0017c	48 8d 94 24 00
	01 00 00	 lea	 rdx, QWORD PTR $T16[rsp]
  00184	48 8d 8c 24 08
	01 00 00	 lea	 rcx, QWORD PTR $T17[rsp]
  0018c	e8 00 00 00 00	 call	 ??$make_array@W4CspTransfer@@W41@W41@W41@W41@W41@W41@W41@W41@W41@W41@W41@W41@W41@W41@W41@@@YA?AV?$array@W4CspTransfer@@$0P@@std@@$$QEAW4CspTransfer@@00000000000000@Z ; make_array<enum CspTransfer,enum CspTransfer,enum CspTransfer,enum CspTransfer,enum CspTransfer,enum CspTransfer,enum CspTransfer,enum CspTransfer,enum CspTransfer,enum CspTransfer,enum CspTransfer,enum CspTransfer,enum CspTransfer,enum CspTransfer,enum CspTransfer,enum CspTransfer>
  00191	48 8d 8c 24 80
	00 00 00	 lea	 rcx, QWORD PTR $T1[rsp]
  00199	48 8b f9	 mov	 rdi, rcx
  0019c	48 8b f0	 mov	 rsi, rax
  0019f	b9 3c 00 00 00	 mov	 ecx, 60			; 0000003cH
  001a4	f3 a4		 rep movsb
  001a6	48 8d 05 00 00
	00 00		 lea	 rax, OFFSET FLAT:?CspTransferList@@3V?$array@W4CspTransfer@@$0P@@std@@B
  001ad	48 8d 8c 24 80
	00 00 00	 lea	 rcx, QWORD PTR $T1[rsp]
  001b5	48 8b f8	 mov	 rdi, rax
  001b8	48 8b f1	 mov	 rsi, rcx
  001bb	b9 3c 00 00 00	 mov	 ecx, 60			; 0000003cH
  001c0	f3 a4		 rep movsb
  001c2	48 8b 8c 24 48
	01 00 00	 mov	 rcx, QWORD PTR __$ArrayPad$[rsp]
  001ca	48 33 cc	 xor	 rcx, rsp
  001cd	e8 00 00 00 00	 call	 __security_check_cookie
  001d2	48 81 c4 58 01
	00 00		 add	 rsp, 344		; 00000158H
  001d9	5f		 pop	 rdi
  001da	5e		 pop	 rsi
  001db	c3		 ret	 0
??__ECspTransferList@@YAXXZ ENDP			; `dynamic initializer for 'CspTransferList''
text$di	ENDS
; Function compile flags: /Odtp /RTCsu
; File D:\work\intel\intel_codec\QSVPipeline\rgy_util.h
;	COMDAT ??$make_array@W4CspTransfer@@W41@W41@W41@W41@W41@W41@W41@W41@W41@W41@W41@W41@W41@W41@W41@@@YA?AV?$array@W4CspTransfer@@$0P@@std@@$$QEAW4CspTransfer@@00000000000000@Z
_TEXT	SEGMENT
$T1 = 0
__$ArrayPad$ = 72
$T2 = 112
<args_0>$ = 120
<args_1>$ = 128
<args_2>$ = 136
<args_3>$ = 144
<args_4>$ = 152
<args_5>$ = 160
<args_6>$ = 168
<args_7>$ = 176
<args_8>$ = 184
<args_9>$ = 192
<args_10>$ = 200
<args_11>$ = 208
<args_12>$ = 216
<args_13>$ = 224
<args_14>$ = 232
??$make_array@W4CspTransfer@@W41@W41@W41@W41@W41@W41@W41@W41@W41@W41@W41@W41@W41@W41@W41@@@YA?AV?$array@W4CspTransfer@@$0P@@std@@$$QEAW4CspTransfer@@00000000000000@Z PROC ; make_array<enum CspTransfer,enum CspTransfer,enum CspTransfer,enum CspTransfer,enum CspTransfer,enum CspTransfer,enum CspTransfer,enum CspTransfer,enum CspTransfer,enum CspTransfer,enum CspTransfer,enum CspTransfer,enum CspTransfer,enum CspTransfer,enum CspTransfer,enum CspTransfer>, COMDAT

; 129  : constexpr std::array<T, sizeof...(Args)> make_array(Args&&... args) {

$LN3:
  00000	4c 89 4c 24 20	 mov	 QWORD PTR [rsp+32], r9
  00005	4c 89 44 24 18	 mov	 QWORD PTR [rsp+24], r8
  0000a	48 89 54 24 10	 mov	 QWORD PTR [rsp+16], rdx
  0000f	48 89 4c 24 08	 mov	 QWORD PTR [rsp+8], rcx
  00014	56		 push	 rsi
  00015	57		 push	 rdi
  00016	48 83 ec 58	 sub	 rsp, 88			; 00000058H
  0001a	48 8b fc	 mov	 rdi, rsp
  0001d	b9 16 00 00 00	 mov	 ecx, 22
  00022	b8 cc cc cc cc	 mov	 eax, -858993460		; ccccccccH
  00027	f3 ab		 rep stosd
  00029	48 8b 4c 24 70	 mov	 rcx, QWORD PTR [rsp+112]
  0002e	48 8b 05 00 00
	00 00		 mov	 rax, QWORD PTR __security_cookie
  00035	48 33 c4	 xor	 rax, rsp
  00038	48 89 44 24 48	 mov	 QWORD PTR __$ArrayPad$[rsp], rax

; 130  :     return std::array<T, sizeof...(Args)>{ static_cast<Args&&>(args)... };

  0003d	48 8b 44 24 78	 mov	 rax, QWORD PTR <args_0>$[rsp]
  00042	8b 00		 mov	 eax, DWORD PTR [rax]
  00044	89 04 24	 mov	 DWORD PTR $T1[rsp], eax
  00047	48 8b 84 24 80
	00 00 00	 mov	 rax, QWORD PTR <args_1>$[rsp]
  0004f	8b 00		 mov	 eax, DWORD PTR [rax]
  00051	89 44 24 04	 mov	 DWORD PTR $T1[rsp+4], eax
  00055	48 8b 84 24 88
	00 00 00	 mov	 rax, QWORD PTR <args_2>$[rsp]
  0005d	8b 00		 mov	 eax, DWORD PTR [rax]
  0005f	89 44 24 08	 mov	 DWORD PTR $T1[rsp+8], eax
  00063	48 8b 84 24 90
	00 00 00	 mov	 rax, QWORD PTR <args_3>$[rsp]
  0006b	8b 00		 mov	 eax, DWORD PTR [rax]
  0006d	89 44 24 0c	 mov	 DWORD PTR $T1[rsp+12], eax
  00071	48 8b 84 24 98
	00 00 00	 mov	 rax, QWORD PTR <args_4>$[rsp]
  00079	8b 00		 mov	 eax, DWORD PTR [rax]
  0007b	89 44 24 10	 mov	 DWORD PTR $T1[rsp+16], eax
  0007f	48 8b 84 24 a0
	00 00 00	 mov	 rax, QWORD PTR <args_5>$[rsp]
  00087	8b 00		 mov	 eax, DWORD PTR [rax]
  00089	89 44 24 14	 mov	 DWORD PTR $T1[rsp+20], eax
  0008d	48 8b 84 24 a8
	00 00 00	 mov	 rax, QWORD PTR <args_6>$[rsp]
  00095	8b 00		 mov	 eax, DWORD PTR [rax]
  00097	89 44 24 18	 mov	 DWORD PTR $T1[rsp+24], eax
  0009b	48 8b 84 24 b0
	00 00 00	 mov	 rax, QWORD PTR <args_7>$[rsp]
  000a3	8b 00		 mov	 eax, DWORD PTR [rax]
  000a5	89 44 24 1c	 mov	 DWORD PTR $T1[rsp+28], eax
  000a9	48 8b 84 24 b8
	00 00 00	 mov	 rax, QWORD PTR <args_8>$[rsp]
  000b1	8b 00		 mov	 eax, DWORD PTR [rax]
  000b3	89 44 24 20	 mov	 DWORD PTR $T1[rsp+32], eax
  000b7	48 8b 84 24 c0
	00 00 00	 mov	 rax, QWORD PTR <args_9>$[rsp]
  000bf	8b 00		 mov	 eax, DWORD PTR [rax]
  000c1	89 44 24 24	 mov	 DWORD PTR $T1[rsp+36], eax
  000c5	48 8b 84 24 c8
	00 00 00	 mov	 rax, QWORD PTR <args_10>$[rsp]
  000cd	8b 00		 mov	 eax, DWORD PTR [rax]
  000cf	89 44 24 28	 mov	 DWORD PTR $T1[rsp+40], eax
  000d3	48 8b 84 24 d0
	00 00 00	 mov	 rax, QWORD PTR <args_11>$[rsp]
  000db	8b 00		 mov	 eax, DWORD PTR [rax]
  000dd	89 44 24 2c	 mov	 DWORD PTR $T1[rsp+44], eax
  000e1	48 8b 84 24 d8
	00 00 00	 mov	 rax, QWORD PTR <args_12>$[rsp]
  000e9	8b 00		 mov	 eax, DWORD PTR [rax]
  000eb	89 44 24 30	 mov	 DWORD PTR $T1[rsp+48], eax
  000ef	48 8b 84 24 e0
	00 00 00	 mov	 rax, QWORD PTR <args_13>$[rsp]
  000f7	8b 00		 mov	 eax, DWORD PTR [rax]
  000f9	89 44 24 34	 mov	 DWORD PTR $T1[rsp+52], eax
  000fd	48 8b 84 24 e8
	00 00 00	 mov	 rax, QWORD PTR <args_14>$[rsp]
  00105	8b 00		 mov	 eax, DWORD PTR [rax]
  00107	89 44 24 38	 mov	 DWORD PTR $T1[rsp+56], eax
  0010b	48 8d 04 24	 lea	 rax, QWORD PTR $T1[rsp]
  0010f	48 8b 7c 24 70	 mov	 rdi, QWORD PTR $T2[rsp]
  00114	48 8b f0	 mov	 rsi, rax
  00117	b9 3c 00 00 00	 mov	 ecx, 60			; 0000003cH
  0011c	f3 a4		 rep movsb
  0011e	48 8b 44 24 70	 mov	 rax, QWORD PTR $T2[rsp]

; 131  : }

  00123	48 8b 4c 24 48	 mov	 rcx, QWORD PTR __$ArrayPad$[rsp]
  00128	48 33 cc	 xor	 rcx, rsp
  0012b	e8 00 00 00 00	 call	 __security_check_cookie
  00130	48 83 c4 58	 add	 rsp, 88			; 00000058H
  00134	5f		 pop	 rdi
  00135	5e		 pop	 rsi
  00136	c3		 ret	 0
??$make_array@W4CspTransfer@@W41@W41@W41@W41@W41@W41@W41@W41@W41@W41@W41@W41@W41@W41@W41@@@YA?AV?$array@W4CspTransfer@@$0P@@std@@$$QEAW4CspTransfer@@00000000000000@Z ENDP ; make_array<enum CspTransfer,enum CspTransfer,enum CspTransfer,enum CspTransfer,enum CspTransfer,enum CspTransfer,enum CspTransfer,enum CspTransfer,enum CspTransfer,enum CspTransfer,enum CspTransfer,enum CspTransfer,enum CspTransfer,enum CspTransfer,enum CspTransfer,enum CspTransfer>
_TEXT	ENDS
; Function compile flags: /Odtp /RTCsu
; File D:\work\intel\intel_codec\QSVPipeline\rgy_util.h
;	COMDAT ??__ECspMatrixList@@YAXXZ
text$di	SEGMENT
$T1 = 128
$T2 = 192
$T3 = 196
$T4 = 200
$T5 = 204
$T6 = 208
$T7 = 212
$T8 = 216
$T9 = 220
$T10 = 224
$T11 = 228
$T12 = 232
$T13 = 236
$T14 = 240
$T15 = 244
$T16 = 248
__$ArrayPad$ = 304
??__ECspMatrixList@@YAXXZ PROC				; `dynamic initializer for 'CspMatrixList'', COMDAT

; 1080 : );

  00000	40 56		 push	 rsi
  00002	57		 push	 rdi
  00003	48 81 ec 48 01
	00 00		 sub	 rsp, 328		; 00000148H
  0000a	48 8b fc	 mov	 rdi, rsp
  0000d	b9 52 00 00 00	 mov	 ecx, 82			; 00000052H
  00012	b8 cc cc cc cc	 mov	 eax, -858993460		; ccccccccH
  00017	f3 ab		 rep stosd
  00019	48 8b 05 00 00
	00 00		 mov	 rax, QWORD PTR __security_cookie
  00020	48 33 c4	 xor	 rax, rsp
  00023	48 89 84 24 30
	01 00 00	 mov	 QWORD PTR __$ArrayPad$[rsp], rax

; 1065 : static const auto CspMatrixList = make_array<CspMatrix>(

  0002b	c7 84 24 c0 00
	00 00 0f 00 00
	00		 mov	 DWORD PTR $T2[rsp], 15
  00036	c7 84 24 c4 00
	00 00 0e 00 00
	00		 mov	 DWORD PTR $T3[rsp], 14
  00041	c7 84 24 c8 00
	00 00 0d 00 00
	00		 mov	 DWORD PTR $T4[rsp], 13
  0004c	c7 84 24 cc 00
	00 00 0c 00 00
	00		 mov	 DWORD PTR $T5[rsp], 12
  00057	c7 84 24 d0 00
	00 00 0a 00 00
	00		 mov	 DWORD PTR $T6[rsp], 10
  00062	c7 84 24 d4 00
	00 00 09 00 00
	00		 mov	 DWORD PTR $T7[rsp], 9
  0006d	c7 84 24 d8 00
	00 00 08 00 00
	00		 mov	 DWORD PTR $T8[rsp], 8
  00078	c7 84 24 dc 00
	00 00 07 00 00
	00		 mov	 DWORD PTR $T9[rsp], 7
  00083	c7 84 24 e0 00
	00 00 06 00 00
	00		 mov	 DWORD PTR $T10[rsp], 6
  0008e	c7 84 24 e4 00
	00 00 05 00 00
	00		 mov	 DWORD PTR $T11[rsp], 5
  00099	c7 84 24 e8 00
	00 00 04 00 00
	00		 mov	 DWORD PTR $T12[rsp], 4
  000a4	c7 84 24 ec 00
	00 00 02 00 00
	00		 mov	 DWORD PTR $T13[rsp], 2
  000af	c7 84 24 f0 00
	00 00 01 00 00
	00		 mov	 DWORD PTR $T14[rsp], 1
  000ba	c7 84 24 f4 00
	00 00 00 00 00
	00		 mov	 DWORD PTR $T15[rsp], 0
  000c5	48 8d 84 24 c0
	00 00 00	 lea	 rax, QWORD PTR $T2[rsp]
  000cd	48 89 44 24 70	 mov	 QWORD PTR [rsp+112], rax
  000d2	48 8d 84 24 c4
	00 00 00	 lea	 rax, QWORD PTR $T3[rsp]
  000da	48 89 44 24 68	 mov	 QWORD PTR [rsp+104], rax
  000df	48 8d 84 24 c8
	00 00 00	 lea	 rax, QWORD PTR $T4[rsp]
  000e7	48 89 44 24 60	 mov	 QWORD PTR [rsp+96], rax
  000ec	48 8d 84 24 cc
	00 00 00	 lea	 rax, QWORD PTR $T5[rsp]
  000f4	48 89 44 24 58	 mov	 QWORD PTR [rsp+88], rax
  000f9	48 8d 84 24 d0
	00 00 00	 lea	 rax, QWORD PTR $T6[rsp]
  00101	48 89 44 24 50	 mov	 QWORD PTR [rsp+80], rax
  00106	48 8d 84 24 d4
	00 00 00	 lea	 rax, QWORD PTR $T7[rsp]
  0010e	48 89 44 24 48	 mov	 QWORD PTR [rsp+72], rax
  00113	48 8d 84 24 d8
	00 00 00	 lea	 rax, QWORD PTR $T8[rsp]
  0011b	48 89 44 24 40	 mov	 QWORD PTR [rsp+64], rax
  00120	48 8d 84 24 dc
	00 00 00	 lea	 rax, QWORD PTR $T9[rsp]
  00128	48 89 44 24 38	 mov	 QWORD PTR [rsp+56], rax
  0012d	48 8d 84 24 e0
	00 00 00	 lea	 rax, QWORD PTR $T10[rsp]
  00135	48 89 44 24 30	 mov	 QWORD PTR [rsp+48], rax
  0013a	48 8d 84 24 e4
	00 00 00	 lea	 rax, QWORD PTR $T11[rsp]
  00142	48 89 44 24 28	 mov	 QWORD PTR [rsp+40], rax
  00147	48 8d 84 24 e8
	00 00 00	 lea	 rax, QWORD PTR $T12[rsp]
  0014f	48 89 44 24 20	 mov	 QWORD PTR [rsp+32], rax
  00154	4c 8d 8c 24 ec
	00 00 00	 lea	 r9, QWORD PTR $T13[rsp]
  0015c	4c 8d 84 24 f0
	00 00 00	 lea	 r8, QWORD PTR $T14[rsp]
  00164	48 8d 94 24 f4
	00 00 00	 lea	 rdx, QWORD PTR $T15[rsp]
  0016c	48 8d 8c 24 f8
	00 00 00	 lea	 rcx, QWORD PTR $T16[rsp]
  00174	e8 00 00 00 00	 call	 ??$make_array@W4CspMatrix@@W41@W41@W41@W41@W41@W41@W41@W41@W41@W41@W41@W41@W41@W41@@@YA?AV?$array@W4CspMatrix@@$0O@@std@@$$QEAW4CspMatrix@@0000000000000@Z ; make_array<enum CspMatrix,enum CspMatrix,enum CspMatrix,enum CspMatrix,enum CspMatrix,enum CspMatrix,enum CspMatrix,enum CspMatrix,enum CspMatrix,enum CspMatrix,enum CspMatrix,enum CspMatrix,enum CspMatrix,enum CspMatrix,enum CspMatrix>
  00179	48 8d 8c 24 80
	00 00 00	 lea	 rcx, QWORD PTR $T1[rsp]
  00181	48 8b f9	 mov	 rdi, rcx
  00184	48 8b f0	 mov	 rsi, rax
  00187	b9 38 00 00 00	 mov	 ecx, 56			; 00000038H
  0018c	f3 a4		 rep movsb
  0018e	48 8d 05 00 00
	00 00		 lea	 rax, OFFSET FLAT:?CspMatrixList@@3V?$array@W4CspMatrix@@$0O@@std@@B
  00195	48 8d 8c 24 80
	00 00 00	 lea	 rcx, QWORD PTR $T1[rsp]
  0019d	48 8b f8	 mov	 rdi, rax
  001a0	48 8b f1	 mov	 rsi, rcx
  001a3	b9 38 00 00 00	 mov	 ecx, 56			; 00000038H
  001a8	f3 a4		 rep movsb
  001aa	48 8b 8c 24 30
	01 00 00	 mov	 rcx, QWORD PTR __$ArrayPad$[rsp]
  001b2	48 33 cc	 xor	 rcx, rsp
  001b5	e8 00 00 00 00	 call	 __security_check_cookie
  001ba	48 81 c4 48 01
	00 00		 add	 rsp, 328		; 00000148H
  001c1	5f		 pop	 rdi
  001c2	5e		 pop	 rsi
  001c3	c3		 ret	 0
??__ECspMatrixList@@YAXXZ ENDP				; `dynamic initializer for 'CspMatrixList''
text$di	ENDS
; Function compile flags: /Odtp /RTCsu
; File D:\work\intel\intel_codec\QSVPipeline\rgy_util.h
;	COMDAT ??$make_array@W4CspMatrix@@W41@W41@W41@W41@W41@W41@W41@W41@W41@W41@W41@W41@W41@W41@@@YA?AV?$array@W4CspMatrix@@$0O@@std@@$$QEAW4CspMatrix@@0000000000000@Z
_TEXT	SEGMENT
$T1 = 0
__$ArrayPad$ = 64
$T2 = 112
<args_0>$ = 120
<args_1>$ = 128
<args_2>$ = 136
<args_3>$ = 144
<args_4>$ = 152
<args_5>$ = 160
<args_6>$ = 168
<args_7>$ = 176
<args_8>$ = 184
<args_9>$ = 192
<args_10>$ = 200
<args_11>$ = 208
<args_12>$ = 216
<args_13>$ = 224
??$make_array@W4CspMatrix@@W41@W41@W41@W41@W41@W41@W41@W41@W41@W41@W41@W41@W41@W41@@@YA?AV?$array@W4CspMatrix@@$0O@@std@@$$QEAW4CspMatrix@@0000000000000@Z PROC ; make_array<enum CspMatrix,enum CspMatrix,enum CspMatrix,enum CspMatrix,enum CspMatrix,enum CspMatrix,enum CspMatrix,enum CspMatrix,enum CspMatrix,enum CspMatrix,enum CspMatrix,enum CspMatrix,enum CspMatrix,enum CspMatrix,enum CspMatrix>, COMDAT

; 129  : constexpr std::array<T, sizeof...(Args)> make_array(Args&&... args) {

$LN3:
  00000	4c 89 4c 24 20	 mov	 QWORD PTR [rsp+32], r9
  00005	4c 89 44 24 18	 mov	 QWORD PTR [rsp+24], r8
  0000a	48 89 54 24 10	 mov	 QWORD PTR [rsp+16], rdx
  0000f	48 89 4c 24 08	 mov	 QWORD PTR [rsp+8], rcx
  00014	56		 push	 rsi
  00015	57		 push	 rdi
  00016	48 83 ec 58	 sub	 rsp, 88			; 00000058H
  0001a	48 8b fc	 mov	 rdi, rsp
  0001d	b9 16 00 00 00	 mov	 ecx, 22
  00022	b8 cc cc cc cc	 mov	 eax, -858993460		; ccccccccH
  00027	f3 ab		 rep stosd
  00029	48 8b 4c 24 70	 mov	 rcx, QWORD PTR [rsp+112]
  0002e	48 8b 05 00 00
	00 00		 mov	 rax, QWORD PTR __security_cookie
  00035	48 33 c4	 xor	 rax, rsp
  00038	48 89 44 24 40	 mov	 QWORD PTR __$ArrayPad$[rsp], rax

; 130  :     return std::array<T, sizeof...(Args)>{ static_cast<Args&&>(args)... };

  0003d	48 8b 44 24 78	 mov	 rax, QWORD PTR <args_0>$[rsp]
  00042	8b 00		 mov	 eax, DWORD PTR [rax]
  00044	89 04 24	 mov	 DWORD PTR $T1[rsp], eax
  00047	48 8b 84 24 80
	00 00 00	 mov	 rax, QWORD PTR <args_1>$[rsp]
  0004f	8b 00		 mov	 eax, DWORD PTR [rax]
  00051	89 44 24 04	 mov	 DWORD PTR $T1[rsp+4], eax
  00055	48 8b 84 24 88
	00 00 00	 mov	 rax, QWORD PTR <args_2>$[rsp]
  0005d	8b 00		 mov	 eax, DWORD PTR [rax]
  0005f	89 44 24 08	 mov	 DWORD PTR $T1[rsp+8], eax
  00063	48 8b 84 24 90
	00 00 00	 mov	 rax, QWORD PTR <args_3>$[rsp]
  0006b	8b 00		 mov	 eax, DWORD PTR [rax]
  0006d	89 44 24 0c	 mov	 DWORD PTR $T1[rsp+12], eax
  00071	48 8b 84 24 98
	00 00 00	 mov	 rax, QWORD PTR <args_4>$[rsp]
  00079	8b 00		 mov	 eax, DWORD PTR [rax]
  0007b	89 44 24 10	 mov	 DWORD PTR $T1[rsp+16], eax
  0007f	48 8b 84 24 a0
	00 00 00	 mov	 rax, QWORD PTR <args_5>$[rsp]
  00087	8b 00		 mov	 eax, DWORD PTR [rax]
  00089	89 44 24 14	 mov	 DWORD PTR $T1[rsp+20], eax
  0008d	48 8b 84 24 a8
	00 00 00	 mov	 rax, QWORD PTR <args_6>$[rsp]
  00095	8b 00		 mov	 eax, DWORD PTR [rax]
  00097	89 44 24 18	 mov	 DWORD PTR $T1[rsp+24], eax
  0009b	48 8b 84 24 b0
	00 00 00	 mov	 rax, QWORD PTR <args_7>$[rsp]
  000a3	8b 00		 mov	 eax, DWORD PTR [rax]
  000a5	89 44 24 1c	 mov	 DWORD PTR $T1[rsp+28], eax
  000a9	48 8b 84 24 b8
	00 00 00	 mov	 rax, QWORD PTR <args_8>$[rsp]
  000b1	8b 00		 mov	 eax, DWORD PTR [rax]
  000b3	89 44 24 20	 mov	 DWORD PTR $T1[rsp+32], eax
  000b7	48 8b 84 24 c0
	00 00 00	 mov	 rax, QWORD PTR <args_9>$[rsp]
  000bf	8b 00		 mov	 eax, DWORD PTR [rax]
  000c1	89 44 24 24	 mov	 DWORD PTR $T1[rsp+36], eax
  000c5	48 8b 84 24 c8
	00 00 00	 mov	 rax, QWORD PTR <args_10>$[rsp]
  000cd	8b 00		 mov	 eax, DWORD PTR [rax]
  000cf	89 44 24 28	 mov	 DWORD PTR $T1[rsp+40], eax
  000d3	48 8b 84 24 d0
	00 00 00	 mov	 rax, QWORD PTR <args_11>$[rsp]
  000db	8b 00		 mov	 eax, DWORD PTR [rax]
  000dd	89 44 24 2c	 mov	 DWORD PTR $T1[rsp+44], eax
  000e1	48 8b 84 24 d8
	00 00 00	 mov	 rax, QWORD PTR <args_12>$[rsp]
  000e9	8b 00		 mov	 eax, DWORD PTR [rax]
  000eb	89 44 24 30	 mov	 DWORD PTR $T1[rsp+48], eax
  000ef	48 8b 84 24 e0
	00 00 00	 mov	 rax, QWORD PTR <args_13>$[rsp]
  000f7	8b 00		 mov	 eax, DWORD PTR [rax]
  000f9	89 44 24 34	 mov	 DWORD PTR $T1[rsp+52], eax
  000fd	48 8d 04 24	 lea	 rax, QWORD PTR $T1[rsp]
  00101	48 8b 7c 24 70	 mov	 rdi, QWORD PTR $T2[rsp]
  00106	48 8b f0	 mov	 rsi, rax
  00109	b9 38 00 00 00	 mov	 ecx, 56			; 00000038H
  0010e	f3 a4		 rep movsb
  00110	48 8b 44 24 70	 mov	 rax, QWORD PTR $T2[rsp]

; 131  : }

  00115	48 8b 4c 24 40	 mov	 rcx, QWORD PTR __$ArrayPad$[rsp]
  0011a	48 33 cc	 xor	 rcx, rsp
  0011d	e8 00 00 00 00	 call	 __security_check_cookie
  00122	48 83 c4 58	 add	 rsp, 88			; 00000058H
  00126	5f		 pop	 rdi
  00127	5e		 pop	 rsi
  00128	c3		 ret	 0
??$make_array@W4CspMatrix@@W41@W41@W41@W41@W41@W41@W41@W41@W41@W41@W41@W41@W41@W41@@@YA?AV?$array@W4CspMatrix@@$0O@@std@@$$QEAW4CspMatrix@@0000000000000@Z ENDP ; make_array<enum CspMatrix,enum CspMatrix,enum CspMatrix,enum CspMatrix,enum CspMatrix,enum CspMatrix,enum CspMatrix,enum CspMatrix,enum CspMatrix,enum CspMatrix,enum CspMatrix,enum CspMatrix,enum CspMatrix,enum CspMatrix,enum CspMatrix>
_TEXT	ENDS
; Function compile flags: /Odtp /RTCsu
; File D:\work\intel\intel_codec\QSVPipeline\rgy_version.cpp
_TEXT	SEGMENT
?get_encoder_version@@YAPEBDXZ PROC			; get_encoder_version

; 36   : const TCHAR *get_encoder_version() {

$LN3:
  00000	40 57		 push	 rdi

; 37   :     return

  00002	48 8d 05 00 00
	00 00		 lea	 rax, OFFSET FLAT:$SG113840

; 38   :         _T(ENCODER_NAME) _T(" (")
; 39   :         BUILD_ARCH_STR _T(") ") VER_STR_FILEVERSION_TCHAR _T(" (r") ENCODER_REV _T(") by happy, ")  _T(__DATE__) _T(" ") _T(__TIME__)
; 40   : #if defined(_MSC_VER)
; 41   :         _T(" (VC ") _T(SSTRING(_MSC_VER))
; 42   : #elif defined(__clang__)
; 43   :         _T(" (clang ") _T(SSTRING(__clang_major__)) _T(".") _T(SSTRING(__clang_minor__)) _T(".") _T(SSTRING(__clang_patchlevel__))
; 44   : #elif defined(__GNUC__)
; 45   :         _T(" (gcc ") _T(SSTRING(__GNUC__)) _T(".") _T(SSTRING(__GNUC_MINOR__)) _T(".") _T(SSTRING(__GNUC_PATCHLEVEL__))
; 46   : #else
; 47   :         _T(" (unknown")
; 48   : #endif
; 49   :         _T("/")
; 50   : #ifdef _WIN32
; 51   :         _T("Win/avx2")
; 52   : #elif  __linux
; 53   :         _T("Linux")
; 54   :   #if defined(__AVX2__)
; 55   :         _T("/avx2")
; 56   :   #elif defined(__AVX__)
; 57   :         _T("/avx")
; 58   :   #else
; 59   :         _T("/sse4.2")
; 60   :   #endif
; 61   : #else
; 62   :         _T("unknown")
; 63   : #endif
; 64   :         _T(")");
; 65   : }

  00009	5f		 pop	 rdi
  0000a	c3		 ret	 0
?get_encoder_version@@YAPEBDXZ ENDP			; get_encoder_version
_TEXT	ENDS
; Function compile flags: /Odtp /RTCsu
; File D:\work\intel\intel_codec\QSVPipeline\rgy_version.cpp
;	COMDAT ?__empty_global_delete@@YAXPEAX_K@Z
_TEXT	SEGMENT
__formal$ = 16
__formal$ = 24
?__empty_global_delete@@YAXPEAX_K@Z PROC		; __empty_global_delete, COMDAT

$LN3:
  00000	48 89 54 24 10	 mov	 QWORD PTR [rsp+16], rdx
  00005	48 89 4c 24 08	 mov	 QWORD PTR [rsp+8], rcx
  0000a	57		 push	 rdi
  0000b	5f		 pop	 rdi
  0000c	c3		 ret	 0
?__empty_global_delete@@YAXPEAX_K@Z ENDP		; __empty_global_delete
_TEXT	ENDS
; Function compile flags: /Odtp /RTCsu
; File D:\work\intel\intel_codec\QSVPipeline\rgy_version.cpp
;	COMDAT ?__empty_global_delete@@YAXPEAX@Z
_TEXT	SEGMENT
__formal$ = 16
?__empty_global_delete@@YAXPEAX@Z PROC			; __empty_global_delete, COMDAT

$LN3:
  00000	48 89 4c 24 08	 mov	 QWORD PTR [rsp+8], rcx
  00005	57		 push	 rdi
  00006	5f		 pop	 rdi
  00007	c3		 ret	 0
?__empty_global_delete@@YAXPEAX@Z ENDP			; __empty_global_delete
_TEXT	ENDS
END
