; Listing generated by Microsoft (R) Optimizing Compiler Version 19.23.28106.4 

include listing.inc

INCLUDELIB MSVCRTD
INCLUDELIB OLDNAMES

CONST	SEGMENT
?list_empty@@3QBUCX_DESC@@B DQ 0000000000000000H	; list_empty
	DD	00H
	ORG $+4
$SG115615 DB	'trace', 00H
?piecewise_construct@std@@3Upiecewise_construct_t@1@B	ORG $+1 ; std::piecewise_construct
	ORG $+1
$SG115616 DB	'debug', 00H
	ORG $+2
$SG115617 DB	'more', 00H
	ORG $+3
$SG115618 DB	'info', 00H
	ORG $+3
$SG115619 DB	'warn', 00H
	ORG $+3
$SG115620 DB	'error', 00H
	ORG $+2
$SG115622 DB	'cfr', 00H
$SG115623 DB	'vfr', 00H
$SG115624 DB	'forcecfr', 00H
	ORG $+3
$SG115626 DB	'swr', 00H
$SG115627 DB	'soxr', 00H
	ORG $+3
?HW_DECODE_LIST@@3QBUCodecMap@@B DD 01bH		; HW_DECODE_LIST
	DD	01H
	DD	0adH
	DD	02H
	DD	02H
	DD	04H
	DD	08bH
	DD	06H
	DD	0a7H
	DD	07H
	DD	046H
	DD	08H
$SG123972 DB	'auto', 00H
	ORG $+3
$SG123974 DB	'copy', 00H
	ORG $+3
$SG124099 DB	'.', 0aH, 00H
	ORG $+1
$SG124100 DB	' for ', 00H
	ORG $+2
$SG124227 DB	'srt', 00H
$SG124103 DB	'avcodec-58.dll', 00H
	ORG $+1
$SG124104 DB	'avformat-58.dll', 00H
$SG124105 DB	'avutil-56.dll', 00H
	ORG $+2
$SG124106 DB	'avfilter-7.dll', 00H
	ORG $+1
$SG124107 DB	'swresample-3.dll', 00H
	ORG $+3
$SG124228 DB	'ass', 00H
$SG124226 DB	'invalid', 00H
$SG124235 DB	'invalid', 00H
$SG124236 DB	'kigou', 00H
	ORG $+2
$SG124237 DB	'box', 00H
$SG124238 DB	'draw', 00H
	ORG $+3
$SG116320 DB	'all', 00H
$SG116321 DB	'cpu', 00H
$SG116331 DB	'mem', 00H
$SG116322 DB	'cpu_total', 00H
	ORG $+2
$SG116326 DB	'cpu_in', 00H
	ORG $+1
$SG116334 DB	'io', 00H
	ORG $+1
$SG116323 DB	'cpu_kernel', 00H
	ORG $+1
$SG116337 DB	'fps', 00H
$SG116324 DB	'cpu_main', 00H
	ORG $+3
$SG116342 DB	'gpu', 00H
$SG116325 DB	'cpu_enc', 00H
$SG116327 DB	'cpu_aud', 00H
$SG116328 DB	'cpu_aud_proc', 00H
	ORG $+3
$SG116329 DB	'cpu_aud_enc', 00H
$SG149329 DB	'%s', 00H
	ORG $+1
$SG116330 DB	'cpu_out', 00H
$SG116332 DB	'mem_private', 00H
$SG133593 DB	'Ip ', 00H
$SG116333 DB	'mem_virtual', 00H
$SG133596 DB	'It ', 00H
$SG116335 DB	'io_read', 00H
$SG116336 DB	'io_write', 00H
	ORG $+3
$SG116349 DB	'queue', 00H
	ORG $+2
$SG133598 DB	'Ib ', 00H
$SG116338 DB	'fps_avg', 00H
$SG116339 DB	'bitrate', 00H
$SG116340 DB	'bitrate_avg', 00H
$SG134733 DB	'-', 00H
	ORG $+2
$SG116341 DB	'frame_out', 00H
	ORG $+2
$SG134735 DB	'wb+', 00H
$SG116343 DB	'gpu_load', 00H
	ORG $+3
$SG134763 DB	'%d/%d', 00H
	ORG $+2
$SG135198 DB	'-', 00H
	ORG $+2
$SG116344 DB	'gpu_clock', 00H
	ORG $+2
$SG135200 DB	'wb', 00H
	ORG $+1
$SG116345 DB	'vee_load', 00H
	ORG $+3
$SG135436 DB	'FRAME', 0aH, 00H
	ORG $+1
$SG128426 DB	'vp8', 00H
$SG116346 DB	'ved_load', 00H
	ORG $+3
$SG135437 DB	'FRAME', 0aH, 00H
	ORG $+1
$SG128427 DB	'raw', 00H
$SG116347 DB	'pcie_load', 00H
	ORG $+2
$SG135438 DB	'FRAME', 0aH, 00H
	ORG $+1
$SG128429 DB	'CBR', 00H
$SG116348 DB	've_clock', 00H
	ORG $+3
$SG128424 DB	'mpeg2', 00H
	ORG $+2
$SG128430 DB	'VBR', 00H
$SG149328 DB	'invalid argument', 00H
	ORG $+7
$SG149333 DB	'"', 00H, 'i', 00H, 'n', 00H, 'v', 00H, 'a', 00H, 'l', 00H
	DB	'i', 00H, 'd', 00H, ' ', 00H, 'a', 00H, 'r', 00H, 'g', 00H, 'u'
	DB	00H, 'm', 00H, 'e', 00H, 'n', 00H, 't', 00H, '"', 00H, 00H, 00H
	ORG $+2
$SG149330 DB	'C:\Program Files (x86)\Microsoft Visual Studio\2019\Comm'
	DB	'unity\VC\Tools\MSVC\14.23.28105\include\xmemory', 00H
$SG133592 DB	'F%d:%d ', 00H
$SG149331 DB	'C', 00H, ':', 00H, '\', 00H, 'P', 00H, 'r', 00H, 'o', 00H
	DB	'g', 00H, 'r', 00H, 'a', 00H, 'm', 00H, ' ', 00H, 'F', 00H, 'i'
	DB	00H, 'l', 00H, 'e', 00H, 's', 00H, ' ', 00H, '(', 00H, 'x', 00H
	DB	'8', 00H, '6', 00H, ')', 00H, '\', 00H, 'M', 00H, 'i', 00H, 'c'
	DB	00H, 'r', 00H, 'o', 00H, 's', 00H, 'o', 00H, 'f', 00H, 't', 00H
	DB	' ', 00H, 'V', 00H, 'i', 00H, 's', 00H, 'u', 00H, 'a', 00H, 'l'
	DB	00H, ' ', 00H, 'S', 00H, 't', 00H, 'u', 00H, 'd', 00H, 'i', 00H
	DB	'o', 00H, '\', 00H, '2', 00H, '0', 00H, '1', 00H, '9', 00H, '\'
	DB	00H, 'C', 00H, 'o', 00H, 'm', 00H, 'm', 00H, 'u', 00H, 'n', 00H
	DB	'i', 00H, 't', 00H, 'y', 00H, '\', 00H, 'V', 00H, 'C', 00H, '\'
	DB	00H, 'T', 00H, 'o', 00H, 'o', 00H, 'l', 00H, 's', 00H, '\', 00H
	DB	'M', 00H, 'S', 00H, 'V', 00H, 'C', 00H, '\', 00H, '1', 00H, '4'
	DB	00H, '.', 00H, '2', 00H, '3', 00H, '.', 00H, '2', 00H, '8', 00H
	DB	'1', 00H, '0', 00H, '5', 00H, '\', 00H, 'i', 00H, 'n', 00H, 'c'
	DB	00H, 'l', 00H, 'u', 00H, 'd', 00H, 'e', 00H, '\', 00H, 'x', 00H
	DB	'm', 00H, 'e', 00H, 'm', 00H, 'o', 00H, 'r', 00H, 'y', 00H, 00H
	DB	00H
$SG149332 DB	's', 00H, 't', 00H, 'd', 00H, ':', 00H, ':', 00H, '_', 00H
	DB	'A', 00H, 'l', 00H, 'l', 00H, 'o', 00H, 'c', 00H, 'a', 00H, 't'
	DB	00H, 'e', 00H, '_', 00H, 'm', 00H, 'a', 00H, 'n', 00H, 'u', 00H
	DB	'a', 00H, 'l', 00H, 'l', 00H, 'y', 00H, '_', 00H, 'v', 00H, 'e'
	DB	00H, 'c', 00H, 't', 00H, 'o', 00H, 'r', 00H, '_', 00H, 'a', 00H
	DB	'l', 00H, 'i', 00H, 'g', 00H, 'n', 00H, 'e', 00H, 'd', 00H, 00H
	DB	00H
	ORG $+2
$SG149585 DB	'C:\Program Files (x86)\Microsoft Visual Studio\2019\Comm'
	DB	'unity\VC\Tools\MSVC\14.23.28105\include\xlocale', 00H
$SG133590 DB	'YUV4MPEG2 ', 00H
	ORG $+1
$SG128431 DB	'CQP', 00H
$SG133591 DB	'W%d H%d ', 00H
	ORG $+3
$SG128433 DB	'LA', 00H
	ORG $+1
$SG133599 DB	'A%d:%d ', 00H
$SG133600 DB	'C420mpeg2', 0aH, 00H
	ORG $+1
$SG128437 DB	'ICQ', 00H
$SG133601 DB	'C420mpeg2', 0aH, 00H
	ORG $+1
$SG128439 DB	'VCM', 00H
$SG133720 DB	'Closing...', 0aH, 00H
$SG128464 DB	'0', 00H
	ORG $+2
$SG133722 DB	'Closed file pointer.', 0aH, 00H
	ORG $+2
$SG133723 DB	'Closed.', 0aH, 00H
	ORG $+3
$SG128434 DB	'LA-EXT', 00H
	ORG $+1
$SG128465 DB	'1', 00H
	ORG $+2
$SG133764 DB	'bitstream', 00H
	ORG $+2
$SG128435 DB	'LA-HRD', 00H
	ORG $+1
$SG128466 DB	'2', 00H
	ORG $+2
$SG134727 DB	'output filename not set.', 0aH, 00H
	ORG $+2
$SG128436 DB	'LA-ICQ', 00H
	ORG $+1
$SG128467 DB	'3', 00H
	ORG $+2
$SG134730 DB	'no output for benchmark mode.', 0aH, 00H
	ORG $+1
$SG134734 DB	'using stdout', 0aH, 00H
	ORG $+2
$SG134738 DB	'failed to open output file "%s": %s', 0aH, 00H
	ORG $+3
$SG134739 DB	'Opened file "%s"', 0aH, 00H
	ORG $+2
$SG128448 DB	'main10', 00H
	ORG $+1
$SG128470 DB	'0', 00H
	ORG $+2
$SG134742 DB	'Added %d MB output buffer.', 0aH, 00H
$SG128471 DB	'1', 00H
	ORG $+2
$SG134746 DB	'h264_metadata', 00H
	ORG $+2
$SG134748 DB	'hevc_metadata', 00H
	ORG $+2
$SG134751 DB	'invalid codec to set metadata filter.', 0aH, 00H
	ORG $+1
$SG134752 DB	'start initialize %s filter...', 0aH, 00H
	ORG $+1
$SG134754 DB	'failed to find %s.', 0aH, 00H
$SG128472 DB	'2', 00H
	ORG $+2
$SG134757 DB	'failed to allocate memory for %s: %s.', 0aH, 00H
	ORG $+1
$SG134760 DB	'failed to copy parameter for %s: %s.', 0aH, 00H
	ORG $+2
$SG134764 DB	'sample_aspect_ratio', 00H
$SG128473 DB	'3', 00H
	ORG $+2
$SG134765 DB	'set sar %d:%d by %s filter', 0aH, 00H
$SG128475 DB	'8', 00H
	ORG $+2
$SG134768 DB	'video_format', 00H
	ORG $+3
$SG134769 DB	'set video_format %d by %s filter', 0aH, 00H
	ORG $+2
$SG128454 DB	'Simple', 00H
	ORG $+1
$SG128476 DB	'10', 00H
	ORG $+1
$SG134771 DB	'colour_primaries', 00H
	ORG $+3
$SG128459 DB	'Simple', 00H
	ORG $+1
$SG128484 DB	'it', 00H
	ORG $+1
$SG134772 DB	'set colorprim %d by %s filter', 0aH, 00H
	ORG $+1
$SG134774 DB	'transfer_characteristics', 00H
	ORG $+3
$SG128483 DB	'normal', 00H
	ORG $+1
$SG128485 DB	'bob', 00H
$SG134775 DB	'set transfer %d by %s filter', 0aH, 00H
	ORG $+2
$SG134777 DB	'matrix_coefficients', 00H
$SG128487 DB	'32', 00H
	ORG $+1
$SG134778 DB	'set matrix %d by %s filter', 0aH, 00H
$SG128490 DB	'41', 00H
	ORG $+1
$SG134780 DB	'chroma_sample_loc_type', 00H
	ORG $+1
$SG134781 DB	'set chromaloc %d by %s filter', 0aH, 00H
	ORG $+1
$SG134783 DB	'failed to set parameters for %s: %s.', 0aH, 00H
	ORG $+2
$SG134786 DB	'failed to init %s: %s.', 0aH, 00H
$SG134788 DB	'initialized %s filter', 0aH, 00H
	ORG $+1
$SG135140 DB	'Invalid call: WriteNextFrame', 0aH, 00H
	ORG $+2
$SG135149 DB	'failed to send packet to %s bitstream filter: %s.', 0aH, 00H
	ORG $+1
$SG128493 DB	'1', 00H
	ORG $+2
$SG135157 DB	'failed to run %s bitstream filter: %s.', 0aH, 00H
$SG135167 DB	'Unexpected HEVC header.', 0aH, 00H
	ORG $+3
$SG128489 DB	'repeat', 00H
	ORG $+1
$SG128494 DB	'1b', 00H
	ORG $+1
$SG135170 DB	'Error writing file.', 0aH, 'Not enough disk space!', 0aH
	DB	00H
$SG128495 DB	'1.1', 00H
$SG135178 DB	'yuv writer', 00H
	ORG $+1
$SG128496 DB	'1.2', 00H
$SG135199 DB	'using stdout', 0aH, 00H
	ORG $+2
$SG135203 DB	'failed to open file "%s": %s', 0aH, 00H
	ORG $+2
$SG135439 DB	'Error writing file.', 0aH, 'Not enough disk space!', 0aH
	DB	00H
$SG128497 DB	'1.3', 00H
$SG135445 DB	'Error writing file.', 0aH, 'Not enough disk space!', 0aH
	DB	00H
$SG128498 DB	'2', 00H
	ORG $+2
$SG135447 DB	'Error writing file.', 0aH, 'Not enough disk space!', 0aH
	DB	00H
$SG128499 DB	'2.1', 00H
$SG135451 DB	'Error writing file.', 0aH, 'Not enough disk space!', 0aH
	DB	00H
$SG128500 DB	'2.2', 00H
$SG135453 DB	'Error writing file.', 0aH, 'Not enough disk space!', 0aH
	DB	00H
$SG128501 DB	'3', 00H
	ORG $+2
$SG135460 DB	'Error writing file.', 0aH, 'Not enough disk space!', 0aH
	DB	00H
$SG128502 DB	'3.1', 00H
$SG135462 DB	'Error writing file.', 0aH, 'Not enough disk space!', 0aH
	DB	00H
$SG128503 DB	'3.2', 00H
$SG135466 DB	'Error writing file.', 0aH, 'Not enough disk space!', 0aH
	DB	00H
$SG128504 DB	'4', 00H
	ORG $+2
$SG135471 DB	'Error writing file.', 0aH, 'Not enough disk space!', 0aH
	DB	00H
$SG128422 DB	'h264', 00H
	ORG $+3
$SG128423 DB	'hevc', 00H
	ORG $+3
$SG128425 DB	'vc-1', 00H
	ORG $+3
$SG128432 DB	'AVBR', 00H
	ORG $+3
$SG128438 DB	'QVBR', 00H
	ORG $+7
?list_avc_profile@@3QBUCX_DESC@@B DQ FLAT:$SG128441	; list_avc_profile
	DD	00H
	ORG $+4
	DQ	FLAT:$SG128442
	DD	042H
	ORG $+4
	DQ	FLAT:$SG128443
	DD	04dH
	ORG $+4
	DQ	FLAT:$SG128444
	DD	064H
	ORG $+4
	DQ	0000000000000000H
	DD	00H
	ORG $+4
$SG128441 DB	'auto', 00H
	ORG $+3
$SG128442 DB	'Baseline', 00H
	ORG $+3
$SG128443 DB	'Main', 00H
	ORG $+3
$SG128444 DB	'High', 00H
	ORG $+3
$SG128446 DB	'auto', 00H
	ORG $+7
?list_hevc_profile@@3QBUCX_DESC@@B DQ FLAT:$SG128446	; list_hevc_profile
	DD	00H
	ORG $+4
	DQ	FLAT:$SG128447
	DD	01H
	ORG $+4
	DQ	FLAT:$SG128448
	DD	02H
	ORG $+4
	DQ	0000000000000000H
	DD	00H
	ORG $+4
$SG128447 DB	'main', 00H
	ORG $+3
$SG128450 DB	'main', 00H
	ORG $+3
$SG128451 DB	'high', 00H
	ORG $+3
$SG128453 DB	'auto', 00H
	ORG $+3
?list_mpeg2_profile@@3QBUCX_DESC@@B DQ FLAT:$SG128453	; list_mpeg2_profile
	DD	00H
	ORG $+4
	DQ	FLAT:$SG128454
	DD	050H
	ORG $+4
	DQ	FLAT:$SG128455
	DD	040H
	ORG $+4
	DQ	FLAT:$SG128456
	DD	010H
	ORG $+4
	DQ	0000000000000000H
	DD	00H
	ORG $+4
$SG128455 DB	'Main', 00H
	ORG $+3
$SG128456 DB	'High', 00H
	ORG $+3
?list_vc1_profile@@3QBUCX_DESC@@B DQ FLAT:$SG128458	; list_vc1_profile
	DD	00H
	ORG $+4
	DQ	FLAT:$SG128459
	DD	01H
	ORG $+4
	DQ	FLAT:$SG128460
	DD	05H
	ORG $+4
	DQ	FLAT:$SG128461
	DD	0dH
	ORG $+4
	DQ	0000000000000000H
	DD	00H
	ORG $+4
$SG128458 DB	'auto', 00H
	ORG $+3
$SG128460 DB	'Main', 00H
	ORG $+3
$SG128461 DB	'Advanced', 00H
	ORG $+7
?list_vp8_profile@@3QBUCX_DESC@@B DQ FLAT:$SG128463	; list_vp8_profile
	DD	00H
	ORG $+4
	DQ	FLAT:$SG128464
	DD	01H
	ORG $+4
	DQ	FLAT:$SG128465
	DD	02H
	ORG $+4
	DQ	FLAT:$SG128466
	DD	03H
	ORG $+4
	DQ	FLAT:$SG128467
	DD	04H
	ORG $+4
	DQ	0000000000000000H
	DD	00H
	ORG $+4
$SG128463 DB	'auto', 00H
	ORG $+3
$SG128469 DB	'auto', 00H
	ORG $+3
?list_vp9_profile@@3QBUCX_DESC@@B DQ FLAT:$SG128469	; list_vp9_profile
	DD	00H
	ORG $+4
	DQ	FLAT:$SG128470
	DD	01H
	ORG $+4
	DQ	FLAT:$SG128471
	DD	02H
	ORG $+4
	DQ	FLAT:$SG128472
	DD	03H
	ORG $+4
	DQ	FLAT:$SG128473
	DD	04H
	ORG $+4
	DQ	0000000000000000H
	DD	00H
	ORG $+4
$SG128478 DB	'progressive', 00H
$SG128505 DB	'4.1', 00H
$SG128479 DB	'interlaced(tff)', 00H
$SG128480 DB	'interlaced(bff)', 00H
$SG128482 DB	'none', 00H
	ORG $+3
$SG128488 DB	'2332', 00H
	ORG $+3
?list_avc_level@@3QBUCX_DESC@@B DQ FLAT:$SG128492	; list_avc_level
	DD	00H
	ORG $+4
	DQ	FLAT:$SG128493
	DD	0aH
	ORG $+4
	DQ	FLAT:$SG128494
	DD	09H
	ORG $+4
	DQ	FLAT:$SG128495
	DD	0bH
	ORG $+4
	DQ	FLAT:$SG128496
	DD	0cH
	ORG $+4
	DQ	FLAT:$SG128497
	DD	0dH
	ORG $+4
	DQ	FLAT:$SG128498
	DD	014H
	ORG $+4
	DQ	FLAT:$SG128499
	DD	015H
	ORG $+4
	DQ	FLAT:$SG128500
	DD	016H
	ORG $+4
	DQ	FLAT:$SG128501
	DD	01eH
	ORG $+4
	DQ	FLAT:$SG128502
	DD	01fH
	ORG $+4
	DQ	FLAT:$SG128503
	DD	020H
	ORG $+4
	DQ	FLAT:$SG128504
	DD	028H
	ORG $+4
	DQ	FLAT:$SG128505
	DD	029H
	ORG $+4
	DQ	FLAT:$SG128506
	DD	02aH
	ORG $+4
	DQ	FLAT:$SG128507
	DD	032H
	ORG $+4
	DQ	FLAT:$SG128508
	DD	033H
	ORG $+4
	DQ	FLAT:$SG128509
	DD	034H
	ORG $+4
	DQ	0000000000000000H
	DD	00H
	ORG $+4
$SG128492 DB	'auto', 00H
	ORG $+3
$SG128506 DB	'4.2', 00H
$SG128507 DB	'5', 00H
	ORG $+2
$SG128508 DB	'5.1', 00H
$SG128509 DB	'5.2', 00H
$SG128511 DB	'auto', 00H
	ORG $+3
?list_hevc_level@@3QBUCX_DESC@@B DQ FLAT:$SG128511	; list_hevc_level
	DD	00H
	ORG $+4
	DQ	FLAT:$SG128512
	DD	0aH
	ORG $+4
	DQ	FLAT:$SG128513
	DD	014H
	ORG $+4
	DQ	FLAT:$SG128514
	DD	015H
	ORG $+4
	DQ	FLAT:$SG128515
	DD	01eH
	ORG $+4
	DQ	FLAT:$SG128516
	DD	01fH
	ORG $+4
	DQ	FLAT:$SG128517
	DD	028H
	ORG $+4
	DQ	FLAT:$SG128518
	DD	029H
	ORG $+4
	DQ	FLAT:$SG128519
	DD	032H
	ORG $+4
	DQ	FLAT:$SG128520
	DD	033H
	ORG $+4
	DQ	FLAT:$SG128521
	DD	034H
	ORG $+4
	DQ	FLAT:$SG128522
	DD	03cH
	ORG $+4
	DQ	FLAT:$SG128523
	DD	03dH
	ORG $+4
	DQ	FLAT:$SG128524
	DD	03eH
	ORG $+4
	DQ	0000000000000000H
	DD	00H
	ORG $+4
$SG128512 DB	'1', 00H
	ORG $+2
$SG128513 DB	'2', 00H
	ORG $+2
$SG128514 DB	'2.1', 00H
$SG128515 DB	'3', 00H
	ORG $+2
$SG128516 DB	'3.1', 00H
$SG128517 DB	'4', 00H
	ORG $+2
$SG128518 DB	'4.1', 00H
$SG128519 DB	'5', 00H
	ORG $+2
$SG128520 DB	'5.1', 00H
$SG128521 DB	'5.2', 00H
$SG128522 DB	'6', 00H
	ORG $+2
$SG128523 DB	'6.1', 00H
$SG128524 DB	'6.2', 00H
$SG128526 DB	'auto', 00H
	ORG $+7
?list_mpeg2_level@@3QBUCX_DESC@@B DQ FLAT:$SG128526	; list_mpeg2_level
	DD	00H
	ORG $+4
	DQ	FLAT:$SG128527
	DD	0aH
	ORG $+4
	DQ	FLAT:$SG128528
	DD	08H
	ORG $+4
	DQ	FLAT:$SG128529
	DD	04H
	ORG $+4
	DQ	FLAT:$SG128530
	DD	06H
	ORG $+4
	DQ	0000000000000000H
	DD	00H
	ORG $+4
$SG128527 DB	'low', 00H
$SG128528 DB	'main', 00H
	ORG $+3
$SG128529 DB	'high', 00H
	ORG $+3
$SG128533 DB	'low', 00H
$SG128530 DB	'high1440', 00H
	ORG $+3
$SG128532 DB	'auto', 00H
	ORG $+7
?list_vc1_level@@3QBUCX_DESC@@B DQ FLAT:$SG128532	; list_vc1_level
	DD	00H
	ORG $+4
	DQ	FLAT:$SG128533
	DD	01H
	ORG $+4
	DQ	FLAT:$SG128534
	DD	03H
	ORG $+4
	DQ	FLAT:$SG128535
	DD	05H
	ORG $+4
	DQ	0000000000000000H
	DD	00H
	ORG $+4
$SG128534 DB	'median', 00H
	ORG $+1
$SG128535 DB	'high', 00H
	ORG $+3
$SG128537 DB	'auto', 00H
	ORG $+3
$SG128538 DB	'0', 00H
	ORG $+2
$SG128539 DB	'1', 00H
	ORG $+2
$SG128540 DB	'2', 00H
	ORG $+2
$SG128541 DB	'3', 00H
	ORG $+2
$SG128542 DB	'4', 00H
	ORG $+2
$SG128549 DB	'off', 00H
?list_vp8_level@@3QBUCX_DESC@@B DQ FLAT:$SG128544	; list_vp8_level
	DD	00H
	ORG $+4
	DQ	0000000000000000H
	DD	00H
	ORG $+4
$SG128544 DB	'auto', 00H
	ORG $+3
?list_vp9_level@@3QBUCX_DESC@@B DQ FLAT:$SG128546	; list_vp9_level
	DD	00H
	ORG $+4
	DQ	0000000000000000H
	DD	00H
	ORG $+4
$SG128546 DB	'auto', 00H
	ORG $+3
$SG128548 DB	'Auto', 00H
	ORG $+3
$SG128550 DB	'for I frames', 00H
	ORG $+3
$SG128551 DB	'for I,P frames', 00H
	ORG $+1
$SG128552 DB	'for All frames', 00H
	ORG $+1
$SG128554 DB	'auto', 00H
	ORG $+3
$SG128555 DB	'off', 00H
$SG128556 DB	'i', 00H
	ORG $+2
$SG128557 DB	'ip', 00H
	ORG $+1
$SG128558 DB	'all', 00H
$SG128559 DB	'ipb', 00H
$SG128560 DB	'ib', 00H
	ORG $+1
$SG128561 DB	'p', 00H
	ORG $+2
$SG128562 DB	'pb', 00H
	ORG $+1
$SG128563 DB	'b', 00H
	ORG $+2
$SG128565 DB	'auto', 00H
	ORG $+3
$SG128566 DB	'slow', 00H
	ORG $+3
$SG128567 DB	'medium', 00H
	ORG $+1
$SG128568 DB	'fast', 00H
	ORG $+3
$SG128571 DB	'0', 00H
	ORG $+2
$SG128570 DB	'default', 00H
$SG128572 DB	'1', 00H
	ORG $+2
$SG128573 DB	'2', 00H
	ORG $+2
$SG128574 DB	'3', 00H
	ORG $+2
$SG128575 DB	'4', 00H
	ORG $+2
$SG128577 DB	'low', 00H
$SG128578 DB	'normal', 00H
	ORG $+1
$SG128579 DB	'high', 00H
	ORG $+3
$SG128591 DB	'none', 00H
	ORG $+3
$SG128592 DB	'copy', 00H
	ORG $+3
$SG128593 DB	'aac', 00H
$SG128594 DB	'libmp3lame', 00H
	ORG $+1
$SG128599 DB	'ac3', 00H
$SG128595 DB	'libtwolame', 00H
	ORG $+1
$SG128630 DB	'tff', 00H
$SG128596 DB	'libvorbis', 00H
	ORG $+2
$SG128631 DB	'bff', 00H
$SG128597 DB	'pcm_s16le', 00H
	ORG $+2
$SG128642 DB	'higher', 00H
	ORG $+1
$SG128656 DB	'8x8', 00H
$SG128598 DB	'libopus', 00H
$SG128629 DB	'none', 00H
	ORG $+3
$SG128633 DB	' 1 - best quality', 00H
	ORG $+2
$SG128646 DB	'faster', 00H
	ORG $+1
$SG128657 DB	'4x4', 00H
$SG128634 DB	' 2 - higher', 00H
$SG128660 DB	'16', 00H
	ORG $+1
$SG128635 DB	' 3 - high quality', 00H
	ORG $+2
$SG128661 DB	'32', 00H
	ORG $+1
$SG128636 DB	' 4 - balanced', 00H
	ORG $+2
$SG128637 DB	' 5 - fast', 00H
	ORG $+2
$SG128662 DB	'64', 00H
	ORG $+1
$SG128638 DB	' 6 - faster', 00H
$SG128670 DB	'all', 00H
$SG128639 DB	' 7 - fastest', 00H
	ORG $+3
$SG128641 DB	'best', 00H
	ORG $+3
$SG128643 DB	'high', 00H
	ORG $+3
$SG128644 DB	'balanced', 00H
	ORG $+3
$SG128645 DB	'fast', 00H
	ORG $+3
$SG128652 DB	'Q-pel', 00H
	ORG $+2
$SG128669 DB	'chroma', 00H
	ORG $+1
$SG128674 DB	'box', 00H
$SG128647 DB	'fastest', 00H
$SG128649 DB	'Auto', 00H
	ORG $+3
$SG128650 DB	'full-pel', 00H
	ORG $+3
$SG128655 DB	'16x16', 00H
	ORG $+2
$SG128676 DB	'off', 00H
$SG128651 DB	'half-pel', 00H
	ORG $+3
$SG128654 DB	'Auto', 00H
	ORG $+3
$SG128659 DB	'auto', 00H
	ORG $+3
$SG128666 DB	'auto', 00H
	ORG $+3
$SG128667 DB	'none', 00H
	ORG $+3
$SG128668 DB	'luma', 00H
	ORG $+3
$SG128672 DB	'none', 00H
	ORG $+3
$SG128677 DB	'x2', 00H
	ORG $+1
$SG128673 DB	'upscale', 00H
$SG128678 DB	'x2.5', 00H
	ORG $+3
$SG128680 DB	'simple', 00H
	ORG $+1
$SG128681 DB	'complex', 00H
$SG128683 DB	'0', 00H
	ORG $+2
$SG128684 DB	'90', 00H
	ORG $+1
$SG128685 DB	'180', 00H
$SG128686 DB	'270', 00H
$SG128688 DB	'n', 00H
	ORG $+2
$SG128689 DB	'h', 00H
	ORG $+2
$SG128690 DB	'v', 00H
	ORG $+2
$SG128692 DB	'auto', 00H
	ORG $+3
$SG128693 DB	'simple', 00H
	ORG $+1
$SG128694 DB	'fine', 00H
	ORG $+3
$SG128696 DB	'auto', 00H
	ORG $+3
$SG128697 DB	'none', 00H
	ORG $+3
$SG128698 DB	'sse2', 00H
	ORG $+3
$SG128699 DB	'sse3', 00H
	ORG $+3
$SG128700 DB	'ssse3', 00H
	ORG $+2
$SG128701 DB	'sse41', 00H
	ORG $+2
$SG128702 DB	'avx', 00H
$SG128703 DB	'avx2', 00H
	ORG $+3
$SG112610 DB	'Invalid', 00H
$SG112611 DB	'nv12', 00H
	ORG $+3
$SG112612 DB	'yv12', 00H
	ORG $+3
$SG112613 DB	'yuy2', 00H
	ORG $+3
$SG112614 DB	'yuv422', 00H
	ORG $+1
$SG112615 DB	'nv16', 00H
	ORG $+3
$SG112616 DB	'yuv444', 00H
	ORG $+1
$SG112617 DB	'yv12(9bit)', 00H
	ORG $+1
$SG112642 DB	'rgb', 00H
$SG112618 DB	'yv12(10bit)', 00H
$SG112644 DB	'gbr', 00H
$SG112619 DB	'yv12(12bit)', 00H
$SG112647 DB	'y8', 00H
	ORG $+1
$SG112620 DB	'yv12(14bit)', 00H
$SG129095 DB	'%s', 00H
	ORG $+1
$SG112621 DB	'yv12(16bit)', 00H
$SG112622 DB	'p010', 00H
	ORG $+3
$SG112636 DB	'rgb24r', 00H
	ORG $+1
$SG113592 DB	'VP8', 00H
$SG112623 DB	'yuv422(9bit)', 00H
	ORG $+3
$SG112624 DB	'yuv422(10bit)', 00H
	ORG $+2
$SG112625 DB	'yuv422(12bit)', 00H
	ORG $+2
$SG112626 DB	'yuv422(14bit)', 00H
	ORG $+2
$SG112627 DB	'yuv422(16bit)', 00H
	ORG $+2
$SG112628 DB	'p210', 00H
	ORG $+3
$SG112629 DB	'yuv444(9bit)', 00H
	ORG $+3
$SG112630 DB	'yuv444(10bit)', 00H
	ORG $+2
$SG112631 DB	'yuv444(12bit)', 00H
	ORG $+2
$SG112632 DB	'yuv444(14bit)', 00H
	ORG $+2
$SG112633 DB	'yuv444(16bit)', 00H
	ORG $+2
$SG112634 DB	'yuva444', 00H
$SG112635 DB	'yuva444(16bit)', 00H
	ORG $+1
$SG112637 DB	'rgb32r', 00H
	ORG $+1
$SG112638 DB	'rgb24', 00H
	ORG $+2
$SG112639 DB	'rgb32', 00H
	ORG $+2
$SG112640 DB	'bgr24', 00H
	ORG $+2
$SG112641 DB	'bgr32', 00H
	ORG $+2
$SG112643 DB	'rgba', 00H
	ORG $+3
$SG112645 DB	'gbra', 00H
	ORG $+3
$SG112646 DB	'yc48', 00H
	ORG $+3
$SG112648 DB	'yc16', 00H
	ORG $+3
$SG113580 DB	'H.264/AVC', 00H
	ORG $+2
$SG113594 DB	'VP9', 00H
$SG113582 DB	'H.265/HEVC', 00H
	ORG $+1
$SG113584 DB	'MPEG2', 00H
	ORG $+2
$SG113586 DB	'MPEG1', 00H
	ORG $+2
$SG113588 DB	'VC-1', 00H
	ORG $+3
$SG113590 DB	'MPEG4', 00H
	ORG $+2
$SG114205 DB	'fcc', 00H
$SG113596 DB	'unknown', 00H
$SG113703 DB	'unknown', 00H
$SG114198 DB	'undef', 00H
	ORG $+2
?list_colormatrix@@3QBUCX_DESC@@B DQ FLAT:$SG114198	; list_colormatrix
	DD	02H
	ORG $+4
	DQ	FLAT:$SG114199
	DD	07fffffffH
	ORG $+4
	DQ	FLAT:$SG114200
	DD	01H
	ORG $+4
	DQ	FLAT:$SG114201
	DD	06H
	ORG $+4
	DQ	FLAT:$SG114202
	DD	05H
	ORG $+4
	DQ	FLAT:$SG114203
	DD	07H
	ORG $+4
	DQ	FLAT:$SG114204
	DD	08H
	ORG $+4
	DQ	FLAT:$SG114205
	DD	04H
	ORG $+4
	DQ	FLAT:$SG114206
	DD	00H
	ORG $+4
	DQ	FLAT:$SG114207
	DD	09H
	ORG $+4
	DQ	FLAT:$SG114208
	DD	0aH
	ORG $+4
	DQ	FLAT:$SG114209
	DD	0cH
	ORG $+4
	DQ	FLAT:$SG114210
	DD	0dH
	ORG $+4
	DQ	FLAT:$SG114211
	DD	0eH
	ORG $+4
	DQ	FLAT:$SG114212
	DD	0fH
	ORG $+4
	DQ	0000000000000000H
	DD	00H
	ORG $+4
$SG114199 DB	'auto', 00H
	ORG $+3
$SG114200 DB	'bt709', 00H
	ORG $+2
$SG114201 DB	'smpte170m', 00H
	ORG $+2
$SG114206 DB	'GBR', 00H
$SG114202 DB	'bt470bg', 00H
$SG114203 DB	'smpte240m', 00H
	ORG $+2
$SG114204 DB	'YCgCo', 00H
	ORG $+2
$SG114357 DB	'bt470m', 00H
	ORG $+1
$SG114519 DB	'pal', 00H
$SG114207 DB	'bt2020nc', 00H
	ORG $+3
$SG114211 DB	'ictco', 00H
	ORG $+2
$SG114360 DB	'linear', 00H
	ORG $+1
$SG114521 DB	'mac', 00H
$SG114208 DB	'bt2020c', 00H
$SG114209 DB	'derived-ncl', 00H
$SG114523 DB	'0', 00H
	ORG $+2
$SG114210 DB	'derived-cl', 00H
	ORG $+1
$SG114524 DB	'1', 00H
	ORG $+2
$SG114212 DB	'2100-lms', 00H
	ORG $+7
?list_transfer@@3QBUCX_DESC@@B DQ FLAT:$SG114353	; list_transfer
	DD	02H
	ORG $+4
	DQ	FLAT:$SG114354
	DD	07fffffffH
	ORG $+4
	DQ	FLAT:$SG114355
	DD	01H
	ORG $+4
	DQ	FLAT:$SG114356
	DD	06H
	ORG $+4
	DQ	FLAT:$SG114357
	DD	04H
	ORG $+4
	DQ	FLAT:$SG114358
	DD	05H
	ORG $+4
	DQ	FLAT:$SG114359
	DD	07H
	ORG $+4
	DQ	FLAT:$SG114360
	DD	08H
	ORG $+4
	DQ	FLAT:$SG114361
	DD	09H
	ORG $+4
	DQ	FLAT:$SG114362
	DD	0aH
	ORG $+4
	DQ	FLAT:$SG114363
	DD	0bH
	ORG $+4
	DQ	FLAT:$SG114364
	DD	0cH
	ORG $+4
	DQ	FLAT:$SG114365
	DD	0dH
	ORG $+4
	DQ	FLAT:$SG114366
	DD	0eH
	ORG $+4
	DQ	FLAT:$SG114367
	DD	0fH
	ORG $+4
	DQ	FLAT:$SG114368
	DD	010H
	ORG $+4
	DQ	FLAT:$SG114369
	DD	011H
	ORG $+4
	DQ	FLAT:$SG114370
	DD	012H
	ORG $+4
	DQ	0000000000000000H
	DD	00H
	ORG $+4
$SG114353 DB	'undef', 00H
	ORG $+2
$SG114354 DB	'auto', 00H
	ORG $+3
$SG114355 DB	'bt709', 00H
	ORG $+2
$SG114356 DB	'smpte170m', 00H
	ORG $+2
$SG114361 DB	'log100', 00H
	ORG $+1
$SG114525 DB	'2', 00H
	ORG $+2
$SG114358 DB	'bt470bg', 00H
$SG114359 DB	'smpte240m', 00H
	ORG $+2
$SG114362 DB	'log316', 00H
	ORG $+1
$SG114526 DB	'3', 00H
	ORG $+2
$SG114363 DB	'iec61966-2-4', 00H
	ORG $+3
$SG114364 DB	'bt1361e', 00H
$SG114365 DB	'iec61966-2-1', 00H
	ORG $+3
$SG114366 DB	'bt2020-10', 00H
	ORG $+2
$SG114506 DB	'bt470m', 00H
	ORG $+1
$SG114527 DB	'4', 00H
	ORG $+2
$SG114367 DB	'bt2020-12', 00H
	ORG $+2
$SG114510 DB	'bt2020', 00H
	ORG $+1
$SG114528 DB	'5', 00H
	ORG $+2
$SG114368 DB	'smpte2084', 00H
	ORG $+2
$SG114532 DB	'tv', 00H
	ORG $+1
$SG114369 DB	'smpte428', 00H
	ORG $+3
$SG114502 DB	'undef', 00H
	ORG $+2
$SG114533 DB	'pc', 00H
	ORG $+1
$SG114370 DB	'arib-srd-b67', 00H
	ORG $+3
?list_colorprim@@3QBUCX_DESC@@B DQ FLAT:$SG114502	; list_colorprim
	DD	02H
	ORG $+4
	DQ	FLAT:$SG114503
	DD	07fffffffH
	ORG $+4
	DQ	FLAT:$SG114504
	DD	01H
	ORG $+4
	DQ	FLAT:$SG114505
	DD	06H
	ORG $+4
	DQ	FLAT:$SG114506
	DD	04H
	ORG $+4
	DQ	FLAT:$SG114507
	DD	05H
	ORG $+4
	DQ	FLAT:$SG114508
	DD	07H
	ORG $+4
	DQ	FLAT:$SG114509
	DD	08H
	ORG $+4
	DQ	FLAT:$SG114510
	DD	09H
	ORG $+4
	DQ	FLAT:$SG114511
	DD	0aH
	ORG $+4
	DQ	FLAT:$SG114512
	DD	0bH
	ORG $+4
	DQ	FLAT:$SG114513
	DD	0cH
	ORG $+4
	DQ	FLAT:$SG114514
	DD	0dH
	ORG $+4
	DQ	0000000000000000H
	DD	00H
	ORG $+4
$SG114503 DB	'auto', 00H
	ORG $+3
$SG114504 DB	'bt709', 00H
	ORG $+2
$SG114505 DB	'smpte170m', 00H
	ORG $+6
$SG114507 DB	'bt470bg', 00H
$SG114508 DB	'smpte240m', 00H
	ORG $+2
$SG114509 DB	'film', 00H
	ORG $+3
$SG114511 DB	'st428', 00H
	ORG $+6
$SG114512 DB	'st431-2', 00H
$SG114513 DB	'st432-1', 00H
$SG114514 DB	'ebu3213-e', 00H
	ORG $+2
$SG114516 DB	'undef', 00H
	ORG $+6
?list_videoformat@@3QBUCX_DESC@@B DQ FLAT:$SG114516	; list_videoformat
	DD	05H
	ORG $+4
	DQ	FLAT:$SG114517
	DD	02H
	ORG $+4
	DQ	FLAT:$SG114518
	DD	00H
	ORG $+4
	DQ	FLAT:$SG114519
	DD	01H
	ORG $+4
	DQ	FLAT:$SG114520
	DD	03H
	ORG $+4
	DQ	FLAT:$SG114521
	DD	04H
	ORG $+4
	DQ	0000000000000000H
	DD	00H
	ORG $+4
$SG114517 DB	'ntsc', 00H
	ORG $+3
$SG114518 DB	'component', 00H
	ORG $+2
$SG114520 DB	'secam', 00H
	ORG $+6
$SG114530 DB	'limited', 00H
$SG114531 DB	'full', 00H
CONST	ENDS
PUBLIC	?__empty_global_delete@@YAXPEAX@Z		; __empty_global_delete
PUBLIC	?__empty_global_delete@@YAXPEAX_K@Z		; __empty_global_delete
PUBLIC	??2@YAPEAX_KPEAX@Z				; operator new
PUBLIC	??0exception@std@@QEAA@QEBDH@Z			; std::exception::exception
PUBLIC	??0exception@std@@QEAA@AEBV01@@Z		; std::exception::exception
PUBLIC	??1exception@std@@UEAA@XZ			; std::exception::~exception
PUBLIC	?what@exception@std@@UEBAPEBDXZ			; std::exception::what
PUBLIC	??_Gexception@std@@UEAAPEAXI@Z			; std::exception::`scalar deleting destructor'
PUBLIC	??0bad_alloc@std@@AEAA@QEBD@Z			; std::bad_alloc::bad_alloc
PUBLIC	??1bad_alloc@std@@UEAA@XZ			; std::bad_alloc::~bad_alloc
PUBLIC	??0bad_alloc@std@@QEAA@AEBV01@@Z		; std::bad_alloc::bad_alloc
PUBLIC	??_Gbad_alloc@std@@UEAAPEAXI@Z			; std::bad_alloc::`scalar deleting destructor'
PUBLIC	??0bad_array_new_length@std@@QEAA@XZ		; std::bad_array_new_length::bad_array_new_length
PUBLIC	??1bad_array_new_length@std@@UEAA@XZ		; std::bad_array_new_length::~bad_array_new_length
PUBLIC	??0bad_array_new_length@std@@QEAA@AEBV01@@Z	; std::bad_array_new_length::bad_array_new_length
PUBLIC	??_Gbad_array_new_length@std@@UEAAPEAXI@Z	; std::bad_array_new_length::`scalar deleting destructor'
PUBLIC	?_Throw_bad_array_new_length@std@@YAXXZ		; std::_Throw_bad_array_new_length
PUBLIC	__local_stdio_printf_options
PUBLIC	_vsprintf_s_l
PUBLIC	vsprintf_s
PUBLIC	_vscprintf_l
PUBLIC	_vscprintf
PUBLIC	sprintf_s
PUBLIC	?max@?$numeric_limits@_J@std@@SA_JXZ		; std::numeric_limits<__int64>::max
PUBLIC	?_Allocate@_Default_allocate_traits@std@@SAPEAX_K@Z ; std::_Default_allocate_traits::_Allocate
PUBLIC	?_Adjust_manually_vector_aligned@std@@YAXAEAPEAXAEA_K@Z ; std::_Adjust_manually_vector_aligned
PUBLIC	??$_Convert_size@_K@std@@YA_K_K@Z		; std::_Convert_size<unsigned __int64>
PUBLIC	??0_Container_proxy@std@@QEAA@PEAU_Container_base12@1@@Z ; std::_Container_proxy::_Container_proxy
PUBLIC	??0_Container_base12@std@@QEAA@XZ		; std::_Container_base12::_Container_base12
PUBLIC	?_Orphan_all@_Container_base12@std@@QEAAXXZ	; std::_Container_base12::_Orphan_all
PUBLIC	?_Swap_proxy_and_iterators@_Container_base12@std@@QEAAXAEAU12@@Z ; std::_Container_base12::_Swap_proxy_and_iterators
PUBLIC	??0_Iterator_base12@std@@QEAA@XZ		; std::_Iterator_base12::_Iterator_base12
PUBLIC	??0_Iterator_base12@std@@QEAA@AEBU01@@Z		; std::_Iterator_base12::_Iterator_base12
PUBLIC	??4_Iterator_base12@std@@QEAAAEAU01@AEBU01@@Z	; std::_Iterator_base12::operator=
PUBLIC	??1_Iterator_base12@std@@QEAA@XZ		; std::_Iterator_base12::~_Iterator_base12
PUBLIC	?_Adopt@_Iterator_base12@std@@QEAAXPEBU_Container_base12@2@@Z ; std::_Iterator_base12::_Adopt
PUBLIC	?_Getcont@_Iterator_base12@std@@QEBAPEBU_Container_base12@2@XZ ; std::_Iterator_base12::_Getcont
PUBLIC	?_Orphan_me@_Iterator_base12@std@@QEAAXXZ	; std::_Iterator_base12::_Orphan_me
PUBLIC	?_Release@_Basic_container_proxy_ptr12@std@@QEAAXXZ ; std::_Basic_container_proxy_ptr12::_Release
PUBLIC	?_Decref@_Ref_count_base@std@@QEAAXXZ		; std::_Ref_count_base::_Decref
PUBLIC	?_Decwref@_Ref_count_base@std@@QEAAXXZ		; std::_Ref_count_base::_Decwref
PUBLIC	?length@?$_Narrow_char_traits@DH@std@@SA_KQEBD@Z ; std::_Narrow_char_traits<char,int>::length
PUBLIC	?copy@?$_Narrow_char_traits@DH@std@@SAPEADQEADQEBD_K@Z ; std::_Narrow_char_traits<char,int>::copy
PUBLIC	?move@?$_Narrow_char_traits@DH@std@@SAPEADQEADQEBD_K@Z ; std::_Narrow_char_traits<char,int>::move
PUBLIC	?assign@?$_Narrow_char_traits@DH@std@@SAPEADQEAD_KD@Z ; std::_Narrow_char_traits<char,int>::assign
PUBLIC	?assign@?$_Narrow_char_traits@DH@std@@SAXAEADAEBD@Z ; std::_Narrow_char_traits<char,int>::assign
PUBLIC	??0?$allocator@D@std@@QEAA@XZ			; std::allocator<char>::allocator<char>
PUBLIC	?deallocate@?$allocator@D@std@@QEAAXQEAD_K@Z	; std::allocator<char>::deallocate
PUBLIC	?allocate@?$allocator@D@std@@QEAAPEAD_K@Z	; std::allocator<char>::allocate
PUBLIC	?max_size@?$_Default_allocator_traits@V?$allocator@D@std@@@std@@SA_KAEBV?$allocator@D@2@@Z ; std::_Default_allocator_traits<std::allocator<char> >::max_size
PUBLIC	??0?$_String_val@U?$_Simple_types@D@std@@@std@@QEAA@XZ ; std::_String_val<std::_Simple_types<char> >::_String_val<std::_Simple_types<char> >
PUBLIC	?_Myptr@?$_String_val@U?$_Simple_types@D@std@@@std@@QEAAPEADXZ ; std::_String_val<std::_Simple_types<char> >::_Myptr
PUBLIC	?_Myptr@?$_String_val@U?$_Simple_types@D@std@@@std@@QEBAPEBDXZ ; std::_String_val<std::_Simple_types<char> >::_Myptr
PUBLIC	?_Large_string_engaged@?$_String_val@U?$_Simple_types@D@std@@@std@@QEBA_NXZ ; std::_String_val<std::_Simple_types<char> >::_Large_string_engaged
PUBLIC	??0_Bxty@?$_String_val@U?$_Simple_types@D@std@@@std@@QEAA@XZ ; std::_String_val<std::_Simple_types<char> >::_Bxty::_Bxty
PUBLIC	??1_Bxty@?$_String_val@U?$_Simple_types@D@std@@@std@@QEAA@XZ ; std::_String_val<std::_Simple_types<char> >::_Bxty::~_Bxty
PUBLIC	??1?$_String_val@U?$_Simple_types@D@std@@@std@@QEAA@XZ ; std::_String_val<std::_Simple_types<char> >::~_String_val<std::_Simple_types<char> >
PUBLIC	??0?$basic_string@DU?$char_traits@D@std@@V?$allocator@D@2@@std@@QEAA@XZ ; std::basic_string<char,std::char_traits<char>,std::allocator<char> >::basic_string<char,std::char_traits<char>,std::allocator<char> >
PUBLIC	??0?$basic_string@DU?$char_traits@D@std@@V?$allocator@D@2@@std@@QEAA@QEBD@Z ; std::basic_string<char,std::char_traits<char>,std::allocator<char> >::basic_string<char,std::char_traits<char>,std::allocator<char> >
PUBLIC	??0?$basic_string@DU?$char_traits@D@std@@V?$allocator@D@2@@std@@QEAA@$$QEAV01@@Z ; std::basic_string<char,std::char_traits<char>,std::allocator<char> >::basic_string<char,std::char_traits<char>,std::allocator<char> >
PUBLIC	?_Memcpy_val_from@?$basic_string@DU?$char_traits@D@std@@V?$allocator@D@2@@std@@AEAAXAEBV12@@Z ; std::basic_string<char,std::char_traits<char>,std::allocator<char> >::_Memcpy_val_from
PUBLIC	?_Take_contents@?$basic_string@DU?$char_traits@D@std@@V?$allocator@D@2@@std@@AEAAXAEAV12@U?$integral_constant@_N$00@2@@Z ; std::basic_string<char,std::char_traits<char>,std::allocator<char> >::_Take_contents
PUBLIC	??1?$basic_string@DU?$char_traits@D@std@@V?$allocator@D@2@@std@@QEAA@XZ ; std::basic_string<char,std::char_traits<char>,std::allocator<char> >::~basic_string<char,std::char_traits<char>,std::allocator<char> >
PUBLIC	??4?$basic_string@DU?$char_traits@D@std@@V?$allocator@D@2@@std@@QEAAAEAV01@QEBD@Z ; std::basic_string<char,std::char_traits<char>,std::allocator<char> >::operator=
PUBLIC	??Y?$basic_string@DU?$char_traits@D@std@@V?$allocator@D@2@@std@@QEAAAEAV01@AEBV01@@Z ; std::basic_string<char,std::char_traits<char>,std::allocator<char> >::operator+=
PUBLIC	??Y?$basic_string@DU?$char_traits@D@std@@V?$allocator@D@2@@std@@QEAAAEAV01@QEBD@Z ; std::basic_string<char,std::char_traits<char>,std::allocator<char> >::operator+=
PUBLIC	?append@?$basic_string@DU?$char_traits@D@std@@V?$allocator@D@2@@std@@QEAAAEAV12@AEBV12@@Z ; std::basic_string<char,std::char_traits<char>,std::allocator<char> >::append
PUBLIC	?append@?$basic_string@DU?$char_traits@D@std@@V?$allocator@D@2@@std@@QEAAAEAV12@QEBD_K@Z ; std::basic_string<char,std::char_traits<char>,std::allocator<char> >::append
PUBLIC	?append@?$basic_string@DU?$char_traits@D@std@@V?$allocator@D@2@@std@@QEAAAEAV12@QEBD@Z ; std::basic_string<char,std::char_traits<char>,std::allocator<char> >::append
PUBLIC	?append@?$basic_string@DU?$char_traits@D@std@@V?$allocator@D@2@@std@@QEAAAEAV12@_KD@Z ; std::basic_string<char,std::char_traits<char>,std::allocator<char> >::append
PUBLIC	?assign@?$basic_string@DU?$char_traits@D@std@@V?$allocator@D@2@@std@@QEAAAEAV12@QEBD_K@Z ; std::basic_string<char,std::char_traits<char>,std::allocator<char> >::assign
PUBLIC	?assign@?$basic_string@DU?$char_traits@D@std@@V?$allocator@D@2@@std@@QEAAAEAV12@QEBD@Z ; std::basic_string<char,std::char_traits<char>,std::allocator<char> >::assign
PUBLIC	??A?$basic_string@DU?$char_traits@D@std@@V?$allocator@D@2@@std@@QEAAAEAD_K@Z ; std::basic_string<char,std::char_traits<char>,std::allocator<char> >::operator[]
PUBLIC	??A?$basic_string@DU?$char_traits@D@std@@V?$allocator@D@2@@std@@QEBAAEBD_K@Z ; std::basic_string<char,std::char_traits<char>,std::allocator<char> >::operator[]
PUBLIC	?c_str@?$basic_string@DU?$char_traits@D@std@@V?$allocator@D@2@@std@@QEBAPEBDXZ ; std::basic_string<char,std::char_traits<char>,std::allocator<char> >::c_str
PUBLIC	?size@?$basic_string@DU?$char_traits@D@std@@V?$allocator@D@2@@std@@QEBA_KXZ ; std::basic_string<char,std::char_traits<char>,std::allocator<char> >::size
PUBLIC	?max_size@?$basic_string@DU?$char_traits@D@std@@V?$allocator@D@2@@std@@QEBA_KXZ ; std::basic_string<char,std::char_traits<char>,std::allocator<char> >::max_size
PUBLIC	?resize@?$basic_string@DU?$char_traits@D@std@@V?$allocator@D@2@@std@@QEAAX_KD@Z ; std::basic_string<char,std::char_traits<char>,std::allocator<char> >::resize
PUBLIC	?reserve@?$basic_string@DU?$char_traits@D@std@@V?$allocator@D@2@@std@@QEAAX_K@Z ; std::basic_string<char,std::char_traits<char>,std::allocator<char> >::reserve
PUBLIC	?_Calculate_growth@?$basic_string@DU?$char_traits@D@std@@V?$allocator@D@2@@std@@CA_K_K00@Z ; std::basic_string<char,std::char_traits<char>,std::allocator<char> >::_Calculate_growth
PUBLIC	?_Calculate_growth@?$basic_string@DU?$char_traits@D@std@@V?$allocator@D@2@@std@@AEBA_K_K@Z ; std::basic_string<char,std::char_traits<char>,std::allocator<char> >::_Calculate_growth
PUBLIC	?_Become_small@?$basic_string@DU?$char_traits@D@std@@V?$allocator@D@2@@std@@AEAAXXZ ; std::basic_string<char,std::char_traits<char>,std::allocator<char> >::_Become_small
PUBLIC	?_Eos@?$basic_string@DU?$char_traits@D@std@@V?$allocator@D@2@@std@@AEAAX_K@Z ; std::basic_string<char,std::char_traits<char>,std::allocator<char> >::_Eos
PUBLIC	?_Tidy_init@?$basic_string@DU?$char_traits@D@std@@V?$allocator@D@2@@std@@AEAAXXZ ; std::basic_string<char,std::char_traits<char>,std::allocator<char> >::_Tidy_init
PUBLIC	?_Tidy_deallocate@?$basic_string@DU?$char_traits@D@std@@V?$allocator@D@2@@std@@AEAAXXZ ; std::basic_string<char,std::char_traits<char>,std::allocator<char> >::_Tidy_deallocate
PUBLIC	?_Xlen@?$basic_string@DU?$char_traits@D@std@@V?$allocator@D@2@@std@@CAXXZ ; std::basic_string<char,std::char_traits<char>,std::allocator<char> >::_Xlen
PUBLIC	?_Swap_proxy_and_iterators@?$basic_string@DU?$char_traits@D@std@@V?$allocator@D@2@@std@@AEAAXAEAV12@@Z ; std::basic_string<char,std::char_traits<char>,std::allocator<char> >::_Swap_proxy_and_iterators
PUBLIC	?_Getal@?$basic_string@DU?$char_traits@D@std@@V?$allocator@D@2@@std@@AEAAAEAV?$allocator@D@2@XZ ; std::basic_string<char,std::char_traits<char>,std::allocator<char> >::_Getal
PUBLIC	?_Getal@?$basic_string@DU?$char_traits@D@std@@V?$allocator@D@2@@std@@AEBAAEBV?$allocator@D@2@XZ ; std::basic_string<char,std::char_traits<char>,std::allocator<char> >::_Getal
PUBLIC	?_Get_first@?$_Compressed_pair@V?$allocator@D@std@@V?$_String_val@U?$_Simple_types@D@std@@@2@$00@std@@QEAAAEAV?$allocator@D@2@XZ ; std::_Compressed_pair<std::allocator<char>,std::_String_val<std::_Simple_types<char> >,1>::_Get_first
PUBLIC	?_Get_first@?$_Compressed_pair@V?$allocator@D@std@@V?$_String_val@U?$_Simple_types@D@std@@@2@$00@std@@QEBAAEBV?$allocator@D@2@XZ ; std::_Compressed_pair<std::allocator<char>,std::_String_val<std::_Simple_types<char> >,1>::_Get_first
PUBLIC	??1?$_Compressed_pair@V?$allocator@D@std@@V?$_String_val@U?$_Simple_types@D@std@@@2@$00@std@@QEAA@XZ ; std::_Compressed_pair<std::allocator<char>,std::_String_val<std::_Simple_types<char> >,1>::~_Compressed_pair<std::allocator<char>,std::_String_val<std::_Simple_types<char> >,1>
PUBLIC	??_G?$basic_string@DU?$char_traits@D@std@@V?$allocator@D@2@@std@@QEAAPEAXI@Z ; std::basic_string<char,std::char_traits<char>,std::allocator<char> >::`scalar deleting destructor'
PUBLIC	_tcscmp
PUBLIC	??Raligned_malloc_deleter@@QEBAXPEAX@Z		; aligned_malloc_deleter::operator()
PUBLIC	??Rmalloc_deleter@@QEBAXPEAX@Z			; malloc_deleter::operator()
PUBLIC	??Rfp_deleter@@QEBAXPEAU_iobuf@@@Z		; fp_deleter::operator()
PUBLIC	??$make_array@W4CspMatrix@@W41@W41@W41@W41@W41@W41@W41@W41@W41@W41@W41@W41@W41@W41@@@YA?AV?$array@W4CspMatrix@@$0O@@std@@$$QEAW4CspMatrix@@0000000000000@Z ; make_array<enum CspMatrix,enum CspMatrix,enum CspMatrix,enum CspMatrix,enum CspMatrix,enum CspMatrix,enum CspMatrix,enum CspMatrix,enum CspMatrix,enum CspMatrix,enum CspMatrix,enum CspMatrix,enum CspMatrix,enum CspMatrix,enum CspMatrix>
PUBLIC	??$make_array@W4CspTransfer@@W41@W41@W41@W41@W41@W41@W41@W41@W41@W41@W41@W41@W41@W41@W41@@@YA?AV?$array@W4CspTransfer@@$0P@@std@@$$QEAW4CspTransfer@@00000000000000@Z ; make_array<enum CspTransfer,enum CspTransfer,enum CspTransfer,enum CspTransfer,enum CspTransfer,enum CspTransfer,enum CspTransfer,enum CspTransfer,enum CspTransfer,enum CspTransfer,enum CspTransfer,enum CspTransfer,enum CspTransfer,enum CspTransfer,enum CspTransfer,enum CspTransfer>
PUBLIC	??$make_array@W4CspColorprim@@W41@W41@W41@W41@W41@W41@W41@W41@W41@W41@W41@W41@@@YA?AV?$array@W4CspColorprim@@$0M@@std@@$$QEAW4CspColorprim@@00000000000@Z ; make_array<enum CspColorprim,enum CspColorprim,enum CspColorprim,enum CspColorprim,enum CspColorprim,enum CspColorprim,enum CspColorprim,enum CspColorprim,enum CspColorprim,enum CspColorprim,enum CspColorprim,enum CspColorprim,enum CspColorprim>
PUBLIC	??0VideoVUIInfo@@QEAA@XZ			; VideoVUIInfo::VideoVUIInfo
PUBLIC	??$?HDU?$char_traits@D@std@@V?$allocator@D@1@@std@@YA?AV?$basic_string@DU?$char_traits@D@std@@V?$allocator@D@2@@0@AEBV10@QEBD@Z ; std::operator+<char,std::char_traits<char>,std::allocator<char> >
PUBLIC	??$?HDU?$char_traits@D@std@@V?$allocator@D@1@@std@@YA?AV?$basic_string@DU?$char_traits@D@std@@V?$allocator@D@2@@0@$$QEAV10@QEBD@Z ; std::operator+<char,std::char_traits<char>,std::allocator<char> >
PUBLIC	??$?HDU?$char_traits@D@std@@V?$allocator@D@1@@std@@YA?AV?$basic_string@DU?$char_traits@D@std@@V?$allocator@D@2@@0@$$QEAV10@AEBV10@@Z ; std::operator+<char,std::char_traits<char>,std::allocator<char> >
PUBLIC	??0VideoInfo@@QEAA@XZ				; VideoInfo::VideoInfo
PUBLIC	??$min@_K@std@@YAAEB_KAEB_K0@Z			; std::min<unsigned __int64>
PUBLIC	?getLogLevel@RGYLog@@QEAAHXZ			; RGYLog::getLogLevel
PUBLIC	?get@?$_Ptr_base@VEncodeStatus@@@std@@IEBAPEAVEncodeStatus@@XZ ; std::_Ptr_base<EncodeStatus>::get
PUBLIC	??0?$_Ptr_base@VEncodeStatus@@@std@@IEAA@XZ	; std::_Ptr_base<EncodeStatus>::_Ptr_base<EncodeStatus>
PUBLIC	?_Decref@?$_Ptr_base@VEncodeStatus@@@std@@IEAAXXZ ; std::_Ptr_base<EncodeStatus>::_Decref
PUBLIC	?_Swap@?$_Ptr_base@VEncodeStatus@@@std@@IEAAXAEAV12@@Z ; std::_Ptr_base<EncodeStatus>::_Swap
PUBLIC	??0?$shared_ptr@VEncodeStatus@@@std@@QEAA@XZ	; std::shared_ptr<EncodeStatus>::shared_ptr<EncodeStatus>
PUBLIC	??1?$shared_ptr@VEncodeStatus@@@std@@QEAA@XZ	; std::shared_ptr<EncodeStatus>::~shared_ptr<EncodeStatus>
PUBLIC	?swap@?$shared_ptr@VEncodeStatus@@@std@@QEAAXAEAV12@@Z ; std::shared_ptr<EncodeStatus>::swap
PUBLIC	?reset@?$shared_ptr@VEncodeStatus@@@std@@QEAAXXZ ; std::shared_ptr<EncodeStatus>::reset
PUBLIC	??1?$unique_ptr@U_iobuf@@Ufp_deleter@@@std@@QEAA@XZ ; std::unique_ptr<_iobuf,fp_deleter>::~unique_ptr<_iobuf,fp_deleter>
PUBLIC	?get@?$unique_ptr@U_iobuf@@Ufp_deleter@@@std@@QEBAPEAU_iobuf@@XZ ; std::unique_ptr<_iobuf,fp_deleter>::get
PUBLIC	??B?$unique_ptr@U_iobuf@@Ufp_deleter@@@std@@QEBA_NXZ ; std::unique_ptr<_iobuf,fp_deleter>::operator bool
PUBLIC	?reset@?$unique_ptr@U_iobuf@@Ufp_deleter@@@std@@QEAAXPEAU_iobuf@@@Z ; std::unique_ptr<_iobuf,fp_deleter>::reset
PUBLIC	?_Get_first@?$_Compressed_pair@Ufp_deleter@@PEAU_iobuf@@$00@std@@QEAAAEAUfp_deleter@@XZ ; std::_Compressed_pair<fp_deleter,_iobuf *,1>::_Get_first
PUBLIC	?get@?$_Ptr_base@VRGYLog@@@std@@IEBAPEAVRGYLog@@XZ ; std::_Ptr_base<RGYLog>::get
PUBLIC	??0?$_Ptr_base@VRGYLog@@@std@@IEAA@XZ		; std::_Ptr_base<RGYLog>::_Ptr_base<RGYLog>
PUBLIC	?_Decref@?$_Ptr_base@VRGYLog@@@std@@IEAAXXZ	; std::_Ptr_base<RGYLog>::_Decref
PUBLIC	?_Swap@?$_Ptr_base@VRGYLog@@@std@@IEAAXAEAV12@@Z ; std::_Ptr_base<RGYLog>::_Swap
PUBLIC	??0?$shared_ptr@VRGYLog@@@std@@QEAA@XZ		; std::shared_ptr<RGYLog>::shared_ptr<RGYLog>
PUBLIC	??1?$shared_ptr@VRGYLog@@@std@@QEAA@XZ		; std::shared_ptr<RGYLog>::~shared_ptr<RGYLog>
PUBLIC	?swap@?$shared_ptr@VRGYLog@@@std@@QEAAXAEAV12@@Z ; std::shared_ptr<RGYLog>::swap
PUBLIC	?reset@?$shared_ptr@VRGYLog@@@std@@QEAAXXZ	; std::shared_ptr<RGYLog>::reset
PUBLIC	?SetOutputData@EncodeStatus@@QEAAXW4RGY_FRAMETYPE@@_KI@Z ; EncodeStatus::SetOutputData
PUBLIC	??$?CVRGYLog@@$0A@@?$shared_ptr@VRGYLog@@@std@@QEBAPEAVRGYLog@@XZ ; std::shared_ptr<RGYLog>::operator-><RGYLog,0>
PUBLIC	?deallocate@?$allocator@V?$basic_string@DU?$char_traits@D@std@@V?$allocator@D@2@@std@@@std@@QEAAXQEAV?$basic_string@DU?$char_traits@D@std@@V?$allocator@D@2@@2@_K@Z ; std::allocator<std::basic_string<char,std::char_traits<char>,std::allocator<char> > >::deallocate
PUBLIC	??1?$vector@V?$basic_string@DU?$char_traits@D@std@@V?$allocator@D@2@@std@@V?$allocator@V?$basic_string@DU?$char_traits@D@std@@V?$allocator@D@2@@std@@@2@@std@@QEAA@XZ ; std::vector<std::basic_string<char,std::char_traits<char>,std::allocator<char> >,std::allocator<std::basic_string<char,std::char_traits<char>,std::allocator<char> > > >::~vector<std::basic_string<char,std::char_traits<char>,std::allocator<char> >,std::allocator<std::basic_string<char,std::char_traits<char>,std::allocator<char> > > >
PUBLIC	?_Unchecked_begin@?$vector@V?$basic_string@DU?$char_traits@D@std@@V?$allocator@D@2@@std@@V?$allocator@V?$basic_string@DU?$char_traits@D@std@@V?$allocator@D@2@@std@@@2@@std@@QEAAPEAV?$basic_string@DU?$char_traits@D@std@@V?$allocator@D@2@@2@XZ ; std::vector<std::basic_string<char,std::char_traits<char>,std::allocator<char> >,std::allocator<std::basic_string<char,std::char_traits<char>,std::allocator<char> > > >::_Unchecked_begin
PUBLIC	?_Unchecked_end@?$vector@V?$basic_string@DU?$char_traits@D@std@@V?$allocator@D@2@@std@@V?$allocator@V?$basic_string@DU?$char_traits@D@std@@V?$allocator@D@2@@std@@@2@@std@@QEAAPEAV?$basic_string@DU?$char_traits@D@std@@V?$allocator@D@2@@2@XZ ; std::vector<std::basic_string<char,std::char_traits<char>,std::allocator<char> >,std::allocator<std::basic_string<char,std::char_traits<char>,std::allocator<char> > > >::_Unchecked_end
PUBLIC	?_Destroy@?$vector@V?$basic_string@DU?$char_traits@D@std@@V?$allocator@D@2@@std@@V?$allocator@V?$basic_string@DU?$char_traits@D@std@@V?$allocator@D@2@@std@@@2@@std@@AEAAXPEAV?$basic_string@DU?$char_traits@D@std@@V?$allocator@D@2@@2@0@Z ; std::vector<std::basic_string<char,std::char_traits<char>,std::allocator<char> >,std::allocator<std::basic_string<char,std::char_traits<char>,std::allocator<char> > > >::_Destroy
PUBLIC	?_Tidy@?$vector@V?$basic_string@DU?$char_traits@D@std@@V?$allocator@D@2@@std@@V?$allocator@V?$basic_string@DU?$char_traits@D@std@@V?$allocator@D@2@@std@@@2@@std@@AEAAXXZ ; std::vector<std::basic_string<char,std::char_traits<char>,std::allocator<char> >,std::allocator<std::basic_string<char,std::char_traits<char>,std::allocator<char> > > >::_Tidy
PUBLIC	?_Getal@?$vector@V?$basic_string@DU?$char_traits@D@std@@V?$allocator@D@2@@std@@V?$allocator@V?$basic_string@DU?$char_traits@D@std@@V?$allocator@D@2@@std@@@2@@std@@AEAAAEAV?$allocator@V?$basic_string@DU?$char_traits@D@std@@V?$allocator@D@2@@std@@@2@XZ ; std::vector<std::basic_string<char,std::char_traits<char>,std::allocator<char> >,std::allocator<std::basic_string<char,std::char_traits<char>,std::allocator<char> > > >::_Getal
PUBLIC	?_Get_first@?$_Compressed_pair@V?$allocator@V?$basic_string@DU?$char_traits@D@std@@V?$allocator@D@2@@std@@@std@@V?$_Vector_val@U?$_Simple_types@V?$basic_string@DU?$char_traits@D@std@@V?$allocator@D@2@@std@@@std@@@2@$00@std@@QEAAAEAV?$allocator@V?$basic_string@DU?$char_traits@D@std@@V?$allocator@D@2@@std@@@2@XZ ; std::_Compressed_pair<std::allocator<std::basic_string<char,std::char_traits<char>,std::allocator<char> > >,std::_Vector_val<std::_Simple_types<std::basic_string<char,std::char_traits<char>,std::allocator<char> > > >,1>::_Get_first
PUBLIC	?data@RGYBitstream@@QEBAPEAEXZ			; RGYBitstream::data
PUBLIC	?frametype@RGYBitstream@@QEBA?AW4RGY_FRAMETYPE@@XZ ; RGYBitstream::frametype
PUBLIC	?size@RGYBitstream@@QEBA_KXZ			; RGYBitstream::size
PUBLIC	?setSize@RGYBitstream@@QEAAX_K@Z		; RGYBitstream::setSize
PUBLIC	?bufsize@RGYBitstream@@QEBA_KXZ			; RGYBitstream::bufsize
PUBLIC	?clear@RGYBitstream@@QEAAXXZ			; RGYBitstream::clear
PUBLIC	?trim@RGYBitstream@@QEAAXXZ			; RGYBitstream::trim
PUBLIC	?changeSize@RGYBitstream@@QEAA?AW4RGY_ERR@@_K@Z	; RGYBitstream::changeSize
PUBLIC	?ptrY@RGYFrame@@QEAAPEAEXZ			; RGYFrame::ptrY
PUBLIC	?ptrUV@RGYFrame@@QEAAPEAEXZ			; RGYFrame::ptrUV
PUBLIC	?ptrU@RGYFrame@@QEAAPEAEXZ			; RGYFrame::ptrU
PUBLIC	?ptrV@RGYFrame@@QEAAPEAEXZ			; RGYFrame::ptrV
PUBLIC	?ptrRGB@RGYFrame@@QEAAPEAEXZ			; RGYFrame::ptrRGB
PUBLIC	?pitch@RGYFrame@@QEAAIXZ			; RGYFrame::pitch
PUBLIC	?width@RGYFrame@@QEAAIXZ			; RGYFrame::width
PUBLIC	?height@RGYFrame@@QEAAIXZ			; RGYFrame::height
PUBLIC	?crop@RGYFrame@@QEAA?ATsInputCrop@@XZ		; RGYFrame::crop
PUBLIC	?csp@RGYFrame@@QEAA?AW4RGY_CSP@@XZ		; RGYFrame::csp
PUBLIC	??$min@PEAE@std@@YAAEBQEAEAEBQEAE0@Z		; std::min<unsigned char *>
PUBLIC	??0RGYOutput@@QEAA@XZ				; RGYOutput::RGYOutput
PUBLIC	??1RGYOutput@@UEAA@XZ				; RGYOutput::~RGYOutput
PUBLIC	?Close@RGYOutput@@UEAAXXZ			; RGYOutput::Close
PUBLIC	?outputStdout@RGYOutput@@UEAA_NXZ		; RGYOutput::outputStdout
PUBLIC	?getOutType@RGYOutput@@UEAA?AW4OutputType@@XZ	; RGYOutput::getOutType
PUBLIC	?WaitFin@RGYOutput@@UEAAXXZ			; RGYOutput::WaitFin
PUBLIC	?AddMessage@RGYOutput@@QEAAXHAEBV?$basic_string@DU?$char_traits@D@std@@V?$allocator@D@2@@std@@@Z ; RGYOutput::AddMessage
PUBLIC	?AddMessage@RGYOutput@@QEAAXHPEBDZZ		; RGYOutput::AddMessage
PUBLIC	??1?$unique_ptr@DUmalloc_deleter@@@std@@QEAA@XZ	; std::unique_ptr<char,malloc_deleter>::~unique_ptr<char,malloc_deleter>
PUBLIC	?get@?$unique_ptr@DUmalloc_deleter@@@std@@QEBAPEADXZ ; std::unique_ptr<char,malloc_deleter>::get
PUBLIC	?reset@?$unique_ptr@DUmalloc_deleter@@@std@@QEAAXPEAD@Z ; std::unique_ptr<char,malloc_deleter>::reset
PUBLIC	?_Get_first@?$_Compressed_pair@Umalloc_deleter@@PEAD$00@std@@QEAAAEAUmalloc_deleter@@XZ ; std::_Compressed_pair<malloc_deleter,char *,1>::_Get_first
PUBLIC	??1?$unique_ptr@EUaligned_malloc_deleter@@@std@@QEAA@XZ ; std::unique_ptr<unsigned char,aligned_malloc_deleter>::~unique_ptr<unsigned char,aligned_malloc_deleter>
PUBLIC	?get@?$unique_ptr@EUaligned_malloc_deleter@@@std@@QEBAPEAEXZ ; std::unique_ptr<unsigned char,aligned_malloc_deleter>::get
PUBLIC	?reset@?$unique_ptr@EUaligned_malloc_deleter@@@std@@QEAAXPEAE@Z ; std::unique_ptr<unsigned char,aligned_malloc_deleter>::reset
PUBLIC	?_Get_first@?$_Compressed_pair@Ualigned_malloc_deleter@@PEAE$00@std@@QEAAAEAUaligned_malloc_deleter@@XZ ; std::_Compressed_pair<aligned_malloc_deleter,unsigned char *,1>::_Get_first
PUBLIC	??_GRGYOutput@@UEAAPEAXI@Z			; RGYOutput::`scalar deleting destructor'
PUBLIC	??$?8VRGYLog@@@std@@YA_NAEBV?$shared_ptr@VRGYLog@@@0@$$T@Z ; std::operator==<RGYLog>
PUBLIC	??0?$allocator@E@std@@QEAA@XZ			; std::allocator<unsigned char>::allocator<unsigned char>
PUBLIC	?deallocate@?$allocator@E@std@@QEAAXQEAE_K@Z	; std::allocator<unsigned char>::deallocate
PUBLIC	?allocate@?$allocator@E@std@@QEAAPEAE_K@Z	; std::allocator<unsigned char>::allocate
PUBLIC	?max_size@?$_Default_allocator_traits@V?$allocator@E@std@@@std@@SA_KAEBV?$allocator@E@2@@Z ; std::_Default_allocator_traits<std::allocator<unsigned char> >::max_size
PUBLIC	??0?$vector@EV?$allocator@E@std@@@std@@QEAA@XZ	; std::vector<unsigned char,std::allocator<unsigned char> >::vector<unsigned char,std::allocator<unsigned char> >
PUBLIC	??1?$vector@EV?$allocator@E@std@@@std@@QEAA@XZ	; std::vector<unsigned char,std::allocator<unsigned char> >::~vector<unsigned char,std::allocator<unsigned char> >
PUBLIC	?_Copy_assign@?$vector@EV?$allocator@E@std@@@std@@AEAAXAEBV12@U?$integral_constant@_N$0A@@2@@Z ; std::vector<unsigned char,std::allocator<unsigned char> >::_Copy_assign
PUBLIC	??4?$vector@EV?$allocator@E@std@@@std@@QEAAAEAV01@AEBV01@@Z ; std::vector<unsigned char,std::allocator<unsigned char> >::operator=
PUBLIC	?_Clear_and_reserve_geometric@?$vector@EV?$allocator@E@std@@@std@@AEAAX_K@Z ; std::vector<unsigned char,std::allocator<unsigned char> >::_Clear_and_reserve_geometric
PUBLIC	?clear@?$vector@EV?$allocator@E@std@@@std@@QEAAXXZ ; std::vector<unsigned char,std::allocator<unsigned char> >::clear
PUBLIC	?data@?$vector@EV?$allocator@E@std@@@std@@QEAAPEAEXZ ; std::vector<unsigned char,std::allocator<unsigned char> >::data
PUBLIC	?size@?$vector@EV?$allocator@E@std@@@std@@QEBA_KXZ ; std::vector<unsigned char,std::allocator<unsigned char> >::size
PUBLIC	?max_size@?$vector@EV?$allocator@E@std@@@std@@QEBA_KXZ ; std::vector<unsigned char,std::allocator<unsigned char> >::max_size
PUBLIC	?capacity@?$vector@EV?$allocator@E@std@@@std@@QEBA_KXZ ; std::vector<unsigned char,std::allocator<unsigned char> >::capacity
PUBLIC	?_Destroy@?$vector@EV?$allocator@E@std@@@std@@AEAAXPEAE0@Z ; std::vector<unsigned char,std::allocator<unsigned char> >::_Destroy
PUBLIC	?_Calculate_growth@?$vector@EV?$allocator@E@std@@@std@@AEBA_K_K@Z ; std::vector<unsigned char,std::allocator<unsigned char> >::_Calculate_growth
PUBLIC	?_Buy_raw@?$vector@EV?$allocator@E@std@@@std@@AEAAX_K@Z ; std::vector<unsigned char,std::allocator<unsigned char> >::_Buy_raw
PUBLIC	?_Tidy@?$vector@EV?$allocator@E@std@@@std@@AEAAXXZ ; std::vector<unsigned char,std::allocator<unsigned char> >::_Tidy
PUBLIC	?_Xlength@?$vector@EV?$allocator@E@std@@@std@@CAXXZ ; std::vector<unsigned char,std::allocator<unsigned char> >::_Xlength
PUBLIC	?_Getal@?$vector@EV?$allocator@E@std@@@std@@AEAAAEAV?$allocator@E@2@XZ ; std::vector<unsigned char,std::allocator<unsigned char> >::_Getal
PUBLIC	?_Getal@?$vector@EV?$allocator@E@std@@@std@@AEBAAEBV?$allocator@E@2@XZ ; std::vector<unsigned char,std::allocator<unsigned char> >::_Getal
PUBLIC	??0?$_Vector_val@U?$_Simple_types@E@std@@@std@@QEAA@XZ ; std::_Vector_val<std::_Simple_types<unsigned char> >::_Vector_val<std::_Simple_types<unsigned char> >
PUBLIC	?_Get_first@?$_Compressed_pair@V?$allocator@E@std@@V?$_Vector_val@U?$_Simple_types@E@std@@@2@$00@std@@QEAAAEAV?$allocator@E@2@XZ ; std::_Compressed_pair<std::allocator<unsigned char>,std::_Vector_val<std::_Simple_types<unsigned char> >,1>::_Get_first
PUBLIC	?_Get_first@?$_Compressed_pair@V?$allocator@E@std@@V?$_Vector_val@U?$_Simple_types@E@std@@@2@$00@std@@QEBAAEBV?$allocator@E@2@XZ ; std::_Compressed_pair<std::allocator<unsigned char>,std::_Vector_val<std::_Simple_types<unsigned char> >,1>::_Get_first
PUBLIC	??0RGYOutputRaw@@QEAA@XZ			; RGYOutputRaw::RGYOutputRaw
PUBLIC	??1RGYOutputRaw@@UEAA@XZ			; RGYOutputRaw::~RGYOutputRaw
PUBLIC	?WriteNextFrame@RGYOutputRaw@@UEAA?AW4RGY_ERR@@PEAURGYBitstream@@@Z ; RGYOutputRaw::WriteNextFrame
PUBLIC	?WriteNextFrame@RGYOutputRaw@@UEAA?AW4RGY_ERR@@PEAURGYFrame@@@Z ; RGYOutputRaw::WriteNextFrame
PUBLIC	?Init@RGYOutputRaw@@MEAA?AW4RGY_ERR@@PEBDPEBUVideoInfo@@PEBX@Z ; RGYOutputRaw::Init
PUBLIC	??0?$RGYAVDeleter@UAVBSFContext@@@@QEAA@XZ	; RGYAVDeleter<AVBSFContext>::RGYAVDeleter<AVBSFContext>
PUBLIC	??0?$RGYAVDeleter@UAVBSFContext@@@@QEAA@V?$function@$$A6AXPEAPEAUAVBSFContext@@@Z@std@@@Z ; RGYAVDeleter<AVBSFContext>::RGYAVDeleter<AVBSFContext>
PUBLIC	??R?$RGYAVDeleter@UAVBSFContext@@@@QEAAXPEAUAVBSFContext@@@Z ; RGYAVDeleter<AVBSFContext>::operator()
PUBLIC	??0?$_Func_class@XPEAPEAUAVBSFContext@@@std@@QEAA@XZ ; std::_Func_class<void,AVBSFContext * *>::_Func_class<void,AVBSFContext * *>
PUBLIC	??R?$_Func_class@XPEAPEAUAVBSFContext@@@std@@QEBAXPEAPEAUAVBSFContext@@@Z ; std::_Func_class<void,AVBSFContext * *>::operator()
PUBLIC	??1?$_Func_class@XPEAPEAUAVBSFContext@@@std@@QEAA@XZ ; std::_Func_class<void,AVBSFContext * *>::~_Func_class<void,AVBSFContext * *>
PUBLIC	?_Empty@?$_Func_class@XPEAPEAUAVBSFContext@@@std@@IEBA_NXZ ; std::_Func_class<void,AVBSFContext * *>::_Empty
PUBLIC	?_Reset_copy@?$_Func_class@XPEAPEAUAVBSFContext@@@std@@IEAAXAEBV12@@Z ; std::_Func_class<void,AVBSFContext * *>::_Reset_copy
PUBLIC	?_Reset_move@?$_Func_class@XPEAPEAUAVBSFContext@@@std@@IEAAX$$QEAV12@@Z ; std::_Func_class<void,AVBSFContext * *>::_Reset_move
PUBLIC	?_Tidy@?$_Func_class@XPEAPEAUAVBSFContext@@@std@@IEAAXXZ ; std::_Func_class<void,AVBSFContext * *>::_Tidy
PUBLIC	?_Local@?$_Func_class@XPEAPEAUAVBSFContext@@@std@@AEBA_NXZ ; std::_Func_class<void,AVBSFContext * *>::_Local
PUBLIC	?_Getimpl@?$_Func_class@XPEAPEAUAVBSFContext@@@std@@AEBAPEAV?$_Func_base@XPEAPEAUAVBSFContext@@@2@XZ ; std::_Func_class<void,AVBSFContext * *>::_Getimpl
PUBLIC	?_Set@?$_Func_class@XPEAPEAUAVBSFContext@@@std@@AEAAXPEAV?$_Func_base@XPEAPEAUAVBSFContext@@@2@@Z ; std::_Func_class<void,AVBSFContext * *>::_Set
PUBLIC	??0?$function@$$A6AXPEAPEAUAVBSFContext@@@Z@std@@QEAA@$$T@Z ; std::function<void __cdecl(AVBSFContext * *)>::function<void __cdecl(AVBSFContext * *)>
PUBLIC	??0?$function@$$A6AXPEAPEAUAVBSFContext@@@Z@std@@QEAA@AEBV01@@Z ; std::function<void __cdecl(AVBSFContext * *)>::function<void __cdecl(AVBSFContext * *)>
PUBLIC	??0?$function@$$A6AXPEAPEAUAVBSFContext@@@Z@std@@QEAA@$$QEAV01@@Z ; std::function<void __cdecl(AVBSFContext * *)>::function<void __cdecl(AVBSFContext * *)>
PUBLIC	??4?$function@$$A6AXPEAPEAUAVBSFContext@@@Z@std@@QEAAAEAV01@$$QEAV01@@Z ; std::function<void __cdecl(AVBSFContext * *)>::operator=
PUBLIC	??1?$function@$$A6AXPEAPEAUAVBSFContext@@@Z@std@@QEAA@XZ ; std::function<void __cdecl(AVBSFContext * *)>::~function<void __cdecl(AVBSFContext * *)>
PUBLIC	??1?$RGYAVDeleter@UAVBSFContext@@@@QEAA@XZ	; RGYAVDeleter<AVBSFContext>::~RGYAVDeleter<AVBSFContext>
PUBLIC	??0?$RGYAVDeleter@UAVBSFContext@@@@QEAA@$$QEAU0@@Z ; RGYAVDeleter<AVBSFContext>::RGYAVDeleter<AVBSFContext>
PUBLIC	??4?$RGYAVDeleter@UAVBSFContext@@@@QEAAAEAU0@$$QEAU0@@Z ; RGYAVDeleter<AVBSFContext>::operator=
PUBLIC	??4?$unique_ptr@UAVBSFContext@@U?$RGYAVDeleter@UAVBSFContext@@@@@std@@QEAAAEAV01@$$QEAV01@@Z ; std::unique_ptr<AVBSFContext,RGYAVDeleter<AVBSFContext> >::operator=
PUBLIC	??1?$unique_ptr@UAVBSFContext@@U?$RGYAVDeleter@UAVBSFContext@@@@@std@@QEAA@XZ ; std::unique_ptr<AVBSFContext,RGYAVDeleter<AVBSFContext> >::~unique_ptr<AVBSFContext,RGYAVDeleter<AVBSFContext> >
PUBLIC	??C?$unique_ptr@UAVBSFContext@@U?$RGYAVDeleter@UAVBSFContext@@@@@std@@QEBAPEAUAVBSFContext@@XZ ; std::unique_ptr<AVBSFContext,RGYAVDeleter<AVBSFContext> >::operator->
PUBLIC	?get@?$unique_ptr@UAVBSFContext@@U?$RGYAVDeleter@UAVBSFContext@@@@@std@@QEBAPEAUAVBSFContext@@XZ ; std::unique_ptr<AVBSFContext,RGYAVDeleter<AVBSFContext> >::get
PUBLIC	??B?$unique_ptr@UAVBSFContext@@U?$RGYAVDeleter@UAVBSFContext@@@@@std@@QEBA_NXZ ; std::unique_ptr<AVBSFContext,RGYAVDeleter<AVBSFContext> >::operator bool
PUBLIC	?release@?$unique_ptr@UAVBSFContext@@U?$RGYAVDeleter@UAVBSFContext@@@@@std@@QEAAPEAUAVBSFContext@@XZ ; std::unique_ptr<AVBSFContext,RGYAVDeleter<AVBSFContext> >::release
PUBLIC	?reset@?$unique_ptr@UAVBSFContext@@U?$RGYAVDeleter@UAVBSFContext@@@@@std@@QEAAXPEAUAVBSFContext@@@Z ; std::unique_ptr<AVBSFContext,RGYAVDeleter<AVBSFContext> >::reset
PUBLIC	?_Get_first@?$_Compressed_pair@U?$RGYAVDeleter@UAVBSFContext@@@@PEAUAVBSFContext@@$0A@@std@@QEAAAEAU?$RGYAVDeleter@UAVBSFContext@@@@XZ ; std::_Compressed_pair<RGYAVDeleter<AVBSFContext>,AVBSFContext *,0>::_Get_first
PUBLIC	??1?$_Compressed_pair@U?$RGYAVDeleter@UAVBSFContext@@@@PEAUAVBSFContext@@$0A@@std@@QEAA@XZ ; std::_Compressed_pair<RGYAVDeleter<AVBSFContext>,AVBSFContext *,0>::~_Compressed_pair<RGYAVDeleter<AVBSFContext>,AVBSFContext *,0>
PUBLIC	??_GRGYOutputRaw@@UEAAPEAXI@Z			; RGYOutputRaw::`scalar deleting destructor'
PUBLIC	??0CQSVOutFrame@@QEAA@XZ			; CQSVOutFrame::CQSVOutFrame
PUBLIC	??1CQSVOutFrame@@UEAA@XZ			; CQSVOutFrame::~CQSVOutFrame
PUBLIC	?WriteNextFrame@CQSVOutFrame@@UEAA?AW4RGY_ERR@@PEAURGYBitstream@@@Z ; CQSVOutFrame::WriteNextFrame
PUBLIC	?WriteNextFrame@CQSVOutFrame@@UEAA?AW4RGY_ERR@@PEAURGYFrame@@@Z ; CQSVOutFrame::WriteNextFrame
PUBLIC	?Init@CQSVOutFrame@@MEAA?AW4RGY_ERR@@PEBDPEBUVideoInfo@@PEBX@Z ; CQSVOutFrame::Init
PUBLIC	??_GCQSVOutFrame@@UEAAPEAXI@Z			; CQSVOutFrame::`scalar deleting destructor'
PUBLIC	??0?$allocator@Unal_info@@@std@@QEAA@XZ		; std::allocator<nal_info>::allocator<nal_info>
PUBLIC	?deallocate@?$allocator@Unal_info@@@std@@QEAAXQEAUnal_info@@_K@Z ; std::allocator<nal_info>::deallocate
PUBLIC	?allocate@?$allocator@Unal_info@@@std@@QEAAPEAUnal_info@@_K@Z ; std::allocator<nal_info>::allocate
PUBLIC	?max_size@?$_Default_allocator_traits@V?$allocator@Unal_info@@@std@@@std@@SA_KAEBV?$allocator@Unal_info@@@2@@Z ; std::_Default_allocator_traits<std::allocator<nal_info> >::max_size
PUBLIC	??0?$vector@Unal_info@@V?$allocator@Unal_info@@@std@@@std@@QEAA@XZ ; std::vector<nal_info,std::allocator<nal_info> >::vector<nal_info,std::allocator<nal_info> >
PUBLIC	?_Move_construct@?$vector@Unal_info@@V?$allocator@Unal_info@@@std@@@std@@AEAAXAEAV12@U?$integral_constant@_N$00@2@@Z ; std::vector<nal_info,std::allocator<nal_info> >::_Move_construct
PUBLIC	??0?$vector@Unal_info@@V?$allocator@Unal_info@@@std@@@std@@QEAA@$$QEAV01@@Z ; std::vector<nal_info,std::allocator<nal_info> >::vector<nal_info,std::allocator<nal_info> >
PUBLIC	?_Move_assign@?$vector@Unal_info@@V?$allocator@Unal_info@@@std@@@std@@AEAAXAEAV12@U_Equal_allocators@2@@Z ; std::vector<nal_info,std::allocator<nal_info> >::_Move_assign
PUBLIC	??4?$vector@Unal_info@@V?$allocator@Unal_info@@@std@@@std@@QEAAAEAV01@$$QEAV01@@Z ; std::vector<nal_info,std::allocator<nal_info> >::operator=
PUBLIC	??1?$vector@Unal_info@@V?$allocator@Unal_info@@@std@@@std@@QEAA@XZ ; std::vector<nal_info,std::allocator<nal_info> >::~vector<nal_info,std::allocator<nal_info> >
PUBLIC	?push_back@?$vector@Unal_info@@V?$allocator@Unal_info@@@std@@@std@@QEAAXAEBUnal_info@@@Z ; std::vector<nal_info,std::allocator<nal_info> >::push_back
PUBLIC	?begin@?$vector@Unal_info@@V?$allocator@Unal_info@@@std@@@std@@QEAA?AV?$_Vector_iterator@V?$_Vector_val@U?$_Simple_types@Unal_info@@@std@@@std@@@2@XZ ; std::vector<nal_info,std::allocator<nal_info> >::begin
PUBLIC	?begin@?$vector@Unal_info@@V?$allocator@Unal_info@@@std@@@std@@QEBA?AV?$_Vector_const_iterator@V?$_Vector_val@U?$_Simple_types@Unal_info@@@std@@@std@@@2@XZ ; std::vector<nal_info,std::allocator<nal_info> >::begin
PUBLIC	?end@?$vector@Unal_info@@V?$allocator@Unal_info@@@std@@@std@@QEAA?AV?$_Vector_iterator@V?$_Vector_val@U?$_Simple_types@Unal_info@@@std@@@std@@@2@XZ ; std::vector<nal_info,std::allocator<nal_info> >::end
PUBLIC	?end@?$vector@Unal_info@@V?$allocator@Unal_info@@@std@@@std@@QEBA?AV?$_Vector_const_iterator@V?$_Vector_val@U?$_Simple_types@Unal_info@@@std@@@std@@@2@XZ ; std::vector<nal_info,std::allocator<nal_info> >::end
PUBLIC	?_Unchecked_begin@?$vector@Unal_info@@V?$allocator@Unal_info@@@std@@@std@@QEBAPEBUnal_info@@XZ ; std::vector<nal_info,std::allocator<nal_info> >::_Unchecked_begin
PUBLIC	?_Unchecked_end@?$vector@Unal_info@@V?$allocator@Unal_info@@@std@@@std@@QEBAPEBUnal_info@@XZ ; std::vector<nal_info,std::allocator<nal_info> >::_Unchecked_end
PUBLIC	?size@?$vector@Unal_info@@V?$allocator@Unal_info@@@std@@@std@@QEBA_KXZ ; std::vector<nal_info,std::allocator<nal_info> >::size
PUBLIC	?max_size@?$vector@Unal_info@@V?$allocator@Unal_info@@@std@@@std@@QEBA_KXZ ; std::vector<nal_info,std::allocator<nal_info> >::max_size
PUBLIC	?capacity@?$vector@Unal_info@@V?$allocator@Unal_info@@@std@@@std@@QEBA_KXZ ; std::vector<nal_info,std::allocator<nal_info> >::capacity
PUBLIC	?_Umove@?$vector@Unal_info@@V?$allocator@Unal_info@@@std@@@std@@AEAAPEAUnal_info@@PEAU3@00@Z ; std::vector<nal_info,std::allocator<nal_info> >::_Umove
PUBLIC	?_Umove_if_noexcept1@?$vector@Unal_info@@V?$allocator@Unal_info@@@std@@@std@@AEAAXPEAUnal_info@@00U?$integral_constant@_N$00@2@@Z ; std::vector<nal_info,std::allocator<nal_info> >::_Umove_if_noexcept1
PUBLIC	?_Umove_if_noexcept@?$vector@Unal_info@@V?$allocator@Unal_info@@@std@@@std@@AEAAXPEAUnal_info@@00@Z ; std::vector<nal_info,std::allocator<nal_info> >::_Umove_if_noexcept
PUBLIC	?_Destroy@?$vector@Unal_info@@V?$allocator@Unal_info@@@std@@@std@@AEAAXPEAUnal_info@@0@Z ; std::vector<nal_info,std::allocator<nal_info> >::_Destroy
PUBLIC	?_Calculate_growth@?$vector@Unal_info@@V?$allocator@Unal_info@@@std@@@std@@AEBA_K_K@Z ; std::vector<nal_info,std::allocator<nal_info> >::_Calculate_growth
PUBLIC	?_Change_array@?$vector@Unal_info@@V?$allocator@Unal_info@@@std@@@std@@AEAAXQEAUnal_info@@_K1@Z ; std::vector<nal_info,std::allocator<nal_info> >::_Change_array
PUBLIC	?_Tidy@?$vector@Unal_info@@V?$allocator@Unal_info@@@std@@@std@@AEAAXXZ ; std::vector<nal_info,std::allocator<nal_info> >::_Tidy
PUBLIC	?_Xlength@?$vector@Unal_info@@V?$allocator@Unal_info@@@std@@@std@@CAXXZ ; std::vector<nal_info,std::allocator<nal_info> >::_Xlength
PUBLIC	?_Orphan_range@?$vector@Unal_info@@V?$allocator@Unal_info@@@std@@@std@@AEBAXPEAUnal_info@@0@Z ; std::vector<nal_info,std::allocator<nal_info> >::_Orphan_range
PUBLIC	?_Getal@?$vector@Unal_info@@V?$allocator@Unal_info@@@std@@@std@@AEAAAEAV?$allocator@Unal_info@@@2@XZ ; std::vector<nal_info,std::allocator<nal_info> >::_Getal
PUBLIC	?_Getal@?$vector@Unal_info@@V?$allocator@Unal_info@@@std@@@std@@AEBAAEBV?$allocator@Unal_info@@@2@XZ ; std::vector<nal_info,std::allocator<nal_info> >::_Getal
PUBLIC	??0?$_Vector_val@U?$_Simple_types@Unal_info@@@std@@@std@@QEAA@XZ ; std::_Vector_val<std::_Simple_types<nal_info> >::_Vector_val<std::_Simple_types<nal_info> >
PUBLIC	?_Take_contents@?$_Vector_val@U?$_Simple_types@Unal_info@@@std@@@std@@QEAAXAEAV12@@Z ; std::_Vector_val<std::_Simple_types<nal_info> >::_Take_contents
PUBLIC	?_Get_first@?$_Compressed_pair@V?$allocator@Unal_info@@@std@@V?$_Vector_val@U?$_Simple_types@Unal_info@@@std@@@2@$00@std@@QEAAAEAV?$allocator@Unal_info@@@2@XZ ; std::_Compressed_pair<std::allocator<nal_info>,std::_Vector_val<std::_Simple_types<nal_info> >,1>::_Get_first
PUBLIC	?_Get_first@?$_Compressed_pair@V?$allocator@Unal_info@@@std@@V?$_Vector_val@U?$_Simple_types@Unal_info@@@std@@@2@$00@std@@QEBAAEBV?$allocator@Unal_info@@@2@XZ ; std::_Compressed_pair<std::allocator<nal_info>,std::_Vector_val<std::_Simple_types<nal_info> >,1>::_Get_first
PUBLIC	??0?$_Vector_const_iterator@V?$_Vector_val@U?$_Simple_types@Unal_info@@@std@@@std@@@std@@QEAA@PEAUnal_info@@PEBU_Container_base12@1@@Z ; std::_Vector_const_iterator<std::_Vector_val<std::_Simple_types<nal_info> > >::_Vector_const_iterator<std::_Vector_val<std::_Simple_types<nal_info> > >
PUBLIC	??C?$_Vector_const_iterator@V?$_Vector_val@U?$_Simple_types@Unal_info@@@std@@@std@@@std@@QEBAPEBUnal_info@@XZ ; std::_Vector_const_iterator<std::_Vector_val<std::_Simple_types<nal_info> > >::operator->
PUBLIC	?_Verify_offset@?$_Vector_const_iterator@V?$_Vector_val@U?$_Simple_types@Unal_info@@@std@@@std@@@std@@QEBAX_J@Z ; std::_Vector_const_iterator<std::_Vector_val<std::_Simple_types<nal_info> > >::_Verify_offset
PUBLIC	??Y?$_Vector_const_iterator@V?$_Vector_val@U?$_Simple_types@Unal_info@@@std@@@std@@@std@@QEAAAEAV01@_J@Z ; std::_Vector_const_iterator<std::_Vector_val<std::_Simple_types<nal_info> > >::operator+=
PUBLIC	??Z?$_Vector_const_iterator@V?$_Vector_val@U?$_Simple_types@Unal_info@@@std@@@std@@@std@@QEAAAEAV01@_J@Z ; std::_Vector_const_iterator<std::_Vector_val<std::_Simple_types<nal_info> > >::operator-=
PUBLIC	??8?$_Vector_const_iterator@V?$_Vector_val@U?$_Simple_types@Unal_info@@@std@@@std@@@std@@QEBA_NAEBV01@@Z ; std::_Vector_const_iterator<std::_Vector_val<std::_Simple_types<nal_info> > >::operator==
PUBLIC	??9?$_Vector_const_iterator@V?$_Vector_val@U?$_Simple_types@Unal_info@@@std@@@std@@@std@@QEBA_NAEBV01@@Z ; std::_Vector_const_iterator<std::_Vector_val<std::_Simple_types<nal_info> > >::operator!=
PUBLIC	?_Compat@?$_Vector_const_iterator@V?$_Vector_val@U?$_Simple_types@Unal_info@@@std@@@std@@@std@@QEBAXAEBV12@@Z ; std::_Vector_const_iterator<std::_Vector_val<std::_Simple_types<nal_info> > >::_Compat
PUBLIC	?_Verify_range@std@@YAXAEBV?$_Vector_const_iterator@V?$_Vector_val@U?$_Simple_types@Unal_info@@@std@@@std@@@1@0@Z ; std::_Verify_range
PUBLIC	?_Unwrapped@?$_Vector_const_iterator@V?$_Vector_val@U?$_Simple_types@Unal_info@@@std@@@std@@@std@@QEBAPEBUnal_info@@XZ ; std::_Vector_const_iterator<std::_Vector_val<std::_Simple_types<nal_info> > >::_Unwrapped
PUBLIC	?_Seek_to@?$_Vector_const_iterator@V?$_Vector_val@U?$_Simple_types@Unal_info@@@std@@@std@@@std@@QEAAXPEBUnal_info@@@Z ; std::_Vector_const_iterator<std::_Vector_val<std::_Simple_types<nal_info> > >::_Seek_to
PUBLIC	??1?$_Vector_const_iterator@V?$_Vector_val@U?$_Simple_types@Unal_info@@@std@@@std@@@std@@QEAA@XZ ; std::_Vector_const_iterator<std::_Vector_val<std::_Simple_types<nal_info> > >::~_Vector_const_iterator<std::_Vector_val<std::_Simple_types<nal_info> > >
PUBLIC	??0?$_Vector_const_iterator@V?$_Vector_val@U?$_Simple_types@Unal_info@@@std@@@std@@@std@@QEAA@AEBV01@@Z ; std::_Vector_const_iterator<std::_Vector_val<std::_Simple_types<nal_info> > >::_Vector_const_iterator<std::_Vector_val<std::_Simple_types<nal_info> > >
PUBLIC	??0?$_Vector_const_iterator@V?$_Vector_val@U?$_Simple_types@Unal_info@@@std@@@std@@@std@@QEAA@$$QEAV01@@Z ; std::_Vector_const_iterator<std::_Vector_val<std::_Simple_types<nal_info> > >::_Vector_const_iterator<std::_Vector_val<std::_Simple_types<nal_info> > >
PUBLIC	??0?$_Vector_iterator@V?$_Vector_val@U?$_Simple_types@Unal_info@@@std@@@std@@@std@@QEAA@PEAUnal_info@@PEBU_Container_base12@1@@Z ; std::_Vector_iterator<std::_Vector_val<std::_Simple_types<nal_info> > >::_Vector_iterator<std::_Vector_val<std::_Simple_types<nal_info> > >
PUBLIC	??C?$_Vector_iterator@V?$_Vector_val@U?$_Simple_types@Unal_info@@@std@@@std@@@std@@QEBAPEAUnal_info@@XZ ; std::_Vector_iterator<std::_Vector_val<std::_Simple_types<nal_info> > >::operator->
PUBLIC	??Z?$_Vector_iterator@V?$_Vector_val@U?$_Simple_types@Unal_info@@@std@@@std@@@std@@QEAAAEAV01@_J@Z ; std::_Vector_iterator<std::_Vector_val<std::_Simple_types<nal_info> > >::operator-=
PUBLIC	??G?$_Vector_iterator@V?$_Vector_val@U?$_Simple_types@Unal_info@@@std@@@std@@@std@@QEBA?AV01@_J@Z ; std::_Vector_iterator<std::_Vector_val<std::_Simple_types<nal_info> > >::operator-
PUBLIC	?_Unwrapped@?$_Vector_iterator@V?$_Vector_val@U?$_Simple_types@Unal_info@@@std@@@std@@@std@@QEBAPEAUnal_info@@XZ ; std::_Vector_iterator<std::_Vector_val<std::_Simple_types<nal_info> > >::_Unwrapped
PUBLIC	??1?$_Vector_iterator@V?$_Vector_val@U?$_Simple_types@Unal_info@@@std@@@std@@@std@@QEAA@XZ ; std::_Vector_iterator<std::_Vector_val<std::_Simple_types<nal_info> > >::~_Vector_iterator<std::_Vector_val<std::_Simple_types<nal_info> > >
PUBLIC	??0?$_Vector_iterator@V?$_Vector_val@U?$_Simple_types@Unal_info@@@std@@@std@@@std@@QEAA@AEBV01@@Z ; std::_Vector_iterator<std::_Vector_val<std::_Simple_types<nal_info> > >::_Vector_iterator<std::_Vector_val<std::_Simple_types<nal_info> > >
PUBLIC	??0?$_Vector_iterator@V?$_Vector_val@U?$_Simple_types@Unal_info@@@std@@@std@@@std@@QEAA@$$QEAV01@@Z ; std::_Vector_iterator<std::_Vector_val<std::_Simple_types<nal_info> > >::_Vector_iterator<std::_Vector_val<std::_Simple_types<nal_info> > >
PUBLIC	??$?0Ufp_deleter@@$0A@@?$unique_ptr@U_iobuf@@Ufp_deleter@@@std@@QEAA@XZ ; std::unique_ptr<_iobuf,fp_deleter>::unique_ptr<_iobuf,fp_deleter><fp_deleter,0>
PUBLIC	??$?0Umalloc_deleter@@$0A@@?$unique_ptr@DUmalloc_deleter@@@std@@QEAA@XZ ; std::unique_ptr<char,malloc_deleter>::unique_ptr<char,malloc_deleter><malloc_deleter,0>
PUBLIC	??$?0Ualigned_malloc_deleter@@$0A@@?$unique_ptr@EUaligned_malloc_deleter@@@std@@QEAA@XZ ; std::unique_ptr<unsigned char,aligned_malloc_deleter>::unique_ptr<unsigned char,aligned_malloc_deleter><aligned_malloc_deleter,0>
PUBLIC	??$?0U?$RGYAVDeleter@UAVBSFContext@@@@$0A@@?$unique_ptr@UAVBSFContext@@U?$RGYAVDeleter@UAVBSFContext@@@@@std@@QEAA@XZ ; std::unique_ptr<AVBSFContext,RGYAVDeleter<AVBSFContext> >::unique_ptr<AVBSFContext,RGYAVDeleter<AVBSFContext> ><RGYAVDeleter<AVBSFContext>,0>
PUBLIC	??1?$pair@HV?$basic_string@DU?$char_traits@D@std@@V?$allocator@D@2@@std@@@std@@QEAA@XZ ; std::pair<int,std::basic_string<char,std::char_traits<char>,std::allocator<char> > >::~pair<int,std::basic_string<char,std::char_traits<char>,std::allocator<char> > >
PUBLIC	??0?$RGYAVDeleter@UAVCodecParameters@@@@QEAA@V?$function@$$A6AXPEAPEAUAVCodecParameters@@@Z@std@@@Z ; RGYAVDeleter<AVCodecParameters>::RGYAVDeleter<AVCodecParameters>
PUBLIC	??R?$RGYAVDeleter@UAVCodecParameters@@@@QEAAXPEAUAVCodecParameters@@@Z ; RGYAVDeleter<AVCodecParameters>::operator()
PUBLIC	??0?$_Func_class@XPEAPEAUAVCodecParameters@@@std@@QEAA@XZ ; std::_Func_class<void,AVCodecParameters * *>::_Func_class<void,AVCodecParameters * *>
PUBLIC	??R?$_Func_class@XPEAPEAUAVCodecParameters@@@std@@QEBAXPEAPEAUAVCodecParameters@@@Z ; std::_Func_class<void,AVCodecParameters * *>::operator()
PUBLIC	??1?$_Func_class@XPEAPEAUAVCodecParameters@@@std@@QEAA@XZ ; std::_Func_class<void,AVCodecParameters * *>::~_Func_class<void,AVCodecParameters * *>
PUBLIC	?_Empty@?$_Func_class@XPEAPEAUAVCodecParameters@@@std@@IEBA_NXZ ; std::_Func_class<void,AVCodecParameters * *>::_Empty
PUBLIC	?_Reset_copy@?$_Func_class@XPEAPEAUAVCodecParameters@@@std@@IEAAXAEBV12@@Z ; std::_Func_class<void,AVCodecParameters * *>::_Reset_copy
PUBLIC	?_Reset_move@?$_Func_class@XPEAPEAUAVCodecParameters@@@std@@IEAAX$$QEAV12@@Z ; std::_Func_class<void,AVCodecParameters * *>::_Reset_move
PUBLIC	?_Tidy@?$_Func_class@XPEAPEAUAVCodecParameters@@@std@@IEAAXXZ ; std::_Func_class<void,AVCodecParameters * *>::_Tidy
PUBLIC	?_Local@?$_Func_class@XPEAPEAUAVCodecParameters@@@std@@AEBA_NXZ ; std::_Func_class<void,AVCodecParameters * *>::_Local
PUBLIC	?_Getimpl@?$_Func_class@XPEAPEAUAVCodecParameters@@@std@@AEBAPEAV?$_Func_base@XPEAPEAUAVCodecParameters@@@2@XZ ; std::_Func_class<void,AVCodecParameters * *>::_Getimpl
PUBLIC	?_Set@?$_Func_class@XPEAPEAUAVCodecParameters@@@std@@AEAAXPEAV?$_Func_base@XPEAPEAUAVCodecParameters@@@2@@Z ; std::_Func_class<void,AVCodecParameters * *>::_Set
PUBLIC	??0?$function@$$A6AXPEAPEAUAVCodecParameters@@@Z@std@@QEAA@AEBV01@@Z ; std::function<void __cdecl(AVCodecParameters * *)>::function<void __cdecl(AVCodecParameters * *)>
PUBLIC	??0?$function@$$A6AXPEAPEAUAVCodecParameters@@@Z@std@@QEAA@$$QEAV01@@Z ; std::function<void __cdecl(AVCodecParameters * *)>::function<void __cdecl(AVCodecParameters * *)>
PUBLIC	??1?$function@$$A6AXPEAPEAUAVCodecParameters@@@Z@std@@QEAA@XZ ; std::function<void __cdecl(AVCodecParameters * *)>::~function<void __cdecl(AVCodecParameters * *)>
PUBLIC	??1?$RGYAVDeleter@UAVCodecParameters@@@@QEAA@XZ	; RGYAVDeleter<AVCodecParameters>::~RGYAVDeleter<AVCodecParameters>
PUBLIC	??0?$RGYAVDeleter@UAVCodecParameters@@@@QEAA@$$QEAU0@@Z ; RGYAVDeleter<AVCodecParameters>::RGYAVDeleter<AVCodecParameters>
PUBLIC	??$forward@AEAP6AXPEAPEAUAVCodecParameters@@@Z@std@@YAAEAP6AXPEAPEAUAVCodecParameters@@@ZAEAP6AX0@Z@Z ; std::forward<void (__cdecl*&)(AVCodecParameters * *)>
PUBLIC	??$forward@PEAPEAUAVCodecParameters@@@std@@YA$$QEAPEAPEAUAVCodecParameters@@AEAPEAPEAU1@@Z ; std::forward<AVCodecParameters * *>
PUBLIC	??$_Call@AEAP6AXPEAPEAUAVCodecParameters@@@ZPEAPEAU1@@_Invoker_functor@std@@SAXAEAP6AXPEAPEAUAVCodecParameters@@@Z$$QEAPEAPEAU2@@Z ; std::_Invoker_functor::_Call<void (__cdecl*&)(AVCodecParameters * *),AVCodecParameters * *>
PUBLIC	??$invoke@AEAP6AXPEAPEAUAVCodecParameters@@@ZPEAPEAU1@@std@@YAXAEAP6AXPEAPEAUAVCodecParameters@@@Z$$QEAPEAPEAU1@@Z ; std::invoke<void (__cdecl*&)(AVCodecParameters * *),AVCodecParameters * *>
PUBLIC	??$?0P6AXPEAPEAUAVCodecParameters@@@ZX@?$function@$$A6AXPEAPEAUAVCodecParameters@@@Z@std@@QEAA@P6AXPEAPEAUAVCodecParameters@@@Z@Z ; std::function<void __cdecl(AVCodecParameters * *)>::function<void __cdecl(AVCodecParameters * *)><void (__cdecl*)(AVCodecParameters * *),void>
PUBLIC	??1?$unique_ptr@UAVCodecParameters@@U?$RGYAVDeleter@UAVCodecParameters@@@@@std@@QEAA@XZ ; std::unique_ptr<AVCodecParameters,RGYAVDeleter<AVCodecParameters> >::~unique_ptr<AVCodecParameters,RGYAVDeleter<AVCodecParameters> >
PUBLIC	??C?$unique_ptr@UAVCodecParameters@@U?$RGYAVDeleter@UAVCodecParameters@@@@@std@@QEBAPEAUAVCodecParameters@@XZ ; std::unique_ptr<AVCodecParameters,RGYAVDeleter<AVCodecParameters> >::operator->
PUBLIC	?get@?$unique_ptr@UAVCodecParameters@@U?$RGYAVDeleter@UAVCodecParameters@@@@@std@@QEBAPEAUAVCodecParameters@@XZ ; std::unique_ptr<AVCodecParameters,RGYAVDeleter<AVCodecParameters> >::get
PUBLIC	?_Get_first@?$_Compressed_pair@U?$RGYAVDeleter@UAVCodecParameters@@@@PEAUAVCodecParameters@@$0A@@std@@QEAAAEAU?$RGYAVDeleter@UAVCodecParameters@@@@XZ ; std::_Compressed_pair<RGYAVDeleter<AVCodecParameters>,AVCodecParameters *,0>::_Get_first
PUBLIC	??1?$_Compressed_pair@U?$RGYAVDeleter@UAVCodecParameters@@@@PEAUAVCodecParameters@@$0A@@std@@QEAA@XZ ; std::_Compressed_pair<RGYAVDeleter<AVCodecParameters>,AVCodecParameters *,0>::~_Compressed_pair<RGYAVDeleter<AVCodecParameters>,AVCodecParameters *,0>
PUBLIC	??$?0U?$RGYAVDeleter@UAVCodecParameters@@@@$0A@@?$unique_ptr@UAVCodecParameters@@U?$RGYAVDeleter@UAVCodecParameters@@@@@std@@QEAA@PEAUAVCodecParameters@@$$QEAU?$RGYAVDeleter@UAVCodecParameters@@@@@Z ; std::unique_ptr<AVCodecParameters,RGYAVDeleter<AVCodecParameters> >::unique_ptr<AVCodecParameters,RGYAVDeleter<AVCodecParameters> ><RGYAVDeleter<AVCodecParameters>,0>
PUBLIC	??$forward@AEAP6AXPEAPEAUAVBSFContext@@@Z@std@@YAAEAP6AXPEAPEAUAVBSFContext@@@ZAEAP6AX0@Z@Z ; std::forward<void (__cdecl*&)(AVBSFContext * *)>
PUBLIC	??$forward@PEAPEAUAVBSFContext@@@std@@YA$$QEAPEAPEAUAVBSFContext@@AEAPEAPEAU1@@Z ; std::forward<AVBSFContext * *>
PUBLIC	??$_Call@AEAP6AXPEAPEAUAVBSFContext@@@ZPEAPEAU1@@_Invoker_functor@std@@SAXAEAP6AXPEAPEAUAVBSFContext@@@Z$$QEAPEAPEAU2@@Z ; std::_Invoker_functor::_Call<void (__cdecl*&)(AVBSFContext * *),AVBSFContext * *>
PUBLIC	??$invoke@AEAP6AXPEAPEAUAVBSFContext@@@ZPEAPEAU1@@std@@YAXAEAP6AXPEAPEAUAVBSFContext@@@Z$$QEAPEAPEAU1@@Z ; std::invoke<void (__cdecl*&)(AVBSFContext * *),AVBSFContext * *>
PUBLIC	??$?0P6AXPEAPEAUAVBSFContext@@@ZX@?$function@$$A6AXPEAPEAUAVBSFContext@@@Z@std@@QEAA@P6AXPEAPEAUAVBSFContext@@@Z@Z ; std::function<void __cdecl(AVBSFContext * *)>::function<void __cdecl(AVBSFContext * *)><void (__cdecl*)(AVBSFContext * *),void>
PUBLIC	??$?0U?$RGYAVDeleter@UAVBSFContext@@@@$0A@@?$unique_ptr@UAVBSFContext@@U?$RGYAVDeleter@UAVBSFContext@@@@@std@@QEAA@PEAUAVBSFContext@@$$QEAU?$RGYAVDeleter@UAVBSFContext@@@@@Z ; std::unique_ptr<AVBSFContext,RGYAVDeleter<AVBSFContext> >::unique_ptr<AVBSFContext,RGYAVDeleter<AVBSFContext> ><RGYAVDeleter<AVBSFContext>,0>
PUBLIC	??$sprintf_s@$0IA@@@YAHAEAY0IA@DPEBDZZ		; sprintf_s<128>
PUBLIC	??$?CVEncodeStatus@@$0A@@?$shared_ptr@VEncodeStatus@@@std@@QEBAPEAVEncodeStatus@@XZ ; std::shared_ptr<EncodeStatus>::operator-><EncodeStatus,0>
PUBLIC	??$_Const_cast@$$CBUnal_info@@@std@@YAPEAUnal_info@@PEBU1@@Z ; std::_Const_cast<nal_info const >
PUBLIC	??$addressof@$$CBV?$_Vector_val@U?$_Simple_types@Unal_info@@@std@@@std@@@std@@YAPEBV?$_Vector_val@U?$_Simple_types@Unal_info@@@std@@@0@AEBV10@@Z ; std::addressof<std::_Vector_val<std::_Simple_types<nal_info> > const >
PUBLIC	??$addressof@V?$_Vector_val@U?$_Simple_types@Unal_info@@@std@@@std@@@std@@YAPEAV?$_Vector_val@U?$_Simple_types@Unal_info@@@std@@@0@AEAV10@@Z ; std::addressof<std::_Vector_val<std::_Simple_types<nal_info> > >
PUBLIC	??$emplace_back@AEBUnal_info@@@?$vector@Unal_info@@V?$allocator@Unal_info@@@std@@@std@@QEAAXAEBUnal_info@@@Z ; std::vector<nal_info,std::allocator<nal_info> >::emplace_back<nal_info const &>
PUBLIC	??$forward@AEBUnal_info@@@std@@YAAEBUnal_info@@AEBU1@@Z ; std::forward<nal_info const &>
PUBLIC	??$_Emplace_back_with_unused_capacity@AEBUnal_info@@@?$vector@Unal_info@@V?$allocator@Unal_info@@@std@@@std@@AEAAXAEBUnal_info@@@Z ; std::vector<nal_info,std::allocator<nal_info> >::_Emplace_back_with_unused_capacity<nal_info const &>
PUBLIC	??$_Unfancy@Unal_info@@@std@@YAPEAUnal_info@@PEAU1@@Z ; std::_Unfancy<nal_info>
PUBLIC	??$construct@Unal_info@@AEBU1@@?$_Default_allocator_traits@V?$allocator@Unal_info@@@std@@@std@@SAXAEAV?$allocator@Unal_info@@@1@QEAUnal_info@@AEBU3@@Z ; std::_Default_allocator_traits<std::allocator<nal_info> >::construct<nal_info,nal_info const &>
PUBLIC	??$_Emplace_reallocate@AEBUnal_info@@@?$vector@Unal_info@@V?$allocator@Unal_info@@@std@@@std@@QEAAPEAUnal_info@@QEAU2@AEBU2@@Z ; std::vector<nal_info,std::allocator<nal_info> >::_Emplace_reallocate<nal_info const &>
PUBLIC	?allocate@?$allocator@U_Container_proxy@std@@@std@@QEAAPEAU_Container_proxy@2@_K@Z ; std::allocator<std::_Container_proxy>::allocate
PUBLIC	??$?0Unal_info@@@?$allocator@U_Container_proxy@std@@@std@@QEAA@AEBV?$allocator@Unal_info@@@1@@Z ; std::allocator<std::_Container_proxy>::allocator<std::_Container_proxy><nal_info>
PUBLIC	??$exchange@PEAU_Container_proxy@std@@$$T@std@@YAPEAU_Container_proxy@0@AEAPEAU10@$$QEA$$T@Z ; std::exchange<std::_Container_proxy *,std::nullptr_t>
PUBLIC	??$_Delete_plain_internal@V?$allocator@U_Container_proxy@std@@@std@@@std@@YAXAEAV?$allocator@U_Container_proxy@std@@@0@QEAU_Container_proxy@0@@Z ; std::_Delete_plain_internal<std::allocator<std::_Container_proxy> >
PUBLIC	??$addressof@V?$vector@Unal_info@@V?$allocator@Unal_info@@@std@@@std@@@std@@YAPEAV?$vector@Unal_info@@V?$allocator@Unal_info@@@std@@@0@AEAV10@@Z ; std::addressof<std::vector<nal_info,std::allocator<nal_info> > >
PUBLIC	??$move@AEAV?$allocator@Unal_info@@@std@@@std@@YA$$QEAV?$allocator@Unal_info@@@0@AEAV10@@Z ; std::move<std::allocator<nal_info> &>
PUBLIC	??$?0V?$allocator@Unal_info@@@std@@$$V@?$_Compressed_pair@V?$allocator@Unal_info@@@std@@V?$_Vector_val@U?$_Simple_types@Unal_info@@@std@@@2@$00@std@@QEAA@U_One_then_variadic_args_t@1@$$QEAV?$allocator@Unal_info@@@1@@Z ; std::_Compressed_pair<std::allocator<nal_info>,std::_Vector_val<std::_Simple_types<nal_info> >,1>::_Compressed_pair<std::allocator<nal_info>,std::_Vector_val<std::_Simple_types<nal_info> >,1><std::allocator<nal_info> >
PUBLIC	??$_Alloc_proxy@V?$allocator@U_Container_proxy@std@@@std@@@_Container_base12@std@@QEAAX$$QEAV?$allocator@U_Container_proxy@std@@@1@@Z ; std::_Container_base12::_Alloc_proxy<std::allocator<std::_Container_proxy> >
PUBLIC	??$?0$$V@?$_Compressed_pair@V?$allocator@Unal_info@@@std@@V?$_Vector_val@U?$_Simple_types@Unal_info@@@std@@@2@$00@std@@QEAA@U_Zero_then_variadic_args_t@1@@Z ; std::_Compressed_pair<std::allocator<nal_info>,std::_Vector_val<std::_Simple_types<nal_info> >,1>::_Compressed_pair<std::allocator<nal_info>,std::_Vector_val<std::_Simple_types<nal_info> >,1><>
PUBLIC	??$exchange@PEAUAVBSFContext@@AEAPEAU1@@std@@YAPEAUAVBSFContext@@AEAPEAU1@0@Z ; std::exchange<AVBSFContext *,AVBSFContext * &>
PUBLIC	??$addressof@V?$unique_ptr@UAVBSFContext@@U?$RGYAVDeleter@UAVBSFContext@@@@@std@@@std@@YAPEAV?$unique_ptr@UAVBSFContext@@U?$RGYAVDeleter@UAVBSFContext@@@@@0@AEAV10@@Z ; std::addressof<std::unique_ptr<AVBSFContext,RGYAVDeleter<AVBSFContext> > >
PUBLIC	??$forward@U?$RGYAVDeleter@UAVBSFContext@@@@@std@@YA$$QEAU?$RGYAVDeleter@UAVBSFContext@@@@AEAU1@@Z ; std::forward<RGYAVDeleter<AVBSFContext> >
PUBLIC	??$_Unfancy_maybe_null@E@std@@YAPEAEPEAE@Z	; std::_Unfancy_maybe_null<unsigned char>
PUBLIC	??$addressof@$$CBV?$vector@EV?$allocator@E@std@@@std@@@std@@YAPEBV?$vector@EV?$allocator@E@std@@@0@AEBV10@@Z ; std::addressof<std::vector<unsigned char,std::allocator<unsigned char> > const >
PUBLIC	??$?0E@?$allocator@U_Container_proxy@std@@@std@@QEAA@AEBV?$allocator@E@1@@Z ; std::allocator<std::_Container_proxy>::allocator<std::_Container_proxy><unsigned char>
PUBLIC	??$?0$$V@?$_Compressed_pair@V?$allocator@E@std@@V?$_Vector_val@U?$_Simple_types@E@std@@@2@$00@std@@QEAA@U_Zero_then_variadic_args_t@1@@Z ; std::_Compressed_pair<std::allocator<unsigned char>,std::_Vector_val<std::_Simple_types<unsigned char> >,1>::_Compressed_pair<std::allocator<unsigned char>,std::_Vector_val<std::_Simple_types<unsigned char> >,1><>
PUBLIC	??$exchange@PEAEAEAPEAE@std@@YAPEAEAEAPEAE0@Z	; std::exchange<unsigned char *,unsigned char * &>
PUBLIC	??$exchange@PEADAEAPEAD@std@@YAPEADAEAPEAD0@Z	; std::exchange<char *,char * &>
PUBLIC	??$?0V?$basic_string@DU?$char_traits@D@std@@V?$allocator@D@2@@std@@@?$allocator@U_Container_proxy@std@@@std@@QEAA@AEBV?$allocator@V?$basic_string@DU?$char_traits@D@std@@V?$allocator@D@2@@std@@@1@@Z ; std::allocator<std::_Container_proxy>::allocator<std::_Container_proxy><std::basic_string<char,std::char_traits<char>,std::allocator<char> > >
PUBLIC	??$exchange@PEAU_iobuf@@AEAPEAU1@@std@@YAPEAU_iobuf@@AEAPEAU1@0@Z ; std::exchange<_iobuf *,_iobuf * &>
PUBLIC	??$move@AEAV?$basic_string@DU?$char_traits@D@std@@V?$allocator@D@2@@std@@@std@@YA$$QEAV?$basic_string@DU?$char_traits@D@std@@V?$allocator@D@2@@0@AEAV10@@Z ; std::move<std::basic_string<char,std::char_traits<char>,std::allocator<char> > &>
PUBLIC	??$_Min_value@_K@std@@YAAEB_KAEB_K0@Z		; std::_Min_value<unsigned __int64>
PUBLIC	??0?$_Container_proxy_ptr12@V?$allocator@U_Container_proxy@std@@@std@@@std@@QEAA@AEAV?$allocator@U_Container_proxy@std@@@1@AEAU_Container_base12@1@@Z ; std::_Container_proxy_ptr12<std::allocator<std::_Container_proxy> >::_Container_proxy_ptr12<std::allocator<std::_Container_proxy> >
PUBLIC	??1?$_Container_proxy_ptr12@V?$allocator@U_Container_proxy@std@@@std@@@std@@QEAA@XZ ; std::_Container_proxy_ptr12<std::allocator<std::_Container_proxy> >::~_Container_proxy_ptr12<std::allocator<std::_Container_proxy> >
PUBLIC	??$_Unfancy@D@std@@YAPEADPEAD@Z			; std::_Unfancy<char>
PUBLIC	??$addressof@V?$_String_val@U?$_Simple_types@D@std@@@std@@@std@@YAPEAV?$_String_val@U?$_Simple_types@D@std@@@0@AEAV10@@Z ; std::addressof<std::_String_val<std::_Simple_types<char> > >
PUBLIC	??$?0D@?$allocator@U_Container_proxy@std@@@std@@QEAA@AEBV?$allocator@D@1@@Z ; std::allocator<std::_Container_proxy>::allocator<std::_Container_proxy><char>
PUBLIC	??$move@AEAV?$allocator@D@std@@@std@@YA$$QEAV?$allocator@D@0@AEAV10@@Z ; std::move<std::allocator<char> &>
PUBLIC	??$?0V?$allocator@D@std@@$$V@?$_Compressed_pair@V?$allocator@D@std@@V?$_String_val@U?$_Simple_types@D@std@@@2@$00@std@@QEAA@U_One_then_variadic_args_t@1@$$QEAV?$allocator@D@1@@Z ; std::_Compressed_pair<std::allocator<char>,std::_String_val<std::_Simple_types<char> >,1>::_Compressed_pair<std::allocator<char>,std::_String_val<std::_Simple_types<char> >,1><std::allocator<char> >
PUBLIC	??$?0$$V@?$_Compressed_pair@V?$allocator@D@std@@V?$_String_val@U?$_Simple_types@D@std@@@2@$00@std@@QEAA@U_Zero_then_variadic_args_t@1@@Z ; std::_Compressed_pair<std::allocator<char>,std::_String_val<std::_Simple_types<char> >,1>::_Compressed_pair<std::allocator<char>,std::_String_val<std::_Simple_types<char> >,1><>
PUBLIC	??$_Unfancy@U_Container_proxy@std@@@std@@YAPEAU_Container_proxy@0@PEAU10@@Z ; std::_Unfancy<std::_Container_proxy>
PUBLIC	??$addressof@U_Container_base12@std@@@std@@YAPEAU_Container_base12@0@AEAU10@@Z ; std::addressof<std::_Container_base12>
PUBLIC	??$_Construct_in_place@U_Container_proxy@std@@PEAU_Container_base12@2@@std@@YAXAEAU_Container_proxy@0@$$QEAPEAU_Container_base12@0@@Z ; std::_Construct_in_place<std::_Container_proxy,std::_Container_base12 *>
PUBLIC	??0?$_Func_base@XPEAPEAUAVCodecParameters@@@std@@QEAA@XZ ; std::_Func_base<void,AVCodecParameters * *>::_Func_base<void,AVCodecParameters * *>
PUBLIC	??$_Pocma@V?$allocator@Unal_info@@@std@@@std@@YAXAEAV?$allocator@Unal_info@@@0@0@Z ; std::_Pocma<std::allocator<nal_info> >
PUBLIC	??$exchange@PEAUAVBSFContext@@PEAU1@@std@@YAPEAUAVBSFContext@@AEAPEAU1@$$QEAPEAU1@@Z ; std::exchange<AVBSFContext *,AVBSFContext *>
PUBLIC	??$addressof@V?$function@$$A6AXPEAPEAUAVBSFContext@@@Z@std@@@std@@YAPEAV?$function@$$A6AXPEAPEAUAVBSFContext@@@Z@0@AEAV10@@Z ; std::addressof<std::function<void __cdecl(AVBSFContext * *)> >
PUBLIC	??$move@AEAV?$function@$$A6AXPEAPEAUAVBSFContext@@@Z@std@@@std@@YA$$QEAV?$function@$$A6AXPEAPEAUAVBSFContext@@@Z@0@AEAV10@@Z ; std::move<std::function<void __cdecl(AVBSFContext * *)> &>
PUBLIC	??0?$_Func_base@XPEAPEAUAVBSFContext@@@std@@QEAA@XZ ; std::_Func_base<void,AVBSFContext * *>::_Func_base<void,AVBSFContext * *>
PUBLIC	??$_Destroy_range@V?$allocator@E@std@@@std@@YAXPEAEQEAEAEAV?$allocator@E@0@@Z ; std::_Destroy_range<std::allocator<unsigned char> >
PUBLIC	??$_Pocca@V?$allocator@E@std@@@std@@YAXAEAV?$allocator@E@0@AEBV10@@Z ; std::_Pocca<std::allocator<unsigned char> >
PUBLIC	??$assign@PEAEX@?$vector@EV?$allocator@E@std@@@std@@QEAAXPEAE0@Z ; std::vector<unsigned char,std::allocator<unsigned char> >::assign<unsigned char *,void>
PUBLIC	??$_Destroy_in_place@PEAD@std@@YAXAEAPEAD@Z	; std::_Destroy_in_place<char *>
PUBLIC	??$_Max_value@_K@std@@YAAEB_KAEB_K0@Z		; std::_Max_value<unsigned __int64>
PUBLIC	??$addressof@$$CBV?$_String_val@U?$_Simple_types@D@std@@@std@@@std@@YAPEBV?$_String_val@U?$_Simple_types@D@std@@@0@AEBV10@@Z ; std::addressof<std::_String_val<std::_Simple_types<char> > const >
PUBLIC	??R<lambda_66f57f934f28d61049862f64df852ff0>@@QEBAXQEAD_KQEBD@Z ; <lambda_66f57f934f28d61049862f64df852ff0>::operator()
PUBLIC	??$_Reallocate_for@V<lambda_66f57f934f28d61049862f64df852ff0>@@PEBD@?$basic_string@DU?$char_traits@D@std@@V?$allocator@D@2@@std@@AEAAAEAV01@_KV<lambda_66f57f934f28d61049862f64df852ff0>@@PEBD@Z ; std::basic_string<char,std::char_traits<char>,std::allocator<char> >::_Reallocate_for<<lambda_66f57f934f28d61049862f64df852ff0>,char const *>
PUBLIC	??R<lambda_e1befb086ad3257e3f042a63030725f7>@@QEBAXQEADQEBD_K2D@Z ; <lambda_e1befb086ad3257e3f042a63030725f7>::operator()
PUBLIC	??$_Reallocate_grow_by@V<lambda_e1befb086ad3257e3f042a63030725f7>@@_KD@?$basic_string@DU?$char_traits@D@std@@V?$allocator@D@2@@std@@AEAAAEAV01@_KV<lambda_e1befb086ad3257e3f042a63030725f7>@@_KD@Z ; std::basic_string<char,std::char_traits<char>,std::allocator<char> >::_Reallocate_grow_by<<lambda_e1befb086ad3257e3f042a63030725f7>,unsigned __int64,char>
PUBLIC	??R<lambda_65e615be2a453ca0576c979606f46740>@@QEBAXQEADQEBD_K12@Z ; <lambda_65e615be2a453ca0576c979606f46740>::operator()
PUBLIC	??$_Reallocate_grow_by@V<lambda_65e615be2a453ca0576c979606f46740>@@PEBD_K@?$basic_string@DU?$char_traits@D@std@@V?$allocator@D@2@@std@@AEAAAEAV01@_KV<lambda_65e615be2a453ca0576c979606f46740>@@PEBD_K@Z ; std::basic_string<char,std::char_traits<char>,std::allocator<char> >::_Reallocate_grow_by<<lambda_65e615be2a453ca0576c979606f46740>,char const *,unsigned __int64>
PUBLIC	??$_Construct_in_place@PEADAEBQEAD@std@@YAXAEAPEADAEBQEAD@Z ; std::_Construct_in_place<char *,char * const &>
PUBLIC	??$_Get_size_of_n@$00@std@@YA_K_K@Z		; std::_Get_size_of_n<1>
PUBLIC	??$_Allocate@$0BA@U_Default_allocate_traits@std@@$0A@@std@@YAPEAX_K@Z ; std::_Allocate<16,std::_Default_allocate_traits,0>
PUBLIC	??$_Deallocate@$0BA@$0A@@std@@YAXPEAX_K@Z	; std::_Deallocate<16,0>
PUBLIC	??$_Get_size_of_n@$0BA@@std@@YA_K_K@Z		; std::_Get_size_of_n<16>
PUBLIC	??$_Destroy_range@V?$allocator@Unal_info@@@std@@@std@@YAXPEAUnal_info@@QEAU1@AEAV?$allocator@Unal_info@@@0@@Z ; std::_Destroy_range<std::allocator<nal_info> >
PUBLIC	??$_Destroy_range@V?$allocator@V?$basic_string@DU?$char_traits@D@std@@V?$allocator@D@2@@std@@@std@@@std@@YAXPEAV?$basic_string@DU?$char_traits@D@std@@V?$allocator@D@2@@0@QEAV10@AEAV?$allocator@V?$basic_string@DU?$char_traits@D@std@@V?$allocator@D@2@@std@@@0@@Z ; std::_Destroy_range<std::allocator<std::basic_string<char,std::char_traits<char>,std::allocator<char> > > >
PUBLIC	??$swap@PEAV_Ref_count_base@std@@X@std@@YAXAEAPEAV_Ref_count_base@0@0@Z ; std::swap<std::_Ref_count_base *,void>
PUBLIC	??$swap@PEAVRGYLog@@X@std@@YAXAEAPEAVRGYLog@@0@Z ; std::swap<RGYLog *,void>
PUBLIC	??$swap@PEAVEncodeStatus@@X@std@@YAXAEAPEAVEncodeStatus@@0@Z ; std::swap<EncodeStatus *,void>
PUBLIC	??$?0$$V@?$_Compressed_pair@Ufp_deleter@@PEAU_iobuf@@$00@std@@QEAA@U_Zero_then_variadic_args_t@1@@Z ; std::_Compressed_pair<fp_deleter,_iobuf *,1>::_Compressed_pair<fp_deleter,_iobuf *,1><>
PUBLIC	??$?0$$V@?$_Compressed_pair@Umalloc_deleter@@PEAD$00@std@@QEAA@U_Zero_then_variadic_args_t@1@@Z ; std::_Compressed_pair<malloc_deleter,char *,1>::_Compressed_pair<malloc_deleter,char *,1><>
PUBLIC	??$?0$$V@?$_Compressed_pair@Ualigned_malloc_deleter@@PEAE$00@std@@QEAA@U_Zero_then_variadic_args_t@1@@Z ; std::_Compressed_pair<aligned_malloc_deleter,unsigned char *,1>::_Compressed_pair<aligned_malloc_deleter,unsigned char *,1><>
PUBLIC	??$?0$$V@?$_Compressed_pair@U?$RGYAVDeleter@UAVBSFContext@@@@PEAUAVBSFContext@@$0A@@std@@QEAA@U_Zero_then_variadic_args_t@1@@Z ; std::_Compressed_pair<RGYAVDeleter<AVBSFContext>,AVBSFContext *,0>::_Compressed_pair<RGYAVDeleter<AVBSFContext>,AVBSFContext *,0><>
PUBLIC	??$move@AEAP6AXPEAPEAUAVCodecParameters@@@Z@std@@YA$$QEAP6AXPEAPEAUAVCodecParameters@@@ZAEAP6AX0@Z@Z ; std::move<void (__cdecl*&)(AVCodecParameters * *)>
PUBLIC	??$_Reset@P6AXPEAPEAUAVCodecParameters@@@Z@?$_Func_class@XPEAPEAUAVCodecParameters@@@std@@IEAAX$$QEAP6AXPEAPEAUAVCodecParameters@@@Z@Z ; std::_Func_class<void,AVCodecParameters * *>::_Reset<void (__cdecl*)(AVCodecParameters * *)>
PUBLIC	??$move@AEAU?$RGYAVDeleter@UAVCodecParameters@@@@@std@@YA$$QEAU?$RGYAVDeleter@UAVCodecParameters@@@@AEAU1@@Z ; std::move<RGYAVDeleter<AVCodecParameters> &>
PUBLIC	??$?0U?$RGYAVDeleter@UAVCodecParameters@@@@AEAPEAUAVCodecParameters@@@?$_Compressed_pair@U?$RGYAVDeleter@UAVCodecParameters@@@@PEAUAVCodecParameters@@$0A@@std@@QEAA@U_One_then_variadic_args_t@1@$$QEAU?$RGYAVDeleter@UAVCodecParameters@@@@AEAPEAUAVCodecParameters@@@Z ; std::_Compressed_pair<RGYAVDeleter<AVCodecParameters>,AVCodecParameters *,0>::_Compressed_pair<RGYAVDeleter<AVCodecParameters>,AVCodecParameters *,0><RGYAVDeleter<AVCodecParameters>,AVCodecParameters * &>
PUBLIC	??$move@AEAP6AXPEAPEAUAVBSFContext@@@Z@std@@YA$$QEAP6AXPEAPEAUAVBSFContext@@@ZAEAP6AX0@Z@Z ; std::move<void (__cdecl*&)(AVBSFContext * *)>
PUBLIC	??$_Reset@P6AXPEAPEAUAVBSFContext@@@Z@?$_Func_class@XPEAPEAUAVBSFContext@@@std@@IEAAX$$QEAP6AXPEAPEAUAVBSFContext@@@Z@Z ; std::_Func_class<void,AVBSFContext * *>::_Reset<void (__cdecl*)(AVBSFContext * *)>
PUBLIC	??$move@AEAU?$RGYAVDeleter@UAVBSFContext@@@@@std@@YA$$QEAU?$RGYAVDeleter@UAVBSFContext@@@@AEAU1@@Z ; std::move<RGYAVDeleter<AVBSFContext> &>
PUBLIC	??$?0U?$RGYAVDeleter@UAVBSFContext@@@@AEAPEAUAVBSFContext@@@?$_Compressed_pair@U?$RGYAVDeleter@UAVBSFContext@@@@PEAUAVBSFContext@@$0A@@std@@QEAA@U_One_then_variadic_args_t@1@$$QEAU?$RGYAVDeleter@UAVBSFContext@@@@AEAPEAUAVBSFContext@@@Z ; std::_Compressed_pair<RGYAVDeleter<AVBSFContext>,AVBSFContext *,0>::_Compressed_pair<RGYAVDeleter<AVBSFContext>,AVBSFContext *,0><RGYAVDeleter<AVBSFContext>,AVBSFContext * &>
PUBLIC	??$_Adl_verify_range@V?$_Vector_iterator@V?$_Vector_val@U?$_Simple_types@Unal_info@@@std@@@std@@@std@@V12@@std@@YAXAEBV?$_Vector_iterator@V?$_Vector_val@U?$_Simple_types@Unal_info@@@std@@@std@@@0@0@Z ; std::_Adl_verify_range<std::_Vector_iterator<std::_Vector_val<std::_Simple_types<nal_info> > >,std::_Vector_iterator<std::_Vector_val<std::_Simple_types<nal_info> > > >
PUBLIC	??$_Get_unwrapped@V?$_Vector_iterator@V?$_Vector_val@U?$_Simple_types@Unal_info@@@std@@@std@@@std@@$0A@@std@@YAPEAUnal_info@@AEBV?$_Vector_iterator@V?$_Vector_val@U?$_Simple_types@Unal_info@@@std@@@std@@@0@@Z ; std::_Get_unwrapped<std::_Vector_iterator<std::_Vector_val<std::_Simple_types<nal_info> > >,0>
PUBLIC	??$_Seek_wrapped@V?$_Vector_iterator@V?$_Vector_val@U?$_Simple_types@Unal_info@@@std@@@std@@@std@@PEAUnal_info@@@std@@YAXAEAV?$_Vector_iterator@V?$_Vector_val@U?$_Simple_types@Unal_info@@@std@@@std@@@0@AEBQEAUnal_info@@@Z ; std::_Seek_wrapped<std::_Vector_iterator<std::_Vector_val<std::_Simple_types<nal_info> > >,nal_info *>
PUBLIC	??$_Adl_verify_range@V?$_Vector_const_iterator@V?$_Vector_val@U?$_Simple_types@Unal_info@@@std@@@std@@@std@@V12@@std@@YAXAEBV?$_Vector_const_iterator@V?$_Vector_val@U?$_Simple_types@Unal_info@@@std@@@std@@@0@0@Z ; std::_Adl_verify_range<std::_Vector_const_iterator<std::_Vector_val<std::_Simple_types<nal_info> > >,std::_Vector_const_iterator<std::_Vector_val<std::_Simple_types<nal_info> > > >
PUBLIC	??$_Get_unwrapped@V?$_Vector_const_iterator@V?$_Vector_val@U?$_Simple_types@Unal_info@@@std@@@std@@@std@@$0A@@std@@YAPEBUnal_info@@AEBV?$_Vector_const_iterator@V?$_Vector_val@U?$_Simple_types@Unal_info@@@std@@@std@@@0@@Z ; std::_Get_unwrapped<std::_Vector_const_iterator<std::_Vector_val<std::_Simple_types<nal_info> > >,0>
PUBLIC	??$_Seek_wrapped@V?$_Vector_const_iterator@V?$_Vector_val@U?$_Simple_types@Unal_info@@@std@@@std@@@std@@PEBUnal_info@@@std@@YAXAEAV?$_Vector_const_iterator@V?$_Vector_val@U?$_Simple_types@Unal_info@@@std@@@std@@@0@AEBQEBUnal_info@@@Z ; std::_Seek_wrapped<std::_Vector_const_iterator<std::_Vector_val<std::_Simple_types<nal_info> > >,nal_info const *>
PUBLIC	??$_Deallocate_plain@V?$allocator@U_Container_proxy@std@@@std@@@std@@YAXAEAV?$allocator@U_Container_proxy@std@@@0@QEAU_Container_proxy@0@@Z ; std::_Deallocate_plain<std::allocator<std::_Container_proxy> >
PUBLIC	??$forward@V?$allocator@Unal_info@@@std@@@std@@YA$$QEAV?$allocator@Unal_info@@@0@AEAV10@@Z ; std::forward<std::allocator<nal_info> >
PUBLIC	??$forward@V?$allocator@D@std@@@std@@YA$$QEAV?$allocator@D@0@AEAV10@@Z ; std::forward<std::allocator<char> >
PUBLIC	??$addressof@U_Container_proxy@std@@@std@@YAPEAU_Container_proxy@0@AEAU10@@Z ; std::addressof<std::_Container_proxy>
PUBLIC	??$forward@PEAU_Container_base12@std@@@std@@YA$$QEAPEAU_Container_base12@0@AEAPEAU10@@Z ; std::forward<std::_Container_base12 *>
PUBLIC	??$_Adl_verify_range@PEAEPEAE@std@@YAXAEBQEAE0@Z ; std::_Adl_verify_range<unsigned char *,unsigned char *>
PUBLIC	??$_Get_unwrapped@E@std@@YAPEAEQEAE@Z		; std::_Get_unwrapped<unsigned char>
PUBLIC	??$_Assign_range@PEAE@?$vector@EV?$allocator@E@std@@@std@@AEAAXPEAE0Uforward_iterator_tag@1@@Z ; std::vector<unsigned char,std::allocator<unsigned char> >::_Assign_range<unsigned char *>
PUBLIC	??$addressof@PEAD@std@@YAPEAPEADAEAPEAD@Z	; std::addressof<char *>
PUBLIC	??$forward@AEBQEAD@std@@YAAEBQEADAEBQEAD@Z	; std::forward<char * const &>
PUBLIC	??$_Allocate_manually_vector_aligned@U_Default_allocate_traits@std@@@std@@YAPEAX_K@Z ; std::_Allocate_manually_vector_aligned<std::_Default_allocate_traits>
PUBLIC	??$_Unfancy@V?$basic_string@DU?$char_traits@D@std@@V?$allocator@D@2@@std@@@std@@YAPEAV?$basic_string@DU?$char_traits@D@std@@V?$allocator@D@2@@0@PEAV10@@Z ; std::_Unfancy<std::basic_string<char,std::char_traits<char>,std::allocator<char> > >
PUBLIC	??$destroy@V?$basic_string@DU?$char_traits@D@std@@V?$allocator@D@2@@std@@@?$_Default_allocator_traits@V?$allocator@V?$basic_string@DU?$char_traits@D@std@@V?$allocator@D@2@@std@@@std@@@std@@SAXAEAV?$allocator@V?$basic_string@DU?$char_traits@D@std@@V?$allocator@D@2@@std@@@1@QEAV?$basic_string@DU?$char_traits@D@std@@V?$allocator@D@2@@1@@Z ; std::_Default_allocator_traits<std::allocator<std::basic_string<char,std::char_traits<char>,std::allocator<char> > > >::destroy<std::basic_string<char,std::char_traits<char>,std::allocator<char> > >
PUBLIC	??$move@AEAPEAV_Ref_count_base@std@@@std@@YA$$QEAPEAV_Ref_count_base@0@AEAPEAV10@@Z ; std::move<std::_Ref_count_base * &>
PUBLIC	??$move@AEAPEAVRGYLog@@@std@@YA$$QEAPEAVRGYLog@@AEAPEAV1@@Z ; std::move<RGYLog * &>
PUBLIC	??$move@AEAPEAVEncodeStatus@@@std@@YA$$QEAPEAVEncodeStatus@@AEAPEAV1@@Z ; std::move<EncodeStatus * &>
PUBLIC	??$_Uninitialized_move@PEAUnal_info@@V?$allocator@Unal_info@@@std@@@std@@YAPEAUnal_info@@QEAU1@0PEAU1@AEAV?$allocator@Unal_info@@@0@@Z ; std::_Uninitialized_move<nal_info *,std::allocator<nal_info> >
PUBLIC	??$_Get_size_of_n@$0BI@@std@@YA_K_K@Z		; std::_Get_size_of_n<24>
PUBLIC	??R<lambda_9013ee9e23efe4882b67eff5b0ecf103>@@QEBAXQEADQEBD_K@Z ; <lambda_9013ee9e23efe4882b67eff5b0ecf103>::operator()
PUBLIC	??$_Reallocate_grow_by@V<lambda_9013ee9e23efe4882b67eff5b0ecf103>@@$$V@?$basic_string@DU?$char_traits@D@std@@V?$allocator@D@2@@std@@AEAAAEAV01@_KV<lambda_9013ee9e23efe4882b67eff5b0ecf103>@@@Z ; std::basic_string<char,std::char_traits<char>,std::allocator<char> >::_Reallocate_grow_by<<lambda_9013ee9e23efe4882b67eff5b0ecf103> >
PUBLIC	??$_Test_callable@P6AXPEAPEAUAVCodecParameters@@@Z@std@@YA_NAEBQ6AXPEAPEAUAVCodecParameters@@@Z@Z ; std::_Test_callable<void (__cdecl*)(AVCodecParameters * *)>
PUBLIC	?_Copy@?$_Func_impl_no_alloc@P6AXPEAPEAUAVCodecParameters@@@ZXPEAPEAU1@@std@@EEBAPEAV?$_Func_base@XPEAPEAUAVCodecParameters@@@2@PEAX@Z ; std::_Func_impl_no_alloc<void (__cdecl*)(AVCodecParameters * *),void,AVCodecParameters * *>::_Copy
PUBLIC	?_Move@?$_Func_impl_no_alloc@P6AXPEAPEAUAVCodecParameters@@@ZXPEAPEAU1@@std@@EEAAPEAV?$_Func_base@XPEAPEAUAVCodecParameters@@@2@PEAX@Z ; std::_Func_impl_no_alloc<void (__cdecl*)(AVCodecParameters * *),void,AVCodecParameters * *>::_Move
PUBLIC	?_Do_call@?$_Func_impl_no_alloc@P6AXPEAPEAUAVCodecParameters@@@ZXPEAPEAU1@@std@@EEAAX$$QEAPEAPEAUAVCodecParameters@@@Z ; std::_Func_impl_no_alloc<void (__cdecl*)(AVCodecParameters * *),void,AVCodecParameters * *>::_Do_call
PUBLIC	?_Target_type@?$_Func_impl_no_alloc@P6AXPEAPEAUAVCodecParameters@@@ZXPEAPEAU1@@std@@EEBAAEBVtype_info@@XZ ; std::_Func_impl_no_alloc<void (__cdecl*)(AVCodecParameters * *),void,AVCodecParameters * *>::_Target_type
PUBLIC	?_Get@?$_Func_impl_no_alloc@P6AXPEAPEAUAVCodecParameters@@@ZXPEAPEAU1@@std@@EEBAPEBXXZ ; std::_Func_impl_no_alloc<void (__cdecl*)(AVCodecParameters * *),void,AVCodecParameters * *>::_Get
PUBLIC	?_Delete_this@?$_Func_impl_no_alloc@P6AXPEAPEAUAVCodecParameters@@@ZXPEAPEAU1@@std@@EEAAX_N@Z ; std::_Func_impl_no_alloc<void (__cdecl*)(AVCodecParameters * *),void,AVCodecParameters * *>::_Delete_this
PUBLIC	??$forward@P6AXPEAPEAUAVCodecParameters@@@Z@std@@YA$$QEAP6AXPEAPEAUAVCodecParameters@@@ZAEAP6AX0@Z@Z ; std::forward<void (__cdecl*)(AVCodecParameters * *)>
PUBLIC	??$?0P6AXPEAPEAUAVCodecParameters@@@ZX@?$_Func_impl_no_alloc@P6AXPEAPEAUAVCodecParameters@@@ZXPEAPEAU1@@std@@QEAA@$$QEAP6AXPEAPEAUAVCodecParameters@@@Z@Z ; std::_Func_impl_no_alloc<void (__cdecl*)(AVCodecParameters * *),void,AVCodecParameters * *>::_Func_impl_no_alloc<void (__cdecl*)(AVCodecParameters * *),void,AVCodecParameters * *><void (__cdecl*)(AVCodecParameters * *),void>
PUBLIC	??$forward@U?$RGYAVDeleter@UAVCodecParameters@@@@@std@@YA$$QEAU?$RGYAVDeleter@UAVCodecParameters@@@@AEAU1@@Z ; std::forward<RGYAVDeleter<AVCodecParameters> >
PUBLIC	??$forward@AEAPEAUAVCodecParameters@@@std@@YAAEAPEAUAVCodecParameters@@AEAPEAU1@@Z ; std::forward<AVCodecParameters * &>
PUBLIC	??$_Test_callable@P6AXPEAPEAUAVBSFContext@@@Z@std@@YA_NAEBQ6AXPEAPEAUAVBSFContext@@@Z@Z ; std::_Test_callable<void (__cdecl*)(AVBSFContext * *)>
PUBLIC	?_Copy@?$_Func_impl_no_alloc@P6AXPEAPEAUAVBSFContext@@@ZXPEAPEAU1@@std@@EEBAPEAV?$_Func_base@XPEAPEAUAVBSFContext@@@2@PEAX@Z ; std::_Func_impl_no_alloc<void (__cdecl*)(AVBSFContext * *),void,AVBSFContext * *>::_Copy
PUBLIC	?_Move@?$_Func_impl_no_alloc@P6AXPEAPEAUAVBSFContext@@@ZXPEAPEAU1@@std@@EEAAPEAV?$_Func_base@XPEAPEAUAVBSFContext@@@2@PEAX@Z ; std::_Func_impl_no_alloc<void (__cdecl*)(AVBSFContext * *),void,AVBSFContext * *>::_Move
PUBLIC	?_Do_call@?$_Func_impl_no_alloc@P6AXPEAPEAUAVBSFContext@@@ZXPEAPEAU1@@std@@EEAAX$$QEAPEAPEAUAVBSFContext@@@Z ; std::_Func_impl_no_alloc<void (__cdecl*)(AVBSFContext * *),void,AVBSFContext * *>::_Do_call
PUBLIC	?_Target_type@?$_Func_impl_no_alloc@P6AXPEAPEAUAVBSFContext@@@ZXPEAPEAU1@@std@@EEBAAEBVtype_info@@XZ ; std::_Func_impl_no_alloc<void (__cdecl*)(AVBSFContext * *),void,AVBSFContext * *>::_Target_type
PUBLIC	?_Get@?$_Func_impl_no_alloc@P6AXPEAPEAUAVBSFContext@@@ZXPEAPEAU1@@std@@EEBAPEBXXZ ; std::_Func_impl_no_alloc<void (__cdecl*)(AVBSFContext * *),void,AVBSFContext * *>::_Get
PUBLIC	?_Delete_this@?$_Func_impl_no_alloc@P6AXPEAPEAUAVBSFContext@@@ZXPEAPEAU1@@std@@EEAAX_N@Z ; std::_Func_impl_no_alloc<void (__cdecl*)(AVBSFContext * *),void,AVBSFContext * *>::_Delete_this
PUBLIC	??$forward@P6AXPEAPEAUAVBSFContext@@@Z@std@@YA$$QEAP6AXPEAPEAUAVBSFContext@@@ZAEAP6AX0@Z@Z ; std::forward<void (__cdecl*)(AVBSFContext * *)>
PUBLIC	??$?0P6AXPEAPEAUAVBSFContext@@@ZX@?$_Func_impl_no_alloc@P6AXPEAPEAUAVBSFContext@@@ZXPEAPEAU1@@std@@QEAA@$$QEAP6AXPEAPEAUAVBSFContext@@@Z@Z ; std::_Func_impl_no_alloc<void (__cdecl*)(AVBSFContext * *),void,AVBSFContext * *>::_Func_impl_no_alloc<void (__cdecl*)(AVBSFContext * *),void,AVBSFContext * *><void (__cdecl*)(AVBSFContext * *),void>
PUBLIC	??$forward@AEAPEAUAVBSFContext@@@std@@YAAEAPEAUAVBSFContext@@AEAPEAU1@@Z ; std::forward<AVBSFContext * &>
PUBLIC	?deallocate@?$_Default_allocator_traits@V?$allocator@U_Container_proxy@std@@@std@@@std@@SAXAEAV?$allocator@U_Container_proxy@std@@@2@QEAU_Container_proxy@2@_K@Z ; std::_Default_allocator_traits<std::allocator<std::_Container_proxy> >::deallocate
PUBLIC	??$_Verify_range@E@std@@YAXQEBE0@Z		; std::_Verify_range<unsigned char>
PUBLIC	??$distance@PEAE@std@@YA_JPEAE0@Z		; std::distance<unsigned char *>
PUBLIC	??$_Unfancy@E@std@@YAPEAEPEAE@Z			; std::_Unfancy<unsigned char>
PUBLIC	??$_Copy_memmove@PEAEPEAE@std@@YAPEAEPEAE00@Z	; std::_Copy_memmove<unsigned char *,unsigned char *>
PUBLIC	??$_Refancy@PEAE$0A@@std@@YAPEAEPEAE@Z		; std::_Refancy<unsigned char *,0>
PUBLIC	??$_Get_unwrapped@Unal_info@@@std@@YAPEAUnal_info@@QEAU1@@Z ; std::_Get_unwrapped<nal_info>
PUBLIC	??$_Copy_memmove@PEAUnal_info@@PEAU1@@std@@YAPEAUnal_info@@PEAU1@00@Z ; std::_Copy_memmove<nal_info *,nal_info *>
PUBLIC	??$_Deallocate@$07$0A@@std@@YAXPEAX_K@Z		; std::_Deallocate<8,0>
PUBLIC	??$addressof@Q6AXPEAPEAUAVBSFContext@@@Z@std@@YAPEBQ6AXPEAPEAUAVBSFContext@@@ZAEBQ6AX0@Z@Z ; std::addressof<void (__cdecl*const)(AVBSFContext * *)>
PUBLIC	??$_Call@AEAP6AXPEAPEAUAVBSFContext@@@ZPEAPEAU1@@?$_Invoker_ret@X$00@std@@SAXAEAP6AXPEAPEAUAVBSFContext@@@Z$$QEAPEAPEAU2@@Z ; std::_Invoker_ret<void,1>::_Call<void (__cdecl*&)(AVBSFContext * *),AVBSFContext * *>
PUBLIC	??$?0AEBQ6AXPEAPEAUAVBSFContext@@@ZX@?$_Func_impl_no_alloc@P6AXPEAPEAUAVBSFContext@@@ZXPEAPEAU1@@std@@QEAA@AEBQ6AXPEAPEAUAVBSFContext@@@Z@Z ; std::_Func_impl_no_alloc<void (__cdecl*)(AVBSFContext * *),void,AVBSFContext * *>::_Func_impl_no_alloc<void (__cdecl*)(AVBSFContext * *),void,AVBSFContext * *><void (__cdecl*const &)(AVBSFContext * *),void>
PUBLIC	??$addressof@Q6AXPEAPEAUAVCodecParameters@@@Z@std@@YAPEBQ6AXPEAPEAUAVCodecParameters@@@ZAEBQ6AX0@Z@Z ; std::addressof<void (__cdecl*const)(AVCodecParameters * *)>
PUBLIC	??$_Call@AEAP6AXPEAPEAUAVCodecParameters@@@ZPEAPEAU1@@?$_Invoker_ret@X$00@std@@SAXAEAP6AXPEAPEAUAVCodecParameters@@@Z$$QEAPEAPEAU2@@Z ; std::_Invoker_ret<void,1>::_Call<void (__cdecl*&)(AVCodecParameters * *),AVCodecParameters * *>
PUBLIC	??$?0AEBQ6AXPEAPEAUAVCodecParameters@@@ZX@?$_Func_impl_no_alloc@P6AXPEAPEAUAVCodecParameters@@@ZXPEAPEAU1@@std@@QEAA@AEBQ6AXPEAPEAUAVCodecParameters@@@Z@Z ; std::_Func_impl_no_alloc<void (__cdecl*)(AVCodecParameters * *),void,AVCodecParameters * *>::_Func_impl_no_alloc<void (__cdecl*)(AVCodecParameters * *),void,AVCodecParameters * *><void (__cdecl*const &)(AVCodecParameters * *),void>
PUBLIC	??$move@AEAV?$function@$$A6AXPEAPEAUAVCodecParameters@@@Z@std@@@std@@YA$$QEAV?$function@$$A6AXPEAPEAUAVCodecParameters@@@Z@0@AEAV10@@Z ; std::move<std::function<void __cdecl(AVCodecParameters * *)> &>
PUBLIC	??$_Refancy@PEAUnal_info@@$0A@@std@@YAPEAUnal_info@@PEAU1@@Z ; std::_Refancy<nal_info *,0>
PUBLIC	??$forward@AEBQ6AXPEAPEAUAVBSFContext@@@Z@std@@YAAEBQ6AXPEAPEAUAVBSFContext@@@ZAEBQ6AX0@Z@Z ; std::forward<void (__cdecl*const &)(AVBSFContext * *)>
PUBLIC	??$forward@AEBQ6AXPEAPEAUAVCodecParameters@@@Z@std@@YAAEBQ6AXPEAPEAUAVCodecParameters@@@ZAEBQ6AX0@Z@Z ; std::forward<void (__cdecl*const &)(AVCodecParameters * *)>
PUBLIC	??_7exception@std@@6B@				; std::exception::`vftable'
PUBLIC	??_C@_0BC@EOODALEL@Unknown?5exception@		; `string'
PUBLIC	??_7bad_alloc@std@@6B@				; std::bad_alloc::`vftable'
PUBLIC	??_7bad_array_new_length@std@@6B@		; std::bad_array_new_length::`vftable'
PUBLIC	??_C@_0BF@KINCDENJ@bad?5array?5new?5length@	; `string'
PUBLIC	_TI3?AVbad_array_new_length@std@@
PUBLIC	_CTA3?AVbad_array_new_length@std@@
PUBLIC	??_R0?AVbad_array_new_length@std@@@8		; std::bad_array_new_length `RTTI Type Descriptor'
PUBLIC	_CT??_R0?AVbad_array_new_length@std@@@8??0bad_array_new_length@std@@QEAA@AEBV01@@Z24
PUBLIC	??_R0?AVbad_alloc@std@@@8			; std::bad_alloc `RTTI Type Descriptor'
PUBLIC	_CT??_R0?AVbad_alloc@std@@@8??0bad_alloc@std@@QEAA@AEBV01@@Z24
PUBLIC	??_R0?AVexception@std@@@8			; std::exception `RTTI Type Descriptor'
PUBLIC	_CT??_R0?AVexception@std@@@8??0exception@std@@QEAA@AEBV01@@Z24
PUBLIC	?_OptionsStorage@?1??__local_stdio_printf_options@@9@4_KA ; `__local_stdio_printf_options'::`2'::_OptionsStorage
PUBLIC	??_C@_0BB@FCMFBGOM@invalid?5argument@		; `string'
PUBLIC	??_C@_02DKCKIIND@?$CFs@				; `string'
PUBLIC	??_C@_0GI@FJIKDGOA@C?3?2Program?5Files?5?$CIx86?$CJ?2Microsof@ ; `string'
PUBLIC	??_C@_1NA@CDBIFGMM@?$AAC?$AA?3?$AA?2?$AAP?$AAr?$AAo?$AAg?$AAr?$AAa?$AAm?$AA?5?$AAF?$AAi?$AAl?$AAe@ ; `string'
PUBLIC	??_C@_1EK@NIFDJFDG@?$AAs?$AAt?$AAd?$AA?3?$AA?3?$AA_?$AAA?$AAd?$AAj?$AAu?$AAs?$AAt?$AA_?$AAm?$AAa@ ; `string'
PUBLIC	??_C@_1CG@JNLFBNGN@?$AA?$CC?$AAi?$AAn?$AAv?$AAa?$AAl?$AAi?$AAd?$AA?5?$AAa?$AAr?$AAg?$AAu?$AAm?$AAe@ ; `string'
PUBLIC	??_C@_0BJ@LFDBABJJ@ITERATOR?5LIST?5CORRUPTED?$CB@ ; `string'
PUBLIC	??_C@_1EE@KLDMFDFL@?$AAs?$AAt?$AAd?$AA?3?$AA?3?$AA_?$AAI?$AAt?$AAe?$AAr?$AAa?$AAt?$AAo?$AAr?$AA_@ ; `string'
PUBLIC	??_C@_1DG@PLBPCAEM@?$AA?$CC?$AAI?$AAT?$AAE?$AAR?$AAA?$AAT?$AAO?$AAR?$AA?5?$AAL?$AAI?$AAS?$AAT?$AA?5@ ; `string'
PUBLIC	??_C@_02LMMGGCAJ@?3?5@				; `string'
PUBLIC	??_C@_05PKCPKOLM@undef@				; `string'
PUBLIC	??_C@_01EEMJAFIK@?6@				; `string'
PUBLIC	??_7RGYOutput@@6B@				; RGYOutput::`vftable'
PUBLIC	??_7RGYOutputRaw@@6B@				; RGYOutputRaw::`vftable'
PUBLIC	??_7CQSVOutFrame@@6B@				; CQSVOutFrame::`vftable'
PUBLIC	??_C@_0DE@CHADHGFF@can?8t?5dereference?5value?9initial@ ; `string'
PUBLIC	??_C@_0GH@OOPCKGB@C?3?2Program?5Files?5?$CIx86?$CJ?2Microsof@ ; `string'
PUBLIC	??_C@_1MO@NOOOHLI@?$AAC?$AA?3?$AA?2?$AAP?$AAr?$AAo?$AAg?$AAr?$AAa?$AAm?$AA?5?$AAF?$AAi?$AAl?$AAe@ ; `string'
PUBLIC	??_C@_1NO@DHAACCAA@?$AAs?$AAt?$AAd?$AA?3?$AA?3?$AA_?$AAV?$AAe?$AAc?$AAt?$AAo?$AAr?$AA_?$AAc?$AAo@ ; `string'
PUBLIC	??_C@_1GM@FNBFNBEL@?$AA?$CC?$AAc?$AAa?$AAn?$AA?8?$AAt?$AA?5?$AAd?$AAe?$AAr?$AAe?$AAf?$AAe?$AAr?$AAe@ ; `string'
PUBLIC	??_C@_0CP@MDHADBHN@can?8t?5dereference?5out?5of?5range?5@ ; `string'
PUBLIC	??_C@_1GC@JDCKOLAC@?$AA?$CC?$AAc?$AAa?$AAn?$AA?8?$AAt?$AA?5?$AAd?$AAe?$AAr?$AAe?$AAf?$AAe?$AAr?$AAe@ ; `string'
PUBLIC	??_C@_0GJ@GDKIGMBO@C?3?2Program?5Files?5?$CIx86?$CJ?2Microsof@ ; `string'
PUBLIC	??_C@_0BO@LFGPDMIB@string?5subscript?5out?5of?5range@ ; `string'
PUBLIC	??_C@_0GI@KAEHDKAJ@C?3?2Program?5Files?5?$CIx86?$CJ?2Microsof@ ; `string'
PUBLIC	??_C@_1NA@MNJEKPBN@?$AAC?$AA?3?$AA?2?$AAP?$AAr?$AAo?$AAg?$AAr?$AAa?$AAm?$AA?5?$AAF?$AAi?$AAl?$AAe@ ; `string'
PUBLIC	??_C@_1EA@OADAPGGK@?$AA?$CC?$AAs?$AAt?$AAr?$AAi?$AAn?$AAg?$AA?5?$AAs?$AAu?$AAb?$AAs?$AAc?$AAr?$AAi@ ; `string'
PUBLIC	??_C@_1LO@NPPEKPAI@?$AAs?$AAt?$AAd?$AA?3?$AA?3?$AAb?$AAa?$AAs?$AAi?$AAc?$AA_?$AAs?$AAt?$AAr?$AAi@ ; `string'
PUBLIC	??_C@_0BO@CAOBBIOC@vector?5iterators?5incompatible@ ; `string'
PUBLIC	??_C@_1NG@BALHEPOA@?$AAs?$AAt?$AAd?$AA?3?$AA?3?$AA_?$AAV?$AAe?$AAc?$AAt?$AAo?$AAr?$AA_?$AAc?$AAo@ ; `string'
PUBLIC	??_C@_1EA@DJDGNIII@?$AA?$CC?$AAv?$AAe?$AAc?$AAt?$AAo?$AAr?$AA?5?$AAi?$AAt?$AAe?$AAr?$AAa?$AAt?$AAo@ ; `string'
PUBLIC	??_C@_0CO@LHPFLLJB@cannot?5seek?5value?9initialized?5v@ ; `string'
PUBLIC	??_C@_1OE@PHFHONJN@?$AAs?$AAt?$AAd?$AA?3?$AA?3?$AA_?$AAV?$AAe?$AAc?$AAt?$AAo?$AAr?$AA_?$AAc?$AAo@ ; `string'
PUBLIC	??_C@_1GA@EIHBFEJD@?$AA?$CC?$AAc?$AAa?$AAn?$AAn?$AAo?$AAt?$AA?5?$AAs?$AAe?$AAe?$AAk?$AA?5?$AAv?$AAa@ ; `string'
PUBLIC	??_C@_0CJ@DIFMEJBE@cannot?5seek?5vector?5iterator?5bef@ ; `string'
PUBLIC	??_C@_1FG@JCGKNFIB@?$AA?$CC?$AAc?$AAa?$AAn?$AAn?$AAo?$AAt?$AA?5?$AAs?$AAe?$AAe?$AAk?$AA?5?$AAv?$AAe@ ; `string'
PUBLIC	??_C@_0CG@JDIOCKHH@cannot?5seek?5vector?5iterator?5aft@ ; `string'
PUBLIC	??_C@_1FA@LCODAPOP@?$AA?$CC?$AAc?$AAa?$AAn?$AAn?$AAo?$AAt?$AA?5?$AAs?$AAe?$AAe?$AAk?$AA?5?$AAv?$AAe@ ; `string'
PUBLIC	??_C@_1NC@OIIHGCJJ@?$AAC?$AA?3?$AA?2?$AAP?$AAr?$AAo?$AAg?$AAr?$AAa?$AAm?$AA?5?$AAF?$AAi?$AAl?$AAe@ ; `string'
PUBLIC	??_C@_0BD@FEEMDEPI@invalid?5comparator@		; `string'
PUBLIC	??_C@_0GK@EEDLHHLD@C?3?2Program?5Files?5?$CIx86?$CJ?2Microsof@ ; `string'
PUBLIC	??_C@_1NE@BOCHNKFM@?$AAC?$AA?3?$AA?2?$AAP?$AAr?$AAo?$AAg?$AAr?$AAa?$AAm?$AA?5?$AAF?$AAi?$AAl?$AAe@ ; `string'
PUBLIC	??_C@_1BC@BLAPCBGI@?$AAs?$AAt?$AAd?$AA?3?$AA?3?$AAm?$AAi?$AAn@ ; `string'
PUBLIC	??_C@_1CK@NDNHPKPI@?$AA?$CC?$AAi?$AAn?$AAv?$AAa?$AAl?$AAi?$AAd?$AA?5?$AAc?$AAo?$AAm?$AAp?$AAa?$AAr@ ; `string'
PUBLIC	??_C@_0BD@OLBABOEK@vector?$DMT?$DO?5too?5long@	; `string'
PUBLIC	??_C@_0BA@JFNIOLAK@string?5too?5long@		; `string'
PUBLIC	??_C@_0BJ@HAJGEHKO@transposed?5pointer?5range@	; `string'
PUBLIC	??_C@_1CG@LJCPDKEJ@?$AAs?$AAt?$AAd?$AA?3?$AA?3?$AA_?$AAV?$AAe?$AAr?$AAi?$AAf?$AAy?$AA_?$AAr?$AAa@ ; `string'
PUBLIC	??_C@_1DG@FJIKMGFD@?$AA?$CC?$AAt?$AAr?$AAa?$AAn?$AAs?$AAp?$AAo?$AAs?$AAe?$AAd?$AA?5?$AAp?$AAo?$AAi@ ; `string'
PUBLIC	??_7?$_Func_impl_no_alloc@P6AXPEAPEAUAVCodecParameters@@@ZXPEAPEAU1@@std@@6B@ ; std::_Func_impl_no_alloc<void (__cdecl*)(AVCodecParameters * *),void,AVCodecParameters * *>::`vftable'
PUBLIC	??_7?$_Func_impl_no_alloc@P6AXPEAPEAUAVBSFContext@@@ZXPEAPEAU1@@std@@6B@ ; std::_Func_impl_no_alloc<void (__cdecl*)(AVBSFContext * *),void,AVBSFContext * *>::`vftable'
PUBLIC	??_R0P6AXPEAPEAUAVBSFContext@@@Z@8		; void (__cdecl*)(AVBSFContext * *) `RTTI Type Descriptor'
PUBLIC	??_R0P6AXPEAPEAUAVCodecParameters@@@Z@8		; void (__cdecl*)(AVCodecParameters * *) `RTTI Type Descriptor'
PUBLIC	??_C@_0DI@PBEELKIF@vector?5iterators?5in?5range?5are?5f@ ; `string'
PUBLIC	??_C@_1HE@KBMFDAFB@?$AA?$CC?$AAv?$AAe?$AAc?$AAt?$AAo?$AAr?$AA?5?$AAi?$AAt?$AAe?$AAr?$AAa?$AAt?$AAo@ ; `string'
PUBLIC	??_C@_0CB@LIAHLBAO@vector?5iterator?5range?5transpose@ ; `string'
PUBLIC	??_C@_1EG@ODKBEHFN@?$AA?$CC?$AAv?$AAe?$AAc?$AAt?$AAo?$AAr?$AA?5?$AAi?$AAt?$AAe?$AAr?$AAa?$AAt?$AAo@ ; `string'
PUBLIC	??_R4exception@std@@6B@				; std::exception::`RTTI Complete Object Locator'
PUBLIC	??_R3exception@std@@8				; std::exception::`RTTI Class Hierarchy Descriptor'
PUBLIC	??_R2exception@std@@8				; std::exception::`RTTI Base Class Array'
PUBLIC	??_R1A@?0A@EA@exception@std@@8			; std::exception::`RTTI Base Class Descriptor at (0,-1,0,64)'
PUBLIC	??_R4bad_alloc@std@@6B@				; std::bad_alloc::`RTTI Complete Object Locator'
PUBLIC	??_R3bad_alloc@std@@8				; std::bad_alloc::`RTTI Class Hierarchy Descriptor'
PUBLIC	??_R2bad_alloc@std@@8				; std::bad_alloc::`RTTI Base Class Array'
PUBLIC	??_R1A@?0A@EA@bad_alloc@std@@8			; std::bad_alloc::`RTTI Base Class Descriptor at (0,-1,0,64)'
PUBLIC	??_R4bad_array_new_length@std@@6B@		; std::bad_array_new_length::`RTTI Complete Object Locator'
PUBLIC	??_R3bad_array_new_length@std@@8		; std::bad_array_new_length::`RTTI Class Hierarchy Descriptor'
PUBLIC	??_R2bad_array_new_length@std@@8		; std::bad_array_new_length::`RTTI Base Class Array'
PUBLIC	??_R1A@?0A@EA@bad_array_new_length@std@@8	; std::bad_array_new_length::`RTTI Base Class Descriptor at (0,-1,0,64)'
PUBLIC	??_R4RGYOutput@@6B@				; RGYOutput::`RTTI Complete Object Locator'
PUBLIC	??_R0?AVRGYOutput@@@8				; RGYOutput `RTTI Type Descriptor'
PUBLIC	??_R3RGYOutput@@8				; RGYOutput::`RTTI Class Hierarchy Descriptor'
PUBLIC	??_R2RGYOutput@@8				; RGYOutput::`RTTI Base Class Array'
PUBLIC	??_R1A@?0A@EA@RGYOutput@@8			; RGYOutput::`RTTI Base Class Descriptor at (0,-1,0,64)'
PUBLIC	??_R4RGYOutputRaw@@6B@				; RGYOutputRaw::`RTTI Complete Object Locator'
PUBLIC	??_R0?AVRGYOutputRaw@@@8			; RGYOutputRaw `RTTI Type Descriptor'
PUBLIC	??_R3RGYOutputRaw@@8				; RGYOutputRaw::`RTTI Class Hierarchy Descriptor'
PUBLIC	??_R2RGYOutputRaw@@8				; RGYOutputRaw::`RTTI Base Class Array'
PUBLIC	??_R1A@?0A@EA@RGYOutputRaw@@8			; RGYOutputRaw::`RTTI Base Class Descriptor at (0,-1,0,64)'
PUBLIC	??_R0?AV?$_Func_base@XPEAPEAUAVBSFContext@@@std@@@8 ; std::_Func_base<void,AVBSFContext * *> `RTTI Type Descriptor'
PUBLIC	??_R3?$_Func_base@XPEAPEAUAVBSFContext@@@std@@8	; std::_Func_base<void,AVBSFContext * *>::`RTTI Class Hierarchy Descriptor'
PUBLIC	??_R2?$_Func_base@XPEAPEAUAVBSFContext@@@std@@8	; std::_Func_base<void,AVBSFContext * *>::`RTTI Base Class Array'
PUBLIC	??_R1A@?0A@EA@?$_Func_base@XPEAPEAUAVBSFContext@@@std@@8 ; std::_Func_base<void,AVBSFContext * *>::`RTTI Base Class Descriptor at (0,-1,0,64)'
PUBLIC	??_R4CQSVOutFrame@@6B@				; CQSVOutFrame::`RTTI Complete Object Locator'
PUBLIC	??_R0?AVCQSVOutFrame@@@8			; CQSVOutFrame `RTTI Type Descriptor'
PUBLIC	??_R3CQSVOutFrame@@8				; CQSVOutFrame::`RTTI Class Hierarchy Descriptor'
PUBLIC	??_R2CQSVOutFrame@@8				; CQSVOutFrame::`RTTI Base Class Array'
PUBLIC	??_R1A@?0A@EA@CQSVOutFrame@@8			; CQSVOutFrame::`RTTI Base Class Descriptor at (0,-1,0,64)'
PUBLIC	??_R0?AV?$_Func_base@XPEAPEAUAVCodecParameters@@@std@@@8 ; std::_Func_base<void,AVCodecParameters * *> `RTTI Type Descriptor'
PUBLIC	??_R3?$_Func_base@XPEAPEAUAVCodecParameters@@@std@@8 ; std::_Func_base<void,AVCodecParameters * *>::`RTTI Class Hierarchy Descriptor'
PUBLIC	??_R2?$_Func_base@XPEAPEAUAVCodecParameters@@@std@@8 ; std::_Func_base<void,AVCodecParameters * *>::`RTTI Base Class Array'
PUBLIC	??_R1A@?0A@EA@?$_Func_base@XPEAPEAUAVCodecParameters@@@std@@8 ; std::_Func_base<void,AVCodecParameters * *>::`RTTI Base Class Descriptor at (0,-1,0,64)'
PUBLIC	??_R4?$_Func_impl_no_alloc@P6AXPEAPEAUAVCodecParameters@@@ZXPEAPEAU1@@std@@6B@ ; std::_Func_impl_no_alloc<void (__cdecl*)(AVCodecParameters * *),void,AVCodecParameters * *>::`RTTI Complete Object Locator'
PUBLIC	??_R0?AV?$_Func_impl_no_alloc@P6AXPEAPEAUAVCodecParameters@@@ZXPEAPEAU1@@std@@@8 ; std::_Func_impl_no_alloc<void (__cdecl*)(AVCodecParameters * *),void,AVCodecParameters * *> `RTTI Type Descriptor'
PUBLIC	??_R3?$_Func_impl_no_alloc@P6AXPEAPEAUAVCodecParameters@@@ZXPEAPEAU1@@std@@8 ; std::_Func_impl_no_alloc<void (__cdecl*)(AVCodecParameters * *),void,AVCodecParameters * *>::`RTTI Class Hierarchy Descriptor'
PUBLIC	??_R2?$_Func_impl_no_alloc@P6AXPEAPEAUAVCodecParameters@@@ZXPEAPEAU1@@std@@8 ; std::_Func_impl_no_alloc<void (__cdecl*)(AVCodecParameters * *),void,AVCodecParameters * *>::`RTTI Base Class Array'
PUBLIC	??_R1A@?0A@EA@?$_Func_impl_no_alloc@P6AXPEAPEAUAVCodecParameters@@@ZXPEAPEAU1@@std@@8 ; std::_Func_impl_no_alloc<void (__cdecl*)(AVCodecParameters * *),void,AVCodecParameters * *>::`RTTI Base Class Descriptor at (0,-1,0,64)'
PUBLIC	??_R4?$_Func_impl_no_alloc@P6AXPEAPEAUAVBSFContext@@@ZXPEAPEAU1@@std@@6B@ ; std::_Func_impl_no_alloc<void (__cdecl*)(AVBSFContext * *),void,AVBSFContext * *>::`RTTI Complete Object Locator'
PUBLIC	??_R0?AV?$_Func_impl_no_alloc@P6AXPEAPEAUAVBSFContext@@@ZXPEAPEAU1@@std@@@8 ; std::_Func_impl_no_alloc<void (__cdecl*)(AVBSFContext * *),void,AVBSFContext * *> `RTTI Type Descriptor'
PUBLIC	??_R3?$_Func_impl_no_alloc@P6AXPEAPEAUAVBSFContext@@@ZXPEAPEAU1@@std@@8 ; std::_Func_impl_no_alloc<void (__cdecl*)(AVBSFContext * *),void,AVBSFContext * *>::`RTTI Class Hierarchy Descriptor'
PUBLIC	??_R2?$_Func_impl_no_alloc@P6AXPEAPEAUAVBSFContext@@@ZXPEAPEAU1@@std@@8 ; std::_Func_impl_no_alloc<void (__cdecl*)(AVBSFContext * *),void,AVBSFContext * *>::`RTTI Base Class Array'
PUBLIC	??_R1A@?0A@EA@?$_Func_impl_no_alloc@P6AXPEAPEAUAVBSFContext@@@ZXPEAPEAU1@@std@@8 ; std::_Func_impl_no_alloc<void (__cdecl*)(AVBSFContext * *),void,AVBSFContext * *>::`RTTI Base Class Descriptor at (0,-1,0,64)'
EXTRN	_purecall:PROC
EXTRN	??2@YAPEAX_K@Z:PROC				; operator new
EXTRN	??3@YAXPEAX_K@Z:PROC				; operator delete
EXTRN	__imp__invalid_parameter:PROC
EXTRN	__imp__CrtDbgReport:PROC
EXTRN	__imp_??0_Lockit@std@@QEAA@H@Z:PROC
EXTRN	__imp_??1_Lockit@std@@QEAA@XZ:PROC
EXTRN	__imp_free:PROC
EXTRN	__imp__aligned_free:PROC
EXTRN	__imp__aligned_malloc:PROC
EXTRN	__std_exception_copy:PROC
EXTRN	__std_exception_destroy:PROC
EXTRN	??_Eexception@std@@UEAAPEAXI@Z:PROC		; std::exception::`vector deleting destructor'
EXTRN	??_Ebad_alloc@std@@UEAAPEAXI@Z:PROC		; std::bad_alloc::`vector deleting destructor'
EXTRN	??_Ebad_array_new_length@std@@UEAAPEAXI@Z:PROC	; std::bad_array_new_length::`vector deleting destructor'
EXTRN	__imp___acrt_iob_func:PROC
EXTRN	__imp_fopen_s:PROC
EXTRN	__imp_fclose:PROC
EXTRN	__imp_fflush:PROC
EXTRN	__imp_fwrite:PROC
EXTRN	__imp_setvbuf:PROC
EXTRN	__imp__fwrite_nolock:PROC
EXTRN	__imp___stdio_common_vsprintf:PROC
EXTRN	__imp___stdio_common_vsprintf_s:PROC
EXTRN	memcpy:PROC
EXTRN	memmove:PROC
EXTRN	memset:PROC
EXTRN	__imp_strcpy_s:PROC
EXTRN	__imp_strerror:PROC
EXTRN	strlen:PROC
EXTRN	?_Xlength_error@std@@YAXPEBD@Z:PROC		; std::_Xlength_error
EXTRN	__imp__mbscmp:PROC
EXTRN	?_Xbad_function_call@std@@YAXXZ:PROC		; std::_Xbad_function_call
EXTRN	?char_to_tstring@@YA?AV?$basic_string@DU?$char_traits@D@std@@V?$allocator@D@2@@std@@PEBDI@Z:PROC ; char_to_tstring
EXTRN	?split@@YA?AV?$vector@V?$basic_string@DU?$char_traits@D@std@@V?$allocator@D@2@@std@@V?$allocator@V?$basic_string@DU?$char_traits@D@std@@V?$allocator@D@2@@std@@@2@@std@@AEBV?$basic_string@DU?$char_traits@D@std@@V?$allocator@D@2@@2@0_N@Z:PROC ; split
EXTRN	?PathRemoveFileSpecFixed@@YA?AU?$pair@HV?$basic_string@DU?$char_traits@D@std@@V?$allocator@D@2@@std@@@std@@AEBV?$basic_string@DU?$char_traits@D@std@@V?$allocator@D@2@@2@@Z:PROC ; PathRemoveFileSpecFixed
EXTRN	?CreateDirectoryRecursive@@YA_NPEBD@Z:PROC	; CreateDirectoryRecursive
EXTRN	?malloc_degeneracy@@YA_KPEAPEAX_K1@Z:PROC	; malloc_degeneracy
EXTRN	av_dict_set:PROC
EXTRN	av_dict_set_int:PROC
EXTRN	av_opt_set_dict2:PROC
EXTRN	avcodec_parameters_alloc:PROC
EXTRN	avcodec_parameters_free:PROC
EXTRN	avcodec_parameters_copy:PROC
EXTRN	av_init_packet:PROC
EXTRN	av_new_packet:PROC
EXTRN	av_packet_unref:PROC
EXTRN	av_bsf_get_by_name:PROC
EXTRN	av_bsf_alloc:PROC
EXTRN	av_bsf_init:PROC
EXTRN	av_bsf_send_packet:PROC
EXTRN	av_bsf_receive_packet:PROC
EXTRN	av_bsf_free:PROC
EXTRN	?picstrcut_rgy_to_avfieldorder@@YA?AW4AVFieldOrder@@W4RGY_PICSTRUCT@@@Z:PROC ; picstrcut_rgy_to_avfieldorder
EXTRN	?qsv_av_err2str@@YA?AV?$basic_string@DU?$char_traits@D@std@@V?$allocator@D@2@@std@@H@Z:PROC ; qsv_av_err2str
EXTRN	?check_avcodec_dll@@YA_NXZ:PROC			; check_avcodec_dll
EXTRN	?error_mes_avcodec_dll_not_found@@YA?AV?$basic_string@DU?$char_traits@D@std@@V?$allocator@D@2@@std@@XZ:PROC ; error_mes_avcodec_dll_not_found
EXTRN	?csp_rgy_to_avpixfmt@@YA?AW4AVPixelFormat@@W4RGY_CSP@@@Z:PROC ; csp_rgy_to_avpixfmt
EXTRN	?csp_enc_to_rgy@@YA?AW4RGY_CSP@@I@Z:PROC	; csp_enc_to_rgy
EXTRN	??_ERGYOutput@@UEAAPEAXI@Z:PROC			; RGYOutput::`vector deleting destructor'
EXTRN	??_ERGYOutputRaw@@UEAAPEAXI@Z:PROC		; RGYOutputRaw::`vector deleting destructor'
EXTRN	??_ECQSVOutFrame@@UEAAPEAXI@Z:PROC		; CQSVOutFrame::`vector deleting destructor'
EXTRN	_CxxThrowException:PROC
EXTRN	_RTC_CheckStackVars:PROC
EXTRN	_RTC_InitBase:PROC
EXTRN	_RTC_Shutdown:PROC
EXTRN	__CxxFrameHandler4:PROC
EXTRN	__GSHandlerCheck:PROC
EXTRN	__GSHandlerCheck_EH4:PROC
EXTRN	__security_check_cookie:PROC
EXTRN	??_7type_info@@6B@:BYTE				; type_info::`vftable'
EXTRN	__security_cookie:QWORD
;	COMDAT ?_OptionsStorage@?1??__local_stdio_printf_options@@9@4_KA
_BSS	SEGMENT
?_OptionsStorage@?1??__local_stdio_printf_options@@9@4_KA DQ 01H DUP (?) ; `__local_stdio_printf_options'::`2'::_OptionsStorage
_BSS	ENDS
_BSS	SEGMENT
?CspMatrixList@@3V?$array@W4CspMatrix@@$0O@@std@@B DB 038H DUP (?) ; CspMatrixList
?CspTransferList@@3V?$array@W4CspTransfer@@$0P@@std@@B DB 03cH DUP (?) ; CspTransferList
?CspColorprimList@@3V?$array@W4CspColorprim@@$0M@@std@@B DB 030H DUP (?) ; CspColorprimList
_BSS	ENDS
;	COMDAT pdata
pdata	SEGMENT
$pdata$?__empty_global_delete@@YAXPEAX@Z DD imagerel $LN3
	DD	imagerel $LN3+8
	DD	imagerel $unwind$?__empty_global_delete@@YAXPEAX@Z
pdata	ENDS
;	COMDAT pdata
pdata	SEGMENT
$pdata$?__empty_global_delete@@YAXPEAX_K@Z DD imagerel $LN3
	DD	imagerel $LN3+13
	DD	imagerel $unwind$?__empty_global_delete@@YAXPEAX_K@Z
pdata	ENDS
;	COMDAT pdata
pdata	SEGMENT
$pdata$??2@YAPEAX_KPEAX@Z DD imagerel $LN3
	DD	imagerel $LN3+18
	DD	imagerel $unwind$??2@YAPEAX_KPEAX@Z
pdata	ENDS
;	COMDAT pdata
pdata	SEGMENT
$pdata$??0exception@std@@QEAA@QEBDH@Z DD imagerel $LN3
	DD	imagerel $LN3+73
	DD	imagerel $unwind$??0exception@std@@QEAA@QEBDH@Z
pdata	ENDS
;	COMDAT pdata
pdata	SEGMENT
$pdata$??0exception@std@@QEAA@AEBV01@@Z DD imagerel $LN3
	DD	imagerel $LN3+109
	DD	imagerel $unwind$??0exception@std@@QEAA@AEBV01@@Z
pdata	ENDS
;	COMDAT pdata
pdata	SEGMENT
$pdata$??1exception@std@@UEAA@XZ DD imagerel $LN3
	DD	imagerel $LN3+69
	DD	imagerel $unwind$??1exception@std@@UEAA@XZ
pdata	ENDS
;	COMDAT pdata
pdata	SEGMENT
$pdata$?what@exception@std@@UEBAPEBDXZ DD imagerel $LN5
	DD	imagerel $LN5+78
	DD	imagerel $unwind$?what@exception@std@@UEBAPEBDXZ
pdata	ENDS
;	COMDAT pdata
pdata	SEGMENT
$pdata$??_Gexception@std@@UEAAPEAXI@Z DD imagerel $LN4
	DD	imagerel $LN4+81
	DD	imagerel $unwind$??_Gexception@std@@UEAAPEAXI@Z
pdata	ENDS
;	COMDAT pdata
pdata	SEGMENT
$pdata$??0bad_alloc@std@@AEAA@QEBD@Z DD imagerel $LN4
	DD	imagerel $LN4+83
	DD	imagerel $unwind$??0bad_alloc@std@@AEAA@QEBD@Z
pdata	ENDS
;	COMDAT pdata
pdata	SEGMENT
$pdata$?dtor$0@?0???0bad_alloc@std@@AEAA@QEBD@Z@4HA DD imagerel ?dtor$0@?0???0bad_alloc@std@@AEAA@QEBD@Z@4HA
	DD	imagerel ?dtor$0@?0???0bad_alloc@std@@AEAA@QEBD@Z@4HA+35
	DD	imagerel $unwind$?dtor$0@?0???0bad_alloc@std@@AEAA@QEBD@Z@4HA
pdata	ENDS
;	COMDAT pdata
pdata	SEGMENT
$pdata$??1bad_alloc@std@@UEAA@XZ DD imagerel $LN4
	DD	imagerel $LN4+47
	DD	imagerel $unwind$??1bad_alloc@std@@UEAA@XZ
pdata	ENDS
;	COMDAT pdata
pdata	SEGMENT
$pdata$?dtor$0@?0???1bad_alloc@std@@UEAA@XZ@4HA DD imagerel ?dtor$0@?0???1bad_alloc@std@@UEAA@XZ@4HA
	DD	imagerel ?dtor$0@?0???1bad_alloc@std@@UEAA@XZ@4HA+35
	DD	imagerel $unwind$?dtor$0@?0???1bad_alloc@std@@UEAA@XZ@4HA
pdata	ENDS
;	COMDAT pdata
pdata	SEGMENT
$pdata$??0bad_alloc@std@@QEAA@AEBV01@@Z DD imagerel $LN4
	DD	imagerel $LN4+77
	DD	imagerel $unwind$??0bad_alloc@std@@QEAA@AEBV01@@Z
pdata	ENDS
;	COMDAT pdata
pdata	SEGMENT
$pdata$?dtor$0@?0???0bad_alloc@std@@QEAA@AEBV01@@Z@4HA DD imagerel ?dtor$0@?0???0bad_alloc@std@@QEAA@AEBV01@@Z@4HA
	DD	imagerel ?dtor$0@?0???0bad_alloc@std@@QEAA@AEBV01@@Z@4HA+35
	DD	imagerel $unwind$?dtor$0@?0???0bad_alloc@std@@QEAA@AEBV01@@Z@4HA
pdata	ENDS
;	COMDAT pdata
pdata	SEGMENT
$pdata$??_Gbad_alloc@std@@UEAAPEAXI@Z DD imagerel $LN4
	DD	imagerel $LN4+81
	DD	imagerel $unwind$??_Gbad_alloc@std@@UEAAPEAXI@Z
pdata	ENDS
;	COMDAT pdata
pdata	SEGMENT
$pdata$??0bad_array_new_length@std@@QEAA@XZ DD imagerel $LN4
	DD	imagerel $LN4+74
	DD	imagerel $unwind$??0bad_array_new_length@std@@QEAA@XZ
pdata	ENDS
;	COMDAT pdata
pdata	SEGMENT
$pdata$?dtor$0@?0???0bad_array_new_length@std@@QEAA@XZ@4HA DD imagerel ?dtor$0@?0???0bad_array_new_length@std@@QEAA@XZ@4HA
	DD	imagerel ?dtor$0@?0???0bad_array_new_length@std@@QEAA@XZ@4HA+35
	DD	imagerel $unwind$?dtor$0@?0???0bad_array_new_length@std@@QEAA@XZ@4HA
pdata	ENDS
;	COMDAT pdata
pdata	SEGMENT
$pdata$??1bad_array_new_length@std@@UEAA@XZ DD imagerel $LN4
	DD	imagerel $LN4+47
	DD	imagerel $unwind$??1bad_array_new_length@std@@UEAA@XZ
pdata	ENDS
;	COMDAT pdata
pdata	SEGMENT
$pdata$?dtor$0@?0???1bad_array_new_length@std@@UEAA@XZ@4HA DD imagerel ?dtor$0@?0???1bad_array_new_length@std@@UEAA@XZ@4HA
	DD	imagerel ?dtor$0@?0???1bad_array_new_length@std@@UEAA@XZ@4HA+35
	DD	imagerel $unwind$?dtor$0@?0???1bad_array_new_length@std@@UEAA@XZ@4HA
pdata	ENDS
;	COMDAT pdata
pdata	SEGMENT
$pdata$??0bad_array_new_length@std@@QEAA@AEBV01@@Z DD imagerel $LN4
	DD	imagerel $LN4+77
	DD	imagerel $unwind$??0bad_array_new_length@std@@QEAA@AEBV01@@Z
pdata	ENDS
;	COMDAT pdata
pdata	SEGMENT
$pdata$?dtor$0@?0???0bad_array_new_length@std@@QEAA@AEBV01@@Z@4HA DD imagerel ?dtor$0@?0???0bad_array_new_length@std@@QEAA@AEBV01@@Z@4HA
	DD	imagerel ?dtor$0@?0???0bad_array_new_length@std@@QEAA@AEBV01@@Z@4HA+35
	DD	imagerel $unwind$?dtor$0@?0???0bad_array_new_length@std@@QEAA@AEBV01@@Z@4HA
pdata	ENDS
;	COMDAT pdata
pdata	SEGMENT
$pdata$??_Gbad_array_new_length@std@@UEAAPEAXI@Z DD imagerel $LN4
	DD	imagerel $LN4+81
	DD	imagerel $unwind$??_Gbad_array_new_length@std@@UEAAPEAXI@Z
pdata	ENDS
;	COMDAT pdata
pdata	SEGMENT
$pdata$?_Throw_bad_array_new_length@std@@YAXXZ DD imagerel $LN3
	DD	imagerel $LN3+54
	DD	imagerel $unwind$?_Throw_bad_array_new_length@std@@YAXXZ
pdata	ENDS
;	COMDAT pdata
pdata	SEGMENT
$pdata$__local_stdio_printf_options DD imagerel $LN3
	DD	imagerel $LN3+11
	DD	imagerel $unwind$__local_stdio_printf_options
pdata	ENDS
;	COMDAT pdata
pdata	SEGMENT
$pdata$_vsprintf_s_l DD imagerel $LN5
	DD	imagerel $LN5+133
	DD	imagerel $unwind$_vsprintf_s_l
pdata	ENDS
;	COMDAT pdata
pdata	SEGMENT
$pdata$vsprintf_s DD imagerel $LN3
	DD	imagerel $LN3+84
	DD	imagerel $unwind$vsprintf_s
pdata	ENDS
;	COMDAT pdata
pdata	SEGMENT
$pdata$_vscprintf_l DD imagerel $LN5
	DD	imagerel $LN5+130
	DD	imagerel $unwind$_vscprintf_l
pdata	ENDS
;	COMDAT pdata
pdata	SEGMENT
$pdata$_vscprintf DD imagerel $LN3
	DD	imagerel $LN3+58
	DD	imagerel $unwind$_vscprintf
pdata	ENDS
;	COMDAT pdata
pdata	SEGMENT
$pdata$sprintf_s DD imagerel $LN3
	DD	imagerel $LN3+136
	DD	imagerel $unwind$sprintf_s
pdata	ENDS
;	COMDAT pdata
pdata	SEGMENT
$pdata$?max@?$numeric_limits@_J@std@@SA_JXZ DD imagerel $LN3
	DD	imagerel $LN3+14
	DD	imagerel $unwind$?max@?$numeric_limits@_J@std@@SA_JXZ
pdata	ENDS
;	COMDAT pdata
pdata	SEGMENT
$pdata$?_Allocate@_Default_allocate_traits@std@@SAPEAX_K@Z DD imagerel $LN3
	DD	imagerel $LN3+46
	DD	imagerel $unwind$?_Allocate@_Default_allocate_traits@std@@SAPEAX_K@Z
pdata	ENDS
;	COMDAT pdata
pdata	SEGMENT
$pdata$?_Adjust_manually_vector_aligned@std@@YAXAEAPEAXAEA_K@Z DD imagerel $LN21
	DD	imagerel $LN21+424
	DD	imagerel $unwind$?_Adjust_manually_vector_aligned@std@@YAXAEAPEAXAEA_K@Z
pdata	ENDS
;	COMDAT pdata
pdata	SEGMENT
$pdata$??$_Convert_size@_K@std@@YA_K_K@Z DD imagerel $LN3
	DD	imagerel $LN3+13
	DD	imagerel $unwind$??$_Convert_size@_K@std@@YA_K_K@Z
pdata	ENDS
;	COMDAT pdata
pdata	SEGMENT
$pdata$??0_Container_proxy@std@@QEAA@PEAU_Container_base12@1@@Z DD imagerel $LN3
	DD	imagerel $LN3+44
	DD	imagerel $unwind$??0_Container_proxy@std@@QEAA@PEAU_Container_base12@1@@Z
pdata	ENDS
;	COMDAT pdata
pdata	SEGMENT
$pdata$??0_Container_base12@std@@QEAA@XZ DD imagerel $LN3
	DD	imagerel $LN3+25
	DD	imagerel $unwind$??0_Container_base12@std@@QEAA@XZ
pdata	ENDS
;	COMDAT pdata
pdata	SEGMENT
$pdata$?_Orphan_all@_Container_base12@std@@QEAAXXZ DD imagerel $LN8
	DD	imagerel $LN8+175
	DD	imagerel $unwind$?_Orphan_all@_Container_base12@std@@QEAAXXZ
pdata	ENDS
;	COMDAT pdata
pdata	SEGMENT
$pdata$?dtor$0@?0??_Orphan_all@_Container_base12@std@@QEAAXXZ@4HA DD imagerel ?dtor$0@?0??_Orphan_all@_Container_base12@std@@QEAAXXZ@4HA
	DD	imagerel ?dtor$0@?0??_Orphan_all@_Container_base12@std@@QEAAXXZ@4HA+36
	DD	imagerel $unwind$?dtor$0@?0??_Orphan_all@_Container_base12@std@@QEAAXXZ@4HA
pdata	ENDS
;	COMDAT pdata
pdata	SEGMENT
$pdata$?_Swap_proxy_and_iterators@_Container_base12@std@@QEAAXAEAU12@@Z DD imagerel $LN6
	DD	imagerel $LN6+182
	DD	imagerel $unwind$?_Swap_proxy_and_iterators@_Container_base12@std@@QEAAXAEAU12@@Z
pdata	ENDS
;	COMDAT pdata
pdata	SEGMENT
$pdata$?dtor$0@?0??_Swap_proxy_and_iterators@_Container_base12@std@@QEAAXAEAU12@@Z@4HA DD imagerel ?dtor$0@?0??_Swap_proxy_and_iterators@_Container_base12@std@@QEAAXAEAU12@@Z@4HA
	DD	imagerel ?dtor$0@?0??_Swap_proxy_and_iterators@_Container_base12@std@@QEAAXAEAU12@@Z@4HA+36
	DD	imagerel $unwind$?dtor$0@?0??_Swap_proxy_and_iterators@_Container_base12@std@@QEAAXAEAU12@@Z@4HA
pdata	ENDS
;	COMDAT pdata
pdata	SEGMENT
$pdata$??0_Iterator_base12@std@@QEAA@XZ DD imagerel $LN3
	DD	imagerel $LN3+38
	DD	imagerel $unwind$??0_Iterator_base12@std@@QEAA@XZ
pdata	ENDS
;	COMDAT pdata
pdata	SEGMENT
$pdata$??0_Iterator_base12@std@@QEAA@AEBU01@@Z DD imagerel $LN3
	DD	imagerel $LN3+86
	DD	imagerel $unwind$??0_Iterator_base12@std@@QEAA@AEBU01@@Z
pdata	ENDS
;	COMDAT pdata
pdata	SEGMENT
$pdata$??4_Iterator_base12@std@@QEAAAEAU01@AEBU01@@Z DD imagerel $LN7
	DD	imagerel $LN7+161
	DD	imagerel $unwind$??4_Iterator_base12@std@@QEAAAEAU01@AEBU01@@Z
pdata	ENDS
;	COMDAT pdata
pdata	SEGMENT
$pdata$?dtor$0@?0???4_Iterator_base12@std@@QEAAAEAU01@AEBU01@@Z@4HA DD imagerel ?dtor$0@?0???4_Iterator_base12@std@@QEAAAEAU01@AEBU01@@Z@4HA
	DD	imagerel ?dtor$0@?0???4_Iterator_base12@std@@QEAAAEAU01@AEBU01@@Z@4HA+36
	DD	imagerel $unwind$?dtor$0@?0???4_Iterator_base12@std@@QEAAAEAU01@AEBU01@@Z@4HA
pdata	ENDS
;	COMDAT pdata
pdata	SEGMENT
$pdata$??1_Iterator_base12@std@@QEAA@XZ DD imagerel $LN4
	DD	imagerel $LN4+92
	DD	imagerel $unwind$??1_Iterator_base12@std@@QEAA@XZ
pdata	ENDS
;	COMDAT pdata
pdata	SEGMENT
$pdata$?dtor$0@?0???1_Iterator_base12@std@@QEAA@XZ@4HA DD imagerel ?dtor$0@?0???1_Iterator_base12@std@@QEAA@XZ@4HA
	DD	imagerel ?dtor$0@?0???1_Iterator_base12@std@@QEAA@XZ@4HA+36
	DD	imagerel $unwind$?dtor$0@?0???1_Iterator_base12@std@@QEAA@XZ@4HA
pdata	ENDS
;	COMDAT pdata
pdata	SEGMENT
$pdata$?_Adopt@_Iterator_base12@std@@QEAAXPEBU_Container_base12@2@@Z DD imagerel $LN8
	DD	imagerel $LN8+251
	DD	imagerel $unwind$?_Adopt@_Iterator_base12@std@@QEAAXPEBU_Container_base12@2@@Z
pdata	ENDS
;	COMDAT pdata
pdata	SEGMENT
$pdata$?dtor$0@?0??_Adopt@_Iterator_base12@std@@QEAAXPEBU_Container_base12@2@@Z@4HA DD imagerel ?dtor$0@?0??_Adopt@_Iterator_base12@std@@QEAAXPEBU_Container_base12@2@@Z@4HA
	DD	imagerel ?dtor$0@?0??_Adopt@_Iterator_base12@std@@QEAAXPEBU_Container_base12@2@@Z@4HA+36
	DD	imagerel $unwind$?dtor$0@?0??_Adopt@_Iterator_base12@std@@QEAAXPEBU_Container_base12@2@@Z@4HA
pdata	ENDS
;	COMDAT pdata
pdata	SEGMENT
$pdata$?dtor$1@?0??_Adopt@_Iterator_base12@std@@QEAAXPEBU_Container_base12@2@@Z@4HA DD imagerel ?dtor$1@?0??_Adopt@_Iterator_base12@std@@QEAAXPEBU_Container_base12@2@@Z@4HA
	DD	imagerel ?dtor$1@?0??_Adopt@_Iterator_base12@std@@QEAAXPEBU_Container_base12@2@@Z@4HA+36
	DD	imagerel $unwind$?dtor$1@?0??_Adopt@_Iterator_base12@std@@QEAAXPEBU_Container_base12@2@@Z@4HA
pdata	ENDS
;	COMDAT pdata
pdata	SEGMENT
$pdata$?_Getcont@_Iterator_base12@std@@QEBAPEBU_Container_base12@2@XZ DD imagerel $LN5
	DD	imagerel $LN5+76
	DD	imagerel $unwind$?_Getcont@_Iterator_base12@std@@QEBAPEBU_Container_base12@2@XZ
pdata	ENDS
;	COMDAT pdata
pdata	SEGMENT
$pdata$?_Orphan_me@_Iterator_base12@std@@QEAAXXZ DD imagerel $LN15
	DD	imagerel $LN15+270
	DD	imagerel $unwind$?_Orphan_me@_Iterator_base12@std@@QEAAXXZ
pdata	ENDS
;	COMDAT pdata
pdata	SEGMENT
$pdata$?_Release@_Basic_container_proxy_ptr12@std@@QEAAXXZ DD imagerel $LN3
	DD	imagerel $LN3+20
	DD	imagerel $unwind$?_Release@_Basic_container_proxy_ptr12@std@@QEAAXXZ
pdata	ENDS
;	COMDAT pdata
pdata	SEGMENT
$pdata$?_Decref@_Ref_count_base@std@@QEAAXXZ DD imagerel $LN4
	DD	imagerel $LN4+87
	DD	imagerel $unwind$?_Decref@_Ref_count_base@std@@QEAAXXZ
pdata	ENDS
;	COMDAT pdata
pdata	SEGMENT
$pdata$?_Decwref@_Ref_count_base@std@@QEAAXXZ DD imagerel $LN4
	DD	imagerel $LN4+78
	DD	imagerel $unwind$?_Decwref@_Ref_count_base@std@@QEAAXXZ
pdata	ENDS
;	COMDAT pdata
pdata	SEGMENT
$pdata$?length@?$_Narrow_char_traits@DH@std@@SA_KQEBD@Z DD imagerel $LN3
	DD	imagerel $LN3+47
	DD	imagerel $unwind$?length@?$_Narrow_char_traits@DH@std@@SA_KQEBD@Z
pdata	ENDS
;	COMDAT pdata
pdata	SEGMENT
$pdata$?copy@?$_Narrow_char_traits@DH@std@@SAPEADQEADQEBD_K@Z DD imagerel $LN3
	DD	imagerel $LN3+67
	DD	imagerel $unwind$?copy@?$_Narrow_char_traits@DH@std@@SAPEADQEADQEBD_K@Z
pdata	ENDS
;	COMDAT pdata
pdata	SEGMENT
$pdata$?move@?$_Narrow_char_traits@DH@std@@SAPEADQEADQEBD_K@Z DD imagerel $LN3
	DD	imagerel $LN3+67
	DD	imagerel $unwind$?move@?$_Narrow_char_traits@DH@std@@SAPEADQEADQEBD_K@Z
pdata	ENDS
;	COMDAT pdata
pdata	SEGMENT
$pdata$?assign@?$_Narrow_char_traits@DH@std@@SAPEADQEAD_KD@Z DD imagerel $LN3
	DD	imagerel $LN3+69
	DD	imagerel $unwind$?assign@?$_Narrow_char_traits@DH@std@@SAPEADQEAD_KD@Z
pdata	ENDS
;	COMDAT pdata
pdata	SEGMENT
$pdata$?assign@?$_Narrow_char_traits@DH@std@@SAXAEADAEBD@Z DD imagerel $LN3
	DD	imagerel $LN3+28
	DD	imagerel $unwind$?assign@?$_Narrow_char_traits@DH@std@@SAXAEADAEBD@Z
pdata	ENDS
;	COMDAT pdata
pdata	SEGMENT
$pdata$??0?$allocator@D@std@@QEAA@XZ DD imagerel $LN3
	DD	imagerel $LN3+13
	DD	imagerel $unwind$??0?$allocator@D@std@@QEAA@XZ
pdata	ENDS
;	COMDAT pdata
pdata	SEGMENT
$pdata$?deallocate@?$allocator@D@std@@QEAAXQEAD_K@Z DD imagerel $LN3
	DD	imagerel $LN3+61
	DD	imagerel $unwind$?deallocate@?$allocator@D@std@@QEAAXQEAD_K@Z
pdata	ENDS
;	COMDAT pdata
pdata	SEGMENT
$pdata$?allocate@?$allocator@D@std@@QEAAPEAD_K@Z DD imagerel $LN3
	DD	imagerel $LN3+59
	DD	imagerel $unwind$?allocate@?$allocator@D@std@@QEAAPEAD_K@Z
pdata	ENDS
;	COMDAT pdata
pdata	SEGMENT
$pdata$?max_size@?$_Default_allocator_traits@V?$allocator@D@std@@@std@@SA_KAEBV?$allocator@D@2@@Z DD imagerel $LN3
	DD	imagerel $LN3+15
	DD	imagerel $unwind$?max_size@?$_Default_allocator_traits@V?$allocator@D@std@@@std@@SA_KAEBV?$allocator@D@2@@Z
pdata	ENDS
;	COMDAT pdata
pdata	SEGMENT
$pdata$??0?$_String_val@U?$_Simple_types@D@std@@@std@@QEAA@XZ DD imagerel $LN4
	DD	imagerel $LN4+95
	DD	imagerel $unwind$??0?$_String_val@U?$_Simple_types@D@std@@@std@@QEAA@XZ
pdata	ENDS
;	COMDAT pdata
pdata	SEGMENT
$pdata$?dtor$0@?0???0?$_String_val@U?$_Simple_types@D@std@@@std@@QEAA@XZ@4HA DD imagerel ?dtor$0@?0???0?$_String_val@U?$_Simple_types@D@std@@@std@@QEAA@XZ@4HA
	DD	imagerel ?dtor$0@?0???0?$_String_val@U?$_Simple_types@D@std@@@std@@QEAA@XZ@4HA+39
	DD	imagerel $unwind$?dtor$0@?0???0?$_String_val@U?$_Simple_types@D@std@@@std@@QEAA@XZ@4HA
pdata	ENDS
;	COMDAT pdata
pdata	SEGMENT
$pdata$?_Myptr@?$_String_val@U?$_Simple_types@D@std@@@std@@QEAAPEADXZ DD imagerel $LN4
	DD	imagerel $LN4+91
	DD	imagerel $unwind$?_Myptr@?$_String_val@U?$_Simple_types@D@std@@@std@@QEAAPEADXZ
pdata	ENDS
;	COMDAT pdata
pdata	SEGMENT
$pdata$?_Myptr@?$_String_val@U?$_Simple_types@D@std@@@std@@QEBAPEBDXZ DD imagerel $LN4
	DD	imagerel $LN4+91
	DD	imagerel $unwind$?_Myptr@?$_String_val@U?$_Simple_types@D@std@@@std@@QEBAPEBDXZ
pdata	ENDS
;	COMDAT pdata
pdata	SEGMENT
$pdata$?_Large_string_engaged@?$_String_val@U?$_Simple_types@D@std@@@std@@QEBA_NXZ DD imagerel $LN5
	DD	imagerel $LN5+68
	DD	imagerel $unwind$?_Large_string_engaged@?$_String_val@U?$_Simple_types@D@std@@@std@@QEBA_NXZ
pdata	ENDS
;	COMDAT pdata
pdata	SEGMENT
$pdata$??0_Bxty@?$_String_val@U?$_Simple_types@D@std@@@std@@QEAA@XZ DD imagerel $LN3
	DD	imagerel $LN3+13
	DD	imagerel $unwind$??0_Bxty@?$_String_val@U?$_Simple_types@D@std@@@std@@QEAA@XZ
pdata	ENDS
;	COMDAT pdata
pdata	SEGMENT
$pdata$??1_Bxty@?$_String_val@U?$_Simple_types@D@std@@@std@@QEAA@XZ DD imagerel $LN3
	DD	imagerel $LN3+8
	DD	imagerel $unwind$??1_Bxty@?$_String_val@U?$_Simple_types@D@std@@@std@@QEAA@XZ
pdata	ENDS
;	COMDAT pdata
pdata	SEGMENT
$pdata$??1?$_String_val@U?$_Simple_types@D@std@@@std@@QEAA@XZ DD imagerel $LN4
	DD	imagerel $LN4+54
	DD	imagerel $unwind$??1?$_String_val@U?$_Simple_types@D@std@@@std@@QEAA@XZ
pdata	ENDS
;	COMDAT pdata
pdata	SEGMENT
$pdata$?dtor$0@?0???1?$_String_val@U?$_Simple_types@D@std@@@std@@QEAA@XZ@4HA DD imagerel ?dtor$0@?0???1?$_String_val@U?$_Simple_types@D@std@@@std@@QEAA@XZ@4HA
	DD	imagerel ?dtor$0@?0???1?$_String_val@U?$_Simple_types@D@std@@@std@@QEAA@XZ@4HA+39
	DD	imagerel $unwind$?dtor$0@?0???1?$_String_val@U?$_Simple_types@D@std@@@std@@QEAA@XZ@4HA
pdata	ENDS
;	COMDAT pdata
pdata	SEGMENT
$pdata$??0?$basic_string@DU?$char_traits@D@std@@V?$allocator@D@2@@std@@QEAA@XZ DD imagerel $LN4
	DD	imagerel $LN4+110
	DD	imagerel $unwind$??0?$basic_string@DU?$char_traits@D@std@@V?$allocator@D@2@@std@@QEAA@XZ
pdata	ENDS
;	COMDAT pdata
pdata	SEGMENT
$pdata$?dtor$0@?0???0?$basic_string@DU?$char_traits@D@std@@V?$allocator@D@2@@std@@QEAA@XZ@4HA DD imagerel ?dtor$0@?0???0?$basic_string@DU?$char_traits@D@std@@V?$allocator@D@2@@std@@QEAA@XZ@4HA
	DD	imagerel ?dtor$0@?0???0?$basic_string@DU?$char_traits@D@std@@V?$allocator@D@2@@std@@QEAA@XZ@4HA+35
	DD	imagerel $unwind$?dtor$0@?0???0?$basic_string@DU?$char_traits@D@std@@V?$allocator@D@2@@std@@QEAA@XZ@4HA
pdata	ENDS
;	COMDAT pdata
pdata	SEGMENT
$pdata$??0?$basic_string@DU?$char_traits@D@std@@V?$allocator@D@2@@std@@QEAA@QEBD@Z DD imagerel $LN5
	DD	imagerel $LN5+220
	DD	imagerel $unwind$??0?$basic_string@DU?$char_traits@D@std@@V?$allocator@D@2@@std@@QEAA@QEBD@Z
pdata	ENDS
;	COMDAT pdata
pdata	SEGMENT
$pdata$?dtor$0@?0???0?$basic_string@DU?$char_traits@D@std@@V?$allocator@D@2@@std@@QEAA@QEBD@Z@4HA DD imagerel ?dtor$0@?0???0?$basic_string@DU?$char_traits@D@std@@V?$allocator@D@2@@std@@QEAA@QEBD@Z@4HA
	DD	imagerel ?dtor$0@?0???0?$basic_string@DU?$char_traits@D@std@@V?$allocator@D@2@@std@@QEAA@QEBD@Z@4HA+38
	DD	imagerel $unwind$?dtor$0@?0???0?$basic_string@DU?$char_traits@D@std@@V?$allocator@D@2@@std@@QEAA@QEBD@Z@4HA
pdata	ENDS
;	COMDAT pdata
pdata	SEGMENT
$pdata$?dtor$1@?0???0?$basic_string@DU?$char_traits@D@std@@V?$allocator@D@2@@std@@QEAA@QEBD@Z@4HA DD imagerel ?dtor$1@?0???0?$basic_string@DU?$char_traits@D@std@@V?$allocator@D@2@@std@@QEAA@QEBD@Z@4HA
	DD	imagerel ?dtor$1@?0???0?$basic_string@DU?$char_traits@D@std@@V?$allocator@D@2@@std@@QEAA@QEBD@Z@4HA+35
	DD	imagerel $unwind$?dtor$1@?0???0?$basic_string@DU?$char_traits@D@std@@V?$allocator@D@2@@std@@QEAA@QEBD@Z@4HA
pdata	ENDS
;	COMDAT pdata
pdata	SEGMENT
$pdata$??0?$basic_string@DU?$char_traits@D@std@@V?$allocator@D@2@@std@@QEAA@$$QEAV01@@Z DD imagerel $LN4
	DD	imagerel $LN4+163
	DD	imagerel $unwind$??0?$basic_string@DU?$char_traits@D@std@@V?$allocator@D@2@@std@@QEAA@$$QEAV01@@Z
pdata	ENDS
;	COMDAT pdata
pdata	SEGMENT
$pdata$?dtor$0@?0???0?$basic_string@DU?$char_traits@D@std@@V?$allocator@D@2@@std@@QEAA@$$QEAV01@@Z@4HA DD imagerel ?dtor$0@?0???0?$basic_string@DU?$char_traits@D@std@@V?$allocator@D@2@@std@@QEAA@$$QEAV01@@Z@4HA
	DD	imagerel ?dtor$0@?0???0?$basic_string@DU?$char_traits@D@std@@V?$allocator@D@2@@std@@QEAA@$$QEAV01@@Z@4HA+35
	DD	imagerel $unwind$?dtor$0@?0???0?$basic_string@DU?$char_traits@D@std@@V?$allocator@D@2@@std@@QEAA@$$QEAV01@@Z@4HA
pdata	ENDS
;	COMDAT pdata
pdata	SEGMENT
$pdata$?_Memcpy_val_from@?$basic_string@DU?$char_traits@D@std@@V?$allocator@D@2@@std@@AEAAXAEBV12@@Z DD imagerel $LN3
	DD	imagerel $LN3+109
	DD	imagerel $unwind$?_Memcpy_val_from@?$basic_string@DU?$char_traits@D@std@@V?$allocator@D@2@@std@@AEAAXAEBV12@@Z
pdata	ENDS
;	COMDAT pdata
pdata	SEGMENT
$pdata$?_Take_contents@?$basic_string@DU?$char_traits@D@std@@V?$allocator@D@2@@std@@AEAAXAEAV12@U?$integral_constant@_N$00@2@@Z DD imagerel $LN5
	DD	imagerel $LN5+126
	DD	imagerel $unwind$?_Take_contents@?$basic_string@DU?$char_traits@D@std@@V?$allocator@D@2@@std@@AEAAXAEAV12@U?$integral_constant@_N$00@2@@Z
pdata	ENDS
;	COMDAT pdata
pdata	SEGMENT
$pdata$??1?$basic_string@DU?$char_traits@D@std@@V?$allocator@D@2@@std@@QEAA@XZ DD imagerel $LN4
	DD	imagerel $LN4+153
	DD	imagerel $unwind$??1?$basic_string@DU?$char_traits@D@std@@V?$allocator@D@2@@std@@QEAA@XZ
pdata	ENDS
;	COMDAT pdata
pdata	SEGMENT
$pdata$?dtor$0@?0???1?$basic_string@DU?$char_traits@D@std@@V?$allocator@D@2@@std@@QEAA@XZ@4HA DD imagerel ?dtor$0@?0???1?$basic_string@DU?$char_traits@D@std@@V?$allocator@D@2@@std@@QEAA@XZ@4HA
	DD	imagerel ?dtor$0@?0???1?$basic_string@DU?$char_traits@D@std@@V?$allocator@D@2@@std@@QEAA@XZ@4HA+35
	DD	imagerel $unwind$?dtor$0@?0???1?$basic_string@DU?$char_traits@D@std@@V?$allocator@D@2@@std@@QEAA@XZ@4HA
pdata	ENDS
;	COMDAT pdata
pdata	SEGMENT
$pdata$??4?$basic_string@DU?$char_traits@D@std@@V?$allocator@D@2@@std@@QEAAAEAV01@QEBD@Z DD imagerel $LN3
	DD	imagerel $LN3+56
	DD	imagerel $unwind$??4?$basic_string@DU?$char_traits@D@std@@V?$allocator@D@2@@std@@QEAAAEAV01@QEBD@Z
pdata	ENDS
;	COMDAT pdata
pdata	SEGMENT
$pdata$??Y?$basic_string@DU?$char_traits@D@std@@V?$allocator@D@2@@std@@QEAAAEAV01@AEBV01@@Z DD imagerel $LN3
	DD	imagerel $LN3+56
	DD	imagerel $unwind$??Y?$basic_string@DU?$char_traits@D@std@@V?$allocator@D@2@@std@@QEAAAEAV01@AEBV01@@Z
pdata	ENDS
;	COMDAT pdata
pdata	SEGMENT
$pdata$??Y?$basic_string@DU?$char_traits@D@std@@V?$allocator@D@2@@std@@QEAAAEAV01@QEBD@Z DD imagerel $LN3
	DD	imagerel $LN3+56
	DD	imagerel $unwind$??Y?$basic_string@DU?$char_traits@D@std@@V?$allocator@D@2@@std@@QEAAAEAV01@QEBD@Z
pdata	ENDS
;	COMDAT pdata
pdata	SEGMENT
$pdata$?append@?$basic_string@DU?$char_traits@D@std@@V?$allocator@D@2@@std@@QEAAAEAV12@AEBV12@@Z DD imagerel $LN3
	DD	imagerel $LN3+76
	DD	imagerel $unwind$?append@?$basic_string@DU?$char_traits@D@std@@V?$allocator@D@2@@std@@QEAAAEAV12@AEBV12@@Z
pdata	ENDS
;	COMDAT pdata
pdata	SEGMENT
$pdata$?append@?$basic_string@DU?$char_traits@D@std@@V?$allocator@D@2@@std@@QEAAAEAV12@QEBD_K@Z DD imagerel $LN4
	DD	imagerel $LN4+270
	DD	imagerel $unwind$?append@?$basic_string@DU?$char_traits@D@std@@V?$allocator@D@2@@std@@QEAAAEAV12@QEBD_K@Z
pdata	ENDS
;	COMDAT pdata
pdata	SEGMENT
$pdata$?append@?$basic_string@DU?$char_traits@D@std@@V?$allocator@D@2@@std@@QEAAAEAV12@QEBD@Z DD imagerel $LN3
	DD	imagerel $LN3+77
	DD	imagerel $unwind$?append@?$basic_string@DU?$char_traits@D@std@@V?$allocator@D@2@@std@@QEAAAEAV12@QEBD@Z
pdata	ENDS
;	COMDAT pdata
pdata	SEGMENT
$pdata$?append@?$basic_string@DU?$char_traits@D@std@@V?$allocator@D@2@@std@@QEAAAEAV12@_KD@Z DD imagerel $LN4
	DD	imagerel $LN4+270
	DD	imagerel $unwind$?append@?$basic_string@DU?$char_traits@D@std@@V?$allocator@D@2@@std@@QEAAAEAV12@_KD@Z
pdata	ENDS
;	COMDAT pdata
pdata	SEGMENT
$pdata$?assign@?$basic_string@DU?$char_traits@D@std@@V?$allocator@D@2@@std@@QEAAAEAV12@QEBD_K@Z DD imagerel $LN4
	DD	imagerel $LN4+198
	DD	imagerel $unwind$?assign@?$basic_string@DU?$char_traits@D@std@@V?$allocator@D@2@@std@@QEAAAEAV12@QEBD_K@Z
pdata	ENDS
;	COMDAT pdata
pdata	SEGMENT
$pdata$?assign@?$basic_string@DU?$char_traits@D@std@@V?$allocator@D@2@@std@@QEAAAEAV12@QEBD@Z DD imagerel $LN3
	DD	imagerel $LN3+77
	DD	imagerel $unwind$?assign@?$basic_string@DU?$char_traits@D@std@@V?$allocator@D@2@@std@@QEAAAEAV12@QEBD@Z
pdata	ENDS
;	COMDAT pdata
pdata	SEGMENT
$pdata$??A?$basic_string@DU?$char_traits@D@std@@V?$allocator@D@2@@std@@QEAAAEAD_K@Z DD imagerel $LN12
	DD	imagerel $LN12+197
	DD	imagerel $unwind$??A?$basic_string@DU?$char_traits@D@std@@V?$allocator@D@2@@std@@QEAAAEAD_K@Z
pdata	ENDS
;	COMDAT pdata
pdata	SEGMENT
$pdata$??A?$basic_string@DU?$char_traits@D@std@@V?$allocator@D@2@@std@@QEBAAEBD_K@Z DD imagerel $LN12
	DD	imagerel $LN12+197
	DD	imagerel $unwind$??A?$basic_string@DU?$char_traits@D@std@@V?$allocator@D@2@@std@@QEBAAEBD_K@Z
pdata	ENDS
;	COMDAT pdata
pdata	SEGMENT
$pdata$?c_str@?$basic_string@DU?$char_traits@D@std@@V?$allocator@D@2@@std@@QEBAPEBDXZ DD imagerel $LN3
	DD	imagerel $LN3+50
	DD	imagerel $unwind$?c_str@?$basic_string@DU?$char_traits@D@std@@V?$allocator@D@2@@std@@QEBAPEBDXZ
pdata	ENDS
;	COMDAT pdata
pdata	SEGMENT
$pdata$?size@?$basic_string@DU?$char_traits@D@std@@V?$allocator@D@2@@std@@QEBA_KXZ DD imagerel $LN3
	DD	imagerel $LN3+17
	DD	imagerel $unwind$?size@?$basic_string@DU?$char_traits@D@std@@V?$allocator@D@2@@std@@QEBA_KXZ
pdata	ENDS
;	COMDAT pdata
pdata	SEGMENT
$pdata$?max_size@?$basic_string@DU?$char_traits@D@std@@V?$allocator@D@2@@std@@QEBA_KXZ DD imagerel $LN3
	DD	imagerel $LN3+153
	DD	imagerel $unwind$?max_size@?$basic_string@DU?$char_traits@D@std@@V?$allocator@D@2@@std@@QEBA_KXZ
pdata	ENDS
;	COMDAT pdata
pdata	SEGMENT
$pdata$?resize@?$basic_string@DU?$char_traits@D@std@@V?$allocator@D@2@@std@@QEAAX_KD@Z DD imagerel $LN5
	DD	imagerel $LN5+125
	DD	imagerel $unwind$?resize@?$basic_string@DU?$char_traits@D@std@@V?$allocator@D@2@@std@@QEAAX_KD@Z
pdata	ENDS
;	COMDAT pdata
pdata	SEGMENT
$pdata$?reserve@?$basic_string@DU?$char_traits@D@std@@V?$allocator@D@2@@std@@QEAAX_K@Z DD imagerel $LN7
	DD	imagerel $LN7+219
	DD	imagerel $unwind$?reserve@?$basic_string@DU?$char_traits@D@std@@V?$allocator@D@2@@std@@QEAAX_K@Z
pdata	ENDS
;	COMDAT pdata
pdata	SEGMENT
$pdata$?_Calculate_growth@?$basic_string@DU?$char_traits@D@std@@V?$allocator@D@2@@std@@CA_K_K00@Z DD imagerel $LN5
	DD	imagerel $LN5+189
	DD	imagerel $unwind$?_Calculate_growth@?$basic_string@DU?$char_traits@D@std@@V?$allocator@D@2@@std@@CA_K_K00@Z
pdata	ENDS
;	COMDAT pdata
pdata	SEGMENT
$pdata$?_Calculate_growth@?$basic_string@DU?$char_traits@D@std@@V?$allocator@D@2@@std@@AEBA_K_K@Z DD imagerel $LN3
	DD	imagerel $LN3+73
	DD	imagerel $unwind$?_Calculate_growth@?$basic_string@DU?$char_traits@D@std@@V?$allocator@D@2@@std@@AEBA_K_K@Z
pdata	ENDS
;	COMDAT pdata
pdata	SEGMENT
$pdata$?_Become_small@?$basic_string@DU?$char_traits@D@std@@V?$allocator@D@2@@std@@AEAAXXZ DD imagerel $LN3
	DD	imagerel $LN3+190
	DD	imagerel $unwind$?_Become_small@?$basic_string@DU?$char_traits@D@std@@V?$allocator@D@2@@std@@AEAAXXZ
pdata	ENDS
;	COMDAT pdata
pdata	SEGMENT
$pdata$?_Eos@?$basic_string@DU?$char_traits@D@std@@V?$allocator@D@2@@std@@AEAAX_K@Z DD imagerel $LN3
	DD	imagerel $LN3+91
	DD	imagerel $unwind$?_Eos@?$basic_string@DU?$char_traits@D@std@@V?$allocator@D@2@@std@@AEAAX_K@Z
pdata	ENDS
;	COMDAT pdata
pdata	SEGMENT
$pdata$?_Tidy_init@?$basic_string@DU?$char_traits@D@std@@V?$allocator@D@2@@std@@AEAAXXZ DD imagerel $LN3
	DD	imagerel $LN3+99
	DD	imagerel $unwind$?_Tidy_init@?$basic_string@DU?$char_traits@D@std@@V?$allocator@D@2@@std@@AEAAXXZ
pdata	ENDS
;	COMDAT pdata
pdata	SEGMENT
$pdata$?_Tidy_deallocate@?$basic_string@DU?$char_traits@D@std@@V?$allocator@D@2@@std@@AEAAXXZ DD imagerel $LN4
	DD	imagerel $LN4+214
	DD	imagerel $unwind$?_Tidy_deallocate@?$basic_string@DU?$char_traits@D@std@@V?$allocator@D@2@@std@@AEAAXXZ
pdata	ENDS
;	COMDAT pdata
pdata	SEGMENT
$pdata$?_Xlen@?$basic_string@DU?$char_traits@D@std@@V?$allocator@D@2@@std@@CAXXZ DD imagerel $LN3
	DD	imagerel $LN3+39
	DD	imagerel $unwind$?_Xlen@?$basic_string@DU?$char_traits@D@std@@V?$allocator@D@2@@std@@CAXXZ
pdata	ENDS
;	COMDAT pdata
pdata	SEGMENT
$pdata$?_Swap_proxy_and_iterators@?$basic_string@DU?$char_traits@D@std@@V?$allocator@D@2@@std@@AEAAXAEAV12@@Z DD imagerel $LN3
	DD	imagerel $LN3+59
	DD	imagerel $unwind$?_Swap_proxy_and_iterators@?$basic_string@DU?$char_traits@D@std@@V?$allocator@D@2@@std@@AEAAXAEAV12@@Z
pdata	ENDS
;	COMDAT pdata
pdata	SEGMENT
$pdata$?_Getal@?$basic_string@DU?$char_traits@D@std@@V?$allocator@D@2@@std@@AEAAAEAV?$allocator@D@2@XZ DD imagerel $LN3
	DD	imagerel $LN3+49
	DD	imagerel $unwind$?_Getal@?$basic_string@DU?$char_traits@D@std@@V?$allocator@D@2@@std@@AEAAAEAV?$allocator@D@2@XZ
pdata	ENDS
;	COMDAT pdata
pdata	SEGMENT
$pdata$?_Getal@?$basic_string@DU?$char_traits@D@std@@V?$allocator@D@2@@std@@AEBAAEBV?$allocator@D@2@XZ DD imagerel $LN3
	DD	imagerel $LN3+49
	DD	imagerel $unwind$?_Getal@?$basic_string@DU?$char_traits@D@std@@V?$allocator@D@2@@std@@AEBAAEBV?$allocator@D@2@XZ
pdata	ENDS
;	COMDAT pdata
pdata	SEGMENT
$pdata$?_Get_first@?$_Compressed_pair@V?$allocator@D@std@@V?$_String_val@U?$_Simple_types@D@std@@@2@$00@std@@QEAAAEAV?$allocator@D@2@XZ DD imagerel $LN3
	DD	imagerel $LN3+13
	DD	imagerel $unwind$?_Get_first@?$_Compressed_pair@V?$allocator@D@std@@V?$_String_val@U?$_Simple_types@D@std@@@2@$00@std@@QEAAAEAV?$allocator@D@2@XZ
pdata	ENDS
;	COMDAT pdata
pdata	SEGMENT
$pdata$?_Get_first@?$_Compressed_pair@V?$allocator@D@std@@V?$_String_val@U?$_Simple_types@D@std@@@2@$00@std@@QEBAAEBV?$allocator@D@2@XZ DD imagerel $LN3
	DD	imagerel $LN3+13
	DD	imagerel $unwind$?_Get_first@?$_Compressed_pair@V?$allocator@D@std@@V?$_String_val@U?$_Simple_types@D@std@@@2@$00@std@@QEBAAEBV?$allocator@D@2@XZ
pdata	ENDS
;	COMDAT pdata
pdata	SEGMENT
$pdata$??1?$_Compressed_pair@V?$allocator@D@std@@V?$_String_val@U?$_Simple_types@D@std@@@2@$00@std@@QEAA@XZ DD imagerel $LN4
	DD	imagerel $LN4+50
	DD	imagerel $unwind$??1?$_Compressed_pair@V?$allocator@D@std@@V?$_String_val@U?$_Simple_types@D@std@@@2@$00@std@@QEAA@XZ
pdata	ENDS
;	COMDAT pdata
pdata	SEGMENT
$pdata$?dtor$0@?0???1?$_Compressed_pair@V?$allocator@D@std@@V?$_String_val@U?$_Simple_types@D@std@@@2@$00@std@@QEAA@XZ@4HA DD imagerel ?dtor$0@?0???1?$_Compressed_pair@V?$allocator@D@std@@V?$_String_val@U?$_Simple_types@D@std@@@2@$00@std@@QEAA@XZ@4HA
	DD	imagerel ?dtor$0@?0???1?$_Compressed_pair@V?$allocator@D@std@@V?$_String_val@U?$_Simple_types@D@std@@@2@$00@std@@QEAA@XZ@4HA+35
	DD	imagerel $unwind$?dtor$0@?0???1?$_Compressed_pair@V?$allocator@D@std@@V?$_String_val@U?$_Simple_types@D@std@@@2@$00@std@@QEAA@XZ@4HA
pdata	ENDS
;	COMDAT pdata
pdata	SEGMENT
$pdata$??_G?$basic_string@DU?$char_traits@D@std@@V?$allocator@D@2@@std@@QEAAPEAXI@Z DD imagerel $LN4
	DD	imagerel $LN4+81
	DD	imagerel $unwind$??_G?$basic_string@DU?$char_traits@D@std@@V?$allocator@D@2@@std@@QEAAPEAXI@Z
pdata	ENDS
;	COMDAT pdata
pdata	SEGMENT
$pdata$_tcscmp DD imagerel $LN3
	DD	imagerel $LN3+57
	DD	imagerel $unwind$_tcscmp
pdata	ENDS
pdata	SEGMENT
$pdata$??I@YA?AW4RGY_PICSTRUCT@@W40@0@Z DD imagerel ??I@YA?AW4RGY_PICSTRUCT@@W40@0@Z
	DD	imagerel ??I@YA?AW4RGY_PICSTRUCT@@W40@0@Z+23
	DD	imagerel $unwind$??I@YA?AW4RGY_PICSTRUCT@@W40@0@Z
pdata	ENDS
;	COMDAT pdata
pdata	SEGMENT
$pdata$??Raligned_malloc_deleter@@QEBAXPEAX@Z DD imagerel $LN3
	DD	imagerel $LN3+52
	DD	imagerel $unwind$??Raligned_malloc_deleter@@QEBAXPEAX@Z
pdata	ENDS
;	COMDAT pdata
pdata	SEGMENT
$pdata$??Rmalloc_deleter@@QEBAXPEAX@Z DD imagerel $LN3
	DD	imagerel $LN3+52
	DD	imagerel $unwind$??Rmalloc_deleter@@QEBAXPEAX@Z
pdata	ENDS
;	COMDAT pdata
pdata	SEGMENT
$pdata$??Rfp_deleter@@QEBAXPEAU_iobuf@@@Z DD imagerel $LN4
	DD	imagerel $LN4+71
	DD	imagerel $unwind$??Rfp_deleter@@QEBAXPEAU_iobuf@@@Z
pdata	ENDS
pdata	SEGMENT
$pdata$??U@YA?AW4RGY_FRAMETYPE@@W40@0@Z DD imagerel ??U@YA?AW4RGY_FRAMETYPE@@W40@0@Z
	DD	imagerel ??U@YA?AW4RGY_FRAMETYPE@@W40@0@Z+23
	DD	imagerel $unwind$??U@YA?AW4RGY_FRAMETYPE@@W40@0@Z
$pdata$??_5@YA?AW4RGY_FRAMETYPE@@AEAW40@W40@@Z DD imagerel ??_5@YA?AW4RGY_FRAMETYPE@@AEAW40@W40@@Z
	DD	imagerel ??_5@YA?AW4RGY_FRAMETYPE@@AEAW40@W40@@Z+70
	DD	imagerel $unwind$??_5@YA?AW4RGY_FRAMETYPE@@AEAW40@W40@@Z
$pdata$??I@YA?AW4RGY_FRAMETYPE@@W40@0@Z DD imagerel ??I@YA?AW4RGY_FRAMETYPE@@W40@0@Z
	DD	imagerel ??I@YA?AW4RGY_FRAMETYPE@@W40@0@Z+23
	DD	imagerel $unwind$??I@YA?AW4RGY_FRAMETYPE@@W40@0@Z
$pdata$?get_cx_value@@YAHPEBUCX_DESC@@PEBD@Z DD imagerel ?get_cx_value@@YAHPEBUCX_DESC@@PEBD@Z
	DD	imagerel ?get_cx_value@@YAHPEBUCX_DESC@@PEBD@Z+138
	DD	imagerel $unwind$?get_cx_value@@YAHPEBUCX_DESC@@PEBD@Z
pdata	ENDS
;	COMDAT pdata
pdata	SEGMENT
$pdata$??$make_array@W4CspMatrix@@W41@W41@W41@W41@W41@W41@W41@W41@W41@W41@W41@W41@W41@W41@@@YA?AV?$array@W4CspMatrix@@$0O@@std@@$$QEAW4CspMatrix@@0000000000000@Z DD imagerel $LN3
	DD	imagerel $LN3+297
	DD	imagerel $unwind$??$make_array@W4CspMatrix@@W41@W41@W41@W41@W41@W41@W41@W41@W41@W41@W41@W41@W41@W41@@@YA?AV?$array@W4CspMatrix@@$0O@@std@@$$QEAW4CspMatrix@@0000000000000@Z
pdata	ENDS
;	COMDAT pdata
pdata	SEGMENT
$pdata$??__ECspMatrixList@@YAXXZ DD imagerel ??__ECspMatrixList@@YAXXZ
	DD	imagerel ??__ECspMatrixList@@YAXXZ+452
	DD	imagerel $unwind$??__ECspMatrixList@@YAXXZ
pdata	ENDS
;	COMDAT pdata
pdata	SEGMENT
$pdata$??$make_array@W4CspTransfer@@W41@W41@W41@W41@W41@W41@W41@W41@W41@W41@W41@W41@W41@W41@W41@@@YA?AV?$array@W4CspTransfer@@$0P@@std@@$$QEAW4CspTransfer@@00000000000000@Z DD imagerel $LN3
	DD	imagerel $LN3+311
	DD	imagerel $unwind$??$make_array@W4CspTransfer@@W41@W41@W41@W41@W41@W41@W41@W41@W41@W41@W41@W41@W41@W41@W41@@@YA?AV?$array@W4CspTransfer@@$0P@@std@@$$QEAW4CspTransfer@@00000000000000@Z
pdata	ENDS
;	COMDAT pdata
pdata	SEGMENT
$pdata$??__ECspTransferList@@YAXXZ DD imagerel ??__ECspTransferList@@YAXXZ
	DD	imagerel ??__ECspTransferList@@YAXXZ+476
	DD	imagerel $unwind$??__ECspTransferList@@YAXXZ
pdata	ENDS
;	COMDAT pdata
pdata	SEGMENT
$pdata$??$make_array@W4CspColorprim@@W41@W41@W41@W41@W41@W41@W41@W41@W41@W41@W41@W41@@@YA?AV?$array@W4CspColorprim@@$0M@@std@@$$QEAW4CspColorprim@@00000000000@Z DD imagerel $LN3
	DD	imagerel $LN3+263
	DD	imagerel $unwind$??$make_array@W4CspColorprim@@W41@W41@W41@W41@W41@W41@W41@W41@W41@W41@W41@W41@@@YA?AV?$array@W4CspColorprim@@$0M@@std@@$$QEAW4CspColorprim@@00000000000@Z
pdata	ENDS
;	COMDAT pdata
pdata	SEGMENT
$pdata$??__ECspColorprimList@@YAXXZ DD imagerel ??__ECspColorprimList@@YAXXZ
	DD	imagerel ??__ECspColorprimList@@YAXXZ+398
	DD	imagerel $unwind$??__ECspColorprimList@@YAXXZ
pdata	ENDS
;	COMDAT pdata
pdata	SEGMENT
$pdata$??0VideoVUIInfo@@QEAA@XZ DD imagerel $LN3
	DD	imagerel $LN3+184
	DD	imagerel $unwind$??0VideoVUIInfo@@QEAA@XZ
pdata	ENDS
;	COMDAT pdata
pdata	SEGMENT
$pdata$??$?HDU?$char_traits@D@std@@V?$allocator@D@1@@std@@YA?AV?$basic_string@DU?$char_traits@D@std@@V?$allocator@D@2@@0@AEBV10@QEBD@Z DD imagerel $LN6
	DD	imagerel $LN6+270
	DD	imagerel $unwind$??$?HDU?$char_traits@D@std@@V?$allocator@D@1@@std@@YA?AV?$basic_string@DU?$char_traits@D@std@@V?$allocator@D@2@@0@AEBV10@QEBD@Z
pdata	ENDS
;	COMDAT pdata
pdata	SEGMENT
$pdata$?dtor$0@?0???$?HDU?$char_traits@D@std@@V?$allocator@D@1@@std@@YA?AV?$basic_string@DU?$char_traits@D@std@@V?$allocator@D@2@@0@AEBV10@QEBD@Z@4HA DD imagerel ?dtor$0@?0???$?HDU?$char_traits@D@std@@V?$allocator@D@1@@std@@YA?AV?$basic_string@DU?$char_traits@D@std@@V?$allocator@D@2@@0@AEBV10@QEBD@Z@4HA
	DD	imagerel ?dtor$0@?0???$?HDU?$char_traits@D@std@@V?$allocator@D@1@@std@@YA?AV?$basic_string@DU?$char_traits@D@std@@V?$allocator@D@2@@0@AEBV10@QEBD@Z@4HA+35
	DD	imagerel $unwind$?dtor$0@?0???$?HDU?$char_traits@D@std@@V?$allocator@D@1@@std@@YA?AV?$basic_string@DU?$char_traits@D@std@@V?$allocator@D@2@@0@AEBV10@QEBD@Z@4HA
pdata	ENDS
;	COMDAT pdata
pdata	SEGMENT
$pdata$?dtor$1@?0???$?HDU?$char_traits@D@std@@V?$allocator@D@1@@std@@YA?AV?$basic_string@DU?$char_traits@D@std@@V?$allocator@D@2@@0@AEBV10@QEBD@Z@4HA DD imagerel ?dtor$1@?0???$?HDU?$char_traits@D@std@@V?$allocator@D@1@@std@@YA?AV?$basic_string@DU?$char_traits@D@std@@V?$allocator@D@2@@0@AEBV10@QEBD@Z@4HA
	DD	imagerel ?dtor$1@?0???$?HDU?$char_traits@D@std@@V?$allocator@D@1@@std@@YA?AV?$basic_string@DU?$char_traits@D@std@@V?$allocator@D@2@@0@AEBV10@QEBD@Z@4HA+52
	DD	imagerel $unwind$?dtor$1@?0???$?HDU?$char_traits@D@std@@V?$allocator@D@1@@std@@YA?AV?$basic_string@DU?$char_traits@D@std@@V?$allocator@D@2@@0@AEBV10@QEBD@Z@4HA
pdata	ENDS
;	COMDAT pdata
pdata	SEGMENT
$pdata$??$?HDU?$char_traits@D@std@@V?$allocator@D@1@@std@@YA?AV?$basic_string@DU?$char_traits@D@std@@V?$allocator@D@2@@0@$$QEAV10@QEBD@Z DD imagerel $LN5
	DD	imagerel $LN5+108
	DD	imagerel $unwind$??$?HDU?$char_traits@D@std@@V?$allocator@D@1@@std@@YA?AV?$basic_string@DU?$char_traits@D@std@@V?$allocator@D@2@@0@$$QEAV10@QEBD@Z
pdata	ENDS
;	COMDAT pdata
pdata	SEGMENT
$pdata$?dtor$0@?0???$?HDU?$char_traits@D@std@@V?$allocator@D@1@@std@@YA?AV?$basic_string@DU?$char_traits@D@std@@V?$allocator@D@2@@0@$$QEAV10@QEBD@Z@4HA DD imagerel ?dtor$0@?0???$?HDU?$char_traits@D@std@@V?$allocator@D@1@@std@@YA?AV?$basic_string@DU?$char_traits@D@std@@V?$allocator@D@2@@0@$$QEAV10@QEBD@Z@4HA
	DD	imagerel ?dtor$0@?0???$?HDU?$char_traits@D@std@@V?$allocator@D@1@@std@@YA?AV?$basic_string@DU?$char_traits@D@std@@V?$allocator@D@2@@0@$$QEAV10@QEBD@Z@4HA+49
	DD	imagerel $unwind$?dtor$0@?0???$?HDU?$char_traits@D@std@@V?$allocator@D@1@@std@@YA?AV?$basic_string@DU?$char_traits@D@std@@V?$allocator@D@2@@0@$$QEAV10@QEBD@Z@4HA
pdata	ENDS
;	COMDAT pdata
pdata	SEGMENT
$pdata$??$?HDU?$char_traits@D@std@@V?$allocator@D@1@@std@@YA?AV?$basic_string@DU?$char_traits@D@std@@V?$allocator@D@2@@0@$$QEAV10@AEBV10@@Z DD imagerel $LN5
	DD	imagerel $LN5+108
	DD	imagerel $unwind$??$?HDU?$char_traits@D@std@@V?$allocator@D@1@@std@@YA?AV?$basic_string@DU?$char_traits@D@std@@V?$allocator@D@2@@0@$$QEAV10@AEBV10@@Z
pdata	ENDS
;	COMDAT pdata
pdata	SEGMENT
$pdata$?dtor$0@?0???$?HDU?$char_traits@D@std@@V?$allocator@D@1@@std@@YA?AV?$basic_string@DU?$char_traits@D@std@@V?$allocator@D@2@@0@$$QEAV10@AEBV10@@Z@4HA DD imagerel ?dtor$0@?0???$?HDU?$char_traits@D@std@@V?$allocator@D@1@@std@@YA?AV?$basic_string@DU?$char_traits@D@std@@V?$allocator@D@2@@0@$$QEAV10@AEBV10@@Z@4HA
	DD	imagerel ?dtor$0@?0???$?HDU?$char_traits@D@std@@V?$allocator@D@1@@std@@YA?AV?$basic_string@DU?$char_traits@D@std@@V?$allocator@D@2@@0@$$QEAV10@AEBV10@@Z@4HA+49
	DD	imagerel $unwind$?dtor$0@?0???$?HDU?$char_traits@D@std@@V?$allocator@D@1@@std@@YA?AV?$basic_string@DU?$char_traits@D@std@@V?$allocator@D@2@@0@$$QEAV10@AEBV10@@Z@4HA
pdata	ENDS
;	COMDAT pdata
pdata	SEGMENT
$pdata$??0VideoInfo@@QEAA@XZ DD imagerel $LN3
	DD	imagerel $LN3+58
	DD	imagerel $unwind$??0VideoInfo@@QEAA@XZ
pdata	ENDS
;	COMDAT pdata
pdata	SEGMENT
$pdata$??$min@_K@std@@YAAEB_KAEB_K0@Z DD imagerel $LN13
	DD	imagerel $LN13+214
	DD	imagerel $unwind$??$min@_K@std@@YAAEB_KAEB_K0@Z
pdata	ENDS
;	COMDAT pdata
pdata	SEGMENT
$pdata$?getLogLevel@RGYLog@@QEAAHXZ DD imagerel $LN3
	DD	imagerel $LN3+16
	DD	imagerel $unwind$?getLogLevel@RGYLog@@QEAAHXZ
pdata	ENDS
;	COMDAT pdata
pdata	SEGMENT
$pdata$?get@?$_Ptr_base@VEncodeStatus@@@std@@IEBAPEAVEncodeStatus@@XZ DD imagerel $LN3
	DD	imagerel $LN3+16
	DD	imagerel $unwind$?get@?$_Ptr_base@VEncodeStatus@@@std@@IEBAPEAVEncodeStatus@@XZ
pdata	ENDS
;	COMDAT pdata
pdata	SEGMENT
$pdata$??0?$_Ptr_base@VEncodeStatus@@@std@@IEAA@XZ DD imagerel $LN3
	DD	imagerel $LN3+38
	DD	imagerel $unwind$??0?$_Ptr_base@VEncodeStatus@@@std@@IEAA@XZ
pdata	ENDS
;	COMDAT pdata
pdata	SEGMENT
$pdata$?_Decref@?$_Ptr_base@VEncodeStatus@@@std@@IEAAXXZ DD imagerel $LN4
	DD	imagerel $LN4+62
	DD	imagerel $unwind$?_Decref@?$_Ptr_base@VEncodeStatus@@@std@@IEAAXXZ
pdata	ENDS
;	COMDAT pdata
pdata	SEGMENT
$pdata$?_Swap@?$_Ptr_base@VEncodeStatus@@@std@@IEAAXAEAV12@@Z DD imagerel $LN3
	DD	imagerel $LN3+85
	DD	imagerel $unwind$?_Swap@?$_Ptr_base@VEncodeStatus@@@std@@IEAAXAEAV12@@Z
pdata	ENDS
;	COMDAT pdata
pdata	SEGMENT
$pdata$??0?$shared_ptr@VEncodeStatus@@@std@@QEAA@XZ DD imagerel $LN3
	DD	imagerel $LN3+51
	DD	imagerel $unwind$??0?$shared_ptr@VEncodeStatus@@@std@@QEAA@XZ
pdata	ENDS
;	COMDAT pdata
pdata	SEGMENT
$pdata$??1?$shared_ptr@VEncodeStatus@@@std@@QEAA@XZ DD imagerel $LN3
	DD	imagerel $LN3+46
	DD	imagerel $unwind$??1?$shared_ptr@VEncodeStatus@@@std@@QEAA@XZ
pdata	ENDS
;	COMDAT pdata
pdata	SEGMENT
$pdata$?swap@?$shared_ptr@VEncodeStatus@@@std@@QEAAXAEAV12@@Z DD imagerel $LN3
	DD	imagerel $LN3+56
	DD	imagerel $unwind$?swap@?$shared_ptr@VEncodeStatus@@@std@@QEAAXAEAV12@@Z
pdata	ENDS
;	COMDAT pdata
pdata	SEGMENT
$pdata$?reset@?$shared_ptr@VEncodeStatus@@@std@@QEAAXXZ DD imagerel $LN4
	DD	imagerel $LN4+89
	DD	imagerel $unwind$?reset@?$shared_ptr@VEncodeStatus@@@std@@QEAAXXZ
pdata	ENDS
;	COMDAT pdata
pdata	SEGMENT
$pdata$?dtor$0@?0??reset@?$shared_ptr@VEncodeStatus@@@std@@QEAAXXZ@4HA DD imagerel ?dtor$0@?0??reset@?$shared_ptr@VEncodeStatus@@@std@@QEAAXXZ@4HA
	DD	imagerel ?dtor$0@?0??reset@?$shared_ptr@VEncodeStatus@@@std@@QEAAXXZ@4HA+35
	DD	imagerel $unwind$?dtor$0@?0??reset@?$shared_ptr@VEncodeStatus@@@std@@QEAAXXZ@4HA
pdata	ENDS
;	COMDAT pdata
pdata	SEGMENT
$pdata$??1?$unique_ptr@U_iobuf@@Ufp_deleter@@@std@@QEAA@XZ DD imagerel $LN4
	DD	imagerel $LN4+78
	DD	imagerel $unwind$??1?$unique_ptr@U_iobuf@@Ufp_deleter@@@std@@QEAA@XZ
pdata	ENDS
;	COMDAT pdata
pdata	SEGMENT
$pdata$?get@?$unique_ptr@U_iobuf@@Ufp_deleter@@@std@@QEBAPEAU_iobuf@@XZ DD imagerel $LN3
	DD	imagerel $LN3+16
	DD	imagerel $unwind$?get@?$unique_ptr@U_iobuf@@Ufp_deleter@@@std@@QEBAPEAU_iobuf@@XZ
pdata	ENDS
;	COMDAT pdata
pdata	SEGMENT
$pdata$??B?$unique_ptr@U_iobuf@@Ufp_deleter@@@std@@QEBA_NXZ DD imagerel $LN5
	DD	imagerel $LN5+61
	DD	imagerel $unwind$??B?$unique_ptr@U_iobuf@@Ufp_deleter@@@std@@QEBA_NXZ
pdata	ENDS
;	COMDAT pdata
pdata	SEGMENT
$pdata$?reset@?$unique_ptr@U_iobuf@@Ufp_deleter@@@std@@QEAAXPEAU_iobuf@@@Z DD imagerel $LN4
	DD	imagerel $LN4+101
	DD	imagerel $unwind$?reset@?$unique_ptr@U_iobuf@@Ufp_deleter@@@std@@QEAAXPEAU_iobuf@@@Z
pdata	ENDS
;	COMDAT pdata
pdata	SEGMENT
$pdata$?_Get_first@?$_Compressed_pair@Ufp_deleter@@PEAU_iobuf@@$00@std@@QEAAAEAUfp_deleter@@XZ DD imagerel $LN3
	DD	imagerel $LN3+13
	DD	imagerel $unwind$?_Get_first@?$_Compressed_pair@Ufp_deleter@@PEAU_iobuf@@$00@std@@QEAAAEAUfp_deleter@@XZ
pdata	ENDS
;	COMDAT pdata
pdata	SEGMENT
$pdata$?get@?$_Ptr_base@VRGYLog@@@std@@IEBAPEAVRGYLog@@XZ DD imagerel $LN3
	DD	imagerel $LN3+16
	DD	imagerel $unwind$?get@?$_Ptr_base@VRGYLog@@@std@@IEBAPEAVRGYLog@@XZ
pdata	ENDS
;	COMDAT pdata
pdata	SEGMENT
$pdata$??0?$_Ptr_base@VRGYLog@@@std@@IEAA@XZ DD imagerel $LN3
	DD	imagerel $LN3+38
	DD	imagerel $unwind$??0?$_Ptr_base@VRGYLog@@@std@@IEAA@XZ
pdata	ENDS
;	COMDAT pdata
pdata	SEGMENT
$pdata$?_Decref@?$_Ptr_base@VRGYLog@@@std@@IEAAXXZ DD imagerel $LN4
	DD	imagerel $LN4+62
	DD	imagerel $unwind$?_Decref@?$_Ptr_base@VRGYLog@@@std@@IEAAXXZ
pdata	ENDS
;	COMDAT pdata
pdata	SEGMENT
$pdata$?_Swap@?$_Ptr_base@VRGYLog@@@std@@IEAAXAEAV12@@Z DD imagerel $LN3
	DD	imagerel $LN3+85
	DD	imagerel $unwind$?_Swap@?$_Ptr_base@VRGYLog@@@std@@IEAAXAEAV12@@Z
pdata	ENDS
;	COMDAT pdata
pdata	SEGMENT
$pdata$??0?$shared_ptr@VRGYLog@@@std@@QEAA@XZ DD imagerel $LN3
	DD	imagerel $LN3+51
	DD	imagerel $unwind$??0?$shared_ptr@VRGYLog@@@std@@QEAA@XZ
pdata	ENDS
;	COMDAT pdata
pdata	SEGMENT
$pdata$??1?$shared_ptr@VRGYLog@@@std@@QEAA@XZ DD imagerel $LN3
	DD	imagerel $LN3+46
	DD	imagerel $unwind$??1?$shared_ptr@VRGYLog@@@std@@QEAA@XZ
pdata	ENDS
;	COMDAT pdata
pdata	SEGMENT
$pdata$?swap@?$shared_ptr@VRGYLog@@@std@@QEAAXAEAV12@@Z DD imagerel $LN3
	DD	imagerel $LN3+56
	DD	imagerel $unwind$?swap@?$shared_ptr@VRGYLog@@@std@@QEAAXAEAV12@@Z
pdata	ENDS
;	COMDAT pdata
pdata	SEGMENT
$pdata$?reset@?$shared_ptr@VRGYLog@@@std@@QEAAXXZ DD imagerel $LN4
	DD	imagerel $LN4+89
	DD	imagerel $unwind$?reset@?$shared_ptr@VRGYLog@@@std@@QEAAXXZ
pdata	ENDS
;	COMDAT pdata
pdata	SEGMENT
$pdata$?dtor$0@?0??reset@?$shared_ptr@VRGYLog@@@std@@QEAAXXZ@4HA DD imagerel ?dtor$0@?0??reset@?$shared_ptr@VRGYLog@@@std@@QEAAXXZ@4HA
	DD	imagerel ?dtor$0@?0??reset@?$shared_ptr@VRGYLog@@@std@@QEAAXXZ@4HA+35
	DD	imagerel $unwind$?dtor$0@?0??reset@?$shared_ptr@VRGYLog@@@std@@QEAAXXZ@4HA
pdata	ENDS
;	COMDAT pdata
pdata	SEGMENT
$pdata$?SetOutputData@EncodeStatus@@QEAAXW4RGY_FRAMETYPE@@_KI@Z DD imagerel $LN3
	DD	imagerel $LN3+608
	DD	imagerel $unwind$?SetOutputData@EncodeStatus@@QEAAXW4RGY_FRAMETYPE@@_KI@Z
pdata	ENDS
;	COMDAT pdata
pdata	SEGMENT
$pdata$??$?CVRGYLog@@$0A@@?$shared_ptr@VRGYLog@@@std@@QEBAPEAVRGYLog@@XZ DD imagerel $LN3
	DD	imagerel $LN3+46
	DD	imagerel $unwind$??$?CVRGYLog@@$0A@@?$shared_ptr@VRGYLog@@@std@@QEBAPEAVRGYLog@@XZ
pdata	ENDS
pdata	SEGMENT
$pdata$?getAVCodecId@@YA?BW4AVCodecID@@W4RGY_CODEC@@@Z DD imagerel ?getAVCodecId@@YA?BW4AVCodecID@@W4RGY_CODEC@@@Z
	DD	imagerel ?getAVCodecId@@YA?BW4AVCodecID@@W4RGY_CODEC@@@Z+102
	DD	imagerel $unwind$?getAVCodecId@@YA?BW4AVCodecID@@W4RGY_CODEC@@@Z
pdata	ENDS
;	COMDAT pdata
pdata	SEGMENT
$pdata$?deallocate@?$allocator@V?$basic_string@DU?$char_traits@D@std@@V?$allocator@D@2@@std@@@std@@QEAAXQEAV?$basic_string@DU?$char_traits@D@std@@V?$allocator@D@2@@2@_K@Z DD imagerel $LN3
	DD	imagerel $LN3+65
	DD	imagerel $unwind$?deallocate@?$allocator@V?$basic_string@DU?$char_traits@D@std@@V?$allocator@D@2@@std@@@std@@QEAAXQEAV?$basic_string@DU?$char_traits@D@std@@V?$allocator@D@2@@2@_K@Z
pdata	ENDS
;	COMDAT pdata
pdata	SEGMENT
$pdata$??1?$vector@V?$basic_string@DU?$char_traits@D@std@@V?$allocator@D@2@@std@@V?$allocator@V?$basic_string@DU?$char_traits@D@std@@V?$allocator@D@2@@std@@@2@@std@@QEAA@XZ DD imagerel $LN3
	DD	imagerel $LN3+140
	DD	imagerel $unwind$??1?$vector@V?$basic_string@DU?$char_traits@D@std@@V?$allocator@D@2@@std@@V?$allocator@V?$basic_string@DU?$char_traits@D@std@@V?$allocator@D@2@@std@@@2@@std@@QEAA@XZ
pdata	ENDS
;	COMDAT pdata
pdata	SEGMENT
$pdata$?_Unchecked_begin@?$vector@V?$basic_string@DU?$char_traits@D@std@@V?$allocator@D@2@@std@@V?$allocator@V?$basic_string@DU?$char_traits@D@std@@V?$allocator@D@2@@std@@@2@@std@@QEAAPEAV?$basic_string@DU?$char_traits@D@std@@V?$allocator@D@2@@2@XZ DD imagerel $LN3
	DD	imagerel $LN3+17
	DD	imagerel $unwind$?_Unchecked_begin@?$vector@V?$basic_string@DU?$char_traits@D@std@@V?$allocator@D@2@@std@@V?$allocator@V?$basic_string@DU?$char_traits@D@std@@V?$allocator@D@2@@std@@@2@@std@@QEAAPEAV?$basic_string@DU?$char_traits@D@std@@V?$allocator@D@2@@2@XZ
pdata	ENDS
;	COMDAT pdata
pdata	SEGMENT
$pdata$?_Unchecked_end@?$vector@V?$basic_string@DU?$char_traits@D@std@@V?$allocator@D@2@@std@@V?$allocator@V?$basic_string@DU?$char_traits@D@std@@V?$allocator@D@2@@std@@@2@@std@@QEAAPEAV?$basic_string@DU?$char_traits@D@std@@V?$allocator@D@2@@2@XZ DD imagerel $LN3
	DD	imagerel $LN3+17
	DD	imagerel $unwind$?_Unchecked_end@?$vector@V?$basic_string@DU?$char_traits@D@std@@V?$allocator@D@2@@std@@V?$allocator@V?$basic_string@DU?$char_traits@D@std@@V?$allocator@D@2@@std@@@2@@std@@QEAAPEAV?$basic_string@DU?$char_traits@D@std@@V?$allocator@D@2@@2@XZ
pdata	ENDS
;	COMDAT pdata
pdata	SEGMENT
$pdata$?_Destroy@?$vector@V?$basic_string@DU?$char_traits@D@std@@V?$allocator@D@2@@std@@V?$allocator@V?$basic_string@DU?$char_traits@D@std@@V?$allocator@D@2@@std@@@2@@std@@AEAAXPEAV?$basic_string@DU?$char_traits@D@std@@V?$allocator@D@2@@2@0@Z DD imagerel $LN3
	DD	imagerel $LN3+74
	DD	imagerel $unwind$?_Destroy@?$vector@V?$basic_string@DU?$char_traits@D@std@@V?$allocator@D@2@@std@@V?$allocator@V?$basic_string@DU?$char_traits@D@std@@V?$allocator@D@2@@std@@@2@@std@@AEAAXPEAV?$basic_string@DU?$char_traits@D@std@@V?$allocator@D@2@@2@0@Z
pdata	ENDS
;	COMDAT pdata
pdata	SEGMENT
$pdata$?_Tidy@?$vector@V?$basic_string@DU?$char_traits@D@std@@V?$allocator@D@2@@std@@V?$allocator@V?$basic_string@DU?$char_traits@D@std@@V?$allocator@D@2@@std@@@2@@std@@AEAAXXZ DD imagerel $LN4
	DD	imagerel $LN4+247
	DD	imagerel $unwind$?_Tidy@?$vector@V?$basic_string@DU?$char_traits@D@std@@V?$allocator@D@2@@std@@V?$allocator@V?$basic_string@DU?$char_traits@D@std@@V?$allocator@D@2@@std@@@2@@std@@AEAAXXZ
pdata	ENDS
;	COMDAT pdata
pdata	SEGMENT
$pdata$?_Getal@?$vector@V?$basic_string@DU?$char_traits@D@std@@V?$allocator@D@2@@std@@V?$allocator@V?$basic_string@DU?$char_traits@D@std@@V?$allocator@D@2@@std@@@2@@std@@AEAAAEAV?$allocator@V?$basic_string@DU?$char_traits@D@std@@V?$allocator@D@2@@std@@@2@XZ DD imagerel $LN3
	DD	imagerel $LN3+49
	DD	imagerel $unwind$?_Getal@?$vector@V?$basic_string@DU?$char_traits@D@std@@V?$allocator@D@2@@std@@V?$allocator@V?$basic_string@DU?$char_traits@D@std@@V?$allocator@D@2@@std@@@2@@std@@AEAAAEAV?$allocator@V?$basic_string@DU?$char_traits@D@std@@V?$allocator@D@2@@std@@@2@XZ
pdata	ENDS
;	COMDAT pdata
pdata	SEGMENT
$pdata$?_Get_first@?$_Compressed_pair@V?$allocator@V?$basic_string@DU?$char_traits@D@std@@V?$allocator@D@2@@std@@@std@@V?$_Vector_val@U?$_Simple_types@V?$basic_string@DU?$char_traits@D@std@@V?$allocator@D@2@@std@@@std@@@2@$00@std@@QEAAAEAV?$allocator@V?$basic_string@DU?$char_traits@D@std@@V?$allocator@D@2@@std@@@2@XZ DD imagerel $LN3
	DD	imagerel $LN3+13
	DD	imagerel $unwind$?_Get_first@?$_Compressed_pair@V?$allocator@V?$basic_string@DU?$char_traits@D@std@@V?$allocator@D@2@@std@@@std@@V?$_Vector_val@U?$_Simple_types@V?$basic_string@DU?$char_traits@D@std@@V?$allocator@D@2@@std@@@std@@@2@$00@std@@QEAAAEAV?$allocator@V?$basic_string@DU?$char_traits@D@std@@V?$allocator@D@2@@std@@@2@XZ
pdata	ENDS
pdata	SEGMENT
$pdata$??U@YA?AW4MemType@@W40@0@Z DD imagerel ??U@YA?AW4MemType@@W40@0@Z
	DD	imagerel ??U@YA?AW4MemType@@W40@0@Z+23
	DD	imagerel $unwind$??U@YA?AW4MemType@@W40@0@Z
$pdata$??I@YA?AW4MemType@@W40@0@Z DD imagerel ??I@YA?AW4MemType@@W40@0@Z
	DD	imagerel ??I@YA?AW4MemType@@W40@0@Z+23
	DD	imagerel $unwind$??I@YA?AW4MemType@@W40@0@Z
$pdata$?frametype_enc_to_rgy@@YA?AW4RGY_FRAMETYPE@@I@Z DD imagerel ?frametype_enc_to_rgy@@YA?AW4RGY_FRAMETYPE@@I@Z
	DD	imagerel ?frametype_enc_to_rgy@@YA?AW4RGY_FRAMETYPE@@I@Z+419
	DD	imagerel $unwind$?frametype_enc_to_rgy@@YA?AW4RGY_FRAMETYPE@@I@Z
pdata	ENDS
;	COMDAT pdata
pdata	SEGMENT
$pdata$?data@RGYBitstream@@QEBAPEAEXZ DD imagerel $LN3
	DD	imagerel $LN3+25
	DD	imagerel $unwind$?data@RGYBitstream@@QEBAPEAEXZ
pdata	ENDS
;	COMDAT pdata
pdata	SEGMENT
$pdata$?frametype@RGYBitstream@@QEBA?AW4RGY_FRAMETYPE@@XZ DD imagerel $LN3
	DD	imagerel $LN3+52
	DD	imagerel $unwind$?frametype@RGYBitstream@@QEBA?AW4RGY_FRAMETYPE@@XZ
pdata	ENDS
;	COMDAT pdata
pdata	SEGMENT
$pdata$?size@RGYBitstream@@QEBA_KXZ DD imagerel $LN3
	DD	imagerel $LN3+16
	DD	imagerel $unwind$?size@RGYBitstream@@QEBA_KXZ
pdata	ENDS
;	COMDAT pdata
pdata	SEGMENT
$pdata$?setSize@RGYBitstream@@QEAAX_K@Z DD imagerel $LN3
	DD	imagerel $LN3+25
	DD	imagerel $unwind$?setSize@RGYBitstream@@QEAAX_K@Z
pdata	ENDS
;	COMDAT pdata
pdata	SEGMENT
$pdata$?bufsize@RGYBitstream@@QEBA_KXZ DD imagerel $LN3
	DD	imagerel $LN3+16
	DD	imagerel $unwind$?bufsize@RGYBitstream@@QEBA_KXZ
pdata	ENDS
;	COMDAT pdata
pdata	SEGMENT
$pdata$?clear@RGYBitstream@@QEAAXXZ DD imagerel $LN4
	DD	imagerel $LN4+84
	DD	imagerel $unwind$?clear@RGYBitstream@@QEAAXXZ
pdata	ENDS
;	COMDAT pdata
pdata	SEGMENT
$pdata$?trim@RGYBitstream@@QEAAXXZ DD imagerel $LN4
	DD	imagerel $LN4+115
	DD	imagerel $unwind$?trim@RGYBitstream@@QEAAXXZ
pdata	ENDS
;	COMDAT pdata
pdata	SEGMENT
$pdata$?changeSize@RGYBitstream@@QEAA?AW4RGY_ERR@@_K@Z DD imagerel $LN5
	DD	imagerel $LN5+235
	DD	imagerel $unwind$?changeSize@RGYBitstream@@QEAA?AW4RGY_ERR@@_K@Z
pdata	ENDS
;	COMDAT pdata
pdata	SEGMENT
$pdata$?ptrY@RGYFrame@@QEAAPEAEXZ DD imagerel $LN3
	DD	imagerel $LN3+20
	DD	imagerel $unwind$?ptrY@RGYFrame@@QEAAPEAEXZ
pdata	ENDS
;	COMDAT pdata
pdata	SEGMENT
$pdata$?ptrUV@RGYFrame@@QEAAPEAEXZ DD imagerel $LN3
	DD	imagerel $LN3+20
	DD	imagerel $unwind$?ptrUV@RGYFrame@@QEAAPEAEXZ
pdata	ENDS
;	COMDAT pdata
pdata	SEGMENT
$pdata$?ptrU@RGYFrame@@QEAAPEAEXZ DD imagerel $LN3
	DD	imagerel $LN3+20
	DD	imagerel $unwind$?ptrU@RGYFrame@@QEAAPEAEXZ
pdata	ENDS
;	COMDAT pdata
pdata	SEGMENT
$pdata$?ptrV@RGYFrame@@QEAAPEAEXZ DD imagerel $LN3
	DD	imagerel $LN3+20
	DD	imagerel $unwind$?ptrV@RGYFrame@@QEAAPEAEXZ
pdata	ENDS
;	COMDAT pdata
pdata	SEGMENT
$pdata$?ptrRGB@RGYFrame@@QEAAPEAEXZ DD imagerel $LN3
	DD	imagerel $LN3+113
	DD	imagerel $unwind$?ptrRGB@RGYFrame@@QEAAPEAEXZ
pdata	ENDS
;	COMDAT pdata
pdata	SEGMENT
$pdata$?pitch@RGYFrame@@QEAAIXZ DD imagerel $LN3
	DD	imagerel $LN3+20
	DD	imagerel $unwind$?pitch@RGYFrame@@QEAAIXZ
pdata	ENDS
;	COMDAT pdata
pdata	SEGMENT
$pdata$?width@RGYFrame@@QEAAIXZ DD imagerel $LN3
	DD	imagerel $LN3+17
	DD	imagerel $unwind$?width@RGYFrame@@QEAAIXZ
pdata	ENDS
;	COMDAT pdata
pdata	SEGMENT
$pdata$?height@RGYFrame@@QEAAIXZ DD imagerel $LN3
	DD	imagerel $LN3+17
	DD	imagerel $unwind$?height@RGYFrame@@QEAAIXZ
pdata	ENDS
;	COMDAT pdata
pdata	SEGMENT
$pdata$?crop@RGYFrame@@QEAA?ATsInputCrop@@XZ DD imagerel $LN3
	DD	imagerel $LN3+246
	DD	imagerel $unwind$?crop@RGYFrame@@QEAA?ATsInputCrop@@XZ
pdata	ENDS
;	COMDAT pdata
pdata	SEGMENT
$pdata$?csp@RGYFrame@@QEAA?AW4RGY_CSP@@XZ DD imagerel $LN3
	DD	imagerel $LN3+49
	DD	imagerel $unwind$?csp@RGYFrame@@QEAA?AW4RGY_CSP@@XZ
pdata	ENDS
;	COMDAT pdata
pdata	SEGMENT
$pdata$??$min@PEAE@std@@YAAEBQEAEAEBQEAE0@Z DD imagerel $LN13
	DD	imagerel $LN13+214
	DD	imagerel $unwind$??$min@PEAE@std@@YAAEBQEAEAEBQEAE0@Z
pdata	ENDS
pdata	SEGMENT
$pdata$??0RGYOutput@@QEAA@XZ DD imagerel $LN11
	DD	imagerel $LN11+335
	DD	imagerel $unwind$??0RGYOutput@@QEAA@XZ
pdata	ENDS
pdata	SEGMENT
$pdata$?dtor$0@?0???0RGYOutput@@QEAA@XZ@4HA DD imagerel ?dtor$0@?0???0RGYOutput@@QEAA@XZ@4HA
	DD	imagerel ?dtor$0@?0???0RGYOutput@@QEAA@XZ@4HA+39
	DD	imagerel $unwind$?dtor$0@?0???0RGYOutput@@QEAA@XZ@4HA
$pdata$?dtor$1@?0???0RGYOutput@@QEAA@XZ@4HA DD imagerel ?dtor$1@?0???0RGYOutput@@QEAA@XZ@4HA
	DD	imagerel ?dtor$1@?0???0RGYOutput@@QEAA@XZ@4HA+39
	DD	imagerel $unwind$?dtor$1@?0???0RGYOutput@@QEAA@XZ@4HA
$pdata$?dtor$2@?0???0RGYOutput@@QEAA@XZ@4HA DD imagerel ?dtor$2@?0???0RGYOutput@@QEAA@XZ@4HA
	DD	imagerel ?dtor$2@?0???0RGYOutput@@QEAA@XZ@4HA+39
	DD	imagerel $unwind$?dtor$2@?0???0RGYOutput@@QEAA@XZ@4HA
$pdata$?dtor$3@?0???0RGYOutput@@QEAA@XZ@4HA DD imagerel ?dtor$3@?0???0RGYOutput@@QEAA@XZ@4HA
	DD	imagerel ?dtor$3@?0???0RGYOutput@@QEAA@XZ@4HA+39
	DD	imagerel $unwind$?dtor$3@?0???0RGYOutput@@QEAA@XZ@4HA
$pdata$?dtor$4@?0???0RGYOutput@@QEAA@XZ@4HA DD imagerel ?dtor$4@?0???0RGYOutput@@QEAA@XZ@4HA
	DD	imagerel ?dtor$4@?0???0RGYOutput@@QEAA@XZ@4HA+42
	DD	imagerel $unwind$?dtor$4@?0???0RGYOutput@@QEAA@XZ@4HA
$pdata$?dtor$5@?0???0RGYOutput@@QEAA@XZ@4HA DD imagerel ?dtor$5@?0???0RGYOutput@@QEAA@XZ@4HA
	DD	imagerel ?dtor$5@?0???0RGYOutput@@QEAA@XZ@4HA+42
	DD	imagerel $unwind$?dtor$5@?0???0RGYOutput@@QEAA@XZ@4HA
$pdata$?dtor$6@?0???0RGYOutput@@QEAA@XZ@4HA DD imagerel ?dtor$6@?0???0RGYOutput@@QEAA@XZ@4HA
	DD	imagerel ?dtor$6@?0???0RGYOutput@@QEAA@XZ@4HA+42
	DD	imagerel $unwind$?dtor$6@?0???0RGYOutput@@QEAA@XZ@4HA
$pdata$?dtor$7@?0???0RGYOutput@@QEAA@XZ@4HA DD imagerel ?dtor$7@?0???0RGYOutput@@QEAA@XZ@4HA
	DD	imagerel ?dtor$7@?0???0RGYOutput@@QEAA@XZ@4HA+42
	DD	imagerel $unwind$?dtor$7@?0???0RGYOutput@@QEAA@XZ@4HA
pdata	ENDS
pdata	SEGMENT
$pdata$??1RGYOutput@@UEAA@XZ DD imagerel $LN11
	DD	imagerel $LN11+252
	DD	imagerel $unwind$??1RGYOutput@@UEAA@XZ
pdata	ENDS
pdata	SEGMENT
$pdata$?dtor$0@?0???1RGYOutput@@UEAA@XZ@4HA DD imagerel ?dtor$0@?0???1RGYOutput@@UEAA@XZ@4HA
	DD	imagerel ?dtor$0@?0???1RGYOutput@@UEAA@XZ@4HA+39
	DD	imagerel $unwind$?dtor$0@?0???1RGYOutput@@UEAA@XZ@4HA
$pdata$?dtor$1@?0???1RGYOutput@@UEAA@XZ@4HA DD imagerel ?dtor$1@?0???1RGYOutput@@UEAA@XZ@4HA
	DD	imagerel ?dtor$1@?0???1RGYOutput@@UEAA@XZ@4HA+39
	DD	imagerel $unwind$?dtor$1@?0???1RGYOutput@@UEAA@XZ@4HA
$pdata$?dtor$2@?0???1RGYOutput@@UEAA@XZ@4HA DD imagerel ?dtor$2@?0???1RGYOutput@@UEAA@XZ@4HA
	DD	imagerel ?dtor$2@?0???1RGYOutput@@UEAA@XZ@4HA+39
	DD	imagerel $unwind$?dtor$2@?0???1RGYOutput@@UEAA@XZ@4HA
$pdata$?dtor$3@?0???1RGYOutput@@UEAA@XZ@4HA DD imagerel ?dtor$3@?0???1RGYOutput@@UEAA@XZ@4HA
	DD	imagerel ?dtor$3@?0???1RGYOutput@@UEAA@XZ@4HA+39
	DD	imagerel $unwind$?dtor$3@?0???1RGYOutput@@UEAA@XZ@4HA
$pdata$?dtor$4@?0???1RGYOutput@@UEAA@XZ@4HA DD imagerel ?dtor$4@?0???1RGYOutput@@UEAA@XZ@4HA
	DD	imagerel ?dtor$4@?0???1RGYOutput@@UEAA@XZ@4HA+42
	DD	imagerel $unwind$?dtor$4@?0???1RGYOutput@@UEAA@XZ@4HA
$pdata$?dtor$5@?0???1RGYOutput@@UEAA@XZ@4HA DD imagerel ?dtor$5@?0???1RGYOutput@@UEAA@XZ@4HA
	DD	imagerel ?dtor$5@?0???1RGYOutput@@UEAA@XZ@4HA+42
	DD	imagerel $unwind$?dtor$5@?0???1RGYOutput@@UEAA@XZ@4HA
$pdata$?dtor$6@?0???1RGYOutput@@UEAA@XZ@4HA DD imagerel ?dtor$6@?0???1RGYOutput@@UEAA@XZ@4HA
	DD	imagerel ?dtor$6@?0???1RGYOutput@@UEAA@XZ@4HA+42
	DD	imagerel $unwind$?dtor$6@?0???1RGYOutput@@UEAA@XZ@4HA
$pdata$?dtor$7@?0???1RGYOutput@@UEAA@XZ@4HA DD imagerel ?dtor$7@?0???1RGYOutput@@UEAA@XZ@4HA
	DD	imagerel ?dtor$7@?0???1RGYOutput@@UEAA@XZ@4HA+42
	DD	imagerel $unwind$?dtor$7@?0???1RGYOutput@@UEAA@XZ@4HA
pdata	ENDS
pdata	SEGMENT
$pdata$?Close@RGYOutput@@UEAAXXZ DD imagerel $LN4
	DD	imagerel $LN4+280
	DD	imagerel $unwind$?Close@RGYOutput@@UEAAXXZ
pdata	ENDS
;	COMDAT pdata
pdata	SEGMENT
$pdata$?outputStdout@RGYOutput@@UEAA_NXZ DD imagerel $LN3
	DD	imagerel $LN3+17
	DD	imagerel $unwind$?outputStdout@RGYOutput@@UEAA_NXZ
pdata	ENDS
;	COMDAT pdata
pdata	SEGMENT
$pdata$?getOutType@RGYOutput@@UEAA?AW4OutputType@@XZ DD imagerel $LN3
	DD	imagerel $LN3+16
	DD	imagerel $unwind$?getOutType@RGYOutput@@UEAA?AW4OutputType@@XZ
pdata	ENDS
;	COMDAT pdata
pdata	SEGMENT
$pdata$?WaitFin@RGYOutput@@UEAAXXZ DD imagerel $LN3
	DD	imagerel $LN3+8
	DD	imagerel $unwind$?WaitFin@RGYOutput@@UEAAXXZ
pdata	ENDS
;	COMDAT pdata
pdata	SEGMENT
$pdata$?AddMessage@RGYOutput@@QEAAXHAEBV?$basic_string@DU?$char_traits@D@std@@V?$allocator@D@2@@std@@@Z DD imagerel $LN14
	DD	imagerel $LN14+686
	DD	imagerel $unwind$?AddMessage@RGYOutput@@QEAAXHAEBV?$basic_string@DU?$char_traits@D@std@@V?$allocator@D@2@@std@@@Z
pdata	ENDS
;	COMDAT pdata
pdata	SEGMENT
$pdata$?dtor$0@?0??AddMessage@RGYOutput@@QEAAXHAEBV?$basic_string@DU?$char_traits@D@std@@V?$allocator@D@2@@std@@@Z@4HA DD imagerel ?dtor$0@?0??AddMessage@RGYOutput@@QEAAXHAEBV?$basic_string@DU?$char_traits@D@std@@V?$allocator@D@2@@std@@@Z@4HA
	DD	imagerel ?dtor$0@?0??AddMessage@RGYOutput@@QEAAXHAEBV?$basic_string@DU?$char_traits@D@std@@V?$allocator@D@2@@std@@@Z@4HA+35
	DD	imagerel $unwind$?dtor$0@?0??AddMessage@RGYOutput@@QEAAXHAEBV?$basic_string@DU?$char_traits@D@std@@V?$allocator@D@2@@std@@@Z@4HA
pdata	ENDS
;	COMDAT pdata
pdata	SEGMENT
$pdata$?dtor$1@?0??AddMessage@RGYOutput@@QEAAXHAEBV?$basic_string@DU?$char_traits@D@std@@V?$allocator@D@2@@std@@@Z@4HA DD imagerel ?dtor$1@?0??AddMessage@RGYOutput@@QEAAXHAEBV?$basic_string@DU?$char_traits@D@std@@V?$allocator@D@2@@std@@@Z@4HA
	DD	imagerel ?dtor$1@?0??AddMessage@RGYOutput@@QEAAXHAEBV?$basic_string@DU?$char_traits@D@std@@V?$allocator@D@2@@std@@@Z@4HA+35
	DD	imagerel $unwind$?dtor$1@?0??AddMessage@RGYOutput@@QEAAXHAEBV?$basic_string@DU?$char_traits@D@std@@V?$allocator@D@2@@std@@@Z@4HA
pdata	ENDS
;	COMDAT pdata
pdata	SEGMENT
$pdata$?dtor$2@?0??AddMessage@RGYOutput@@QEAAXHAEBV?$basic_string@DU?$char_traits@D@std@@V?$allocator@D@2@@std@@@Z@4HA DD imagerel ?dtor$2@?0??AddMessage@RGYOutput@@QEAAXHAEBV?$basic_string@DU?$char_traits@D@std@@V?$allocator@D@2@@std@@@Z@4HA
	DD	imagerel ?dtor$2@?0??AddMessage@RGYOutput@@QEAAXHAEBV?$basic_string@DU?$char_traits@D@std@@V?$allocator@D@2@@std@@@Z@4HA+38
	DD	imagerel $unwind$?dtor$2@?0??AddMessage@RGYOutput@@QEAAXHAEBV?$basic_string@DU?$char_traits@D@std@@V?$allocator@D@2@@std@@@Z@4HA
pdata	ENDS
;	COMDAT pdata
pdata	SEGMENT
$pdata$?dtor$3@?0??AddMessage@RGYOutput@@QEAAXHAEBV?$basic_string@DU?$char_traits@D@std@@V?$allocator@D@2@@std@@@Z@4HA DD imagerel ?dtor$3@?0??AddMessage@RGYOutput@@QEAAXHAEBV?$basic_string@DU?$char_traits@D@std@@V?$allocator@D@2@@std@@@Z@4HA
	DD	imagerel ?dtor$3@?0??AddMessage@RGYOutput@@QEAAXHAEBV?$basic_string@DU?$char_traits@D@std@@V?$allocator@D@2@@std@@@Z@4HA+38
	DD	imagerel $unwind$?dtor$3@?0??AddMessage@RGYOutput@@QEAAXHAEBV?$basic_string@DU?$char_traits@D@std@@V?$allocator@D@2@@std@@@Z@4HA
pdata	ENDS
;	COMDAT pdata
pdata	SEGMENT
$pdata$?dtor$4@?0??AddMessage@RGYOutput@@QEAAXHAEBV?$basic_string@DU?$char_traits@D@std@@V?$allocator@D@2@@std@@@Z@4HA DD imagerel ?dtor$4@?0??AddMessage@RGYOutput@@QEAAXHAEBV?$basic_string@DU?$char_traits@D@std@@V?$allocator@D@2@@std@@@Z@4HA
	DD	imagerel ?dtor$4@?0??AddMessage@RGYOutput@@QEAAXHAEBV?$basic_string@DU?$char_traits@D@std@@V?$allocator@D@2@@std@@@Z@4HA+38
	DD	imagerel $unwind$?dtor$4@?0??AddMessage@RGYOutput@@QEAAXHAEBV?$basic_string@DU?$char_traits@D@std@@V?$allocator@D@2@@std@@@Z@4HA
pdata	ENDS
;	COMDAT pdata
pdata	SEGMENT
$pdata$?AddMessage@RGYOutput@@QEAAXHPEBDZZ DD imagerel $LN6
	DD	imagerel $LN6+354
	DD	imagerel $unwind$?AddMessage@RGYOutput@@QEAAXHPEBDZZ
pdata	ENDS
;	COMDAT pdata
pdata	SEGMENT
$pdata$?dtor$0@?0??AddMessage@RGYOutput@@QEAAXHPEBDZZ@4HA DD imagerel ?dtor$0@?0??AddMessage@RGYOutput@@QEAAXHPEBDZZ@4HA
	DD	imagerel ?dtor$0@?0??AddMessage@RGYOutput@@QEAAXHPEBDZZ@4HA+35
	DD	imagerel $unwind$?dtor$0@?0??AddMessage@RGYOutput@@QEAAXHPEBDZZ@4HA
pdata	ENDS
;	COMDAT pdata
pdata	SEGMENT
$pdata$??1?$unique_ptr@DUmalloc_deleter@@@std@@QEAA@XZ DD imagerel $LN4
	DD	imagerel $LN4+78
	DD	imagerel $unwind$??1?$unique_ptr@DUmalloc_deleter@@@std@@QEAA@XZ
pdata	ENDS
;	COMDAT pdata
pdata	SEGMENT
$pdata$?get@?$unique_ptr@DUmalloc_deleter@@@std@@QEBAPEADXZ DD imagerel $LN3
	DD	imagerel $LN3+16
	DD	imagerel $unwind$?get@?$unique_ptr@DUmalloc_deleter@@@std@@QEBAPEADXZ
pdata	ENDS
;	COMDAT pdata
pdata	SEGMENT
$pdata$?reset@?$unique_ptr@DUmalloc_deleter@@@std@@QEAAXPEAD@Z DD imagerel $LN4
	DD	imagerel $LN4+101
	DD	imagerel $unwind$?reset@?$unique_ptr@DUmalloc_deleter@@@std@@QEAAXPEAD@Z
pdata	ENDS
;	COMDAT pdata
pdata	SEGMENT
$pdata$?_Get_first@?$_Compressed_pair@Umalloc_deleter@@PEAD$00@std@@QEAAAEAUmalloc_deleter@@XZ DD imagerel $LN3
	DD	imagerel $LN3+13
	DD	imagerel $unwind$?_Get_first@?$_Compressed_pair@Umalloc_deleter@@PEAD$00@std@@QEAAAEAUmalloc_deleter@@XZ
pdata	ENDS
;	COMDAT pdata
pdata	SEGMENT
$pdata$??1?$unique_ptr@EUaligned_malloc_deleter@@@std@@QEAA@XZ DD imagerel $LN4
	DD	imagerel $LN4+78
	DD	imagerel $unwind$??1?$unique_ptr@EUaligned_malloc_deleter@@@std@@QEAA@XZ
pdata	ENDS
;	COMDAT pdata
pdata	SEGMENT
$pdata$?get@?$unique_ptr@EUaligned_malloc_deleter@@@std@@QEBAPEAEXZ DD imagerel $LN3
	DD	imagerel $LN3+16
	DD	imagerel $unwind$?get@?$unique_ptr@EUaligned_malloc_deleter@@@std@@QEBAPEAEXZ
pdata	ENDS
;	COMDAT pdata
pdata	SEGMENT
$pdata$?reset@?$unique_ptr@EUaligned_malloc_deleter@@@std@@QEAAXPEAE@Z DD imagerel $LN4
	DD	imagerel $LN4+101
	DD	imagerel $unwind$?reset@?$unique_ptr@EUaligned_malloc_deleter@@@std@@QEAAXPEAE@Z
pdata	ENDS
;	COMDAT pdata
pdata	SEGMENT
$pdata$?_Get_first@?$_Compressed_pair@Ualigned_malloc_deleter@@PEAE$00@std@@QEAAAEAUaligned_malloc_deleter@@XZ DD imagerel $LN3
	DD	imagerel $LN3+13
	DD	imagerel $unwind$?_Get_first@?$_Compressed_pair@Ualigned_malloc_deleter@@PEAE$00@std@@QEAAAEAUaligned_malloc_deleter@@XZ
pdata	ENDS
;	COMDAT pdata
pdata	SEGMENT
$pdata$??_GRGYOutput@@UEAAPEAXI@Z DD imagerel $LN4
	DD	imagerel $LN4+81
	DD	imagerel $unwind$??_GRGYOutput@@UEAAPEAXI@Z
pdata	ENDS
;	COMDAT pdata
pdata	SEGMENT
$pdata$??$?8VRGYLog@@@std@@YA_NAEBV?$shared_ptr@VRGYLog@@@0@$$T@Z DD imagerel $LN5
	DD	imagerel $LN5+79
	DD	imagerel $unwind$??$?8VRGYLog@@@std@@YA_NAEBV?$shared_ptr@VRGYLog@@@0@$$T@Z
pdata	ENDS
;	COMDAT pdata
pdata	SEGMENT
$pdata$??0?$allocator@E@std@@QEAA@XZ DD imagerel $LN3
	DD	imagerel $LN3+13
	DD	imagerel $unwind$??0?$allocator@E@std@@QEAA@XZ
pdata	ENDS
;	COMDAT pdata
pdata	SEGMENT
$pdata$?deallocate@?$allocator@E@std@@QEAAXQEAE_K@Z DD imagerel $LN3
	DD	imagerel $LN3+61
	DD	imagerel $unwind$?deallocate@?$allocator@E@std@@QEAAXQEAE_K@Z
pdata	ENDS
;	COMDAT pdata
pdata	SEGMENT
$pdata$?allocate@?$allocator@E@std@@QEAAPEAE_K@Z DD imagerel $LN3
	DD	imagerel $LN3+59
	DD	imagerel $unwind$?allocate@?$allocator@E@std@@QEAAPEAE_K@Z
pdata	ENDS
;	COMDAT pdata
pdata	SEGMENT
$pdata$?max_size@?$_Default_allocator_traits@V?$allocator@E@std@@@std@@SA_KAEBV?$allocator@E@2@@Z DD imagerel $LN3
	DD	imagerel $LN3+15
	DD	imagerel $unwind$?max_size@?$_Default_allocator_traits@V?$allocator@E@std@@@std@@SA_KAEBV?$allocator@E@2@@Z
pdata	ENDS
;	COMDAT pdata
pdata	SEGMENT
$pdata$??0?$vector@EV?$allocator@E@std@@@std@@QEAA@XZ DD imagerel $LN3
	DD	imagerel $LN3+99
	DD	imagerel $unwind$??0?$vector@EV?$allocator@E@std@@@std@@QEAA@XZ
pdata	ENDS
;	COMDAT pdata
pdata	SEGMENT
$pdata$??1?$vector@EV?$allocator@E@std@@@std@@QEAA@XZ DD imagerel $LN3
	DD	imagerel $LN3+140
	DD	imagerel $unwind$??1?$vector@EV?$allocator@E@std@@@std@@QEAA@XZ
pdata	ENDS
;	COMDAT pdata
pdata	SEGMENT
$pdata$?_Copy_assign@?$vector@EV?$allocator@E@std@@@std@@AEAAXAEBV12@U?$integral_constant@_N$0A@@2@@Z DD imagerel $LN3
	DD	imagerel $LN3+125
	DD	imagerel $unwind$?_Copy_assign@?$vector@EV?$allocator@E@std@@@std@@AEAAXAEBV12@U?$integral_constant@_N$0A@@2@@Z
pdata	ENDS
;	COMDAT pdata
pdata	SEGMENT
$pdata$??4?$vector@EV?$allocator@E@std@@@std@@QEAAAEAV01@AEBV01@@Z DD imagerel $LN4
	DD	imagerel $LN4+101
	DD	imagerel $unwind$??4?$vector@EV?$allocator@E@std@@@std@@QEAAAEAV01@AEBV01@@Z
pdata	ENDS
;	COMDAT pdata
pdata	SEGMENT
$pdata$?_Clear_and_reserve_geometric@?$vector@EV?$allocator@E@std@@@std@@AEAAX_K@Z DD imagerel $LN5
	DD	imagerel $LN5+281
	DD	imagerel $unwind$?_Clear_and_reserve_geometric@?$vector@EV?$allocator@E@std@@@std@@AEAAX_K@Z
pdata	ENDS
;	COMDAT pdata
pdata	SEGMENT
$pdata$?clear@?$vector@EV?$allocator@E@std@@@std@@QEAAXXZ DD imagerel $LN3
	DD	imagerel $LN3+128
	DD	imagerel $unwind$?clear@?$vector@EV?$allocator@E@std@@@std@@QEAAXXZ
pdata	ENDS
;	COMDAT pdata
pdata	SEGMENT
$pdata$?data@?$vector@EV?$allocator@E@std@@@std@@QEAAPEAEXZ DD imagerel $LN3
	DD	imagerel $LN3+51
	DD	imagerel $unwind$?data@?$vector@EV?$allocator@E@std@@@std@@QEAAPEAEXZ
pdata	ENDS
;	COMDAT pdata
pdata	SEGMENT
$pdata$?size@?$vector@EV?$allocator@E@std@@@std@@QEBA_KXZ DD imagerel $LN3
	DD	imagerel $LN3+64
	DD	imagerel $unwind$?size@?$vector@EV?$allocator@E@std@@@std@@QEBA_KXZ
pdata	ENDS
;	COMDAT pdata
pdata	SEGMENT
$pdata$?max_size@?$vector@EV?$allocator@E@std@@@std@@QEBA_KXZ DD imagerel $LN3
	DD	imagerel $LN3+87
	DD	imagerel $unwind$?max_size@?$vector@EV?$allocator@E@std@@@std@@QEBA_KXZ
pdata	ENDS
;	COMDAT pdata
pdata	SEGMENT
$pdata$?capacity@?$vector@EV?$allocator@E@std@@@std@@QEBA_KXZ DD imagerel $LN3
	DD	imagerel $LN3+64
	DD	imagerel $unwind$?capacity@?$vector@EV?$allocator@E@std@@@std@@QEBA_KXZ
pdata	ENDS
;	COMDAT pdata
pdata	SEGMENT
$pdata$?_Destroy@?$vector@EV?$allocator@E@std@@@std@@AEAAXPEAE0@Z DD imagerel $LN3
	DD	imagerel $LN3+74
	DD	imagerel $unwind$?_Destroy@?$vector@EV?$allocator@E@std@@@std@@AEAAXPEAE0@Z
pdata	ENDS
;	COMDAT pdata
pdata	SEGMENT
$pdata$?_Calculate_growth@?$vector@EV?$allocator@E@std@@@std@@AEBA_K_K@Z DD imagerel $LN5
	DD	imagerel $LN5+166
	DD	imagerel $unwind$?_Calculate_growth@?$vector@EV?$allocator@E@std@@@std@@AEBA_K_K@Z
pdata	ENDS
;	COMDAT pdata
pdata	SEGMENT
$pdata$?_Buy_raw@?$vector@EV?$allocator@E@std@@@std@@AEAAX_K@Z DD imagerel $LN3
	DD	imagerel $LN3+171
	DD	imagerel $unwind$?_Buy_raw@?$vector@EV?$allocator@E@std@@@std@@AEAAX_K@Z
pdata	ENDS
;	COMDAT pdata
pdata	SEGMENT
$pdata$?_Tidy@?$vector@EV?$allocator@E@std@@@std@@AEAAXXZ DD imagerel $LN4
	DD	imagerel $LN4+233
	DD	imagerel $unwind$?_Tidy@?$vector@EV?$allocator@E@std@@@std@@AEAAXXZ
pdata	ENDS
;	COMDAT pdata
pdata	SEGMENT
$pdata$?_Xlength@?$vector@EV?$allocator@E@std@@@std@@CAXXZ DD imagerel $LN3
	DD	imagerel $LN3+39
	DD	imagerel $unwind$?_Xlength@?$vector@EV?$allocator@E@std@@@std@@CAXXZ
pdata	ENDS
;	COMDAT pdata
pdata	SEGMENT
$pdata$?_Getal@?$vector@EV?$allocator@E@std@@@std@@AEAAAEAV?$allocator@E@2@XZ DD imagerel $LN3
	DD	imagerel $LN3+49
	DD	imagerel $unwind$?_Getal@?$vector@EV?$allocator@E@std@@@std@@AEAAAEAV?$allocator@E@2@XZ
pdata	ENDS
;	COMDAT pdata
pdata	SEGMENT
$pdata$?_Getal@?$vector@EV?$allocator@E@std@@@std@@AEBAAEBV?$allocator@E@2@XZ DD imagerel $LN3
	DD	imagerel $LN3+49
	DD	imagerel $unwind$?_Getal@?$vector@EV?$allocator@E@std@@@std@@AEBAAEBV?$allocator@E@2@XZ
pdata	ENDS
;	COMDAT pdata
pdata	SEGMENT
$pdata$??0?$_Vector_val@U?$_Simple_types@E@std@@@std@@QEAA@XZ DD imagerel $LN3
	DD	imagerel $LN3+90
	DD	imagerel $unwind$??0?$_Vector_val@U?$_Simple_types@E@std@@@std@@QEAA@XZ
pdata	ENDS
;	COMDAT pdata
pdata	SEGMENT
$pdata$?_Get_first@?$_Compressed_pair@V?$allocator@E@std@@V?$_Vector_val@U?$_Simple_types@E@std@@@2@$00@std@@QEAAAEAV?$allocator@E@2@XZ DD imagerel $LN3
	DD	imagerel $LN3+13
	DD	imagerel $unwind$?_Get_first@?$_Compressed_pair@V?$allocator@E@std@@V?$_Vector_val@U?$_Simple_types@E@std@@@2@$00@std@@QEAAAEAV?$allocator@E@2@XZ
pdata	ENDS
;	COMDAT pdata
pdata	SEGMENT
$pdata$?_Get_first@?$_Compressed_pair@V?$allocator@E@std@@V?$_Vector_val@U?$_Simple_types@E@std@@@2@$00@std@@QEBAAEBV?$allocator@E@2@XZ DD imagerel $LN3
	DD	imagerel $LN3+13
	DD	imagerel $unwind$?_Get_first@?$_Compressed_pair@V?$allocator@E@std@@V?$_Vector_val@U?$_Simple_types@E@std@@@2@$00@std@@QEBAAEBV?$allocator@E@2@XZ
pdata	ENDS
pdata	SEGMENT
$pdata$??0RGYOutputRaw@@QEAA@XZ DD imagerel $LN6
	DD	imagerel $LN6+143
	DD	imagerel $unwind$??0RGYOutputRaw@@QEAA@XZ
pdata	ENDS
pdata	SEGMENT
$pdata$?dtor$0@?0???0RGYOutputRaw@@QEAA@XZ@4HA DD imagerel ?dtor$0@?0???0RGYOutputRaw@@QEAA@XZ@4HA
	DD	imagerel ?dtor$0@?0???0RGYOutputRaw@@QEAA@XZ@4HA+35
	DD	imagerel $unwind$?dtor$0@?0???0RGYOutputRaw@@QEAA@XZ@4HA
$pdata$?dtor$1@?0???0RGYOutputRaw@@QEAA@XZ@4HA DD imagerel ?dtor$1@?0???0RGYOutputRaw@@QEAA@XZ@4HA
	DD	imagerel ?dtor$1@?0???0RGYOutputRaw@@QEAA@XZ@4HA+42
	DD	imagerel $unwind$?dtor$1@?0???0RGYOutputRaw@@QEAA@XZ@4HA
$pdata$?dtor$2@?0???0RGYOutputRaw@@QEAA@XZ@4HA DD imagerel ?dtor$2@?0???0RGYOutputRaw@@QEAA@XZ@4HA
	DD	imagerel ?dtor$2@?0???0RGYOutputRaw@@QEAA@XZ@4HA+42
	DD	imagerel $unwind$?dtor$2@?0???0RGYOutputRaw@@QEAA@XZ@4HA
pdata	ENDS
pdata	SEGMENT
$pdata$??1RGYOutputRaw@@UEAA@XZ DD imagerel $LN6
	DD	imagerel $LN6+124
	DD	imagerel $unwind$??1RGYOutputRaw@@UEAA@XZ
pdata	ENDS
pdata	SEGMENT
$pdata$?dtor$0@?0???1RGYOutputRaw@@UEAA@XZ@4HA DD imagerel ?dtor$0@?0???1RGYOutputRaw@@UEAA@XZ@4HA
	DD	imagerel ?dtor$0@?0???1RGYOutputRaw@@UEAA@XZ@4HA+35
	DD	imagerel $unwind$?dtor$0@?0???1RGYOutputRaw@@UEAA@XZ@4HA
$pdata$?dtor$1@?0???1RGYOutputRaw@@UEAA@XZ@4HA DD imagerel ?dtor$1@?0???1RGYOutputRaw@@UEAA@XZ@4HA
	DD	imagerel ?dtor$1@?0???1RGYOutputRaw@@UEAA@XZ@4HA+42
	DD	imagerel $unwind$?dtor$1@?0???1RGYOutputRaw@@UEAA@XZ@4HA
$pdata$?dtor$2@?0???1RGYOutputRaw@@UEAA@XZ@4HA DD imagerel ?dtor$2@?0???1RGYOutputRaw@@UEAA@XZ@4HA
	DD	imagerel ?dtor$2@?0???1RGYOutputRaw@@UEAA@XZ@4HA+42
	DD	imagerel $unwind$?dtor$2@?0???1RGYOutputRaw@@UEAA@XZ@4HA
pdata	ENDS
pdata	SEGMENT
$pdata$?WriteNextFrame@RGYOutputRaw@@UEAA?AW4RGY_ERR@@PEAURGYBitstream@@@Z DD imagerel $LN60
	DD	imagerel $LN60+4413
	DD	imagerel $unwind$?WriteNextFrame@RGYOutputRaw@@UEAA?AW4RGY_ERR@@PEAURGYBitstream@@@Z
pdata	ENDS
pdata	SEGMENT
$pdata$?dtor$0@?0??WriteNextFrame@RGYOutputRaw@@UEAA?AW4RGY_ERR@@PEAURGYBitstream@@@Z@4HA DD imagerel ?dtor$0@?0??WriteNextFrame@RGYOutputRaw@@UEAA?AW4RGY_ERR@@PEAURGYBitstream@@@Z@4HA
	DD	imagerel ?dtor$0@?0??WriteNextFrame@RGYOutputRaw@@UEAA?AW4RGY_ERR@@PEAURGYBitstream@@@Z@4HA+35
	DD	imagerel $unwind$?dtor$0@?0??WriteNextFrame@RGYOutputRaw@@UEAA?AW4RGY_ERR@@PEAURGYBitstream@@@Z@4HA
$pdata$?dtor$1@?0??WriteNextFrame@RGYOutputRaw@@UEAA?AW4RGY_ERR@@PEAURGYBitstream@@@Z@4HA DD imagerel ?dtor$1@?0??WriteNextFrame@RGYOutputRaw@@UEAA?AW4RGY_ERR@@PEAURGYBitstream@@@Z@4HA
	DD	imagerel ?dtor$1@?0??WriteNextFrame@RGYOutputRaw@@UEAA?AW4RGY_ERR@@PEAURGYBitstream@@@Z@4HA+38
	DD	imagerel $unwind$?dtor$1@?0??WriteNextFrame@RGYOutputRaw@@UEAA?AW4RGY_ERR@@PEAURGYBitstream@@@Z@4HA
$pdata$?dtor$2@?0??WriteNextFrame@RGYOutputRaw@@UEAA?AW4RGY_ERR@@PEAURGYBitstream@@@Z@4HA DD imagerel ?dtor$2@?0??WriteNextFrame@RGYOutputRaw@@UEAA?AW4RGY_ERR@@PEAURGYBitstream@@@Z@4HA
	DD	imagerel ?dtor$2@?0??WriteNextFrame@RGYOutputRaw@@UEAA?AW4RGY_ERR@@PEAURGYBitstream@@@Z@4HA+38
	DD	imagerel $unwind$?dtor$2@?0??WriteNextFrame@RGYOutputRaw@@UEAA?AW4RGY_ERR@@PEAURGYBitstream@@@Z@4HA
$pdata$?dtor$3@?0??WriteNextFrame@RGYOutputRaw@@UEAA?AW4RGY_ERR@@PEAURGYBitstream@@@Z@4HA DD imagerel ?dtor$3@?0??WriteNextFrame@RGYOutputRaw@@UEAA?AW4RGY_ERR@@PEAURGYBitstream@@@Z@4HA
	DD	imagerel ?dtor$3@?0??WriteNextFrame@RGYOutputRaw@@UEAA?AW4RGY_ERR@@PEAURGYBitstream@@@Z@4HA+38
	DD	imagerel $unwind$?dtor$3@?0??WriteNextFrame@RGYOutputRaw@@UEAA?AW4RGY_ERR@@PEAURGYBitstream@@@Z@4HA
$pdata$?dtor$4@?0??WriteNextFrame@RGYOutputRaw@@UEAA?AW4RGY_ERR@@PEAURGYBitstream@@@Z@4HA DD imagerel ?dtor$4@?0??WriteNextFrame@RGYOutputRaw@@UEAA?AW4RGY_ERR@@PEAURGYBitstream@@@Z@4HA
	DD	imagerel ?dtor$4@?0??WriteNextFrame@RGYOutputRaw@@UEAA?AW4RGY_ERR@@PEAURGYBitstream@@@Z@4HA+38
	DD	imagerel $unwind$?dtor$4@?0??WriteNextFrame@RGYOutputRaw@@UEAA?AW4RGY_ERR@@PEAURGYBitstream@@@Z@4HA
$pdata$?dtor$5@?0??WriteNextFrame@RGYOutputRaw@@UEAA?AW4RGY_ERR@@PEAURGYBitstream@@@Z@4HA DD imagerel ?dtor$5@?0??WriteNextFrame@RGYOutputRaw@@UEAA?AW4RGY_ERR@@PEAURGYBitstream@@@Z@4HA
	DD	imagerel ?dtor$5@?0??WriteNextFrame@RGYOutputRaw@@UEAA?AW4RGY_ERR@@PEAURGYBitstream@@@Z@4HA+38
	DD	imagerel $unwind$?dtor$5@?0??WriteNextFrame@RGYOutputRaw@@UEAA?AW4RGY_ERR@@PEAURGYBitstream@@@Z@4HA
$pdata$?dtor$6@?0??WriteNextFrame@RGYOutputRaw@@UEAA?AW4RGY_ERR@@PEAURGYBitstream@@@Z@4HA DD imagerel ?dtor$6@?0??WriteNextFrame@RGYOutputRaw@@UEAA?AW4RGY_ERR@@PEAURGYBitstream@@@Z@4HA
	DD	imagerel ?dtor$6@?0??WriteNextFrame@RGYOutputRaw@@UEAA?AW4RGY_ERR@@PEAURGYBitstream@@@Z@4HA+38
	DD	imagerel $unwind$?dtor$6@?0??WriteNextFrame@RGYOutputRaw@@UEAA?AW4RGY_ERR@@PEAURGYBitstream@@@Z@4HA
$pdata$?dtor$7@?0??WriteNextFrame@RGYOutputRaw@@UEAA?AW4RGY_ERR@@PEAURGYBitstream@@@Z@4HA DD imagerel ?dtor$7@?0??WriteNextFrame@RGYOutputRaw@@UEAA?AW4RGY_ERR@@PEAURGYBitstream@@@Z@4HA
	DD	imagerel ?dtor$7@?0??WriteNextFrame@RGYOutputRaw@@UEAA?AW4RGY_ERR@@PEAURGYBitstream@@@Z@4HA+38
	DD	imagerel $unwind$?dtor$7@?0??WriteNextFrame@RGYOutputRaw@@UEAA?AW4RGY_ERR@@PEAURGYBitstream@@@Z@4HA
$pdata$?dtor$8@?0??WriteNextFrame@RGYOutputRaw@@UEAA?AW4RGY_ERR@@PEAURGYBitstream@@@Z@4HA DD imagerel ?dtor$8@?0??WriteNextFrame@RGYOutputRaw@@UEAA?AW4RGY_ERR@@PEAURGYBitstream@@@Z@4HA
	DD	imagerel ?dtor$8@?0??WriteNextFrame@RGYOutputRaw@@UEAA?AW4RGY_ERR@@PEAURGYBitstream@@@Z@4HA+38
	DD	imagerel $unwind$?dtor$8@?0??WriteNextFrame@RGYOutputRaw@@UEAA?AW4RGY_ERR@@PEAURGYBitstream@@@Z@4HA
$pdata$?dtor$9@?0??WriteNextFrame@RGYOutputRaw@@UEAA?AW4RGY_ERR@@PEAURGYBitstream@@@Z@4HA DD imagerel ?dtor$9@?0??WriteNextFrame@RGYOutputRaw@@UEAA?AW4RGY_ERR@@PEAURGYBitstream@@@Z@4HA
	DD	imagerel ?dtor$9@?0??WriteNextFrame@RGYOutputRaw@@UEAA?AW4RGY_ERR@@PEAURGYBitstream@@@Z@4HA+38
	DD	imagerel $unwind$?dtor$9@?0??WriteNextFrame@RGYOutputRaw@@UEAA?AW4RGY_ERR@@PEAURGYBitstream@@@Z@4HA
$pdata$?dtor$10@?0??WriteNextFrame@RGYOutputRaw@@UEAA?AW4RGY_ERR@@PEAURGYBitstream@@@Z@4HA DD imagerel ?dtor$10@?0??WriteNextFrame@RGYOutputRaw@@UEAA?AW4RGY_ERR@@PEAURGYBitstream@@@Z@4HA
	DD	imagerel ?dtor$10@?0??WriteNextFrame@RGYOutputRaw@@UEAA?AW4RGY_ERR@@PEAURGYBitstream@@@Z@4HA+38
	DD	imagerel $unwind$?dtor$10@?0??WriteNextFrame@RGYOutputRaw@@UEAA?AW4RGY_ERR@@PEAURGYBitstream@@@Z@4HA
$pdata$?dtor$11@?0??WriteNextFrame@RGYOutputRaw@@UEAA?AW4RGY_ERR@@PEAURGYBitstream@@@Z@4HA DD imagerel ?dtor$11@?0??WriteNextFrame@RGYOutputRaw@@UEAA?AW4RGY_ERR@@PEAURGYBitstream@@@Z@4HA
	DD	imagerel ?dtor$11@?0??WriteNextFrame@RGYOutputRaw@@UEAA?AW4RGY_ERR@@PEAURGYBitstream@@@Z@4HA+38
	DD	imagerel $unwind$?dtor$11@?0??WriteNextFrame@RGYOutputRaw@@UEAA?AW4RGY_ERR@@PEAURGYBitstream@@@Z@4HA
$pdata$?dtor$12@?0??WriteNextFrame@RGYOutputRaw@@UEAA?AW4RGY_ERR@@PEAURGYBitstream@@@Z@4HA DD imagerel ?dtor$12@?0??WriteNextFrame@RGYOutputRaw@@UEAA?AW4RGY_ERR@@PEAURGYBitstream@@@Z@4HA
	DD	imagerel ?dtor$12@?0??WriteNextFrame@RGYOutputRaw@@UEAA?AW4RGY_ERR@@PEAURGYBitstream@@@Z@4HA+38
	DD	imagerel $unwind$?dtor$12@?0??WriteNextFrame@RGYOutputRaw@@UEAA?AW4RGY_ERR@@PEAURGYBitstream@@@Z@4HA
$pdata$?dtor$13@?0??WriteNextFrame@RGYOutputRaw@@UEAA?AW4RGY_ERR@@PEAURGYBitstream@@@Z@4HA DD imagerel ?dtor$13@?0??WriteNextFrame@RGYOutputRaw@@UEAA?AW4RGY_ERR@@PEAURGYBitstream@@@Z@4HA
	DD	imagerel ?dtor$13@?0??WriteNextFrame@RGYOutputRaw@@UEAA?AW4RGY_ERR@@PEAURGYBitstream@@@Z@4HA+38
	DD	imagerel $unwind$?dtor$13@?0??WriteNextFrame@RGYOutputRaw@@UEAA?AW4RGY_ERR@@PEAURGYBitstream@@@Z@4HA
$pdata$?dtor$14@?0??WriteNextFrame@RGYOutputRaw@@UEAA?AW4RGY_ERR@@PEAURGYBitstream@@@Z@4HA DD imagerel ?dtor$14@?0??WriteNextFrame@RGYOutputRaw@@UEAA?AW4RGY_ERR@@PEAURGYBitstream@@@Z@4HA
	DD	imagerel ?dtor$14@?0??WriteNextFrame@RGYOutputRaw@@UEAA?AW4RGY_ERR@@PEAURGYBitstream@@@Z@4HA+38
	DD	imagerel $unwind$?dtor$14@?0??WriteNextFrame@RGYOutputRaw@@UEAA?AW4RGY_ERR@@PEAURGYBitstream@@@Z@4HA
$pdata$?dtor$15@?0??WriteNextFrame@RGYOutputRaw@@UEAA?AW4RGY_ERR@@PEAURGYBitstream@@@Z@4HA DD imagerel ?dtor$15@?0??WriteNextFrame@RGYOutputRaw@@UEAA?AW4RGY_ERR@@PEAURGYBitstream@@@Z@4HA
	DD	imagerel ?dtor$15@?0??WriteNextFrame@RGYOutputRaw@@UEAA?AW4RGY_ERR@@PEAURGYBitstream@@@Z@4HA+38
	DD	imagerel $unwind$?dtor$15@?0??WriteNextFrame@RGYOutputRaw@@UEAA?AW4RGY_ERR@@PEAURGYBitstream@@@Z@4HA
$pdata$?dtor$16@?0??WriteNextFrame@RGYOutputRaw@@UEAA?AW4RGY_ERR@@PEAURGYBitstream@@@Z@4HA DD imagerel ?dtor$16@?0??WriteNextFrame@RGYOutputRaw@@UEAA?AW4RGY_ERR@@PEAURGYBitstream@@@Z@4HA
	DD	imagerel ?dtor$16@?0??WriteNextFrame@RGYOutputRaw@@UEAA?AW4RGY_ERR@@PEAURGYBitstream@@@Z@4HA+38
	DD	imagerel $unwind$?dtor$16@?0??WriteNextFrame@RGYOutputRaw@@UEAA?AW4RGY_ERR@@PEAURGYBitstream@@@Z@4HA
$pdata$?dtor$17@?0??WriteNextFrame@RGYOutputRaw@@UEAA?AW4RGY_ERR@@PEAURGYBitstream@@@Z@4HA DD imagerel ?dtor$17@?0??WriteNextFrame@RGYOutputRaw@@UEAA?AW4RGY_ERR@@PEAURGYBitstream@@@Z@4HA
	DD	imagerel ?dtor$17@?0??WriteNextFrame@RGYOutputRaw@@UEAA?AW4RGY_ERR@@PEAURGYBitstream@@@Z@4HA+38
	DD	imagerel $unwind$?dtor$17@?0??WriteNextFrame@RGYOutputRaw@@UEAA?AW4RGY_ERR@@PEAURGYBitstream@@@Z@4HA
$pdata$?dtor$18@?0??WriteNextFrame@RGYOutputRaw@@UEAA?AW4RGY_ERR@@PEAURGYBitstream@@@Z@4HA DD imagerel ?dtor$18@?0??WriteNextFrame@RGYOutputRaw@@UEAA?AW4RGY_ERR@@PEAURGYBitstream@@@Z@4HA
	DD	imagerel ?dtor$18@?0??WriteNextFrame@RGYOutputRaw@@UEAA?AW4RGY_ERR@@PEAURGYBitstream@@@Z@4HA+38
	DD	imagerel $unwind$?dtor$18@?0??WriteNextFrame@RGYOutputRaw@@UEAA?AW4RGY_ERR@@PEAURGYBitstream@@@Z@4HA
$pdata$?dtor$19@?0??WriteNextFrame@RGYOutputRaw@@UEAA?AW4RGY_ERR@@PEAURGYBitstream@@@Z@4HA DD imagerel ?dtor$19@?0??WriteNextFrame@RGYOutputRaw@@UEAA?AW4RGY_ERR@@PEAURGYBitstream@@@Z@4HA
	DD	imagerel ?dtor$19@?0??WriteNextFrame@RGYOutputRaw@@UEAA?AW4RGY_ERR@@PEAURGYBitstream@@@Z@4HA+38
	DD	imagerel $unwind$?dtor$19@?0??WriteNextFrame@RGYOutputRaw@@UEAA?AW4RGY_ERR@@PEAURGYBitstream@@@Z@4HA
$pdata$?dtor$20@?0??WriteNextFrame@RGYOutputRaw@@UEAA?AW4RGY_ERR@@PEAURGYBitstream@@@Z@4HA DD imagerel ?dtor$20@?0??WriteNextFrame@RGYOutputRaw@@UEAA?AW4RGY_ERR@@PEAURGYBitstream@@@Z@4HA
	DD	imagerel ?dtor$20@?0??WriteNextFrame@RGYOutputRaw@@UEAA?AW4RGY_ERR@@PEAURGYBitstream@@@Z@4HA+38
	DD	imagerel $unwind$?dtor$20@?0??WriteNextFrame@RGYOutputRaw@@UEAA?AW4RGY_ERR@@PEAURGYBitstream@@@Z@4HA
$pdata$?dtor$21@?0??WriteNextFrame@RGYOutputRaw@@UEAA?AW4RGY_ERR@@PEAURGYBitstream@@@Z@4HA DD imagerel ?dtor$21@?0??WriteNextFrame@RGYOutputRaw@@UEAA?AW4RGY_ERR@@PEAURGYBitstream@@@Z@4HA
	DD	imagerel ?dtor$21@?0??WriteNextFrame@RGYOutputRaw@@UEAA?AW4RGY_ERR@@PEAURGYBitstream@@@Z@4HA+58
	DD	imagerel $unwind$?dtor$21@?0??WriteNextFrame@RGYOutputRaw@@UEAA?AW4RGY_ERR@@PEAURGYBitstream@@@Z@4HA
$pdata$?dtor$22@?0??WriteNextFrame@RGYOutputRaw@@UEAA?AW4RGY_ERR@@PEAURGYBitstream@@@Z@4HA DD imagerel ?dtor$22@?0??WriteNextFrame@RGYOutputRaw@@UEAA?AW4RGY_ERR@@PEAURGYBitstream@@@Z@4HA
	DD	imagerel ?dtor$22@?0??WriteNextFrame@RGYOutputRaw@@UEAA?AW4RGY_ERR@@PEAURGYBitstream@@@Z@4HA+58
	DD	imagerel $unwind$?dtor$22@?0??WriteNextFrame@RGYOutputRaw@@UEAA?AW4RGY_ERR@@PEAURGYBitstream@@@Z@4HA
$pdata$?dtor$23@?0??WriteNextFrame@RGYOutputRaw@@UEAA?AW4RGY_ERR@@PEAURGYBitstream@@@Z@4HA DD imagerel ?dtor$23@?0??WriteNextFrame@RGYOutputRaw@@UEAA?AW4RGY_ERR@@PEAURGYBitstream@@@Z@4HA
	DD	imagerel ?dtor$23@?0??WriteNextFrame@RGYOutputRaw@@UEAA?AW4RGY_ERR@@PEAURGYBitstream@@@Z@4HA+58
	DD	imagerel $unwind$?dtor$23@?0??WriteNextFrame@RGYOutputRaw@@UEAA?AW4RGY_ERR@@PEAURGYBitstream@@@Z@4HA
pdata	ENDS
pdata	SEGMENT
$pdata$?WriteNextFrame@RGYOutputRaw@@UEAA?AW4RGY_ERR@@PEAURGYFrame@@@Z DD imagerel $LN3
	DD	imagerel $LN3+18
	DD	imagerel $unwind$?WriteNextFrame@RGYOutputRaw@@UEAA?AW4RGY_ERR@@PEAURGYFrame@@@Z
$pdata$?Init@RGYOutputRaw@@MEAA?AW4RGY_ERR@@PEBDPEBUVideoInfo@@PEBX@Z DD imagerel $LN53
	DD	imagerel $LN53+3944
	DD	imagerel $unwind$?Init@RGYOutputRaw@@MEAA?AW4RGY_ERR@@PEBDPEBUVideoInfo@@PEBX@Z
pdata	ENDS
pdata	SEGMENT
$pdata$?dtor$0@?0??Init@RGYOutputRaw@@MEAA?AW4RGY_ERR@@PEBDPEBUVideoInfo@@PEBX@Z@4HA DD imagerel ?dtor$0@?0??Init@RGYOutputRaw@@MEAA?AW4RGY_ERR@@PEBDPEBUVideoInfo@@PEBX@Z@4HA
	DD	imagerel ?dtor$0@?0??Init@RGYOutputRaw@@MEAA?AW4RGY_ERR@@PEBDPEBUVideoInfo@@PEBX@Z@4HA+35
	DD	imagerel $unwind$?dtor$0@?0??Init@RGYOutputRaw@@MEAA?AW4RGY_ERR@@PEBDPEBUVideoInfo@@PEBX@Z@4HA
$pdata$?dtor$1@?0??Init@RGYOutputRaw@@MEAA?AW4RGY_ERR@@PEBDPEBUVideoInfo@@PEBX@Z@4HA DD imagerel ?dtor$1@?0??Init@RGYOutputRaw@@MEAA?AW4RGY_ERR@@PEBDPEBUVideoInfo@@PEBX@Z@4HA
	DD	imagerel ?dtor$1@?0??Init@RGYOutputRaw@@MEAA?AW4RGY_ERR@@PEBDPEBUVideoInfo@@PEBX@Z@4HA+35
	DD	imagerel $unwind$?dtor$1@?0??Init@RGYOutputRaw@@MEAA?AW4RGY_ERR@@PEBDPEBUVideoInfo@@PEBX@Z@4HA
$pdata$?dtor$2@?0??Init@RGYOutputRaw@@MEAA?AW4RGY_ERR@@PEBDPEBUVideoInfo@@PEBX@Z@4HA DD imagerel ?dtor$2@?0??Init@RGYOutputRaw@@MEAA?AW4RGY_ERR@@PEBDPEBUVideoInfo@@PEBX@Z@4HA
	DD	imagerel ?dtor$2@?0??Init@RGYOutputRaw@@MEAA?AW4RGY_ERR@@PEBDPEBUVideoInfo@@PEBX@Z@4HA+38
	DD	imagerel $unwind$?dtor$2@?0??Init@RGYOutputRaw@@MEAA?AW4RGY_ERR@@PEBDPEBUVideoInfo@@PEBX@Z@4HA
$pdata$?dtor$3@?0??Init@RGYOutputRaw@@MEAA?AW4RGY_ERR@@PEBDPEBUVideoInfo@@PEBX@Z@4HA DD imagerel ?dtor$3@?0??Init@RGYOutputRaw@@MEAA?AW4RGY_ERR@@PEBDPEBUVideoInfo@@PEBX@Z@4HA
	DD	imagerel ?dtor$3@?0??Init@RGYOutputRaw@@MEAA?AW4RGY_ERR@@PEBDPEBUVideoInfo@@PEBX@Z@4HA+38
	DD	imagerel $unwind$?dtor$3@?0??Init@RGYOutputRaw@@MEAA?AW4RGY_ERR@@PEBDPEBUVideoInfo@@PEBX@Z@4HA
$pdata$?dtor$4@?0??Init@RGYOutputRaw@@MEAA?AW4RGY_ERR@@PEBDPEBUVideoInfo@@PEBX@Z@4HA DD imagerel ?dtor$4@?0??Init@RGYOutputRaw@@MEAA?AW4RGY_ERR@@PEBDPEBUVideoInfo@@PEBX@Z@4HA
	DD	imagerel ?dtor$4@?0??Init@RGYOutputRaw@@MEAA?AW4RGY_ERR@@PEBDPEBUVideoInfo@@PEBX@Z@4HA+38
	DD	imagerel $unwind$?dtor$4@?0??Init@RGYOutputRaw@@MEAA?AW4RGY_ERR@@PEBDPEBUVideoInfo@@PEBX@Z@4HA
$pdata$?dtor$5@?0??Init@RGYOutputRaw@@MEAA?AW4RGY_ERR@@PEBDPEBUVideoInfo@@PEBX@Z@4HA DD imagerel ?dtor$5@?0??Init@RGYOutputRaw@@MEAA?AW4RGY_ERR@@PEBDPEBUVideoInfo@@PEBX@Z@4HA
	DD	imagerel ?dtor$5@?0??Init@RGYOutputRaw@@MEAA?AW4RGY_ERR@@PEBDPEBUVideoInfo@@PEBX@Z@4HA+38
	DD	imagerel $unwind$?dtor$5@?0??Init@RGYOutputRaw@@MEAA?AW4RGY_ERR@@PEBDPEBUVideoInfo@@PEBX@Z@4HA
$pdata$?dtor$6@?0??Init@RGYOutputRaw@@MEAA?AW4RGY_ERR@@PEBDPEBUVideoInfo@@PEBX@Z@4HA DD imagerel ?dtor$6@?0??Init@RGYOutputRaw@@MEAA?AW4RGY_ERR@@PEBDPEBUVideoInfo@@PEBX@Z@4HA
	DD	imagerel ?dtor$6@?0??Init@RGYOutputRaw@@MEAA?AW4RGY_ERR@@PEBDPEBUVideoInfo@@PEBX@Z@4HA+38
	DD	imagerel $unwind$?dtor$6@?0??Init@RGYOutputRaw@@MEAA?AW4RGY_ERR@@PEBDPEBUVideoInfo@@PEBX@Z@4HA
$pdata$?dtor$7@?0??Init@RGYOutputRaw@@MEAA?AW4RGY_ERR@@PEBDPEBUVideoInfo@@PEBX@Z@4HA DD imagerel ?dtor$7@?0??Init@RGYOutputRaw@@MEAA?AW4RGY_ERR@@PEBDPEBUVideoInfo@@PEBX@Z@4HA
	DD	imagerel ?dtor$7@?0??Init@RGYOutputRaw@@MEAA?AW4RGY_ERR@@PEBDPEBUVideoInfo@@PEBX@Z@4HA+38
	DD	imagerel $unwind$?dtor$7@?0??Init@RGYOutputRaw@@MEAA?AW4RGY_ERR@@PEBDPEBUVideoInfo@@PEBX@Z@4HA
$pdata$?dtor$8@?0??Init@RGYOutputRaw@@MEAA?AW4RGY_ERR@@PEBDPEBUVideoInfo@@PEBX@Z@4HA DD imagerel ?dtor$8@?0??Init@RGYOutputRaw@@MEAA?AW4RGY_ERR@@PEBDPEBUVideoInfo@@PEBX@Z@4HA
	DD	imagerel ?dtor$8@?0??Init@RGYOutputRaw@@MEAA?AW4RGY_ERR@@PEBDPEBUVideoInfo@@PEBX@Z@4HA+38
	DD	imagerel $unwind$?dtor$8@?0??Init@RGYOutputRaw@@MEAA?AW4RGY_ERR@@PEBDPEBUVideoInfo@@PEBX@Z@4HA
$pdata$?dtor$9@?0??Init@RGYOutputRaw@@MEAA?AW4RGY_ERR@@PEBDPEBUVideoInfo@@PEBX@Z@4HA DD imagerel ?dtor$9@?0??Init@RGYOutputRaw@@MEAA?AW4RGY_ERR@@PEBDPEBUVideoInfo@@PEBX@Z@4HA
	DD	imagerel ?dtor$9@?0??Init@RGYOutputRaw@@MEAA?AW4RGY_ERR@@PEBDPEBUVideoInfo@@PEBX@Z@4HA+38
	DD	imagerel $unwind$?dtor$9@?0??Init@RGYOutputRaw@@MEAA?AW4RGY_ERR@@PEBDPEBUVideoInfo@@PEBX@Z@4HA
$pdata$?dtor$10@?0??Init@RGYOutputRaw@@MEAA?AW4RGY_ERR@@PEBDPEBUVideoInfo@@PEBX@Z@4HA DD imagerel ?dtor$10@?0??Init@RGYOutputRaw@@MEAA?AW4RGY_ERR@@PEBDPEBUVideoInfo@@PEBX@Z@4HA
	DD	imagerel ?dtor$10@?0??Init@RGYOutputRaw@@MEAA?AW4RGY_ERR@@PEBDPEBUVideoInfo@@PEBX@Z@4HA+38
	DD	imagerel $unwind$?dtor$10@?0??Init@RGYOutputRaw@@MEAA?AW4RGY_ERR@@PEBDPEBUVideoInfo@@PEBX@Z@4HA
$pdata$?dtor$11@?0??Init@RGYOutputRaw@@MEAA?AW4RGY_ERR@@PEBDPEBUVideoInfo@@PEBX@Z@4HA DD imagerel ?dtor$11@?0??Init@RGYOutputRaw@@MEAA?AW4RGY_ERR@@PEBDPEBUVideoInfo@@PEBX@Z@4HA
	DD	imagerel ?dtor$11@?0??Init@RGYOutputRaw@@MEAA?AW4RGY_ERR@@PEBDPEBUVideoInfo@@PEBX@Z@4HA+38
	DD	imagerel $unwind$?dtor$11@?0??Init@RGYOutputRaw@@MEAA?AW4RGY_ERR@@PEBDPEBUVideoInfo@@PEBX@Z@4HA
$pdata$?dtor$12@?0??Init@RGYOutputRaw@@MEAA?AW4RGY_ERR@@PEBDPEBUVideoInfo@@PEBX@Z@4HA DD imagerel ?dtor$12@?0??Init@RGYOutputRaw@@MEAA?AW4RGY_ERR@@PEBDPEBUVideoInfo@@PEBX@Z@4HA
	DD	imagerel ?dtor$12@?0??Init@RGYOutputRaw@@MEAA?AW4RGY_ERR@@PEBDPEBUVideoInfo@@PEBX@Z@4HA+38
	DD	imagerel $unwind$?dtor$12@?0??Init@RGYOutputRaw@@MEAA?AW4RGY_ERR@@PEBDPEBUVideoInfo@@PEBX@Z@4HA
pdata	ENDS
;	COMDAT pdata
pdata	SEGMENT
$pdata$??0?$RGYAVDeleter@UAVBSFContext@@@@QEAA@XZ DD imagerel $LN4
	DD	imagerel $LN4+57
	DD	imagerel $unwind$??0?$RGYAVDeleter@UAVBSFContext@@@@QEAA@XZ
pdata	ENDS
;	COMDAT pdata
pdata	SEGMENT
$pdata$?dtor$0@?0???0?$RGYAVDeleter@UAVBSFContext@@@@QEAA@XZ@4HA DD imagerel ?dtor$0@?0???0?$RGYAVDeleter@UAVBSFContext@@@@QEAA@XZ@4HA
	DD	imagerel ?dtor$0@?0???0?$RGYAVDeleter@UAVBSFContext@@@@QEAA@XZ@4HA+35
	DD	imagerel $unwind$?dtor$0@?0???0?$RGYAVDeleter@UAVBSFContext@@@@QEAA@XZ@4HA
pdata	ENDS
;	COMDAT pdata
pdata	SEGMENT
$pdata$??0?$RGYAVDeleter@UAVBSFContext@@@@QEAA@V?$function@$$A6AXPEAPEAUAVBSFContext@@@Z@std@@@Z DD imagerel $LN5
	DD	imagerel $LN5+75
	DD	imagerel $unwind$??0?$RGYAVDeleter@UAVBSFContext@@@@QEAA@V?$function@$$A6AXPEAPEAUAVBSFContext@@@Z@std@@@Z
pdata	ENDS
;	COMDAT pdata
pdata	SEGMENT
$pdata$?dtor$0@?0???0?$RGYAVDeleter@UAVBSFContext@@@@QEAA@V?$function@$$A6AXPEAPEAUAVBSFContext@@@Z@std@@@Z@4HA DD imagerel ?dtor$0@?0???0?$RGYAVDeleter@UAVBSFContext@@@@QEAA@V?$function@$$A6AXPEAPEAUAVBSFContext@@@Z@std@@@Z@4HA
	DD	imagerel ?dtor$0@?0???0?$RGYAVDeleter@UAVBSFContext@@@@QEAA@V?$function@$$A6AXPEAPEAUAVBSFContext@@@Z@std@@@Z@4HA+35
	DD	imagerel $unwind$?dtor$0@?0???0?$RGYAVDeleter@UAVBSFContext@@@@QEAA@V?$function@$$A6AXPEAPEAUAVBSFContext@@@Z@std@@@Z@4HA
pdata	ENDS
;	COMDAT pdata
pdata	SEGMENT
$pdata$?dtor$1@?0???0?$RGYAVDeleter@UAVBSFContext@@@@QEAA@V?$function@$$A6AXPEAPEAUAVBSFContext@@@Z@std@@@Z@4HA DD imagerel ?dtor$1@?0???0?$RGYAVDeleter@UAVBSFContext@@@@QEAA@V?$function@$$A6AXPEAPEAUAVBSFContext@@@Z@std@@@Z@4HA
	DD	imagerel ?dtor$1@?0???0?$RGYAVDeleter@UAVBSFContext@@@@QEAA@V?$function@$$A6AXPEAPEAUAVBSFContext@@@Z@std@@@Z@4HA+35
	DD	imagerel $unwind$?dtor$1@?0???0?$RGYAVDeleter@UAVBSFContext@@@@QEAA@V?$function@$$A6AXPEAPEAUAVBSFContext@@@Z@std@@@Z@4HA
pdata	ENDS
;	COMDAT pdata
pdata	SEGMENT
$pdata$??R?$RGYAVDeleter@UAVBSFContext@@@@QEAAXPEAUAVBSFContext@@@Z DD imagerel $LN3
	DD	imagerel $LN3+59
	DD	imagerel $unwind$??R?$RGYAVDeleter@UAVBSFContext@@@@QEAAXPEAUAVBSFContext@@@Z
pdata	ENDS
;	COMDAT pdata
pdata	SEGMENT
$pdata$??0?$_Func_class@XPEAPEAUAVBSFContext@@@std@@QEAA@XZ DD imagerel $LN3
	DD	imagerel $LN3+53
	DD	imagerel $unwind$??0?$_Func_class@XPEAPEAUAVBSFContext@@@std@@QEAA@XZ
pdata	ENDS
;	COMDAT pdata
pdata	SEGMENT
$pdata$??R?$_Func_class@XPEAPEAUAVBSFContext@@@std@@QEBAXPEAPEAUAVBSFContext@@@Z DD imagerel $LN4
	DD	imagerel $LN4+117
	DD	imagerel $unwind$??R?$_Func_class@XPEAPEAUAVBSFContext@@@std@@QEBAXPEAPEAUAVBSFContext@@@Z
pdata	ENDS
;	COMDAT pdata
pdata	SEGMENT
$pdata$??1?$_Func_class@XPEAPEAUAVBSFContext@@@std@@QEAA@XZ DD imagerel $LN3
	DD	imagerel $LN3+46
	DD	imagerel $unwind$??1?$_Func_class@XPEAPEAUAVBSFContext@@@std@@QEAA@XZ
pdata	ENDS
;	COMDAT pdata
pdata	SEGMENT
$pdata$?_Empty@?$_Func_class@XPEAPEAUAVBSFContext@@@std@@IEBA_NXZ DD imagerel $LN5
	DD	imagerel $LN5+74
	DD	imagerel $unwind$?_Empty@?$_Func_class@XPEAPEAUAVBSFContext@@@std@@IEBA_NXZ
pdata	ENDS
;	COMDAT pdata
pdata	SEGMENT
$pdata$?_Reset_copy@?$_Func_class@XPEAPEAUAVBSFContext@@@std@@IEAAXAEBV12@@Z DD imagerel $LN4
	DD	imagerel $LN4+119
	DD	imagerel $unwind$?_Reset_copy@?$_Func_class@XPEAPEAUAVBSFContext@@@std@@IEAAXAEBV12@@Z
pdata	ENDS
;	COMDAT pdata
pdata	SEGMENT
$pdata$?_Reset_move@?$_Func_class@XPEAPEAUAVBSFContext@@@std@@IEAAX$$QEAV12@@Z DD imagerel $LN6
	DD	imagerel $LN6+184
	DD	imagerel $unwind$?_Reset_move@?$_Func_class@XPEAPEAUAVBSFContext@@@std@@IEAAX$$QEAV12@@Z
pdata	ENDS
;	COMDAT pdata
pdata	SEGMENT
$pdata$?_Tidy@?$_Func_class@XPEAPEAUAVBSFContext@@@std@@IEAAXXZ DD imagerel $LN6
	DD	imagerel $LN6+130
	DD	imagerel $unwind$?_Tidy@?$_Func_class@XPEAPEAUAVBSFContext@@@std@@IEAAXXZ
pdata	ENDS
;	COMDAT pdata
pdata	SEGMENT
$pdata$?_Local@?$_Func_class@XPEAPEAUAVBSFContext@@@std@@AEBA_NXZ DD imagerel $LN5
	DD	imagerel $LN5+79
	DD	imagerel $unwind$?_Local@?$_Func_class@XPEAPEAUAVBSFContext@@@std@@AEBA_NXZ
pdata	ENDS
;	COMDAT pdata
pdata	SEGMENT
$pdata$?_Getimpl@?$_Func_class@XPEAPEAUAVBSFContext@@@std@@AEBAPEAV?$_Func_base@XPEAPEAUAVBSFContext@@@2@XZ DD imagerel $LN3
	DD	imagerel $LN3+26
	DD	imagerel $unwind$?_Getimpl@?$_Func_class@XPEAPEAUAVBSFContext@@@std@@AEBAPEAV?$_Func_base@XPEAPEAUAVBSFContext@@@2@XZ
pdata	ENDS
;	COMDAT pdata
pdata	SEGMENT
$pdata$?_Set@?$_Func_class@XPEAPEAUAVBSFContext@@@std@@AEAAXPEAV?$_Func_base@XPEAPEAUAVBSFContext@@@2@@Z DD imagerel $LN3
	DD	imagerel $LN3+36
	DD	imagerel $unwind$?_Set@?$_Func_class@XPEAPEAUAVBSFContext@@@std@@AEAAXPEAV?$_Func_base@XPEAPEAUAVBSFContext@@@2@@Z
pdata	ENDS
;	COMDAT pdata
pdata	SEGMENT
$pdata$??0?$function@$$A6AXPEAPEAUAVBSFContext@@@Z@std@@QEAA@$$T@Z DD imagerel $LN4
	DD	imagerel $LN4+57
	DD	imagerel $unwind$??0?$function@$$A6AXPEAPEAUAVBSFContext@@@Z@std@@QEAA@$$T@Z
pdata	ENDS
;	COMDAT pdata
pdata	SEGMENT
$pdata$?dtor$0@?0???0?$function@$$A6AXPEAPEAUAVBSFContext@@@Z@std@@QEAA@$$T@Z@4HA DD imagerel ?dtor$0@?0???0?$function@$$A6AXPEAPEAUAVBSFContext@@@Z@std@@QEAA@$$T@Z@4HA
	DD	imagerel ?dtor$0@?0???0?$function@$$A6AXPEAPEAUAVBSFContext@@@Z@std@@QEAA@$$T@Z@4HA+35
	DD	imagerel $unwind$?dtor$0@?0???0?$function@$$A6AXPEAPEAUAVBSFContext@@@Z@std@@QEAA@$$T@Z@4HA
pdata	ENDS
;	COMDAT pdata
pdata	SEGMENT
$pdata$??0?$function@$$A6AXPEAPEAUAVBSFContext@@@Z@std@@QEAA@AEBV01@@Z DD imagerel $LN4
	DD	imagerel $LN4+73
	DD	imagerel $unwind$??0?$function@$$A6AXPEAPEAUAVBSFContext@@@Z@std@@QEAA@AEBV01@@Z
pdata	ENDS
;	COMDAT pdata
pdata	SEGMENT
$pdata$?dtor$0@?0???0?$function@$$A6AXPEAPEAUAVBSFContext@@@Z@std@@QEAA@AEBV01@@Z@4HA DD imagerel ?dtor$0@?0???0?$function@$$A6AXPEAPEAUAVBSFContext@@@Z@std@@QEAA@AEBV01@@Z@4HA
	DD	imagerel ?dtor$0@?0???0?$function@$$A6AXPEAPEAUAVBSFContext@@@Z@std@@QEAA@AEBV01@@Z@4HA+35
	DD	imagerel $unwind$?dtor$0@?0???0?$function@$$A6AXPEAPEAUAVBSFContext@@@Z@std@@QEAA@AEBV01@@Z@4HA
pdata	ENDS
;	COMDAT pdata
pdata	SEGMENT
$pdata$??0?$function@$$A6AXPEAPEAUAVBSFContext@@@Z@std@@QEAA@$$QEAV01@@Z DD imagerel $LN4
	DD	imagerel $LN4+82
	DD	imagerel $unwind$??0?$function@$$A6AXPEAPEAUAVBSFContext@@@Z@std@@QEAA@$$QEAV01@@Z
pdata	ENDS
;	COMDAT pdata
pdata	SEGMENT
$pdata$?dtor$0@?0???0?$function@$$A6AXPEAPEAUAVBSFContext@@@Z@std@@QEAA@$$QEAV01@@Z@4HA DD imagerel ?dtor$0@?0???0?$function@$$A6AXPEAPEAUAVBSFContext@@@Z@std@@QEAA@$$QEAV01@@Z@4HA
	DD	imagerel ?dtor$0@?0???0?$function@$$A6AXPEAPEAUAVBSFContext@@@Z@std@@QEAA@$$QEAV01@@Z@4HA+35
	DD	imagerel $unwind$?dtor$0@?0???0?$function@$$A6AXPEAPEAUAVBSFContext@@@Z@std@@QEAA@$$QEAV01@@Z@4HA
pdata	ENDS
;	COMDAT pdata
pdata	SEGMENT
$pdata$??4?$function@$$A6AXPEAPEAUAVBSFContext@@@Z@std@@QEAAAEAV01@$$QEAV01@@Z DD imagerel $LN4
	DD	imagerel $LN4+96
	DD	imagerel $unwind$??4?$function@$$A6AXPEAPEAUAVBSFContext@@@Z@std@@QEAAAEAV01@$$QEAV01@@Z
pdata	ENDS
;	COMDAT pdata
pdata	SEGMENT
$pdata$??1?$function@$$A6AXPEAPEAUAVBSFContext@@@Z@std@@QEAA@XZ DD imagerel $LN4
	DD	imagerel $LN4+47
	DD	imagerel $unwind$??1?$function@$$A6AXPEAPEAUAVBSFContext@@@Z@std@@QEAA@XZ
pdata	ENDS
;	COMDAT pdata
pdata	SEGMENT
$pdata$?dtor$0@?0???1?$function@$$A6AXPEAPEAUAVBSFContext@@@Z@std@@QEAA@XZ@4HA DD imagerel ?dtor$0@?0???1?$function@$$A6AXPEAPEAUAVBSFContext@@@Z@std@@QEAA@XZ@4HA
	DD	imagerel ?dtor$0@?0???1?$function@$$A6AXPEAPEAUAVBSFContext@@@Z@std@@QEAA@XZ@4HA+35
	DD	imagerel $unwind$?dtor$0@?0???1?$function@$$A6AXPEAPEAUAVBSFContext@@@Z@std@@QEAA@XZ@4HA
pdata	ENDS
;	COMDAT pdata
pdata	SEGMENT
$pdata$??1?$RGYAVDeleter@UAVBSFContext@@@@QEAA@XZ DD imagerel $LN4
	DD	imagerel $LN4+50
	DD	imagerel $unwind$??1?$RGYAVDeleter@UAVBSFContext@@@@QEAA@XZ
pdata	ENDS
;	COMDAT pdata
pdata	SEGMENT
$pdata$?dtor$0@?0???1?$RGYAVDeleter@UAVBSFContext@@@@QEAA@XZ@4HA DD imagerel ?dtor$0@?0???1?$RGYAVDeleter@UAVBSFContext@@@@QEAA@XZ@4HA
	DD	imagerel ?dtor$0@?0???1?$RGYAVDeleter@UAVBSFContext@@@@QEAA@XZ@4HA+35
	DD	imagerel $unwind$?dtor$0@?0???1?$RGYAVDeleter@UAVBSFContext@@@@QEAA@XZ@4HA
pdata	ENDS
;	COMDAT pdata
pdata	SEGMENT
$pdata$??0?$RGYAVDeleter@UAVBSFContext@@@@QEAA@$$QEAU0@@Z DD imagerel $LN4
	DD	imagerel $LN4+65
	DD	imagerel $unwind$??0?$RGYAVDeleter@UAVBSFContext@@@@QEAA@$$QEAU0@@Z
pdata	ENDS
;	COMDAT pdata
pdata	SEGMENT
$pdata$?dtor$0@?0???0?$RGYAVDeleter@UAVBSFContext@@@@QEAA@$$QEAU0@@Z@4HA DD imagerel ?dtor$0@?0???0?$RGYAVDeleter@UAVBSFContext@@@@QEAA@$$QEAU0@@Z@4HA
	DD	imagerel ?dtor$0@?0???0?$RGYAVDeleter@UAVBSFContext@@@@QEAA@$$QEAU0@@Z@4HA+35
	DD	imagerel $unwind$?dtor$0@?0???0?$RGYAVDeleter@UAVBSFContext@@@@QEAA@$$QEAU0@@Z@4HA
pdata	ENDS
;	COMDAT pdata
pdata	SEGMENT
$pdata$??4?$RGYAVDeleter@UAVBSFContext@@@@QEAAAEAU0@$$QEAU0@@Z DD imagerel $LN3
	DD	imagerel $LN3+64
	DD	imagerel $unwind$??4?$RGYAVDeleter@UAVBSFContext@@@@QEAAAEAU0@$$QEAU0@@Z
pdata	ENDS
;	COMDAT pdata
pdata	SEGMENT
$pdata$??4?$unique_ptr@UAVBSFContext@@U?$RGYAVDeleter@UAVBSFContext@@@@@std@@QEAAAEAV01@$$QEAV01@@Z DD imagerel $LN4
	DD	imagerel $LN4+138
	DD	imagerel $unwind$??4?$unique_ptr@UAVBSFContext@@U?$RGYAVDeleter@UAVBSFContext@@@@@std@@QEAAAEAV01@$$QEAV01@@Z
pdata	ENDS
;	COMDAT pdata
pdata	SEGMENT
$pdata$??1?$unique_ptr@UAVBSFContext@@U?$RGYAVDeleter@UAVBSFContext@@@@@std@@QEAA@XZ DD imagerel $LN5
	DD	imagerel $LN5+94
	DD	imagerel $unwind$??1?$unique_ptr@UAVBSFContext@@U?$RGYAVDeleter@UAVBSFContext@@@@@std@@QEAA@XZ
pdata	ENDS
;	COMDAT pdata
pdata	SEGMENT
$pdata$?dtor$0@?0???1?$unique_ptr@UAVBSFContext@@U?$RGYAVDeleter@UAVBSFContext@@@@@std@@QEAA@XZ@4HA DD imagerel ?dtor$0@?0???1?$unique_ptr@UAVBSFContext@@U?$RGYAVDeleter@UAVBSFContext@@@@@std@@QEAA@XZ@4HA
	DD	imagerel ?dtor$0@?0???1?$unique_ptr@UAVBSFContext@@U?$RGYAVDeleter@UAVBSFContext@@@@@std@@QEAA@XZ@4HA+35
	DD	imagerel $unwind$?dtor$0@?0???1?$unique_ptr@UAVBSFContext@@U?$RGYAVDeleter@UAVBSFContext@@@@@std@@QEAA@XZ@4HA
pdata	ENDS
;	COMDAT pdata
pdata	SEGMENT
$pdata$??C?$unique_ptr@UAVBSFContext@@U?$RGYAVDeleter@UAVBSFContext@@@@@std@@QEBAPEAUAVBSFContext@@XZ DD imagerel $LN3
	DD	imagerel $LN3+17
	DD	imagerel $unwind$??C?$unique_ptr@UAVBSFContext@@U?$RGYAVDeleter@UAVBSFContext@@@@@std@@QEBAPEAUAVBSFContext@@XZ
pdata	ENDS
;	COMDAT pdata
pdata	SEGMENT
$pdata$?get@?$unique_ptr@UAVBSFContext@@U?$RGYAVDeleter@UAVBSFContext@@@@@std@@QEBAPEAUAVBSFContext@@XZ DD imagerel $LN3
	DD	imagerel $LN3+17
	DD	imagerel $unwind$?get@?$unique_ptr@UAVBSFContext@@U?$RGYAVDeleter@UAVBSFContext@@@@@std@@QEBAPEAUAVBSFContext@@XZ
pdata	ENDS
;	COMDAT pdata
pdata	SEGMENT
$pdata$??B?$unique_ptr@UAVBSFContext@@U?$RGYAVDeleter@UAVBSFContext@@@@@std@@QEBA_NXZ DD imagerel $LN5
	DD	imagerel $LN5+62
	DD	imagerel $unwind$??B?$unique_ptr@UAVBSFContext@@U?$RGYAVDeleter@UAVBSFContext@@@@@std@@QEBA_NXZ
pdata	ENDS
;	COMDAT pdata
pdata	SEGMENT
$pdata$?release@?$unique_ptr@UAVBSFContext@@U?$RGYAVDeleter@UAVBSFContext@@@@@std@@QEAAPEAUAVBSFContext@@XZ DD imagerel $LN3
	DD	imagerel $LN3+68
	DD	imagerel $unwind$?release@?$unique_ptr@UAVBSFContext@@U?$RGYAVDeleter@UAVBSFContext@@@@@std@@QEAAPEAUAVBSFContext@@XZ
pdata	ENDS
;	COMDAT pdata
pdata	SEGMENT
$pdata$?reset@?$unique_ptr@UAVBSFContext@@U?$RGYAVDeleter@UAVBSFContext@@@@@std@@QEAAXPEAUAVBSFContext@@@Z DD imagerel $LN4
	DD	imagerel $LN4+105
	DD	imagerel $unwind$?reset@?$unique_ptr@UAVBSFContext@@U?$RGYAVDeleter@UAVBSFContext@@@@@std@@QEAAXPEAUAVBSFContext@@@Z
pdata	ENDS
;	COMDAT pdata
pdata	SEGMENT
$pdata$?_Get_first@?$_Compressed_pair@U?$RGYAVDeleter@UAVBSFContext@@@@PEAUAVBSFContext@@$0A@@std@@QEAAAEAU?$RGYAVDeleter@UAVBSFContext@@@@XZ DD imagerel $LN3
	DD	imagerel $LN3+13
	DD	imagerel $unwind$?_Get_first@?$_Compressed_pair@U?$RGYAVDeleter@UAVBSFContext@@@@PEAUAVBSFContext@@$0A@@std@@QEAAAEAU?$RGYAVDeleter@UAVBSFContext@@@@XZ
pdata	ENDS
;	COMDAT pdata
pdata	SEGMENT
$pdata$??1?$_Compressed_pair@U?$RGYAVDeleter@UAVBSFContext@@@@PEAUAVBSFContext@@$0A@@std@@QEAA@XZ DD imagerel $LN4
	DD	imagerel $LN4+50
	DD	imagerel $unwind$??1?$_Compressed_pair@U?$RGYAVDeleter@UAVBSFContext@@@@PEAUAVBSFContext@@$0A@@std@@QEAA@XZ
pdata	ENDS
;	COMDAT pdata
pdata	SEGMENT
$pdata$?dtor$0@?0???1?$_Compressed_pair@U?$RGYAVDeleter@UAVBSFContext@@@@PEAUAVBSFContext@@$0A@@std@@QEAA@XZ@4HA DD imagerel ?dtor$0@?0???1?$_Compressed_pair@U?$RGYAVDeleter@UAVBSFContext@@@@PEAUAVBSFContext@@$0A@@std@@QEAA@XZ@4HA
	DD	imagerel ?dtor$0@?0???1?$_Compressed_pair@U?$RGYAVDeleter@UAVBSFContext@@@@PEAUAVBSFContext@@$0A@@std@@QEAA@XZ@4HA+35
	DD	imagerel $unwind$?dtor$0@?0???1?$_Compressed_pair@U?$RGYAVDeleter@UAVBSFContext@@@@PEAUAVBSFContext@@$0A@@std@@QEAA@XZ@4HA
pdata	ENDS
;	COMDAT pdata
pdata	SEGMENT
$pdata$??_GRGYOutputRaw@@UEAAPEAXI@Z DD imagerel $LN4
	DD	imagerel $LN4+81
	DD	imagerel $unwind$??_GRGYOutputRaw@@UEAAPEAXI@Z
pdata	ENDS
pdata	SEGMENT
$pdata$??0CQSVOutFrame@@QEAA@XZ DD imagerel $LN4
	DD	imagerel $LN4+115
	DD	imagerel $unwind$??0CQSVOutFrame@@QEAA@XZ
pdata	ENDS
pdata	SEGMENT
$pdata$?dtor$0@?0???0CQSVOutFrame@@QEAA@XZ@4HA DD imagerel ?dtor$0@?0???0CQSVOutFrame@@QEAA@XZ@4HA
	DD	imagerel ?dtor$0@?0???0CQSVOutFrame@@QEAA@XZ@4HA+35
	DD	imagerel $unwind$?dtor$0@?0???0CQSVOutFrame@@QEAA@XZ@4HA
pdata	ENDS
pdata	SEGMENT
$pdata$??1CQSVOutFrame@@UEAA@XZ DD imagerel $LN4
	DD	imagerel $LN4+62
	DD	imagerel $unwind$??1CQSVOutFrame@@UEAA@XZ
pdata	ENDS
pdata	SEGMENT
$pdata$?dtor$0@?0???1CQSVOutFrame@@UEAA@XZ@4HA DD imagerel ?dtor$0@?0???1CQSVOutFrame@@UEAA@XZ@4HA
	DD	imagerel ?dtor$0@?0???1CQSVOutFrame@@UEAA@XZ@4HA+35
	DD	imagerel $unwind$?dtor$0@?0???1CQSVOutFrame@@UEAA@XZ@4HA
pdata	ENDS
pdata	SEGMENT
$pdata$?WriteNextFrame@CQSVOutFrame@@UEAA?AW4RGY_ERR@@PEAURGYBitstream@@@Z DD imagerel $LN3
	DD	imagerel $LN3+18
	DD	imagerel $unwind$?WriteNextFrame@CQSVOutFrame@@UEAA?AW4RGY_ERR@@PEAURGYBitstream@@@Z
$pdata$?WriteNextFrame@CQSVOutFrame@@UEAA?AW4RGY_ERR@@PEAURGYFrame@@@Z DD imagerel $LN59
	DD	imagerel $LN59+4717
	DD	imagerel $unwind$?WriteNextFrame@CQSVOutFrame@@UEAA?AW4RGY_ERR@@PEAURGYFrame@@@Z
$pdata$?Init@CQSVOutFrame@@MEAA?AW4RGY_ERR@@PEBDPEBUVideoInfo@@PEBX@Z DD imagerel $LN9
	DD	imagerel $LN9+387
	DD	imagerel $unwind$?Init@CQSVOutFrame@@MEAA?AW4RGY_ERR@@PEBDPEBUVideoInfo@@PEBX@Z
pdata	ENDS
;	COMDAT pdata
pdata	SEGMENT
$pdata$??_GCQSVOutFrame@@UEAAPEAXI@Z DD imagerel $LN4
	DD	imagerel $LN4+81
	DD	imagerel $unwind$??_GCQSVOutFrame@@UEAAPEAXI@Z
pdata	ENDS
pdata	SEGMENT
$pdata$?parse_nal_unit_h264@@YA?AV?$vector@Unal_info@@V?$allocator@Unal_info@@@std@@@std@@PEBE_K@Z DD imagerel ?parse_nal_unit_h264@@YA?AV?$vector@Unal_info@@V?$allocator@Unal_info@@@std@@@std@@PEBE_K@Z
	DD	imagerel ?parse_nal_unit_h264@@YA?AV?$vector@Unal_info@@V?$allocator@Unal_info@@@std@@@std@@PEBE_K@Z+781
	DD	imagerel $unwind$?parse_nal_unit_h264@@YA?AV?$vector@Unal_info@@V?$allocator@Unal_info@@@std@@@std@@PEBE_K@Z
pdata	ENDS
pdata	SEGMENT
$pdata$?dtor$0@?0??parse_nal_unit_h264@@YA?AV?$vector@Unal_info@@V?$allocator@Unal_info@@@std@@@std@@PEBE_K@Z@4HA DD imagerel ?dtor$0@?0??parse_nal_unit_h264@@YA?AV?$vector@Unal_info@@V?$allocator@Unal_info@@@std@@@std@@PEBE_K@Z@4HA
	DD	imagerel ?dtor$0@?0??parse_nal_unit_h264@@YA?AV?$vector@Unal_info@@V?$allocator@Unal_info@@@std@@@std@@PEBE_K@Z@4HA+35
	DD	imagerel $unwind$?dtor$0@?0??parse_nal_unit_h264@@YA?AV?$vector@Unal_info@@V?$allocator@Unal_info@@@std@@@std@@PEBE_K@Z@4HA
$pdata$?dtor$1@?0??parse_nal_unit_h264@@YA?AV?$vector@Unal_info@@V?$allocator@Unal_info@@@std@@@std@@PEBE_K@Z@4HA DD imagerel ?dtor$1@?0??parse_nal_unit_h264@@YA?AV?$vector@Unal_info@@V?$allocator@Unal_info@@@std@@@std@@PEBE_K@Z@4HA
	DD	imagerel ?dtor$1@?0??parse_nal_unit_h264@@YA?AV?$vector@Unal_info@@V?$allocator@Unal_info@@@std@@@std@@PEBE_K@Z@4HA+38
	DD	imagerel $unwind$?dtor$1@?0??parse_nal_unit_h264@@YA?AV?$vector@Unal_info@@V?$allocator@Unal_info@@@std@@@std@@PEBE_K@Z@4HA
$pdata$?dtor$2@?0??parse_nal_unit_h264@@YA?AV?$vector@Unal_info@@V?$allocator@Unal_info@@@std@@@std@@PEBE_K@Z@4HA DD imagerel ?dtor$2@?0??parse_nal_unit_h264@@YA?AV?$vector@Unal_info@@V?$allocator@Unal_info@@@std@@@std@@PEBE_K@Z@4HA
	DD	imagerel ?dtor$2@?0??parse_nal_unit_h264@@YA?AV?$vector@Unal_info@@V?$allocator@Unal_info@@@std@@@std@@PEBE_K@Z@4HA+38
	DD	imagerel $unwind$?dtor$2@?0??parse_nal_unit_h264@@YA?AV?$vector@Unal_info@@V?$allocator@Unal_info@@@std@@@std@@PEBE_K@Z@4HA
$pdata$?dtor$3@?0??parse_nal_unit_h264@@YA?AV?$vector@Unal_info@@V?$allocator@Unal_info@@@std@@@std@@PEBE_K@Z@4HA DD imagerel ?dtor$3@?0??parse_nal_unit_h264@@YA?AV?$vector@Unal_info@@V?$allocator@Unal_info@@@std@@@std@@PEBE_K@Z@4HA
	DD	imagerel ?dtor$3@?0??parse_nal_unit_h264@@YA?AV?$vector@Unal_info@@V?$allocator@Unal_info@@@std@@@std@@PEBE_K@Z@4HA+58
	DD	imagerel $unwind$?dtor$3@?0??parse_nal_unit_h264@@YA?AV?$vector@Unal_info@@V?$allocator@Unal_info@@@std@@@std@@PEBE_K@Z@4HA
pdata	ENDS
;	COMDAT pdata
pdata	SEGMENT
$pdata$??0?$allocator@Unal_info@@@std@@QEAA@XZ DD imagerel $LN3
	DD	imagerel $LN3+13
	DD	imagerel $unwind$??0?$allocator@Unal_info@@@std@@QEAA@XZ
pdata	ENDS
;	COMDAT pdata
pdata	SEGMENT
$pdata$?deallocate@?$allocator@Unal_info@@@std@@QEAAXQEAUnal_info@@_K@Z DD imagerel $LN3
	DD	imagerel $LN3+65
	DD	imagerel $unwind$?deallocate@?$allocator@Unal_info@@@std@@QEAAXQEAUnal_info@@_K@Z
pdata	ENDS
;	COMDAT pdata
pdata	SEGMENT
$pdata$?allocate@?$allocator@Unal_info@@@std@@QEAAPEAUnal_info@@_K@Z DD imagerel $LN3
	DD	imagerel $LN3+59
	DD	imagerel $unwind$?allocate@?$allocator@Unal_info@@@std@@QEAAPEAUnal_info@@_K@Z
pdata	ENDS
;	COMDAT pdata
pdata	SEGMENT
$pdata$?max_size@?$_Default_allocator_traits@V?$allocator@Unal_info@@@std@@@std@@SA_KAEBV?$allocator@Unal_info@@@2@@Z DD imagerel $LN3
	DD	imagerel $LN3+18
	DD	imagerel $unwind$?max_size@?$_Default_allocator_traits@V?$allocator@Unal_info@@@std@@@std@@SA_KAEBV?$allocator@Unal_info@@@2@@Z
pdata	ENDS
;	COMDAT pdata
pdata	SEGMENT
$pdata$??0?$vector@Unal_info@@V?$allocator@Unal_info@@@std@@@std@@QEAA@XZ DD imagerel $LN3
	DD	imagerel $LN3+99
	DD	imagerel $unwind$??0?$vector@Unal_info@@V?$allocator@Unal_info@@@std@@@std@@QEAA@XZ
pdata	ENDS
;	COMDAT pdata
pdata	SEGMENT
$pdata$?_Move_construct@?$vector@Unal_info@@V?$allocator@Unal_info@@@std@@@std@@AEAAXAEAV12@U?$integral_constant@_N$00@2@@Z DD imagerel $LN3
	DD	imagerel $LN3+64
	DD	imagerel $unwind$?_Move_construct@?$vector@Unal_info@@V?$allocator@Unal_info@@@std@@@std@@AEAAXAEAV12@U?$integral_constant@_N$00@2@@Z
pdata	ENDS
;	COMDAT pdata
pdata	SEGMENT
$pdata$??0?$vector@Unal_info@@V?$allocator@Unal_info@@@std@@@std@@QEAA@$$QEAV01@@Z DD imagerel $LN3
	DD	imagerel $LN3+163
	DD	imagerel $unwind$??0?$vector@Unal_info@@V?$allocator@Unal_info@@@std@@@std@@QEAA@$$QEAV01@@Z
pdata	ENDS
;	COMDAT pdata
pdata	SEGMENT
$pdata$?_Move_assign@?$vector@Unal_info@@V?$allocator@Unal_info@@@std@@@std@@AEAAXAEAV12@U_Equal_allocators@2@@Z DD imagerel $LN3
	DD	imagerel $LN3+115
	DD	imagerel $unwind$?_Move_assign@?$vector@Unal_info@@V?$allocator@Unal_info@@@std@@@std@@AEAAXAEAV12@U_Equal_allocators@2@@Z
pdata	ENDS
;	COMDAT pdata
pdata	SEGMENT
$pdata$??4?$vector@Unal_info@@V?$allocator@Unal_info@@@std@@@std@@QEAAAEAV01@$$QEAV01@@Z DD imagerel $LN4
	DD	imagerel $LN4+101
	DD	imagerel $unwind$??4?$vector@Unal_info@@V?$allocator@Unal_info@@@std@@@std@@QEAAAEAV01@$$QEAV01@@Z
pdata	ENDS
;	COMDAT pdata
pdata	SEGMENT
$pdata$??1?$vector@Unal_info@@V?$allocator@Unal_info@@@std@@@std@@QEAA@XZ DD imagerel $LN3
	DD	imagerel $LN3+140
	DD	imagerel $unwind$??1?$vector@Unal_info@@V?$allocator@Unal_info@@@std@@@std@@QEAA@XZ
pdata	ENDS
;	COMDAT pdata
pdata	SEGMENT
$pdata$?push_back@?$vector@Unal_info@@V?$allocator@Unal_info@@@std@@@std@@QEAAXAEBUnal_info@@@Z DD imagerel $LN3
	DD	imagerel $LN3+56
	DD	imagerel $unwind$?push_back@?$vector@Unal_info@@V?$allocator@Unal_info@@@std@@@std@@QEAAXAEBUnal_info@@@Z
pdata	ENDS
;	COMDAT pdata
pdata	SEGMENT
$pdata$?begin@?$vector@Unal_info@@V?$allocator@Unal_info@@@std@@@std@@QEAA?AV?$_Vector_iterator@V?$_Vector_val@U?$_Simple_types@Unal_info@@@std@@@std@@@2@XZ DD imagerel $LN5
	DD	imagerel $LN5+110
	DD	imagerel $unwind$?begin@?$vector@Unal_info@@V?$allocator@Unal_info@@@std@@@std@@QEAA?AV?$_Vector_iterator@V?$_Vector_val@U?$_Simple_types@Unal_info@@@std@@@std@@@2@XZ
pdata	ENDS
;	COMDAT pdata
pdata	SEGMENT
$pdata$?dtor$0@?0??begin@?$vector@Unal_info@@V?$allocator@Unal_info@@@std@@@std@@QEAA?AV?$_Vector_iterator@V?$_Vector_val@U?$_Simple_types@Unal_info@@@std@@@std@@@2@XZ@4HA DD imagerel ?dtor$0@?0??begin@?$vector@Unal_info@@V?$allocator@Unal_info@@@std@@@std@@QEAA?AV?$_Vector_iterator@V?$_Vector_val@U?$_Simple_types@Unal_info@@@std@@@std@@@2@XZ@4HA
	DD	imagerel ?dtor$0@?0??begin@?$vector@Unal_info@@V?$allocator@Unal_info@@@std@@@std@@QEAA?AV?$_Vector_iterator@V?$_Vector_val@U?$_Simple_types@Unal_info@@@std@@@std@@@2@XZ@4HA+49
	DD	imagerel $unwind$?dtor$0@?0??begin@?$vector@Unal_info@@V?$allocator@Unal_info@@@std@@@std@@QEAA?AV?$_Vector_iterator@V?$_Vector_val@U?$_Simple_types@Unal_info@@@std@@@std@@@2@XZ@4HA
pdata	ENDS
;	COMDAT pdata
pdata	SEGMENT
$pdata$?begin@?$vector@Unal_info@@V?$allocator@Unal_info@@@std@@@std@@QEBA?AV?$_Vector_const_iterator@V?$_Vector_val@U?$_Simple_types@Unal_info@@@std@@@std@@@2@XZ DD imagerel $LN5
	DD	imagerel $LN5+110
	DD	imagerel $unwind$?begin@?$vector@Unal_info@@V?$allocator@Unal_info@@@std@@@std@@QEBA?AV?$_Vector_const_iterator@V?$_Vector_val@U?$_Simple_types@Unal_info@@@std@@@std@@@2@XZ
pdata	ENDS
;	COMDAT pdata
pdata	SEGMENT
$pdata$?dtor$0@?0??begin@?$vector@Unal_info@@V?$allocator@Unal_info@@@std@@@std@@QEBA?AV?$_Vector_const_iterator@V?$_Vector_val@U?$_Simple_types@Unal_info@@@std@@@std@@@2@XZ@4HA DD imagerel ?dtor$0@?0??begin@?$vector@Unal_info@@V?$allocator@Unal_info@@@std@@@std@@QEBA?AV?$_Vector_const_iterator@V?$_Vector_val@U?$_Simple_types@Unal_info@@@std@@@std@@@2@XZ@4HA
	DD	imagerel ?dtor$0@?0??begin@?$vector@Unal_info@@V?$allocator@Unal_info@@@std@@@std@@QEBA?AV?$_Vector_const_iterator@V?$_Vector_val@U?$_Simple_types@Unal_info@@@std@@@std@@@2@XZ@4HA+49
	DD	imagerel $unwind$?dtor$0@?0??begin@?$vector@Unal_info@@V?$allocator@Unal_info@@@std@@@std@@QEBA?AV?$_Vector_const_iterator@V?$_Vector_val@U?$_Simple_types@Unal_info@@@std@@@std@@@2@XZ@4HA
pdata	ENDS
;	COMDAT pdata
pdata	SEGMENT
$pdata$?end@?$vector@Unal_info@@V?$allocator@Unal_info@@@std@@@std@@QEAA?AV?$_Vector_iterator@V?$_Vector_val@U?$_Simple_types@Unal_info@@@std@@@std@@@2@XZ DD imagerel $LN5
	DD	imagerel $LN5+110
	DD	imagerel $unwind$?end@?$vector@Unal_info@@V?$allocator@Unal_info@@@std@@@std@@QEAA?AV?$_Vector_iterator@V?$_Vector_val@U?$_Simple_types@Unal_info@@@std@@@std@@@2@XZ
pdata	ENDS
;	COMDAT pdata
pdata	SEGMENT
$pdata$?dtor$0@?0??end@?$vector@Unal_info@@V?$allocator@Unal_info@@@std@@@std@@QEAA?AV?$_Vector_iterator@V?$_Vector_val@U?$_Simple_types@Unal_info@@@std@@@std@@@2@XZ@4HA DD imagerel ?dtor$0@?0??end@?$vector@Unal_info@@V?$allocator@Unal_info@@@std@@@std@@QEAA?AV?$_Vector_iterator@V?$_Vector_val@U?$_Simple_types@Unal_info@@@std@@@std@@@2@XZ@4HA
	DD	imagerel ?dtor$0@?0??end@?$vector@Unal_info@@V?$allocator@Unal_info@@@std@@@std@@QEAA?AV?$_Vector_iterator@V?$_Vector_val@U?$_Simple_types@Unal_info@@@std@@@std@@@2@XZ@4HA+49
	DD	imagerel $unwind$?dtor$0@?0??end@?$vector@Unal_info@@V?$allocator@Unal_info@@@std@@@std@@QEAA?AV?$_Vector_iterator@V?$_Vector_val@U?$_Simple_types@Unal_info@@@std@@@std@@@2@XZ@4HA
pdata	ENDS
;	COMDAT pdata
pdata	SEGMENT
$pdata$?end@?$vector@Unal_info@@V?$allocator@Unal_info@@@std@@@std@@QEBA?AV?$_Vector_const_iterator@V?$_Vector_val@U?$_Simple_types@Unal_info@@@std@@@std@@@2@XZ DD imagerel $LN5
	DD	imagerel $LN5+110
	DD	imagerel $unwind$?end@?$vector@Unal_info@@V?$allocator@Unal_info@@@std@@@std@@QEBA?AV?$_Vector_const_iterator@V?$_Vector_val@U?$_Simple_types@Unal_info@@@std@@@std@@@2@XZ
pdata	ENDS
;	COMDAT pdata
pdata	SEGMENT
$pdata$?dtor$0@?0??end@?$vector@Unal_info@@V?$allocator@Unal_info@@@std@@@std@@QEBA?AV?$_Vector_const_iterator@V?$_Vector_val@U?$_Simple_types@Unal_info@@@std@@@std@@@2@XZ@4HA DD imagerel ?dtor$0@?0??end@?$vector@Unal_info@@V?$allocator@Unal_info@@@std@@@std@@QEBA?AV?$_Vector_const_iterator@V?$_Vector_val@U?$_Simple_types@Unal_info@@@std@@@std@@@2@XZ@4HA
	DD	imagerel ?dtor$0@?0??end@?$vector@Unal_info@@V?$allocator@Unal_info@@@std@@@std@@QEBA?AV?$_Vector_const_iterator@V?$_Vector_val@U?$_Simple_types@Unal_info@@@std@@@std@@@2@XZ@4HA+49
	DD	imagerel $unwind$?dtor$0@?0??end@?$vector@Unal_info@@V?$allocator@Unal_info@@@std@@@std@@QEBA?AV?$_Vector_const_iterator@V?$_Vector_val@U?$_Simple_types@Unal_info@@@std@@@std@@@2@XZ@4HA
pdata	ENDS
;	COMDAT pdata
pdata	SEGMENT
$pdata$?_Unchecked_begin@?$vector@Unal_info@@V?$allocator@Unal_info@@@std@@@std@@QEBAPEBUnal_info@@XZ DD imagerel $LN3
	DD	imagerel $LN3+17
	DD	imagerel $unwind$?_Unchecked_begin@?$vector@Unal_info@@V?$allocator@Unal_info@@@std@@@std@@QEBAPEBUnal_info@@XZ
pdata	ENDS
;	COMDAT pdata
pdata	SEGMENT
$pdata$?_Unchecked_end@?$vector@Unal_info@@V?$allocator@Unal_info@@@std@@@std@@QEBAPEBUnal_info@@XZ DD imagerel $LN3
	DD	imagerel $LN3+17
	DD	imagerel $unwind$?_Unchecked_end@?$vector@Unal_info@@V?$allocator@Unal_info@@@std@@@std@@QEBAPEBUnal_info@@XZ
pdata	ENDS
;	COMDAT pdata
pdata	SEGMENT
$pdata$?size@?$vector@Unal_info@@V?$allocator@Unal_info@@@std@@@std@@QEBA_KXZ DD imagerel $LN3
	DD	imagerel $LN3+74
	DD	imagerel $unwind$?size@?$vector@Unal_info@@V?$allocator@Unal_info@@@std@@@std@@QEBA_KXZ
pdata	ENDS
;	COMDAT pdata
pdata	SEGMENT
$pdata$?max_size@?$vector@Unal_info@@V?$allocator@Unal_info@@@std@@@std@@QEBA_KXZ DD imagerel $LN3
	DD	imagerel $LN3+87
	DD	imagerel $unwind$?max_size@?$vector@Unal_info@@V?$allocator@Unal_info@@@std@@@std@@QEBA_KXZ
pdata	ENDS
;	COMDAT pdata
pdata	SEGMENT
$pdata$?capacity@?$vector@Unal_info@@V?$allocator@Unal_info@@@std@@@std@@QEBA_KXZ DD imagerel $LN3
	DD	imagerel $LN3+74
	DD	imagerel $unwind$?capacity@?$vector@Unal_info@@V?$allocator@Unal_info@@@std@@@std@@QEBA_KXZ
pdata	ENDS
;	COMDAT pdata
pdata	SEGMENT
$pdata$?_Umove@?$vector@Unal_info@@V?$allocator@Unal_info@@@std@@@std@@AEAAPEAUnal_info@@PEAU3@00@Z DD imagerel $LN3
	DD	imagerel $LN3+84
	DD	imagerel $unwind$?_Umove@?$vector@Unal_info@@V?$allocator@Unal_info@@@std@@@std@@AEAAPEAUnal_info@@PEAU3@00@Z
pdata	ENDS
;	COMDAT pdata
pdata	SEGMENT
$pdata$?_Umove_if_noexcept1@?$vector@Unal_info@@V?$allocator@Unal_info@@@std@@@std@@AEAAXPEAUnal_info@@00U?$integral_constant@_N$00@2@@Z DD imagerel $LN3
	DD	imagerel $LN3+84
	DD	imagerel $unwind$?_Umove_if_noexcept1@?$vector@Unal_info@@V?$allocator@Unal_info@@@std@@@std@@AEAAXPEAUnal_info@@00U?$integral_constant@_N$00@2@@Z
pdata	ENDS
;	COMDAT pdata
pdata	SEGMENT
$pdata$?_Umove_if_noexcept@?$vector@Unal_info@@V?$allocator@Unal_info@@@std@@@std@@AEAAXPEAUnal_info@@00@Z DD imagerel $LN3
	DD	imagerel $LN3+102
	DD	imagerel $unwind$?_Umove_if_noexcept@?$vector@Unal_info@@V?$allocator@Unal_info@@@std@@@std@@AEAAXPEAUnal_info@@00@Z
pdata	ENDS
;	COMDAT pdata
pdata	SEGMENT
$pdata$?_Destroy@?$vector@Unal_info@@V?$allocator@Unal_info@@@std@@@std@@AEAAXPEAUnal_info@@0@Z DD imagerel $LN3
	DD	imagerel $LN3+74
	DD	imagerel $unwind$?_Destroy@?$vector@Unal_info@@V?$allocator@Unal_info@@@std@@@std@@AEAAXPEAUnal_info@@0@Z
pdata	ENDS
;	COMDAT pdata
pdata	SEGMENT
$pdata$?_Calculate_growth@?$vector@Unal_info@@V?$allocator@Unal_info@@@std@@@std@@AEBA_K_K@Z DD imagerel $LN5
	DD	imagerel $LN5+166
	DD	imagerel $unwind$?_Calculate_growth@?$vector@Unal_info@@V?$allocator@Unal_info@@@std@@@std@@AEBA_K_K@Z
pdata	ENDS
;	COMDAT pdata
pdata	SEGMENT
$pdata$?_Change_array@?$vector@Unal_info@@V?$allocator@Unal_info@@@std@@@std@@AEAAXQEAUnal_info@@_K1@Z DD imagerel $LN4
	DD	imagerel $LN4+281
	DD	imagerel $unwind$?_Change_array@?$vector@Unal_info@@V?$allocator@Unal_info@@@std@@@std@@AEAAXQEAUnal_info@@_K1@Z
pdata	ENDS
;	COMDAT pdata
pdata	SEGMENT
$pdata$?_Tidy@?$vector@Unal_info@@V?$allocator@Unal_info@@@std@@@std@@AEAAXXZ DD imagerel $LN4
	DD	imagerel $LN4+247
	DD	imagerel $unwind$?_Tidy@?$vector@Unal_info@@V?$allocator@Unal_info@@@std@@@std@@AEAAXXZ
pdata	ENDS
;	COMDAT pdata
pdata	SEGMENT
$pdata$?_Xlength@?$vector@Unal_info@@V?$allocator@Unal_info@@@std@@@std@@CAXXZ DD imagerel $LN3
	DD	imagerel $LN3+39
	DD	imagerel $unwind$?_Xlength@?$vector@Unal_info@@V?$allocator@Unal_info@@@std@@@std@@CAXXZ
pdata	ENDS
;	COMDAT pdata
pdata	SEGMENT
$pdata$?_Orphan_range@?$vector@Unal_info@@V?$allocator@Unal_info@@@std@@@std@@AEBAXPEAUnal_info@@0@Z DD imagerel $LN9
	DD	imagerel $LN9+214
	DD	imagerel $unwind$?_Orphan_range@?$vector@Unal_info@@V?$allocator@Unal_info@@@std@@@std@@AEBAXPEAUnal_info@@0@Z
pdata	ENDS
;	COMDAT pdata
pdata	SEGMENT
$pdata$?dtor$0@?0??_Orphan_range@?$vector@Unal_info@@V?$allocator@Unal_info@@@std@@@std@@AEBAXPEAUnal_info@@0@Z@4HA DD imagerel ?dtor$0@?0??_Orphan_range@?$vector@Unal_info@@V?$allocator@Unal_info@@@std@@@std@@AEBAXPEAUnal_info@@0@Z@4HA
	DD	imagerel ?dtor$0@?0??_Orphan_range@?$vector@Unal_info@@V?$allocator@Unal_info@@@std@@@std@@AEBAXPEAUnal_info@@0@Z@4HA+36
	DD	imagerel $unwind$?dtor$0@?0??_Orphan_range@?$vector@Unal_info@@V?$allocator@Unal_info@@@std@@@std@@AEBAXPEAUnal_info@@0@Z@4HA
pdata	ENDS
;	COMDAT pdata
pdata	SEGMENT
$pdata$?_Getal@?$vector@Unal_info@@V?$allocator@Unal_info@@@std@@@std@@AEAAAEAV?$allocator@Unal_info@@@2@XZ DD imagerel $LN3
	DD	imagerel $LN3+49
	DD	imagerel $unwind$?_Getal@?$vector@Unal_info@@V?$allocator@Unal_info@@@std@@@std@@AEAAAEAV?$allocator@Unal_info@@@2@XZ
pdata	ENDS
;	COMDAT pdata
pdata	SEGMENT
$pdata$?_Getal@?$vector@Unal_info@@V?$allocator@Unal_info@@@std@@@std@@AEBAAEBV?$allocator@Unal_info@@@2@XZ DD imagerel $LN3
	DD	imagerel $LN3+49
	DD	imagerel $unwind$?_Getal@?$vector@Unal_info@@V?$allocator@Unal_info@@@std@@@std@@AEBAAEBV?$allocator@Unal_info@@@2@XZ
pdata	ENDS
;	COMDAT pdata
pdata	SEGMENT
$pdata$??0?$_Vector_val@U?$_Simple_types@Unal_info@@@std@@@std@@QEAA@XZ DD imagerel $LN3
	DD	imagerel $LN3+90
	DD	imagerel $unwind$??0?$_Vector_val@U?$_Simple_types@Unal_info@@@std@@@std@@QEAA@XZ
pdata	ENDS
;	COMDAT pdata
pdata	SEGMENT
$pdata$?_Take_contents@?$_Vector_val@U?$_Simple_types@Unal_info@@@std@@@std@@QEAAXAEAV12@@Z DD imagerel $LN3
	DD	imagerel $LN3+149
	DD	imagerel $unwind$?_Take_contents@?$_Vector_val@U?$_Simple_types@Unal_info@@@std@@@std@@QEAAXAEAV12@@Z
pdata	ENDS
;	COMDAT pdata
pdata	SEGMENT
$pdata$?_Get_first@?$_Compressed_pair@V?$allocator@Unal_info@@@std@@V?$_Vector_val@U?$_Simple_types@Unal_info@@@std@@@2@$00@std@@QEAAAEAV?$allocator@Unal_info@@@2@XZ DD imagerel $LN3
	DD	imagerel $LN3+13
	DD	imagerel $unwind$?_Get_first@?$_Compressed_pair@V?$allocator@Unal_info@@@std@@V?$_Vector_val@U?$_Simple_types@Unal_info@@@std@@@2@$00@std@@QEAAAEAV?$allocator@Unal_info@@@2@XZ
pdata	ENDS
;	COMDAT pdata
pdata	SEGMENT
$pdata$?_Get_first@?$_Compressed_pair@V?$allocator@Unal_info@@@std@@V?$_Vector_val@U?$_Simple_types@Unal_info@@@std@@@2@$00@std@@QEBAAEBV?$allocator@Unal_info@@@2@XZ DD imagerel $LN3
	DD	imagerel $LN3+13
	DD	imagerel $unwind$?_Get_first@?$_Compressed_pair@V?$allocator@Unal_info@@@std@@V?$_Vector_val@U?$_Simple_types@Unal_info@@@std@@@2@$00@std@@QEBAAEBV?$allocator@Unal_info@@@2@XZ
pdata	ENDS
;	COMDAT pdata
pdata	SEGMENT
$pdata$??0?$_Vector_const_iterator@V?$_Vector_val@U?$_Simple_types@Unal_info@@@std@@@std@@@std@@QEAA@PEAUnal_info@@PEBU_Container_base12@1@@Z DD imagerel $LN4
	DD	imagerel $LN4+92
	DD	imagerel $unwind$??0?$_Vector_const_iterator@V?$_Vector_val@U?$_Simple_types@Unal_info@@@std@@@std@@@std@@QEAA@PEAUnal_info@@PEBU_Container_base12@1@@Z
pdata	ENDS
;	COMDAT pdata
pdata	SEGMENT
$pdata$?dtor$0@?0???0?$_Vector_const_iterator@V?$_Vector_val@U?$_Simple_types@Unal_info@@@std@@@std@@@std@@QEAA@PEAUnal_info@@PEBU_Container_base12@1@@Z@4HA DD imagerel ?dtor$0@?0???0?$_Vector_const_iterator@V?$_Vector_val@U?$_Simple_types@Unal_info@@@std@@@std@@@std@@QEAA@PEAUnal_info@@PEBU_Container_base12@1@@Z@4HA
	DD	imagerel ?dtor$0@?0???0?$_Vector_const_iterator@V?$_Vector_val@U?$_Simple_types@Unal_info@@@std@@@std@@@std@@QEAA@PEAUnal_info@@PEBU_Container_base12@1@@Z@4HA+35
	DD	imagerel $unwind$?dtor$0@?0???0?$_Vector_const_iterator@V?$_Vector_val@U?$_Simple_types@Unal_info@@@std@@@std@@@std@@QEAA@PEAUnal_info@@PEBU_Container_base12@1@@Z@4HA
pdata	ENDS
;	COMDAT pdata
pdata	SEGMENT
$pdata$??C?$_Vector_const_iterator@V?$_Vector_val@U?$_Simple_types@Unal_info@@@std@@@std@@@std@@QEBAPEBUnal_info@@XZ DD imagerel $LN21
	DD	imagerel $LN21+346
	DD	imagerel $unwind$??C?$_Vector_const_iterator@V?$_Vector_val@U?$_Simple_types@Unal_info@@@std@@@std@@@std@@QEBAPEBUnal_info@@XZ
pdata	ENDS
;	COMDAT pdata
pdata	SEGMENT
$pdata$?_Verify_offset@?$_Vector_const_iterator@V?$_Vector_val@U?$_Simple_types@Unal_info@@@std@@@std@@@std@@QEBAX_J@Z DD imagerel $LN33
	DD	imagerel $LN33+533
	DD	imagerel $unwind$?_Verify_offset@?$_Vector_const_iterator@V?$_Vector_val@U?$_Simple_types@Unal_info@@@std@@@std@@@std@@QEBAX_J@Z
pdata	ENDS
;	COMDAT pdata
pdata	SEGMENT
$pdata$??Y?$_Vector_const_iterator@V?$_Vector_val@U?$_Simple_types@Unal_info@@@std@@@std@@@std@@QEAAAEAV01@_J@Z DD imagerel $LN3
	DD	imagerel $LN3+85
	DD	imagerel $unwind$??Y?$_Vector_const_iterator@V?$_Vector_val@U?$_Simple_types@Unal_info@@@std@@@std@@@std@@QEAAAEAV01@_J@Z
pdata	ENDS
;	COMDAT pdata
pdata	SEGMENT
$pdata$??Z?$_Vector_const_iterator@V?$_Vector_val@U?$_Simple_types@Unal_info@@@std@@@std@@@std@@QEAAAEAV01@_J@Z DD imagerel $LN3
	DD	imagerel $LN3+62
	DD	imagerel $unwind$??Z?$_Vector_const_iterator@V?$_Vector_val@U?$_Simple_types@Unal_info@@@std@@@std@@@std@@QEAAAEAV01@_J@Z
pdata	ENDS
;	COMDAT pdata
pdata	SEGMENT
$pdata$??8?$_Vector_const_iterator@V?$_Vector_val@U?$_Simple_types@Unal_info@@@std@@@std@@@std@@QEBA_NAEBV01@@Z DD imagerel $LN5
	DD	imagerel $LN5+99
	DD	imagerel $unwind$??8?$_Vector_const_iterator@V?$_Vector_val@U?$_Simple_types@Unal_info@@@std@@@std@@@std@@QEBA_NAEBV01@@Z
pdata	ENDS
;	COMDAT pdata
pdata	SEGMENT
$pdata$??9?$_Vector_const_iterator@V?$_Vector_val@U?$_Simple_types@Unal_info@@@std@@@std@@@std@@QEBA_NAEBV01@@Z DD imagerel $LN5
	DD	imagerel $LN5+86
	DD	imagerel $unwind$??9?$_Vector_const_iterator@V?$_Vector_val@U?$_Simple_types@Unal_info@@@std@@@std@@@std@@QEBA_NAEBV01@@Z
pdata	ENDS
;	COMDAT pdata
pdata	SEGMENT
$pdata$?_Compat@?$_Vector_const_iterator@V?$_Vector_val@U?$_Simple_types@Unal_info@@@std@@@std@@@std@@QEBAXAEBV12@@Z DD imagerel $LN12
	DD	imagerel $LN12+195
	DD	imagerel $unwind$?_Compat@?$_Vector_const_iterator@V?$_Vector_val@U?$_Simple_types@Unal_info@@@std@@@std@@@std@@QEBAXAEBV12@@Z
pdata	ENDS
;	COMDAT pdata
pdata	SEGMENT
$pdata$?_Verify_range@std@@YAXAEBV?$_Vector_const_iterator@V?$_Vector_val@U?$_Simple_types@Unal_info@@@std@@@std@@@1@0@Z DD imagerel $LN21
	DD	imagerel $LN21+334
	DD	imagerel $unwind$?_Verify_range@std@@YAXAEBV?$_Vector_const_iterator@V?$_Vector_val@U?$_Simple_types@Unal_info@@@std@@@std@@@1@0@Z
pdata	ENDS
;	COMDAT pdata
pdata	SEGMENT
$pdata$?_Unwrapped@?$_Vector_const_iterator@V?$_Vector_val@U?$_Simple_types@Unal_info@@@std@@@std@@@std@@QEBAPEBUnal_info@@XZ DD imagerel $LN3
	DD	imagerel $LN3+50
	DD	imagerel $unwind$?_Unwrapped@?$_Vector_const_iterator@V?$_Vector_val@U?$_Simple_types@Unal_info@@@std@@@std@@@std@@QEBAPEBUnal_info@@XZ
pdata	ENDS
;	COMDAT pdata
pdata	SEGMENT
$pdata$?_Seek_to@?$_Vector_const_iterator@V?$_Vector_val@U?$_Simple_types@Unal_info@@@std@@@std@@@std@@QEAAXPEBUnal_info@@@Z DD imagerel $LN3
	DD	imagerel $LN3+60
	DD	imagerel $unwind$?_Seek_to@?$_Vector_const_iterator@V?$_Vector_val@U?$_Simple_types@Unal_info@@@std@@@std@@@std@@QEAAXPEBUnal_info@@@Z
pdata	ENDS
;	COMDAT pdata
pdata	SEGMENT
$pdata$??1?$_Vector_const_iterator@V?$_Vector_val@U?$_Simple_types@Unal_info@@@std@@@std@@@std@@QEAA@XZ DD imagerel $LN4
	DD	imagerel $LN4+47
	DD	imagerel $unwind$??1?$_Vector_const_iterator@V?$_Vector_val@U?$_Simple_types@Unal_info@@@std@@@std@@@std@@QEAA@XZ
pdata	ENDS
;	COMDAT pdata
pdata	SEGMENT
$pdata$?dtor$0@?0???1?$_Vector_const_iterator@V?$_Vector_val@U?$_Simple_types@Unal_info@@@std@@@std@@@std@@QEAA@XZ@4HA DD imagerel ?dtor$0@?0???1?$_Vector_const_iterator@V?$_Vector_val@U?$_Simple_types@Unal_info@@@std@@@std@@@std@@QEAA@XZ@4HA
	DD	imagerel ?dtor$0@?0???1?$_Vector_const_iterator@V?$_Vector_val@U?$_Simple_types@Unal_info@@@std@@@std@@@std@@QEAA@XZ@4HA+35
	DD	imagerel $unwind$?dtor$0@?0???1?$_Vector_const_iterator@V?$_Vector_val@U?$_Simple_types@Unal_info@@@std@@@std@@@std@@QEAA@XZ@4HA
pdata	ENDS
;	COMDAT pdata
pdata	SEGMENT
$pdata$??0?$_Vector_const_iterator@V?$_Vector_val@U?$_Simple_types@Unal_info@@@std@@@std@@@std@@QEAA@AEBV01@@Z DD imagerel $LN4
	DD	imagerel $LN4+80
	DD	imagerel $unwind$??0?$_Vector_const_iterator@V?$_Vector_val@U?$_Simple_types@Unal_info@@@std@@@std@@@std@@QEAA@AEBV01@@Z
pdata	ENDS
;	COMDAT pdata
pdata	SEGMENT
$pdata$?dtor$0@?0???0?$_Vector_const_iterator@V?$_Vector_val@U?$_Simple_types@Unal_info@@@std@@@std@@@std@@QEAA@AEBV01@@Z@4HA DD imagerel ?dtor$0@?0???0?$_Vector_const_iterator@V?$_Vector_val@U?$_Simple_types@Unal_info@@@std@@@std@@@std@@QEAA@AEBV01@@Z@4HA
	DD	imagerel ?dtor$0@?0???0?$_Vector_const_iterator@V?$_Vector_val@U?$_Simple_types@Unal_info@@@std@@@std@@@std@@QEAA@AEBV01@@Z@4HA+35
	DD	imagerel $unwind$?dtor$0@?0???0?$_Vector_const_iterator@V?$_Vector_val@U?$_Simple_types@Unal_info@@@std@@@std@@@std@@QEAA@AEBV01@@Z@4HA
pdata	ENDS
;	COMDAT pdata
pdata	SEGMENT
$pdata$??0?$_Vector_const_iterator@V?$_Vector_val@U?$_Simple_types@Unal_info@@@std@@@std@@@std@@QEAA@$$QEAV01@@Z DD imagerel $LN4
	DD	imagerel $LN4+80
	DD	imagerel $unwind$??0?$_Vector_const_iterator@V?$_Vector_val@U?$_Simple_types@Unal_info@@@std@@@std@@@std@@QEAA@$$QEAV01@@Z
pdata	ENDS
;	COMDAT pdata
pdata	SEGMENT
$pdata$?dtor$0@?0???0?$_Vector_const_iterator@V?$_Vector_val@U?$_Simple_types@Unal_info@@@std@@@std@@@std@@QEAA@$$QEAV01@@Z@4HA DD imagerel ?dtor$0@?0???0?$_Vector_const_iterator@V?$_Vector_val@U?$_Simple_types@Unal_info@@@std@@@std@@@std@@QEAA@$$QEAV01@@Z@4HA
	DD	imagerel ?dtor$0@?0???0?$_Vector_const_iterator@V?$_Vector_val@U?$_Simple_types@Unal_info@@@std@@@std@@@std@@QEAA@$$QEAV01@@Z@4HA+35
	DD	imagerel $unwind$?dtor$0@?0???0?$_Vector_const_iterator@V?$_Vector_val@U?$_Simple_types@Unal_info@@@std@@@std@@@std@@QEAA@$$QEAV01@@Z@4HA
pdata	ENDS
;	COMDAT pdata
pdata	SEGMENT
$pdata$??0?$_Vector_iterator@V?$_Vector_val@U?$_Simple_types@Unal_info@@@std@@@std@@@std@@QEAA@PEAUnal_info@@PEBU_Container_base12@1@@Z DD imagerel $LN4
	DD	imagerel $LN4+72
	DD	imagerel $unwind$??0?$_Vector_iterator@V?$_Vector_val@U?$_Simple_types@Unal_info@@@std@@@std@@@std@@QEAA@PEAUnal_info@@PEBU_Container_base12@1@@Z
pdata	ENDS
;	COMDAT pdata
pdata	SEGMENT
$pdata$?dtor$0@?0???0?$_Vector_iterator@V?$_Vector_val@U?$_Simple_types@Unal_info@@@std@@@std@@@std@@QEAA@PEAUnal_info@@PEBU_Container_base12@1@@Z@4HA DD imagerel ?dtor$0@?0???0?$_Vector_iterator@V?$_Vector_val@U?$_Simple_types@Unal_info@@@std@@@std@@@std@@QEAA@PEAUnal_info@@PEBU_Container_base12@1@@Z@4HA
	DD	imagerel ?dtor$0@?0???0?$_Vector_iterator@V?$_Vector_val@U?$_Simple_types@Unal_info@@@std@@@std@@@std@@QEAA@PEAUnal_info@@PEBU_Container_base12@1@@Z@4HA+35
	DD	imagerel $unwind$?dtor$0@?0???0?$_Vector_iterator@V?$_Vector_val@U?$_Simple_types@Unal_info@@@std@@@std@@@std@@QEAA@PEAUnal_info@@PEBU_Container_base12@1@@Z@4HA
pdata	ENDS
;	COMDAT pdata
pdata	SEGMENT
$pdata$??C?$_Vector_iterator@V?$_Vector_val@U?$_Simple_types@Unal_info@@@std@@@std@@@std@@QEBAPEAUnal_info@@XZ DD imagerel $LN3
	DD	imagerel $LN3+54
	DD	imagerel $unwind$??C?$_Vector_iterator@V?$_Vector_val@U?$_Simple_types@Unal_info@@@std@@@std@@@std@@QEBAPEAUnal_info@@XZ
pdata	ENDS
;	COMDAT pdata
pdata	SEGMENT
$pdata$??Z?$_Vector_iterator@V?$_Vector_val@U?$_Simple_types@Unal_info@@@std@@@std@@@std@@QEAAAEAV01@_J@Z DD imagerel $LN3
	DD	imagerel $LN3+61
	DD	imagerel $unwind$??Z?$_Vector_iterator@V?$_Vector_val@U?$_Simple_types@Unal_info@@@std@@@std@@@std@@QEAAAEAV01@_J@Z
pdata	ENDS
;	COMDAT pdata
pdata	SEGMENT
$pdata$??G?$_Vector_iterator@V?$_Vector_val@U?$_Simple_types@Unal_info@@@std@@@std@@@std@@QEBA?AV01@_J@Z DD imagerel $LN6
	DD	imagerel $LN6+146
	DD	imagerel $unwind$??G?$_Vector_iterator@V?$_Vector_val@U?$_Simple_types@Unal_info@@@std@@@std@@@std@@QEBA?AV01@_J@Z
pdata	ENDS
;	COMDAT pdata
pdata	SEGMENT
$pdata$?dtor$0@?0???G?$_Vector_iterator@V?$_Vector_val@U?$_Simple_types@Unal_info@@@std@@@std@@@std@@QEBA?AV01@_J@Z@4HA DD imagerel ?dtor$0@?0???G?$_Vector_iterator@V?$_Vector_val@U?$_Simple_types@Unal_info@@@std@@@std@@@std@@QEBA?AV01@_J@Z@4HA
	DD	imagerel ?dtor$0@?0???G?$_Vector_iterator@V?$_Vector_val@U?$_Simple_types@Unal_info@@@std@@@std@@@std@@QEBA?AV01@_J@Z@4HA+35
	DD	imagerel $unwind$?dtor$0@?0???G?$_Vector_iterator@V?$_Vector_val@U?$_Simple_types@Unal_info@@@std@@@std@@@std@@QEBA?AV01@_J@Z@4HA
pdata	ENDS
;	COMDAT pdata
pdata	SEGMENT
$pdata$?dtor$1@?0???G?$_Vector_iterator@V?$_Vector_val@U?$_Simple_types@Unal_info@@@std@@@std@@@std@@QEBA?AV01@_J@Z@4HA DD imagerel ?dtor$1@?0???G?$_Vector_iterator@V?$_Vector_val@U?$_Simple_types@Unal_info@@@std@@@std@@@std@@QEBA?AV01@_J@Z@4HA
	DD	imagerel ?dtor$1@?0???G?$_Vector_iterator@V?$_Vector_val@U?$_Simple_types@Unal_info@@@std@@@std@@@std@@QEBA?AV01@_J@Z@4HA+49
	DD	imagerel $unwind$?dtor$1@?0???G?$_Vector_iterator@V?$_Vector_val@U?$_Simple_types@Unal_info@@@std@@@std@@@std@@QEBA?AV01@_J@Z@4HA
pdata	ENDS
;	COMDAT pdata
pdata	SEGMENT
$pdata$?_Unwrapped@?$_Vector_iterator@V?$_Vector_val@U?$_Simple_types@Unal_info@@@std@@@std@@@std@@QEBAPEAUnal_info@@XZ DD imagerel $LN3
	DD	imagerel $LN3+50
	DD	imagerel $unwind$?_Unwrapped@?$_Vector_iterator@V?$_Vector_val@U?$_Simple_types@Unal_info@@@std@@@std@@@std@@QEBAPEAUnal_info@@XZ
pdata	ENDS
;	COMDAT pdata
pdata	SEGMENT
$pdata$??1?$_Vector_iterator@V?$_Vector_val@U?$_Simple_types@Unal_info@@@std@@@std@@@std@@QEAA@XZ DD imagerel $LN4
	DD	imagerel $LN4+47
	DD	imagerel $unwind$??1?$_Vector_iterator@V?$_Vector_val@U?$_Simple_types@Unal_info@@@std@@@std@@@std@@QEAA@XZ
pdata	ENDS
;	COMDAT pdata
pdata	SEGMENT
$pdata$?dtor$0@?0???1?$_Vector_iterator@V?$_Vector_val@U?$_Simple_types@Unal_info@@@std@@@std@@@std@@QEAA@XZ@4HA DD imagerel ?dtor$0@?0???1?$_Vector_iterator@V?$_Vector_val@U?$_Simple_types@Unal_info@@@std@@@std@@@std@@QEAA@XZ@4HA
	DD	imagerel ?dtor$0@?0???1?$_Vector_iterator@V?$_Vector_val@U?$_Simple_types@Unal_info@@@std@@@std@@@std@@QEAA@XZ@4HA+35
	DD	imagerel $unwind$?dtor$0@?0???1?$_Vector_iterator@V?$_Vector_val@U?$_Simple_types@Unal_info@@@std@@@std@@@std@@QEAA@XZ@4HA
pdata	ENDS
;	COMDAT pdata
pdata	SEGMENT
$pdata$??0?$_Vector_iterator@V?$_Vector_val@U?$_Simple_types@Unal_info@@@std@@@std@@@std@@QEAA@AEBV01@@Z DD imagerel $LN4
	DD	imagerel $LN4+62
	DD	imagerel $unwind$??0?$_Vector_iterator@V?$_Vector_val@U?$_Simple_types@Unal_info@@@std@@@std@@@std@@QEAA@AEBV01@@Z
pdata	ENDS
;	COMDAT pdata
pdata	SEGMENT
$pdata$?dtor$0@?0???0?$_Vector_iterator@V?$_Vector_val@U?$_Simple_types@Unal_info@@@std@@@std@@@std@@QEAA@AEBV01@@Z@4HA DD imagerel ?dtor$0@?0???0?$_Vector_iterator@V?$_Vector_val@U?$_Simple_types@Unal_info@@@std@@@std@@@std@@QEAA@AEBV01@@Z@4HA
	DD	imagerel ?dtor$0@?0???0?$_Vector_iterator@V?$_Vector_val@U?$_Simple_types@Unal_info@@@std@@@std@@@std@@QEAA@AEBV01@@Z@4HA+35
	DD	imagerel $unwind$?dtor$0@?0???0?$_Vector_iterator@V?$_Vector_val@U?$_Simple_types@Unal_info@@@std@@@std@@@std@@QEAA@AEBV01@@Z@4HA
pdata	ENDS
;	COMDAT pdata
pdata	SEGMENT
$pdata$??0?$_Vector_iterator@V?$_Vector_val@U?$_Simple_types@Unal_info@@@std@@@std@@@std@@QEAA@$$QEAV01@@Z DD imagerel $LN4
	DD	imagerel $LN4+62
	DD	imagerel $unwind$??0?$_Vector_iterator@V?$_Vector_val@U?$_Simple_types@Unal_info@@@std@@@std@@@std@@QEAA@$$QEAV01@@Z
pdata	ENDS
;	COMDAT pdata
pdata	SEGMENT
$pdata$?dtor$0@?0???0?$_Vector_iterator@V?$_Vector_val@U?$_Simple_types@Unal_info@@@std@@@std@@@std@@QEAA@$$QEAV01@@Z@4HA DD imagerel ?dtor$0@?0???0?$_Vector_iterator@V?$_Vector_val@U?$_Simple_types@Unal_info@@@std@@@std@@@std@@QEAA@$$QEAV01@@Z@4HA
	DD	imagerel ?dtor$0@?0???0?$_Vector_iterator@V?$_Vector_val@U?$_Simple_types@Unal_info@@@std@@@std@@@std@@QEAA@$$QEAV01@@Z@4HA+35
	DD	imagerel $unwind$?dtor$0@?0???0?$_Vector_iterator@V?$_Vector_val@U?$_Simple_types@Unal_info@@@std@@@std@@@std@@QEAA@$$QEAV01@@Z@4HA
pdata	ENDS
pdata	SEGMENT
$pdata$?parse_nal_unit_hevc@@YA?AV?$vector@Unal_info@@V?$allocator@Unal_info@@@std@@@std@@PEBE_K@Z DD imagerel ?parse_nal_unit_hevc@@YA?AV?$vector@Unal_info@@V?$allocator@Unal_info@@@std@@@std@@PEBE_K@Z
	DD	imagerel ?parse_nal_unit_hevc@@YA?AV?$vector@Unal_info@@V?$allocator@Unal_info@@@std@@@std@@PEBE_K@Z+783
	DD	imagerel $unwind$?parse_nal_unit_hevc@@YA?AV?$vector@Unal_info@@V?$allocator@Unal_info@@@std@@@std@@PEBE_K@Z
pdata	ENDS
pdata	SEGMENT
$pdata$?dtor$0@?0??parse_nal_unit_hevc@@YA?AV?$vector@Unal_info@@V?$allocator@Unal_info@@@std@@@std@@PEBE_K@Z@4HA DD imagerel ?dtor$0@?0??parse_nal_unit_hevc@@YA?AV?$vector@Unal_info@@V?$allocator@Unal_info@@@std@@@std@@PEBE_K@Z@4HA
	DD	imagerel ?dtor$0@?0??parse_nal_unit_hevc@@YA?AV?$vector@Unal_info@@V?$allocator@Unal_info@@@std@@@std@@PEBE_K@Z@4HA+35
	DD	imagerel $unwind$?dtor$0@?0??parse_nal_unit_hevc@@YA?AV?$vector@Unal_info@@V?$allocator@Unal_info@@@std@@@std@@PEBE_K@Z@4HA
$pdata$?dtor$1@?0??parse_nal_unit_hevc@@YA?AV?$vector@Unal_info@@V?$allocator@Unal_info@@@std@@@std@@PEBE_K@Z@4HA DD imagerel ?dtor$1@?0??parse_nal_unit_hevc@@YA?AV?$vector@Unal_info@@V?$allocator@Unal_info@@@std@@@std@@PEBE_K@Z@4HA
	DD	imagerel ?dtor$1@?0??parse_nal_unit_hevc@@YA?AV?$vector@Unal_info@@V?$allocator@Unal_info@@@std@@@std@@PEBE_K@Z@4HA+38
	DD	imagerel $unwind$?dtor$1@?0??parse_nal_unit_hevc@@YA?AV?$vector@Unal_info@@V?$allocator@Unal_info@@@std@@@std@@PEBE_K@Z@4HA
$pdata$?dtor$2@?0??parse_nal_unit_hevc@@YA?AV?$vector@Unal_info@@V?$allocator@Unal_info@@@std@@@std@@PEBE_K@Z@4HA DD imagerel ?dtor$2@?0??parse_nal_unit_hevc@@YA?AV?$vector@Unal_info@@V?$allocator@Unal_info@@@std@@@std@@PEBE_K@Z@4HA
	DD	imagerel ?dtor$2@?0??parse_nal_unit_hevc@@YA?AV?$vector@Unal_info@@V?$allocator@Unal_info@@@std@@@std@@PEBE_K@Z@4HA+38
	DD	imagerel $unwind$?dtor$2@?0??parse_nal_unit_hevc@@YA?AV?$vector@Unal_info@@V?$allocator@Unal_info@@@std@@@std@@PEBE_K@Z@4HA
$pdata$?dtor$3@?0??parse_nal_unit_hevc@@YA?AV?$vector@Unal_info@@V?$allocator@Unal_info@@@std@@@std@@PEBE_K@Z@4HA DD imagerel ?dtor$3@?0??parse_nal_unit_hevc@@YA?AV?$vector@Unal_info@@V?$allocator@Unal_info@@@std@@@std@@PEBE_K@Z@4HA
	DD	imagerel ?dtor$3@?0??parse_nal_unit_hevc@@YA?AV?$vector@Unal_info@@V?$allocator@Unal_info@@@std@@@std@@PEBE_K@Z@4HA+58
	DD	imagerel $unwind$?dtor$3@?0??parse_nal_unit_hevc@@YA?AV?$vector@Unal_info@@V?$allocator@Unal_info@@@std@@@std@@PEBE_K@Z@4HA
pdata	ENDS
pdata	SEGMENT
$pdata$?WriteY4MHeader@@YA?AW4RGY_ERR@@PEAU_iobuf@@PEBUVideoInfo@@@Z DD imagerel ?WriteY4MHeader@@YA?AW4RGY_ERR@@PEAU_iobuf@@PEBUVideoInfo@@@Z
	DD	imagerel ?WriteY4MHeader@@YA?AW4RGY_ERR@@PEAU_iobuf@@PEBUVideoInfo@@@Z+853
	DD	imagerel $unwind$?WriteY4MHeader@@YA?AW4RGY_ERR@@PEAU_iobuf@@PEBUVideoInfo@@@Z
pdata	ENDS
;	COMDAT pdata
pdata	SEGMENT
$pdata$??$?0Ufp_deleter@@$0A@@?$unique_ptr@U_iobuf@@Ufp_deleter@@@std@@QEAA@XZ DD imagerel $LN3
	DD	imagerel $LN3+60
	DD	imagerel $unwind$??$?0Ufp_deleter@@$0A@@?$unique_ptr@U_iobuf@@Ufp_deleter@@@std@@QEAA@XZ
pdata	ENDS
;	COMDAT pdata
pdata	SEGMENT
$pdata$??$?0Umalloc_deleter@@$0A@@?$unique_ptr@DUmalloc_deleter@@@std@@QEAA@XZ DD imagerel $LN3
	DD	imagerel $LN3+60
	DD	imagerel $unwind$??$?0Umalloc_deleter@@$0A@@?$unique_ptr@DUmalloc_deleter@@@std@@QEAA@XZ
pdata	ENDS
;	COMDAT pdata
pdata	SEGMENT
$pdata$??$?0Ualigned_malloc_deleter@@$0A@@?$unique_ptr@EUaligned_malloc_deleter@@@std@@QEAA@XZ DD imagerel $LN3
	DD	imagerel $LN3+60
	DD	imagerel $unwind$??$?0Ualigned_malloc_deleter@@$0A@@?$unique_ptr@EUaligned_malloc_deleter@@@std@@QEAA@XZ
pdata	ENDS
;	COMDAT pdata
pdata	SEGMENT
$pdata$??$?0U?$RGYAVDeleter@UAVBSFContext@@@@$0A@@?$unique_ptr@UAVBSFContext@@U?$RGYAVDeleter@UAVBSFContext@@@@@std@@QEAA@XZ DD imagerel $LN4
	DD	imagerel $LN4+60
	DD	imagerel $unwind$??$?0U?$RGYAVDeleter@UAVBSFContext@@@@$0A@@?$unique_ptr@UAVBSFContext@@U?$RGYAVDeleter@UAVBSFContext@@@@@std@@QEAA@XZ
pdata	ENDS
;	COMDAT pdata
pdata	SEGMENT
$pdata$?dtor$0@?0???$?0U?$RGYAVDeleter@UAVBSFContext@@@@$0A@@?$unique_ptr@UAVBSFContext@@U?$RGYAVDeleter@UAVBSFContext@@@@@std@@QEAA@XZ@4HA DD imagerel ?dtor$0@?0???$?0U?$RGYAVDeleter@UAVBSFContext@@@@$0A@@?$unique_ptr@UAVBSFContext@@U?$RGYAVDeleter@UAVBSFContext@@@@@std@@QEAA@XZ@4HA
	DD	imagerel ?dtor$0@?0???$?0U?$RGYAVDeleter@UAVBSFContext@@@@$0A@@?$unique_ptr@UAVBSFContext@@U?$RGYAVDeleter@UAVBSFContext@@@@@std@@QEAA@XZ@4HA+35
	DD	imagerel $unwind$?dtor$0@?0???$?0U?$RGYAVDeleter@UAVBSFContext@@@@$0A@@?$unique_ptr@UAVBSFContext@@U?$RGYAVDeleter@UAVBSFContext@@@@@std@@QEAA@XZ@4HA
pdata	ENDS
;	COMDAT pdata
pdata	SEGMENT
$pdata$??1?$pair@HV?$basic_string@DU?$char_traits@D@std@@V?$allocator@D@2@@std@@@std@@QEAA@XZ DD imagerel $LN4
	DD	imagerel $LN4+54
	DD	imagerel $unwind$??1?$pair@HV?$basic_string@DU?$char_traits@D@std@@V?$allocator@D@2@@std@@@std@@QEAA@XZ
pdata	ENDS
